
code.o:     file format elf64-littleriscv


Disassembly of section .text.main_dispatch_35_matmul_784x32x144_i8xi8xi32:

0000000000000000 <main_dispatch_35_matmul_784x32x144_i8xi8xi32>:
       0:	81010113          	addi	sp,sp,-2032
       4:	7e113423          	sd	ra,2024(sp)
       8:	7e813023          	sd	s0,2016(sp)
       c:	7c913c23          	sd	s1,2008(sp)
      10:	7d213823          	sd	s2,2000(sp)
      14:	7d313423          	sd	s3,1992(sp)
      18:	7d413023          	sd	s4,1984(sp)
      1c:	7b513c23          	sd	s5,1976(sp)
      20:	7b613823          	sd	s6,1968(sp)
      24:	7b713423          	sd	s7,1960(sp)
      28:	7b813023          	sd	s8,1952(sp)
      2c:	79913c23          	sd	s9,1944(sp)
      30:	79a13823          	sd	s10,1936(sp)
      34:	79b13423          	sd	s11,1928(sp)
      38:	7f010413          	addi	s0,sp,2032
      3c:	80010113          	addi	sp,sp,-2048
      40:	aa010113          	addi	sp,sp,-1376
      44:	0205b503          	ld	a0,32(a1)
      48:	00000593          	li	a1,0
      4c:	00853603          	ld	a2,8(a0)
      50:	00053703          	ld	a4,0(a0)
      54:	000276b7          	lui	a3,0x27
      58:	b006869b          	addiw	a3,a3,-1280 # 26b00 <.LBB66_5135>
      5c:	00d606b3          	add	a3,a2,a3
      60:	000017b7          	lui	a5,0x1
      64:	40f407b3          	sub	a5,s0,a5
      68:	acd7bc23          	sd	a3,-1320(a5) # ad8 <.LBB34_1+0x7d0>
      6c:	01053503          	ld	a0,16(a0)
      70:	000266b7          	lui	a3,0x26
      74:	9006869b          	addiw	a3,a3,-1792 # 25900 <.LBB63_4869>
      78:	00d60633          	add	a2,a2,a3
      7c:	000016b7          	lui	a3,0x1
      80:	40d406b3          	sub	a3,s0,a3
      84:	acc6b823          	sd	a2,-1328(a3) # ad0 <.LBB34_1+0x7c8>
      88:	7ff50513          	addi	a0,a0,2047
      8c:	44150513          	addi	a0,a0,1089
      90:	00001637          	lui	a2,0x1
      94:	40c40633          	sub	a2,s0,a2
      98:	aca63423          	sd	a0,-1336(a2) # ac8 <.LBB34_1+0x7c0>

000000000000009c <.Lpcrel_hi6>:
      9c:	00000517          	auipc	a0,0x0
      a0:	00050513          	mv	a0,a0
      a4:	07c52603          	lw	a2,124(a0) # 118 <.Lpcrel_hi6+0x7c>
      a8:	000016b7          	lui	a3,0x1
      ac:	40d406b3          	sub	a3,s0,a3
      b0:	56c6bc23          	sd	a2,1400(a3) # 1578 <.LBB34_3+0xd8>
      b4:	07852603          	lw	a2,120(a0)
      b8:	000016b7          	lui	a3,0x1
      bc:	40d406b3          	sub	a3,s0,a3
      c0:	acc6b023          	sd	a2,-1344(a3) # ac0 <.LBB34_1+0x7b8>
      c4:	07452603          	lw	a2,116(a0)
      c8:	000016b7          	lui	a3,0x1
      cc:	40d406b3          	sub	a3,s0,a3
      d0:	aac6bc23          	sd	a2,-1352(a3) # ab8 <.LBB34_1+0x7b0>
      d4:	07052603          	lw	a2,112(a0)
      d8:	000016b7          	lui	a3,0x1
      dc:	40d406b3          	sub	a3,s0,a3
      e0:	64c6b823          	sd	a2,1616(a3) # 1650 <.LBB34_3+0x1b0>
      e4:	06c52603          	lw	a2,108(a0)
      e8:	000016b7          	lui	a3,0x1
      ec:	40d406b3          	sub	a3,s0,a3
      f0:	64c6b423          	sd	a2,1608(a3) # 1648 <.LBB34_3+0x1a8>
      f4:	06852603          	lw	a2,104(a0)
      f8:	000016b7          	lui	a3,0x1
      fc:	40d406b3          	sub	a3,s0,a3
     100:	64c6b023          	sd	a2,1600(a3) # 1640 <.LBB34_3+0x1a0>
     104:	06452603          	lw	a2,100(a0)
     108:	000016b7          	lui	a3,0x1
     10c:	40d406b3          	sub	a3,s0,a3
     110:	62c6bc23          	sd	a2,1592(a3) # 1638 <.LBB34_3+0x198>
     114:	06052603          	lw	a2,96(a0)
     118:	000016b7          	lui	a3,0x1
     11c:	40d406b3          	sub	a3,s0,a3
     120:	56c6b823          	sd	a2,1392(a3) # 1570 <.LBB34_3+0xd0>
     124:	05c52603          	lw	a2,92(a0)
     128:	000016b7          	lui	a3,0x1
     12c:	40d406b3          	sub	a3,s0,a3
     130:	56c6b423          	sd	a2,1384(a3) # 1568 <.LBB34_3+0xc8>
     134:	05852603          	lw	a2,88(a0)
     138:	000016b7          	lui	a3,0x1
     13c:	40d406b3          	sub	a3,s0,a3
     140:	56c6b023          	sd	a2,1376(a3) # 1560 <.LBB34_3+0xc0>
     144:	05452603          	lw	a2,84(a0)
     148:	000016b7          	lui	a3,0x1
     14c:	40d406b3          	sub	a3,s0,a3
     150:	62c6b823          	sd	a2,1584(a3) # 1630 <.LBB34_3+0x190>
     154:	05052603          	lw	a2,80(a0)
     158:	000016b7          	lui	a3,0x1
     15c:	40d406b3          	sub	a3,s0,a3
     160:	62c6b423          	sd	a2,1576(a3) # 1628 <.LBB34_3+0x188>
     164:	04c52603          	lw	a2,76(a0)
     168:	000016b7          	lui	a3,0x1
     16c:	40d406b3          	sub	a3,s0,a3
     170:	62c6b023          	sd	a2,1568(a3) # 1620 <.LBB34_3+0x180>
     174:	04852603          	lw	a2,72(a0)
     178:	000016b7          	lui	a3,0x1
     17c:	40d406b3          	sub	a3,s0,a3
     180:	60c6bc23          	sd	a2,1560(a3) # 1618 <.LBB34_3+0x178>
     184:	04452603          	lw	a2,68(a0)
     188:	000016b7          	lui	a3,0x1
     18c:	40d406b3          	sub	a3,s0,a3
     190:	60c6b823          	sd	a2,1552(a3) # 1610 <.LBB34_3+0x170>
     194:	04052603          	lw	a2,64(a0)
     198:	000016b7          	lui	a3,0x1
     19c:	40d406b3          	sub	a3,s0,a3
     1a0:	60c6b423          	sd	a2,1544(a3) # 1608 <.LBB34_3+0x168>
     1a4:	03c52603          	lw	a2,60(a0)
     1a8:	000016b7          	lui	a3,0x1
     1ac:	40d406b3          	sub	a3,s0,a3
     1b0:	60c6b023          	sd	a2,1536(a3) # 1600 <.LBB34_3+0x160>
     1b4:	03852603          	lw	a2,56(a0)
     1b8:	000016b7          	lui	a3,0x1
     1bc:	40d406b3          	sub	a3,s0,a3
     1c0:	5ec6bc23          	sd	a2,1528(a3) # 15f8 <.LBB34_3+0x158>
     1c4:	03452603          	lw	a2,52(a0)
     1c8:	000016b7          	lui	a3,0x1
     1cc:	40d406b3          	sub	a3,s0,a3
     1d0:	5ec6b823          	sd	a2,1520(a3) # 15f0 <.LBB34_3+0x150>
     1d4:	03052603          	lw	a2,48(a0)
     1d8:	000016b7          	lui	a3,0x1
     1dc:	40d406b3          	sub	a3,s0,a3
     1e0:	5ec6b423          	sd	a2,1512(a3) # 15e8 <.LBB34_3+0x148>
     1e4:	02c52603          	lw	a2,44(a0)
     1e8:	000016b7          	lui	a3,0x1
     1ec:	40d406b3          	sub	a3,s0,a3
     1f0:	5ec6b023          	sd	a2,1504(a3) # 15e0 <.LBB34_3+0x140>
     1f4:	02852603          	lw	a2,40(a0)
     1f8:	000016b7          	lui	a3,0x1
     1fc:	40d406b3          	sub	a3,s0,a3
     200:	5cc6bc23          	sd	a2,1496(a3) # 15d8 <.LBB34_3+0x138>
     204:	02452603          	lw	a2,36(a0)
     208:	000016b7          	lui	a3,0x1
     20c:	40d406b3          	sub	a3,s0,a3
     210:	5cc6b823          	sd	a2,1488(a3) # 15d0 <.LBB34_3+0x130>
     214:	02052603          	lw	a2,32(a0)
     218:	000016b7          	lui	a3,0x1
     21c:	40d406b3          	sub	a3,s0,a3
     220:	5cc6b423          	sd	a2,1480(a3) # 15c8 <.LBB34_3+0x128>
     224:	01c52603          	lw	a2,28(a0)
     228:	000016b7          	lui	a3,0x1
     22c:	40d406b3          	sub	a3,s0,a3
     230:	5cc6b023          	sd	a2,1472(a3) # 15c0 <.LBB34_3+0x120>
     234:	01852603          	lw	a2,24(a0)
     238:	000016b7          	lui	a3,0x1
     23c:	40d406b3          	sub	a3,s0,a3
     240:	5ac6bc23          	sd	a2,1464(a3) # 15b8 <.LBB34_3+0x118>
     244:	01452603          	lw	a2,20(a0)
     248:	000016b7          	lui	a3,0x1
     24c:	40d406b3          	sub	a3,s0,a3
     250:	5ac6b823          	sd	a2,1456(a3) # 15b0 <.LBB34_3+0x110>
     254:	01052603          	lw	a2,16(a0)
     258:	000016b7          	lui	a3,0x1
     25c:	40d406b3          	sub	a3,s0,a3
     260:	5ac6b423          	sd	a2,1448(a3) # 15a8 <.LBB34_3+0x108>
     264:	00c52603          	lw	a2,12(a0)
     268:	000016b7          	lui	a3,0x1
     26c:	40d406b3          	sub	a3,s0,a3
     270:	5ac6b023          	sd	a2,1440(a3) # 15a0 <.LBB34_3+0x100>
     274:	00852603          	lw	a2,8(a0)
     278:	000016b7          	lui	a3,0x1
     27c:	40d406b3          	sub	a3,s0,a3
     280:	58c6bc23          	sd	a2,1432(a3) # 1598 <.LBB34_3+0xf8>
     284:	00452603          	lw	a2,4(a0)
     288:	000016b7          	lui	a3,0x1
     28c:	40d406b3          	sub	a3,s0,a3
     290:	58c6b823          	sd	a2,1424(a3) # 1590 <.LBB34_3+0xf0>
     294:	00052503          	lw	a0,0(a0)
     298:	00001637          	lui	a2,0x1
     29c:	40c40633          	sub	a2,s0,a2
     2a0:	58a63423          	sd	a0,1416(a2) # 1588 <.LBB34_3+0xe8>
     2a4:	0006e537          	lui	a0,0x6e
     2a8:	4005051b          	addiw	a0,a0,1024 # 6e400 <.Lfunc_end80+0x45a38>
     2ac:	00001637          	lui	a2,0x1
     2b0:	40c40633          	sub	a2,s0,a2
     2b4:	aee63023          	sd	a4,-1312(a2) # ae0 <.LBB34_1+0x7d8>
     2b8:	00a70733          	add	a4,a4,a0
     2bc:	00900513          	li	a0,9
     2c0:	00951513          	slli	a0,a0,0x9
     2c4:	00001637          	lui	a2,0x1
     2c8:	40c40633          	sub	a2,s0,a2
     2cc:	aaa63823          	sd	a0,-1360(a2) # ab0 <.LBB34_1+0x7a8>
     2d0:	0004d537          	lui	a0,0x4d
     2d4:	80050513          	addi	a0,a0,-2048 # 4c800 <.Lfunc_end80+0x23e38>
     2d8:	e6a43023          	sd	a0,-416(s0)
     2dc:	76f2d537          	lui	a0,0x76f2d
     2e0:	0ce5051b          	addiw	a0,a0,206 # 76f2d0ce <.Lfunc_end80+0x76f04706>
     2e4:	00001637          	lui	a2,0x1
     2e8:	40c40633          	sub	a2,s0,a2
     2ec:	68a63423          	sd	a0,1672(a2) # 1688 <.LBB34_3+0x1e8>
     2f0:	00100513          	li	a0,1
     2f4:	02751513          	slli	a0,a0,0x27
     2f8:	00001637          	lui	a2,0x1
     2fc:	40c40633          	sub	a2,s0,a2
     300:	68a63023          	sd	a0,1664(a2) # 1680 <.LBB34_3+0x1e0>
     304:	3f90006f          	j	efc <.LBB34_2>

0000000000000308 <.LBB34_1>:
     308:	8de43c23          	sd	t5,-1832(s0)
     30c:	ffff8f13          	addi	t5,t6,-1
     310:	00001737          	lui	a4,0x1
     314:	40e40733          	sub	a4,s0,a4
     318:	58073703          	ld	a4,1408(a4) # 1580 <.LBB34_3+0xe0>
     31c:	00571713          	slli	a4,a4,0x5
     320:	00001fb7          	lui	t6,0x1
     324:	41f40fb3          	sub	t6,s0,t6
     328:	ac8fbf83          	ld	t6,-1336(t6) # ac8 <.LBB34_1+0x7c0>
     32c:	00ef8733          	add	a4,t6,a4
     330:	01e701a3          	sb	t5,3(a4)
     334:	e4843f03          	ld	t5,-440(s0)
     338:	ffff0f13          	addi	t5,t5,-1
     33c:	01e70123          	sb	t5,2(a4)
     340:	e5843f03          	ld	t5,-424(s0)
     344:	ffff0f13          	addi	t5,t5,-1
     348:	01e700a3          	sb	t5,1(a4)
     34c:	e7043f03          	ld	t5,-400(s0)
     350:	ffff0f13          	addi	t5,t5,-1
     354:	01e70023          	sb	t5,0(a4)
     358:	e8043f03          	ld	t5,-384(s0)
     35c:	ffff0f13          	addi	t5,t5,-1
     360:	01e70223          	sb	t5,4(a4)
     364:	e9043f03          	ld	t5,-368(s0)
     368:	ffff0f13          	addi	t5,t5,-1
     36c:	01e702a3          	sb	t5,5(a4)
     370:	ea043f03          	ld	t5,-352(s0)
     374:	ffff0f13          	addi	t5,t5,-1
     378:	01e70323          	sb	t5,6(a4)
     37c:	eb043f03          	ld	t5,-336(s0)
     380:	ffff0f13          	addi	t5,t5,-1
     384:	01e703a3          	sb	t5,7(a4)
     388:	ec043f03          	ld	t5,-320(s0)
     38c:	ffff0f13          	addi	t5,t5,-1
     390:	01e70423          	sb	t5,8(a4)
     394:	ed043f03          	ld	t5,-304(s0)
     398:	ffff0f13          	addi	t5,t5,-1
     39c:	01e704a3          	sb	t5,9(a4)
     3a0:	ee043f03          	ld	t5,-288(s0)
     3a4:	ffff0f13          	addi	t5,t5,-1
     3a8:	01e70523          	sb	t5,10(a4)
     3ac:	ee843f03          	ld	t5,-280(s0)
     3b0:	ffff0f13          	addi	t5,t5,-1
     3b4:	01e705a3          	sb	t5,11(a4)
     3b8:	ef043f03          	ld	t5,-272(s0)
     3bc:	ffff0f13          	addi	t5,t5,-1
     3c0:	01e70623          	sb	t5,12(a4)
     3c4:	ef843f03          	ld	t5,-264(s0)
     3c8:	ffff0f13          	addi	t5,t5,-1
     3cc:	01e706a3          	sb	t5,13(a4)
     3d0:	f0043f03          	ld	t5,-256(s0)
     3d4:	ffff0f13          	addi	t5,t5,-1
     3d8:	01e70723          	sb	t5,14(a4)
     3dc:	f0843f03          	ld	t5,-248(s0)
     3e0:	ffff0f13          	addi	t5,t5,-1
     3e4:	01e707a3          	sb	t5,15(a4)
     3e8:	f1043f03          	ld	t5,-240(s0)
     3ec:	ffff0f13          	addi	t5,t5,-1
     3f0:	01e70823          	sb	t5,16(a4)
     3f4:	f1843f03          	ld	t5,-232(s0)
     3f8:	ffff0f13          	addi	t5,t5,-1
     3fc:	01e708a3          	sb	t5,17(a4)
     400:	f2043f03          	ld	t5,-224(s0)
     404:	ffff0f13          	addi	t5,t5,-1
     408:	01e70923          	sb	t5,18(a4)
     40c:	f2843f03          	ld	t5,-216(s0)
     410:	ffff0f13          	addi	t5,t5,-1
     414:	01e709a3          	sb	t5,19(a4)
     418:	f3043f03          	ld	t5,-208(s0)
     41c:	ffff0f13          	addi	t5,t5,-1
     420:	01e70a23          	sb	t5,20(a4)
     424:	f3843f03          	ld	t5,-200(s0)
     428:	ffff0f13          	addi	t5,t5,-1
     42c:	01e70aa3          	sb	t5,21(a4)
     430:	f4043f03          	ld	t5,-192(s0)
     434:	ffff0f13          	addi	t5,t5,-1
     438:	01e70b23          	sb	t5,22(a4)
     43c:	f4843f03          	ld	t5,-184(s0)
     440:	ffff0f13          	addi	t5,t5,-1
     444:	01e70ba3          	sb	t5,23(a4)
     448:	f5043f03          	ld	t5,-176(s0)
     44c:	ffff0f13          	addi	t5,t5,-1
     450:	01e70c23          	sb	t5,24(a4)
     454:	f5843f03          	ld	t5,-168(s0)
     458:	ffff0f13          	addi	t5,t5,-1
     45c:	01e70ca3          	sb	t5,25(a4)
     460:	f6043f03          	ld	t5,-160(s0)
     464:	ffff0f13          	addi	t5,t5,-1
     468:	01e70d23          	sb	t5,26(a4)
     46c:	f6843f03          	ld	t5,-152(s0)
     470:	ffff0f13          	addi	t5,t5,-1
     474:	01e70da3          	sb	t5,27(a4)
     478:	f7043f03          	ld	t5,-144(s0)
     47c:	ffff0f13          	addi	t5,t5,-1
     480:	01e70e23          	sb	t5,28(a4)
     484:	f7843f03          	ld	t5,-136(s0)
     488:	ffff0f13          	addi	t5,t5,-1
     48c:	01e70ea3          	sb	t5,29(a4)
     490:	f8043f03          	ld	t5,-128(s0)
     494:	ffff0f13          	addi	t5,t5,-1
     498:	01e70f23          	sb	t5,30(a4)
     49c:	f8843f03          	ld	t5,-120(s0)
     4a0:	ffff0f13          	addi	t5,t5,-1
     4a4:	01e70fa3          	sb	t5,31(a4)
     4a8:	d4043f03          	ld	t5,-704(s0)
     4ac:	ffff0f13          	addi	t5,t5,-1
     4b0:	03e701a3          	sb	t5,35(a4)
     4b4:	d5043f03          	ld	t5,-688(s0)
     4b8:	ffff0f13          	addi	t5,t5,-1
     4bc:	03e70123          	sb	t5,34(a4)
     4c0:	d6043f03          	ld	t5,-672(s0)
     4c4:	ffff0f13          	addi	t5,t5,-1
     4c8:	03e700a3          	sb	t5,33(a4)
     4cc:	d7043f03          	ld	t5,-656(s0)
     4d0:	ffff0f13          	addi	t5,t5,-1
     4d4:	03e70023          	sb	t5,32(a4)
     4d8:	d8043f03          	ld	t5,-640(s0)
     4dc:	ffff0f13          	addi	t5,t5,-1
     4e0:	03e70223          	sb	t5,36(a4)
     4e4:	d9043f03          	ld	t5,-624(s0)
     4e8:	ffff0f13          	addi	t5,t5,-1
     4ec:	03e702a3          	sb	t5,37(a4)
     4f0:	da043f03          	ld	t5,-608(s0)
     4f4:	ffff0f13          	addi	t5,t5,-1
     4f8:	03e70323          	sb	t5,38(a4)
     4fc:	db043f03          	ld	t5,-592(s0)
     500:	ffff0f13          	addi	t5,t5,-1
     504:	03e703a3          	sb	t5,39(a4)
     508:	dc043f03          	ld	t5,-576(s0)
     50c:	ffff0f13          	addi	t5,t5,-1
     510:	03e70423          	sb	t5,40(a4)
     514:	dd043f03          	ld	t5,-560(s0)
     518:	ffff0f13          	addi	t5,t5,-1
     51c:	03e704a3          	sb	t5,41(a4)
     520:	de043f03          	ld	t5,-544(s0)
     524:	ffff0f13          	addi	t5,t5,-1
     528:	03e70523          	sb	t5,42(a4)
     52c:	de843f03          	ld	t5,-536(s0)
     530:	ffff0f13          	addi	t5,t5,-1
     534:	03e705a3          	sb	t5,43(a4)
     538:	df043f03          	ld	t5,-528(s0)
     53c:	ffff0f13          	addi	t5,t5,-1
     540:	03e70623          	sb	t5,44(a4)
     544:	df843f03          	ld	t5,-520(s0)
     548:	ffff0f13          	addi	t5,t5,-1
     54c:	03e706a3          	sb	t5,45(a4)
     550:	e0043f03          	ld	t5,-512(s0)
     554:	ffff0f13          	addi	t5,t5,-1
     558:	03e70723          	sb	t5,46(a4)
     55c:	e0843f03          	ld	t5,-504(s0)
     560:	ffff0f13          	addi	t5,t5,-1
     564:	03e707a3          	sb	t5,47(a4)
     568:	e1043f03          	ld	t5,-496(s0)
     56c:	ffff0f13          	addi	t5,t5,-1
     570:	03e70823          	sb	t5,48(a4)
     574:	e1843f03          	ld	t5,-488(s0)
     578:	ffff0f13          	addi	t5,t5,-1
     57c:	03e708a3          	sb	t5,49(a4)
     580:	e2043f03          	ld	t5,-480(s0)
     584:	ffff0f13          	addi	t5,t5,-1
     588:	03e70923          	sb	t5,50(a4)
     58c:	e2843f03          	ld	t5,-472(s0)
     590:	ffff0f13          	addi	t5,t5,-1
     594:	03e709a3          	sb	t5,51(a4)
     598:	e3043f03          	ld	t5,-464(s0)
     59c:	ffff0f13          	addi	t5,t5,-1
     5a0:	03e70a23          	sb	t5,52(a4)
     5a4:	e3843f03          	ld	t5,-456(s0)
     5a8:	ffff0f13          	addi	t5,t5,-1
     5ac:	03e70aa3          	sb	t5,53(a4)
     5b0:	e4043f03          	ld	t5,-448(s0)
     5b4:	ffff0f13          	addi	t5,t5,-1
     5b8:	03e70b23          	sb	t5,54(a4)
     5bc:	e5043f03          	ld	t5,-432(s0)
     5c0:	ffff0f13          	addi	t5,t5,-1
     5c4:	03e70ba3          	sb	t5,55(a4)
     5c8:	e6843f03          	ld	t5,-408(s0)
     5cc:	ffff0f13          	addi	t5,t5,-1
     5d0:	03e70c23          	sb	t5,56(a4)
     5d4:	e7843f03          	ld	t5,-392(s0)
     5d8:	ffff0f13          	addi	t5,t5,-1
     5dc:	03e70ca3          	sb	t5,57(a4)
     5e0:	e8843f03          	ld	t5,-376(s0)
     5e4:	ffff0f13          	addi	t5,t5,-1
     5e8:	03e70d23          	sb	t5,58(a4)
     5ec:	e9843f03          	ld	t5,-360(s0)
     5f0:	ffff0f13          	addi	t5,t5,-1
     5f4:	03e70da3          	sb	t5,59(a4)
     5f8:	ea843f03          	ld	t5,-344(s0)
     5fc:	ffff0f13          	addi	t5,t5,-1
     600:	03e70e23          	sb	t5,60(a4)
     604:	eb843f03          	ld	t5,-328(s0)
     608:	ffff0f13          	addi	t5,t5,-1
     60c:	03e70ea3          	sb	t5,61(a4)
     610:	ec843f03          	ld	t5,-312(s0)
     614:	ffff0f13          	addi	t5,t5,-1
     618:	03e70f23          	sb	t5,62(a4)
     61c:	ed843f03          	ld	t5,-296(s0)
     620:	ffff0f13          	addi	t5,t5,-1
     624:	03e70fa3          	sb	t5,63(a4)
     628:	c4043f03          	ld	t5,-960(s0)
     62c:	ffff0f13          	addi	t5,t5,-1
     630:	05e701a3          	sb	t5,67(a4)
     634:	c5043f03          	ld	t5,-944(s0)
     638:	ffff0f13          	addi	t5,t5,-1
     63c:	05e70123          	sb	t5,66(a4)
     640:	c6043f03          	ld	t5,-928(s0)
     644:	ffff0f13          	addi	t5,t5,-1
     648:	05e700a3          	sb	t5,65(a4)
     64c:	c7043f03          	ld	t5,-912(s0)
     650:	ffff0f13          	addi	t5,t5,-1
     654:	05e70023          	sb	t5,64(a4)
     658:	c8043f03          	ld	t5,-896(s0)
     65c:	ffff0f13          	addi	t5,t5,-1
     660:	05e70223          	sb	t5,68(a4)
     664:	c9043f03          	ld	t5,-880(s0)
     668:	ffff0f13          	addi	t5,t5,-1
     66c:	05e702a3          	sb	t5,69(a4)
     670:	ca043f03          	ld	t5,-864(s0)
     674:	ffff0f13          	addi	t5,t5,-1
     678:	05e70323          	sb	t5,70(a4)
     67c:	cb043f03          	ld	t5,-848(s0)
     680:	ffff0f13          	addi	t5,t5,-1
     684:	05e703a3          	sb	t5,71(a4)
     688:	cc043f03          	ld	t5,-832(s0)
     68c:	ffff0f13          	addi	t5,t5,-1
     690:	05e70423          	sb	t5,72(a4)
     694:	cd043f03          	ld	t5,-816(s0)
     698:	ffff0f13          	addi	t5,t5,-1
     69c:	05e704a3          	sb	t5,73(a4)
     6a0:	ce043f03          	ld	t5,-800(s0)
     6a4:	ffff0f13          	addi	t5,t5,-1
     6a8:	05e70523          	sb	t5,74(a4)
     6ac:	ce843f03          	ld	t5,-792(s0)
     6b0:	ffff0f13          	addi	t5,t5,-1
     6b4:	05e705a3          	sb	t5,75(a4)
     6b8:	cf043f03          	ld	t5,-784(s0)
     6bc:	ffff0f13          	addi	t5,t5,-1
     6c0:	05e70623          	sb	t5,76(a4)
     6c4:	cf843f03          	ld	t5,-776(s0)
     6c8:	ffff0f13          	addi	t5,t5,-1
     6cc:	05e706a3          	sb	t5,77(a4)
     6d0:	d0043f03          	ld	t5,-768(s0)
     6d4:	ffff0f13          	addi	t5,t5,-1
     6d8:	05e70723          	sb	t5,78(a4)
     6dc:	d0843f03          	ld	t5,-760(s0)
     6e0:	ffff0f13          	addi	t5,t5,-1
     6e4:	05e707a3          	sb	t5,79(a4)
     6e8:	d1043f03          	ld	t5,-752(s0)
     6ec:	ffff0f13          	addi	t5,t5,-1
     6f0:	05e70823          	sb	t5,80(a4)
     6f4:	d1843f03          	ld	t5,-744(s0)
     6f8:	ffff0f13          	addi	t5,t5,-1
     6fc:	05e708a3          	sb	t5,81(a4)
     700:	d2043f03          	ld	t5,-736(s0)
     704:	ffff0f13          	addi	t5,t5,-1
     708:	05e70923          	sb	t5,82(a4)
     70c:	d2843f03          	ld	t5,-728(s0)
     710:	ffff0f13          	addi	t5,t5,-1
     714:	05e709a3          	sb	t5,83(a4)
     718:	d3043f03          	ld	t5,-720(s0)
     71c:	ffff0f13          	addi	t5,t5,-1
     720:	05e70a23          	sb	t5,84(a4)
     724:	d3843f03          	ld	t5,-712(s0)
     728:	ffff0f13          	addi	t5,t5,-1
     72c:	05e70aa3          	sb	t5,85(a4)
     730:	d4843f03          	ld	t5,-696(s0)
     734:	ffff0f13          	addi	t5,t5,-1
     738:	05e70b23          	sb	t5,86(a4)
     73c:	d5843f03          	ld	t5,-680(s0)
     740:	ffff0f13          	addi	t5,t5,-1
     744:	05e70ba3          	sb	t5,87(a4)
     748:	d6843f03          	ld	t5,-664(s0)
     74c:	ffff0f13          	addi	t5,t5,-1
     750:	05e70c23          	sb	t5,88(a4)
     754:	d7843f03          	ld	t5,-648(s0)
     758:	ffff0f13          	addi	t5,t5,-1
     75c:	05e70ca3          	sb	t5,89(a4)
     760:	d8843f03          	ld	t5,-632(s0)
     764:	ffff0f13          	addi	t5,t5,-1
     768:	05e70d23          	sb	t5,90(a4)
     76c:	d9843f03          	ld	t5,-616(s0)
     770:	ffff0f13          	addi	t5,t5,-1
     774:	05e70da3          	sb	t5,91(a4)
     778:	da843f03          	ld	t5,-600(s0)
     77c:	ffff0f13          	addi	t5,t5,-1
     780:	05e70e23          	sb	t5,92(a4)
     784:	db843f03          	ld	t5,-584(s0)
     788:	ffff0f13          	addi	t5,t5,-1
     78c:	05e70ea3          	sb	t5,93(a4)
     790:	dc843f03          	ld	t5,-568(s0)
     794:	ffff0f13          	addi	t5,t5,-1
     798:	05e70f23          	sb	t5,94(a4)
     79c:	dd843f03          	ld	t5,-552(s0)
     7a0:	ffff0f13          	addi	t5,t5,-1
     7a4:	05e70fa3          	sb	t5,95(a4)
     7a8:	b4043f03          	ld	t5,-1216(s0)
     7ac:	ffff0f13          	addi	t5,t5,-1
     7b0:	07e701a3          	sb	t5,99(a4)
     7b4:	b5043f03          	ld	t5,-1200(s0)
     7b8:	ffff0f13          	addi	t5,t5,-1
     7bc:	07e70123          	sb	t5,98(a4)
     7c0:	b6043f03          	ld	t5,-1184(s0)
     7c4:	ffff0f13          	addi	t5,t5,-1
     7c8:	07e700a3          	sb	t5,97(a4)
     7cc:	b7043f03          	ld	t5,-1168(s0)
     7d0:	ffff0f13          	addi	t5,t5,-1
     7d4:	07e70023          	sb	t5,96(a4)
     7d8:	b8043f03          	ld	t5,-1152(s0)
     7dc:	ffff0f13          	addi	t5,t5,-1
     7e0:	07e70223          	sb	t5,100(a4)
     7e4:	b9043f03          	ld	t5,-1136(s0)
     7e8:	ffff0f13          	addi	t5,t5,-1
     7ec:	07e702a3          	sb	t5,101(a4)
     7f0:	ba043f03          	ld	t5,-1120(s0)
     7f4:	ffff0f13          	addi	t5,t5,-1
     7f8:	07e70323          	sb	t5,102(a4)
     7fc:	bb043f03          	ld	t5,-1104(s0)
     800:	ffff0f13          	addi	t5,t5,-1
     804:	07e703a3          	sb	t5,103(a4)
     808:	bc043f03          	ld	t5,-1088(s0)
     80c:	ffff0f13          	addi	t5,t5,-1
     810:	07e70423          	sb	t5,104(a4)
     814:	bd043f03          	ld	t5,-1072(s0)
     818:	ffff0f13          	addi	t5,t5,-1
     81c:	07e704a3          	sb	t5,105(a4)
     820:	be043f03          	ld	t5,-1056(s0)
     824:	ffff0f13          	addi	t5,t5,-1
     828:	07e70523          	sb	t5,106(a4)
     82c:	be843f03          	ld	t5,-1048(s0)
     830:	ffff0f13          	addi	t5,t5,-1
     834:	07e705a3          	sb	t5,107(a4)
     838:	bf043f03          	ld	t5,-1040(s0)
     83c:	ffff0f13          	addi	t5,t5,-1
     840:	07e70623          	sb	t5,108(a4)
     844:	bf843f03          	ld	t5,-1032(s0)
     848:	ffff0f13          	addi	t5,t5,-1
     84c:	07e706a3          	sb	t5,109(a4)
     850:	c0043f03          	ld	t5,-1024(s0)
     854:	ffff0f13          	addi	t5,t5,-1
     858:	07e70723          	sb	t5,110(a4)
     85c:	c0843f03          	ld	t5,-1016(s0)
     860:	ffff0f13          	addi	t5,t5,-1
     864:	07e707a3          	sb	t5,111(a4)
     868:	c1043f03          	ld	t5,-1008(s0)
     86c:	ffff0f13          	addi	t5,t5,-1
     870:	07e70823          	sb	t5,112(a4)
     874:	c1843f03          	ld	t5,-1000(s0)
     878:	ffff0f13          	addi	t5,t5,-1
     87c:	07e708a3          	sb	t5,113(a4)
     880:	c2043f03          	ld	t5,-992(s0)
     884:	ffff0f13          	addi	t5,t5,-1
     888:	07e70923          	sb	t5,114(a4)
     88c:	c2843f03          	ld	t5,-984(s0)
     890:	ffff0f13          	addi	t5,t5,-1
     894:	07e709a3          	sb	t5,115(a4)
     898:	c3043f03          	ld	t5,-976(s0)
     89c:	ffff0f13          	addi	t5,t5,-1
     8a0:	07e70a23          	sb	t5,116(a4)
     8a4:	c3843f03          	ld	t5,-968(s0)
     8a8:	ffff0f13          	addi	t5,t5,-1
     8ac:	07e70aa3          	sb	t5,117(a4)
     8b0:	c4843f03          	ld	t5,-952(s0)
     8b4:	ffff0f13          	addi	t5,t5,-1
     8b8:	07e70b23          	sb	t5,118(a4)
     8bc:	c5843f03          	ld	t5,-936(s0)
     8c0:	ffff0f13          	addi	t5,t5,-1
     8c4:	07e70ba3          	sb	t5,119(a4)
     8c8:	c6843f03          	ld	t5,-920(s0)
     8cc:	ffff0f13          	addi	t5,t5,-1
     8d0:	07e70c23          	sb	t5,120(a4)
     8d4:	c7843f03          	ld	t5,-904(s0)
     8d8:	ffff0f13          	addi	t5,t5,-1
     8dc:	07e70ca3          	sb	t5,121(a4)
     8e0:	c8843f03          	ld	t5,-888(s0)
     8e4:	ffff0f13          	addi	t5,t5,-1
     8e8:	07e70d23          	sb	t5,122(a4)
     8ec:	c9843f03          	ld	t5,-872(s0)
     8f0:	ffff0f13          	addi	t5,t5,-1
     8f4:	07e70da3          	sb	t5,123(a4)
     8f8:	ca843f03          	ld	t5,-856(s0)
     8fc:	ffff0f13          	addi	t5,t5,-1
     900:	07e70e23          	sb	t5,124(a4)
     904:	cb843f03          	ld	t5,-840(s0)
     908:	ffff0f13          	addi	t5,t5,-1
     90c:	07e70ea3          	sb	t5,125(a4)
     910:	cc843f03          	ld	t5,-824(s0)
     914:	ffff0f13          	addi	t5,t5,-1
     918:	07e70f23          	sb	t5,126(a4)
     91c:	cd843f03          	ld	t5,-808(s0)
     920:	ffff0f13          	addi	t5,t5,-1
     924:	07e70fa3          	sb	t5,127(a4)
     928:	a4043f03          	ld	t5,-1472(s0)
     92c:	ffff0f13          	addi	t5,t5,-1
     930:	09e701a3          	sb	t5,131(a4)
     934:	a5043f03          	ld	t5,-1456(s0)
     938:	ffff0f13          	addi	t5,t5,-1
     93c:	09e70123          	sb	t5,130(a4)
     940:	a6043f03          	ld	t5,-1440(s0)
     944:	ffff0f13          	addi	t5,t5,-1
     948:	09e700a3          	sb	t5,129(a4)
     94c:	a7043f03          	ld	t5,-1424(s0)
     950:	ffff0f13          	addi	t5,t5,-1
     954:	09e70023          	sb	t5,128(a4)
     958:	a8043f03          	ld	t5,-1408(s0)
     95c:	ffff0f13          	addi	t5,t5,-1
     960:	09e70223          	sb	t5,132(a4)
     964:	a9043f03          	ld	t5,-1392(s0)
     968:	ffff0f13          	addi	t5,t5,-1
     96c:	09e702a3          	sb	t5,133(a4)
     970:	aa043f03          	ld	t5,-1376(s0)
     974:	ffff0f13          	addi	t5,t5,-1
     978:	09e70323          	sb	t5,134(a4)
     97c:	ab043f03          	ld	t5,-1360(s0)
     980:	ffff0f13          	addi	t5,t5,-1
     984:	09e703a3          	sb	t5,135(a4)
     988:	ac043f03          	ld	t5,-1344(s0)
     98c:	ffff0f13          	addi	t5,t5,-1
     990:	09e70423          	sb	t5,136(a4)
     994:	ad043f03          	ld	t5,-1328(s0)
     998:	ffff0f13          	addi	t5,t5,-1
     99c:	09e704a3          	sb	t5,137(a4)
     9a0:	ae043f03          	ld	t5,-1312(s0)
     9a4:	ffff0f13          	addi	t5,t5,-1
     9a8:	09e70523          	sb	t5,138(a4)
     9ac:	ae843f03          	ld	t5,-1304(s0)
     9b0:	ffff0f13          	addi	t5,t5,-1
     9b4:	09e705a3          	sb	t5,139(a4)
     9b8:	af043f03          	ld	t5,-1296(s0)
     9bc:	ffff0f13          	addi	t5,t5,-1
     9c0:	09e70623          	sb	t5,140(a4)
     9c4:	af843f03          	ld	t5,-1288(s0)
     9c8:	ffff0f13          	addi	t5,t5,-1
     9cc:	09e706a3          	sb	t5,141(a4)
     9d0:	b0043f03          	ld	t5,-1280(s0)
     9d4:	ffff0f13          	addi	t5,t5,-1
     9d8:	09e70723          	sb	t5,142(a4)
     9dc:	b0843f03          	ld	t5,-1272(s0)
     9e0:	ffff0f13          	addi	t5,t5,-1
     9e4:	09e707a3          	sb	t5,143(a4)
     9e8:	b1043f03          	ld	t5,-1264(s0)
     9ec:	ffff0f13          	addi	t5,t5,-1
     9f0:	09e70823          	sb	t5,144(a4)
     9f4:	b1843f03          	ld	t5,-1256(s0)
     9f8:	ffff0f13          	addi	t5,t5,-1
     9fc:	09e708a3          	sb	t5,145(a4)
     a00:	b2043f03          	ld	t5,-1248(s0)
     a04:	ffff0f13          	addi	t5,t5,-1
     a08:	09e70923          	sb	t5,146(a4)
     a0c:	b2843f03          	ld	t5,-1240(s0)
     a10:	ffff0f13          	addi	t5,t5,-1
     a14:	09e709a3          	sb	t5,147(a4)
     a18:	b3043f03          	ld	t5,-1232(s0)
     a1c:	ffff0f13          	addi	t5,t5,-1
     a20:	09e70a23          	sb	t5,148(a4)
     a24:	b3843f03          	ld	t5,-1224(s0)
     a28:	ffff0f13          	addi	t5,t5,-1
     a2c:	09e70aa3          	sb	t5,149(a4)
     a30:	b4843f03          	ld	t5,-1208(s0)
     a34:	ffff0f13          	addi	t5,t5,-1
     a38:	09e70b23          	sb	t5,150(a4)
     a3c:	b5843f03          	ld	t5,-1192(s0)
     a40:	ffff0f13          	addi	t5,t5,-1
     a44:	09e70ba3          	sb	t5,151(a4)
     a48:	b6843f03          	ld	t5,-1176(s0)
     a4c:	ffff0f13          	addi	t5,t5,-1
     a50:	09e70c23          	sb	t5,152(a4)
     a54:	b7843f03          	ld	t5,-1160(s0)
     a58:	ffff0f13          	addi	t5,t5,-1
     a5c:	09e70ca3          	sb	t5,153(a4)
     a60:	b8843f03          	ld	t5,-1144(s0)
     a64:	ffff0f13          	addi	t5,t5,-1
     a68:	09e70d23          	sb	t5,154(a4)
     a6c:	b9843f03          	ld	t5,-1128(s0)
     a70:	ffff0f13          	addi	t5,t5,-1
     a74:	09e70da3          	sb	t5,155(a4)
     a78:	ba843f03          	ld	t5,-1112(s0)
     a7c:	ffff0f13          	addi	t5,t5,-1
     a80:	09e70e23          	sb	t5,156(a4)
     a84:	bb843f03          	ld	t5,-1096(s0)
     a88:	ffff0f13          	addi	t5,t5,-1
     a8c:	09e70ea3          	sb	t5,157(a4)
     a90:	bc843f03          	ld	t5,-1080(s0)
     a94:	ffff0f13          	addi	t5,t5,-1
     a98:	09e70f23          	sb	t5,158(a4)
     a9c:	bd843f03          	ld	t5,-1064(s0)
     aa0:	ffff0f13          	addi	t5,t5,-1
     aa4:	09e70fa3          	sb	t5,159(a4)
     aa8:	94043f03          	ld	t5,-1728(s0)
     aac:	ffff0f13          	addi	t5,t5,-1
     ab0:	0be701a3          	sb	t5,163(a4)
     ab4:	95043f03          	ld	t5,-1712(s0)
     ab8:	ffff0f13          	addi	t5,t5,-1
     abc:	0be70123          	sb	t5,162(a4)
     ac0:	96043f03          	ld	t5,-1696(s0)
     ac4:	ffff0f13          	addi	t5,t5,-1
     ac8:	0be700a3          	sb	t5,161(a4)
     acc:	97043f03          	ld	t5,-1680(s0)
     ad0:	ffff0f13          	addi	t5,t5,-1
     ad4:	0be70023          	sb	t5,160(a4)
     ad8:	98043f03          	ld	t5,-1664(s0)
     adc:	ffff0f13          	addi	t5,t5,-1
     ae0:	0be70223          	sb	t5,164(a4)
     ae4:	99043f03          	ld	t5,-1648(s0)
     ae8:	ffff0f13          	addi	t5,t5,-1
     aec:	0be702a3          	sb	t5,165(a4)
     af0:	9a043f03          	ld	t5,-1632(s0)
     af4:	ffff0f13          	addi	t5,t5,-1
     af8:	0be70323          	sb	t5,166(a4)
     afc:	9b043f03          	ld	t5,-1616(s0)
     b00:	ffff0f13          	addi	t5,t5,-1
     b04:	0be703a3          	sb	t5,167(a4)
     b08:	9c043f03          	ld	t5,-1600(s0)
     b0c:	ffff0f13          	addi	t5,t5,-1
     b10:	0be70423          	sb	t5,168(a4)
     b14:	9d043f03          	ld	t5,-1584(s0)
     b18:	ffff0f13          	addi	t5,t5,-1
     b1c:	0be704a3          	sb	t5,169(a4)
     b20:	9e043f03          	ld	t5,-1568(s0)
     b24:	ffff0f13          	addi	t5,t5,-1
     b28:	0be70523          	sb	t5,170(a4)
     b2c:	9e843f03          	ld	t5,-1560(s0)
     b30:	ffff0f13          	addi	t5,t5,-1
     b34:	0be705a3          	sb	t5,171(a4)
     b38:	9f043f03          	ld	t5,-1552(s0)
     b3c:	ffff0f13          	addi	t5,t5,-1
     b40:	0be70623          	sb	t5,172(a4)
     b44:	9f843f03          	ld	t5,-1544(s0)
     b48:	ffff0f13          	addi	t5,t5,-1
     b4c:	0be706a3          	sb	t5,173(a4)
     b50:	a0043f03          	ld	t5,-1536(s0)
     b54:	ffff0f13          	addi	t5,t5,-1
     b58:	0be70723          	sb	t5,174(a4)
     b5c:	a0843f03          	ld	t5,-1528(s0)
     b60:	ffff0f13          	addi	t5,t5,-1
     b64:	0be707a3          	sb	t5,175(a4)
     b68:	a1043f03          	ld	t5,-1520(s0)
     b6c:	ffff0f13          	addi	t5,t5,-1
     b70:	0be70823          	sb	t5,176(a4)
     b74:	a1843f03          	ld	t5,-1512(s0)
     b78:	ffff0f13          	addi	t5,t5,-1
     b7c:	0be708a3          	sb	t5,177(a4)
     b80:	a2043f03          	ld	t5,-1504(s0)
     b84:	ffff0f13          	addi	t5,t5,-1
     b88:	0be70923          	sb	t5,178(a4)
     b8c:	a2843f03          	ld	t5,-1496(s0)
     b90:	ffff0f13          	addi	t5,t5,-1
     b94:	0be709a3          	sb	t5,179(a4)
     b98:	a3043f03          	ld	t5,-1488(s0)
     b9c:	ffff0f13          	addi	t5,t5,-1
     ba0:	0be70a23          	sb	t5,180(a4)
     ba4:	a3843f03          	ld	t5,-1480(s0)
     ba8:	ffff0f13          	addi	t5,t5,-1
     bac:	0be70aa3          	sb	t5,181(a4)
     bb0:	a4843f03          	ld	t5,-1464(s0)
     bb4:	ffff0f13          	addi	t5,t5,-1
     bb8:	0be70b23          	sb	t5,182(a4)
     bbc:	a5843f03          	ld	t5,-1448(s0)
     bc0:	ffff0f13          	addi	t5,t5,-1
     bc4:	0be70ba3          	sb	t5,183(a4)
     bc8:	a6843f03          	ld	t5,-1432(s0)
     bcc:	ffff0f13          	addi	t5,t5,-1
     bd0:	0be70c23          	sb	t5,184(a4)
     bd4:	a7843f03          	ld	t5,-1416(s0)
     bd8:	ffff0f13          	addi	t5,t5,-1
     bdc:	0be70ca3          	sb	t5,185(a4)
     be0:	a8843f03          	ld	t5,-1400(s0)
     be4:	ffff0f13          	addi	t5,t5,-1
     be8:	0be70d23          	sb	t5,186(a4)
     bec:	a9843f03          	ld	t5,-1384(s0)
     bf0:	ffff0f13          	addi	t5,t5,-1
     bf4:	0be70da3          	sb	t5,187(a4)
     bf8:	aa843f03          	ld	t5,-1368(s0)
     bfc:	ffff0f13          	addi	t5,t5,-1
     c00:	0be70e23          	sb	t5,188(a4)
     c04:	ab843f03          	ld	t5,-1352(s0)
     c08:	ffff0f13          	addi	t5,t5,-1
     c0c:	0be70ea3          	sb	t5,189(a4)
     c10:	ac843f03          	ld	t5,-1336(s0)
     c14:	ffff0f13          	addi	t5,t5,-1
     c18:	0be70f23          	sb	t5,190(a4)
     c1c:	ad843f03          	ld	t5,-1320(s0)
     c20:	ffff0f13          	addi	t5,t5,-1
     c24:	0be70fa3          	sb	t5,191(a4)
     c28:	87043903          	ld	s2,-1936(s0)
     c2c:	fff90913          	addi	s2,s2,-1
     c30:	0d2701a3          	sb	s2,195(a4)
     c34:	88043f83          	ld	t6,-1920(s0)
     c38:	ffff8f93          	addi	t6,t6,-1
     c3c:	0df70123          	sb	t6,194(a4)
     c40:	fff58f13          	addi	t5,a1,-1
     c44:	0de700a3          	sb	t5,193(a4)
     c48:	fffb0f13          	addi	t5,s6,-1
     c4c:	0de70023          	sb	t5,192(a4)
     c50:	8a043f03          	ld	t5,-1888(s0)
     c54:	ffff0f13          	addi	t5,t5,-1
     c58:	0de70223          	sb	t5,196(a4)
     c5c:	8a843f03          	ld	t5,-1880(s0)
     c60:	ffff0f13          	addi	t5,t5,-1
     c64:	0de702a3          	sb	t5,197(a4)
     c68:	fffa8f13          	addi	t5,s5,-1
     c6c:	0de70323          	sb	t5,198(a4)
     c70:	fffa0f13          	addi	t5,s4,-1
     c74:	0de703a3          	sb	t5,199(a4)
     c78:	fff98f13          	addi	t5,s3,-1
     c7c:	0de70423          	sb	t5,200(a4)
     c80:	8d043f03          	ld	t5,-1840(s0)
     c84:	ffff0f13          	addi	t5,t5,-1
     c88:	0de704a3          	sb	t5,201(a4)
     c8c:	8e043f03          	ld	t5,-1824(s0)
     c90:	ffff0f13          	addi	t5,t5,-1
     c94:	0de70523          	sb	t5,202(a4)
     c98:	8e843f03          	ld	t5,-1816(s0)
     c9c:	ffff0f13          	addi	t5,t5,-1
     ca0:	0de705a3          	sb	t5,203(a4)
     ca4:	8f043f03          	ld	t5,-1808(s0)
     ca8:	ffff0f13          	addi	t5,t5,-1
     cac:	0de70623          	sb	t5,204(a4)
     cb0:	8f843f03          	ld	t5,-1800(s0)
     cb4:	ffff0f13          	addi	t5,t5,-1
     cb8:	0de706a3          	sb	t5,205(a4)
     cbc:	90043f03          	ld	t5,-1792(s0)
     cc0:	ffff0f13          	addi	t5,t5,-1
     cc4:	0de70723          	sb	t5,206(a4)
     cc8:	90843f03          	ld	t5,-1784(s0)
     ccc:	ffff0f13          	addi	t5,t5,-1
     cd0:	0de707a3          	sb	t5,207(a4)
     cd4:	91043f03          	ld	t5,-1776(s0)
     cd8:	ffff0f13          	addi	t5,t5,-1
     cdc:	0de70823          	sb	t5,208(a4)
     ce0:	91843f03          	ld	t5,-1768(s0)
     ce4:	ffff0f13          	addi	t5,t5,-1
     ce8:	0de708a3          	sb	t5,209(a4)
     cec:	92043f03          	ld	t5,-1760(s0)
     cf0:	ffff0f13          	addi	t5,t5,-1
     cf4:	0de70923          	sb	t5,210(a4)
     cf8:	92843f03          	ld	t5,-1752(s0)
     cfc:	ffff0f13          	addi	t5,t5,-1
     d00:	0de709a3          	sb	t5,211(a4)
     d04:	93043f03          	ld	t5,-1744(s0)
     d08:	ffff0f13          	addi	t5,t5,-1
     d0c:	0de70a23          	sb	t5,212(a4)
     d10:	93843f03          	ld	t5,-1736(s0)
     d14:	ffff0f13          	addi	t5,t5,-1
     d18:	0de70aa3          	sb	t5,213(a4)
     d1c:	94843f03          	ld	t5,-1720(s0)
     d20:	ffff0f13          	addi	t5,t5,-1
     d24:	0de70b23          	sb	t5,214(a4)
     d28:	95843f03          	ld	t5,-1704(s0)
     d2c:	ffff0f13          	addi	t5,t5,-1
     d30:	0de70ba3          	sb	t5,215(a4)
     d34:	96843f03          	ld	t5,-1688(s0)
     d38:	ffff0f13          	addi	t5,t5,-1
     d3c:	0de70c23          	sb	t5,216(a4)
     d40:	97843f03          	ld	t5,-1672(s0)
     d44:	ffff0f13          	addi	t5,t5,-1
     d48:	0de70ca3          	sb	t5,217(a4)
     d4c:	98843f03          	ld	t5,-1656(s0)
     d50:	ffff0f13          	addi	t5,t5,-1
     d54:	0de70d23          	sb	t5,218(a4)
     d58:	99843f03          	ld	t5,-1640(s0)
     d5c:	ffff0f13          	addi	t5,t5,-1
     d60:	0de70da3          	sb	t5,219(a4)
     d64:	9a843f03          	ld	t5,-1624(s0)
     d68:	ffff0f13          	addi	t5,t5,-1
     d6c:	0de70e23          	sb	t5,220(a4)
     d70:	9b843f03          	ld	t5,-1608(s0)
     d74:	ffff0f13          	addi	t5,t5,-1
     d78:	0de70ea3          	sb	t5,221(a4)
     d7c:	9c843f03          	ld	t5,-1592(s0)
     d80:	ffff0f13          	addi	t5,t5,-1
     d84:	0de70f23          	sb	t5,222(a4)
     d88:	9d843f03          	ld	t5,-1576(s0)
     d8c:	ffff0f13          	addi	t5,t5,-1
     d90:	0de70fa3          	sb	t5,223(a4)
     d94:	fff30313          	addi	t1,t1,-1
     d98:	0e6701a3          	sb	t1,227(a4)
     d9c:	fff28293          	addi	t0,t0,-1
     da0:	0e570123          	sb	t0,226(a4)
     da4:	fff88893          	addi	a7,a7,-1
     da8:	0f1700a3          	sb	a7,225(a4)
     dac:	fff80813          	addi	a6,a6,-1
     db0:	0f070023          	sb	a6,224(a4)
     db4:	fff78793          	addi	a5,a5,-1
     db8:	0ef70223          	sb	a5,228(a4)
     dbc:	fff50513          	addi	a0,a0,-1
     dc0:	0ea702a3          	sb	a0,229(a4)
     dc4:	fff60613          	addi	a2,a2,-1
     dc8:	0ec70323          	sb	a2,230(a4)
     dcc:	fff68693          	addi	a3,a3,-1
     dd0:	0ed703a3          	sb	a3,231(a4)
     dd4:	fff08093          	addi	ra,ra,-1
     dd8:	0e170423          	sb	ra,232(a4)
     ddc:	fffd8d93          	addi	s11,s11,-1
     de0:	0fb704a3          	sb	s11,233(a4)
     de4:	fffd0d13          	addi	s10,s10,-1
     de8:	0fa70523          	sb	s10,234(a4)
     dec:	fffc8c93          	addi	s9,s9,-1
     df0:	0f9705a3          	sb	s9,235(a4)
     df4:	fffc0c13          	addi	s8,s8,-1
     df8:	0f870623          	sb	s8,236(a4)
     dfc:	fffb8b93          	addi	s7,s7,-1
     e00:	0f7706a3          	sb	s7,237(a4)
     e04:	fffe8e93          	addi	t4,t4,-1
     e08:	0fd70723          	sb	t4,238(a4)
     e0c:	fffe0e13          	addi	t3,t3,-1
     e10:	0fc707a3          	sb	t3,239(a4)
     e14:	fff38393          	addi	t2,t2,-1
     e18:	0e770823          	sb	t2,240(a4)
     e1c:	84843583          	ld	a1,-1976(s0)
     e20:	fff58593          	addi	a1,a1,-1
     e24:	0eb708a3          	sb	a1,241(a4)
     e28:	85043b03          	ld	s6,-1968(s0)
     e2c:	fffb0b13          	addi	s6,s6,-1
     e30:	0f670923          	sb	s6,242(a4)
     e34:	85843a83          	ld	s5,-1960(s0)
     e38:	fffa8a93          	addi	s5,s5,-1
     e3c:	0f5709a3          	sb	s5,243(a4)
     e40:	86043a03          	ld	s4,-1952(s0)
     e44:	fffa0a13          	addi	s4,s4,-1
     e48:	0f470a23          	sb	s4,244(a4)
     e4c:	86843983          	ld	s3,-1944(s0)
     e50:	fff98993          	addi	s3,s3,-1
     e54:	0f370aa3          	sb	s3,245(a4)
     e58:	87843483          	ld	s1,-1928(s0)
     e5c:	fff48493          	addi	s1,s1,-1
     e60:	0e970b23          	sb	s1,246(a4)
     e64:	88843503          	ld	a0,-1912(s0)
     e68:	fff50513          	addi	a0,a0,-1
     e6c:	0ea70ba3          	sb	a0,247(a4)
     e70:	89043503          	ld	a0,-1904(s0)
     e74:	fff50513          	addi	a0,a0,-1
     e78:	0ea70c23          	sb	a0,248(a4)
     e7c:	89843503          	ld	a0,-1896(s0)
     e80:	fff50513          	addi	a0,a0,-1
     e84:	0ea70ca3          	sb	a0,249(a4)
     e88:	84043503          	ld	a0,-1984(s0)
     e8c:	fff50513          	addi	a0,a0,-1
     e90:	0ea70d23          	sb	a0,250(a4)
     e94:	8b043503          	ld	a0,-1872(s0)
     e98:	fff50513          	addi	a0,a0,-1
     e9c:	0ea70da3          	sb	a0,251(a4)
     ea0:	8b843503          	ld	a0,-1864(s0)
     ea4:	fff50513          	addi	a0,a0,-1
     ea8:	0ea70e23          	sb	a0,252(a4)
     eac:	8c043503          	ld	a0,-1856(s0)
     eb0:	fff50513          	addi	a0,a0,-1
     eb4:	0ea70ea3          	sb	a0,253(a4)
     eb8:	8c843503          	ld	a0,-1848(s0)
     ebc:	fff50513          	addi	a0,a0,-1
     ec0:	0ea70f23          	sb	a0,254(a4)
     ec4:	8d843503          	ld	a0,-1832(s0)
     ec8:	fff50513          	addi	a0,a0,-1
     ecc:	0ea70fa3          	sb	a0,255(a4)
     ed0:	00001537          	lui	a0,0x1
     ed4:	40a40533          	sub	a0,s0,a0
     ed8:	58053603          	ld	a2,1408(a0) # 1580 <.LBB34_3+0xe0>
     edc:	00860593          	addi	a1,a2,8
     ee0:	00001537          	lui	a0,0x1
     ee4:	40a40533          	sub	a0,s0,a0
     ee8:	55853703          	ld	a4,1368(a0) # 1558 <.LBB34_3+0xb8>
     eec:	48070713          	addi	a4,a4,1152
     ef0:	30800513          	li	a0,776
     ef4:	00a66463          	bltu	a2,a0,efc <.LBB34_2>
     ef8:	60c0b06f          	j	c504 <.LBB34_1540>

0000000000000efc <.LBB34_2>:
     efc:	00001537          	lui	a0,0x1
     f00:	40a40533          	sub	a0,s0,a0
     f04:	58b53023          	sd	a1,1408(a0) # 1580 <.LBB34_3+0xe0>
     f08:	00001537          	lui	a0,0x1
     f0c:	40a40533          	sub	a0,s0,a0
     f10:	54e53c23          	sd	a4,1368(a0) # 1558 <.LBB34_3+0xb8>
     f14:	00070793          	mv	a5,a4
     f18:	00001537          	lui	a0,0x1
     f1c:	40a40533          	sub	a0,s0,a0
     f20:	ab053f03          	ld	t5,-1360(a0) # ab0 <.LBB34_1+0x7a8>
     f24:	00001537          	lui	a0,0x1
     f28:	40a40533          	sub	a0,s0,a0
     f2c:	ad053f83          	ld	t6,-1328(a0) # ad0 <.LBB34_1+0x7c8>
     f30:	00001537          	lui	a0,0x1
     f34:	40a40533          	sub	a0,s0,a0
     f38:	6c053023          	sd	zero,1728(a0) # 16c0 <.LBB34_3+0x220>
     f3c:	00001537          	lui	a0,0x1
     f40:	40a40533          	sub	a0,s0,a0
     f44:	6a053423          	sd	zero,1704(a0) # 16a8 <.LBB34_3+0x208>
     f48:	00001537          	lui	a0,0x1
     f4c:	40a40533          	sub	a0,s0,a0
     f50:	6a053023          	sd	zero,1696(a0) # 16a0 <.LBB34_3+0x200>
     f54:	00001537          	lui	a0,0x1
     f58:	40a40533          	sub	a0,s0,a0
     f5c:	6a053823          	sd	zero,1712(a0) # 16b0 <.LBB34_3+0x210>
     f60:	00001537          	lui	a0,0x1
     f64:	40a40533          	sub	a0,s0,a0
     f68:	68053c23          	sd	zero,1688(a0) # 1698 <.LBB34_3+0x1f8>
     f6c:	00001537          	lui	a0,0x1
     f70:	40a40533          	sub	a0,s0,a0
     f74:	68053823          	sd	zero,1680(a0) # 1690 <.LBB34_3+0x1f0>
     f78:	00001537          	lui	a0,0x1
     f7c:	40a40533          	sub	a0,s0,a0
     f80:	6a053c23          	sd	zero,1720(a0) # 16b8 <.LBB34_3+0x218>
     f84:	00001537          	lui	a0,0x1
     f88:	40a40533          	sub	a0,s0,a0
     f8c:	6c053423          	sd	zero,1736(a0) # 16c8 <.LBB34_3+0x228>
     f90:	00001537          	lui	a0,0x1
     f94:	40a40533          	sub	a0,s0,a0
     f98:	6c053823          	sd	zero,1744(a0) # 16d0 <.LBB34_3+0x230>
     f9c:	00001537          	lui	a0,0x1
     fa0:	40a40533          	sub	a0,s0,a0
     fa4:	6c053c23          	sd	zero,1752(a0) # 16d8 <.LBB34_3+0x238>
     fa8:	00001537          	lui	a0,0x1
     fac:	40a40533          	sub	a0,s0,a0
     fb0:	6e053023          	sd	zero,1760(a0) # 16e0 <.LBB34_3+0x240>
     fb4:	00001537          	lui	a0,0x1
     fb8:	40a40533          	sub	a0,s0,a0
     fbc:	6e053423          	sd	zero,1768(a0) # 16e8 <.LBB34_3+0x248>
     fc0:	00001537          	lui	a0,0x1
     fc4:	40a40533          	sub	a0,s0,a0
     fc8:	6e053823          	sd	zero,1776(a0) # 16f0 <.LBB34_3+0x250>
     fcc:	00001537          	lui	a0,0x1
     fd0:	40a40533          	sub	a0,s0,a0
     fd4:	6e053c23          	sd	zero,1784(a0) # 16f8 <.LBB34_3+0x258>
     fd8:	00001537          	lui	a0,0x1
     fdc:	40a40533          	sub	a0,s0,a0
     fe0:	70053023          	sd	zero,1792(a0) # 1700 <.LBB34_3+0x260>
     fe4:	00001537          	lui	a0,0x1
     fe8:	40a40533          	sub	a0,s0,a0
     fec:	70053423          	sd	zero,1800(a0) # 1708 <.LBB34_3+0x268>
     ff0:	00001537          	lui	a0,0x1
     ff4:	40a40533          	sub	a0,s0,a0
     ff8:	70053823          	sd	zero,1808(a0) # 1710 <.LBB34_3+0x270>
     ffc:	00001537          	lui	a0,0x1
    1000:	40a40533          	sub	a0,s0,a0
    1004:	70053c23          	sd	zero,1816(a0) # 1718 <.LBB34_3+0x278>
    1008:	00001537          	lui	a0,0x1
    100c:	40a40533          	sub	a0,s0,a0
    1010:	72053023          	sd	zero,1824(a0) # 1720 <.LBB34_3+0x280>
    1014:	00001537          	lui	a0,0x1
    1018:	40a40533          	sub	a0,s0,a0
    101c:	72053423          	sd	zero,1832(a0) # 1728 <.LBB34_3+0x288>
    1020:	00001537          	lui	a0,0x1
    1024:	40a40533          	sub	a0,s0,a0
    1028:	72053823          	sd	zero,1840(a0) # 1730 <.LBB34_3+0x290>
    102c:	00001537          	lui	a0,0x1
    1030:	40a40533          	sub	a0,s0,a0
    1034:	72053c23          	sd	zero,1848(a0) # 1738 <.LBB34_3+0x298>
    1038:	00001537          	lui	a0,0x1
    103c:	40a40533          	sub	a0,s0,a0
    1040:	74053023          	sd	zero,1856(a0) # 1740 <.LBB34_3+0x2a0>
    1044:	00000493          	li	s1,0
    1048:	00001537          	lui	a0,0x1
    104c:	40a40533          	sub	a0,s0,a0
    1050:	74053423          	sd	zero,1864(a0) # 1748 <.LBB34_3+0x2a8>
    1054:	00001537          	lui	a0,0x1
    1058:	40a40533          	sub	a0,s0,a0
    105c:	74053823          	sd	zero,1872(a0) # 1750 <.LBB34_3+0x2b0>
    1060:	00001537          	lui	a0,0x1
    1064:	40a40533          	sub	a0,s0,a0
    1068:	74053c23          	sd	zero,1880(a0) # 1758 <.LBB34_3+0x2b8>
    106c:	00001537          	lui	a0,0x1
    1070:	40a40533          	sub	a0,s0,a0
    1074:	76053023          	sd	zero,1888(a0) # 1760 <.LBB34_3+0x2c0>
    1078:	00001537          	lui	a0,0x1
    107c:	40a40533          	sub	a0,s0,a0
    1080:	76053423          	sd	zero,1896(a0) # 1768 <.LBB34_3+0x2c8>
    1084:	00001537          	lui	a0,0x1
    1088:	40a40533          	sub	a0,s0,a0
    108c:	76053823          	sd	zero,1904(a0) # 1770 <.LBB34_3+0x2d0>
    1090:	00001537          	lui	a0,0x1
    1094:	40a40533          	sub	a0,s0,a0
    1098:	76053c23          	sd	zero,1912(a0) # 1778 <.LBB34_3+0x2d8>
    109c:	00001537          	lui	a0,0x1
    10a0:	40a40533          	sub	a0,s0,a0
    10a4:	78053023          	sd	zero,1920(a0) # 1780 <.LBB34_3+0x2e0>
    10a8:	00001537          	lui	a0,0x1
    10ac:	40a40533          	sub	a0,s0,a0
    10b0:	7a053023          	sd	zero,1952(a0) # 17a0 <.LBB34_3+0x300>
    10b4:	00001537          	lui	a0,0x1
    10b8:	40a40533          	sub	a0,s0,a0
    10bc:	78053c23          	sd	zero,1944(a0) # 1798 <.LBB34_3+0x2f8>
    10c0:	00001537          	lui	a0,0x1
    10c4:	40a40533          	sub	a0,s0,a0
    10c8:	78053823          	sd	zero,1936(a0) # 1790 <.LBB34_3+0x2f0>
    10cc:	00001537          	lui	a0,0x1
    10d0:	40a40533          	sub	a0,s0,a0
    10d4:	78053423          	sd	zero,1928(a0) # 1788 <.LBB34_3+0x2e8>
    10d8:	00001537          	lui	a0,0x1
    10dc:	40a40533          	sub	a0,s0,a0
    10e0:	7a053423          	sd	zero,1960(a0) # 17a8 <.LBB34_3+0x308>
    10e4:	00001537          	lui	a0,0x1
    10e8:	40a40533          	sub	a0,s0,a0
    10ec:	7a053823          	sd	zero,1968(a0) # 17b0 <.LBB34_3+0x310>
    10f0:	00001537          	lui	a0,0x1
    10f4:	40a40533          	sub	a0,s0,a0
    10f8:	7a053c23          	sd	zero,1976(a0) # 17b8 <.LBB34_3+0x318>
    10fc:	00001537          	lui	a0,0x1
    1100:	40a40533          	sub	a0,s0,a0
    1104:	7c053023          	sd	zero,1984(a0) # 17c0 <.LBB34_3+0x320>
    1108:	00001537          	lui	a0,0x1
    110c:	40a40533          	sub	a0,s0,a0
    1110:	7c053423          	sd	zero,1992(a0) # 17c8 <.LBB34_3+0x328>
    1114:	00001537          	lui	a0,0x1
    1118:	40a40533          	sub	a0,s0,a0
    111c:	7c053823          	sd	zero,2000(a0) # 17d0 <.LBB34_3+0x330>
    1120:	00001537          	lui	a0,0x1
    1124:	40a40533          	sub	a0,s0,a0
    1128:	7c053c23          	sd	zero,2008(a0) # 17d8 <.LBB34_3+0x338>
    112c:	00001537          	lui	a0,0x1
    1130:	40a40533          	sub	a0,s0,a0
    1134:	7e053023          	sd	zero,2016(a0) # 17e0 <.LBB34_3+0x340>
    1138:	00001537          	lui	a0,0x1
    113c:	40a40533          	sub	a0,s0,a0
    1140:	7e053423          	sd	zero,2024(a0) # 17e8 <.LBB34_3+0x348>
    1144:	00001537          	lui	a0,0x1
    1148:	40a40533          	sub	a0,s0,a0
    114c:	7e053823          	sd	zero,2032(a0) # 17f0 <.LBB34_3+0x350>
    1150:	00001537          	lui	a0,0x1
    1154:	40a40533          	sub	a0,s0,a0
    1158:	7e053c23          	sd	zero,2040(a0) # 17f8 <.LBB34_3+0x358>
    115c:	80043023          	sd	zero,-2048(s0)
    1160:	80043423          	sd	zero,-2040(s0)
    1164:	80043823          	sd	zero,-2032(s0)
    1168:	80043c23          	sd	zero,-2024(s0)
    116c:	82043023          	sd	zero,-2016(s0)
    1170:	82043423          	sd	zero,-2008(s0)
    1174:	82043823          	sd	zero,-2000(s0)
    1178:	82043c23          	sd	zero,-1992(s0)
    117c:	84043023          	sd	zero,-1984(s0)
    1180:	84043423          	sd	zero,-1976(s0)
    1184:	84043823          	sd	zero,-1968(s0)
    1188:	84043c23          	sd	zero,-1960(s0)
    118c:	86043023          	sd	zero,-1952(s0)
    1190:	86043423          	sd	zero,-1944(s0)
    1194:	86043823          	sd	zero,-1936(s0)
    1198:	86043c23          	sd	zero,-1928(s0)
    119c:	88043023          	sd	zero,-1920(s0)
    11a0:	8a043023          	sd	zero,-1888(s0)
    11a4:	88043c23          	sd	zero,-1896(s0)
    11a8:	88043823          	sd	zero,-1904(s0)
    11ac:	88043423          	sd	zero,-1912(s0)
    11b0:	8a043423          	sd	zero,-1880(s0)
    11b4:	8a043823          	sd	zero,-1872(s0)
    11b8:	8a043c23          	sd	zero,-1864(s0)
    11bc:	8c043023          	sd	zero,-1856(s0)
    11c0:	8c043423          	sd	zero,-1848(s0)
    11c4:	8c043823          	sd	zero,-1840(s0)
    11c8:	8c043c23          	sd	zero,-1832(s0)
    11cc:	8e043023          	sd	zero,-1824(s0)
    11d0:	8e043423          	sd	zero,-1816(s0)
    11d4:	8e043823          	sd	zero,-1808(s0)
    11d8:	8e043c23          	sd	zero,-1800(s0)
    11dc:	90043023          	sd	zero,-1792(s0)
    11e0:	90043423          	sd	zero,-1784(s0)
    11e4:	90043823          	sd	zero,-1776(s0)
    11e8:	90043c23          	sd	zero,-1768(s0)
    11ec:	92043023          	sd	zero,-1760(s0)
    11f0:	92043423          	sd	zero,-1752(s0)
    11f4:	92043823          	sd	zero,-1744(s0)
    11f8:	92043c23          	sd	zero,-1736(s0)
    11fc:	94043023          	sd	zero,-1728(s0)
    1200:	94043423          	sd	zero,-1720(s0)
    1204:	94043823          	sd	zero,-1712(s0)
    1208:	94043c23          	sd	zero,-1704(s0)
    120c:	96043023          	sd	zero,-1696(s0)
    1210:	96043423          	sd	zero,-1688(s0)
    1214:	96043823          	sd	zero,-1680(s0)
    1218:	96043c23          	sd	zero,-1672(s0)
    121c:	98043023          	sd	zero,-1664(s0)
    1220:	9a043023          	sd	zero,-1632(s0)
    1224:	98043c23          	sd	zero,-1640(s0)
    1228:	98043823          	sd	zero,-1648(s0)
    122c:	98043423          	sd	zero,-1656(s0)
    1230:	9a043423          	sd	zero,-1624(s0)
    1234:	9a043823          	sd	zero,-1616(s0)
    1238:	9a043c23          	sd	zero,-1608(s0)
    123c:	9c043023          	sd	zero,-1600(s0)
    1240:	9c043423          	sd	zero,-1592(s0)
    1244:	9c043823          	sd	zero,-1584(s0)
    1248:	9c043c23          	sd	zero,-1576(s0)
    124c:	9e043023          	sd	zero,-1568(s0)
    1250:	9e043423          	sd	zero,-1560(s0)
    1254:	9e043823          	sd	zero,-1552(s0)
    1258:	9e043c23          	sd	zero,-1544(s0)
    125c:	a0043023          	sd	zero,-1536(s0)
    1260:	a0043423          	sd	zero,-1528(s0)
    1264:	a0043823          	sd	zero,-1520(s0)
    1268:	a0043c23          	sd	zero,-1512(s0)
    126c:	a2043023          	sd	zero,-1504(s0)
    1270:	a2043423          	sd	zero,-1496(s0)
    1274:	a2043823          	sd	zero,-1488(s0)
    1278:	a2043c23          	sd	zero,-1480(s0)
    127c:	a4043023          	sd	zero,-1472(s0)
    1280:	a4043423          	sd	zero,-1464(s0)
    1284:	a4043823          	sd	zero,-1456(s0)
    1288:	a4043c23          	sd	zero,-1448(s0)
    128c:	a6043023          	sd	zero,-1440(s0)
    1290:	a6043423          	sd	zero,-1432(s0)
    1294:	a6043823          	sd	zero,-1424(s0)
    1298:	a6043c23          	sd	zero,-1416(s0)
    129c:	a8043023          	sd	zero,-1408(s0)
    12a0:	aa043023          	sd	zero,-1376(s0)
    12a4:	a8043c23          	sd	zero,-1384(s0)
    12a8:	a8043823          	sd	zero,-1392(s0)
    12ac:	a8043423          	sd	zero,-1400(s0)
    12b0:	aa043423          	sd	zero,-1368(s0)
    12b4:	aa043823          	sd	zero,-1360(s0)
    12b8:	aa043c23          	sd	zero,-1352(s0)
    12bc:	ac043023          	sd	zero,-1344(s0)
    12c0:	ac043423          	sd	zero,-1336(s0)
    12c4:	ac043823          	sd	zero,-1328(s0)
    12c8:	ac043c23          	sd	zero,-1320(s0)
    12cc:	ae043023          	sd	zero,-1312(s0)
    12d0:	ae043423          	sd	zero,-1304(s0)
    12d4:	ae043823          	sd	zero,-1296(s0)
    12d8:	ae043c23          	sd	zero,-1288(s0)
    12dc:	b0043023          	sd	zero,-1280(s0)
    12e0:	b0043423          	sd	zero,-1272(s0)
    12e4:	b0043823          	sd	zero,-1264(s0)
    12e8:	b0043c23          	sd	zero,-1256(s0)
    12ec:	b2043023          	sd	zero,-1248(s0)
    12f0:	b2043423          	sd	zero,-1240(s0)
    12f4:	b2043823          	sd	zero,-1232(s0)
    12f8:	b2043c23          	sd	zero,-1224(s0)
    12fc:	b4043023          	sd	zero,-1216(s0)
    1300:	b4043423          	sd	zero,-1208(s0)
    1304:	b4043823          	sd	zero,-1200(s0)
    1308:	b4043c23          	sd	zero,-1192(s0)
    130c:	b6043023          	sd	zero,-1184(s0)
    1310:	b6043423          	sd	zero,-1176(s0)
    1314:	b6043823          	sd	zero,-1168(s0)
    1318:	b6043c23          	sd	zero,-1160(s0)
    131c:	b8043023          	sd	zero,-1152(s0)
    1320:	ba043023          	sd	zero,-1120(s0)
    1324:	b8043c23          	sd	zero,-1128(s0)
    1328:	b8043823          	sd	zero,-1136(s0)
    132c:	b8043423          	sd	zero,-1144(s0)
    1330:	ba043423          	sd	zero,-1112(s0)
    1334:	ba043823          	sd	zero,-1104(s0)
    1338:	ba043c23          	sd	zero,-1096(s0)
    133c:	bc043023          	sd	zero,-1088(s0)
    1340:	bc043423          	sd	zero,-1080(s0)
    1344:	bc043823          	sd	zero,-1072(s0)
    1348:	bc043c23          	sd	zero,-1064(s0)
    134c:	be043023          	sd	zero,-1056(s0)
    1350:	be043423          	sd	zero,-1048(s0)
    1354:	be043823          	sd	zero,-1040(s0)
    1358:	be043c23          	sd	zero,-1032(s0)
    135c:	c0043023          	sd	zero,-1024(s0)
    1360:	c0043423          	sd	zero,-1016(s0)
    1364:	c0043823          	sd	zero,-1008(s0)
    1368:	c0043c23          	sd	zero,-1000(s0)
    136c:	c2043023          	sd	zero,-992(s0)
    1370:	c2043423          	sd	zero,-984(s0)
    1374:	c2043823          	sd	zero,-976(s0)
    1378:	c2043c23          	sd	zero,-968(s0)
    137c:	c4043023          	sd	zero,-960(s0)
    1380:	c4043423          	sd	zero,-952(s0)
    1384:	c4043823          	sd	zero,-944(s0)
    1388:	c4043c23          	sd	zero,-936(s0)
    138c:	c6043023          	sd	zero,-928(s0)
    1390:	c6043423          	sd	zero,-920(s0)
    1394:	c6043823          	sd	zero,-912(s0)
    1398:	c6043c23          	sd	zero,-904(s0)
    139c:	c8043023          	sd	zero,-896(s0)
    13a0:	ca043023          	sd	zero,-864(s0)
    13a4:	c8043c23          	sd	zero,-872(s0)
    13a8:	c8043823          	sd	zero,-880(s0)
    13ac:	c8043423          	sd	zero,-888(s0)
    13b0:	ca043423          	sd	zero,-856(s0)
    13b4:	ca043823          	sd	zero,-848(s0)
    13b8:	ca043c23          	sd	zero,-840(s0)
    13bc:	cc043023          	sd	zero,-832(s0)
    13c0:	cc043423          	sd	zero,-824(s0)
    13c4:	cc043823          	sd	zero,-816(s0)
    13c8:	cc043c23          	sd	zero,-808(s0)
    13cc:	ce043023          	sd	zero,-800(s0)
    13d0:	ce043423          	sd	zero,-792(s0)
    13d4:	ce043823          	sd	zero,-784(s0)
    13d8:	ce043c23          	sd	zero,-776(s0)
    13dc:	d0043023          	sd	zero,-768(s0)
    13e0:	d0043423          	sd	zero,-760(s0)
    13e4:	d0043823          	sd	zero,-752(s0)
    13e8:	d0043c23          	sd	zero,-744(s0)
    13ec:	d2043023          	sd	zero,-736(s0)
    13f0:	d2043423          	sd	zero,-728(s0)
    13f4:	d2043823          	sd	zero,-720(s0)
    13f8:	d2043c23          	sd	zero,-712(s0)
    13fc:	d4043023          	sd	zero,-704(s0)
    1400:	d4043423          	sd	zero,-696(s0)
    1404:	d4043823          	sd	zero,-688(s0)
    1408:	d4043c23          	sd	zero,-680(s0)
    140c:	d6043023          	sd	zero,-672(s0)
    1410:	d6043423          	sd	zero,-664(s0)
    1414:	d6043823          	sd	zero,-656(s0)
    1418:	d6043c23          	sd	zero,-648(s0)
    141c:	d8043023          	sd	zero,-640(s0)
    1420:	da043023          	sd	zero,-608(s0)
    1424:	d8043c23          	sd	zero,-616(s0)
    1428:	d8043823          	sd	zero,-624(s0)
    142c:	d8043423          	sd	zero,-632(s0)
    1430:	da043423          	sd	zero,-600(s0)
    1434:	da043823          	sd	zero,-592(s0)
    1438:	da043c23          	sd	zero,-584(s0)
    143c:	dc043023          	sd	zero,-576(s0)
    1440:	dc043423          	sd	zero,-568(s0)
    1444:	dc043823          	sd	zero,-560(s0)
    1448:	dc043c23          	sd	zero,-552(s0)
    144c:	00000093          	li	ra,0
    1450:	00000d93          	li	s11,0
    1454:	00000d13          	li	s10,0
    1458:	00000c93          	li	s9,0
    145c:	00000c13          	li	s8,0
    1460:	00000b93          	li	s7,0
    1464:	00000b13          	li	s6,0
    1468:	00000a93          	li	s5,0
    146c:	00000a13          	li	s4,0
    1470:	00000e93          	li	t4,0
    1474:	00000693          	li	a3,0
    1478:	00000613          	li	a2,0
    147c:	00000293          	li	t0,0
    1480:	00000513          	li	a0,0
    1484:	00000e13          	li	t3,0
    1488:	00000393          	li	t2,0
    148c:	00000313          	li	t1,0
    1490:	00000593          	li	a1,0
    1494:	00000893          	li	a7,0
    1498:	00000813          	li	a6,0
    149c:	00000713          	li	a4,0

00000000000014a0 <.LBB34_3>:
    14a0:	f9f43423          	sd	t6,-120(s0)
    14a4:	00001937          	lui	s2,0x1
    14a8:	41240933          	sub	s2,s0,s2
    14ac:	67e93823          	sd	t5,1648(s2) # 1670 <.LBB34_3+0x1d0>
    14b0:	f8f43023          	sd	a5,-128(s0)
    14b4:	de143023          	sd	ra,-544(s0)
    14b8:	dfb43423          	sd	s11,-536(s0)
    14bc:	dfa43823          	sd	s10,-528(s0)
    14c0:	df943c23          	sd	s9,-520(s0)
    14c4:	e1843023          	sd	s8,-512(s0)
    14c8:	e1743423          	sd	s7,-504(s0)
    14cc:	e1643823          	sd	s6,-496(s0)
    14d0:	e1543c23          	sd	s5,-488(s0)
    14d4:	e3443023          	sd	s4,-480(s0)
    14d8:	f1d43c23          	sd	t4,-232(s0)
    14dc:	f2d43023          	sd	a3,-224(s0)
    14e0:	f2c43423          	sd	a2,-216(s0)
    14e4:	f2543823          	sd	t0,-208(s0)
    14e8:	f2a43c23          	sd	a0,-200(s0)
    14ec:	e3c43423          	sd	t3,-472(s0)
    14f0:	e2743823          	sd	t2,-464(s0)
    14f4:	e2643c23          	sd	t1,-456(s0)
    14f8:	e4b43023          	sd	a1,-448(s0)
    14fc:	e5143423          	sd	a7,-440(s0)
    1500:	e5043823          	sd	a6,-432(s0)
    1504:	e4e43c23          	sd	a4,-424(s0)
    1508:	00078503          	lb	a0,0(a5)
    150c:	002f8603          	lb	a2,2(t6)
    1510:	f6c43823          	sd	a2,-144(s0)
    1514:	001f8683          	lb	a3,1(t6)
    1518:	f6d43c23          	sd	a3,-136(s0)
    151c:	000f8703          	lb	a4,0(t6)
    1520:	003f8783          	lb	a5,3(t6)
    1524:	004f8803          	lb	a6,4(t6)
    1528:	005f8a83          	lb	s5,5(t6)
    152c:	f5543023          	sd	s5,-192(s0)
    1530:	006f8d83          	lb	s11,6(t6)
    1534:	ebb43c23          	sd	s11,-328(s0)
    1538:	007f8083          	lb	ra,7(t6)
    153c:	008f8983          	lb	s3,8(t6)
    1540:	009f8883          	lb	a7,9(t6)
    1544:	000015b7          	lui	a1,0x1
    1548:	40b405b3          	sub	a1,s0,a1
    154c:	6715b423          	sd	a7,1640(a1) # 1668 <.LBB34_3+0x1c8>
    1550:	00af8283          	lb	t0,10(t6)
    1554:	e8543c23          	sd	t0,-360(s0)
    1558:	00bf8303          	lb	t1,11(t6)
    155c:	f0643823          	sd	t1,-240(s0)
    1560:	00cf8383          	lb	t2,12(t6)
    1564:	f0743423          	sd	t2,-248(s0)
    1568:	00df8903          	lb	s2,13(t6)
    156c:	f1243023          	sd	s2,-256(s0)
    1570:	00ef8e03          	lb	t3,14(t6)
    1574:	f5c43823          	sd	t3,-176(s0)
    1578:	00ff8e83          	lb	t4,15(t6)
    157c:	010f8f03          	lb	t5,16(t6)
    1580:	011f8a03          	lb	s4,17(t6)
    1584:	ed443023          	sd	s4,-320(s0)
    1588:	012f8b03          	lb	s6,18(t6)
    158c:	ed643423          	sd	s6,-312(s0)
    1590:	013f8583          	lb	a1,19(t6)
    1594:	e6b43423          	sd	a1,-408(s0)
    1598:	014f8f83          	lb	t6,20(t6)
    159c:	f8843583          	ld	a1,-120(s0)
    15a0:	01558c03          	lb	s8,21(a1)
    15a4:	f8843583          	ld	a1,-120(s0)
    15a8:	01658c83          	lb	s9,22(a1)
    15ac:	ed943823          	sd	s9,-304(s0)
    15b0:	f8843583          	ld	a1,-120(s0)
    15b4:	01758b83          	lb	s7,23(a1)
    15b8:	f7743423          	sd	s7,-152(s0)
    15bc:	f8843583          	ld	a1,-120(s0)
    15c0:	01858d03          	lb	s10,24(a1)
    15c4:	f7a43023          	sd	s10,-160(s0)
    15c8:	02c505b3          	mul	a1,a0,a2
    15cc:	00001637          	lui	a2,0x1
    15d0:	40c40633          	sub	a2,s0,a2
    15d4:	6a063603          	ld	a2,1696(a2) # 16a0 <.LBB34_3+0x200>
    15d8:	00c58633          	add	a2,a1,a2
    15dc:	000015b7          	lui	a1,0x1
    15e0:	40b405b3          	sub	a1,s0,a1
    15e4:	6ac5b023          	sd	a2,1696(a1) # 16a0 <.LBB34_3+0x200>
    15e8:	02d505b3          	mul	a1,a0,a3
    15ec:	00001637          	lui	a2,0x1
    15f0:	40c40633          	sub	a2,s0,a2
    15f4:	6a863603          	ld	a2,1704(a2) # 16a8 <.LBB34_3+0x208>
    15f8:	00c58633          	add	a2,a1,a2
    15fc:	000015b7          	lui	a1,0x1
    1600:	40b405b3          	sub	a1,s0,a1
    1604:	6ac5b423          	sd	a2,1704(a1) # 16a8 <.LBB34_3+0x208>
    1608:	02e505b3          	mul	a1,a0,a4
    160c:	eee43023          	sd	a4,-288(s0)
    1610:	00001637          	lui	a2,0x1
    1614:	40c40633          	sub	a2,s0,a2
    1618:	6c063603          	ld	a2,1728(a2) # 16c0 <.LBB34_3+0x220>
    161c:	00c58633          	add	a2,a1,a2
    1620:	000015b7          	lui	a1,0x1
    1624:	40b405b3          	sub	a1,s0,a1
    1628:	6cc5b023          	sd	a2,1728(a1) # 16c0 <.LBB34_3+0x220>
    162c:	02f505b3          	mul	a1,a0,a5
    1630:	00001637          	lui	a2,0x1
    1634:	40c40633          	sub	a2,s0,a2
    1638:	6b063603          	ld	a2,1712(a2) # 16b0 <.LBB34_3+0x210>
    163c:	00c58633          	add	a2,a1,a2
    1640:	000015b7          	lui	a1,0x1
    1644:	40b405b3          	sub	a1,s0,a1
    1648:	6ac5b823          	sd	a2,1712(a1) # 16b0 <.LBB34_3+0x210>
    164c:	030505b3          	mul	a1,a0,a6
    1650:	00001637          	lui	a2,0x1
    1654:	40c40633          	sub	a2,s0,a2
    1658:	69863603          	ld	a2,1688(a2) # 1698 <.LBB34_3+0x1f8>
    165c:	00c58633          	add	a2,a1,a2
    1660:	000015b7          	lui	a1,0x1
    1664:	40b405b3          	sub	a1,s0,a1
    1668:	68c5bc23          	sd	a2,1688(a1) # 1698 <.LBB34_3+0x1f8>
    166c:	035505b3          	mul	a1,a0,s5
    1670:	00001637          	lui	a2,0x1
    1674:	40c40633          	sub	a2,s0,a2
    1678:	69063603          	ld	a2,1680(a2) # 1690 <.LBB34_3+0x1f0>
    167c:	00c58633          	add	a2,a1,a2
    1680:	000015b7          	lui	a1,0x1
    1684:	40b405b3          	sub	a1,s0,a1
    1688:	68c5b823          	sd	a2,1680(a1) # 1690 <.LBB34_3+0x1f0>
    168c:	03b505b3          	mul	a1,a0,s11
    1690:	00001637          	lui	a2,0x1
    1694:	40c40633          	sub	a2,s0,a2
    1698:	6b863603          	ld	a2,1720(a2) # 16b8 <.LBB34_3+0x218>
    169c:	00c58633          	add	a2,a1,a2
    16a0:	000015b7          	lui	a1,0x1
    16a4:	40b405b3          	sub	a1,s0,a1
    16a8:	6ac5bc23          	sd	a2,1720(a1) # 16b8 <.LBB34_3+0x218>
    16ac:	021505b3          	mul	a1,a0,ra
    16b0:	00001637          	lui	a2,0x1
    16b4:	40c40633          	sub	a2,s0,a2
    16b8:	6c863603          	ld	a2,1736(a2) # 16c8 <.LBB34_3+0x228>
    16bc:	00c58633          	add	a2,a1,a2
    16c0:	000015b7          	lui	a1,0x1
    16c4:	40b405b3          	sub	a1,s0,a1
    16c8:	6cc5b423          	sd	a2,1736(a1) # 16c8 <.LBB34_3+0x228>
    16cc:	033505b3          	mul	a1,a0,s3
    16d0:	00001637          	lui	a2,0x1
    16d4:	40c40633          	sub	a2,s0,a2
    16d8:	6d063603          	ld	a2,1744(a2) # 16d0 <.LBB34_3+0x230>
    16dc:	00c58633          	add	a2,a1,a2
    16e0:	000015b7          	lui	a1,0x1
    16e4:	40b405b3          	sub	a1,s0,a1
    16e8:	6cc5b823          	sd	a2,1744(a1) # 16d0 <.LBB34_3+0x230>
    16ec:	031505b3          	mul	a1,a0,a7
    16f0:	00001637          	lui	a2,0x1
    16f4:	40c40633          	sub	a2,s0,a2
    16f8:	6d863603          	ld	a2,1752(a2) # 16d8 <.LBB34_3+0x238>
    16fc:	00c58633          	add	a2,a1,a2
    1700:	000015b7          	lui	a1,0x1
    1704:	40b405b3          	sub	a1,s0,a1
    1708:	6cc5bc23          	sd	a2,1752(a1) # 16d8 <.LBB34_3+0x238>
    170c:	025505b3          	mul	a1,a0,t0
    1710:	00001637          	lui	a2,0x1
    1714:	40c40633          	sub	a2,s0,a2
    1718:	6e063603          	ld	a2,1760(a2) # 16e0 <.LBB34_3+0x240>
    171c:	00c58633          	add	a2,a1,a2
    1720:	000015b7          	lui	a1,0x1
    1724:	40b405b3          	sub	a1,s0,a1
    1728:	6ec5b023          	sd	a2,1760(a1) # 16e0 <.LBB34_3+0x240>
    172c:	026505b3          	mul	a1,a0,t1
    1730:	00001637          	lui	a2,0x1
    1734:	40c40633          	sub	a2,s0,a2
    1738:	6e863603          	ld	a2,1768(a2) # 16e8 <.LBB34_3+0x248>
    173c:	00c58633          	add	a2,a1,a2
    1740:	000015b7          	lui	a1,0x1
    1744:	40b405b3          	sub	a1,s0,a1
    1748:	6ec5b423          	sd	a2,1768(a1) # 16e8 <.LBB34_3+0x248>
    174c:	027505b3          	mul	a1,a0,t2
    1750:	00001637          	lui	a2,0x1
    1754:	40c40633          	sub	a2,s0,a2
    1758:	6f063603          	ld	a2,1776(a2) # 16f0 <.LBB34_3+0x250>
    175c:	00c58633          	add	a2,a1,a2
    1760:	000015b7          	lui	a1,0x1
    1764:	40b405b3          	sub	a1,s0,a1
    1768:	6ec5b823          	sd	a2,1776(a1) # 16f0 <.LBB34_3+0x250>
    176c:	032505b3          	mul	a1,a0,s2
    1770:	00001637          	lui	a2,0x1
    1774:	40c40633          	sub	a2,s0,a2
    1778:	6f863603          	ld	a2,1784(a2) # 16f8 <.LBB34_3+0x258>
    177c:	00c58633          	add	a2,a1,a2
    1780:	000015b7          	lui	a1,0x1
    1784:	40b405b3          	sub	a1,s0,a1
    1788:	6ec5bc23          	sd	a2,1784(a1) # 16f8 <.LBB34_3+0x258>
    178c:	03c505b3          	mul	a1,a0,t3
    1790:	00001637          	lui	a2,0x1
    1794:	40c40633          	sub	a2,s0,a2
    1798:	70063603          	ld	a2,1792(a2) # 1700 <.LBB34_3+0x260>
    179c:	00c58633          	add	a2,a1,a2
    17a0:	000015b7          	lui	a1,0x1
    17a4:	40b405b3          	sub	a1,s0,a1
    17a8:	70c5b023          	sd	a2,1792(a1) # 1700 <.LBB34_3+0x260>
    17ac:	03d505b3          	mul	a1,a0,t4
    17b0:	000e8e13          	mv	t3,t4
    17b4:	00001637          	lui	a2,0x1
    17b8:	40c40633          	sub	a2,s0,a2
    17bc:	70863603          	ld	a2,1800(a2) # 1708 <.LBB34_3+0x268>
    17c0:	00c58633          	add	a2,a1,a2
    17c4:	000015b7          	lui	a1,0x1
    17c8:	40b405b3          	sub	a1,s0,a1
    17cc:	70c5b423          	sd	a2,1800(a1) # 1708 <.LBB34_3+0x268>
    17d0:	03e505b3          	mul	a1,a0,t5
    17d4:	000f0393          	mv	t2,t5
    17d8:	00001637          	lui	a2,0x1
    17dc:	40c40633          	sub	a2,s0,a2
    17e0:	71063603          	ld	a2,1808(a2) # 1710 <.LBB34_3+0x270>
    17e4:	00c58633          	add	a2,a1,a2
    17e8:	000015b7          	lui	a1,0x1
    17ec:	40b405b3          	sub	a1,s0,a1
    17f0:	70c5b823          	sd	a2,1808(a1) # 1710 <.LBB34_3+0x270>
    17f4:	034505b3          	mul	a1,a0,s4
    17f8:	00001637          	lui	a2,0x1
    17fc:	40c40633          	sub	a2,s0,a2
    1800:	71863603          	ld	a2,1816(a2) # 1718 <.LBB34_3+0x278>
    1804:	00c58633          	add	a2,a1,a2
    1808:	000015b7          	lui	a1,0x1
    180c:	40b405b3          	sub	a1,s0,a1
    1810:	70c5bc23          	sd	a2,1816(a1) # 1718 <.LBB34_3+0x278>
    1814:	036505b3          	mul	a1,a0,s6
    1818:	00001637          	lui	a2,0x1
    181c:	40c40633          	sub	a2,s0,a2
    1820:	72063603          	ld	a2,1824(a2) # 1720 <.LBB34_3+0x280>
    1824:	00c58633          	add	a2,a1,a2
    1828:	000015b7          	lui	a1,0x1
    182c:	40b405b3          	sub	a1,s0,a1
    1830:	72c5b023          	sd	a2,1824(a1) # 1720 <.LBB34_3+0x280>
    1834:	e6843f03          	ld	t5,-408(s0)
    1838:	03e505b3          	mul	a1,a0,t5
    183c:	00001637          	lui	a2,0x1
    1840:	40c40633          	sub	a2,s0,a2
    1844:	72863603          	ld	a2,1832(a2) # 1728 <.LBB34_3+0x288>
    1848:	00c58633          	add	a2,a1,a2
    184c:	000015b7          	lui	a1,0x1
    1850:	40b405b3          	sub	a1,s0,a1
    1854:	72c5b423          	sd	a2,1832(a1) # 1728 <.LBB34_3+0x288>
    1858:	03f505b3          	mul	a1,a0,t6
    185c:	000f8913          	mv	s2,t6
    1860:	eff43423          	sd	t6,-280(s0)
    1864:	00001637          	lui	a2,0x1
    1868:	40c40633          	sub	a2,s0,a2
    186c:	73063603          	ld	a2,1840(a2) # 1730 <.LBB34_3+0x290>
    1870:	00c58633          	add	a2,a1,a2
    1874:	000015b7          	lui	a1,0x1
    1878:	40b405b3          	sub	a1,s0,a1
    187c:	72c5b823          	sd	a2,1840(a1) # 1730 <.LBB34_3+0x290>
    1880:	038505b3          	mul	a1,a0,s8
    1884:	000c0f93          	mv	t6,s8
    1888:	00001637          	lui	a2,0x1
    188c:	40c40633          	sub	a2,s0,a2
    1890:	73863603          	ld	a2,1848(a2) # 1738 <.LBB34_3+0x298>
    1894:	00c58633          	add	a2,a1,a2
    1898:	000015b7          	lui	a1,0x1
    189c:	40b405b3          	sub	a1,s0,a1
    18a0:	72c5bc23          	sd	a2,1848(a1) # 1738 <.LBB34_3+0x298>
    18a4:	039505b3          	mul	a1,a0,s9
    18a8:	00001637          	lui	a2,0x1
    18ac:	40c40633          	sub	a2,s0,a2
    18b0:	74063603          	ld	a2,1856(a2) # 1740 <.LBB34_3+0x2a0>
    18b4:	00c58633          	add	a2,a1,a2
    18b8:	000015b7          	lui	a1,0x1
    18bc:	40b405b3          	sub	a1,s0,a1
    18c0:	74c5b023          	sd	a2,1856(a1) # 1740 <.LBB34_3+0x2a0>
    18c4:	037505b3          	mul	a1,a0,s7
    18c8:	009584b3          	add	s1,a1,s1
    18cc:	000015b7          	lui	a1,0x1
    18d0:	40b405b3          	sub	a1,s0,a1
    18d4:	6695bc23          	sd	s1,1656(a1) # 1678 <.LBB34_3+0x1d8>
    18d8:	f8843583          	ld	a1,-120(s0)
    18dc:	01958683          	lb	a3,25(a1)
    18e0:	ead43823          	sd	a3,-336(s0)
    18e4:	03a505b3          	mul	a1,a0,s10
    18e8:	00001637          	lui	a2,0x1
    18ec:	40c40633          	sub	a2,s0,a2
    18f0:	74863603          	ld	a2,1864(a2) # 1748 <.LBB34_3+0x2a8>
    18f4:	00c58633          	add	a2,a1,a2
    18f8:	000015b7          	lui	a1,0x1
    18fc:	40b405b3          	sub	a1,s0,a1
    1900:	74c5b423          	sd	a2,1864(a1) # 1748 <.LBB34_3+0x2a8>
    1904:	f8843583          	ld	a1,-120(s0)
    1908:	01a58d03          	lb	s10,26(a1)
    190c:	02d505b3          	mul	a1,a0,a3
    1910:	00001637          	lui	a2,0x1
    1914:	40c40633          	sub	a2,s0,a2
    1918:	75063603          	ld	a2,1872(a2) # 1750 <.LBB34_3+0x2b0>
    191c:	00c58633          	add	a2,a1,a2
    1920:	000015b7          	lui	a1,0x1
    1924:	40b405b3          	sub	a1,s0,a1
    1928:	74c5b823          	sd	a2,1872(a1) # 1750 <.LBB34_3+0x2b0>
    192c:	f8843583          	ld	a1,-120(s0)
    1930:	01b58283          	lb	t0,27(a1)
    1934:	03a505b3          	mul	a1,a0,s10
    1938:	eba43023          	sd	s10,-352(s0)
    193c:	00001637          	lui	a2,0x1
    1940:	40c40633          	sub	a2,s0,a2
    1944:	75863603          	ld	a2,1880(a2) # 1758 <.LBB34_3+0x2b8>
    1948:	00c58633          	add	a2,a1,a2
    194c:	000015b7          	lui	a1,0x1
    1950:	40b405b3          	sub	a1,s0,a1
    1954:	74c5bc23          	sd	a2,1880(a1) # 1758 <.LBB34_3+0x2b8>
    1958:	f8843583          	ld	a1,-120(s0)
    195c:	01c58683          	lb	a3,28(a1)
    1960:	f4d43c23          	sd	a3,-168(s0)
    1964:	025505b3          	mul	a1,a0,t0
    1968:	e8543823          	sd	t0,-368(s0)
    196c:	00001637          	lui	a2,0x1
    1970:	40c40633          	sub	a2,s0,a2
    1974:	76063603          	ld	a2,1888(a2) # 1760 <.LBB34_3+0x2c0>
    1978:	00c58633          	add	a2,a1,a2
    197c:	000015b7          	lui	a1,0x1
    1980:	40b405b3          	sub	a1,s0,a1
    1984:	76c5b023          	sd	a2,1888(a1) # 1760 <.LBB34_3+0x2c0>
    1988:	f8843583          	ld	a1,-120(s0)
    198c:	01d58883          	lb	a7,29(a1)
    1990:	f5143423          	sd	a7,-184(s0)
    1994:	02d505b3          	mul	a1,a0,a3
    1998:	00001637          	lui	a2,0x1
    199c:	40c40633          	sub	a2,s0,a2
    19a0:	76863603          	ld	a2,1896(a2) # 1768 <.LBB34_3+0x2c8>
    19a4:	00c58633          	add	a2,a1,a2
    19a8:	000015b7          	lui	a1,0x1
    19ac:	40b405b3          	sub	a1,s0,a1
    19b0:	76c5b423          	sd	a2,1896(a1) # 1768 <.LBB34_3+0x2c8>
    19b4:	f8843583          	ld	a1,-120(s0)
    19b8:	01e58683          	lb	a3,30(a1)
    19bc:	031505b3          	mul	a1,a0,a7
    19c0:	00001637          	lui	a2,0x1
    19c4:	40c40633          	sub	a2,s0,a2
    19c8:	77063603          	ld	a2,1904(a2) # 1770 <.LBB34_3+0x2d0>
    19cc:	00c58633          	add	a2,a1,a2
    19d0:	000015b7          	lui	a1,0x1
    19d4:	40b405b3          	sub	a1,s0,a1
    19d8:	76c5b823          	sd	a2,1904(a1) # 1770 <.LBB34_3+0x2d0>
    19dc:	f8843583          	ld	a1,-120(s0)
    19e0:	01f58883          	lb	a7,31(a1)
    19e4:	ed143c23          	sd	a7,-296(s0)
    19e8:	f8043603          	ld	a2,-128(s0)
    19ec:	09060a83          	lb	s5,144(a2)
    19f0:	02d50db3          	mul	s11,a0,a3
    19f4:	00068593          	mv	a1,a3
    19f8:	00001637          	lui	a2,0x1
    19fc:	40c40633          	sub	a2,s0,a2
    1a00:	77863603          	ld	a2,1912(a2) # 1778 <.LBB34_3+0x2d8>
    1a04:	00cd8633          	add	a2,s11,a2
    1a08:	000016b7          	lui	a3,0x1
    1a0c:	40d406b3          	sub	a3,s0,a3
    1a10:	76c6bc23          	sd	a2,1912(a3) # 1778 <.LBB34_3+0x2d8>
    1a14:	03150533          	mul	a0,a0,a7
    1a18:	00001637          	lui	a2,0x1
    1a1c:	40c40633          	sub	a2,s0,a2
    1a20:	78063603          	ld	a2,1920(a2) # 1780 <.LBB34_3+0x2e0>
    1a24:	00c50633          	add	a2,a0,a2
    1a28:	00001537          	lui	a0,0x1
    1a2c:	40a40533          	sub	a0,s0,a0
    1a30:	78c53023          	sd	a2,1920(a0) # 1780 <.LBB34_3+0x2e0>
    1a34:	02ea8533          	mul	a0,s5,a4
    1a38:	00001637          	lui	a2,0x1
    1a3c:	40c40633          	sub	a2,s0,a2
    1a40:	7a063603          	ld	a2,1952(a2) # 17a0 <.LBB34_3+0x300>
    1a44:	00c50633          	add	a2,a0,a2
    1a48:	00001537          	lui	a0,0x1
    1a4c:	40a40533          	sub	a0,s0,a0
    1a50:	7ac53023          	sd	a2,1952(a0) # 17a0 <.LBB34_3+0x300>
    1a54:	f7843503          	ld	a0,-136(s0)
    1a58:	02aa8533          	mul	a0,s5,a0
    1a5c:	00001637          	lui	a2,0x1
    1a60:	40c40633          	sub	a2,s0,a2
    1a64:	79863603          	ld	a2,1944(a2) # 1798 <.LBB34_3+0x2f8>
    1a68:	00c50633          	add	a2,a0,a2
    1a6c:	00001537          	lui	a0,0x1
    1a70:	40a40533          	sub	a0,s0,a0
    1a74:	78c53c23          	sd	a2,1944(a0) # 1798 <.LBB34_3+0x2f8>
    1a78:	f7043303          	ld	t1,-144(s0)
    1a7c:	026a8533          	mul	a0,s5,t1
    1a80:	00001637          	lui	a2,0x1
    1a84:	40c40633          	sub	a2,s0,a2
    1a88:	79063603          	ld	a2,1936(a2) # 1790 <.LBB34_3+0x2f0>
    1a8c:	00c50633          	add	a2,a0,a2
    1a90:	00001537          	lui	a0,0x1
    1a94:	40a40533          	sub	a0,s0,a0
    1a98:	78c53823          	sd	a2,1936(a0) # 1790 <.LBB34_3+0x2f0>
    1a9c:	02fa8533          	mul	a0,s5,a5
    1aa0:	00001637          	lui	a2,0x1
    1aa4:	40c40633          	sub	a2,s0,a2
    1aa8:	78863603          	ld	a2,1928(a2) # 1788 <.LBB34_3+0x2e8>
    1aac:	00c50633          	add	a2,a0,a2
    1ab0:	00001537          	lui	a0,0x1
    1ab4:	40a40533          	sub	a0,s0,a0
    1ab8:	78c53423          	sd	a2,1928(a0) # 1788 <.LBB34_3+0x2e8>
    1abc:	eb043423          	sd	a6,-344(s0)
    1ac0:	030a8533          	mul	a0,s5,a6
    1ac4:	00001637          	lui	a2,0x1
    1ac8:	40c40633          	sub	a2,s0,a2
    1acc:	7a863603          	ld	a2,1960(a2) # 17a8 <.LBB34_3+0x308>
    1ad0:	00c50633          	add	a2,a0,a2
    1ad4:	00001537          	lui	a0,0x1
    1ad8:	40a40533          	sub	a0,s0,a0
    1adc:	7ac53423          	sd	a2,1960(a0) # 17a8 <.LBB34_3+0x308>
    1ae0:	f4043683          	ld	a3,-192(s0)
    1ae4:	02da8533          	mul	a0,s5,a3
    1ae8:	00001637          	lui	a2,0x1
    1aec:	40c40633          	sub	a2,s0,a2
    1af0:	7b063603          	ld	a2,1968(a2) # 17b0 <.LBB34_3+0x310>
    1af4:	00c50633          	add	a2,a0,a2
    1af8:	00001537          	lui	a0,0x1
    1afc:	40a40533          	sub	a0,s0,a0
    1b00:	7ac53823          	sd	a2,1968(a0) # 17b0 <.LBB34_3+0x310>
    1b04:	eb843703          	ld	a4,-328(s0)
    1b08:	02ea8533          	mul	a0,s5,a4
    1b0c:	00001637          	lui	a2,0x1
    1b10:	40c40633          	sub	a2,s0,a2
    1b14:	7b863603          	ld	a2,1976(a2) # 17b8 <.LBB34_3+0x318>
    1b18:	00c50633          	add	a2,a0,a2
    1b1c:	00001537          	lui	a0,0x1
    1b20:	40a40533          	sub	a0,s0,a0
    1b24:	7ac53c23          	sd	a2,1976(a0) # 17b8 <.LBB34_3+0x318>
    1b28:	e8143423          	sd	ra,-376(s0)
    1b2c:	021a8533          	mul	a0,s5,ra
    1b30:	00001637          	lui	a2,0x1
    1b34:	40c40633          	sub	a2,s0,a2
    1b38:	7c063603          	ld	a2,1984(a2) # 17c0 <.LBB34_3+0x320>
    1b3c:	00c50633          	add	a2,a0,a2
    1b40:	00001537          	lui	a0,0x1
    1b44:	40a40533          	sub	a0,s0,a0
    1b48:	7cc53023          	sd	a2,1984(a0) # 17c0 <.LBB34_3+0x320>
    1b4c:	e9343023          	sd	s3,-384(s0)
    1b50:	033a8533          	mul	a0,s5,s3
    1b54:	00001637          	lui	a2,0x1
    1b58:	40c40633          	sub	a2,s0,a2
    1b5c:	7c863603          	ld	a2,1992(a2) # 17c8 <.LBB34_3+0x328>
    1b60:	00c50633          	add	a2,a0,a2
    1b64:	00001537          	lui	a0,0x1
    1b68:	40a40533          	sub	a0,s0,a0
    1b6c:	7cc53423          	sd	a2,1992(a0) # 17c8 <.LBB34_3+0x328>
    1b70:	00001537          	lui	a0,0x1
    1b74:	40a40533          	sub	a0,s0,a0
    1b78:	66853c83          	ld	s9,1640(a0) # 1668 <.LBB34_3+0x1c8>
    1b7c:	039a8533          	mul	a0,s5,s9
    1b80:	00001637          	lui	a2,0x1
    1b84:	40c40633          	sub	a2,s0,a2
    1b88:	7d063603          	ld	a2,2000(a2) # 17d0 <.LBB34_3+0x330>
    1b8c:	00c50633          	add	a2,a0,a2
    1b90:	00001537          	lui	a0,0x1
    1b94:	40a40533          	sub	a0,s0,a0
    1b98:	7cc53823          	sd	a2,2000(a0) # 17d0 <.LBB34_3+0x330>
    1b9c:	e9843c03          	ld	s8,-360(s0)
    1ba0:	038a8533          	mul	a0,s5,s8
    1ba4:	00001637          	lui	a2,0x1
    1ba8:	40c40633          	sub	a2,s0,a2
    1bac:	7d863603          	ld	a2,2008(a2) # 17d8 <.LBB34_3+0x338>
    1bb0:	00c50633          	add	a2,a0,a2
    1bb4:	00001537          	lui	a0,0x1
    1bb8:	40a40533          	sub	a0,s0,a0
    1bbc:	7cc53c23          	sd	a2,2008(a0) # 17d8 <.LBB34_3+0x338>
    1bc0:	f1043b83          	ld	s7,-240(s0)
    1bc4:	037a8533          	mul	a0,s5,s7
    1bc8:	00001637          	lui	a2,0x1
    1bcc:	40c40633          	sub	a2,s0,a2
    1bd0:	7e063603          	ld	a2,2016(a2) # 17e0 <.LBB34_3+0x340>
    1bd4:	00c50633          	add	a2,a0,a2
    1bd8:	00001537          	lui	a0,0x1
    1bdc:	40a40533          	sub	a0,s0,a0
    1be0:	7ec53023          	sd	a2,2016(a0) # 17e0 <.LBB34_3+0x340>
    1be4:	f0843b03          	ld	s6,-248(s0)
    1be8:	036a8533          	mul	a0,s5,s6
    1bec:	00001637          	lui	a2,0x1
    1bf0:	40c40633          	sub	a2,s0,a2
    1bf4:	7e863603          	ld	a2,2024(a2) # 17e8 <.LBB34_3+0x348>
    1bf8:	00c50633          	add	a2,a0,a2
    1bfc:	00001537          	lui	a0,0x1
    1c00:	40a40533          	sub	a0,s0,a0
    1c04:	7ec53423          	sd	a2,2024(a0) # 17e8 <.LBB34_3+0x348>
    1c08:	f0043a03          	ld	s4,-256(s0)
    1c0c:	034a8533          	mul	a0,s5,s4
    1c10:	00001637          	lui	a2,0x1
    1c14:	40c40633          	sub	a2,s0,a2
    1c18:	7f063603          	ld	a2,2032(a2) # 17f0 <.LBB34_3+0x350>
    1c1c:	00c50633          	add	a2,a0,a2
    1c20:	00001537          	lui	a0,0x1
    1c24:	40a40533          	sub	a0,s0,a0
    1c28:	7ec53823          	sd	a2,2032(a0) # 17f0 <.LBB34_3+0x350>
    1c2c:	f5043e83          	ld	t4,-176(s0)
    1c30:	03da8533          	mul	a0,s5,t4
    1c34:	00001637          	lui	a2,0x1
    1c38:	40c40633          	sub	a2,s0,a2
    1c3c:	7f863603          	ld	a2,2040(a2) # 17f8 <.LBB34_3+0x358>
    1c40:	00c50633          	add	a2,a0,a2
    1c44:	00001537          	lui	a0,0x1
    1c48:	40a40533          	sub	a0,s0,a0
    1c4c:	7ec53c23          	sd	a2,2040(a0) # 17f8 <.LBB34_3+0x358>
    1c50:	efc43c23          	sd	t3,-264(s0)
    1c54:	03ca8533          	mul	a0,s5,t3
    1c58:	80043603          	ld	a2,-2048(s0)
    1c5c:	00c50633          	add	a2,a0,a2
    1c60:	80c43023          	sd	a2,-2048(s0)
    1c64:	ee743823          	sd	t2,-272(s0)
    1c68:	027a8533          	mul	a0,s5,t2
    1c6c:	80843603          	ld	a2,-2040(s0)
    1c70:	00c50633          	add	a2,a0,a2
    1c74:	80c43423          	sd	a2,-2040(s0)
    1c78:	ec043883          	ld	a7,-320(s0)
    1c7c:	031a8533          	mul	a0,s5,a7
    1c80:	81043603          	ld	a2,-2032(s0)
    1c84:	00c50633          	add	a2,a0,a2
    1c88:	80c43823          	sd	a2,-2032(s0)
    1c8c:	ec843483          	ld	s1,-312(s0)
    1c90:	029a8533          	mul	a0,s5,s1
    1c94:	81843603          	ld	a2,-2024(s0)
    1c98:	00c50633          	add	a2,a0,a2
    1c9c:	80c43c23          	sd	a2,-2024(s0)
    1ca0:	03ea8533          	mul	a0,s5,t5
    1ca4:	82043603          	ld	a2,-2016(s0)
    1ca8:	00c50633          	add	a2,a0,a2
    1cac:	82c43023          	sd	a2,-2016(s0)
    1cb0:	032a8533          	mul	a0,s5,s2
    1cb4:	82843603          	ld	a2,-2008(s0)
    1cb8:	00c50633          	add	a2,a0,a2
    1cbc:	82c43423          	sd	a2,-2008(s0)
    1cc0:	03fa8533          	mul	a0,s5,t6
    1cc4:	83043603          	ld	a2,-2000(s0)
    1cc8:	00c50633          	add	a2,a0,a2
    1ccc:	82c43823          	sd	a2,-2000(s0)
    1cd0:	ed043903          	ld	s2,-304(s0)
    1cd4:	032a8533          	mul	a0,s5,s2
    1cd8:	83843603          	ld	a2,-1992(s0)
    1cdc:	00c50633          	add	a2,a0,a2
    1ce0:	82c43c23          	sd	a2,-1992(s0)
    1ce4:	f6843503          	ld	a0,-152(s0)
    1ce8:	02aa8533          	mul	a0,s5,a0
    1cec:	84043603          	ld	a2,-1984(s0)
    1cf0:	00c50633          	add	a2,a0,a2
    1cf4:	84c43023          	sd	a2,-1984(s0)
    1cf8:	f6043503          	ld	a0,-160(s0)
    1cfc:	02aa8533          	mul	a0,s5,a0
    1d00:	84843603          	ld	a2,-1976(s0)
    1d04:	00c50633          	add	a2,a0,a2
    1d08:	84c43423          	sd	a2,-1976(s0)
    1d0c:	eb043503          	ld	a0,-336(s0)
    1d10:	02aa8533          	mul	a0,s5,a0
    1d14:	85043603          	ld	a2,-1968(s0)
    1d18:	00c50633          	add	a2,a0,a2
    1d1c:	84c43823          	sd	a2,-1968(s0)
    1d20:	03aa8533          	mul	a0,s5,s10
    1d24:	85843603          	ld	a2,-1960(s0)
    1d28:	00c50633          	add	a2,a0,a2
    1d2c:	84c43c23          	sd	a2,-1960(s0)
    1d30:	025a8533          	mul	a0,s5,t0
    1d34:	86043603          	ld	a2,-1952(s0)
    1d38:	00c50633          	add	a2,a0,a2
    1d3c:	86c43023          	sd	a2,-1952(s0)
    1d40:	f5843503          	ld	a0,-168(s0)
    1d44:	02aa8533          	mul	a0,s5,a0
    1d48:	86843603          	ld	a2,-1944(s0)
    1d4c:	00c50633          	add	a2,a0,a2
    1d50:	86c43423          	sd	a2,-1944(s0)
    1d54:	f4843503          	ld	a0,-184(s0)
    1d58:	02aa8533          	mul	a0,s5,a0
    1d5c:	87043603          	ld	a2,-1936(s0)
    1d60:	00c50633          	add	a2,a0,a2
    1d64:	86c43823          	sd	a2,-1936(s0)
    1d68:	f8043503          	ld	a0,-128(s0)
    1d6c:	12050503          	lb	a0,288(a0)
    1d70:	e6b43823          	sd	a1,-400(s0)
    1d74:	02ba8db3          	mul	s11,s5,a1
    1d78:	87843603          	ld	a2,-1928(s0)
    1d7c:	00cd8633          	add	a2,s11,a2
    1d80:	86c43c23          	sd	a2,-1928(s0)
    1d84:	ed843603          	ld	a2,-296(s0)
    1d88:	02ca8ab3          	mul	s5,s5,a2
    1d8c:	88043603          	ld	a2,-1920(s0)
    1d90:	00ca8633          	add	a2,s5,a2
    1d94:	88c43023          	sd	a2,-1920(s0)
    1d98:	ee043603          	ld	a2,-288(s0)
    1d9c:	02c50ab3          	mul	s5,a0,a2
    1da0:	8a043603          	ld	a2,-1888(s0)
    1da4:	00ca8633          	add	a2,s5,a2
    1da8:	8ac43023          	sd	a2,-1888(s0)
    1dac:	f7843603          	ld	a2,-136(s0)
    1db0:	02c50ab3          	mul	s5,a0,a2
    1db4:	89843603          	ld	a2,-1896(s0)
    1db8:	00ca8633          	add	a2,s5,a2
    1dbc:	88c43c23          	sd	a2,-1896(s0)
    1dc0:	02650ab3          	mul	s5,a0,t1
    1dc4:	89043603          	ld	a2,-1904(s0)
    1dc8:	00ca8633          	add	a2,s5,a2
    1dcc:	88c43823          	sd	a2,-1904(s0)
    1dd0:	02f50ab3          	mul	s5,a0,a5
    1dd4:	00078d13          	mv	s10,a5
    1dd8:	e6f43c23          	sd	a5,-392(s0)
    1ddc:	88843603          	ld	a2,-1912(s0)
    1de0:	00ca8633          	add	a2,s5,a2
    1de4:	88c43423          	sd	a2,-1912(s0)
    1de8:	03050ab3          	mul	s5,a0,a6
    1dec:	8a843603          	ld	a2,-1880(s0)
    1df0:	00ca8633          	add	a2,s5,a2
    1df4:	8ac43423          	sd	a2,-1880(s0)
    1df8:	02d50ab3          	mul	s5,a0,a3
    1dfc:	8b043603          	ld	a2,-1872(s0)
    1e00:	00ca8633          	add	a2,s5,a2
    1e04:	8ac43823          	sd	a2,-1872(s0)
    1e08:	02e50ab3          	mul	s5,a0,a4
    1e0c:	8b843603          	ld	a2,-1864(s0)
    1e10:	00ca8633          	add	a2,s5,a2
    1e14:	8ac43c23          	sd	a2,-1864(s0)
    1e18:	02150ab3          	mul	s5,a0,ra
    1e1c:	8c043603          	ld	a2,-1856(s0)
    1e20:	00ca8633          	add	a2,s5,a2
    1e24:	8cc43023          	sd	a2,-1856(s0)
    1e28:	03350ab3          	mul	s5,a0,s3
    1e2c:	8c843603          	ld	a2,-1848(s0)
    1e30:	00ca8633          	add	a2,s5,a2
    1e34:	8cc43423          	sd	a2,-1848(s0)
    1e38:	03950ab3          	mul	s5,a0,s9
    1e3c:	8d043603          	ld	a2,-1840(s0)
    1e40:	00ca8633          	add	a2,s5,a2
    1e44:	8cc43823          	sd	a2,-1840(s0)
    1e48:	03850ab3          	mul	s5,a0,s8
    1e4c:	8d843603          	ld	a2,-1832(s0)
    1e50:	00ca8633          	add	a2,s5,a2
    1e54:	8cc43c23          	sd	a2,-1832(s0)
    1e58:	03750ab3          	mul	s5,a0,s7
    1e5c:	8e043603          	ld	a2,-1824(s0)
    1e60:	00ca8633          	add	a2,s5,a2
    1e64:	8ec43023          	sd	a2,-1824(s0)
    1e68:	03650ab3          	mul	s5,a0,s6
    1e6c:	8e843603          	ld	a2,-1816(s0)
    1e70:	00ca8633          	add	a2,s5,a2
    1e74:	8ec43423          	sd	a2,-1816(s0)
    1e78:	03450ab3          	mul	s5,a0,s4
    1e7c:	8f043603          	ld	a2,-1808(s0)
    1e80:	00ca8633          	add	a2,s5,a2
    1e84:	8ec43823          	sd	a2,-1808(s0)
    1e88:	03d50ab3          	mul	s5,a0,t4
    1e8c:	8f843603          	ld	a2,-1800(s0)
    1e90:	00ca8633          	add	a2,s5,a2
    1e94:	8ec43c23          	sd	a2,-1800(s0)
    1e98:	03c50ab3          	mul	s5,a0,t3
    1e9c:	90043603          	ld	a2,-1792(s0)
    1ea0:	00ca8633          	add	a2,s5,a2
    1ea4:	90c43023          	sd	a2,-1792(s0)
    1ea8:	02750ab3          	mul	s5,a0,t2
    1eac:	90843603          	ld	a2,-1784(s0)
    1eb0:	00ca8633          	add	a2,s5,a2
    1eb4:	90c43423          	sd	a2,-1784(s0)
    1eb8:	03150ab3          	mul	s5,a0,a7
    1ebc:	00088e93          	mv	t4,a7
    1ec0:	91043603          	ld	a2,-1776(s0)
    1ec4:	00ca8633          	add	a2,s5,a2
    1ec8:	90c43823          	sd	a2,-1776(s0)
    1ecc:	02950ab3          	mul	s5,a0,s1
    1ed0:	91843603          	ld	a2,-1768(s0)
    1ed4:	00ca8633          	add	a2,s5,a2
    1ed8:	90c43c23          	sd	a2,-1768(s0)
    1edc:	000f0313          	mv	t1,t5
    1ee0:	03e50ab3          	mul	s5,a0,t5
    1ee4:	92043603          	ld	a2,-1760(s0)
    1ee8:	00ca8633          	add	a2,s5,a2
    1eec:	92c43023          	sd	a2,-1760(s0)
    1ef0:	ee843f03          	ld	t5,-280(s0)
    1ef4:	03e50ab3          	mul	s5,a0,t5
    1ef8:	92843603          	ld	a2,-1752(s0)
    1efc:	00ca8633          	add	a2,s5,a2
    1f00:	92c43423          	sd	a2,-1752(s0)
    1f04:	03f50ab3          	mul	s5,a0,t6
    1f08:	93043603          	ld	a2,-1744(s0)
    1f0c:	00ca8633          	add	a2,s5,a2
    1f10:	92c43823          	sd	a2,-1744(s0)
    1f14:	03250ab3          	mul	s5,a0,s2
    1f18:	93843603          	ld	a2,-1736(s0)
    1f1c:	00ca8633          	add	a2,s5,a2
    1f20:	92c43c23          	sd	a2,-1736(s0)
    1f24:	f6843e03          	ld	t3,-152(s0)
    1f28:	03c50ab3          	mul	s5,a0,t3
    1f2c:	94043603          	ld	a2,-1728(s0)
    1f30:	00ca8633          	add	a2,s5,a2
    1f34:	94c43023          	sd	a2,-1728(s0)
    1f38:	f6043a03          	ld	s4,-160(s0)
    1f3c:	03450ab3          	mul	s5,a0,s4
    1f40:	94843603          	ld	a2,-1720(s0)
    1f44:	00ca8633          	add	a2,s5,a2
    1f48:	94c43423          	sd	a2,-1720(s0)
    1f4c:	eb043283          	ld	t0,-336(s0)
    1f50:	02550ab3          	mul	s5,a0,t0
    1f54:	95043603          	ld	a2,-1712(s0)
    1f58:	00ca8633          	add	a2,s5,a2
    1f5c:	94c43823          	sd	a2,-1712(s0)
    1f60:	ea043803          	ld	a6,-352(s0)
    1f64:	03050ab3          	mul	s5,a0,a6
    1f68:	95843603          	ld	a2,-1704(s0)
    1f6c:	00ca8633          	add	a2,s5,a2
    1f70:	94c43c23          	sd	a2,-1704(s0)
    1f74:	e9043983          	ld	s3,-368(s0)
    1f78:	03350ab3          	mul	s5,a0,s3
    1f7c:	96043603          	ld	a2,-1696(s0)
    1f80:	00ca8633          	add	a2,s5,a2
    1f84:	96c43023          	sd	a2,-1696(s0)
    1f88:	f5843683          	ld	a3,-168(s0)
    1f8c:	02d50ab3          	mul	s5,a0,a3
    1f90:	96843603          	ld	a2,-1688(s0)
    1f94:	00ca8633          	add	a2,s5,a2
    1f98:	96c43423          	sd	a2,-1688(s0)
    1f9c:	f4843783          	ld	a5,-184(s0)
    1fa0:	02f50ab3          	mul	s5,a0,a5
    1fa4:	97043603          	ld	a2,-1680(s0)
    1fa8:	00ca8633          	add	a2,s5,a2
    1fac:	96c43823          	sd	a2,-1680(s0)
    1fb0:	f8043603          	ld	a2,-128(s0)
    1fb4:	1b060a83          	lb	s5,432(a2)
    1fb8:	02b50db3          	mul	s11,a0,a1
    1fbc:	97843603          	ld	a2,-1672(s0)
    1fc0:	00cd8633          	add	a2,s11,a2
    1fc4:	96c43c23          	sd	a2,-1672(s0)
    1fc8:	ed843883          	ld	a7,-296(s0)
    1fcc:	03150533          	mul	a0,a0,a7
    1fd0:	98043603          	ld	a2,-1664(s0)
    1fd4:	00c50633          	add	a2,a0,a2
    1fd8:	98c43023          	sd	a2,-1664(s0)
    1fdc:	ee043383          	ld	t2,-288(s0)
    1fe0:	027a8533          	mul	a0,s5,t2
    1fe4:	9a043603          	ld	a2,-1632(s0)
    1fe8:	00c50633          	add	a2,a0,a2
    1fec:	9ac43023          	sd	a2,-1632(s0)
    1ff0:	f7843583          	ld	a1,-136(s0)
    1ff4:	02ba8533          	mul	a0,s5,a1
    1ff8:	99843603          	ld	a2,-1640(s0)
    1ffc:	00c50633          	add	a2,a0,a2
    2000:	98c43c23          	sd	a2,-1640(s0)
    2004:	f7043503          	ld	a0,-144(s0)
    2008:	02aa8533          	mul	a0,s5,a0
    200c:	99043603          	ld	a2,-1648(s0)
    2010:	00c50633          	add	a2,a0,a2
    2014:	98c43823          	sd	a2,-1648(s0)
    2018:	03aa8533          	mul	a0,s5,s10
    201c:	98843603          	ld	a2,-1656(s0)
    2020:	00c50633          	add	a2,a0,a2
    2024:	98c43423          	sd	a2,-1656(s0)
    2028:	ea843d03          	ld	s10,-344(s0)
    202c:	03aa8533          	mul	a0,s5,s10
    2030:	9a843603          	ld	a2,-1624(s0)
    2034:	00c50633          	add	a2,a0,a2
    2038:	9ac43423          	sd	a2,-1624(s0)
    203c:	f4043083          	ld	ra,-192(s0)
    2040:	021a8533          	mul	a0,s5,ra
    2044:	9b043603          	ld	a2,-1616(s0)
    2048:	00c50633          	add	a2,a0,a2
    204c:	9ac43823          	sd	a2,-1616(s0)
    2050:	02ea8533          	mul	a0,s5,a4
    2054:	9b843603          	ld	a2,-1608(s0)
    2058:	00c50633          	add	a2,a0,a2
    205c:	9ac43c23          	sd	a2,-1608(s0)
    2060:	e8843b03          	ld	s6,-376(s0)
    2064:	036a8533          	mul	a0,s5,s6
    2068:	9c043603          	ld	a2,-1600(s0)
    206c:	00c50633          	add	a2,a0,a2
    2070:	9cc43023          	sd	a2,-1600(s0)
    2074:	e8043b83          	ld	s7,-384(s0)
    2078:	037a8533          	mul	a0,s5,s7
    207c:	9c843603          	ld	a2,-1592(s0)
    2080:	00c50633          	add	a2,a0,a2
    2084:	9cc43423          	sd	a2,-1592(s0)
    2088:	039a8533          	mul	a0,s5,s9
    208c:	9d043603          	ld	a2,-1584(s0)
    2090:	00c50633          	add	a2,a0,a2
    2094:	9cc43823          	sd	a2,-1584(s0)
    2098:	038a8533          	mul	a0,s5,s8
    209c:	9d843603          	ld	a2,-1576(s0)
    20a0:	00c50633          	add	a2,a0,a2
    20a4:	9cc43c23          	sd	a2,-1576(s0)
    20a8:	f1043503          	ld	a0,-240(s0)
    20ac:	02aa8533          	mul	a0,s5,a0
    20b0:	9e043603          	ld	a2,-1568(s0)
    20b4:	00c50633          	add	a2,a0,a2
    20b8:	9ec43023          	sd	a2,-1568(s0)
    20bc:	f0843503          	ld	a0,-248(s0)
    20c0:	02aa8533          	mul	a0,s5,a0
    20c4:	9e843603          	ld	a2,-1560(s0)
    20c8:	00c50633          	add	a2,a0,a2
    20cc:	9ec43423          	sd	a2,-1560(s0)
    20d0:	f0043503          	ld	a0,-256(s0)
    20d4:	02aa8533          	mul	a0,s5,a0
    20d8:	9f043603          	ld	a2,-1552(s0)
    20dc:	00c50633          	add	a2,a0,a2
    20e0:	9ec43823          	sd	a2,-1552(s0)
    20e4:	f5043503          	ld	a0,-176(s0)
    20e8:	02aa8533          	mul	a0,s5,a0
    20ec:	9f843603          	ld	a2,-1544(s0)
    20f0:	00c50633          	add	a2,a0,a2
    20f4:	9ec43c23          	sd	a2,-1544(s0)
    20f8:	ef843503          	ld	a0,-264(s0)
    20fc:	02aa8533          	mul	a0,s5,a0
    2100:	a0043603          	ld	a2,-1536(s0)
    2104:	00c50633          	add	a2,a0,a2
    2108:	a0c43023          	sd	a2,-1536(s0)
    210c:	ef043503          	ld	a0,-272(s0)
    2110:	02aa8533          	mul	a0,s5,a0
    2114:	a0843603          	ld	a2,-1528(s0)
    2118:	00c50633          	add	a2,a0,a2
    211c:	a0c43423          	sd	a2,-1528(s0)
    2120:	03da8533          	mul	a0,s5,t4
    2124:	a1043603          	ld	a2,-1520(s0)
    2128:	00c50633          	add	a2,a0,a2
    212c:	a0c43823          	sd	a2,-1520(s0)
    2130:	029a8533          	mul	a0,s5,s1
    2134:	a1843603          	ld	a2,-1512(s0)
    2138:	00c50633          	add	a2,a0,a2
    213c:	a0c43c23          	sd	a2,-1512(s0)
    2140:	026a8533          	mul	a0,s5,t1
    2144:	a2043603          	ld	a2,-1504(s0)
    2148:	00c50633          	add	a2,a0,a2
    214c:	a2c43023          	sd	a2,-1504(s0)
    2150:	03ea8533          	mul	a0,s5,t5
    2154:	a2843603          	ld	a2,-1496(s0)
    2158:	00c50633          	add	a2,a0,a2
    215c:	a2c43423          	sd	a2,-1496(s0)
    2160:	03fa8533          	mul	a0,s5,t6
    2164:	000f8313          	mv	t1,t6
    2168:	00001637          	lui	a2,0x1
    216c:	40c40633          	sub	a2,s0,a2
    2170:	67f63023          	sd	t6,1632(a2) # 1660 <.LBB34_3+0x1c0>
    2174:	a3043603          	ld	a2,-1488(s0)
    2178:	00c50633          	add	a2,a0,a2
    217c:	a2c43823          	sd	a2,-1488(s0)
    2180:	032a8533          	mul	a0,s5,s2
    2184:	a3843603          	ld	a2,-1480(s0)
    2188:	00c50633          	add	a2,a0,a2
    218c:	a2c43c23          	sd	a2,-1480(s0)
    2190:	000e0493          	mv	s1,t3
    2194:	03ca8533          	mul	a0,s5,t3
    2198:	a4043603          	ld	a2,-1472(s0)
    219c:	00c50633          	add	a2,a0,a2
    21a0:	a4c43023          	sd	a2,-1472(s0)
    21a4:	000a0913          	mv	s2,s4
    21a8:	034a8533          	mul	a0,s5,s4
    21ac:	a4843603          	ld	a2,-1464(s0)
    21b0:	00c50633          	add	a2,a0,a2
    21b4:	a4c43423          	sd	a2,-1464(s0)
    21b8:	025a8533          	mul	a0,s5,t0
    21bc:	00028f93          	mv	t6,t0
    21c0:	a5043603          	ld	a2,-1456(s0)
    21c4:	00c50633          	add	a2,a0,a2
    21c8:	a4c43823          	sd	a2,-1456(s0)
    21cc:	030a8533          	mul	a0,s5,a6
    21d0:	a5843603          	ld	a2,-1448(s0)
    21d4:	00c50633          	add	a2,a0,a2
    21d8:	a4c43c23          	sd	a2,-1448(s0)
    21dc:	033a8533          	mul	a0,s5,s3
    21e0:	a6043603          	ld	a2,-1440(s0)
    21e4:	00c50633          	add	a2,a0,a2
    21e8:	a6c43023          	sd	a2,-1440(s0)
    21ec:	02da8533          	mul	a0,s5,a3
    21f0:	a6843603          	ld	a2,-1432(s0)
    21f4:	00c50633          	add	a2,a0,a2
    21f8:	a6c43423          	sd	a2,-1432(s0)
    21fc:	02fa8533          	mul	a0,s5,a5
    2200:	a7043603          	ld	a2,-1424(s0)
    2204:	00c50633          	add	a2,a0,a2
    2208:	a6c43823          	sd	a2,-1424(s0)
    220c:	f8043503          	ld	a0,-128(s0)
    2210:	24050503          	lb	a0,576(a0)
    2214:	e7043e03          	ld	t3,-400(s0)
    2218:	03ca8db3          	mul	s11,s5,t3
    221c:	a7843603          	ld	a2,-1416(s0)
    2220:	00cd8633          	add	a2,s11,a2
    2224:	a6c43c23          	sd	a2,-1416(s0)
    2228:	031a8ab3          	mul	s5,s5,a7
    222c:	a8043603          	ld	a2,-1408(s0)
    2230:	00ca8633          	add	a2,s5,a2
    2234:	a8c43023          	sd	a2,-1408(s0)
    2238:	02750ab3          	mul	s5,a0,t2
    223c:	00038813          	mv	a6,t2
    2240:	aa043603          	ld	a2,-1376(s0)
    2244:	00ca8633          	add	a2,s5,a2
    2248:	aac43023          	sd	a2,-1376(s0)
    224c:	02b50ab3          	mul	s5,a0,a1
    2250:	a9843603          	ld	a2,-1384(s0)
    2254:	00ca8633          	add	a2,s5,a2
    2258:	a8c43c23          	sd	a2,-1384(s0)
    225c:	f7043783          	ld	a5,-144(s0)
    2260:	02f50ab3          	mul	s5,a0,a5
    2264:	a9043603          	ld	a2,-1392(s0)
    2268:	00ca8633          	add	a2,s5,a2
    226c:	a8c43823          	sd	a2,-1392(s0)
    2270:	e7843583          	ld	a1,-392(s0)
    2274:	02b50ab3          	mul	s5,a0,a1
    2278:	a8843603          	ld	a2,-1400(s0)
    227c:	00ca8633          	add	a2,s5,a2
    2280:	a8c43423          	sd	a2,-1400(s0)
    2284:	03a50ab3          	mul	s5,a0,s10
    2288:	aa843603          	ld	a2,-1368(s0)
    228c:	00ca8633          	add	a2,s5,a2
    2290:	aac43423          	sd	a2,-1368(s0)
    2294:	02150ab3          	mul	s5,a0,ra
    2298:	ab043603          	ld	a2,-1360(s0)
    229c:	00ca8633          	add	a2,s5,a2
    22a0:	aac43823          	sd	a2,-1360(s0)
    22a4:	02e50ab3          	mul	s5,a0,a4
    22a8:	ab843603          	ld	a2,-1352(s0)
    22ac:	00ca8633          	add	a2,s5,a2
    22b0:	aac43c23          	sd	a2,-1352(s0)
    22b4:	000b0093          	mv	ra,s6
    22b8:	03650ab3          	mul	s5,a0,s6
    22bc:	ac043603          	ld	a2,-1344(s0)
    22c0:	00ca8633          	add	a2,s5,a2
    22c4:	acc43023          	sd	a2,-1344(s0)
    22c8:	000b8713          	mv	a4,s7
    22cc:	03750ab3          	mul	s5,a0,s7
    22d0:	ac843603          	ld	a2,-1336(s0)
    22d4:	00ca8633          	add	a2,s5,a2
    22d8:	acc43423          	sd	a2,-1336(s0)
    22dc:	03950ab3          	mul	s5,a0,s9
    22e0:	ad043603          	ld	a2,-1328(s0)
    22e4:	00ca8633          	add	a2,s5,a2
    22e8:	acc43823          	sd	a2,-1328(s0)
    22ec:	03850ab3          	mul	s5,a0,s8
    22f0:	ad843603          	ld	a2,-1320(s0)
    22f4:	00ca8633          	add	a2,s5,a2
    22f8:	acc43c23          	sd	a2,-1320(s0)
    22fc:	f1043b83          	ld	s7,-240(s0)
    2300:	03750ab3          	mul	s5,a0,s7
    2304:	ae043603          	ld	a2,-1312(s0)
    2308:	00ca8633          	add	a2,s5,a2
    230c:	aec43023          	sd	a2,-1312(s0)
    2310:	f0843b03          	ld	s6,-248(s0)
    2314:	03650ab3          	mul	s5,a0,s6
    2318:	ae843603          	ld	a2,-1304(s0)
    231c:	00ca8633          	add	a2,s5,a2
    2320:	aec43423          	sd	a2,-1304(s0)
    2324:	f0043a03          	ld	s4,-256(s0)
    2328:	03450ab3          	mul	s5,a0,s4
    232c:	af043603          	ld	a2,-1296(s0)
    2330:	00ca8633          	add	a2,s5,a2
    2334:	aec43823          	sd	a2,-1296(s0)
    2338:	f5043c03          	ld	s8,-176(s0)
    233c:	03850ab3          	mul	s5,a0,s8
    2340:	af843603          	ld	a2,-1288(s0)
    2344:	00ca8633          	add	a2,s5,a2
    2348:	aec43c23          	sd	a2,-1288(s0)
    234c:	ef843383          	ld	t2,-264(s0)
    2350:	02750ab3          	mul	s5,a0,t2
    2354:	b0043603          	ld	a2,-1280(s0)
    2358:	00ca8633          	add	a2,s5,a2
    235c:	b0c43023          	sd	a2,-1280(s0)
    2360:	ef043603          	ld	a2,-272(s0)
    2364:	02c50ab3          	mul	s5,a0,a2
    2368:	b0843603          	ld	a2,-1272(s0)
    236c:	00ca8633          	add	a2,s5,a2
    2370:	b0c43423          	sd	a2,-1272(s0)
    2374:	03d50ab3          	mul	s5,a0,t4
    2378:	b1043603          	ld	a2,-1264(s0)
    237c:	00ca8633          	add	a2,s5,a2
    2380:	b0c43823          	sd	a2,-1264(s0)
    2384:	ec843283          	ld	t0,-312(s0)
    2388:	02550ab3          	mul	s5,a0,t0
    238c:	b1843603          	ld	a2,-1256(s0)
    2390:	00ca8633          	add	a2,s5,a2
    2394:	b0c43c23          	sd	a2,-1256(s0)
    2398:	e6843f03          	ld	t5,-408(s0)
    239c:	03e50ab3          	mul	s5,a0,t5
    23a0:	b2043603          	ld	a2,-1248(s0)
    23a4:	00ca8633          	add	a2,s5,a2
    23a8:	b2c43023          	sd	a2,-1248(s0)
    23ac:	ee843603          	ld	a2,-280(s0)
    23b0:	02c50ab3          	mul	s5,a0,a2
    23b4:	b2843603          	ld	a2,-1240(s0)
    23b8:	00ca8633          	add	a2,s5,a2
    23bc:	b2c43423          	sd	a2,-1240(s0)
    23c0:	02650ab3          	mul	s5,a0,t1
    23c4:	b3043603          	ld	a2,-1232(s0)
    23c8:	00ca8633          	add	a2,s5,a2
    23cc:	b2c43823          	sd	a2,-1232(s0)
    23d0:	ed043e83          	ld	t4,-304(s0)
    23d4:	03d50ab3          	mul	s5,a0,t4
    23d8:	b3843603          	ld	a2,-1224(s0)
    23dc:	00ca8633          	add	a2,s5,a2
    23e0:	b2c43c23          	sd	a2,-1224(s0)
    23e4:	02950ab3          	mul	s5,a0,s1
    23e8:	b4043603          	ld	a2,-1216(s0)
    23ec:	00ca8633          	add	a2,s5,a2
    23f0:	b4c43023          	sd	a2,-1216(s0)
    23f4:	03250ab3          	mul	s5,a0,s2
    23f8:	b4843603          	ld	a2,-1208(s0)
    23fc:	00ca8633          	add	a2,s5,a2
    2400:	b4c43423          	sd	a2,-1208(s0)
    2404:	000f8693          	mv	a3,t6
    2408:	03f50ab3          	mul	s5,a0,t6
    240c:	b5043603          	ld	a2,-1200(s0)
    2410:	00ca8633          	add	a2,s5,a2
    2414:	b4c43823          	sd	a2,-1200(s0)
    2418:	ea043f83          	ld	t6,-352(s0)
    241c:	03f50ab3          	mul	s5,a0,t6
    2420:	b5843603          	ld	a2,-1192(s0)
    2424:	00ca8633          	add	a2,s5,a2
    2428:	b4c43c23          	sd	a2,-1192(s0)
    242c:	03350ab3          	mul	s5,a0,s3
    2430:	b6043603          	ld	a2,-1184(s0)
    2434:	00ca8633          	add	a2,s5,a2
    2438:	b6c43023          	sd	a2,-1184(s0)
    243c:	f5843983          	ld	s3,-168(s0)
    2440:	03350ab3          	mul	s5,a0,s3
    2444:	b6843603          	ld	a2,-1176(s0)
    2448:	00ca8633          	add	a2,s5,a2
    244c:	b6c43423          	sd	a2,-1176(s0)
    2450:	f4843483          	ld	s1,-184(s0)
    2454:	02950ab3          	mul	s5,a0,s1
    2458:	b7043603          	ld	a2,-1168(s0)
    245c:	00ca8633          	add	a2,s5,a2
    2460:	b6c43823          	sd	a2,-1168(s0)
    2464:	f8043603          	ld	a2,-128(s0)
    2468:	2d060a83          	lb	s5,720(a2)
    246c:	03c50db3          	mul	s11,a0,t3
    2470:	b7843603          	ld	a2,-1160(s0)
    2474:	00cd8633          	add	a2,s11,a2
    2478:	b6c43c23          	sd	a2,-1160(s0)
    247c:	00088d13          	mv	s10,a7
    2480:	03150533          	mul	a0,a0,a7
    2484:	b8043603          	ld	a2,-1152(s0)
    2488:	00c50633          	add	a2,a0,a2
    248c:	b8c43023          	sd	a2,-1152(s0)
    2490:	00080313          	mv	t1,a6
    2494:	030a8533          	mul	a0,s5,a6
    2498:	ba043603          	ld	a2,-1120(s0)
    249c:	00c50633          	add	a2,a0,a2
    24a0:	bac43023          	sd	a2,-1120(s0)
    24a4:	f7843e03          	ld	t3,-136(s0)
    24a8:	03ca8533          	mul	a0,s5,t3
    24ac:	b9843603          	ld	a2,-1128(s0)
    24b0:	00c50633          	add	a2,a0,a2
    24b4:	b8c43c23          	sd	a2,-1128(s0)
    24b8:	02fa8533          	mul	a0,s5,a5
    24bc:	b9043603          	ld	a2,-1136(s0)
    24c0:	00c50633          	add	a2,a0,a2
    24c4:	b8c43823          	sd	a2,-1136(s0)
    24c8:	00058893          	mv	a7,a1
    24cc:	02ba8533          	mul	a0,s5,a1
    24d0:	b8843603          	ld	a2,-1144(s0)
    24d4:	00c50633          	add	a2,a0,a2
    24d8:	b8c43423          	sd	a2,-1144(s0)
    24dc:	ea843583          	ld	a1,-344(s0)
    24e0:	02ba8533          	mul	a0,s5,a1
    24e4:	ba843603          	ld	a2,-1112(s0)
    24e8:	00c50633          	add	a2,a0,a2
    24ec:	bac43423          	sd	a2,-1112(s0)
    24f0:	f4043783          	ld	a5,-192(s0)
    24f4:	02fa8533          	mul	a0,s5,a5
    24f8:	bb043603          	ld	a2,-1104(s0)
    24fc:	00c50633          	add	a2,a0,a2
    2500:	bac43823          	sd	a2,-1104(s0)
    2504:	eb843803          	ld	a6,-328(s0)
    2508:	030a8533          	mul	a0,s5,a6
    250c:	bb843603          	ld	a2,-1096(s0)
    2510:	00c50633          	add	a2,a0,a2
    2514:	bac43c23          	sd	a2,-1096(s0)
    2518:	021a8533          	mul	a0,s5,ra
    251c:	bc043603          	ld	a2,-1088(s0)
    2520:	00c50633          	add	a2,a0,a2
    2524:	bcc43023          	sd	a2,-1088(s0)
    2528:	02ea8533          	mul	a0,s5,a4
    252c:	bc843603          	ld	a2,-1080(s0)
    2530:	00c50633          	add	a2,a0,a2
    2534:	bcc43423          	sd	a2,-1080(s0)
    2538:	039a8533          	mul	a0,s5,s9
    253c:	bd043603          	ld	a2,-1072(s0)
    2540:	00c50633          	add	a2,a0,a2
    2544:	bcc43823          	sd	a2,-1072(s0)
    2548:	e9843703          	ld	a4,-360(s0)
    254c:	02ea8533          	mul	a0,s5,a4
    2550:	bd843603          	ld	a2,-1064(s0)
    2554:	00c50633          	add	a2,a0,a2
    2558:	bcc43c23          	sd	a2,-1064(s0)
    255c:	037a8533          	mul	a0,s5,s7
    2560:	be043603          	ld	a2,-1056(s0)
    2564:	00c50633          	add	a2,a0,a2
    2568:	bec43023          	sd	a2,-1056(s0)
    256c:	036a8533          	mul	a0,s5,s6
    2570:	be843603          	ld	a2,-1048(s0)
    2574:	00c50633          	add	a2,a0,a2
    2578:	bec43423          	sd	a2,-1048(s0)
    257c:	034a8533          	mul	a0,s5,s4
    2580:	bf043603          	ld	a2,-1040(s0)
    2584:	00c50633          	add	a2,a0,a2
    2588:	bec43823          	sd	a2,-1040(s0)
    258c:	038a8533          	mul	a0,s5,s8
    2590:	bf843603          	ld	a2,-1032(s0)
    2594:	00c50633          	add	a2,a0,a2
    2598:	bec43c23          	sd	a2,-1032(s0)
    259c:	027a8533          	mul	a0,s5,t2
    25a0:	00038c13          	mv	s8,t2
    25a4:	c0043603          	ld	a2,-1024(s0)
    25a8:	00c50633          	add	a2,a0,a2
    25ac:	c0c43023          	sd	a2,-1024(s0)
    25b0:	ef043383          	ld	t2,-272(s0)
    25b4:	027a8533          	mul	a0,s5,t2
    25b8:	c0843603          	ld	a2,-1016(s0)
    25bc:	00c50633          	add	a2,a0,a2
    25c0:	c0c43423          	sd	a2,-1016(s0)
    25c4:	ec043503          	ld	a0,-320(s0)
    25c8:	02aa8533          	mul	a0,s5,a0
    25cc:	c1043603          	ld	a2,-1008(s0)
    25d0:	00c50633          	add	a2,a0,a2
    25d4:	c0c43823          	sd	a2,-1008(s0)
    25d8:	025a8533          	mul	a0,s5,t0
    25dc:	c1843603          	ld	a2,-1000(s0)
    25e0:	00c50633          	add	a2,a0,a2
    25e4:	c0c43c23          	sd	a2,-1000(s0)
    25e8:	000f0913          	mv	s2,t5
    25ec:	03ea8533          	mul	a0,s5,t5
    25f0:	c2043603          	ld	a2,-992(s0)
    25f4:	00c50633          	add	a2,a0,a2
    25f8:	c2c43023          	sd	a2,-992(s0)
    25fc:	ee843283          	ld	t0,-280(s0)
    2600:	025a8533          	mul	a0,s5,t0
    2604:	c2843603          	ld	a2,-984(s0)
    2608:	00c50633          	add	a2,a0,a2
    260c:	c2c43423          	sd	a2,-984(s0)
    2610:	00001537          	lui	a0,0x1
    2614:	40a40533          	sub	a0,s0,a0
    2618:	66053f03          	ld	t5,1632(a0) # 1660 <.LBB34_3+0x1c0>
    261c:	03ea8533          	mul	a0,s5,t5
    2620:	c3043603          	ld	a2,-976(s0)
    2624:	00c50633          	add	a2,a0,a2
    2628:	c2c43823          	sd	a2,-976(s0)
    262c:	03da8533          	mul	a0,s5,t4
    2630:	c3843603          	ld	a2,-968(s0)
    2634:	00c50633          	add	a2,a0,a2
    2638:	c2c43c23          	sd	a2,-968(s0)
    263c:	f6843503          	ld	a0,-152(s0)
    2640:	02aa8533          	mul	a0,s5,a0
    2644:	c4043603          	ld	a2,-960(s0)
    2648:	00c50633          	add	a2,a0,a2
    264c:	c4c43023          	sd	a2,-960(s0)
    2650:	f6043503          	ld	a0,-160(s0)
    2654:	02aa8533          	mul	a0,s5,a0
    2658:	c4843603          	ld	a2,-952(s0)
    265c:	00c50633          	add	a2,a0,a2
    2660:	c4c43423          	sd	a2,-952(s0)
    2664:	02da8533          	mul	a0,s5,a3
    2668:	c5043603          	ld	a2,-944(s0)
    266c:	00c50633          	add	a2,a0,a2
    2670:	c4c43823          	sd	a2,-944(s0)
    2674:	03fa8533          	mul	a0,s5,t6
    2678:	c5843603          	ld	a2,-936(s0)
    267c:	00c50633          	add	a2,a0,a2
    2680:	c4c43c23          	sd	a2,-936(s0)
    2684:	e9043f83          	ld	t6,-368(s0)
    2688:	03fa8533          	mul	a0,s5,t6
    268c:	c6043603          	ld	a2,-928(s0)
    2690:	00c50633          	add	a2,a0,a2
    2694:	c6c43023          	sd	a2,-928(s0)
    2698:	033a8533          	mul	a0,s5,s3
    269c:	c6843603          	ld	a2,-920(s0)
    26a0:	00c50633          	add	a2,a0,a2
    26a4:	c6c43423          	sd	a2,-920(s0)
    26a8:	029a8533          	mul	a0,s5,s1
    26ac:	c7043603          	ld	a2,-912(s0)
    26b0:	00c50633          	add	a2,a0,a2
    26b4:	c6c43823          	sd	a2,-912(s0)
    26b8:	f8043503          	ld	a0,-128(s0)
    26bc:	36050503          	lb	a0,864(a0)
    26c0:	e7043683          	ld	a3,-400(s0)
    26c4:	02da8db3          	mul	s11,s5,a3
    26c8:	c7843603          	ld	a2,-904(s0)
    26cc:	00cd8633          	add	a2,s11,a2
    26d0:	c6c43c23          	sd	a2,-904(s0)
    26d4:	03aa8ab3          	mul	s5,s5,s10
    26d8:	c8043603          	ld	a2,-896(s0)
    26dc:	00ca8633          	add	a2,s5,a2
    26e0:	c8c43023          	sd	a2,-896(s0)
    26e4:	02650ab3          	mul	s5,a0,t1
    26e8:	ca043603          	ld	a2,-864(s0)
    26ec:	00ca8633          	add	a2,s5,a2
    26f0:	cac43023          	sd	a2,-864(s0)
    26f4:	03c50ab3          	mul	s5,a0,t3
    26f8:	c9843603          	ld	a2,-872(s0)
    26fc:	00ca8633          	add	a2,s5,a2
    2700:	c8c43c23          	sd	a2,-872(s0)
    2704:	f7043603          	ld	a2,-144(s0)
    2708:	02c50ab3          	mul	s5,a0,a2
    270c:	c9043603          	ld	a2,-880(s0)
    2710:	00ca8633          	add	a2,s5,a2
    2714:	c8c43823          	sd	a2,-880(s0)
    2718:	03150ab3          	mul	s5,a0,a7
    271c:	c8843603          	ld	a2,-888(s0)
    2720:	00ca8633          	add	a2,s5,a2
    2724:	c8c43423          	sd	a2,-888(s0)
    2728:	02b50ab3          	mul	s5,a0,a1
    272c:	ca843603          	ld	a2,-856(s0)
    2730:	00ca8633          	add	a2,s5,a2
    2734:	cac43423          	sd	a2,-856(s0)
    2738:	02f50ab3          	mul	s5,a0,a5
    273c:	cb043603          	ld	a2,-848(s0)
    2740:	00ca8633          	add	a2,s5,a2
    2744:	cac43823          	sd	a2,-848(s0)
    2748:	03050ab3          	mul	s5,a0,a6
    274c:	cb843603          	ld	a2,-840(s0)
    2750:	00ca8633          	add	a2,s5,a2
    2754:	cac43c23          	sd	a2,-840(s0)
    2758:	02150ab3          	mul	s5,a0,ra
    275c:	cc043603          	ld	a2,-832(s0)
    2760:	00ca8633          	add	a2,s5,a2
    2764:	ccc43023          	sd	a2,-832(s0)
    2768:	e8043083          	ld	ra,-384(s0)
    276c:	02150ab3          	mul	s5,a0,ra
    2770:	cc843603          	ld	a2,-824(s0)
    2774:	00ca8633          	add	a2,s5,a2
    2778:	ccc43423          	sd	a2,-824(s0)
    277c:	03950ab3          	mul	s5,a0,s9
    2780:	cd043603          	ld	a2,-816(s0)
    2784:	00ca8633          	add	a2,s5,a2
    2788:	ccc43823          	sd	a2,-816(s0)
    278c:	00070d13          	mv	s10,a4
    2790:	02e50ab3          	mul	s5,a0,a4
    2794:	cd843603          	ld	a2,-808(s0)
    2798:	00ca8633          	add	a2,s5,a2
    279c:	ccc43c23          	sd	a2,-808(s0)
    27a0:	03750ab3          	mul	s5,a0,s7
    27a4:	ce043603          	ld	a2,-800(s0)
    27a8:	00ca8633          	add	a2,s5,a2
    27ac:	cec43023          	sd	a2,-800(s0)
    27b0:	03650ab3          	mul	s5,a0,s6
    27b4:	ce843603          	ld	a2,-792(s0)
    27b8:	00ca8633          	add	a2,s5,a2
    27bc:	cec43423          	sd	a2,-792(s0)
    27c0:	03450ab3          	mul	s5,a0,s4
    27c4:	cf043603          	ld	a2,-784(s0)
    27c8:	00ca8633          	add	a2,s5,a2
    27cc:	cec43823          	sd	a2,-784(s0)
    27d0:	f5043983          	ld	s3,-176(s0)
    27d4:	03350ab3          	mul	s5,a0,s3
    27d8:	cf843603          	ld	a2,-776(s0)
    27dc:	00ca8633          	add	a2,s5,a2
    27e0:	cec43c23          	sd	a2,-776(s0)
    27e4:	03850ab3          	mul	s5,a0,s8
    27e8:	d0043603          	ld	a2,-768(s0)
    27ec:	00ca8633          	add	a2,s5,a2
    27f0:	d0c43023          	sd	a2,-768(s0)
    27f4:	02750ab3          	mul	s5,a0,t2
    27f8:	00038c13          	mv	s8,t2
    27fc:	d0843603          	ld	a2,-760(s0)
    2800:	00ca8633          	add	a2,s5,a2
    2804:	d0c43423          	sd	a2,-760(s0)
    2808:	ec043483          	ld	s1,-320(s0)
    280c:	02950ab3          	mul	s5,a0,s1
    2810:	d1043603          	ld	a2,-752(s0)
    2814:	00ca8633          	add	a2,s5,a2
    2818:	d0c43823          	sd	a2,-752(s0)
    281c:	ec843e83          	ld	t4,-312(s0)
    2820:	03d50ab3          	mul	s5,a0,t4
    2824:	d1843603          	ld	a2,-744(s0)
    2828:	00ca8633          	add	a2,s5,a2
    282c:	d0c43c23          	sd	a2,-744(s0)
    2830:	00090e13          	mv	t3,s2
    2834:	03250ab3          	mul	s5,a0,s2
    2838:	d2043603          	ld	a2,-736(s0)
    283c:	00ca8633          	add	a2,s5,a2
    2840:	d2c43023          	sd	a2,-736(s0)
    2844:	00028393          	mv	t2,t0
    2848:	02550ab3          	mul	s5,a0,t0
    284c:	d2843603          	ld	a2,-728(s0)
    2850:	00ca8633          	add	a2,s5,a2
    2854:	d2c43423          	sd	a2,-728(s0)
    2858:	03e50ab3          	mul	s5,a0,t5
    285c:	d3043603          	ld	a2,-720(s0)
    2860:	00ca8633          	add	a2,s5,a2
    2864:	d2c43823          	sd	a2,-720(s0)
    2868:	ed043303          	ld	t1,-304(s0)
    286c:	02650ab3          	mul	s5,a0,t1
    2870:	d3843603          	ld	a2,-712(s0)
    2874:	00ca8633          	add	a2,s5,a2
    2878:	d2c43c23          	sd	a2,-712(s0)
    287c:	f6843903          	ld	s2,-152(s0)
    2880:	03250ab3          	mul	s5,a0,s2
    2884:	d4043603          	ld	a2,-704(s0)
    2888:	00ca8633          	add	a2,s5,a2
    288c:	d4c43023          	sd	a2,-704(s0)
    2890:	f6043283          	ld	t0,-160(s0)
    2894:	02550ab3          	mul	s5,a0,t0
    2898:	d4843603          	ld	a2,-696(s0)
    289c:	00ca8633          	add	a2,s5,a2
    28a0:	d4c43423          	sd	a2,-696(s0)
    28a4:	eb043883          	ld	a7,-336(s0)
    28a8:	03150ab3          	mul	s5,a0,a7
    28ac:	d5043603          	ld	a2,-688(s0)
    28b0:	00ca8633          	add	a2,s5,a2
    28b4:	d4c43823          	sd	a2,-688(s0)
    28b8:	ea043803          	ld	a6,-352(s0)
    28bc:	03050ab3          	mul	s5,a0,a6
    28c0:	d5843603          	ld	a2,-680(s0)
    28c4:	00ca8633          	add	a2,s5,a2
    28c8:	d4c43c23          	sd	a2,-680(s0)
    28cc:	000f8793          	mv	a5,t6
    28d0:	03f50ab3          	mul	s5,a0,t6
    28d4:	d6043603          	ld	a2,-672(s0)
    28d8:	00ca8633          	add	a2,s5,a2
    28dc:	d6c43023          	sd	a2,-672(s0)
    28e0:	f5843703          	ld	a4,-168(s0)
    28e4:	02e50ab3          	mul	s5,a0,a4
    28e8:	d6843603          	ld	a2,-664(s0)
    28ec:	00ca8633          	add	a2,s5,a2
    28f0:	d6c43423          	sd	a2,-664(s0)
    28f4:	f4843f83          	ld	t6,-184(s0)
    28f8:	03f50ab3          	mul	s5,a0,t6
    28fc:	d7043603          	ld	a2,-656(s0)
    2900:	00ca8633          	add	a2,s5,a2
    2904:	d6c43823          	sd	a2,-656(s0)
    2908:	f8043603          	ld	a2,-128(s0)
    290c:	3f060a83          	lb	s5,1008(a2)
    2910:	00068593          	mv	a1,a3
    2914:	02d50db3          	mul	s11,a0,a3
    2918:	d7843603          	ld	a2,-648(s0)
    291c:	00cd8633          	add	a2,s11,a2
    2920:	d6c43c23          	sd	a2,-648(s0)
    2924:	ed843683          	ld	a3,-296(s0)
    2928:	02d50533          	mul	a0,a0,a3
    292c:	d8043603          	ld	a2,-640(s0)
    2930:	00c50633          	add	a2,a0,a2
    2934:	d8c43023          	sd	a2,-640(s0)
    2938:	02da8533          	mul	a0,s5,a3
    293c:	eca43c23          	sd	a0,-296(s0)
    2940:	02ba8533          	mul	a0,s5,a1
    2944:	e6a43823          	sd	a0,-400(s0)
    2948:	03fa8533          	mul	a0,s5,t6
    294c:	f4a43423          	sd	a0,-184(s0)
    2950:	02ea8533          	mul	a0,s5,a4
    2954:	000015b7          	lui	a1,0x1
    2958:	40b405b3          	sub	a1,s0,a1
    295c:	64a5bc23          	sd	a0,1624(a1) # 1658 <.LBB34_3+0x1b8>
    2960:	02fa8533          	mul	a0,s5,a5
    2964:	e8a43823          	sd	a0,-368(s0)
    2968:	030a8533          	mul	a0,s5,a6
    296c:	eaa43023          	sd	a0,-352(s0)
    2970:	031a8533          	mul	a0,s5,a7
    2974:	f4a43c23          	sd	a0,-168(s0)
    2978:	025a8533          	mul	a0,s5,t0
    297c:	f6a43023          	sd	a0,-160(s0)
    2980:	032a8533          	mul	a0,s5,s2
    2984:	f6a43423          	sd	a0,-152(s0)
    2988:	026a8933          	mul	s2,s5,t1
    298c:	03ea8fb3          	mul	t6,s5,t5
    2990:	027a8f33          	mul	t5,s5,t2
    2994:	03ca82b3          	mul	t0,s5,t3
    2998:	03da8833          	mul	a6,s5,t4
    299c:	029a88b3          	mul	a7,s5,s1
    29a0:	038a83b3          	mul	t2,s5,s8
    29a4:	ef843503          	ld	a0,-264(s0)
    29a8:	02aa8e33          	mul	t3,s5,a0
    29ac:	033a8eb3          	mul	t4,s5,s3
    29b0:	034a8a33          	mul	s4,s5,s4
    29b4:	036a8b33          	mul	s6,s5,s6
    29b8:	037a8bb3          	mul	s7,s5,s7
    29bc:	03aa8c33          	mul	s8,s5,s10
    29c0:	039a8cb3          	mul	s9,s5,s9
    29c4:	021a8d33          	mul	s10,s5,ra
    29c8:	e8843503          	ld	a0,-376(s0)
    29cc:	02aa8db3          	mul	s11,s5,a0
    29d0:	eb843503          	ld	a0,-328(s0)
    29d4:	02aa8733          	mul	a4,s5,a0
    29d8:	f4043503          	ld	a0,-192(s0)
    29dc:	02aa80b3          	mul	ra,s5,a0
    29e0:	ea843503          	ld	a0,-344(s0)
    29e4:	02aa86b3          	mul	a3,s5,a0
    29e8:	e7843503          	ld	a0,-392(s0)
    29ec:	02aa8633          	mul	a2,s5,a0
    29f0:	f7043503          	ld	a0,-144(s0)
    29f4:	02aa85b3          	mul	a1,s5,a0
    29f8:	f7843503          	ld	a0,-136(s0)
    29fc:	02aa8533          	mul	a0,s5,a0
    2a00:	ee043783          	ld	a5,-288(s0)
    2a04:	02fa8ab3          	mul	s5,s5,a5
    2a08:	da043783          	ld	a5,-608(s0)
    2a0c:	00fa87b3          	add	a5,s5,a5
    2a10:	daf43023          	sd	a5,-608(s0)
    2a14:	e1843a83          	ld	s5,-488(s0)
    2a18:	d9843783          	ld	a5,-616(s0)
    2a1c:	00f507b3          	add	a5,a0,a5
    2a20:	d8f43c23          	sd	a5,-616(s0)
    2a24:	d9043503          	ld	a0,-624(s0)
    2a28:	00a58533          	add	a0,a1,a0
    2a2c:	d8a43823          	sd	a0,-624(s0)
    2a30:	d8843503          	ld	a0,-632(s0)
    2a34:	00a60533          	add	a0,a2,a0
    2a38:	d8a43423          	sd	a0,-632(s0)
    2a3c:	da843503          	ld	a0,-600(s0)
    2a40:	00a68533          	add	a0,a3,a0
    2a44:	daa43423          	sd	a0,-600(s0)
    2a48:	db043503          	ld	a0,-592(s0)
    2a4c:	00a08533          	add	a0,ra,a0
    2a50:	daa43823          	sd	a0,-592(s0)
    2a54:	de043083          	ld	ra,-544(s0)
    2a58:	db843503          	ld	a0,-584(s0)
    2a5c:	00a70533          	add	a0,a4,a0
    2a60:	daa43c23          	sd	a0,-584(s0)
    2a64:	dc043503          	ld	a0,-576(s0)
    2a68:	00ad8533          	add	a0,s11,a0
    2a6c:	dca43023          	sd	a0,-576(s0)
    2a70:	de843d83          	ld	s11,-536(s0)
    2a74:	dc843503          	ld	a0,-568(s0)
    2a78:	00ad0533          	add	a0,s10,a0
    2a7c:	dca43423          	sd	a0,-568(s0)
    2a80:	df043d03          	ld	s10,-528(s0)
    2a84:	dd043503          	ld	a0,-560(s0)
    2a88:	00ac8533          	add	a0,s9,a0
    2a8c:	dca43823          	sd	a0,-560(s0)
    2a90:	df843c83          	ld	s9,-520(s0)
    2a94:	dd843503          	ld	a0,-552(s0)
    2a98:	00ac0533          	add	a0,s8,a0
    2a9c:	dca43c23          	sd	a0,-552(s0)
    2aa0:	e0043c03          	ld	s8,-512(s0)
    2aa4:	e5843703          	ld	a4,-424(s0)
    2aa8:	001b80b3          	add	ra,s7,ra
    2aac:	e0843b83          	ld	s7,-504(s0)
    2ab0:	01bb0db3          	add	s11,s6,s11
    2ab4:	e1043b03          	ld	s6,-496(s0)
    2ab8:	01aa0d33          	add	s10,s4,s10
    2abc:	e2043a03          	ld	s4,-480(s0)
    2ac0:	019e8cb3          	add	s9,t4,s9
    2ac4:	018e0c33          	add	s8,t3,s8
    2ac8:	e2843e03          	ld	t3,-472(s0)
    2acc:	01738bb3          	add	s7,t2,s7
    2ad0:	e3043383          	ld	t2,-464(s0)
    2ad4:	01688b33          	add	s6,a7,s6
    2ad8:	e4843883          	ld	a7,-440(s0)
    2adc:	01580ab3          	add	s5,a6,s5
    2ae0:	e4043583          	ld	a1,-448(s0)
    2ae4:	01428a33          	add	s4,t0,s4
    2ae8:	e3843303          	ld	t1,-456(s0)
    2aec:	f1843503          	ld	a0,-232(s0)
    2af0:	00af0533          	add	a0,t5,a0
    2af4:	00001637          	lui	a2,0x1
    2af8:	40c40633          	sub	a2,s0,a2
    2afc:	67063f03          	ld	t5,1648(a2) # 1670 <.LBB34_3+0x1d0>
    2b00:	f0a43c23          	sd	a0,-232(s0)
    2b04:	f1843e83          	ld	t4,-232(s0)
    2b08:	f2043503          	ld	a0,-224(s0)
    2b0c:	00af8533          	add	a0,t6,a0
    2b10:	f8843f83          	ld	t6,-120(s0)
    2b14:	f2a43023          	sd	a0,-224(s0)
    2b18:	f2043683          	ld	a3,-224(s0)
    2b1c:	f2843503          	ld	a0,-216(s0)
    2b20:	00a90533          	add	a0,s2,a0
    2b24:	f2a43423          	sd	a0,-216(s0)
    2b28:	f2843603          	ld	a2,-216(s0)
    2b2c:	f3043503          	ld	a0,-208(s0)
    2b30:	f6843783          	ld	a5,-152(s0)
    2b34:	00a78533          	add	a0,a5,a0
    2b38:	f2a43823          	sd	a0,-208(s0)
    2b3c:	f3043283          	ld	t0,-208(s0)
    2b40:	f3843503          	ld	a0,-200(s0)
    2b44:	f6043783          	ld	a5,-160(s0)
    2b48:	00a78533          	add	a0,a5,a0
    2b4c:	000017b7          	lui	a5,0x1
    2b50:	40f407b3          	sub	a5,s0,a5
    2b54:	6787b483          	ld	s1,1656(a5) # 1678 <.LBB34_3+0x1d8>
    2b58:	f2a43c23          	sd	a0,-200(s0)
    2b5c:	f3843503          	ld	a0,-200(s0)
    2b60:	f5843783          	ld	a5,-168(s0)
    2b64:	01c78e33          	add	t3,a5,t3
    2b68:	e5043803          	ld	a6,-432(s0)
    2b6c:	ea043783          	ld	a5,-352(s0)
    2b70:	007783b3          	add	t2,a5,t2
    2b74:	f8043783          	ld	a5,-128(s0)
    2b78:	e9043903          	ld	s2,-368(s0)
    2b7c:	00690333          	add	t1,s2,t1
    2b80:	00001937          	lui	s2,0x1
    2b84:	41240933          	sub	s2,s0,s2
    2b88:	65893903          	ld	s2,1624(s2) # 1658 <.LBB34_3+0x1b8>
    2b8c:	00b905b3          	add	a1,s2,a1
    2b90:	f4843903          	ld	s2,-184(s0)
    2b94:	011908b3          	add	a7,s2,a7
    2b98:	e7043903          	ld	s2,-400(s0)
    2b9c:	01090833          	add	a6,s2,a6
    2ba0:	ed843903          	ld	s2,-296(s0)
    2ba4:	00e90733          	add	a4,s2,a4
    2ba8:	fe0f0f13          	addi	t5,t5,-32
    2bac:	020f8f93          	addi	t6,t6,32
    2bb0:	00178793          	addi	a5,a5,1
    2bb4:	000f0463          	beqz	t5,2bbc <.LBB34_4>
    2bb8:	8e9fe06f          	j	14a0 <.LBB34_3>

0000000000002bbc <.LBB34_4>:
    2bbc:	00001537          	lui	a0,0x1
    2bc0:	40a40533          	sub	a0,s0,a0
    2bc4:	6a053903          	ld	s2,1696(a0) # 16a0 <.LBB34_3+0x200>
    2bc8:	00001537          	lui	a0,0x1
    2bcc:	40a40533          	sub	a0,s0,a0
    2bd0:	6a853483          	ld	s1,1704(a0) # 16a8 <.LBB34_3+0x208>
    2bd4:	00001537          	lui	a0,0x1
    2bd8:	40a40533          	sub	a0,s0,a0
    2bdc:	69853f83          	ld	t6,1688(a0) # 1698 <.LBB34_3+0x1f8>
    2be0:	00001537          	lui	a0,0x1
    2be4:	40a40533          	sub	a0,s0,a0
    2be8:	69053f03          	ld	t5,1680(a0) # 1690 <.LBB34_3+0x1f0>
    2bec:	00001537          	lui	a0,0x1
    2bf0:	40a40533          	sub	a0,s0,a0
    2bf4:	58053683          	ld	a3,1408(a0) # 1580 <.LBB34_3+0xe0>
    2bf8:	00269693          	slli	a3,a3,0x2
    2bfc:	00001537          	lui	a0,0x1
    2c00:	40a40533          	sub	a0,s0,a0
    2c04:	ae053503          	ld	a0,-1312(a0) # ae0 <.LBB34_1+0x7d8>
    2c08:	00d506b3          	add	a3,a0,a3
    2c0c:	0006a283          	lw	t0,0(a3)
    2c10:	00001537          	lui	a0,0x1
    2c14:	40a40533          	sub	a0,s0,a0
    2c18:	ad853783          	ld	a5,-1320(a0) # ad8 <.LBB34_1+0x7d0>
    2c1c:	00c7a503          	lw	a0,12(a5)
    2c20:	00429613          	slli	a2,t0,0x4
    2c24:	005609b3          	add	s3,a2,t0
    2c28:	00751613          	slli	a2,a0,0x7
    2c2c:	00001537          	lui	a0,0x1
    2c30:	40a40533          	sub	a0,s0,a0
    2c34:	5a053503          	ld	a0,1440(a0) # 15a0 <.LBB34_3+0x100>
    2c38:	000012b7          	lui	t0,0x1
    2c3c:	405402b3          	sub	t0,s0,t0
    2c40:	6b02be83          	ld	t4,1712(t0) # 16b0 <.LBB34_3+0x210>
    2c44:	00ae8533          	add	a0,t4,a0
    2c48:	f8c43423          	sd	a2,-120(s0)
    2c4c:	00c50533          	add	a0,a0,a2
    2c50:	00098293          	mv	t0,s3
    2c54:	01350533          	add	a0,a0,s3
    2c58:	e6043603          	ld	a2,-416(s0)
    2c5c:	00c50ebb          	addw	t4,a0,a2
    2c60:	40000537          	lui	a0,0x40000
    2c64:	000019b7          	lui	s3,0x1
    2c68:	413409b3          	sub	s3,s0,s3
    2c6c:	6aa9b823          	sd	a0,1712(s3) # 16b0 <.LBB34_3+0x210>
    2c70:	000019b7          	lui	s3,0x1
    2c74:	413409b3          	sub	s3,s0,s3
    2c78:	67d9b823          	sd	t4,1648(s3) # 1670 <.LBB34_3+0x1d0>
    2c7c:	000ed463          	bgez	t4,2c84 <.LBB34_6>
    2c80:	c0000537          	lui	a0,0xc0000

0000000000002c84 <.LBB34_6>:
    2c84:	00001eb7          	lui	t4,0x1
    2c88:	41d40eb3          	sub	t4,s0,t4
    2c8c:	66aeb423          	sd	a0,1640(t4) # 1668 <.LBB34_3+0x1c8>
    2c90:	0087a503          	lw	a0,8(a5)
    2c94:	00751e93          	slli	t4,a0,0x7
    2c98:	00001537          	lui	a0,0x1
    2c9c:	40a40533          	sub	a0,s0,a0
    2ca0:	59853503          	ld	a0,1432(a0) # 1598 <.LBB34_3+0xf8>
    2ca4:	00a90533          	add	a0,s2,a0
    2ca8:	f9d43023          	sd	t4,-128(s0)
    2cac:	01d50533          	add	a0,a0,t4
    2cb0:	00550533          	add	a0,a0,t0
    2cb4:	00c5053b          	addw	a0,a0,a2
    2cb8:	40000eb7          	lui	t4,0x40000
    2cbc:	00001937          	lui	s2,0x1
    2cc0:	41240933          	sub	s2,s0,s2
    2cc4:	6aa93023          	sd	a0,1696(s2) # 16a0 <.LBB34_3+0x200>
    2cc8:	000f0993          	mv	s3,t5
    2ccc:	000f8913          	mv	s2,t6
    2cd0:	00055463          	bgez	a0,2cd8 <.LBB34_8>
    2cd4:	c0000eb7          	lui	t4,0xc0000

0000000000002cd8 <.LBB34_8>:
    2cd8:	00001537          	lui	a0,0x1
    2cdc:	40a40533          	sub	a0,s0,a0
    2ce0:	67d53023          	sd	t4,1632(a0) # 1660 <.LBB34_3+0x1c0>
    2ce4:	0047a503          	lw	a0,4(a5)
    2ce8:	00751f13          	slli	t5,a0,0x7
    2cec:	00001537          	lui	a0,0x1
    2cf0:	40a40533          	sub	a0,s0,a0
    2cf4:	59053503          	ld	a0,1424(a0) # 1590 <.LBB34_3+0xf0>
    2cf8:	00a48533          	add	a0,s1,a0
    2cfc:	f7e43c23          	sd	t5,-136(s0)
    2d00:	01e50533          	add	a0,a0,t5
    2d04:	00550533          	add	a0,a0,t0
    2d08:	00c5053b          	addw	a0,a0,a2
    2d0c:	40000fb7          	lui	t6,0x40000
    2d10:	00001eb7          	lui	t4,0x1
    2d14:	41d40eb3          	sub	t4,s0,t4
    2d18:	6aaeb423          	sd	a0,1704(t4) # 16a8 <.LBB34_3+0x208>
    2d1c:	00001eb7          	lui	t4,0x1
    2d20:	41d40eb3          	sub	t4,s0,t4
    2d24:	6b8ebe83          	ld	t4,1720(t4) # 16b8 <.LBB34_3+0x218>
    2d28:	00055463          	bgez	a0,2d30 <.LBB34_10>
    2d2c:	c0000fb7          	lui	t6,0xc0000

0000000000002d30 <.LBB34_10>:
    2d30:	0007a503          	lw	a0,0(a5)
    2d34:	00751f13          	slli	t5,a0,0x7
    2d38:	00001537          	lui	a0,0x1
    2d3c:	40a40533          	sub	a0,s0,a0
    2d40:	58853503          	ld	a0,1416(a0) # 1588 <.LBB34_3+0xe8>
    2d44:	000014b7          	lui	s1,0x1
    2d48:	409404b3          	sub	s1,s0,s1
    2d4c:	6c04b483          	ld	s1,1728(s1) # 16c0 <.LBB34_3+0x220>
    2d50:	00a48533          	add	a0,s1,a0
    2d54:	f7e43823          	sd	t5,-144(s0)
    2d58:	01e50533          	add	a0,a0,t5
    2d5c:	00550533          	add	a0,a0,t0
    2d60:	00c5053b          	addw	a0,a0,a2
    2d64:	400004b7          	lui	s1,0x40000
    2d68:	00001f37          	lui	t5,0x1
    2d6c:	41e40f33          	sub	t5,s0,t5
    2d70:	64af3c23          	sd	a0,1624(t5) # 1658 <.LBB34_3+0x1b8>
    2d74:	00055463          	bgez	a0,2d7c <.LBB34_12>
    2d78:	c00004b7          	lui	s1,0xc0000

0000000000002d7c <.LBB34_12>:
    2d7c:	0107a503          	lw	a0,16(a5)
    2d80:	00751f13          	slli	t5,a0,0x7
    2d84:	00001537          	lui	a0,0x1
    2d88:	40a40533          	sub	a0,s0,a0
    2d8c:	5a853503          	ld	a0,1448(a0) # 15a8 <.LBB34_3+0x108>
    2d90:	00a90533          	add	a0,s2,a0
    2d94:	f7e43423          	sd	t5,-152(s0)
    2d98:	01e50533          	add	a0,a0,t5
    2d9c:	00550533          	add	a0,a0,t0
    2da0:	00c5053b          	addw	a0,a0,a2
    2da4:	40000937          	lui	s2,0x40000
    2da8:	00001f37          	lui	t5,0x1
    2dac:	41e40f33          	sub	t5,s0,t5
    2db0:	68af3c23          	sd	a0,1688(t5) # 1698 <.LBB34_3+0x1f8>
    2db4:	00055463          	bgez	a0,2dbc <.LBB34_14>
    2db8:	c0000937          	lui	s2,0xc0000

0000000000002dbc <.LBB34_14>:
    2dbc:	0147a503          	lw	a0,20(a5)
    2dc0:	00751f13          	slli	t5,a0,0x7
    2dc4:	00001537          	lui	a0,0x1
    2dc8:	40a40533          	sub	a0,s0,a0
    2dcc:	5b053503          	ld	a0,1456(a0) # 15b0 <.LBB34_3+0x110>
    2dd0:	00a98533          	add	a0,s3,a0
    2dd4:	f7e43023          	sd	t5,-160(s0)
    2dd8:	01e50533          	add	a0,a0,t5
    2ddc:	00550533          	add	a0,a0,t0
    2de0:	00c5053b          	addw	a0,a0,a2
    2de4:	400009b7          	lui	s3,0x40000
    2de8:	00001f37          	lui	t5,0x1
    2dec:	41e40f33          	sub	t5,s0,t5
    2df0:	54af3823          	sd	a0,1360(t5) # 1550 <.LBB34_3+0xb0>
    2df4:	00055463          	bgez	a0,2dfc <.LBB34_16>
    2df8:	c00009b7          	lui	s3,0xc0000

0000000000002dfc <.LBB34_16>:
    2dfc:	0187a503          	lw	a0,24(a5)
    2e00:	00751f13          	slli	t5,a0,0x7
    2e04:	00001537          	lui	a0,0x1
    2e08:	40a40533          	sub	a0,s0,a0
    2e0c:	5b853503          	ld	a0,1464(a0) # 15b8 <.LBB34_3+0x118>
    2e10:	00ae8533          	add	a0,t4,a0
    2e14:	f5e43c23          	sd	t5,-168(s0)
    2e18:	01e50533          	add	a0,a0,t5
    2e1c:	00550533          	add	a0,a0,t0
    2e20:	00c5053b          	addw	a0,a0,a2
    2e24:	40000f37          	lui	t5,0x40000
    2e28:	00001eb7          	lui	t4,0x1
    2e2c:	41d40eb3          	sub	t4,s0,t4
    2e30:	6deeb023          	sd	t5,1728(t4) # 16c0 <.LBB34_3+0x220>
    2e34:	00001eb7          	lui	t4,0x1
    2e38:	41d40eb3          	sub	t4,s0,t4
    2e3c:	54aeb023          	sd	a0,1344(t4) # 1540 <.LBB34_3+0xa0>
    2e40:	00055a63          	bgez	a0,2e54 <.LBB34_18>
    2e44:	c0000537          	lui	a0,0xc0000
    2e48:	00001eb7          	lui	t4,0x1
    2e4c:	41d40eb3          	sub	t4,s0,t4
    2e50:	6caeb023          	sd	a0,1728(t4) # 16c0 <.LBB34_3+0x220>

0000000000002e54 <.LBB34_18>:
    2e54:	01c7a503          	lw	a0,28(a5)
    2e58:	00751f13          	slli	t5,a0,0x7
    2e5c:	00001537          	lui	a0,0x1
    2e60:	40a40533          	sub	a0,s0,a0
    2e64:	5c053503          	ld	a0,1472(a0) # 15c0 <.LBB34_3+0x120>
    2e68:	00001eb7          	lui	t4,0x1
    2e6c:	41d40eb3          	sub	t4,s0,t4
    2e70:	6c8ebe83          	ld	t4,1736(t4) # 16c8 <.LBB34_3+0x228>
    2e74:	00ae8533          	add	a0,t4,a0
    2e78:	f5e43823          	sd	t5,-176(s0)
    2e7c:	01e50533          	add	a0,a0,t5
    2e80:	00550533          	add	a0,a0,t0
    2e84:	00c5053b          	addw	a0,a0,a2
    2e88:	40000f37          	lui	t5,0x40000
    2e8c:	00001eb7          	lui	t4,0x1
    2e90:	41d40eb3          	sub	t4,s0,t4
    2e94:	52aebc23          	sd	a0,1336(t4) # 1538 <.LBB34_3+0x98>
    2e98:	00055463          	bgez	a0,2ea0 <.LBB34_20>
    2e9c:	c0000f37          	lui	t5,0xc0000

0000000000002ea0 <.LBB34_20>:
    2ea0:	00001537          	lui	a0,0x1
    2ea4:	40a40533          	sub	a0,s0,a0
    2ea8:	53e53823          	sd	t5,1328(a0) # 1530 <.LBB34_3+0x90>
    2eac:	00001537          	lui	a0,0x1
    2eb0:	40a40533          	sub	a0,s0,a0
    2eb4:	55353423          	sd	s3,1352(a0) # 1548 <.LBB34_3+0xa8>
    2eb8:	00001537          	lui	a0,0x1
    2ebc:	40a40533          	sub	a0,s0,a0
    2ec0:	69253823          	sd	s2,1680(a0) # 1690 <.LBB34_3+0x1f0>
    2ec4:	00001537          	lui	a0,0x1
    2ec8:	40a40533          	sub	a0,s0,a0
    2ecc:	6a953c23          	sd	s1,1720(a0) # 16b8 <.LBB34_3+0x218>
    2ed0:	00001537          	lui	a0,0x1
    2ed4:	40a40533          	sub	a0,s0,a0
    2ed8:	6df53423          	sd	t6,1736(a0) # 16c8 <.LBB34_3+0x228>
    2edc:	de143023          	sd	ra,-544(s0)
    2ee0:	dfb43423          	sd	s11,-536(s0)
    2ee4:	dfa43823          	sd	s10,-528(s0)
    2ee8:	df943c23          	sd	s9,-520(s0)
    2eec:	e1843023          	sd	s8,-512(s0)
    2ef0:	e1743423          	sd	s7,-504(s0)
    2ef4:	e1643823          	sd	s6,-496(s0)
    2ef8:	e1543c23          	sd	s5,-488(s0)
    2efc:	e3443023          	sd	s4,-480(s0)
    2f00:	e3c43423          	sd	t3,-472(s0)
    2f04:	e2743823          	sd	t2,-464(s0)
    2f08:	e2643c23          	sd	t1,-456(s0)
    2f0c:	e4b43023          	sd	a1,-448(s0)
    2f10:	e5143423          	sd	a7,-440(s0)
    2f14:	e5043823          	sd	a6,-432(s0)
    2f18:	e4e43c23          	sd	a4,-424(s0)
    2f1c:	0207a503          	lw	a0,32(a5)
    2f20:	00751713          	slli	a4,a0,0x7
    2f24:	00001537          	lui	a0,0x1
    2f28:	40a40533          	sub	a0,s0,a0
    2f2c:	5c853503          	ld	a0,1480(a0) # 15c8 <.LBB34_3+0x128>
    2f30:	000015b7          	lui	a1,0x1
    2f34:	40b405b3          	sub	a1,s0,a1
    2f38:	6d05b803          	ld	a6,1744(a1) # 16d0 <.LBB34_3+0x230>
    2f3c:	00a80533          	add	a0,a6,a0
    2f40:	f4e43423          	sd	a4,-184(s0)
    2f44:	00e50533          	add	a0,a0,a4
    2f48:	00028593          	mv	a1,t0
    2f4c:	00550533          	add	a0,a0,t0
    2f50:	00c5053b          	addw	a0,a0,a2
    2f54:	40000637          	lui	a2,0x40000
    2f58:	00001737          	lui	a4,0x1
    2f5c:	40e40733          	sub	a4,s0,a4
    2f60:	6ca73823          	sd	a0,1744(a4) # 16d0 <.LBB34_3+0x230>
    2f64:	00055463          	bgez	a0,2f6c <.LBB34_22>
    2f68:	c0000637          	lui	a2,0xc0000

0000000000002f6c <.LBB34_22>:
    2f6c:	00001537          	lui	a0,0x1
    2f70:	40a40533          	sub	a0,s0,a0
    2f74:	52c53423          	sd	a2,1320(a0) # 1528 <.LBB34_3+0x88>
    2f78:	0046a603          	lw	a2,4(a3)
    2f7c:	0086a503          	lw	a0,8(a3)
    2f80:	00001737          	lui	a4,0x1
    2f84:	40e40733          	sub	a4,s0,a4
    2f88:	4ca73c23          	sd	a0,1240(a4) # 14d8 <.LBB34_3+0x38>
    2f8c:	00c6a503          	lw	a0,12(a3)
    2f90:	00001737          	lui	a4,0x1
    2f94:	40e40733          	sub	a4,s0,a4
    2f98:	50a73023          	sd	a0,1280(a4) # 1500 <.LBB34_3+0x60>
    2f9c:	0106a503          	lw	a0,16(a3)
    2fa0:	00001737          	lui	a4,0x1
    2fa4:	40e40733          	sub	a4,s0,a4
    2fa8:	50a73823          	sd	a0,1296(a4) # 1510 <.LBB34_3+0x70>
    2fac:	0146a503          	lw	a0,20(a3)
    2fb0:	00001737          	lui	a4,0x1
    2fb4:	40e40733          	sub	a4,s0,a4
    2fb8:	52a73023          	sd	a0,1312(a4) # 1520 <.LBB34_3+0x80>
    2fbc:	0186a503          	lw	a0,24(a3)
    2fc0:	00001737          	lui	a4,0x1
    2fc4:	40e40733          	sub	a4,s0,a4
    2fc8:	50a73c23          	sd	a0,1304(a4) # 1518 <.LBB34_3+0x78>
    2fcc:	01c6a503          	lw	a0,28(a3)
    2fd0:	000016b7          	lui	a3,0x1
    2fd4:	40d406b3          	sub	a3,s0,a3
    2fd8:	50a6b423          	sd	a0,1288(a3) # 1508 <.LBB34_3+0x68>
    2fdc:	07c7a503          	lw	a0,124(a5)
    2fe0:	e6a43423          	sd	a0,-408(s0)
    2fe4:	0787a703          	lw	a4,120(a5)
    2fe8:	0747a803          	lw	a6,116(a5)
    2fec:	0707a303          	lw	t1,112(a5)
    2ff0:	06c7a383          	lw	t2,108(a5)
    2ff4:	0687ae03          	lw	t3,104(a5)
    2ff8:	0647ae83          	lw	t4,100(a5)
    2ffc:	0607af03          	lw	t5,96(a5)
    3000:	05c7af83          	lw	t6,92(a5)
    3004:	0587a483          	lw	s1,88(a5)
    3008:	0547a903          	lw	s2,84(a5)
    300c:	0507a983          	lw	s3,80(a5)
    3010:	04c7aa03          	lw	s4,76(a5)
    3014:	0487aa83          	lw	s5,72(a5)
    3018:	0447ab03          	lw	s6,68(a5)
    301c:	0247a283          	lw	t0,36(a5)
    3020:	0407ab83          	lw	s7,64(a5)
    3024:	03c7ac03          	lw	s8,60(a5)
    3028:	0387ac83          	lw	s9,56(a5)
    302c:	00729513          	slli	a0,t0,0x7
    3030:	000016b7          	lui	a3,0x1
    3034:	40d406b3          	sub	a3,s0,a3
    3038:	5d06b283          	ld	t0,1488(a3) # 15d0 <.LBB34_3+0x130>
    303c:	000016b7          	lui	a3,0x1
    3040:	40d406b3          	sub	a3,s0,a3
    3044:	6d86b683          	ld	a3,1752(a3) # 16d8 <.LBB34_3+0x238>
    3048:	005682b3          	add	t0,a3,t0
    304c:	f4a43023          	sd	a0,-192(s0)
    3050:	00a282b3          	add	t0,t0,a0
    3054:	0347ad03          	lw	s10,52(a5)
    3058:	0307ad83          	lw	s11,48(a5)
    305c:	02c7a083          	lw	ra,44(a5)
    3060:	0287a783          	lw	a5,40(a5)
    3064:	00b282b3          	add	t0,t0,a1
    3068:	e6043883          	ld	a7,-416(s0)
    306c:	0112853b          	addw	a0,t0,a7
    3070:	00088293          	mv	t0,a7
    3074:	400008b7          	lui	a7,0x40000
    3078:	000016b7          	lui	a3,0x1
    307c:	40d406b3          	sub	a3,s0,a3
    3080:	4ea6bc23          	sd	a0,1272(a3) # 14f8 <.LBB34_3+0x58>
    3084:	00055463          	bgez	a0,308c <.LBB34_24>
    3088:	c00008b7          	lui	a7,0xc0000

000000000000308c <.LBB34_24>:
    308c:	00779513          	slli	a0,a5,0x7
    3090:	000016b7          	lui	a3,0x1
    3094:	40d406b3          	sub	a3,s0,a3
    3098:	5d86b783          	ld	a5,1496(a3) # 15d8 <.LBB34_3+0x138>
    309c:	000016b7          	lui	a3,0x1
    30a0:	40d406b3          	sub	a3,s0,a3
    30a4:	6e06b683          	ld	a3,1760(a3) # 16e0 <.LBB34_3+0x240>
    30a8:	00f687b3          	add	a5,a3,a5
    30ac:	f0a43823          	sd	a0,-240(s0)
    30b0:	00a787b3          	add	a5,a5,a0
    30b4:	00b787b3          	add	a5,a5,a1
    30b8:	0057853b          	addw	a0,a5,t0
    30bc:	400007b7          	lui	a5,0x40000
    30c0:	000016b7          	lui	a3,0x1
    30c4:	40d406b3          	sub	a3,s0,a3
    30c8:	48a6bc23          	sd	a0,1176(a3) # 1498 <.LBB34_2+0x59c>
    30cc:	00055463          	bgez	a0,30d4 <.LBB34_26>
    30d0:	c00007b7          	lui	a5,0xc0000

00000000000030d4 <.LBB34_26>:
    30d4:	00001537          	lui	a0,0x1
    30d8:	40a40533          	sub	a0,s0,a0
    30dc:	48f53823          	sd	a5,1168(a0) # 1490 <.LBB34_2+0x594>
    30e0:	00709093          	slli	ra,ra,0x7
    30e4:	00001537          	lui	a0,0x1
    30e8:	40a40533          	sub	a0,s0,a0
    30ec:	5e053783          	ld	a5,1504(a0) # 15e0 <.LBB34_3+0x140>
    30f0:	00001537          	lui	a0,0x1
    30f4:	40a40533          	sub	a0,s0,a0
    30f8:	6e853503          	ld	a0,1768(a0) # 16e8 <.LBB34_3+0x248>
    30fc:	00f507b3          	add	a5,a0,a5
    3100:	f0143423          	sd	ra,-248(s0)
    3104:	001787b3          	add	a5,a5,ra
    3108:	00b787b3          	add	a5,a5,a1
    310c:	0057853b          	addw	a0,a5,t0
    3110:	400007b7          	lui	a5,0x40000
    3114:	000016b7          	lui	a3,0x1
    3118:	40d406b3          	sub	a3,s0,a3
    311c:	42a6b823          	sd	a0,1072(a3) # 1430 <.LBB34_2+0x534>
    3120:	00055463          	bgez	a0,3128 <.LBB34_28>
    3124:	c00007b7          	lui	a5,0xc0000

0000000000003128 <.LBB34_28>:
    3128:	00001537          	lui	a0,0x1
    312c:	40a40533          	sub	a0,s0,a0
    3130:	42f53423          	sd	a5,1064(a0) # 1428 <.LBB34_2+0x52c>
    3134:	007d9d93          	slli	s11,s11,0x7
    3138:	00001537          	lui	a0,0x1
    313c:	40a40533          	sub	a0,s0,a0
    3140:	5e853783          	ld	a5,1512(a0) # 15e8 <.LBB34_3+0x148>
    3144:	00001537          	lui	a0,0x1
    3148:	40a40533          	sub	a0,s0,a0
    314c:	6f053503          	ld	a0,1776(a0) # 16f0 <.LBB34_3+0x250>
    3150:	00f507b3          	add	a5,a0,a5
    3154:	f1b43023          	sd	s11,-256(s0)
    3158:	01b787b3          	add	a5,a5,s11
    315c:	00b787b3          	add	a5,a5,a1
    3160:	0057853b          	addw	a0,a5,t0
    3164:	400007b7          	lui	a5,0x40000
    3168:	000016b7          	lui	a3,0x1
    316c:	40d406b3          	sub	a3,s0,a3
    3170:	5606b083          	ld	ra,1376(a3) # 1560 <.LBB34_3+0xc0>
    3174:	000016b7          	lui	a3,0x1
    3178:	40d406b3          	sub	a3,s0,a3
    317c:	3ca6b823          	sd	a0,976(a3) # 13d0 <.LBB34_2+0x4d4>
    3180:	00055463          	bgez	a0,3188 <.LBB34_30>
    3184:	c00007b7          	lui	a5,0xc0000

0000000000003188 <.LBB34_30>:
    3188:	00001537          	lui	a0,0x1
    318c:	40a40533          	sub	a0,s0,a0
    3190:	3cf53023          	sd	a5,960(a0) # 13c0 <.LBB34_2+0x4c4>
    3194:	007d1d13          	slli	s10,s10,0x7
    3198:	00001537          	lui	a0,0x1
    319c:	40a40533          	sub	a0,s0,a0
    31a0:	5f053783          	ld	a5,1520(a0) # 15f0 <.LBB34_3+0x150>
    31a4:	00001537          	lui	a0,0x1
    31a8:	40a40533          	sub	a0,s0,a0
    31ac:	6f853503          	ld	a0,1784(a0) # 16f8 <.LBB34_3+0x258>
    31b0:	00f507b3          	add	a5,a0,a5
    31b4:	efa43c23          	sd	s10,-264(s0)
    31b8:	01a787b3          	add	a5,a5,s10
    31bc:	00b787b3          	add	a5,a5,a1
    31c0:	0057853b          	addw	a0,a5,t0
    31c4:	400007b7          	lui	a5,0x40000
    31c8:	000016b7          	lui	a3,0x1
    31cc:	40d406b3          	sub	a3,s0,a3
    31d0:	36a6bc23          	sd	a0,888(a3) # 1378 <.LBB34_2+0x47c>
    31d4:	000016b7          	lui	a3,0x1
    31d8:	40d406b3          	sub	a3,s0,a3
    31dc:	7106bd83          	ld	s11,1808(a3) # 1710 <.LBB34_3+0x270>
    31e0:	00055463          	bgez	a0,31e8 <.LBB34_32>
    31e4:	c00007b7          	lui	a5,0xc0000

00000000000031e8 <.LBB34_32>:
    31e8:	00001537          	lui	a0,0x1
    31ec:	40a40533          	sub	a0,s0,a0
    31f0:	36f53423          	sd	a5,872(a0) # 1368 <.LBB34_2+0x46c>
    31f4:	007c9c93          	slli	s9,s9,0x7
    31f8:	00001537          	lui	a0,0x1
    31fc:	40a40533          	sub	a0,s0,a0
    3200:	5f853783          	ld	a5,1528(a0) # 15f8 <.LBB34_3+0x158>
    3204:	00001537          	lui	a0,0x1
    3208:	40a40533          	sub	a0,s0,a0
    320c:	70053503          	ld	a0,1792(a0) # 1700 <.LBB34_3+0x260>
    3210:	00f507b3          	add	a5,a0,a5
    3214:	ef943823          	sd	s9,-272(s0)
    3218:	019787b3          	add	a5,a5,s9
    321c:	00b787b3          	add	a5,a5,a1
    3220:	0057853b          	addw	a0,a5,t0
    3224:	400007b7          	lui	a5,0x40000
    3228:	000016b7          	lui	a3,0x1
    322c:	40d406b3          	sub	a3,s0,a3
    3230:	30a6b023          	sd	a0,768(a3) # 1300 <.LBB34_2+0x404>
    3234:	88843d03          	ld	s10,-1912(s0)
    3238:	00055463          	bgez	a0,3240 <.LBB34_34>
    323c:	c00007b7          	lui	a5,0xc0000

0000000000003240 <.LBB34_34>:
    3240:	00001537          	lui	a0,0x1
    3244:	40a40533          	sub	a0,s0,a0
    3248:	2ef53423          	sd	a5,744(a0) # 12e8 <.LBB34_2+0x3ec>
    324c:	007c1c13          	slli	s8,s8,0x7
    3250:	00001537          	lui	a0,0x1
    3254:	40a40533          	sub	a0,s0,a0
    3258:	60053783          	ld	a5,1536(a0) # 1600 <.LBB34_3+0x160>
    325c:	00001537          	lui	a0,0x1
    3260:	40a40533          	sub	a0,s0,a0
    3264:	70853503          	ld	a0,1800(a0) # 1708 <.LBB34_3+0x268>
    3268:	00f507b3          	add	a5,a0,a5
    326c:	ef843423          	sd	s8,-280(s0)
    3270:	018787b3          	add	a5,a5,s8
    3274:	00b787b3          	add	a5,a5,a1
    3278:	0057853b          	addw	a0,a5,t0
    327c:	400007b7          	lui	a5,0x40000
    3280:	000016b7          	lui	a3,0x1
    3284:	40d406b3          	sub	a3,s0,a3
    3288:	28a6b423          	sd	a0,648(a3) # 1288 <.LBB34_2+0x38c>
    328c:	93843c83          	ld	s9,-1736(s0)
    3290:	00055463          	bgez	a0,3298 <.LBB34_36>
    3294:	c00007b7          	lui	a5,0xc0000

0000000000003298 <.LBB34_36>:
    3298:	00001537          	lui	a0,0x1
    329c:	40a40533          	sub	a0,s0,a0
    32a0:	26f53c23          	sd	a5,632(a0) # 1278 <.LBB34_2+0x37c>
    32a4:	007b9b93          	slli	s7,s7,0x7
    32a8:	00001537          	lui	a0,0x1
    32ac:	40a40533          	sub	a0,s0,a0
    32b0:	60853783          	ld	a5,1544(a0) # 1608 <.LBB34_3+0x168>
    32b4:	00fd87b3          	add	a5,s11,a5
    32b8:	ef743023          	sd	s7,-288(s0)
    32bc:	017787b3          	add	a5,a5,s7
    32c0:	00b787b3          	add	a5,a5,a1
    32c4:	0057853b          	addw	a0,a5,t0
    32c8:	400007b7          	lui	a5,0x40000
    32cc:	000016b7          	lui	a3,0x1
    32d0:	40d406b3          	sub	a3,s0,a3
    32d4:	5786bd83          	ld	s11,1400(a3) # 1578 <.LBB34_3+0xd8>
    32d8:	000016b7          	lui	a3,0x1
    32dc:	40d406b3          	sub	a3,s0,a3
    32e0:	22a6b423          	sd	a0,552(a3) # 1228 <.LBB34_2+0x32c>
    32e4:	8f843c03          	ld	s8,-1800(s0)
    32e8:	00055463          	bgez	a0,32f0 <.LBB34_38>
    32ec:	c00007b7          	lui	a5,0xc0000

00000000000032f0 <.LBB34_38>:
    32f0:	00001537          	lui	a0,0x1
    32f4:	40a40533          	sub	a0,s0,a0
    32f8:	20f53c23          	sd	a5,536(a0) # 1218 <.LBB34_2+0x31c>
    32fc:	007b1b13          	slli	s6,s6,0x7
    3300:	00001537          	lui	a0,0x1
    3304:	40a40533          	sub	a0,s0,a0
    3308:	61053783          	ld	a5,1552(a0) # 1610 <.LBB34_3+0x170>
    330c:	00001537          	lui	a0,0x1
    3310:	40a40533          	sub	a0,s0,a0
    3314:	71853503          	ld	a0,1816(a0) # 1718 <.LBB34_3+0x278>
    3318:	00f507b3          	add	a5,a0,a5
    331c:	ed643c23          	sd	s6,-296(s0)
    3320:	016787b3          	add	a5,a5,s6
    3324:	00b787b3          	add	a5,a5,a1
    3328:	0057853b          	addw	a0,a5,t0
    332c:	400007b7          	lui	a5,0x40000
    3330:	000016b7          	lui	a3,0x1
    3334:	40d406b3          	sub	a3,s0,a3
    3338:	1ca6b023          	sd	a0,448(a3) # 11c0 <.LBB34_2+0x2c4>
    333c:	000016b7          	lui	a3,0x1
    3340:	40d406b3          	sub	a3,s0,a3
    3344:	7a86bb83          	ld	s7,1960(a3) # 17a8 <.LBB34_3+0x308>
    3348:	00055463          	bgez	a0,3350 <.LBB34_40>
    334c:	c00007b7          	lui	a5,0xc0000

0000000000003350 <.LBB34_40>:
    3350:	00001537          	lui	a0,0x1
    3354:	40a40533          	sub	a0,s0,a0
    3358:	1af53823          	sd	a5,432(a0) # 11b0 <.LBB34_2+0x2b4>
    335c:	007a9a93          	slli	s5,s5,0x7
    3360:	00001537          	lui	a0,0x1
    3364:	40a40533          	sub	a0,s0,a0
    3368:	61853783          	ld	a5,1560(a0) # 1618 <.LBB34_3+0x178>
    336c:	00001537          	lui	a0,0x1
    3370:	40a40533          	sub	a0,s0,a0
    3374:	72053503          	ld	a0,1824(a0) # 1720 <.LBB34_3+0x280>
    3378:	00f507b3          	add	a5,a0,a5
    337c:	ed543823          	sd	s5,-304(s0)
    3380:	015787b3          	add	a5,a5,s5
    3384:	00b787b3          	add	a5,a5,a1
    3388:	0057853b          	addw	a0,a5,t0
    338c:	400007b7          	lui	a5,0x40000
    3390:	000016b7          	lui	a3,0x1
    3394:	40d406b3          	sub	a3,s0,a3
    3398:	5686bb03          	ld	s6,1384(a3) # 1568 <.LBB34_3+0xc8>
    339c:	000016b7          	lui	a3,0x1
    33a0:	40d406b3          	sub	a3,s0,a3
    33a4:	1ea6b823          	sd	a0,496(a3) # 11f0 <.LBB34_2+0x2f4>
    33a8:	00055463          	bgez	a0,33b0 <.LBB34_42>
    33ac:	c00007b7          	lui	a5,0xc0000

00000000000033b0 <.LBB34_42>:
    33b0:	00001537          	lui	a0,0x1
    33b4:	40a40533          	sub	a0,s0,a0
    33b8:	14f53023          	sd	a5,320(a0) # 1140 <.LBB34_2+0x244>
    33bc:	007a1a13          	slli	s4,s4,0x7
    33c0:	00001537          	lui	a0,0x1
    33c4:	40a40533          	sub	a0,s0,a0
    33c8:	62053783          	ld	a5,1568(a0) # 1620 <.LBB34_3+0x180>
    33cc:	00001537          	lui	a0,0x1
    33d0:	40a40533          	sub	a0,s0,a0
    33d4:	72853503          	ld	a0,1832(a0) # 1728 <.LBB34_3+0x288>
    33d8:	00f507b3          	add	a5,a0,a5
    33dc:	ed443423          	sd	s4,-312(s0)
    33e0:	014787b3          	add	a5,a5,s4
    33e4:	00b787b3          	add	a5,a5,a1
    33e8:	0057853b          	addw	a0,a5,t0
    33ec:	400007b7          	lui	a5,0x40000
    33f0:	000016b7          	lui	a3,0x1
    33f4:	40d406b3          	sub	a3,s0,a3
    33f8:	0ea6b023          	sd	a0,224(a3) # 10e0 <.LBB34_2+0x1e4>
    33fc:	92843a83          	ld	s5,-1752(s0)
    3400:	00055463          	bgez	a0,3408 <.LBB34_44>
    3404:	c00007b7          	lui	a5,0xc0000

0000000000003408 <.LBB34_44>:
    3408:	00001537          	lui	a0,0x1
    340c:	40a40533          	sub	a0,s0,a0
    3410:	0cf53823          	sd	a5,208(a0) # 10d0 <.LBB34_2+0x1d4>
    3414:	00799993          	slli	s3,s3,0x7
    3418:	00001537          	lui	a0,0x1
    341c:	40a40533          	sub	a0,s0,a0
    3420:	62853783          	ld	a5,1576(a0) # 1628 <.LBB34_3+0x188>
    3424:	00001537          	lui	a0,0x1
    3428:	40a40533          	sub	a0,s0,a0
    342c:	73053503          	ld	a0,1840(a0) # 1730 <.LBB34_3+0x290>
    3430:	00f507b3          	add	a5,a0,a5
    3434:	ed343023          	sd	s3,-320(s0)
    3438:	013787b3          	add	a5,a5,s3
    343c:	00b787b3          	add	a5,a5,a1
    3440:	0057853b          	addw	a0,a5,t0
    3444:	400007b7          	lui	a5,0x40000
    3448:	000016b7          	lui	a3,0x1
    344c:	40d406b3          	sub	a3,s0,a3
    3450:	5706ba03          	ld	s4,1392(a3) # 1570 <.LBB34_3+0xd0>
    3454:	000016b7          	lui	a3,0x1
    3458:	40d406b3          	sub	a3,s0,a3
    345c:	06a6b423          	sd	a0,104(a3) # 1068 <.LBB34_2+0x16c>
    3460:	00055463          	bgez	a0,3468 <.LBB34_46>
    3464:	c00007b7          	lui	a5,0xc0000

0000000000003468 <.LBB34_46>:
    3468:	00001537          	lui	a0,0x1
    346c:	40a40533          	sub	a0,s0,a0
    3470:	04f53c23          	sd	a5,88(a0) # 1058 <.LBB34_2+0x15c>
    3474:	00791913          	slli	s2,s2,0x7
    3478:	00001537          	lui	a0,0x1
    347c:	40a40533          	sub	a0,s0,a0
    3480:	63053783          	ld	a5,1584(a0) # 1630 <.LBB34_3+0x190>
    3484:	00001537          	lui	a0,0x1
    3488:	40a40533          	sub	a0,s0,a0
    348c:	73853503          	ld	a0,1848(a0) # 1738 <.LBB34_3+0x298>
    3490:	00f507b3          	add	a5,a0,a5
    3494:	eb243c23          	sd	s2,-328(s0)
    3498:	012787b3          	add	a5,a5,s2
    349c:	00b787b3          	add	a5,a5,a1
    34a0:	0057853b          	addw	a0,a5,t0
    34a4:	400007b7          	lui	a5,0x40000
    34a8:	000016b7          	lui	a3,0x1
    34ac:	40d406b3          	sub	a3,s0,a3
    34b0:	fea6b823          	sd	a0,-16(a3) # ff0 <.LBB34_2+0xf4>
    34b4:	000016b7          	lui	a3,0x1
    34b8:	40d406b3          	sub	a3,s0,a3
    34bc:	7986b983          	ld	s3,1944(a3) # 1798 <.LBB34_3+0x2f8>
    34c0:	00055463          	bgez	a0,34c8 <.LBB34_48>
    34c4:	c00007b7          	lui	a5,0xc0000

00000000000034c8 <.LBB34_48>:
    34c8:	00001537          	lui	a0,0x1
    34cc:	40a40533          	sub	a0,s0,a0
    34d0:	fef53023          	sd	a5,-32(a0) # fe0 <.LBB34_2+0xe4>
    34d4:	00749493          	slli	s1,s1,0x7
    34d8:	00001537          	lui	a0,0x1
    34dc:	40a40533          	sub	a0,s0,a0
    34e0:	74053783          	ld	a5,1856(a0) # 1740 <.LBB34_3+0x2a0>
    34e4:	001787b3          	add	a5,a5,ra
    34e8:	ea943823          	sd	s1,-336(s0)
    34ec:	009787b3          	add	a5,a5,s1
    34f0:	00b787b3          	add	a5,a5,a1
    34f4:	0057853b          	addw	a0,a5,t0
    34f8:	400007b7          	lui	a5,0x40000
    34fc:	000016b7          	lui	a3,0x1
    3500:	40d406b3          	sub	a3,s0,a3
    3504:	f8a6b023          	sd	a0,-128(a3) # f80 <.LBB34_2+0x84>
    3508:	000016b7          	lui	a3,0x1
    350c:	40d406b3          	sub	a3,s0,a3
    3510:	7b06b903          	ld	s2,1968(a3) # 17b0 <.LBB34_3+0x310>
    3514:	00055463          	bgez	a0,351c <.LBB34_50>
    3518:	c00007b7          	lui	a5,0xc0000

000000000000351c <.LBB34_50>:
    351c:	00001537          	lui	a0,0x1
    3520:	40a40533          	sub	a0,s0,a0
    3524:	f6f53423          	sd	a5,-152(a0) # f68 <.LBB34_2+0x6c>
    3528:	007f9f93          	slli	t6,t6,0x7
    352c:	00001537          	lui	a0,0x1
    3530:	40a40533          	sub	a0,s0,a0
    3534:	67853783          	ld	a5,1656(a0) # 1678 <.LBB34_3+0x1d8>
    3538:	016787b3          	add	a5,a5,s6
    353c:	ebf43423          	sd	t6,-344(s0)
    3540:	01f787b3          	add	a5,a5,t6
    3544:	00b787b3          	add	a5,a5,a1
    3548:	0057853b          	addw	a0,a5,t0
    354c:	400007b7          	lui	a5,0x40000
    3550:	000016b7          	lui	a3,0x1
    3554:	40d406b3          	sub	a3,s0,a3
    3558:	f0a6b423          	sd	a0,-248(a3) # f08 <.LBB34_2+0xc>
    355c:	000016b7          	lui	a3,0x1
    3560:	40d406b3          	sub	a3,s0,a3
    3564:	7a06b483          	ld	s1,1952(a3) # 17a0 <.LBB34_3+0x300>
    3568:	00055463          	bgez	a0,3570 <.LBB34_52>
    356c:	c00007b7          	lui	a5,0xc0000

0000000000003570 <.LBB34_52>:
    3570:	00001537          	lui	a0,0x1
    3574:	40a40533          	sub	a0,s0,a0
    3578:	eef53c23          	sd	a5,-264(a0) # ef8 <.LBB34_1+0xbf0>
    357c:	007f1f13          	slli	t5,t5,0x7
    3580:	00001537          	lui	a0,0x1
    3584:	40a40533          	sub	a0,s0,a0
    3588:	74853783          	ld	a5,1864(a0) # 1748 <.LBB34_3+0x2a8>
    358c:	014787b3          	add	a5,a5,s4
    3590:	ebe43023          	sd	t5,-352(s0)
    3594:	01e787b3          	add	a5,a5,t5
    3598:	00b787b3          	add	a5,a5,a1
    359c:	0057853b          	addw	a0,a5,t0
    35a0:	400007b7          	lui	a5,0x40000
    35a4:	000016b7          	lui	a3,0x1
    35a8:	40d406b3          	sub	a3,s0,a3
    35ac:	ab86bf83          	ld	t6,-1352(a3) # ab8 <.LBB34_1+0x7b0>
    35b0:	000016b7          	lui	a3,0x1
    35b4:	40d406b3          	sub	a3,s0,a3
    35b8:	e8a6b823          	sd	a0,-368(a3) # e90 <.LBB34_1+0xb88>
    35bc:	00055463          	bgez	a0,35c4 <.LBB34_54>
    35c0:	c00007b7          	lui	a5,0xc0000

00000000000035c4 <.LBB34_54>:
    35c4:	00001537          	lui	a0,0x1
    35c8:	40a40533          	sub	a0,s0,a0
    35cc:	e6f53c23          	sd	a5,-392(a0) # e78 <.LBB34_1+0xb70>
    35d0:	007e9e93          	slli	t4,t4,0x7
    35d4:	00001537          	lui	a0,0x1
    35d8:	40a40533          	sub	a0,s0,a0
    35dc:	63853783          	ld	a5,1592(a0) # 1638 <.LBB34_3+0x198>
    35e0:	00001537          	lui	a0,0x1
    35e4:	40a40533          	sub	a0,s0,a0
    35e8:	75053503          	ld	a0,1872(a0) # 1750 <.LBB34_3+0x2b0>
    35ec:	00f507b3          	add	a5,a0,a5
    35f0:	e9d43c23          	sd	t4,-360(s0)
    35f4:	01d787b3          	add	a5,a5,t4
    35f8:	00b787b3          	add	a5,a5,a1
    35fc:	0057853b          	addw	a0,a5,t0
    3600:	400007b7          	lui	a5,0x40000
    3604:	000016b7          	lui	a3,0x1
    3608:	40d406b3          	sub	a3,s0,a3
    360c:	e0a6bc23          	sd	a0,-488(a3) # e18 <.LBB34_1+0xb10>
    3610:	8f043f03          	ld	t5,-1808(s0)
    3614:	00055463          	bgez	a0,361c <.LBB34_56>
    3618:	c00007b7          	lui	a5,0xc0000

000000000000361c <.LBB34_56>:
    361c:	00001537          	lui	a0,0x1
    3620:	40a40533          	sub	a0,s0,a0
    3624:	e0f53423          	sd	a5,-504(a0) # e08 <.LBB34_1+0xb00>
    3628:	007e1e13          	slli	t3,t3,0x7
    362c:	00001537          	lui	a0,0x1
    3630:	40a40533          	sub	a0,s0,a0
    3634:	64053783          	ld	a5,1600(a0) # 1640 <.LBB34_3+0x1a0>
    3638:	00001537          	lui	a0,0x1
    363c:	40a40533          	sub	a0,s0,a0
    3640:	75853503          	ld	a0,1880(a0) # 1758 <.LBB34_3+0x2b8>
    3644:	00f507b3          	add	a5,a0,a5
    3648:	e9c43823          	sd	t3,-368(s0)
    364c:	01c787b3          	add	a5,a5,t3
    3650:	00b787b3          	add	a5,a5,a1
    3654:	0057853b          	addw	a0,a5,t0
    3658:	400007b7          	lui	a5,0x40000
    365c:	000016b7          	lui	a3,0x1
    3660:	40d406b3          	sub	a3,s0,a3
    3664:	daa6b423          	sd	a0,-600(a3) # da8 <.LBB34_1+0xaa0>
    3668:	000016b7          	lui	a3,0x1
    366c:	40d406b3          	sub	a3,s0,a3
    3670:	7c06be83          	ld	t4,1984(a3) # 17c0 <.LBB34_3+0x320>
    3674:	00055463          	bgez	a0,367c <.LBB34_58>
    3678:	c00007b7          	lui	a5,0xc0000

000000000000367c <.LBB34_58>:
    367c:	00001537          	lui	a0,0x1
    3680:	40a40533          	sub	a0,s0,a0
    3684:	d8f53c23          	sd	a5,-616(a0) # d98 <.LBB34_1+0xa90>
    3688:	00739393          	slli	t2,t2,0x7
    368c:	00001537          	lui	a0,0x1
    3690:	40a40533          	sub	a0,s0,a0
    3694:	64853783          	ld	a5,1608(a0) # 1648 <.LBB34_3+0x1a8>
    3698:	00001537          	lui	a0,0x1
    369c:	40a40533          	sub	a0,s0,a0
    36a0:	76053503          	ld	a0,1888(a0) # 1760 <.LBB34_3+0x2c0>
    36a4:	00f507b3          	add	a5,a0,a5
    36a8:	e8743423          	sd	t2,-376(s0)
    36ac:	007787b3          	add	a5,a5,t2
    36b0:	00b787b3          	add	a5,a5,a1
    36b4:	0057853b          	addw	a0,a5,t0
    36b8:	400007b7          	lui	a5,0x40000
    36bc:	000016b7          	lui	a3,0x1
    36c0:	40d406b3          	sub	a3,s0,a3
    36c4:	ac06be03          	ld	t3,-1344(a3) # ac0 <.LBB34_1+0x7b8>
    36c8:	000016b7          	lui	a3,0x1
    36cc:	40d406b3          	sub	a3,s0,a3
    36d0:	d2a6b423          	sd	a0,-728(a3) # d28 <.LBB34_1+0xa20>
    36d4:	00055463          	bgez	a0,36dc <.LBB34_60>
    36d8:	c00007b7          	lui	a5,0xc0000

00000000000036dc <.LBB34_60>:
    36dc:	00001537          	lui	a0,0x1
    36e0:	40a40533          	sub	a0,s0,a0
    36e4:	d2f53023          	sd	a5,-736(a0) # d20 <.LBB34_1+0xa18>
    36e8:	00731313          	slli	t1,t1,0x7
    36ec:	00001537          	lui	a0,0x1
    36f0:	40a40533          	sub	a0,s0,a0
    36f4:	65053783          	ld	a5,1616(a0) # 1650 <.LBB34_3+0x1b0>
    36f8:	00001537          	lui	a0,0x1
    36fc:	40a40533          	sub	a0,s0,a0
    3700:	76853503          	ld	a0,1896(a0) # 1768 <.LBB34_3+0x2c8>
    3704:	00f507b3          	add	a5,a0,a5
    3708:	e8643023          	sd	t1,-384(s0)
    370c:	006787b3          	add	a5,a5,t1
    3710:	00b787b3          	add	a5,a5,a1
    3714:	0057853b          	addw	a0,a5,t0
    3718:	400007b7          	lui	a5,0x40000
    371c:	8e043383          	ld	t2,-1824(s0)
    3720:	000016b7          	lui	a3,0x1
    3724:	40d406b3          	sub	a3,s0,a3
    3728:	caa6b823          	sd	a0,-848(a3) # cb0 <.LBB34_1+0x9a8>
    372c:	00055463          	bgez	a0,3734 <.LBB34_62>
    3730:	c00007b7          	lui	a5,0xc0000

0000000000003734 <.LBB34_62>:
    3734:	00001537          	lui	a0,0x1
    3738:	40a40533          	sub	a0,s0,a0
    373c:	caf53423          	sd	a5,-856(a0) # ca8 <.LBB34_1+0x9a0>
    3740:	00781813          	slli	a6,a6,0x7
    3744:	00001537          	lui	a0,0x1
    3748:	40a40533          	sub	a0,s0,a0
    374c:	77053783          	ld	a5,1904(a0) # 1770 <.LBB34_3+0x2d0>
    3750:	01f787b3          	add	a5,a5,t6
    3754:	e7043c23          	sd	a6,-392(s0)
    3758:	010787b3          	add	a5,a5,a6
    375c:	00b787b3          	add	a5,a5,a1
    3760:	0057853b          	addw	a0,a5,t0
    3764:	400007b7          	lui	a5,0x40000
    3768:	000016b7          	lui	a3,0x1
    376c:	40d406b3          	sub	a3,s0,a3
    3770:	c4a6b023          	sd	a0,-960(a3) # c40 <.LBB34_1+0x938>
    3774:	000016b7          	lui	a3,0x1
    3778:	40d406b3          	sub	a3,s0,a3
    377c:	7b86b303          	ld	t1,1976(a3) # 17b8 <.LBB34_3+0x318>
    3780:	00055463          	bgez	a0,3788 <.LBB34_64>
    3784:	c00007b7          	lui	a5,0xc0000

0000000000003788 <.LBB34_64>:
    3788:	00001537          	lui	a0,0x1
    378c:	40a40533          	sub	a0,s0,a0
    3790:	c2f53c23          	sd	a5,-968(a0) # c38 <.LBB34_1+0x930>
    3794:	00771513          	slli	a0,a4,0x7
    3798:	000016b7          	lui	a3,0x1
    379c:	40d406b3          	sub	a3,s0,a3
    37a0:	7786b703          	ld	a4,1912(a3) # 1778 <.LBB34_3+0x2d8>
    37a4:	01c70733          	add	a4,a4,t3
    37a8:	e6a43823          	sd	a0,-400(s0)
    37ac:	00a70733          	add	a4,a4,a0
    37b0:	00b70733          	add	a4,a4,a1
    37b4:	0057053b          	addw	a0,a4,t0
    37b8:	40000737          	lui	a4,0x40000
    37bc:	8d843783          	ld	a5,-1832(s0)
    37c0:	000016b7          	lui	a3,0x1
    37c4:	40d406b3          	sub	a3,s0,a3
    37c8:	bea6b023          	sd	a0,-1056(a3) # be0 <.LBB34_1+0x8d8>
    37cc:	000016b7          	lui	a3,0x1
    37d0:	40d406b3          	sub	a3,s0,a3
    37d4:	7886b803          	ld	a6,1928(a3) # 1788 <.LBB34_3+0x2e8>
    37d8:	00055463          	bgez	a0,37e0 <.LBB34_66>
    37dc:	c0000737          	lui	a4,0xc0000

00000000000037e0 <.LBB34_66>:
    37e0:	00001537          	lui	a0,0x1
    37e4:	40a40533          	sub	a0,s0,a0
    37e8:	bce53c23          	sd	a4,-1064(a0) # bd8 <.LBB34_1+0x8d0>
    37ec:	e6843503          	ld	a0,-408(s0)
    37f0:	00751513          	slli	a0,a0,0x7
    37f4:	000016b7          	lui	a3,0x1
    37f8:	40d406b3          	sub	a3,s0,a3
    37fc:	7806b683          	ld	a3,1920(a3) # 1780 <.LBB34_3+0x2e0>
    3800:	01b686b3          	add	a3,a3,s11
    3804:	e6a43423          	sd	a0,-408(s0)
    3808:	00a686b3          	add	a3,a3,a0
    380c:	00b685b3          	add	a1,a3,a1
    3810:	0055853b          	addw	a0,a1,t0
    3814:	400005b7          	lui	a1,0x40000
    3818:	90843703          	ld	a4,-1784(s0)
    381c:	000016b7          	lui	a3,0x1
    3820:	40d406b3          	sub	a3,s0,a3
    3824:	b6a6bc23          	sd	a0,-1160(a3) # b78 <.LBB34_1+0x870>
    3828:	00055463          	bgez	a0,3830 <.LBB34_68>
    382c:	c00005b7          	lui	a1,0xc0000

0000000000003830 <.LBB34_68>:
    3830:	00001537          	lui	a0,0x1
    3834:	40a40533          	sub	a0,s0,a0
    3838:	b6b53423          	sd	a1,-1176(a0) # b68 <.LBB34_1+0x860>
    383c:	00001537          	lui	a0,0x1
    3840:	40a40533          	sub	a0,s0,a0
    3844:	4f153823          	sd	a7,1264(a0) # 14f0 <.LBB34_3+0x50>
    3848:	00461593          	slli	a1,a2,0x4
    384c:	00c585b3          	add	a1,a1,a2
    3850:	00001537          	lui	a0,0x1
    3854:	40a40533          	sub	a0,s0,a0
    3858:	5a053603          	ld	a2,1440(a0) # 15a0 <.LBB34_3+0x100>
    385c:	00c80633          	add	a2,a6,a2
    3860:	f8843503          	ld	a0,-120(s0)
    3864:	00a60633          	add	a2,a2,a0
    3868:	00b60633          	add	a2,a2,a1
    386c:	0056063b          	addw	a2,a2,t0
    3870:	40000837          	lui	a6,0x40000
    3874:	00001537          	lui	a0,0x1
    3878:	40a40533          	sub	a0,s0,a0
    387c:	78c53423          	sd	a2,1928(a0) # 1788 <.LBB34_3+0x2e8>
    3880:	89043683          	ld	a3,-1904(s0)
    3884:	00065463          	bgez	a2,388c <.LBB34_70>
    3888:	c0000837          	lui	a6,0xc0000

000000000000388c <.LBB34_70>:
    388c:	00001537          	lui	a0,0x1
    3890:	40a40533          	sub	a0,s0,a0
    3894:	59853603          	ld	a2,1432(a0) # 1598 <.LBB34_3+0xf8>
    3898:	00001537          	lui	a0,0x1
    389c:	40a40533          	sub	a0,s0,a0
    38a0:	79053503          	ld	a0,1936(a0) # 1790 <.LBB34_3+0x2f0>
    38a4:	00c50633          	add	a2,a0,a2
    38a8:	f8043503          	ld	a0,-128(s0)
    38ac:	00a60633          	add	a2,a2,a0
    38b0:	00b60633          	add	a2,a2,a1
    38b4:	0056063b          	addw	a2,a2,t0
    38b8:	400008b7          	lui	a7,0x40000
    38bc:	00001537          	lui	a0,0x1
    38c0:	40a40533          	sub	a0,s0,a0
    38c4:	78c53823          	sd	a2,1936(a0) # 1790 <.LBB34_3+0x2f0>
    38c8:	00065463          	bgez	a2,38d0 <.LBB34_72>
    38cc:	c00008b7          	lui	a7,0xc0000

00000000000038d0 <.LBB34_72>:
    38d0:	00001537          	lui	a0,0x1
    38d4:	40a40533          	sub	a0,s0,a0
    38d8:	59053603          	ld	a2,1424(a0) # 1590 <.LBB34_3+0xf0>
    38dc:	00c98633          	add	a2,s3,a2
    38e0:	f7843503          	ld	a0,-136(s0)
    38e4:	00a60633          	add	a2,a2,a0
    38e8:	00b60633          	add	a2,a2,a1
    38ec:	0056063b          	addw	a2,a2,t0
    38f0:	400009b7          	lui	s3,0x40000
    38f4:	00001537          	lui	a0,0x1
    38f8:	40a40533          	sub	a0,s0,a0
    38fc:	78c53c23          	sd	a2,1944(a0) # 1798 <.LBB34_3+0x2f8>
    3900:	00065463          	bgez	a2,3908 <.LBB34_74>
    3904:	c00009b7          	lui	s3,0xc0000

0000000000003908 <.LBB34_74>:
    3908:	00001537          	lui	a0,0x1
    390c:	40a40533          	sub	a0,s0,a0
    3910:	58853603          	ld	a2,1416(a0) # 1588 <.LBB34_3+0xe8>
    3914:	00c48633          	add	a2,s1,a2
    3918:	f7043503          	ld	a0,-144(s0)
    391c:	00a60633          	add	a2,a2,a0
    3920:	00b60633          	add	a2,a2,a1
    3924:	0056063b          	addw	a2,a2,t0
    3928:	400004b7          	lui	s1,0x40000
    392c:	00001537          	lui	a0,0x1
    3930:	40a40533          	sub	a0,s0,a0
    3934:	7ac53023          	sd	a2,1952(a0) # 17a0 <.LBB34_3+0x300>
    3938:	00065463          	bgez	a2,3940 <.LBB34_76>
    393c:	c00004b7          	lui	s1,0xc0000

0000000000003940 <.LBB34_76>:
    3940:	00001537          	lui	a0,0x1
    3944:	40a40533          	sub	a0,s0,a0
    3948:	5a853603          	ld	a2,1448(a0) # 15a8 <.LBB34_3+0x108>
    394c:	00cb8633          	add	a2,s7,a2
    3950:	f6843503          	ld	a0,-152(s0)
    3954:	00a60633          	add	a2,a2,a0
    3958:	00b60633          	add	a2,a2,a1
    395c:	0056063b          	addw	a2,a2,t0
    3960:	40000bb7          	lui	s7,0x40000
    3964:	00001537          	lui	a0,0x1
    3968:	40a40533          	sub	a0,s0,a0
    396c:	7ac53423          	sd	a2,1960(a0) # 17a8 <.LBB34_3+0x308>
    3970:	00065463          	bgez	a2,3978 <.LBB34_78>
    3974:	c0000bb7          	lui	s7,0xc0000

0000000000003978 <.LBB34_78>:
    3978:	00001537          	lui	a0,0x1
    397c:	40a40533          	sub	a0,s0,a0
    3980:	5b053603          	ld	a2,1456(a0) # 15b0 <.LBB34_3+0x110>
    3984:	00c90633          	add	a2,s2,a2
    3988:	f6043503          	ld	a0,-160(s0)
    398c:	00a60633          	add	a2,a2,a0
    3990:	00b60633          	add	a2,a2,a1
    3994:	0056063b          	addw	a2,a2,t0
    3998:	40000937          	lui	s2,0x40000
    399c:	00001537          	lui	a0,0x1
    39a0:	40a40533          	sub	a0,s0,a0
    39a4:	7ac53823          	sd	a2,1968(a0) # 17b0 <.LBB34_3+0x310>
    39a8:	00065463          	bgez	a2,39b0 <.LBB34_80>
    39ac:	c0000937          	lui	s2,0xc0000

00000000000039b0 <.LBB34_80>:
    39b0:	00001537          	lui	a0,0x1
    39b4:	40a40533          	sub	a0,s0,a0
    39b8:	5b853603          	ld	a2,1464(a0) # 15b8 <.LBB34_3+0x118>
    39bc:	00c30633          	add	a2,t1,a2
    39c0:	f5843503          	ld	a0,-168(s0)
    39c4:	00a60633          	add	a2,a2,a0
    39c8:	00b60633          	add	a2,a2,a1
    39cc:	0056063b          	addw	a2,a2,t0
    39d0:	40000337          	lui	t1,0x40000
    39d4:	00001537          	lui	a0,0x1
    39d8:	40a40533          	sub	a0,s0,a0
    39dc:	74c53423          	sd	a2,1864(a0) # 1748 <.LBB34_3+0x2a8>
    39e0:	00065463          	bgez	a2,39e8 <.LBB34_82>
    39e4:	c0000337          	lui	t1,0xc0000

00000000000039e8 <.LBB34_82>:
    39e8:	00001537          	lui	a0,0x1
    39ec:	40a40533          	sub	a0,s0,a0
    39f0:	5c053603          	ld	a2,1472(a0) # 15c0 <.LBB34_3+0x120>
    39f4:	00ce8633          	add	a2,t4,a2
    39f8:	f5043503          	ld	a0,-176(s0)
    39fc:	00a60633          	add	a2,a2,a0
    3a00:	00b60633          	add	a2,a2,a1
    3a04:	0056063b          	addw	a2,a2,t0
    3a08:	40000eb7          	lui	t4,0x40000
    3a0c:	00001537          	lui	a0,0x1
    3a10:	40a40533          	sub	a0,s0,a0
    3a14:	6ec53c23          	sd	a2,1784(a0) # 16f8 <.LBB34_3+0x258>
    3a18:	00065463          	bgez	a2,3a20 <.LBB34_84>
    3a1c:	c0000eb7          	lui	t4,0xc0000

0000000000003a20 <.LBB34_84>:
    3a20:	f8d43823          	sd	a3,-112(s0)
    3a24:	00001537          	lui	a0,0x1
    3a28:	40a40533          	sub	a0,s0,a0
    3a2c:	5c853603          	ld	a2,1480(a0) # 15c8 <.LBB34_3+0x128>
    3a30:	00001537          	lui	a0,0x1
    3a34:	40a40533          	sub	a0,s0,a0
    3a38:	7c853503          	ld	a0,1992(a0) # 17c8 <.LBB34_3+0x328>
    3a3c:	00c50633          	add	a2,a0,a2
    3a40:	f4843503          	ld	a0,-184(s0)
    3a44:	00a60633          	add	a2,a2,a0
    3a48:	00b60633          	add	a2,a2,a1
    3a4c:	0056053b          	addw	a0,a2,t0
    3a50:	40000637          	lui	a2,0x40000
    3a54:	000016b7          	lui	a3,0x1
    3a58:	40d406b3          	sub	a3,s0,a3
    3a5c:	4ea6b423          	sd	a0,1256(a3) # 14e8 <.LBB34_3+0x48>
    3a60:	f9043683          	ld	a3,-112(s0)
    3a64:	00055463          	bgez	a0,3a6c <.LBB34_86>
    3a68:	c0000637          	lui	a2,0xc0000

0000000000003a6c <.LBB34_86>:
    3a6c:	f8d43823          	sd	a3,-112(s0)
    3a70:	00001537          	lui	a0,0x1
    3a74:	40a40533          	sub	a0,s0,a0
    3a78:	4ec53023          	sd	a2,1248(a0) # 14e0 <.LBB34_3+0x40>
    3a7c:	00001537          	lui	a0,0x1
    3a80:	40a40533          	sub	a0,s0,a0
    3a84:	5d053603          	ld	a2,1488(a0) # 15d0 <.LBB34_3+0x130>
    3a88:	00001537          	lui	a0,0x1
    3a8c:	40a40533          	sub	a0,s0,a0
    3a90:	7d053503          	ld	a0,2000(a0) # 17d0 <.LBB34_3+0x330>
    3a94:	00c50633          	add	a2,a0,a2
    3a98:	f4043503          	ld	a0,-192(s0)
    3a9c:	00a60633          	add	a2,a2,a0
    3aa0:	00b60633          	add	a2,a2,a1
    3aa4:	0056053b          	addw	a0,a2,t0
    3aa8:	40000637          	lui	a2,0x40000
    3aac:	000016b7          	lui	a3,0x1
    3ab0:	40d406b3          	sub	a3,s0,a3
    3ab4:	48a6b423          	sd	a0,1160(a3) # 1488 <.LBB34_2+0x58c>
    3ab8:	f9043683          	ld	a3,-112(s0)
    3abc:	00055463          	bgez	a0,3ac4 <.LBB34_88>
    3ac0:	c0000637          	lui	a2,0xc0000

0000000000003ac4 <.LBB34_88>:
    3ac4:	f8d43823          	sd	a3,-112(s0)
    3ac8:	00001537          	lui	a0,0x1
    3acc:	40a40533          	sub	a0,s0,a0
    3ad0:	48c53023          	sd	a2,1152(a0) # 1480 <.LBB34_2+0x584>
    3ad4:	00001537          	lui	a0,0x1
    3ad8:	40a40533          	sub	a0,s0,a0
    3adc:	5d853603          	ld	a2,1496(a0) # 15d8 <.LBB34_3+0x138>
    3ae0:	00001537          	lui	a0,0x1
    3ae4:	40a40533          	sub	a0,s0,a0
    3ae8:	7d853503          	ld	a0,2008(a0) # 17d8 <.LBB34_3+0x338>
    3aec:	00c50633          	add	a2,a0,a2
    3af0:	f1043503          	ld	a0,-240(s0)
    3af4:	00a60633          	add	a2,a2,a0
    3af8:	00b60633          	add	a2,a2,a1
    3afc:	0056053b          	addw	a0,a2,t0
    3b00:	40000637          	lui	a2,0x40000
    3b04:	000016b7          	lui	a3,0x1
    3b08:	40d406b3          	sub	a3,s0,a3
    3b0c:	42a6b023          	sd	a0,1056(a3) # 1420 <.LBB34_2+0x524>
    3b10:	f9043683          	ld	a3,-112(s0)
    3b14:	00055463          	bgez	a0,3b1c <.LBB34_90>
    3b18:	c0000637          	lui	a2,0xc0000

0000000000003b1c <.LBB34_90>:
    3b1c:	f8d43823          	sd	a3,-112(s0)
    3b20:	00001537          	lui	a0,0x1
    3b24:	40a40533          	sub	a0,s0,a0
    3b28:	40c53c23          	sd	a2,1048(a0) # 1418 <.LBB34_2+0x51c>
    3b2c:	00001537          	lui	a0,0x1
    3b30:	40a40533          	sub	a0,s0,a0
    3b34:	5e053603          	ld	a2,1504(a0) # 15e0 <.LBB34_3+0x140>
    3b38:	00001537          	lui	a0,0x1
    3b3c:	40a40533          	sub	a0,s0,a0
    3b40:	7e053503          	ld	a0,2016(a0) # 17e0 <.LBB34_3+0x340>
    3b44:	00c50633          	add	a2,a0,a2
    3b48:	f0843503          	ld	a0,-248(s0)
    3b4c:	00a60633          	add	a2,a2,a0
    3b50:	00b60633          	add	a2,a2,a1
    3b54:	0056053b          	addw	a0,a2,t0
    3b58:	40000637          	lui	a2,0x40000
    3b5c:	000016b7          	lui	a3,0x1
    3b60:	40d406b3          	sub	a3,s0,a3
    3b64:	3ca6b423          	sd	a0,968(a3) # 13c8 <.LBB34_2+0x4cc>
    3b68:	f9043683          	ld	a3,-112(s0)
    3b6c:	00055463          	bgez	a0,3b74 <.LBB34_92>
    3b70:	c0000637          	lui	a2,0xc0000

0000000000003b74 <.LBB34_92>:
    3b74:	f8d43823          	sd	a3,-112(s0)
    3b78:	00001537          	lui	a0,0x1
    3b7c:	40a40533          	sub	a0,s0,a0
    3b80:	3ac53c23          	sd	a2,952(a0) # 13b8 <.LBB34_2+0x4bc>
    3b84:	00001537          	lui	a0,0x1
    3b88:	40a40533          	sub	a0,s0,a0
    3b8c:	5e853603          	ld	a2,1512(a0) # 15e8 <.LBB34_3+0x148>
    3b90:	00001537          	lui	a0,0x1
    3b94:	40a40533          	sub	a0,s0,a0
    3b98:	7e853503          	ld	a0,2024(a0) # 17e8 <.LBB34_3+0x348>
    3b9c:	00c50633          	add	a2,a0,a2
    3ba0:	f0043503          	ld	a0,-256(s0)
    3ba4:	00a60633          	add	a2,a2,a0
    3ba8:	00b60633          	add	a2,a2,a1
    3bac:	0056053b          	addw	a0,a2,t0
    3bb0:	40000637          	lui	a2,0x40000
    3bb4:	000016b7          	lui	a3,0x1
    3bb8:	40d406b3          	sub	a3,s0,a3
    3bbc:	36a6b823          	sd	a0,880(a3) # 1370 <.LBB34_2+0x474>
    3bc0:	f9043683          	ld	a3,-112(s0)
    3bc4:	00055463          	bgez	a0,3bcc <.LBB34_94>
    3bc8:	c0000637          	lui	a2,0xc0000

0000000000003bcc <.LBB34_94>:
    3bcc:	f8d43823          	sd	a3,-112(s0)
    3bd0:	00001537          	lui	a0,0x1
    3bd4:	40a40533          	sub	a0,s0,a0
    3bd8:	36c53023          	sd	a2,864(a0) # 1360 <.LBB34_2+0x464>
    3bdc:	00001537          	lui	a0,0x1
    3be0:	40a40533          	sub	a0,s0,a0
    3be4:	5f053603          	ld	a2,1520(a0) # 15f0 <.LBB34_3+0x150>
    3be8:	00001537          	lui	a0,0x1
    3bec:	40a40533          	sub	a0,s0,a0
    3bf0:	7f053503          	ld	a0,2032(a0) # 17f0 <.LBB34_3+0x350>
    3bf4:	00c50633          	add	a2,a0,a2
    3bf8:	ef843503          	ld	a0,-264(s0)
    3bfc:	00a60633          	add	a2,a2,a0
    3c00:	00b60633          	add	a2,a2,a1
    3c04:	0056053b          	addw	a0,a2,t0
    3c08:	40000637          	lui	a2,0x40000
    3c0c:	000016b7          	lui	a3,0x1
    3c10:	40d406b3          	sub	a3,s0,a3
    3c14:	30a6b423          	sd	a0,776(a3) # 1308 <.LBB34_2+0x40c>
    3c18:	f9043683          	ld	a3,-112(s0)
    3c1c:	00055463          	bgez	a0,3c24 <.LBB34_96>
    3c20:	c0000637          	lui	a2,0xc0000

0000000000003c24 <.LBB34_96>:
    3c24:	f8d43823          	sd	a3,-112(s0)
    3c28:	00001537          	lui	a0,0x1
    3c2c:	40a40533          	sub	a0,s0,a0
    3c30:	2ec53c23          	sd	a2,760(a0) # 12f8 <.LBB34_2+0x3fc>
    3c34:	00001537          	lui	a0,0x1
    3c38:	40a40533          	sub	a0,s0,a0
    3c3c:	5f853603          	ld	a2,1528(a0) # 15f8 <.LBB34_3+0x158>
    3c40:	00001537          	lui	a0,0x1
    3c44:	40a40533          	sub	a0,s0,a0
    3c48:	7f853503          	ld	a0,2040(a0) # 17f8 <.LBB34_3+0x358>
    3c4c:	00c50633          	add	a2,a0,a2
    3c50:	ef043503          	ld	a0,-272(s0)
    3c54:	00a60633          	add	a2,a2,a0
    3c58:	00b60633          	add	a2,a2,a1
    3c5c:	0056053b          	addw	a0,a2,t0
    3c60:	40000637          	lui	a2,0x40000
    3c64:	000016b7          	lui	a3,0x1
    3c68:	40d406b3          	sub	a3,s0,a3
    3c6c:	28a6bc23          	sd	a0,664(a3) # 1298 <.LBB34_2+0x39c>
    3c70:	f9043683          	ld	a3,-112(s0)
    3c74:	00055463          	bgez	a0,3c7c <.LBB34_98>
    3c78:	c0000637          	lui	a2,0xc0000

0000000000003c7c <.LBB34_98>:
    3c7c:	f8d43823          	sd	a3,-112(s0)
    3c80:	00001537          	lui	a0,0x1
    3c84:	40a40533          	sub	a0,s0,a0
    3c88:	28c53823          	sd	a2,656(a0) # 1290 <.LBB34_2+0x394>
    3c8c:	00001537          	lui	a0,0x1
    3c90:	40a40533          	sub	a0,s0,a0
    3c94:	60053603          	ld	a2,1536(a0) # 1600 <.LBB34_3+0x160>
    3c98:	80043503          	ld	a0,-2048(s0)
    3c9c:	00c50633          	add	a2,a0,a2
    3ca0:	ee843503          	ld	a0,-280(s0)
    3ca4:	00a60633          	add	a2,a2,a0
    3ca8:	00b60633          	add	a2,a2,a1
    3cac:	0056053b          	addw	a0,a2,t0
    3cb0:	40000637          	lui	a2,0x40000
    3cb4:	000016b7          	lui	a3,0x1
    3cb8:	40d406b3          	sub	a3,s0,a3
    3cbc:	24a6b023          	sd	a0,576(a3) # 1240 <.LBB34_2+0x344>
    3cc0:	f9043683          	ld	a3,-112(s0)
    3cc4:	00055463          	bgez	a0,3ccc <.LBB34_100>
    3cc8:	c0000637          	lui	a2,0xc0000

0000000000003ccc <.LBB34_100>:
    3ccc:	f8d43823          	sd	a3,-112(s0)
    3cd0:	00001537          	lui	a0,0x1
    3cd4:	40a40533          	sub	a0,s0,a0
    3cd8:	22c53c23          	sd	a2,568(a0) # 1238 <.LBB34_2+0x33c>
    3cdc:	00001537          	lui	a0,0x1
    3ce0:	40a40533          	sub	a0,s0,a0
    3ce4:	60853603          	ld	a2,1544(a0) # 1608 <.LBB34_3+0x168>
    3ce8:	80843503          	ld	a0,-2040(s0)
    3cec:	00c50633          	add	a2,a0,a2
    3cf0:	ee043503          	ld	a0,-288(s0)
    3cf4:	00a60633          	add	a2,a2,a0
    3cf8:	00b60633          	add	a2,a2,a1
    3cfc:	0056053b          	addw	a0,a2,t0
    3d00:	40000637          	lui	a2,0x40000
    3d04:	000016b7          	lui	a3,0x1
    3d08:	40d406b3          	sub	a3,s0,a3
    3d0c:	1ca6bc23          	sd	a0,472(a3) # 11d8 <.LBB34_2+0x2dc>
    3d10:	f9043683          	ld	a3,-112(s0)
    3d14:	00055463          	bgez	a0,3d1c <.LBB34_102>
    3d18:	c0000637          	lui	a2,0xc0000

0000000000003d1c <.LBB34_102>:
    3d1c:	f8d43823          	sd	a3,-112(s0)
    3d20:	00001537          	lui	a0,0x1
    3d24:	40a40533          	sub	a0,s0,a0
    3d28:	1cc53823          	sd	a2,464(a0) # 11d0 <.LBB34_2+0x2d4>
    3d2c:	00001537          	lui	a0,0x1
    3d30:	40a40533          	sub	a0,s0,a0
    3d34:	61053603          	ld	a2,1552(a0) # 1610 <.LBB34_3+0x170>
    3d38:	81043503          	ld	a0,-2032(s0)
    3d3c:	00c50633          	add	a2,a0,a2
    3d40:	ed843503          	ld	a0,-296(s0)
    3d44:	00a60633          	add	a2,a2,a0
    3d48:	00b60633          	add	a2,a2,a1
    3d4c:	0056053b          	addw	a0,a2,t0
    3d50:	40000637          	lui	a2,0x40000
    3d54:	000016b7          	lui	a3,0x1
    3d58:	40d406b3          	sub	a3,s0,a3
    3d5c:	16a6b823          	sd	a0,368(a3) # 1170 <.LBB34_2+0x274>
    3d60:	f9043683          	ld	a3,-112(s0)
    3d64:	00055463          	bgez	a0,3d6c <.LBB34_104>
    3d68:	c0000637          	lui	a2,0xc0000

0000000000003d6c <.LBB34_104>:
    3d6c:	f8d43823          	sd	a3,-112(s0)
    3d70:	00001537          	lui	a0,0x1
    3d74:	40a40533          	sub	a0,s0,a0
    3d78:	16c53423          	sd	a2,360(a0) # 1168 <.LBB34_2+0x26c>
    3d7c:	00001537          	lui	a0,0x1
    3d80:	40a40533          	sub	a0,s0,a0
    3d84:	61853603          	ld	a2,1560(a0) # 1618 <.LBB34_3+0x178>
    3d88:	81843503          	ld	a0,-2024(s0)
    3d8c:	00c50633          	add	a2,a0,a2
    3d90:	ed043503          	ld	a0,-304(s0)
    3d94:	00a60633          	add	a2,a2,a0
    3d98:	00b60633          	add	a2,a2,a1
    3d9c:	0056053b          	addw	a0,a2,t0
    3da0:	40000637          	lui	a2,0x40000
    3da4:	000016b7          	lui	a3,0x1
    3da8:	40d406b3          	sub	a3,s0,a3
    3dac:	10a6b423          	sd	a0,264(a3) # 1108 <.LBB34_2+0x20c>
    3db0:	f9043683          	ld	a3,-112(s0)
    3db4:	00055463          	bgez	a0,3dbc <.LBB34_106>
    3db8:	c0000637          	lui	a2,0xc0000

0000000000003dbc <.LBB34_106>:
    3dbc:	f8d43823          	sd	a3,-112(s0)
    3dc0:	00001537          	lui	a0,0x1
    3dc4:	40a40533          	sub	a0,s0,a0
    3dc8:	10c53023          	sd	a2,256(a0) # 1100 <.LBB34_2+0x204>
    3dcc:	00001537          	lui	a0,0x1
    3dd0:	40a40533          	sub	a0,s0,a0
    3dd4:	62053603          	ld	a2,1568(a0) # 1620 <.LBB34_3+0x180>
    3dd8:	82043503          	ld	a0,-2016(s0)
    3ddc:	00c50633          	add	a2,a0,a2
    3de0:	ec843503          	ld	a0,-312(s0)
    3de4:	00a60633          	add	a2,a2,a0
    3de8:	00b60633          	add	a2,a2,a1
    3dec:	0056053b          	addw	a0,a2,t0
    3df0:	40000637          	lui	a2,0x40000
    3df4:	000016b7          	lui	a3,0x1
    3df8:	40d406b3          	sub	a3,s0,a3
    3dfc:	08a6b823          	sd	a0,144(a3) # 1090 <.LBB34_2+0x194>
    3e00:	f9043683          	ld	a3,-112(s0)
    3e04:	00055463          	bgez	a0,3e0c <.LBB34_108>
    3e08:	c0000637          	lui	a2,0xc0000

0000000000003e0c <.LBB34_108>:
    3e0c:	f8d43823          	sd	a3,-112(s0)
    3e10:	00001537          	lui	a0,0x1
    3e14:	40a40533          	sub	a0,s0,a0
    3e18:	08c53423          	sd	a2,136(a0) # 1088 <.LBB34_2+0x18c>
    3e1c:	00001537          	lui	a0,0x1
    3e20:	40a40533          	sub	a0,s0,a0
    3e24:	62853603          	ld	a2,1576(a0) # 1628 <.LBB34_3+0x188>
    3e28:	82843503          	ld	a0,-2008(s0)
    3e2c:	00c50633          	add	a2,a0,a2
    3e30:	ec043503          	ld	a0,-320(s0)
    3e34:	00a60633          	add	a2,a2,a0
    3e38:	00b60633          	add	a2,a2,a1
    3e3c:	0056053b          	addw	a0,a2,t0
    3e40:	40000637          	lui	a2,0x40000
    3e44:	000016b7          	lui	a3,0x1
    3e48:	40d406b3          	sub	a3,s0,a3
    3e4c:	02a6b423          	sd	a0,40(a3) # 1028 <.LBB34_2+0x12c>
    3e50:	f9043683          	ld	a3,-112(s0)
    3e54:	00055463          	bgez	a0,3e5c <.LBB34_110>
    3e58:	c0000637          	lui	a2,0xc0000

0000000000003e5c <.LBB34_110>:
    3e5c:	f8d43823          	sd	a3,-112(s0)
    3e60:	00001537          	lui	a0,0x1
    3e64:	40a40533          	sub	a0,s0,a0
    3e68:	02c53023          	sd	a2,32(a0) # 1020 <.LBB34_2+0x124>
    3e6c:	00001537          	lui	a0,0x1
    3e70:	40a40533          	sub	a0,s0,a0
    3e74:	63053603          	ld	a2,1584(a0) # 1630 <.LBB34_3+0x190>
    3e78:	83043503          	ld	a0,-2000(s0)
    3e7c:	00c50633          	add	a2,a0,a2
    3e80:	eb843503          	ld	a0,-328(s0)
    3e84:	00a60633          	add	a2,a2,a0
    3e88:	00b60633          	add	a2,a2,a1
    3e8c:	0056053b          	addw	a0,a2,t0
    3e90:	40000637          	lui	a2,0x40000
    3e94:	000016b7          	lui	a3,0x1
    3e98:	40d406b3          	sub	a3,s0,a3
    3e9c:	faa6b823          	sd	a0,-80(a3) # fb0 <.LBB34_2+0xb4>
    3ea0:	f9043683          	ld	a3,-112(s0)
    3ea4:	00055463          	bgez	a0,3eac <.LBB34_112>
    3ea8:	c0000637          	lui	a2,0xc0000

0000000000003eac <.LBB34_112>:
    3eac:	f8d43823          	sd	a3,-112(s0)
    3eb0:	00001537          	lui	a0,0x1
    3eb4:	40a40533          	sub	a0,s0,a0
    3eb8:	fac53423          	sd	a2,-88(a0) # fa8 <.LBB34_2+0xac>
    3ebc:	83843603          	ld	a2,-1992(s0)
    3ec0:	00160633          	add	a2,a2,ra
    3ec4:	eb043503          	ld	a0,-336(s0)
    3ec8:	00a60633          	add	a2,a2,a0
    3ecc:	00b60633          	add	a2,a2,a1
    3ed0:	0056053b          	addw	a0,a2,t0
    3ed4:	40000637          	lui	a2,0x40000
    3ed8:	000016b7          	lui	a3,0x1
    3edc:	40d406b3          	sub	a3,s0,a3
    3ee0:	f4a6b423          	sd	a0,-184(a3) # f48 <.LBB34_2+0x4c>
    3ee4:	f9043683          	ld	a3,-112(s0)
    3ee8:	00055463          	bgez	a0,3ef0 <.LBB34_114>
    3eec:	c0000637          	lui	a2,0xc0000

0000000000003ef0 <.LBB34_114>:
    3ef0:	f8d43823          	sd	a3,-112(s0)
    3ef4:	00001537          	lui	a0,0x1
    3ef8:	40a40533          	sub	a0,s0,a0
    3efc:	f4c53023          	sd	a2,-192(a0) # f40 <.LBB34_2+0x44>
    3f00:	84043603          	ld	a2,-1984(s0)
    3f04:	01660633          	add	a2,a2,s6
    3f08:	ea843503          	ld	a0,-344(s0)
    3f0c:	00a60633          	add	a2,a2,a0
    3f10:	00b60633          	add	a2,a2,a1
    3f14:	0056053b          	addw	a0,a2,t0
    3f18:	40000637          	lui	a2,0x40000
    3f1c:	000016b7          	lui	a3,0x1
    3f20:	40d406b3          	sub	a3,s0,a3
    3f24:	eca6bc23          	sd	a0,-296(a3) # ed8 <.LBB34_1+0xbd0>
    3f28:	f9043683          	ld	a3,-112(s0)
    3f2c:	00055463          	bgez	a0,3f34 <.LBB34_116>
    3f30:	c0000637          	lui	a2,0xc0000

0000000000003f34 <.LBB34_116>:
    3f34:	f8d43823          	sd	a3,-112(s0)
    3f38:	00001537          	lui	a0,0x1
    3f3c:	40a40533          	sub	a0,s0,a0
    3f40:	ecc53823          	sd	a2,-304(a0) # ed0 <.LBB34_1+0xbc8>
    3f44:	84843603          	ld	a2,-1976(s0)
    3f48:	01460633          	add	a2,a2,s4
    3f4c:	ea043503          	ld	a0,-352(s0)
    3f50:	00a60633          	add	a2,a2,a0
    3f54:	00b60633          	add	a2,a2,a1
    3f58:	0056053b          	addw	a0,a2,t0
    3f5c:	40000637          	lui	a2,0x40000
    3f60:	000016b7          	lui	a3,0x1
    3f64:	40d406b3          	sub	a3,s0,a3
    3f68:	e6a6b423          	sd	a0,-408(a3) # e68 <.LBB34_1+0xb60>
    3f6c:	f9043683          	ld	a3,-112(s0)
    3f70:	00055463          	bgez	a0,3f78 <.LBB34_118>
    3f74:	c0000637          	lui	a2,0xc0000

0000000000003f78 <.LBB34_118>:
    3f78:	f8d43823          	sd	a3,-112(s0)
    3f7c:	00001537          	lui	a0,0x1
    3f80:	40a40533          	sub	a0,s0,a0
    3f84:	e6c53023          	sd	a2,-416(a0) # e60 <.LBB34_1+0xb58>
    3f88:	85043603          	ld	a2,-1968(s0)
    3f8c:	00001537          	lui	a0,0x1
    3f90:	40a40533          	sub	a0,s0,a0
    3f94:	63853503          	ld	a0,1592(a0) # 1638 <.LBB34_3+0x198>
    3f98:	00a60633          	add	a2,a2,a0
    3f9c:	e9843503          	ld	a0,-360(s0)
    3fa0:	00a60633          	add	a2,a2,a0
    3fa4:	00b60633          	add	a2,a2,a1
    3fa8:	0056053b          	addw	a0,a2,t0
    3fac:	40000637          	lui	a2,0x40000
    3fb0:	000016b7          	lui	a3,0x1
    3fb4:	40d406b3          	sub	a3,s0,a3
    3fb8:	dea6bc23          	sd	a0,-520(a3) # df8 <.LBB34_1+0xaf0>
    3fbc:	f9043683          	ld	a3,-112(s0)
    3fc0:	00055463          	bgez	a0,3fc8 <.LBB34_120>
    3fc4:	c0000637          	lui	a2,0xc0000

0000000000003fc8 <.LBB34_120>:
    3fc8:	f8d43823          	sd	a3,-112(s0)
    3fcc:	00001537          	lui	a0,0x1
    3fd0:	40a40533          	sub	a0,s0,a0
    3fd4:	dec53823          	sd	a2,-528(a0) # df0 <.LBB34_1+0xae8>
    3fd8:	85843603          	ld	a2,-1960(s0)
    3fdc:	00001537          	lui	a0,0x1
    3fe0:	40a40533          	sub	a0,s0,a0
    3fe4:	64053503          	ld	a0,1600(a0) # 1640 <.LBB34_3+0x1a0>
    3fe8:	00a60633          	add	a2,a2,a0
    3fec:	e9043503          	ld	a0,-368(s0)
    3ff0:	00a60633          	add	a2,a2,a0
    3ff4:	00b60633          	add	a2,a2,a1
    3ff8:	0056053b          	addw	a0,a2,t0
    3ffc:	40000637          	lui	a2,0x40000
    4000:	000016b7          	lui	a3,0x1
    4004:	40d406b3          	sub	a3,s0,a3
    4008:	d8a6b823          	sd	a0,-624(a3) # d90 <.LBB34_1+0xa88>
    400c:	f9043683          	ld	a3,-112(s0)
    4010:	00055463          	bgez	a0,4018 <.LBB34_122>
    4014:	c0000637          	lui	a2,0xc0000

0000000000004018 <.LBB34_122>:
    4018:	f8d43823          	sd	a3,-112(s0)
    401c:	00001537          	lui	a0,0x1
    4020:	40a40533          	sub	a0,s0,a0
    4024:	d8c53423          	sd	a2,-632(a0) # d88 <.LBB34_1+0xa80>
    4028:	00001537          	lui	a0,0x1
    402c:	40a40533          	sub	a0,s0,a0
    4030:	64853603          	ld	a2,1608(a0) # 1648 <.LBB34_3+0x1a8>
    4034:	86043503          	ld	a0,-1952(s0)
    4038:	00c50633          	add	a2,a0,a2
    403c:	e8843503          	ld	a0,-376(s0)
    4040:	00a60633          	add	a2,a2,a0
    4044:	00b60633          	add	a2,a2,a1
    4048:	0056053b          	addw	a0,a2,t0
    404c:	40000637          	lui	a2,0x40000
    4050:	000016b7          	lui	a3,0x1
    4054:	40d406b3          	sub	a3,s0,a3
    4058:	d0a6bc23          	sd	a0,-744(a3) # d18 <.LBB34_1+0xa10>
    405c:	f9043683          	ld	a3,-112(s0)
    4060:	00055463          	bgez	a0,4068 <.LBB34_124>
    4064:	c0000637          	lui	a2,0xc0000

0000000000004068 <.LBB34_124>:
    4068:	f8d43823          	sd	a3,-112(s0)
    406c:	00001537          	lui	a0,0x1
    4070:	40a40533          	sub	a0,s0,a0
    4074:	d0c53823          	sd	a2,-752(a0) # d10 <.LBB34_1+0xa08>
    4078:	00001537          	lui	a0,0x1
    407c:	40a40533          	sub	a0,s0,a0
    4080:	65053603          	ld	a2,1616(a0) # 1650 <.LBB34_3+0x1b0>
    4084:	86843503          	ld	a0,-1944(s0)
    4088:	00c50633          	add	a2,a0,a2
    408c:	e8043503          	ld	a0,-384(s0)
    4090:	00a60633          	add	a2,a2,a0
    4094:	00b60633          	add	a2,a2,a1
    4098:	0056053b          	addw	a0,a2,t0
    409c:	40000637          	lui	a2,0x40000
    40a0:	000016b7          	lui	a3,0x1
    40a4:	40d406b3          	sub	a3,s0,a3
    40a8:	caa6b023          	sd	a0,-864(a3) # ca0 <.LBB34_1+0x998>
    40ac:	f9043683          	ld	a3,-112(s0)
    40b0:	00055463          	bgez	a0,40b8 <.LBB34_126>
    40b4:	c0000637          	lui	a2,0xc0000

00000000000040b8 <.LBB34_126>:
    40b8:	f8d43823          	sd	a3,-112(s0)
    40bc:	00001537          	lui	a0,0x1
    40c0:	40a40533          	sub	a0,s0,a0
    40c4:	c8c53c23          	sd	a2,-872(a0) # c98 <.LBB34_1+0x990>
    40c8:	87043603          	ld	a2,-1936(s0)
    40cc:	01f60633          	add	a2,a2,t6
    40d0:	e7843503          	ld	a0,-392(s0)
    40d4:	00a60633          	add	a2,a2,a0
    40d8:	00b60633          	add	a2,a2,a1
    40dc:	0056053b          	addw	a0,a2,t0
    40e0:	40000637          	lui	a2,0x40000
    40e4:	000016b7          	lui	a3,0x1
    40e8:	40d406b3          	sub	a3,s0,a3
    40ec:	c2a6b823          	sd	a0,-976(a3) # c30 <.LBB34_1+0x928>
    40f0:	f9043683          	ld	a3,-112(s0)
    40f4:	00055463          	bgez	a0,40fc <.LBB34_128>
    40f8:	c0000637          	lui	a2,0xc0000

00000000000040fc <.LBB34_128>:
    40fc:	f8d43823          	sd	a3,-112(s0)
    4100:	00001537          	lui	a0,0x1
    4104:	40a40533          	sub	a0,s0,a0
    4108:	c2c53423          	sd	a2,-984(a0) # c28 <.LBB34_1+0x920>
    410c:	87843603          	ld	a2,-1928(s0)
    4110:	01c60633          	add	a2,a2,t3
    4114:	e7043503          	ld	a0,-400(s0)
    4118:	00a60633          	add	a2,a2,a0
    411c:	00b60633          	add	a2,a2,a1
    4120:	0056053b          	addw	a0,a2,t0
    4124:	40000637          	lui	a2,0x40000
    4128:	000016b7          	lui	a3,0x1
    412c:	40d406b3          	sub	a3,s0,a3
    4130:	bca6b823          	sd	a0,-1072(a3) # bd0 <.LBB34_1+0x8c8>
    4134:	f9043683          	ld	a3,-112(s0)
    4138:	00055463          	bgez	a0,4140 <.LBB34_130>
    413c:	c0000637          	lui	a2,0xc0000

0000000000004140 <.LBB34_130>:
    4140:	00001537          	lui	a0,0x1
    4144:	40a40533          	sub	a0,s0,a0
    4148:	bcc53423          	sd	a2,-1080(a0) # bc8 <.LBB34_1+0x8c0>
    414c:	87143c23          	sd	a7,-1928(s0)
    4150:	88043603          	ld	a2,-1920(s0)
    4154:	01b60633          	add	a2,a2,s11
    4158:	e6843503          	ld	a0,-408(s0)
    415c:	00a60633          	add	a2,a2,a0
    4160:	00b605b3          	add	a1,a2,a1
    4164:	0055853b          	addw	a0,a1,t0
    4168:	400005b7          	lui	a1,0x40000
    416c:	00001637          	lui	a2,0x1
    4170:	40c40633          	sub	a2,s0,a2
    4174:	b6a63823          	sd	a0,-1168(a2) # b70 <.LBB34_1+0x868>
    4178:	00055463          	bgez	a0,4180 <.LBB34_132>
    417c:	c00005b7          	lui	a1,0xc0000

0000000000004180 <.LBB34_132>:
    4180:	00001537          	lui	a0,0x1
    4184:	40a40533          	sub	a0,s0,a0
    4188:	b6b53023          	sd	a1,-1184(a0) # b60 <.LBB34_1+0x858>
    418c:	00001537          	lui	a0,0x1
    4190:	40a40533          	sub	a0,s0,a0
    4194:	4d853503          	ld	a0,1240(a0) # 14d8 <.LBB34_3+0x38>
    4198:	00451593          	slli	a1,a0,0x4
    419c:	00a58533          	add	a0,a1,a0
    41a0:	000015b7          	lui	a1,0x1
    41a4:	40b405b3          	sub	a1,s0,a1
    41a8:	5a05b583          	ld	a1,1440(a1) # 15a0 <.LBB34_3+0x100>
    41ac:	00bd05b3          	add	a1,s10,a1
    41b0:	f8843603          	ld	a2,-120(s0)
    41b4:	00c585b3          	add	a1,a1,a2
    41b8:	00a585b3          	add	a1,a1,a0
    41bc:	005585bb          	addw	a1,a1,t0
    41c0:	400008b7          	lui	a7,0x40000
    41c4:	88b43423          	sd	a1,-1912(s0)
    41c8:	8e843603          	ld	a2,-1816(s0)
    41cc:	0005d463          	bgez	a1,41d4 <.LBB34_134>
    41d0:	c00008b7          	lui	a7,0xc0000

00000000000041d4 <.LBB34_134>:
    41d4:	86943423          	sd	s1,-1944(s0)
    41d8:	000015b7          	lui	a1,0x1
    41dc:	40b405b3          	sub	a1,s0,a1
    41e0:	5985b583          	ld	a1,1432(a1) # 1598 <.LBB34_3+0xf8>
    41e4:	00b685b3          	add	a1,a3,a1
    41e8:	f8043683          	ld	a3,-128(s0)
    41ec:	00d585b3          	add	a1,a1,a3
    41f0:	00a585b3          	add	a1,a1,a0
    41f4:	005585bb          	addw	a1,a1,t0
    41f8:	40000d37          	lui	s10,0x40000
    41fc:	88b43823          	sd	a1,-1904(s0)
    4200:	0005d463          	bgez	a1,4208 <.LBB34_136>
    4204:	c0000d37          	lui	s10,0xc0000

0000000000004208 <.LBB34_136>:
    4208:	000015b7          	lui	a1,0x1
    420c:	40b405b3          	sub	a1,s0,a1
    4210:	5905b583          	ld	a1,1424(a1) # 1590 <.LBB34_3+0xf0>
    4214:	89843683          	ld	a3,-1896(s0)
    4218:	00b685b3          	add	a1,a3,a1
    421c:	f7843683          	ld	a3,-136(s0)
    4220:	00d585b3          	add	a1,a1,a3
    4224:	00a585b3          	add	a1,a1,a0
    4228:	005585bb          	addw	a1,a1,t0
    422c:	400004b7          	lui	s1,0x40000
    4230:	88943c23          	sd	s1,-1896(s0)
    4234:	88b43023          	sd	a1,-1920(s0)
    4238:	0005d663          	bgez	a1,4244 <.LBB34_138>
    423c:	c00005b7          	lui	a1,0xc0000
    4240:	88b43c23          	sd	a1,-1896(s0)

0000000000004244 <.LBB34_138>:
    4244:	000015b7          	lui	a1,0x1
    4248:	40b405b3          	sub	a1,s0,a1
    424c:	7d25b423          	sd	s2,1992(a1) # 17c8 <.LBB34_3+0x328>
    4250:	000015b7          	lui	a1,0x1
    4254:	40b405b3          	sub	a1,s0,a1
    4258:	5885b583          	ld	a1,1416(a1) # 1588 <.LBB34_3+0xe8>
    425c:	8a043683          	ld	a3,-1888(s0)
    4260:	00b685b3          	add	a1,a3,a1
    4264:	f7043683          	ld	a3,-144(s0)
    4268:	00d585b3          	add	a1,a1,a3
    426c:	00a585b3          	add	a1,a1,a0
    4270:	005585bb          	addw	a1,a1,t0
    4274:	8ab43023          	sd	a1,-1888(s0)
    4278:	0005d463          	bgez	a1,4280 <.LBB34_140>
    427c:	c00004b7          	lui	s1,0xc0000

0000000000004280 <.LBB34_140>:
    4280:	000015b7          	lui	a1,0x1
    4284:	40b405b3          	sub	a1,s0,a1
    4288:	5a85b583          	ld	a1,1448(a1) # 15a8 <.LBB34_3+0x108>
    428c:	8a843683          	ld	a3,-1880(s0)
    4290:	00b685b3          	add	a1,a3,a1
    4294:	f6843683          	ld	a3,-152(s0)
    4298:	00d585b3          	add	a1,a1,a3
    429c:	00a585b3          	add	a1,a1,a0
    42a0:	005585bb          	addw	a1,a1,t0
    42a4:	40000937          	lui	s2,0x40000
    42a8:	8b243423          	sd	s2,-1880(s0)
    42ac:	84b43823          	sd	a1,-1968(s0)
    42b0:	0005d663          	bgez	a1,42bc <.LBB34_142>
    42b4:	c00005b7          	lui	a1,0xc0000
    42b8:	8ab43423          	sd	a1,-1880(s0)

00000000000042bc <.LBB34_142>:
    42bc:	000015b7          	lui	a1,0x1
    42c0:	40b405b3          	sub	a1,s0,a1
    42c4:	6fd5b823          	sd	t4,1776(a1) # 16f0 <.LBB34_3+0x250>
    42c8:	000015b7          	lui	a1,0x1
    42cc:	40b405b3          	sub	a1,s0,a1
    42d0:	5b05b583          	ld	a1,1456(a1) # 15b0 <.LBB34_3+0x110>
    42d4:	8b043683          	ld	a3,-1872(s0)
    42d8:	00b685b3          	add	a1,a3,a1
    42dc:	f6043683          	ld	a3,-160(s0)
    42e0:	00d585b3          	add	a1,a1,a3
    42e4:	00a585b3          	add	a1,a1,a0
    42e8:	005585bb          	addw	a1,a1,t0
    42ec:	000016b7          	lui	a3,0x1
    42f0:	40d406b3          	sub	a3,s0,a3
    42f4:	7cb6b023          	sd	a1,1984(a3) # 17c0 <.LBB34_3+0x320>
    42f8:	0005d463          	bgez	a1,4300 <.LBB34_144>
    42fc:	c0000937          	lui	s2,0xc0000

0000000000004300 <.LBB34_144>:
    4300:	000015b7          	lui	a1,0x1
    4304:	40b405b3          	sub	a1,s0,a1
    4308:	5b85b583          	ld	a1,1464(a1) # 15b8 <.LBB34_3+0x118>
    430c:	8b843683          	ld	a3,-1864(s0)
    4310:	00b685b3          	add	a1,a3,a1
    4314:	f5843683          	ld	a3,-168(s0)
    4318:	00d585b3          	add	a1,a1,a3
    431c:	00a585b3          	add	a1,a1,a0
    4320:	005585bb          	addw	a1,a1,t0
    4324:	40000eb7          	lui	t4,0x40000
    4328:	8bd43c23          	sd	t4,-1864(s0)
    432c:	000016b7          	lui	a3,0x1
    4330:	40d406b3          	sub	a3,s0,a3
    4334:	72b6bc23          	sd	a1,1848(a3) # 1738 <.LBB34_3+0x298>
    4338:	0005d663          	bgez	a1,4344 <.LBB34_146>
    433c:	c00005b7          	lui	a1,0xc0000
    4340:	8ab43c23          	sd	a1,-1864(s0)

0000000000004344 <.LBB34_146>:
    4344:	000015b7          	lui	a1,0x1
    4348:	40b405b3          	sub	a1,s0,a1
    434c:	5c05b583          	ld	a1,1472(a1) # 15c0 <.LBB34_3+0x120>
    4350:	8c043683          	ld	a3,-1856(s0)
    4354:	00b685b3          	add	a1,a3,a1
    4358:	f5043683          	ld	a3,-176(s0)
    435c:	00d585b3          	add	a1,a1,a3
    4360:	00a585b3          	add	a1,a1,a0
    4364:	005585bb          	addw	a1,a1,t0
    4368:	000016b7          	lui	a3,0x1
    436c:	40d406b3          	sub	a3,s0,a3
    4370:	6eb6b423          	sd	a1,1768(a3) # 16e8 <.LBB34_3+0x248>
    4374:	0005d463          	bgez	a1,437c <.LBB34_148>
    4378:	c0000eb7          	lui	t4,0xc0000

000000000000437c <.LBB34_148>:
    437c:	000015b7          	lui	a1,0x1
    4380:	40b405b3          	sub	a1,s0,a1
    4384:	5c85b583          	ld	a1,1480(a1) # 15c8 <.LBB34_3+0x128>
    4388:	8c843683          	ld	a3,-1848(s0)
    438c:	00b685b3          	add	a1,a3,a1
    4390:	f4843683          	ld	a3,-184(s0)
    4394:	00d585b3          	add	a1,a1,a3
    4398:	00a585b3          	add	a1,a1,a0
    439c:	005585bb          	addw	a1,a1,t0
    43a0:	400006b7          	lui	a3,0x40000
    43a4:	8cd43423          	sd	a3,-1848(s0)
    43a8:	000016b7          	lui	a3,0x1
    43ac:	40d406b3          	sub	a3,s0,a3
    43b0:	4cb6bc23          	sd	a1,1240(a3) # 14d8 <.LBB34_3+0x38>
    43b4:	0005d663          	bgez	a1,43c0 <.LBB34_150>
    43b8:	c00005b7          	lui	a1,0xc0000
    43bc:	8cb43423          	sd	a1,-1848(s0)

00000000000043c0 <.LBB34_150>:
    43c0:	000015b7          	lui	a1,0x1
    43c4:	40b405b3          	sub	a1,s0,a1
    43c8:	5d05b583          	ld	a1,1488(a1) # 15d0 <.LBB34_3+0x130>
    43cc:	8d043683          	ld	a3,-1840(s0)
    43d0:	00b685b3          	add	a1,a3,a1
    43d4:	f4043683          	ld	a3,-192(s0)
    43d8:	00d585b3          	add	a1,a1,a3
    43dc:	00a585b3          	add	a1,a1,a0
    43e0:	005585bb          	addw	a1,a1,t0
    43e4:	400006b7          	lui	a3,0x40000
    43e8:	00001db7          	lui	s11,0x1
    43ec:	41b40db3          	sub	s11,s0,s11
    43f0:	46bdbc23          	sd	a1,1144(s11) # 1478 <.LBB34_2+0x57c>
    43f4:	0005d463          	bgez	a1,43fc <.LBB34_152>
    43f8:	c00006b7          	lui	a3,0xc0000

00000000000043fc <.LBB34_152>:
    43fc:	000015b7          	lui	a1,0x1
    4400:	40b405b3          	sub	a1,s0,a1
    4404:	5d85b583          	ld	a1,1496(a1) # 15d8 <.LBB34_3+0x138>
    4408:	00b785b3          	add	a1,a5,a1
    440c:	f1043783          	ld	a5,-240(s0)
    4410:	00f585b3          	add	a1,a1,a5
    4414:	00a585b3          	add	a1,a1,a0
    4418:	005585bb          	addw	a1,a1,t0
    441c:	400007b7          	lui	a5,0x40000
    4420:	00001db7          	lui	s11,0x1
    4424:	41b40db3          	sub	s11,s0,s11
    4428:	40bdb823          	sd	a1,1040(s11) # 1410 <.LBB34_2+0x514>
    442c:	0005d463          	bgez	a1,4434 <.LBB34_154>
    4430:	c00007b7          	lui	a5,0xc0000

0000000000004434 <.LBB34_154>:
    4434:	000015b7          	lui	a1,0x1
    4438:	40b405b3          	sub	a1,s0,a1
    443c:	5e05b583          	ld	a1,1504(a1) # 15e0 <.LBB34_3+0x140>
    4440:	00b385b3          	add	a1,t2,a1
    4444:	f0843383          	ld	t2,-248(s0)
    4448:	007585b3          	add	a1,a1,t2
    444c:	00a585b3          	add	a1,a1,a0
    4450:	005585bb          	addw	a1,a1,t0
    4454:	400003b7          	lui	t2,0x40000
    4458:	00001db7          	lui	s11,0x1
    445c:	41b40db3          	sub	s11,s0,s11
    4460:	3abdb823          	sd	a1,944(s11) # 13b0 <.LBB34_2+0x4b4>
    4464:	0005d463          	bgez	a1,446c <.LBB34_156>
    4468:	c00003b7          	lui	t2,0xc0000

000000000000446c <.LBB34_156>:
    446c:	000015b7          	lui	a1,0x1
    4470:	40b405b3          	sub	a1,s0,a1
    4474:	5e85b583          	ld	a1,1512(a1) # 15e8 <.LBB34_3+0x148>
    4478:	00b605b3          	add	a1,a2,a1
    447c:	f0043603          	ld	a2,-256(s0)
    4480:	00c585b3          	add	a1,a1,a2
    4484:	00a585b3          	add	a1,a1,a0
    4488:	005585bb          	addw	a1,a1,t0
    448c:	40000637          	lui	a2,0x40000
    4490:	00001db7          	lui	s11,0x1
    4494:	41b40db3          	sub	s11,s0,s11
    4498:	34bdbc23          	sd	a1,856(s11) # 1358 <.LBB34_2+0x45c>
    449c:	0005d463          	bgez	a1,44a4 <.LBB34_158>
    44a0:	c0000637          	lui	a2,0xc0000

00000000000044a4 <.LBB34_158>:
    44a4:	000015b7          	lui	a1,0x1
    44a8:	40b405b3          	sub	a1,s0,a1
    44ac:	5f05b583          	ld	a1,1520(a1) # 15f0 <.LBB34_3+0x150>
    44b0:	00bf05b3          	add	a1,t5,a1
    44b4:	ef843f03          	ld	t5,-264(s0)
    44b8:	01e585b3          	add	a1,a1,t5
    44bc:	00a585b3          	add	a1,a1,a0
    44c0:	005585bb          	addw	a1,a1,t0
    44c4:	40000f37          	lui	t5,0x40000
    44c8:	00001db7          	lui	s11,0x1
    44cc:	41b40db3          	sub	s11,s0,s11
    44d0:	2ebdb823          	sd	a1,752(s11) # 12f0 <.LBB34_2+0x3f4>
    44d4:	0005d463          	bgez	a1,44dc <.LBB34_160>
    44d8:	c0000f37          	lui	t5,0xc0000

00000000000044dc <.LBB34_160>:
    44dc:	000015b7          	lui	a1,0x1
    44e0:	40b405b3          	sub	a1,s0,a1
    44e4:	5f85b583          	ld	a1,1528(a1) # 15f8 <.LBB34_3+0x158>
    44e8:	00bc05b3          	add	a1,s8,a1
    44ec:	ef043c03          	ld	s8,-272(s0)
    44f0:	018585b3          	add	a1,a1,s8
    44f4:	00a585b3          	add	a1,a1,a0
    44f8:	005585bb          	addw	a1,a1,t0
    44fc:	40000c37          	lui	s8,0x40000
    4500:	8f843c23          	sd	s8,-1800(s0)
    4504:	00001c37          	lui	s8,0x1
    4508:	41840c33          	sub	s8,s0,s8
    450c:	28bc3023          	sd	a1,640(s8) # 1280 <.LBB34_2+0x384>
    4510:	0005d663          	bgez	a1,451c <.LBB34_162>
    4514:	c00005b7          	lui	a1,0xc0000
    4518:	8eb43c23          	sd	a1,-1800(s0)

000000000000451c <.LBB34_162>:
    451c:	000015b7          	lui	a1,0x1
    4520:	40b405b3          	sub	a1,s0,a1
    4524:	6005b583          	ld	a1,1536(a1) # 1600 <.LBB34_3+0x160>
    4528:	90043c03          	ld	s8,-1792(s0)
    452c:	00bc05b3          	add	a1,s8,a1
    4530:	ee843c03          	ld	s8,-280(s0)
    4534:	018585b3          	add	a1,a1,s8
    4538:	00a585b3          	add	a1,a1,a0
    453c:	005585bb          	addw	a1,a1,t0
    4540:	40000c37          	lui	s8,0x40000
    4544:	91843023          	sd	s8,-1792(s0)
    4548:	9c843c03          	ld	s8,-1592(s0)
    454c:	00001db7          	lui	s11,0x1
    4550:	41b40db3          	sub	s11,s0,s11
    4554:	22bdb823          	sd	a1,560(s11) # 1230 <.LBB34_2+0x334>
    4558:	0005d663          	bgez	a1,4564 <.LBB34_164>
    455c:	c00005b7          	lui	a1,0xc0000
    4560:	90b43023          	sd	a1,-1792(s0)

0000000000004564 <.LBB34_164>:
    4564:	000015b7          	lui	a1,0x1
    4568:	40b405b3          	sub	a1,s0,a1
    456c:	6085b583          	ld	a1,1544(a1) # 1608 <.LBB34_3+0x168>
    4570:	00b705b3          	add	a1,a4,a1
    4574:	ee043703          	ld	a4,-288(s0)
    4578:	00e585b3          	add	a1,a1,a4
    457c:	00a585b3          	add	a1,a1,a0
    4580:	005585bb          	addw	a1,a1,t0
    4584:	40000737          	lui	a4,0x40000
    4588:	90e43423          	sd	a4,-1784(s0)
    458c:	00001737          	lui	a4,0x1
    4590:	40e40733          	sub	a4,s0,a4
    4594:	1cb73423          	sd	a1,456(a4) # 11c8 <.LBB34_2+0x2cc>
    4598:	0005d663          	bgez	a1,45a4 <.LBB34_166>
    459c:	c00005b7          	lui	a1,0xc0000
    45a0:	90b43423          	sd	a1,-1784(s0)

00000000000045a4 <.LBB34_166>:
    45a4:	000015b7          	lui	a1,0x1
    45a8:	40b405b3          	sub	a1,s0,a1
    45ac:	6105b583          	ld	a1,1552(a1) # 1610 <.LBB34_3+0x170>
    45b0:	91043703          	ld	a4,-1776(s0)
    45b4:	00b705b3          	add	a1,a4,a1
    45b8:	ed843703          	ld	a4,-296(s0)
    45bc:	00e585b3          	add	a1,a1,a4
    45c0:	00a585b3          	add	a1,a1,a0
    45c4:	005585bb          	addw	a1,a1,t0
    45c8:	40000737          	lui	a4,0x40000
    45cc:	90e43823          	sd	a4,-1776(s0)
    45d0:	9a843703          	ld	a4,-1624(s0)
    45d4:	00001db7          	lui	s11,0x1
    45d8:	41b40db3          	sub	s11,s0,s11
    45dc:	16bdb023          	sd	a1,352(s11) # 1160 <.LBB34_2+0x264>
    45e0:	0005d663          	bgez	a1,45ec <.LBB34_168>
    45e4:	c00005b7          	lui	a1,0xc0000
    45e8:	90b43823          	sd	a1,-1776(s0)

00000000000045ec <.LBB34_168>:
    45ec:	000015b7          	lui	a1,0x1
    45f0:	40b405b3          	sub	a1,s0,a1
    45f4:	6185b583          	ld	a1,1560(a1) # 1618 <.LBB34_3+0x178>
    45f8:	91843d83          	ld	s11,-1768(s0)
    45fc:	00bd85b3          	add	a1,s11,a1
    4600:	ed043d83          	ld	s11,-304(s0)
    4604:	01b585b3          	add	a1,a1,s11
    4608:	00a585b3          	add	a1,a1,a0
    460c:	005585bb          	addw	a1,a1,t0
    4610:	40000db7          	lui	s11,0x40000
    4614:	91b43c23          	sd	s11,-1768(s0)
    4618:	00001db7          	lui	s11,0x1
    461c:	41b40db3          	sub	s11,s0,s11
    4620:	0ebdbc23          	sd	a1,248(s11) # 10f8 <.LBB34_2+0x1fc>
    4624:	0005d663          	bgez	a1,4630 <.LBB34_170>
    4628:	c00005b7          	lui	a1,0xc0000
    462c:	90b43c23          	sd	a1,-1768(s0)

0000000000004630 <.LBB34_170>:
    4630:	f8c43823          	sd	a2,-112(s0)
    4634:	000015b7          	lui	a1,0x1
    4638:	40b405b3          	sub	a1,s0,a1
    463c:	6205b583          	ld	a1,1568(a1) # 1620 <.LBB34_3+0x180>
    4640:	92043d83          	ld	s11,-1760(s0)
    4644:	00bd85b3          	add	a1,s11,a1
    4648:	ec843d83          	ld	s11,-312(s0)
    464c:	01b585b3          	add	a1,a1,s11
    4650:	00a585b3          	add	a1,a1,a0
    4654:	005585bb          	addw	a1,a1,t0
    4658:	40000db7          	lui	s11,0x40000
    465c:	93b43023          	sd	s11,-1760(s0)
    4660:	98043d83          	ld	s11,-1664(s0)
    4664:	00001637          	lui	a2,0x1
    4668:	40c40633          	sub	a2,s0,a2
    466c:	08b63023          	sd	a1,128(a2) # 1080 <.LBB34_2+0x184>
    4670:	f9043603          	ld	a2,-112(s0)
    4674:	0005d663          	bgez	a1,4680 <.LBB34_172>
    4678:	c00005b7          	lui	a1,0xc0000
    467c:	92b43023          	sd	a1,-1760(s0)

0000000000004680 <.LBB34_172>:
    4680:	000015b7          	lui	a1,0x1
    4684:	40b405b3          	sub	a1,s0,a1
    4688:	6285b583          	ld	a1,1576(a1) # 1628 <.LBB34_3+0x188>
    468c:	00ba85b3          	add	a1,s5,a1
    4690:	ec043a83          	ld	s5,-320(s0)
    4694:	015585b3          	add	a1,a1,s5
    4698:	00a585b3          	add	a1,a1,a0
    469c:	005585bb          	addw	a1,a1,t0
    46a0:	40000ab7          	lui	s5,0x40000
    46a4:	93543423          	sd	s5,-1752(s0)
    46a8:	00001ab7          	lui	s5,0x1
    46ac:	41540ab3          	sub	s5,s0,s5
    46b0:	00babc23          	sd	a1,24(s5) # 1018 <.LBB34_2+0x11c>
    46b4:	0005d663          	bgez	a1,46c0 <.LBB34_174>
    46b8:	c00005b7          	lui	a1,0xc0000
    46bc:	92b43423          	sd	a1,-1752(s0)

00000000000046c0 <.LBB34_174>:
    46c0:	f8c43823          	sd	a2,-112(s0)
    46c4:	000015b7          	lui	a1,0x1
    46c8:	40b405b3          	sub	a1,s0,a1
    46cc:	6305b583          	ld	a1,1584(a1) # 1630 <.LBB34_3+0x190>
    46d0:	93043a83          	ld	s5,-1744(s0)
    46d4:	00ba85b3          	add	a1,s5,a1
    46d8:	eb843a83          	ld	s5,-328(s0)
    46dc:	015585b3          	add	a1,a1,s5
    46e0:	00a585b3          	add	a1,a1,a0
    46e4:	005585bb          	addw	a1,a1,t0
    46e8:	40000ab7          	lui	s5,0x40000
    46ec:	93543823          	sd	s5,-1744(s0)
    46f0:	96043a83          	ld	s5,-1696(s0)
    46f4:	00001637          	lui	a2,0x1
    46f8:	40c40633          	sub	a2,s0,a2
    46fc:	fab63023          	sd	a1,-96(a2) # fa0 <.LBB34_2+0xa4>
    4700:	f9043603          	ld	a2,-112(s0)
    4704:	0005d663          	bgez	a1,4710 <.LBB34_176>
    4708:	c00005b7          	lui	a1,0xc0000
    470c:	92b43823          	sd	a1,-1744(s0)

0000000000004710 <.LBB34_176>:
    4710:	001c85b3          	add	a1,s9,ra
    4714:	eb043c83          	ld	s9,-336(s0)
    4718:	019585b3          	add	a1,a1,s9
    471c:	00a585b3          	add	a1,a1,a0
    4720:	005585bb          	addw	a1,a1,t0
    4724:	40000cb7          	lui	s9,0x40000
    4728:	93943c23          	sd	s9,-1736(s0)
    472c:	00001cb7          	lui	s9,0x1
    4730:	41940cb3          	sub	s9,s0,s9
    4734:	f2bcbc23          	sd	a1,-200(s9) # f38 <.LBB34_2+0x3c>
    4738:	0005d663          	bgez	a1,4744 <.LBB34_178>
    473c:	c00005b7          	lui	a1,0xc0000
    4740:	92b43c23          	sd	a1,-1736(s0)

0000000000004744 <.LBB34_178>:
    4744:	94043583          	ld	a1,-1728(s0)
    4748:	016585b3          	add	a1,a1,s6
    474c:	ea843c83          	ld	s9,-344(s0)
    4750:	019585b3          	add	a1,a1,s9
    4754:	00a585b3          	add	a1,a1,a0
    4758:	005585bb          	addw	a1,a1,t0
    475c:	40000cb7          	lui	s9,0x40000
    4760:	f8c43823          	sd	a2,-112(s0)
    4764:	00001637          	lui	a2,0x1
    4768:	40c40633          	sub	a2,s0,a2
    476c:	ecb63423          	sd	a1,-312(a2) # ec8 <.LBB34_1+0xbc0>
    4770:	f9043603          	ld	a2,-112(s0)
    4774:	0005d463          	bgez	a1,477c <.LBB34_180>
    4778:	c0000cb7          	lui	s9,0xc0000

000000000000477c <.LBB34_180>:
    477c:	000015b7          	lui	a1,0x1
    4780:	40b405b3          	sub	a1,s0,a1
    4784:	af95b823          	sd	s9,-1296(a1) # af0 <.LBB34_1+0x7e8>
    4788:	94843583          	ld	a1,-1720(s0)
    478c:	014585b3          	add	a1,a1,s4
    4790:	ea043c83          	ld	s9,-352(s0)
    4794:	019585b3          	add	a1,a1,s9
    4798:	00a585b3          	add	a1,a1,a0
    479c:	005585bb          	addw	a1,a1,t0
    47a0:	40000cb7          	lui	s9,0x40000
    47a4:	95943423          	sd	s9,-1720(s0)
    47a8:	00001cb7          	lui	s9,0x1
    47ac:	41940cb3          	sub	s9,s0,s9
    47b0:	e4bcbc23          	sd	a1,-424(s9) # e58 <.LBB34_1+0xb50>
    47b4:	0005d663          	bgez	a1,47c0 <.LBB34_182>
    47b8:	c00005b7          	lui	a1,0xc0000
    47bc:	94b43423          	sd	a1,-1720(s0)

00000000000047c0 <.LBB34_182>:
    47c0:	95043583          	ld	a1,-1712(s0)
    47c4:	f8c43823          	sd	a2,-112(s0)
    47c8:	00001637          	lui	a2,0x1
    47cc:	40c40633          	sub	a2,s0,a2
    47d0:	63863c83          	ld	s9,1592(a2) # 1638 <.LBB34_3+0x198>
    47d4:	019585b3          	add	a1,a1,s9
    47d8:	e9843c83          	ld	s9,-360(s0)
    47dc:	019585b3          	add	a1,a1,s9
    47e0:	00a585b3          	add	a1,a1,a0
    47e4:	005585bb          	addw	a1,a1,t0
    47e8:	40000cb7          	lui	s9,0x40000
    47ec:	00001637          	lui	a2,0x1
    47f0:	40c40633          	sub	a2,s0,a2
    47f4:	deb63423          	sd	a1,-536(a2) # de8 <.LBB34_1+0xae0>
    47f8:	f9043603          	ld	a2,-112(s0)
    47fc:	0005d463          	bgez	a1,4804 <.LBB34_184>
    4800:	c0000cb7          	lui	s9,0xc0000

0000000000004804 <.LBB34_184>:
    4804:	000015b7          	lui	a1,0x1
    4808:	40b405b3          	sub	a1,s0,a1
    480c:	af95b423          	sd	s9,-1304(a1) # ae8 <.LBB34_1+0x7e0>
    4810:	95843583          	ld	a1,-1704(s0)
    4814:	00001cb7          	lui	s9,0x1
    4818:	41940cb3          	sub	s9,s0,s9
    481c:	640cbc83          	ld	s9,1600(s9) # 1640 <.LBB34_3+0x1a0>
    4820:	019585b3          	add	a1,a1,s9
    4824:	e9043c83          	ld	s9,-368(s0)
    4828:	019585b3          	add	a1,a1,s9
    482c:	00a585b3          	add	a1,a1,a0
    4830:	005585bb          	addw	a1,a1,t0
    4834:	40000cb7          	lui	s9,0x40000
    4838:	95943c23          	sd	s9,-1704(s0)
    483c:	00001cb7          	lui	s9,0x1
    4840:	41940cb3          	sub	s9,s0,s9
    4844:	d8bcb023          	sd	a1,-640(s9) # d80 <.LBB34_1+0xa78>
    4848:	0005d663          	bgez	a1,4854 <.LBB34_186>
    484c:	c00005b7          	lui	a1,0xc0000
    4850:	94b43c23          	sd	a1,-1704(s0)

0000000000004854 <.LBB34_186>:
    4854:	000015b7          	lui	a1,0x1
    4858:	40b405b3          	sub	a1,s0,a1
    485c:	6485b583          	ld	a1,1608(a1) # 1648 <.LBB34_3+0x1a8>
    4860:	00ba85b3          	add	a1,s5,a1
    4864:	e8843a83          	ld	s5,-376(s0)
    4868:	015585b3          	add	a1,a1,s5
    486c:	00a585b3          	add	a1,a1,a0
    4870:	005585bb          	addw	a1,a1,t0
    4874:	40000ab7          	lui	s5,0x40000
    4878:	00001cb7          	lui	s9,0x1
    487c:	41940cb3          	sub	s9,s0,s9
    4880:	d0bcb423          	sd	a1,-760(s9) # d08 <.LBB34_1+0xa00>
    4884:	0005d463          	bgez	a1,488c <.LBB34_188>
    4888:	c0000ab7          	lui	s5,0xc0000

000000000000488c <.LBB34_188>:
    488c:	000015b7          	lui	a1,0x1
    4890:	40b405b3          	sub	a1,s0,a1
    4894:	d155b023          	sd	s5,-768(a1) # d00 <.LBB34_1+0x9f8>
    4898:	96843583          	ld	a1,-1688(s0)
    489c:	00001ab7          	lui	s5,0x1
    48a0:	41540ab3          	sub	s5,s0,s5
    48a4:	650aba83          	ld	s5,1616(s5) # 1650 <.LBB34_3+0x1b0>
    48a8:	015585b3          	add	a1,a1,s5
    48ac:	e8043a83          	ld	s5,-384(s0)
    48b0:	015585b3          	add	a1,a1,s5
    48b4:	00a585b3          	add	a1,a1,a0
    48b8:	005585bb          	addw	a1,a1,t0
    48bc:	40000ab7          	lui	s5,0x40000
    48c0:	00001cb7          	lui	s9,0x1
    48c4:	41940cb3          	sub	s9,s0,s9
    48c8:	c8bcb823          	sd	a1,-880(s9) # c90 <.LBB34_1+0x988>
    48cc:	0005d463          	bgez	a1,48d4 <.LBB34_190>
    48d0:	c0000ab7          	lui	s5,0xc0000

00000000000048d4 <.LBB34_190>:
    48d4:	97043583          	ld	a1,-1680(s0)
    48d8:	01f585b3          	add	a1,a1,t6
    48dc:	e7843c83          	ld	s9,-392(s0)
    48e0:	019585b3          	add	a1,a1,s9
    48e4:	00a585b3          	add	a1,a1,a0
    48e8:	005585bb          	addw	a1,a1,t0
    48ec:	40000cb7          	lui	s9,0x40000
    48f0:	f8c43823          	sd	a2,-112(s0)
    48f4:	00001637          	lui	a2,0x1
    48f8:	40c40633          	sub	a2,s0,a2
    48fc:	c2b63023          	sd	a1,-992(a2) # c20 <.LBB34_1+0x918>
    4900:	f9043603          	ld	a2,-112(s0)
    4904:	0005d463          	bgez	a1,490c <.LBB34_192>
    4908:	c0000cb7          	lui	s9,0xc0000

000000000000490c <.LBB34_192>:
    490c:	97043823          	sd	a6,-1680(s0)
    4910:	97843583          	ld	a1,-1672(s0)
    4914:	01c585b3          	add	a1,a1,t3
    4918:	e7043803          	ld	a6,-400(s0)
    491c:	010585b3          	add	a1,a1,a6
    4920:	00a585b3          	add	a1,a1,a0
    4924:	005585bb          	addw	a1,a1,t0
    4928:	40000837          	lui	a6,0x40000
    492c:	f8c43823          	sd	a2,-112(s0)
    4930:	00001637          	lui	a2,0x1
    4934:	40c40633          	sub	a2,s0,a2
    4938:	bcb63023          	sd	a1,-1088(a2) # bc0 <.LBB34_1+0x8b8>
    493c:	f9043603          	ld	a2,-112(s0)
    4940:	0005d463          	bgez	a1,4948 <.LBB34_194>
    4944:	c0000837          	lui	a6,0xc0000

0000000000004948 <.LBB34_194>:
    4948:	000015b7          	lui	a1,0x1
    494c:	40b405b3          	sub	a1,s0,a1
    4950:	bb05bc23          	sd	a6,-1096(a1) # bb8 <.LBB34_1+0x8b0>
    4954:	97143c23          	sd	a7,-1672(s0)
    4958:	000015b7          	lui	a1,0x1
    495c:	40b405b3          	sub	a1,s0,a1
    4960:	5785b803          	ld	a6,1400(a1) # 1578 <.LBB34_3+0xd8>
    4964:	010d85b3          	add	a1,s11,a6
    4968:	00080d93          	mv	s11,a6
    496c:	e6843803          	ld	a6,-408(s0)
    4970:	010585b3          	add	a1,a1,a6
    4974:	00a58533          	add	a0,a1,a0
    4978:	0055053b          	addw	a0,a0,t0
    497c:	400005b7          	lui	a1,0x40000
    4980:	ab043803          	ld	a6,-1360(s0)
    4984:	000018b7          	lui	a7,0x1
    4988:	411408b3          	sub	a7,s0,a7
    498c:	b4a8bc23          	sd	a0,-1192(a7) # b58 <.LBB34_1+0x850>
    4990:	00055463          	bgez	a0,4998 <.LBB34_196>
    4994:	c00005b7          	lui	a1,0xc0000

0000000000004998 <.LBB34_196>:
    4998:	00001537          	lui	a0,0x1
    499c:	40a40533          	sub	a0,s0,a0
    49a0:	b4b53823          	sd	a1,-1200(a0) # b50 <.LBB34_1+0x848>
    49a4:	97343423          	sd	s3,-1688(s0)
    49a8:	00001537          	lui	a0,0x1
    49ac:	40a40533          	sub	a0,s0,a0
    49b0:	50053883          	ld	a7,1280(a0) # 1500 <.LBB34_3+0x60>
    49b4:	00489513          	slli	a0,a7,0x4
    49b8:	011508b3          	add	a7,a0,a7
    49bc:	00001537          	lui	a0,0x1
    49c0:	40a40533          	sub	a0,s0,a0
    49c4:	5a053503          	ld	a0,1440(a0) # 15a0 <.LBB34_3+0x100>
    49c8:	98843583          	ld	a1,-1656(s0)
    49cc:	00a58533          	add	a0,a1,a0
    49d0:	f8843583          	ld	a1,-120(s0)
    49d4:	00b50533          	add	a0,a0,a1
    49d8:	01150533          	add	a0,a0,a7
    49dc:	0055053b          	addw	a0,a0,t0
    49e0:	400005b7          	lui	a1,0x40000
    49e4:	98a43423          	sd	a0,-1656(s0)
    49e8:	00055463          	bgez	a0,49f0 <.LBB34_198>
    49ec:	c00005b7          	lui	a1,0xc0000

00000000000049f0 <.LBB34_198>:
    49f0:	94943023          	sd	s1,-1728(s0)
    49f4:	00001537          	lui	a0,0x1
    49f8:	40a40533          	sub	a0,s0,a0
    49fc:	59853503          	ld	a0,1432(a0) # 1598 <.LBB34_3+0xf8>
    4a00:	99043483          	ld	s1,-1648(s0)
    4a04:	00a48533          	add	a0,s1,a0
    4a08:	f8043483          	ld	s1,-128(s0)
    4a0c:	00950533          	add	a0,a0,s1
    4a10:	01150533          	add	a0,a0,a7
    4a14:	0055053b          	addw	a0,a0,t0
    4a18:	400009b7          	lui	s3,0x40000
    4a1c:	99343823          	sd	s3,-1648(s0)
    4a20:	98a43023          	sd	a0,-1664(s0)
    4a24:	00055663          	bgez	a0,4a30 <.LBB34_200>
    4a28:	c0000537          	lui	a0,0xc0000
    4a2c:	98a43823          	sd	a0,-1648(s0)

0000000000004a30 <.LBB34_200>:
    4a30:	8d743823          	sd	s7,-1840(s0)
    4a34:	00001537          	lui	a0,0x1
    4a38:	40a40533          	sub	a0,s0,a0
    4a3c:	59053503          	ld	a0,1424(a0) # 1590 <.LBB34_3+0xf0>
    4a40:	99843483          	ld	s1,-1640(s0)
    4a44:	00a48533          	add	a0,s1,a0
    4a48:	f7843483          	ld	s1,-136(s0)
    4a4c:	00950533          	add	a0,a0,s1
    4a50:	01150533          	add	a0,a0,a7
    4a54:	0055053b          	addw	a0,a0,t0
    4a58:	400004b7          	lui	s1,0x40000
    4a5c:	98a43c23          	sd	a0,-1640(s0)
    4a60:	a9043983          	ld	s3,-1392(s0)
    4a64:	00055463          	bgez	a0,4a6c <.LBB34_202>
    4a68:	c00004b7          	lui	s1,0xc0000

0000000000004a6c <.LBB34_202>:
    4a6c:	00001537          	lui	a0,0x1
    4a70:	40a40533          	sub	a0,s0,a0
    4a74:	7b253c23          	sd	s2,1976(a0) # 17b8 <.LBB34_3+0x318>
    4a78:	00001537          	lui	a0,0x1
    4a7c:	40a40533          	sub	a0,s0,a0
    4a80:	58853503          	ld	a0,1416(a0) # 1588 <.LBB34_3+0xe8>
    4a84:	9a043903          	ld	s2,-1632(s0)
    4a88:	00a90533          	add	a0,s2,a0
    4a8c:	f7043903          	ld	s2,-144(s0)
    4a90:	01250533          	add	a0,a0,s2
    4a94:	01150533          	add	a0,a0,a7
    4a98:	0055053b          	addw	a0,a0,t0
    4a9c:	40000bb7          	lui	s7,0x40000
    4aa0:	9b743023          	sd	s7,-1632(s0)
    4aa4:	8ea43823          	sd	a0,-1808(s0)
    4aa8:	00055663          	bgez	a0,4ab4 <.LBB34_204>
    4aac:	c0000537          	lui	a0,0xc0000
    4ab0:	9aa43023          	sd	a0,-1632(s0)

0000000000004ab4 <.LBB34_204>:
    4ab4:	00001537          	lui	a0,0x1
    4ab8:	40a40533          	sub	a0,s0,a0
    4abc:	74653023          	sd	t1,1856(a0) # 1740 <.LBB34_3+0x2a0>
    4ac0:	00001537          	lui	a0,0x1
    4ac4:	40a40533          	sub	a0,s0,a0
    4ac8:	5a853503          	ld	a0,1448(a0) # 15a8 <.LBB34_3+0x108>
    4acc:	00a70533          	add	a0,a4,a0
    4ad0:	f6843703          	ld	a4,-152(s0)
    4ad4:	00e50533          	add	a0,a0,a4
    4ad8:	01150533          	add	a0,a0,a7
    4adc:	0055053b          	addw	a0,a0,t0
    4ae0:	40000937          	lui	s2,0x40000
    4ae4:	a8843b83          	ld	s7,-1400(s0)
    4ae8:	84a43423          	sd	a0,-1976(s0)
    4aec:	00055463          	bgez	a0,4af4 <.LBB34_206>
    4af0:	c0000937          	lui	s2,0xc0000

0000000000004af4 <.LBB34_206>:
    4af4:	00001537          	lui	a0,0x1
    4af8:	40a40533          	sub	a0,s0,a0
    4afc:	6fd53023          	sd	t4,1760(a0) # 16e0 <.LBB34_3+0x240>
    4b00:	00001537          	lui	a0,0x1
    4b04:	40a40533          	sub	a0,s0,a0
    4b08:	5b053503          	ld	a0,1456(a0) # 15b0 <.LBB34_3+0x110>
    4b0c:	9b043303          	ld	t1,-1616(s0)
    4b10:	00a30533          	add	a0,t1,a0
    4b14:	f6043703          	ld	a4,-160(s0)
    4b18:	00e50533          	add	a0,a0,a4
    4b1c:	01150533          	add	a0,a0,a7
    4b20:	0055053b          	addw	a0,a0,t0
    4b24:	40000337          	lui	t1,0x40000
    4b28:	9a643823          	sd	t1,-1616(s0)
    4b2c:	00001737          	lui	a4,0x1
    4b30:	40e40733          	sub	a4,s0,a4
    4b34:	78a73023          	sd	a0,1920(a4) # 1780 <.LBB34_3+0x2e0>
    4b38:	00055663          	bgez	a0,4b44 <.LBB34_208>
    4b3c:	c0000537          	lui	a0,0xc0000
    4b40:	9aa43823          	sd	a0,-1616(s0)

0000000000004b44 <.LBB34_208>:
    4b44:	00001537          	lui	a0,0x1
    4b48:	40a40533          	sub	a0,s0,a0
    4b4c:	5b853503          	ld	a0,1464(a0) # 15b8 <.LBB34_3+0x118>
    4b50:	9b843303          	ld	t1,-1608(s0)
    4b54:	00a30533          	add	a0,t1,a0
    4b58:	f5843703          	ld	a4,-168(s0)
    4b5c:	00e50533          	add	a0,a0,a4
    4b60:	01150533          	add	a0,a0,a7
    4b64:	0055053b          	addw	a0,a0,t0
    4b68:	40000737          	lui	a4,0x40000
    4b6c:	a6843303          	ld	t1,-1432(s0)
    4b70:	00001eb7          	lui	t4,0x1
    4b74:	41d40eb3          	sub	t4,s0,t4
    4b78:	72aeb823          	sd	a0,1840(t4) # 1730 <.LBB34_3+0x290>
    4b7c:	9c043e83          	ld	t4,-1600(s0)
    4b80:	00055463          	bgez	a0,4b88 <.LBB34_210>
    4b84:	c0000737          	lui	a4,0xc0000

0000000000004b88 <.LBB34_210>:
    4b88:	00001537          	lui	a0,0x1
    4b8c:	40a40533          	sub	a0,s0,a0
    4b90:	46d53823          	sd	a3,1136(a0) # 1470 <.LBB34_2+0x574>
    4b94:	00001537          	lui	a0,0x1
    4b98:	40a40533          	sub	a0,s0,a0
    4b9c:	5c053503          	ld	a0,1472(a0) # 15c0 <.LBB34_3+0x120>
    4ba0:	00ae8533          	add	a0,t4,a0
    4ba4:	f5043683          	ld	a3,-176(s0)
    4ba8:	00d50533          	add	a0,a0,a3
    4bac:	01150533          	add	a0,a0,a7
    4bb0:	0055053b          	addw	a0,a0,t0
    4bb4:	40000eb7          	lui	t4,0x40000
    4bb8:	9dd43023          	sd	t4,-1600(s0)
    4bbc:	000016b7          	lui	a3,0x1
    4bc0:	40d406b3          	sub	a3,s0,a3
    4bc4:	6ca6bc23          	sd	a0,1752(a3) # 16d8 <.LBB34_3+0x238>
    4bc8:	00055663          	bgez	a0,4bd4 <.LBB34_212>
    4bcc:	c0000537          	lui	a0,0xc0000
    4bd0:	9ca43023          	sd	a0,-1600(s0)

0000000000004bd4 <.LBB34_212>:
    4bd4:	00001537          	lui	a0,0x1
    4bd8:	40a40533          	sub	a0,s0,a0
    4bdc:	b0e53423          	sd	a4,-1272(a0) # b08 <.LBB34_1+0x800>
    4be0:	00001537          	lui	a0,0x1
    4be4:	40a40533          	sub	a0,s0,a0
    4be8:	2fe53023          	sd	t5,736(a0) # 12e0 <.LBB34_2+0x3e4>
    4bec:	00001537          	lui	a0,0x1
    4bf0:	40a40533          	sub	a0,s0,a0
    4bf4:	5c853503          	ld	a0,1480(a0) # 15c8 <.LBB34_3+0x128>
    4bf8:	00ac0533          	add	a0,s8,a0
    4bfc:	f4843683          	ld	a3,-184(s0)
    4c00:	00d50533          	add	a0,a0,a3
    4c04:	01150533          	add	a0,a0,a7
    4c08:	0055053b          	addw	a0,a0,t0
    4c0c:	400006b7          	lui	a3,0x40000
    4c10:	a4043e83          	ld	t4,-1472(s0)
    4c14:	00001737          	lui	a4,0x1
    4c18:	40e40733          	sub	a4,s0,a4
    4c1c:	4ca73823          	sd	a0,1232(a4) # 14d0 <.LBB34_3+0x30>
    4c20:	00055463          	bgez	a0,4c28 <.LBB34_214>
    4c24:	c00006b7          	lui	a3,0xc0000

0000000000004c28 <.LBB34_214>:
    4c28:	00001537          	lui	a0,0x1
    4c2c:	40a40533          	sub	a0,s0,a0
    4c30:	5d053503          	ld	a0,1488(a0) # 15d0 <.LBB34_3+0x130>
    4c34:	9d043f03          	ld	t5,-1584(s0)
    4c38:	00af0533          	add	a0,t5,a0
    4c3c:	f4043703          	ld	a4,-192(s0)
    4c40:	00e50533          	add	a0,a0,a4
    4c44:	01150533          	add	a0,a0,a7
    4c48:	0055053b          	addw	a0,a0,t0
    4c4c:	40000f37          	lui	t5,0x40000
    4c50:	9de43823          	sd	t5,-1584(s0)
    4c54:	00001737          	lui	a4,0x1
    4c58:	40e40733          	sub	a4,s0,a4
    4c5c:	46a73423          	sd	a0,1128(a4) # 1468 <.LBB34_2+0x56c>
    4c60:	00055663          	bgez	a0,4c6c <.LBB34_216>
    4c64:	c0000537          	lui	a0,0xc0000
    4c68:	9ca43823          	sd	a0,-1584(s0)

0000000000004c6c <.LBB34_216>:
    4c6c:	00001537          	lui	a0,0x1
    4c70:	40a40533          	sub	a0,s0,a0
    4c74:	34c53823          	sd	a2,848(a0) # 1350 <.LBB34_2+0x454>
    4c78:	00001537          	lui	a0,0x1
    4c7c:	40a40533          	sub	a0,s0,a0
    4c80:	5d853503          	ld	a0,1496(a0) # 15d8 <.LBB34_3+0x138>
    4c84:	9d843603          	ld	a2,-1576(s0)
    4c88:	00a60533          	add	a0,a2,a0
    4c8c:	f1043603          	ld	a2,-240(s0)
    4c90:	00c50533          	add	a0,a0,a2
    4c94:	01150533          	add	a0,a0,a7
    4c98:	0055053b          	addw	a0,a0,t0
    4c9c:	9de43c23          	sd	t5,-1576(s0)
    4ca0:	a2043f03          	ld	t5,-1504(s0)
    4ca4:	00001637          	lui	a2,0x1
    4ca8:	40c40633          	sub	a2,s0,a2
    4cac:	40a63423          	sd	a0,1032(a2) # 1408 <.LBB34_2+0x50c>
    4cb0:	00055663          	bgez	a0,4cbc <.LBB34_218>
    4cb4:	c0000537          	lui	a0,0xc0000
    4cb8:	9ca43c23          	sd	a0,-1576(s0)

0000000000004cbc <.LBB34_218>:
    4cbc:	00001537          	lui	a0,0x1
    4cc0:	40a40533          	sub	a0,s0,a0
    4cc4:	5e053503          	ld	a0,1504(a0) # 15e0 <.LBB34_3+0x140>
    4cc8:	9e043603          	ld	a2,-1568(s0)
    4ccc:	00a60533          	add	a0,a2,a0
    4cd0:	f0843603          	ld	a2,-248(s0)
    4cd4:	00c50533          	add	a0,a0,a2
    4cd8:	01150533          	add	a0,a0,a7
    4cdc:	0055053b          	addw	a0,a0,t0
    4ce0:	40000637          	lui	a2,0x40000
    4ce4:	9ec43023          	sd	a2,-1568(s0)
    4ce8:	00001637          	lui	a2,0x1
    4cec:	40c40633          	sub	a2,s0,a2
    4cf0:	3aa63423          	sd	a0,936(a2) # 13a8 <.LBB34_2+0x4ac>
    4cf4:	00055663          	bgez	a0,4d00 <.LBB34_220>
    4cf8:	c0000537          	lui	a0,0xc0000
    4cfc:	9ea43023          	sd	a0,-1568(s0)

0000000000004d00 <.LBB34_220>:
    4d00:	00001537          	lui	a0,0x1
    4d04:	40a40533          	sub	a0,s0,a0
    4d08:	5e853503          	ld	a0,1512(a0) # 15e8 <.LBB34_3+0x148>
    4d0c:	9e843603          	ld	a2,-1560(s0)
    4d10:	00a60533          	add	a0,a2,a0
    4d14:	f0043603          	ld	a2,-256(s0)
    4d18:	00c50533          	add	a0,a0,a2
    4d1c:	01150533          	add	a0,a0,a7
    4d20:	0055053b          	addw	a0,a0,t0
    4d24:	40000c37          	lui	s8,0x40000
    4d28:	9f843603          	ld	a2,-1544(s0)
    4d2c:	00001737          	lui	a4,0x1
    4d30:	40e40733          	sub	a4,s0,a4
    4d34:	34a73423          	sd	a0,840(a4) # 1348 <.LBB34_2+0x44c>
    4d38:	00055463          	bgez	a0,4d40 <.LBB34_222>
    4d3c:	c0000c37          	lui	s8,0xc0000

0000000000004d40 <.LBB34_222>:
    4d40:	00001537          	lui	a0,0x1
    4d44:	40a40533          	sub	a0,s0,a0
    4d48:	35853023          	sd	s8,832(a0) # 1340 <.LBB34_2+0x444>
    4d4c:	00001537          	lui	a0,0x1
    4d50:	40a40533          	sub	a0,s0,a0
    4d54:	5f053503          	ld	a0,1520(a0) # 15f0 <.LBB34_3+0x150>
    4d58:	9f043c03          	ld	s8,-1552(s0)
    4d5c:	00ac0533          	add	a0,s8,a0
    4d60:	ef843703          	ld	a4,-264(s0)
    4d64:	00e50533          	add	a0,a0,a4
    4d68:	01150533          	add	a0,a0,a7
    4d6c:	0055053b          	addw	a0,a0,t0
    4d70:	40000737          	lui	a4,0x40000
    4d74:	00001c37          	lui	s8,0x1
    4d78:	41840c33          	sub	s8,s0,s8
    4d7c:	2cac3c23          	sd	a0,728(s8) # 12d8 <.LBB34_2+0x3dc>
    4d80:	00055463          	bgez	a0,4d88 <.LBB34_224>
    4d84:	c0000737          	lui	a4,0xc0000

0000000000004d88 <.LBB34_224>:
    4d88:	00001537          	lui	a0,0x1
    4d8c:	40a40533          	sub	a0,s0,a0
    4d90:	aee53c23          	sd	a4,-1288(a0) # af8 <.LBB34_1+0x7f0>
    4d94:	00001537          	lui	a0,0x1
    4d98:	40a40533          	sub	a0,s0,a0
    4d9c:	5f853503          	ld	a0,1528(a0) # 15f8 <.LBB34_3+0x158>
    4da0:	00a60533          	add	a0,a2,a0
    4da4:	ef043603          	ld	a2,-272(s0)
    4da8:	00c50533          	add	a0,a0,a2
    4dac:	01150533          	add	a0,a0,a7
    4db0:	0055053b          	addw	a0,a0,t0
    4db4:	40000637          	lui	a2,0x40000
    4db8:	00001737          	lui	a4,0x1
    4dbc:	40e40733          	sub	a4,s0,a4
    4dc0:	26a73823          	sd	a0,624(a4) # 1270 <.LBB34_2+0x374>
    4dc4:	00055463          	bgez	a0,4dcc <.LBB34_226>
    4dc8:	c0000637          	lui	a2,0xc0000

0000000000004dcc <.LBB34_226>:
    4dcc:	9e743c23          	sd	t2,-1544(s0)
    4dd0:	00001537          	lui	a0,0x1
    4dd4:	40a40533          	sub	a0,s0,a0
    4dd8:	60053503          	ld	a0,1536(a0) # 1600 <.LBB34_3+0x160>
    4ddc:	a0043383          	ld	t2,-1536(s0)
    4de0:	00a38533          	add	a0,t2,a0
    4de4:	ee843703          	ld	a4,-280(s0)
    4de8:	00e50533          	add	a0,a0,a4
    4dec:	01150533          	add	a0,a0,a7
    4df0:	0055053b          	addw	a0,a0,t0
    4df4:	400003b7          	lui	t2,0x40000
    4df8:	00001737          	lui	a4,0x1
    4dfc:	40e40733          	sub	a4,s0,a4
    4e00:	22a73023          	sd	a0,544(a4) # 1220 <.LBB34_2+0x324>
    4e04:	00055463          	bgez	a0,4e0c <.LBB34_228>
    4e08:	c00003b7          	lui	t2,0xc0000

0000000000004e0c <.LBB34_228>:
    4e0c:	00001537          	lui	a0,0x1
    4e10:	40a40533          	sub	a0,s0,a0
    4e14:	20753823          	sd	t2,528(a0) # 1210 <.LBB34_2+0x314>
    4e18:	00001537          	lui	a0,0x1
    4e1c:	40a40533          	sub	a0,s0,a0
    4e20:	60853503          	ld	a0,1544(a0) # 1608 <.LBB34_3+0x168>
    4e24:	a0843383          	ld	t2,-1528(s0)
    4e28:	00a38533          	add	a0,t2,a0
    4e2c:	ee043703          	ld	a4,-288(s0)
    4e30:	00e50533          	add	a0,a0,a4
    4e34:	01150533          	add	a0,a0,a7
    4e38:	0055053b          	addw	a0,a0,t0
    4e3c:	40000737          	lui	a4,0x40000
    4e40:	000013b7          	lui	t2,0x1
    4e44:	407403b3          	sub	t2,s0,t2
    4e48:	1aa3bc23          	sd	a0,440(t2) # 11b8 <.LBB34_2+0x2bc>
    4e4c:	00055463          	bgez	a0,4e54 <.LBB34_230>
    4e50:	c0000737          	lui	a4,0xc0000

0000000000004e54 <.LBB34_230>:
    4e54:	a0f43423          	sd	a5,-1528(s0)
    4e58:	00001537          	lui	a0,0x1
    4e5c:	40a40533          	sub	a0,s0,a0
    4e60:	61053503          	ld	a0,1552(a0) # 1610 <.LBB34_3+0x170>
    4e64:	a1043783          	ld	a5,-1520(s0)
    4e68:	00a78533          	add	a0,a5,a0
    4e6c:	ed843783          	ld	a5,-296(s0)
    4e70:	00f50533          	add	a0,a0,a5
    4e74:	01150533          	add	a0,a0,a7
    4e78:	0055053b          	addw	a0,a0,t0
    4e7c:	400007b7          	lui	a5,0x40000
    4e80:	000013b7          	lui	t2,0x1
    4e84:	407403b3          	sub	t2,s0,t2
    4e88:	14a3bc23          	sd	a0,344(t2) # 1158 <.LBB34_2+0x25c>
    4e8c:	00055463          	bgez	a0,4e94 <.LBB34_232>
    4e90:	c00007b7          	lui	a5,0xc0000

0000000000004e94 <.LBB34_232>:
    4e94:	00001537          	lui	a0,0x1
    4e98:	40a40533          	sub	a0,s0,a0
    4e9c:	14f53823          	sd	a5,336(a0) # 1150 <.LBB34_2+0x254>
    4ea0:	00001537          	lui	a0,0x1
    4ea4:	40a40533          	sub	a0,s0,a0
    4ea8:	61853503          	ld	a0,1560(a0) # 1618 <.LBB34_3+0x178>
    4eac:	a1843783          	ld	a5,-1512(s0)
    4eb0:	00a78533          	add	a0,a5,a0
    4eb4:	ed043783          	ld	a5,-304(s0)
    4eb8:	00f50533          	add	a0,a0,a5
    4ebc:	01150533          	add	a0,a0,a7
    4ec0:	0055053b          	addw	a0,a0,t0
    4ec4:	400007b7          	lui	a5,0x40000
    4ec8:	000013b7          	lui	t2,0x1
    4ecc:	407403b3          	sub	t2,s0,t2
    4ed0:	0ea3b823          	sd	a0,240(t2) # 10f0 <.LBB34_2+0x1f4>
    4ed4:	00055463          	bgez	a0,4edc <.LBB34_234>
    4ed8:	c00007b7          	lui	a5,0xc0000

0000000000004edc <.LBB34_234>:
    4edc:	00001537          	lui	a0,0x1
    4ee0:	40a40533          	sub	a0,s0,a0
    4ee4:	62053503          	ld	a0,1568(a0) # 1620 <.LBB34_3+0x180>
    4ee8:	00af0533          	add	a0,t5,a0
    4eec:	ec843383          	ld	t2,-312(s0)
    4ef0:	00750533          	add	a0,a0,t2
    4ef4:	01150533          	add	a0,a0,a7
    4ef8:	0055053b          	addw	a0,a0,t0
    4efc:	400003b7          	lui	t2,0x40000
    4f00:	00001f37          	lui	t5,0x1
    4f04:	41e40f33          	sub	t5,s0,t5
    4f08:	06af3c23          	sd	a0,120(t5) # 1078 <.LBB34_2+0x17c>
    4f0c:	00055463          	bgez	a0,4f14 <.LBB34_236>
    4f10:	c00003b7          	lui	t2,0xc0000

0000000000004f14 <.LBB34_236>:
    4f14:	00001537          	lui	a0,0x1
    4f18:	40a40533          	sub	a0,s0,a0
    4f1c:	06753823          	sd	t2,112(a0) # 1070 <.LBB34_2+0x174>
    4f20:	00001537          	lui	a0,0x1
    4f24:	40a40533          	sub	a0,s0,a0
    4f28:	62853503          	ld	a0,1576(a0) # 1628 <.LBB34_3+0x188>
    4f2c:	a2843383          	ld	t2,-1496(s0)
    4f30:	00a38533          	add	a0,t2,a0
    4f34:	ec043383          	ld	t2,-320(s0)
    4f38:	00750533          	add	a0,a0,t2
    4f3c:	01150533          	add	a0,a0,a7
    4f40:	0055053b          	addw	a0,a0,t0
    4f44:	400003b7          	lui	t2,0x40000
    4f48:	00001f37          	lui	t5,0x1
    4f4c:	41e40f33          	sub	t5,s0,t5
    4f50:	00af3823          	sd	a0,16(t5) # 1010 <.LBB34_2+0x114>
    4f54:	00055463          	bgez	a0,4f5c <.LBB34_238>
    4f58:	c00003b7          	lui	t2,0xc0000

0000000000004f5c <.LBB34_238>:
    4f5c:	00001537          	lui	a0,0x1
    4f60:	40a40533          	sub	a0,s0,a0
    4f64:	00753423          	sd	t2,8(a0) # 1008 <.LBB34_2+0x10c>
    4f68:	00001537          	lui	a0,0x1
    4f6c:	40a40533          	sub	a0,s0,a0
    4f70:	63053503          	ld	a0,1584(a0) # 1630 <.LBB34_3+0x190>
    4f74:	a3043383          	ld	t2,-1488(s0)
    4f78:	00a38533          	add	a0,t2,a0
    4f7c:	eb843383          	ld	t2,-328(s0)
    4f80:	00750533          	add	a0,a0,t2
    4f84:	01150533          	add	a0,a0,a7
    4f88:	0055053b          	addw	a0,a0,t0
    4f8c:	400003b7          	lui	t2,0x40000
    4f90:	00001f37          	lui	t5,0x1
    4f94:	41e40f33          	sub	t5,s0,t5
    4f98:	f8af3c23          	sd	a0,-104(t5) # f98 <.LBB34_2+0x9c>
    4f9c:	00055463          	bgez	a0,4fa4 <.LBB34_240>
    4fa0:	c00003b7          	lui	t2,0xc0000

0000000000004fa4 <.LBB34_240>:
    4fa4:	a3843503          	ld	a0,-1480(s0)
    4fa8:	00150533          	add	a0,a0,ra
    4fac:	eb043f03          	ld	t5,-336(s0)
    4fb0:	01e50533          	add	a0,a0,t5
    4fb4:	01150533          	add	a0,a0,a7
    4fb8:	0055053b          	addw	a0,a0,t0
    4fbc:	40000f37          	lui	t5,0x40000
    4fc0:	00001c37          	lui	s8,0x1
    4fc4:	41840c33          	sub	s8,s0,s8
    4fc8:	f2ac3823          	sd	a0,-208(s8) # f30 <.LBB34_2+0x34>
    4fcc:	00055463          	bgez	a0,4fd4 <.LBB34_242>
    4fd0:	c0000f37          	lui	t5,0xc0000

0000000000004fd4 <.LBB34_242>:
    4fd4:	00001537          	lui	a0,0x1
    4fd8:	40a40533          	sub	a0,s0,a0
    4fdc:	c9553423          	sd	s5,-888(a0) # c88 <.LBB34_1+0x980>
    4fe0:	016e8533          	add	a0,t4,s6
    4fe4:	ea843e83          	ld	t4,-344(s0)
    4fe8:	01d50533          	add	a0,a0,t4
    4fec:	01150533          	add	a0,a0,a7
    4ff0:	0055053b          	addw	a0,a0,t0
    4ff4:	40000eb7          	lui	t4,0x40000
    4ff8:	00001ab7          	lui	s5,0x1
    4ffc:	41540ab3          	sub	s5,s0,s5
    5000:	ecaab023          	sd	a0,-320(s5) # ec0 <.LBB34_1+0xbb8>
    5004:	00055463          	bgez	a0,500c <.LBB34_244>
    5008:	c0000eb7          	lui	t4,0xc0000

000000000000500c <.LBB34_244>:
    500c:	a4843503          	ld	a0,-1464(s0)
    5010:	01450533          	add	a0,a0,s4
    5014:	ea043a83          	ld	s5,-352(s0)
    5018:	01550533          	add	a0,a0,s5
    501c:	01150533          	add	a0,a0,a7
    5020:	0055053b          	addw	a0,a0,t0
    5024:	40000ab7          	lui	s5,0x40000
    5028:	00001c37          	lui	s8,0x1
    502c:	41840c33          	sub	s8,s0,s8
    5030:	e4ac3823          	sd	a0,-432(s8) # e50 <.LBB34_1+0xb48>
    5034:	00055463          	bgez	a0,503c <.LBB34_246>
    5038:	c0000ab7          	lui	s5,0xc0000

000000000000503c <.LBB34_246>:
    503c:	a5043503          	ld	a0,-1456(s0)
    5040:	00001c37          	lui	s8,0x1
    5044:	41840c33          	sub	s8,s0,s8
    5048:	638c3c03          	ld	s8,1592(s8) # 1638 <.LBB34_3+0x198>
    504c:	01850533          	add	a0,a0,s8
    5050:	e9843c03          	ld	s8,-360(s0)
    5054:	01850533          	add	a0,a0,s8
    5058:	01150533          	add	a0,a0,a7
    505c:	0055053b          	addw	a0,a0,t0
    5060:	40000c37          	lui	s8,0x40000
    5064:	a5843823          	sd	s8,-1456(s0)
    5068:	00001c37          	lui	s8,0x1
    506c:	41840c33          	sub	s8,s0,s8
    5070:	deac3023          	sd	a0,-544(s8) # de0 <.LBB34_1+0xad8>
    5074:	00055663          	bgez	a0,5080 <.LBB34_248>
    5078:	c0000537          	lui	a0,0xc0000
    507c:	a4a43823          	sd	a0,-1456(s0)

0000000000005080 <.LBB34_248>:
    5080:	00001537          	lui	a0,0x1
    5084:	40a40533          	sub	a0,s0,a0
    5088:	e5553423          	sd	s5,-440(a0) # e48 <.LBB34_1+0xb40>
    508c:	a5843503          	ld	a0,-1448(s0)
    5090:	00001ab7          	lui	s5,0x1
    5094:	41540ab3          	sub	s5,s0,s5
    5098:	640aba83          	ld	s5,1600(s5) # 1640 <.LBB34_3+0x1a0>
    509c:	01550533          	add	a0,a0,s5
    50a0:	e9043a83          	ld	s5,-368(s0)
    50a4:	01550533          	add	a0,a0,s5
    50a8:	01150533          	add	a0,a0,a7
    50ac:	0055053b          	addw	a0,a0,t0
    50b0:	40000ab7          	lui	s5,0x40000
    50b4:	00001c37          	lui	s8,0x1
    50b8:	41840c33          	sub	s8,s0,s8
    50bc:	d6ac3c23          	sd	a0,-648(s8) # d78 <.LBB34_1+0xa70>
    50c0:	00055463          	bgez	a0,50c8 <.LBB34_250>
    50c4:	c0000ab7          	lui	s5,0xc0000

00000000000050c8 <.LBB34_250>:
    50c8:	00001537          	lui	a0,0x1
    50cc:	40a40533          	sub	a0,s0,a0
    50d0:	d7553823          	sd	s5,-656(a0) # d70 <.LBB34_1+0xa68>
    50d4:	a6043503          	ld	a0,-1440(s0)
    50d8:	00001ab7          	lui	s5,0x1
    50dc:	41540ab3          	sub	s5,s0,s5
    50e0:	648aba83          	ld	s5,1608(s5) # 1648 <.LBB34_3+0x1a8>
    50e4:	01550533          	add	a0,a0,s5
    50e8:	e8843a83          	ld	s5,-376(s0)
    50ec:	01550533          	add	a0,a0,s5
    50f0:	01150533          	add	a0,a0,a7
    50f4:	0055053b          	addw	a0,a0,t0
    50f8:	40000ab7          	lui	s5,0x40000
    50fc:	00001c37          	lui	s8,0x1
    5100:	41840c33          	sub	s8,s0,s8
    5104:	ceac3c23          	sd	a0,-776(s8) # cf8 <.LBB34_1+0x9f0>
    5108:	00055463          	bgez	a0,5110 <.LBB34_252>
    510c:	c0000ab7          	lui	s5,0xc0000

0000000000005110 <.LBB34_252>:
    5110:	00001537          	lui	a0,0x1
    5114:	40a40533          	sub	a0,s0,a0
    5118:	65053503          	ld	a0,1616(a0) # 1650 <.LBB34_3+0x1b0>
    511c:	00a30533          	add	a0,t1,a0
    5120:	e8043303          	ld	t1,-384(s0)
    5124:	00650533          	add	a0,a0,t1
    5128:	01150533          	add	a0,a0,a7
    512c:	0055053b          	addw	a0,a0,t0
    5130:	40000337          	lui	t1,0x40000
    5134:	00001c37          	lui	s8,0x1
    5138:	41840c33          	sub	s8,s0,s8
    513c:	c8ac3023          	sd	a0,-896(s8) # c80 <.LBB34_1+0x978>
    5140:	00055463          	bgez	a0,5148 <.LBB34_254>
    5144:	c0000337          	lui	t1,0xc0000

0000000000005148 <.LBB34_254>:
    5148:	a7043503          	ld	a0,-1424(s0)
    514c:	01f50533          	add	a0,a0,t6
    5150:	e7843c03          	ld	s8,-392(s0)
    5154:	01850533          	add	a0,a0,s8
    5158:	01150533          	add	a0,a0,a7
    515c:	0055053b          	addw	a0,a0,t0
    5160:	40000c37          	lui	s8,0x40000
    5164:	f8b43823          	sd	a1,-112(s0)
    5168:	000015b7          	lui	a1,0x1
    516c:	40b405b3          	sub	a1,s0,a1
    5170:	c0a5bc23          	sd	a0,-1000(a1) # c18 <.LBB34_1+0x910>
    5174:	f9043583          	ld	a1,-112(s0)
    5178:	00055463          	bgez	a0,5180 <.LBB34_256>
    517c:	c0000c37          	lui	s8,0xc0000

0000000000005180 <.LBB34_256>:
    5180:	a7a43823          	sd	s10,-1424(s0)
    5184:	a7843503          	ld	a0,-1416(s0)
    5188:	01c50533          	add	a0,a0,t3
    518c:	e7043d03          	ld	s10,-400(s0)
    5190:	01a50533          	add	a0,a0,s10
    5194:	01150533          	add	a0,a0,a7
    5198:	0055053b          	addw	a0,a0,t0
    519c:	40000d37          	lui	s10,0x40000
    51a0:	f8b43823          	sd	a1,-112(s0)
    51a4:	000015b7          	lui	a1,0x1
    51a8:	40b405b3          	sub	a1,s0,a1
    51ac:	baa5b823          	sd	a0,-1104(a1) # bb0 <.LBB34_1+0x8a8>
    51b0:	f9043583          	ld	a1,-112(s0)
    51b4:	00055463          	bgez	a0,51bc <.LBB34_258>
    51b8:	c0000d37          	lui	s10,0xc0000

00000000000051bc <.LBB34_258>:
    51bc:	00001537          	lui	a0,0x1
    51c0:	40a40533          	sub	a0,s0,a0
    51c4:	bba53423          	sd	s10,-1112(a0) # ba8 <.LBB34_1+0x8a0>
    51c8:	a6b43c23          	sd	a1,-1416(s0)
    51cc:	a8043503          	ld	a0,-1408(s0)
    51d0:	01b50533          	add	a0,a0,s11
    51d4:	e6843583          	ld	a1,-408(s0)
    51d8:	00b50533          	add	a0,a0,a1
    51dc:	01150533          	add	a0,a0,a7
    51e0:	0055053b          	addw	a0,a0,t0
    51e4:	400005b7          	lui	a1,0x40000
    51e8:	aa043d03          	ld	s10,-1376(s0)
    51ec:	000018b7          	lui	a7,0x1
    51f0:	411408b3          	sub	a7,s0,a7
    51f4:	b4a8b423          	sd	a0,-1208(a7) # b48 <.LBB34_1+0x840>
    51f8:	00055463          	bgez	a0,5200 <.LBB34_260>
    51fc:	c00005b7          	lui	a1,0xc0000

0000000000005200 <.LBB34_260>:
    5200:	00001537          	lui	a0,0x1
    5204:	40a40533          	sub	a0,s0,a0
    5208:	b4b53023          	sd	a1,-1216(a0) # b40 <.LBB34_1+0x838>
    520c:	00001537          	lui	a0,0x1
    5210:	40a40533          	sub	a0,s0,a0
    5214:	51053583          	ld	a1,1296(a0) # 1510 <.LBB34_3+0x70>
    5218:	00459513          	slli	a0,a1,0x4
    521c:	00b50533          	add	a0,a0,a1
    5220:	000015b7          	lui	a1,0x1
    5224:	40b405b3          	sub	a1,s0,a1
    5228:	5a05b583          	ld	a1,1440(a1) # 15a0 <.LBB34_3+0x100>
    522c:	00bb85b3          	add	a1,s7,a1
    5230:	f8843883          	ld	a7,-120(s0)
    5234:	011585b3          	add	a1,a1,a7
    5238:	00a585b3          	add	a1,a1,a0
    523c:	005585bb          	addw	a1,a1,t0
    5240:	400008b7          	lui	a7,0x40000
    5244:	a9143423          	sd	a7,-1400(s0)
    5248:	b6843883          	ld	a7,-1176(s0)
    524c:	a6b43423          	sd	a1,-1432(s0)
    5250:	0005d663          	bgez	a1,525c <.LBB34_262>
    5254:	c00005b7          	lui	a1,0xc0000
    5258:	a8b43423          	sd	a1,-1400(s0)

000000000000525c <.LBB34_262>:
    525c:	000015b7          	lui	a1,0x1
    5260:	40b405b3          	sub	a1,s0,a1
    5264:	0ef5b423          	sd	a5,232(a1) # 10e8 <.LBB34_2+0x1ec>
    5268:	000015b7          	lui	a1,0x1
    526c:	40b405b3          	sub	a1,s0,a1
    5270:	5985b583          	ld	a1,1432(a1) # 1598 <.LBB34_3+0xf8>
    5274:	00b985b3          	add	a1,s3,a1
    5278:	f8043783          	ld	a5,-128(s0)
    527c:	00f585b3          	add	a1,a1,a5
    5280:	00a585b3          	add	a1,a1,a0
    5284:	005585bb          	addw	a1,a1,t0
    5288:	400009b7          	lui	s3,0x40000
    528c:	a4b43c23          	sd	a1,-1448(s0)
    5290:	0005d463          	bgez	a1,5298 <.LBB34_264>
    5294:	c00009b7          	lui	s3,0xc0000

0000000000005298 <.LBB34_264>:
    5298:	000015b7          	lui	a1,0x1
    529c:	40b405b3          	sub	a1,s0,a1
    52a0:	5905b583          	ld	a1,1424(a1) # 1590 <.LBB34_3+0xf0>
    52a4:	a9843783          	ld	a5,-1384(s0)
    52a8:	00b785b3          	add	a1,a5,a1
    52ac:	f7843783          	ld	a5,-136(s0)
    52b0:	00f585b3          	add	a1,a1,a5
    52b4:	00a585b3          	add	a1,a1,a0
    52b8:	005585bb          	addw	a1,a1,t0
    52bc:	400007b7          	lui	a5,0x40000
    52c0:	a8f43c23          	sd	a5,-1384(s0)
    52c4:	a6b43023          	sd	a1,-1440(s0)
    52c8:	0005d663          	bgez	a1,52d4 <.LBB34_266>
    52cc:	c00005b7          	lui	a1,0xc0000
    52d0:	a8b43c23          	sd	a1,-1384(s0)

00000000000052d4 <.LBB34_266>:
    52d4:	000015b7          	lui	a1,0x1
    52d8:	40b405b3          	sub	a1,s0,a1
    52dc:	c665bc23          	sd	t1,-904(a1) # c78 <.LBB34_1+0x970>
    52e0:	000015b7          	lui	a1,0x1
    52e4:	40b405b3          	sub	a1,s0,a1
    52e8:	5885b583          	ld	a1,1416(a1) # 1588 <.LBB34_3+0xe8>
    52ec:	00bd05b3          	add	a1,s10,a1
    52f0:	f7043783          	ld	a5,-144(s0)
    52f4:	00f585b3          	add	a1,a1,a5
    52f8:	00a585b3          	add	a1,a1,a0
    52fc:	005585bb          	addw	a1,a1,t0
    5300:	400007b7          	lui	a5,0x40000
    5304:	a4b43423          	sd	a1,-1464(s0)
    5308:	0005d463          	bgez	a1,5310 <.LBB34_268>
    530c:	c00007b7          	lui	a5,0xc0000

0000000000005310 <.LBB34_268>:
    5310:	000015b7          	lui	a1,0x1
    5314:	40b405b3          	sub	a1,s0,a1
    5318:	5a85b583          	ld	a1,1448(a1) # 15a8 <.LBB34_3+0x108>
    531c:	aa843d03          	ld	s10,-1368(s0)
    5320:	00bd05b3          	add	a1,s10,a1
    5324:	f6843303          	ld	t1,-152(s0)
    5328:	006585b3          	add	a1,a1,t1
    532c:	00a585b3          	add	a1,a1,a0
    5330:	005585bb          	addw	a1,a1,t0
    5334:	40000bb7          	lui	s7,0x40000
    5338:	aab43423          	sd	a1,-1368(s0)
    533c:	0005d463          	bgez	a1,5344 <.LBB34_270>
    5340:	c0000bb7          	lui	s7,0xc0000

0000000000005344 <.LBB34_270>:
    5344:	000015b7          	lui	a1,0x1
    5348:	40b405b3          	sub	a1,s0,a1
    534c:	5b05b583          	ld	a1,1456(a1) # 15b0 <.LBB34_3+0x110>
    5350:	00b805b3          	add	a1,a6,a1
    5354:	f6043803          	ld	a6,-160(s0)
    5358:	010585b3          	add	a1,a1,a6
    535c:	00a585b3          	add	a1,a1,a0
    5360:	005585bb          	addw	a1,a1,t0
    5364:	40000837          	lui	a6,0x40000
    5368:	a8b43823          	sd	a1,-1392(s0)
    536c:	0005d463          	bgez	a1,5374 <.LBB34_272>
    5370:	c0000837          	lui	a6,0xc0000

0000000000005374 <.LBB34_272>:
    5374:	a9043023          	sd	a6,-1408(s0)
    5378:	000015b7          	lui	a1,0x1
    537c:	40b405b3          	sub	a1,s0,a1
    5380:	5b85b583          	ld	a1,1464(a1) # 15b8 <.LBB34_3+0x118>
    5384:	ab843803          	ld	a6,-1352(s0)
    5388:	00b805b3          	add	a1,a6,a1
    538c:	f5843803          	ld	a6,-168(s0)
    5390:	010585b3          	add	a1,a1,a6
    5394:	00a585b3          	add	a1,a1,a0
    5398:	005585bb          	addw	a1,a1,t0
    539c:	40000837          	lui	a6,0x40000
    53a0:	aab43023          	sd	a1,-1376(s0)
    53a4:	0005d463          	bgez	a1,53ac <.LBB34_274>
    53a8:	c0000837          	lui	a6,0xc0000

00000000000053ac <.LBB34_274>:
    53ac:	000015b7          	lui	a1,0x1
    53b0:	40b405b3          	sub	a1,s0,a1
    53b4:	ebd5bc23          	sd	t4,-328(a1) # eb8 <.LBB34_1+0xbb0>
    53b8:	000015b7          	lui	a1,0x1
    53bc:	40b405b3          	sub	a1,s0,a1
    53c0:	f3e5b423          	sd	t5,-216(a1) # f28 <.LBB34_2+0x2c>
    53c4:	000015b7          	lui	a1,0x1
    53c8:	40b405b3          	sub	a1,s0,a1
    53cc:	5c05b583          	ld	a1,1472(a1) # 15c0 <.LBB34_3+0x120>
    53d0:	ac043303          	ld	t1,-1344(s0)
    53d4:	00b305b3          	add	a1,t1,a1
    53d8:	f5043303          	ld	t1,-176(s0)
    53dc:	006585b3          	add	a1,a1,t1
    53e0:	00a585b3          	add	a1,a1,a0
    53e4:	005585bb          	addw	a1,a1,t0
    53e8:	40000337          	lui	t1,0x40000
    53ec:	aab43823          	sd	a1,-1360(s0)
    53f0:	0005d463          	bgez	a1,53f8 <.LBB34_276>
    53f4:	c0000337          	lui	t1,0xc0000

00000000000053f8 <.LBB34_276>:
    53f8:	000015b7          	lui	a1,0x1
    53fc:	40b405b3          	sub	a1,s0,a1
    5400:	f875b823          	sd	t2,-112(a1) # f90 <.LBB34_2+0x94>
    5404:	000015b7          	lui	a1,0x1
    5408:	40b405b3          	sub	a1,s0,a1
    540c:	5c85b583          	ld	a1,1480(a1) # 15c8 <.LBB34_3+0x128>
    5410:	ac843f03          	ld	t5,-1336(s0)
    5414:	00bf05b3          	add	a1,t5,a1
    5418:	f4843383          	ld	t2,-184(s0)
    541c:	007585b3          	add	a1,a1,t2
    5420:	00a585b3          	add	a1,a1,a0
    5424:	005585bb          	addw	a1,a1,t0
    5428:	400003b7          	lui	t2,0x40000
    542c:	acb43023          	sd	a1,-1344(s0)
    5430:	0005d463          	bgez	a1,5438 <.LBB34_278>
    5434:	c00003b7          	lui	t2,0xc0000

0000000000005438 <.LBB34_278>:
    5438:	000015b7          	lui	a1,0x1
    543c:	40b405b3          	sub	a1,s0,a1
    5440:	b075b023          	sd	t2,-1280(a1) # b00 <.LBB34_1+0x7f8>
    5444:	ab743c23          	sd	s7,-1352(s0)
    5448:	000015b7          	lui	a1,0x1
    544c:	40b405b3          	sub	a1,s0,a1
    5450:	5d05b583          	ld	a1,1488(a1) # 15d0 <.LBB34_3+0x130>
    5454:	ad043383          	ld	t2,-1328(s0)
    5458:	00b385b3          	add	a1,t2,a1
    545c:	f4043383          	ld	t2,-192(s0)
    5460:	007585b3          	add	a1,a1,t2
    5464:	00a585b3          	add	a1,a1,a0
    5468:	005585bb          	addw	a1,a1,t0
    546c:	400003b7          	lui	t2,0x40000
    5470:	acb43823          	sd	a1,-1328(s0)
    5474:	0005d463          	bgez	a1,547c <.LBB34_280>
    5478:	c00003b7          	lui	t2,0xc0000

000000000000547c <.LBB34_280>:
    547c:	000015b7          	lui	a1,0x1
    5480:	40b405b3          	sub	a1,s0,a1
    5484:	26c5b423          	sd	a2,616(a1) # 1268 <.LBB34_2+0x36c>
    5488:	000015b7          	lui	a1,0x1
    548c:	40b405b3          	sub	a1,s0,a1
    5490:	5d85b583          	ld	a1,1496(a1) # 15d8 <.LBB34_3+0x138>
    5494:	ad843b83          	ld	s7,-1320(s0)
    5498:	00bb85b3          	add	a1,s7,a1
    549c:	f1043603          	ld	a2,-240(s0)
    54a0:	00c585b3          	add	a1,a1,a2
    54a4:	00a585b3          	add	a1,a1,a0
    54a8:	005585bb          	addw	a1,a1,t0
    54ac:	40000f37          	lui	t5,0x40000
    54b0:	a2b43423          	sd	a1,-1496(s0)
    54b4:	0005d463          	bgez	a1,54bc <.LBB34_282>
    54b8:	c0000f37          	lui	t5,0xc0000

00000000000054bc <.LBB34_282>:
    54bc:	a2743823          	sd	t2,-1488(s0)
    54c0:	000015b7          	lui	a1,0x1
    54c4:	40b405b3          	sub	a1,s0,a1
    54c8:	5e05b583          	ld	a1,1504(a1) # 15e0 <.LBB34_3+0x140>
    54cc:	ae043603          	ld	a2,-1312(s0)
    54d0:	00b605b3          	add	a1,a2,a1
    54d4:	f0843603          	ld	a2,-248(s0)
    54d8:	00c585b3          	add	a1,a1,a2
    54dc:	00a585b3          	add	a1,a1,a0
    54e0:	005585bb          	addw	a1,a1,t0
    54e4:	40000637          	lui	a2,0x40000
    54e8:	a2b43023          	sd	a1,-1504(s0)
    54ec:	0005d463          	bgez	a1,54f4 <.LBB34_284>
    54f0:	c0000637          	lui	a2,0xc0000

00000000000054f4 <.LBB34_284>:
    54f4:	000015b7          	lui	a1,0x1
    54f8:	40b405b3          	sub	a1,s0,a1
    54fc:	5e85b583          	ld	a1,1512(a1) # 15e8 <.LBB34_3+0x148>
    5500:	ae843383          	ld	t2,-1304(s0)
    5504:	00b385b3          	add	a1,t2,a1
    5508:	f0043383          	ld	t2,-256(s0)
    550c:	007585b3          	add	a1,a1,t2
    5510:	00a585b3          	add	a1,a1,a0
    5514:	005585bb          	addw	a1,a1,t0
    5518:	400003b7          	lui	t2,0x40000
    551c:	a0b43823          	sd	a1,-1520(s0)
    5520:	0005d463          	bgez	a1,5528 <.LBB34_286>
    5524:	c00003b7          	lui	t2,0xc0000

0000000000005528 <.LBB34_286>:
    5528:	af243423          	sd	s2,-1304(s0)
    552c:	000015b7          	lui	a1,0x1
    5530:	40b405b3          	sub	a1,s0,a1
    5534:	5f05b583          	ld	a1,1520(a1) # 15f0 <.LBB34_3+0x150>
    5538:	af043e83          	ld	t4,-1296(s0)
    553c:	00be85b3          	add	a1,t4,a1
    5540:	ef843e83          	ld	t4,-264(s0)
    5544:	01d585b3          	add	a1,a1,t4
    5548:	00a585b3          	add	a1,a1,a0
    554c:	005585bb          	addw	a1,a1,t0
    5550:	40000937          	lui	s2,0x40000
    5554:	aeb43823          	sd	a1,-1296(s0)
    5558:	0005d463          	bgez	a1,5560 <.LBB34_288>
    555c:	c0000937          	lui	s2,0xc0000

0000000000005560 <.LBB34_288>:
    5560:	a1243023          	sd	s2,-1536(s0)
    5564:	000015b7          	lui	a1,0x1
    5568:	40b405b3          	sub	a1,s0,a1
    556c:	5f85b583          	ld	a1,1528(a1) # 15f8 <.LBB34_3+0x158>
    5570:	af843903          	ld	s2,-1288(s0)
    5574:	00b905b3          	add	a1,s2,a1
    5578:	ef043e83          	ld	t4,-272(s0)
    557c:	01d585b3          	add	a1,a1,t4
    5580:	00a585b3          	add	a1,a1,a0
    5584:	005585bb          	addw	a1,a1,t0
    5588:	40000937          	lui	s2,0x40000
    558c:	aeb43c23          	sd	a1,-1288(s0)
    5590:	0005d463          	bgez	a1,5598 <.LBB34_290>
    5594:	c0000937          	lui	s2,0xc0000

0000000000005598 <.LBB34_290>:
    5598:	000015b7          	lui	a1,0x1
    559c:	40b405b3          	sub	a1,s0,a1
    55a0:	6005b583          	ld	a1,1536(a1) # 1600 <.LBB34_3+0x160>
    55a4:	b0043e83          	ld	t4,-1280(s0)
    55a8:	00be85b3          	add	a1,t4,a1
    55ac:	ee843e83          	ld	t4,-280(s0)
    55b0:	01d585b3          	add	a1,a1,t4
    55b4:	00a585b3          	add	a1,a1,a0
    55b8:	005585bb          	addw	a1,a1,t0
    55bc:	40000bb7          	lui	s7,0x40000
    55c0:	b0b43023          	sd	a1,-1280(s0)
    55c4:	0005d463          	bgez	a1,55cc <.LBB34_292>
    55c8:	c0000bb7          	lui	s7,0xc0000

00000000000055cc <.LBB34_292>:
    55cc:	a0c43c23          	sd	a2,-1512(s0)
    55d0:	000015b7          	lui	a1,0x1
    55d4:	40b405b3          	sub	a1,s0,a1
    55d8:	6085b583          	ld	a1,1544(a1) # 1608 <.LBB34_3+0x168>
    55dc:	b0843603          	ld	a2,-1272(s0)
    55e0:	00b605b3          	add	a1,a2,a1
    55e4:	ee043603          	ld	a2,-288(s0)
    55e8:	00c585b3          	add	a1,a1,a2
    55ec:	00a585b3          	add	a1,a1,a0
    55f0:	005585bb          	addw	a1,a1,t0
    55f4:	40000637          	lui	a2,0x40000
    55f8:	b0b43423          	sd	a1,-1272(s0)
    55fc:	0005d463          	bgez	a1,5604 <.LBB34_294>
    5600:	c0000637          	lui	a2,0xc0000

0000000000005604 <.LBB34_294>:
    5604:	000015b7          	lui	a1,0x1
    5608:	40b405b3          	sub	a1,s0,a1
    560c:	1ac5b423          	sd	a2,424(a1) # 11a8 <.LBB34_2+0x2ac>
    5610:	000015b7          	lui	a1,0x1
    5614:	40b405b3          	sub	a1,s0,a1
    5618:	6105b583          	ld	a1,1552(a1) # 1610 <.LBB34_3+0x170>
    561c:	b1043603          	ld	a2,-1264(s0)
    5620:	00b605b3          	add	a1,a2,a1
    5624:	ed843603          	ld	a2,-296(s0)
    5628:	00c585b3          	add	a1,a1,a2
    562c:	00a585b3          	add	a1,a1,a0
    5630:	005585bb          	addw	a1,a1,t0
    5634:	40000637          	lui	a2,0x40000
    5638:	00001eb7          	lui	t4,0x1
    563c:	41d40eb3          	sub	t4,s0,t4
    5640:	14beb423          	sd	a1,328(t4) # 1148 <.LBB34_2+0x24c>
    5644:	0005d463          	bgez	a1,564c <.LBB34_296>
    5648:	c0000637          	lui	a2,0xc0000

000000000000564c <.LBB34_296>:
    564c:	b0d43823          	sd	a3,-1264(s0)
    5650:	000015b7          	lui	a1,0x1
    5654:	40b405b3          	sub	a1,s0,a1
    5658:	6185b583          	ld	a1,1560(a1) # 1618 <.LBB34_3+0x178>
    565c:	b1843683          	ld	a3,-1256(s0)
    5660:	00b685b3          	add	a1,a3,a1
    5664:	ed043683          	ld	a3,-304(s0)
    5668:	00d585b3          	add	a1,a1,a3
    566c:	00a585b3          	add	a1,a1,a0
    5670:	005585bb          	addw	a1,a1,t0
    5674:	400006b7          	lui	a3,0x40000
    5678:	00001eb7          	lui	t4,0x1
    567c:	41d40eb3          	sub	t4,s0,t4
    5680:	0cbebc23          	sd	a1,216(t4) # 10d8 <.LBB34_2+0x1dc>
    5684:	0005d463          	bgez	a1,568c <.LBB34_298>
    5688:	c00006b7          	lui	a3,0xc0000

000000000000568c <.LBB34_298>:
    568c:	000015b7          	lui	a1,0x1
    5690:	40b405b3          	sub	a1,s0,a1
    5694:	0cd5b423          	sd	a3,200(a1) # 10c8 <.LBB34_2+0x1cc>
    5698:	000015b7          	lui	a1,0x1
    569c:	40b405b3          	sub	a1,s0,a1
    56a0:	6205b583          	ld	a1,1568(a1) # 1620 <.LBB34_3+0x180>
    56a4:	b2043683          	ld	a3,-1248(s0)
    56a8:	00b685b3          	add	a1,a3,a1
    56ac:	ec843683          	ld	a3,-312(s0)
    56b0:	00d585b3          	add	a1,a1,a3
    56b4:	00a585b3          	add	a1,a1,a0
    56b8:	005585bb          	addw	a1,a1,t0
    56bc:	400006b7          	lui	a3,0x40000
    56c0:	b2b43023          	sd	a1,-1248(s0)
    56c4:	0005d463          	bgez	a1,56cc <.LBB34_300>
    56c8:	c00006b7          	lui	a3,0xc0000

00000000000056cc <.LBB34_300>:
    56cc:	a2643c23          	sd	t1,-1480(s0)
    56d0:	000015b7          	lui	a1,0x1
    56d4:	40b405b3          	sub	a1,s0,a1
    56d8:	6285b583          	ld	a1,1576(a1) # 1628 <.LBB34_3+0x188>
    56dc:	b2843303          	ld	t1,-1240(s0)
    56e0:	00b305b3          	add	a1,t1,a1
    56e4:	ec043303          	ld	t1,-320(s0)
    56e8:	006585b3          	add	a1,a1,t1
    56ec:	00a585b3          	add	a1,a1,a0
    56f0:	005585bb          	addw	a1,a1,t0
    56f4:	40000337          	lui	t1,0x40000
    56f8:	00001eb7          	lui	t4,0x1
    56fc:	41d40eb3          	sub	t4,s0,t4
    5700:	00beb023          	sd	a1,0(t4) # 1000 <.LBB34_2+0x104>
    5704:	0005d463          	bgez	a1,570c <.LBB34_302>
    5708:	c0000337          	lui	t1,0xc0000

000000000000570c <.LBB34_302>:
    570c:	000015b7          	lui	a1,0x1
    5710:	40b405b3          	sub	a1,s0,a1
    5714:	cf55b823          	sd	s5,-784(a1) # cf0 <.LBB34_1+0x9e8>
    5718:	000015b7          	lui	a1,0x1
    571c:	40b405b3          	sub	a1,s0,a1
    5720:	fe65bc23          	sd	t1,-8(a1) # ff8 <.LBB34_2+0xfc>
    5724:	000015b7          	lui	a1,0x1
    5728:	40b405b3          	sub	a1,s0,a1
    572c:	6305b583          	ld	a1,1584(a1) # 1630 <.LBB34_3+0x190>
    5730:	b3043303          	ld	t1,-1232(s0)
    5734:	00b305b3          	add	a1,t1,a1
    5738:	eb843303          	ld	t1,-328(s0)
    573c:	006585b3          	add	a1,a1,t1
    5740:	00a585b3          	add	a1,a1,a0
    5744:	005585bb          	addw	a1,a1,t0
    5748:	40000337          	lui	t1,0x40000
    574c:	b2b43823          	sd	a1,-1232(s0)
    5750:	0005d463          	bgez	a1,5758 <.LBB34_304>
    5754:	c0000337          	lui	t1,0xc0000

0000000000005758 <.LBB34_304>:
    5758:	b3843583          	ld	a1,-1224(s0)
    575c:	001585b3          	add	a1,a1,ra
    5760:	eb043e83          	ld	t4,-336(s0)
    5764:	01d585b3          	add	a1,a1,t4
    5768:	00a585b3          	add	a1,a1,a0
    576c:	005585bb          	addw	a1,a1,t0
    5770:	40000ab7          	lui	s5,0x40000
    5774:	00001eb7          	lui	t4,0x1
    5778:	41d40eb3          	sub	t4,s0,t4
    577c:	f2beb023          	sd	a1,-224(t4) # f20 <.LBB34_2+0x24>
    5780:	0005d463          	bgez	a1,5788 <.LBB34_306>
    5784:	c0000ab7          	lui	s5,0xc0000

0000000000005788 <.LBB34_306>:
    5788:	b4043583          	ld	a1,-1216(s0)
    578c:	016585b3          	add	a1,a1,s6
    5790:	ea843e83          	ld	t4,-344(s0)
    5794:	01d585b3          	add	a1,a1,t4
    5798:	00a585b3          	add	a1,a1,a0
    579c:	005585bb          	addw	a1,a1,t0
    57a0:	40000d37          	lui	s10,0x40000
    57a4:	00001eb7          	lui	t4,0x1
    57a8:	41d40eb3          	sub	t4,s0,t4
    57ac:	eabeb823          	sd	a1,-336(t4) # eb0 <.LBB34_1+0xba8>
    57b0:	0005d463          	bgez	a1,57b8 <.LBB34_308>
    57b4:	c0000d37          	lui	s10,0xc0000

00000000000057b8 <.LBB34_308>:
    57b8:	b5843023          	sd	s8,-1216(s0)
    57bc:	b4843583          	ld	a1,-1208(s0)
    57c0:	014585b3          	add	a1,a1,s4
    57c4:	ea043e83          	ld	t4,-352(s0)
    57c8:	01d585b3          	add	a1,a1,t4
    57cc:	00a585b3          	add	a1,a1,a0
    57d0:	005585bb          	addw	a1,a1,t0
    57d4:	40000eb7          	lui	t4,0x40000
    57d8:	b4b43423          	sd	a1,-1208(s0)
    57dc:	0005d463          	bgez	a1,57e4 <.LBB34_310>
    57e0:	c0000eb7          	lui	t4,0xc0000

00000000000057e4 <.LBB34_310>:
    57e4:	b5043583          	ld	a1,-1200(s0)
    57e8:	f8c43823          	sd	a2,-112(s0)
    57ec:	00001637          	lui	a2,0x1
    57f0:	40c40633          	sub	a2,s0,a2
    57f4:	63863c03          	ld	s8,1592(a2) # 1638 <.LBB34_3+0x198>
    57f8:	018585b3          	add	a1,a1,s8
    57fc:	e9843c03          	ld	s8,-360(s0)
    5800:	018585b3          	add	a1,a1,s8
    5804:	00a585b3          	add	a1,a1,a0
    5808:	005585bb          	addw	a1,a1,t0
    580c:	40000c37          	lui	s8,0x40000
    5810:	00001637          	lui	a2,0x1
    5814:	40c40633          	sub	a2,s0,a2
    5818:	dcb63c23          	sd	a1,-552(a2) # dd8 <.LBB34_1+0xad0>
    581c:	f9043603          	ld	a2,-112(s0)
    5820:	0005d463          	bgez	a1,5828 <.LBB34_312>
    5824:	c0000c37          	lui	s8,0xc0000

0000000000005828 <.LBB34_312>:
    5828:	f8c43823          	sd	a2,-112(s0)
    582c:	000015b7          	lui	a1,0x1
    5830:	40b405b3          	sub	a1,s0,a1
    5834:	e5d5b023          	sd	t4,-448(a1) # e40 <.LBB34_1+0xb38>
    5838:	b5843583          	ld	a1,-1192(s0)
    583c:	00001637          	lui	a2,0x1
    5840:	40c40633          	sub	a2,s0,a2
    5844:	64063e83          	ld	t4,1600(a2) # 1640 <.LBB34_3+0x1a0>
    5848:	01d585b3          	add	a1,a1,t4
    584c:	e9043e83          	ld	t4,-368(s0)
    5850:	01d585b3          	add	a1,a1,t4
    5854:	00a585b3          	add	a1,a1,a0
    5858:	005585bb          	addw	a1,a1,t0
    585c:	40000eb7          	lui	t4,0x40000
    5860:	00001637          	lui	a2,0x1
    5864:	40c40633          	sub	a2,s0,a2
    5868:	d6b63423          	sd	a1,-664(a2) # d68 <.LBB34_1+0xa60>
    586c:	f9043603          	ld	a2,-112(s0)
    5870:	0005d463          	bgez	a1,5878 <.LBB34_314>
    5874:	c0000eb7          	lui	t4,0xc0000

0000000000005878 <.LBB34_314>:
    5878:	f8c43823          	sd	a2,-112(s0)
    587c:	000015b7          	lui	a1,0x1
    5880:	40b405b3          	sub	a1,s0,a1
    5884:	d7d5b023          	sd	t4,-672(a1) # d60 <.LBB34_1+0xa58>
    5888:	b6043583          	ld	a1,-1184(s0)
    588c:	00001637          	lui	a2,0x1
    5890:	40c40633          	sub	a2,s0,a2
    5894:	64863e83          	ld	t4,1608(a2) # 1648 <.LBB34_3+0x1a8>
    5898:	01d585b3          	add	a1,a1,t4
    589c:	e8843e83          	ld	t4,-376(s0)
    58a0:	01d585b3          	add	a1,a1,t4
    58a4:	00a585b3          	add	a1,a1,a0
    58a8:	005585bb          	addw	a1,a1,t0
    58ac:	40000eb7          	lui	t4,0x40000
    58b0:	00001637          	lui	a2,0x1
    58b4:	40c40633          	sub	a2,s0,a2
    58b8:	ceb63423          	sd	a1,-792(a2) # ce8 <.LBB34_1+0x9e0>
    58bc:	f9043603          	ld	a2,-112(s0)
    58c0:	0005d463          	bgez	a1,58c8 <.LBB34_316>
    58c4:	c0000eb7          	lui	t4,0xc0000

00000000000058c8 <.LBB34_316>:
    58c8:	acf43423          	sd	a5,-1336(s0)
    58cc:	000015b7          	lui	a1,0x1
    58d0:	40b405b3          	sub	a1,s0,a1
    58d4:	6505b583          	ld	a1,1616(a1) # 1650 <.LBB34_3+0x1b0>
    58d8:	00b885b3          	add	a1,a7,a1
    58dc:	e8043783          	ld	a5,-384(s0)
    58e0:	00f585b3          	add	a1,a1,a5
    58e4:	00a585b3          	add	a1,a1,a0
    58e8:	005585bb          	addw	a1,a1,t0
    58ec:	400007b7          	lui	a5,0x40000
    58f0:	000018b7          	lui	a7,0x1
    58f4:	411408b3          	sub	a7,s0,a7
    58f8:	c6b8b823          	sd	a1,-912(a7) # c70 <.LBB34_1+0x968>
    58fc:	0005d463          	bgez	a1,5904 <.LBB34_318>
    5900:	c00007b7          	lui	a5,0xc0000

0000000000005904 <.LBB34_318>:
    5904:	b6943423          	sd	s1,-1176(s0)
    5908:	b7043583          	ld	a1,-1168(s0)
    590c:	01f585b3          	add	a1,a1,t6
    5910:	e7843883          	ld	a7,-392(s0)
    5914:	011585b3          	add	a1,a1,a7
    5918:	00a585b3          	add	a1,a1,a0
    591c:	005585bb          	addw	a1,a1,t0
    5920:	400008b7          	lui	a7,0x40000
    5924:	000014b7          	lui	s1,0x1
    5928:	409404b3          	sub	s1,s0,s1
    592c:	c0b4b823          	sd	a1,-1008(s1) # c10 <.LBB34_1+0x908>
    5930:	0005d463          	bgez	a1,5938 <.LBB34_320>
    5934:	c00008b7          	lui	a7,0xc0000

0000000000005938 <.LBB34_320>:
    5938:	ad343c23          	sd	s3,-1320(s0)
    593c:	b7843583          	ld	a1,-1160(s0)
    5940:	01c585b3          	add	a1,a1,t3
    5944:	e7043483          	ld	s1,-400(s0)
    5948:	009585b3          	add	a1,a1,s1
    594c:	00a585b3          	add	a1,a1,a0
    5950:	005585bb          	addw	a1,a1,t0
    5954:	400004b7          	lui	s1,0x40000
    5958:	b6b43c23          	sd	a1,-1160(s0)
    595c:	0005d463          	bgez	a1,5964 <.LBB34_322>
    5960:	c00004b7          	lui	s1,0xc0000

0000000000005964 <.LBB34_322>:
    5964:	afe43023          	sd	t5,-1312(s0)
    5968:	b8043583          	ld	a1,-1152(s0)
    596c:	01b585b3          	add	a1,a1,s11
    5970:	e6843f03          	ld	t5,-408(s0)
    5974:	01e585b3          	add	a1,a1,t5
    5978:	00a58533          	add	a0,a1,a0
    597c:	0055053b          	addw	a0,a0,t0
    5980:	400005b7          	lui	a1,0x40000
    5984:	000012b7          	lui	t0,0x1
    5988:	405402b3          	sub	t0,s0,t0
    598c:	b2a2bc23          	sd	a0,-1224(t0) # b38 <.LBB34_1+0x830>
    5990:	00055463          	bgez	a0,5998 <.LBB34_324>
    5994:	c00005b7          	lui	a1,0xc0000

0000000000005998 <.LBB34_324>:
    5998:	00001537          	lui	a0,0x1
    599c:	40a40533          	sub	a0,s0,a0
    59a0:	b2b53823          	sd	a1,-1232(a0) # b30 <.LBB34_1+0x828>
    59a4:	00001537          	lui	a0,0x1
    59a8:	40a40533          	sub	a0,s0,a0
    59ac:	52053503          	ld	a0,1312(a0) # 1520 <.LBB34_3+0x80>
    59b0:	00451293          	slli	t0,a0,0x4
    59b4:	00a282b3          	add	t0,t0,a0
    59b8:	00001537          	lui	a0,0x1
    59bc:	40a40533          	sub	a0,s0,a0
    59c0:	5a053503          	ld	a0,1440(a0) # 15a0 <.LBB34_3+0x100>
    59c4:	b8843583          	ld	a1,-1144(s0)
    59c8:	00a58533          	add	a0,a1,a0
    59cc:	f8843583          	ld	a1,-120(s0)
    59d0:	00b50533          	add	a0,a0,a1
    59d4:	00550533          	add	a0,a0,t0
    59d8:	e6043583          	ld	a1,-416(s0)
    59dc:	00b505bb          	addw	a1,a0,a1
    59e0:	40000537          	lui	a0,0x40000
    59e4:	00001f37          	lui	t5,0x1
    59e8:	41e40f33          	sub	t5,s0,t5
    59ec:	32bf3c23          	sd	a1,824(t5) # 1338 <.LBB34_2+0x43c>
    59f0:	0005d463          	bgez	a1,59f8 <.LBB34_326>
    59f4:	c0000537          	lui	a0,0xc0000

00000000000059f8 <.LBB34_326>:
    59f8:	9ca43423          	sd	a0,-1592(s0)
    59fc:	00001537          	lui	a0,0x1
    5a00:	40a40533          	sub	a0,s0,a0
    5a04:	59853503          	ld	a0,1432(a0) # 1598 <.LBB34_3+0xf8>
    5a08:	b9043583          	ld	a1,-1136(s0)
    5a0c:	00a58533          	add	a0,a1,a0
    5a10:	f8043583          	ld	a1,-128(s0)
    5a14:	00b50533          	add	a0,a0,a1
    5a18:	00550533          	add	a0,a0,t0
    5a1c:	e6043583          	ld	a1,-416(s0)
    5a20:	00b5053b          	addw	a0,a0,a1
    5a24:	400005b7          	lui	a1,0x40000
    5a28:	9aa43c23          	sd	a0,-1608(s0)
    5a2c:	00055463          	bgez	a0,5a34 <.LBB34_328>
    5a30:	c00005b7          	lui	a1,0xc0000

0000000000005a34 <.LBB34_328>:
    5a34:	9ab43423          	sd	a1,-1624(s0)
    5a38:	00001537          	lui	a0,0x1
    5a3c:	40a40533          	sub	a0,s0,a0
    5a40:	59053503          	ld	a0,1424(a0) # 1590 <.LBB34_3+0xf0>
    5a44:	b9843583          	ld	a1,-1128(s0)
    5a48:	00a58533          	add	a0,a1,a0
    5a4c:	f7843583          	ld	a1,-136(s0)
    5a50:	00b50533          	add	a0,a0,a1
    5a54:	00550533          	add	a0,a0,t0
    5a58:	e6043583          	ld	a1,-416(s0)
    5a5c:	00b5053b          	addw	a0,a0,a1
    5a60:	400005b7          	lui	a1,0x40000
    5a64:	96a43023          	sd	a0,-1696(s0)
    5a68:	00055463          	bgez	a0,5a70 <.LBB34_330>
    5a6c:	c00005b7          	lui	a1,0xc0000

0000000000005a70 <.LBB34_330>:
    5a70:	94b43823          	sd	a1,-1712(s0)
    5a74:	00001537          	lui	a0,0x1
    5a78:	40a40533          	sub	a0,s0,a0
    5a7c:	58853503          	ld	a0,1416(a0) # 1588 <.LBB34_3+0xe8>
    5a80:	ba043583          	ld	a1,-1120(s0)
    5a84:	00a58533          	add	a0,a1,a0
    5a88:	f7043583          	ld	a1,-144(s0)
    5a8c:	00b50533          	add	a0,a0,a1
    5a90:	00550533          	add	a0,a0,t0
    5a94:	e6043583          	ld	a1,-416(s0)
    5a98:	00b5053b          	addw	a0,a0,a1
    5a9c:	400005b7          	lui	a1,0x40000
    5aa0:	8ea43423          	sd	a0,-1816(s0)
    5aa4:	00055463          	bgez	a0,5aac <.LBB34_332>
    5aa8:	c00005b7          	lui	a1,0xc0000

0000000000005aac <.LBB34_332>:
    5aac:	8eb43023          	sd	a1,-1824(s0)
    5ab0:	00001537          	lui	a0,0x1
    5ab4:	40a40533          	sub	a0,s0,a0
    5ab8:	5a853503          	ld	a0,1448(a0) # 15a8 <.LBB34_3+0x108>
    5abc:	ba843583          	ld	a1,-1112(s0)
    5ac0:	00a58533          	add	a0,a1,a0
    5ac4:	f6843583          	ld	a1,-152(s0)
    5ac8:	00b50533          	add	a0,a0,a1
    5acc:	00550533          	add	a0,a0,t0
    5ad0:	e6043583          	ld	a1,-416(s0)
    5ad4:	00b5053b          	addw	a0,a0,a1
    5ad8:	400005b7          	lui	a1,0x40000
    5adc:	00001f37          	lui	t5,0x1
    5ae0:	41e40f33          	sub	t5,s0,t5
    5ae4:	7eaf3c23          	sd	a0,2040(t5) # 17f8 <.LBB34_3+0x358>
    5ae8:	00055463          	bgez	a0,5af0 <.LBB34_334>
    5aec:	c00005b7          	lui	a1,0xc0000

0000000000005af0 <.LBB34_334>:
    5af0:	00001537          	lui	a0,0x1
    5af4:	40a40533          	sub	a0,s0,a0
    5af8:	7eb53823          	sd	a1,2032(a0) # 17f0 <.LBB34_3+0x350>
    5afc:	00001537          	lui	a0,0x1
    5b00:	40a40533          	sub	a0,s0,a0
    5b04:	5b053503          	ld	a0,1456(a0) # 15b0 <.LBB34_3+0x110>
    5b08:	bb043583          	ld	a1,-1104(s0)
    5b0c:	00a58533          	add	a0,a1,a0
    5b10:	f6043583          	ld	a1,-160(s0)
    5b14:	00b50533          	add	a0,a0,a1
    5b18:	00550533          	add	a0,a0,t0
    5b1c:	e6043583          	ld	a1,-416(s0)
    5b20:	00b5053b          	addw	a0,a0,a1
    5b24:	400005b7          	lui	a1,0x40000
    5b28:	00001f37          	lui	t5,0x1
    5b2c:	41e40f33          	sub	t5,s0,t5
    5b30:	76af3c23          	sd	a0,1912(t5) # 1778 <.LBB34_3+0x2d8>
    5b34:	00055463          	bgez	a0,5b3c <.LBB34_336>
    5b38:	c00005b7          	lui	a1,0xc0000

0000000000005b3c <.LBB34_336>:
    5b3c:	00001537          	lui	a0,0x1
    5b40:	40a40533          	sub	a0,s0,a0
    5b44:	76b53823          	sd	a1,1904(a0) # 1770 <.LBB34_3+0x2d0>
    5b48:	00001537          	lui	a0,0x1
    5b4c:	40a40533          	sub	a0,s0,a0
    5b50:	5b853503          	ld	a0,1464(a0) # 15b8 <.LBB34_3+0x118>
    5b54:	bb843583          	ld	a1,-1096(s0)
    5b58:	00a58533          	add	a0,a1,a0
    5b5c:	f5843583          	ld	a1,-168(s0)
    5b60:	00b50533          	add	a0,a0,a1
    5b64:	00550533          	add	a0,a0,t0
    5b68:	e6043583          	ld	a1,-416(s0)
    5b6c:	00b5053b          	addw	a0,a0,a1
    5b70:	400005b7          	lui	a1,0x40000
    5b74:	00001f37          	lui	t5,0x1
    5b78:	41e40f33          	sub	t5,s0,t5
    5b7c:	72af3423          	sd	a0,1832(t5) # 1728 <.LBB34_3+0x288>
    5b80:	00055463          	bgez	a0,5b88 <.LBB34_338>
    5b84:	c00005b7          	lui	a1,0xc0000

0000000000005b88 <.LBB34_338>:
    5b88:	00001537          	lui	a0,0x1
    5b8c:	40a40533          	sub	a0,s0,a0
    5b90:	72b53023          	sd	a1,1824(a0) # 1720 <.LBB34_3+0x280>
    5b94:	00001537          	lui	a0,0x1
    5b98:	40a40533          	sub	a0,s0,a0
    5b9c:	5c053503          	ld	a0,1472(a0) # 15c0 <.LBB34_3+0x120>
    5ba0:	bc043583          	ld	a1,-1088(s0)
    5ba4:	00a58533          	add	a0,a1,a0
    5ba8:	f5043583          	ld	a1,-176(s0)
    5bac:	00b50533          	add	a0,a0,a1
    5bb0:	00550533          	add	a0,a0,t0
    5bb4:	e6043583          	ld	a1,-416(s0)
    5bb8:	00b5053b          	addw	a0,a0,a1
    5bbc:	400005b7          	lui	a1,0x40000
    5bc0:	00001f37          	lui	t5,0x1
    5bc4:	41e40f33          	sub	t5,s0,t5
    5bc8:	66af3c23          	sd	a0,1656(t5) # 1678 <.LBB34_3+0x1d8>
    5bcc:	00055463          	bgez	a0,5bd4 <.LBB34_340>
    5bd0:	c00005b7          	lui	a1,0xc0000

0000000000005bd4 <.LBB34_340>:
    5bd4:	00001537          	lui	a0,0x1
    5bd8:	40a40533          	sub	a0,s0,a0
    5bdc:	52b53023          	sd	a1,1312(a0) # 1520 <.LBB34_3+0x80>
    5be0:	00001537          	lui	a0,0x1
    5be4:	40a40533          	sub	a0,s0,a0
    5be8:	5c853503          	ld	a0,1480(a0) # 15c8 <.LBB34_3+0x128>
    5bec:	bc843583          	ld	a1,-1080(s0)
    5bf0:	00a58533          	add	a0,a1,a0
    5bf4:	f4843583          	ld	a1,-184(s0)
    5bf8:	00b50533          	add	a0,a0,a1
    5bfc:	00550533          	add	a0,a0,t0
    5c00:	e6043583          	ld	a1,-416(s0)
    5c04:	00b5053b          	addw	a0,a0,a1
    5c08:	400005b7          	lui	a1,0x40000
    5c0c:	00001f37          	lui	t5,0x1
    5c10:	41e40f33          	sub	t5,s0,t5
    5c14:	4caf3423          	sd	a0,1224(t5) # 14c8 <.LBB34_3+0x28>
    5c18:	00055463          	bgez	a0,5c20 <.LBB34_342>
    5c1c:	c00005b7          	lui	a1,0xc0000

0000000000005c20 <.LBB34_342>:
    5c20:	00001537          	lui	a0,0x1
    5c24:	40a40533          	sub	a0,s0,a0
    5c28:	4cb53023          	sd	a1,1216(a0) # 14c0 <.LBB34_3+0x20>
    5c2c:	00001537          	lui	a0,0x1
    5c30:	40a40533          	sub	a0,s0,a0
    5c34:	5d053503          	ld	a0,1488(a0) # 15d0 <.LBB34_3+0x130>
    5c38:	bd043583          	ld	a1,-1072(s0)
    5c3c:	00a58533          	add	a0,a1,a0
    5c40:	f4043583          	ld	a1,-192(s0)
    5c44:	00b50533          	add	a0,a0,a1
    5c48:	00550533          	add	a0,a0,t0
    5c4c:	e6043583          	ld	a1,-416(s0)
    5c50:	00b5053b          	addw	a0,a0,a1
    5c54:	400005b7          	lui	a1,0x40000
    5c58:	00001f37          	lui	t5,0x1
    5c5c:	41e40f33          	sub	t5,s0,t5
    5c60:	46af3023          	sd	a0,1120(t5) # 1460 <.LBB34_2+0x564>
    5c64:	00055463          	bgez	a0,5c6c <.LBB34_344>
    5c68:	c00005b7          	lui	a1,0xc0000

0000000000005c6c <.LBB34_344>:
    5c6c:	00001537          	lui	a0,0x1
    5c70:	40a40533          	sub	a0,s0,a0
    5c74:	44b53c23          	sd	a1,1112(a0) # 1458 <.LBB34_2+0x55c>
    5c78:	00001537          	lui	a0,0x1
    5c7c:	40a40533          	sub	a0,s0,a0
    5c80:	5d853503          	ld	a0,1496(a0) # 15d8 <.LBB34_3+0x138>
    5c84:	bd843583          	ld	a1,-1064(s0)
    5c88:	00a58533          	add	a0,a1,a0
    5c8c:	f1043583          	ld	a1,-240(s0)
    5c90:	00b50533          	add	a0,a0,a1
    5c94:	00550533          	add	a0,a0,t0
    5c98:	e6043583          	ld	a1,-416(s0)
    5c9c:	00b5053b          	addw	a0,a0,a1
    5ca0:	400005b7          	lui	a1,0x40000
    5ca4:	00001f37          	lui	t5,0x1
    5ca8:	41e40f33          	sub	t5,s0,t5
    5cac:	40af3023          	sd	a0,1024(t5) # 1400 <.LBB34_2+0x504>
    5cb0:	00055463          	bgez	a0,5cb8 <.LBB34_346>
    5cb4:	c00005b7          	lui	a1,0xc0000

0000000000005cb8 <.LBB34_346>:
    5cb8:	00001537          	lui	a0,0x1
    5cbc:	40a40533          	sub	a0,s0,a0
    5cc0:	3eb53c23          	sd	a1,1016(a0) # 13f8 <.LBB34_2+0x4fc>
    5cc4:	00001537          	lui	a0,0x1
    5cc8:	40a40533          	sub	a0,s0,a0
    5ccc:	5e053503          	ld	a0,1504(a0) # 15e0 <.LBB34_3+0x140>
    5cd0:	be043583          	ld	a1,-1056(s0)
    5cd4:	00a58533          	add	a0,a1,a0
    5cd8:	f0843583          	ld	a1,-248(s0)
    5cdc:	00b50533          	add	a0,a0,a1
    5ce0:	00550533          	add	a0,a0,t0
    5ce4:	e6043583          	ld	a1,-416(s0)
    5ce8:	00b5053b          	addw	a0,a0,a1
    5cec:	400005b7          	lui	a1,0x40000
    5cf0:	9ea43423          	sd	a0,-1560(s0)
    5cf4:	00055463          	bgez	a0,5cfc <.LBB34_348>
    5cf8:	c00005b7          	lui	a1,0xc0000

0000000000005cfc <.LBB34_348>:
    5cfc:	00001537          	lui	a0,0x1
    5d00:	40a40533          	sub	a0,s0,a0
    5d04:	3ab53023          	sd	a1,928(a0) # 13a0 <.LBB34_2+0x4a4>
    5d08:	00001537          	lui	a0,0x1
    5d0c:	40a40533          	sub	a0,s0,a0
    5d10:	5e853503          	ld	a0,1512(a0) # 15e8 <.LBB34_3+0x148>
    5d14:	be843583          	ld	a1,-1048(s0)
    5d18:	00a58533          	add	a0,a1,a0
    5d1c:	f0043583          	ld	a1,-256(s0)
    5d20:	00b50533          	add	a0,a0,a1
    5d24:	00550533          	add	a0,a0,t0
    5d28:	e6043583          	ld	a1,-416(s0)
    5d2c:	00b5053b          	addw	a0,a0,a1
    5d30:	400005b7          	lui	a1,0x40000
    5d34:	9ea43823          	sd	a0,-1552(s0)
    5d38:	00055463          	bgez	a0,5d40 <.LBB34_350>
    5d3c:	c00005b7          	lui	a1,0xc0000

0000000000005d40 <.LBB34_350>:
    5d40:	00001537          	lui	a0,0x1
    5d44:	40a40533          	sub	a0,s0,a0
    5d48:	32b53823          	sd	a1,816(a0) # 1330 <.LBB34_2+0x434>
    5d4c:	00001537          	lui	a0,0x1
    5d50:	40a40533          	sub	a0,s0,a0
    5d54:	5f053503          	ld	a0,1520(a0) # 15f0 <.LBB34_3+0x150>
    5d58:	bf043583          	ld	a1,-1040(s0)
    5d5c:	00a58533          	add	a0,a1,a0
    5d60:	ef843583          	ld	a1,-264(s0)
    5d64:	00b50533          	add	a0,a0,a1
    5d68:	00550533          	add	a0,a0,t0
    5d6c:	e6043583          	ld	a1,-416(s0)
    5d70:	00b5053b          	addw	a0,a0,a1
    5d74:	400005b7          	lui	a1,0x40000
    5d78:	00001f37          	lui	t5,0x1
    5d7c:	41e40f33          	sub	t5,s0,t5
    5d80:	2caf3423          	sd	a0,712(t5) # 12c8 <.LBB34_2+0x3cc>
    5d84:	00055463          	bgez	a0,5d8c <.LBB34_352>
    5d88:	c00005b7          	lui	a1,0xc0000

0000000000005d8c <.LBB34_352>:
    5d8c:	00001537          	lui	a0,0x1
    5d90:	40a40533          	sub	a0,s0,a0
    5d94:	2cb53023          	sd	a1,704(a0) # 12c0 <.LBB34_2+0x3c4>
    5d98:	00001537          	lui	a0,0x1
    5d9c:	40a40533          	sub	a0,s0,a0
    5da0:	5f853503          	ld	a0,1528(a0) # 15f8 <.LBB34_3+0x158>
    5da4:	bf843583          	ld	a1,-1032(s0)
    5da8:	00a58533          	add	a0,a1,a0
    5dac:	ef043583          	ld	a1,-272(s0)
    5db0:	00b50533          	add	a0,a0,a1
    5db4:	00550533          	add	a0,a0,t0
    5db8:	e6043583          	ld	a1,-416(s0)
    5dbc:	00b5053b          	addw	a0,a0,a1
    5dc0:	400005b7          	lui	a1,0x40000
    5dc4:	00001f37          	lui	t5,0x1
    5dc8:	41e40f33          	sub	t5,s0,t5
    5dcc:	26af3023          	sd	a0,608(t5) # 1260 <.LBB34_2+0x364>
    5dd0:	00055463          	bgez	a0,5dd8 <.LBB34_354>
    5dd4:	c00005b7          	lui	a1,0xc0000

0000000000005dd8 <.LBB34_354>:
    5dd8:	baf43423          	sd	a5,-1112(s0)
    5ddc:	00001537          	lui	a0,0x1
    5de0:	40a40533          	sub	a0,s0,a0
    5de4:	24b53c23          	sd	a1,600(a0) # 1258 <.LBB34_2+0x35c>
    5de8:	00001537          	lui	a0,0x1
    5dec:	40a40533          	sub	a0,s0,a0
    5df0:	60053503          	ld	a0,1536(a0) # 1600 <.LBB34_3+0x160>
    5df4:	c0043583          	ld	a1,-1024(s0)
    5df8:	00a58533          	add	a0,a1,a0
    5dfc:	ee843583          	ld	a1,-280(s0)
    5e00:	00b50533          	add	a0,a0,a1
    5e04:	00550533          	add	a0,a0,t0
    5e08:	e6043583          	ld	a1,-416(s0)
    5e0c:	00b5053b          	addw	a0,a0,a1
    5e10:	400005b7          	lui	a1,0x40000
    5e14:	000017b7          	lui	a5,0x1
    5e18:	40f407b3          	sub	a5,s0,a5
    5e1c:	20a7b423          	sd	a0,520(a5) # 1208 <.LBB34_2+0x30c>
    5e20:	00055463          	bgez	a0,5e28 <.LBB34_356>
    5e24:	c00005b7          	lui	a1,0xc0000

0000000000005e28 <.LBB34_356>:
    5e28:	00001537          	lui	a0,0x1
    5e2c:	40a40533          	sub	a0,s0,a0
    5e30:	20b53023          	sd	a1,512(a0) # 1200 <.LBB34_2+0x304>
    5e34:	00001537          	lui	a0,0x1
    5e38:	40a40533          	sub	a0,s0,a0
    5e3c:	60853503          	ld	a0,1544(a0) # 1608 <.LBB34_3+0x168>
    5e40:	c0843583          	ld	a1,-1016(s0)
    5e44:	00a58533          	add	a0,a1,a0
    5e48:	ee043583          	ld	a1,-288(s0)
    5e4c:	00b50533          	add	a0,a0,a1
    5e50:	00550533          	add	a0,a0,t0
    5e54:	e6043583          	ld	a1,-416(s0)
    5e58:	00b5053b          	addw	a0,a0,a1
    5e5c:	400007b7          	lui	a5,0x40000
    5e60:	000015b7          	lui	a1,0x1
    5e64:	40b405b3          	sub	a1,s0,a1
    5e68:	1aa5b023          	sd	a0,416(a1) # 11a0 <.LBB34_2+0x2a4>
    5e6c:	00055463          	bgez	a0,5e74 <.LBB34_358>
    5e70:	c00007b7          	lui	a5,0xc0000

0000000000005e74 <.LBB34_358>:
    5e74:	00001537          	lui	a0,0x1
    5e78:	40a40533          	sub	a0,s0,a0
    5e7c:	61053503          	ld	a0,1552(a0) # 1610 <.LBB34_3+0x170>
    5e80:	c1043583          	ld	a1,-1008(s0)
    5e84:	00a58533          	add	a0,a1,a0
    5e88:	ed843583          	ld	a1,-296(s0)
    5e8c:	00b50533          	add	a0,a0,a1
    5e90:	00550533          	add	a0,a0,t0
    5e94:	e6043583          	ld	a1,-416(s0)
    5e98:	00b5053b          	addw	a0,a0,a1
    5e9c:	400005b7          	lui	a1,0x40000
    5ea0:	00001f37          	lui	t5,0x1
    5ea4:	41e40f33          	sub	t5,s0,t5
    5ea8:	12af3c23          	sd	a0,312(t5) # 1138 <.LBB34_2+0x23c>
    5eac:	00055463          	bgez	a0,5eb4 <.LBB34_360>
    5eb0:	c00005b7          	lui	a1,0xc0000

0000000000005eb4 <.LBB34_360>:
    5eb4:	00001537          	lui	a0,0x1
    5eb8:	40a40533          	sub	a0,s0,a0
    5ebc:	12b53823          	sd	a1,304(a0) # 1130 <.LBB34_2+0x234>
    5ec0:	00001537          	lui	a0,0x1
    5ec4:	40a40533          	sub	a0,s0,a0
    5ec8:	61853503          	ld	a0,1560(a0) # 1618 <.LBB34_3+0x178>
    5ecc:	c1843583          	ld	a1,-1000(s0)
    5ed0:	00a58533          	add	a0,a1,a0
    5ed4:	ed043583          	ld	a1,-304(s0)
    5ed8:	00b50533          	add	a0,a0,a1
    5edc:	00550533          	add	a0,a0,t0
    5ee0:	e6043583          	ld	a1,-416(s0)
    5ee4:	00b5053b          	addw	a0,a0,a1
    5ee8:	400005b7          	lui	a1,0x40000
    5eec:	00001f37          	lui	t5,0x1
    5ef0:	41e40f33          	sub	t5,s0,t5
    5ef4:	0caf3023          	sd	a0,192(t5) # 10c0 <.LBB34_2+0x1c4>
    5ef8:	00055463          	bgez	a0,5f00 <.LBB34_362>
    5efc:	c00005b7          	lui	a1,0xc0000

0000000000005f00 <.LBB34_362>:
    5f00:	00001537          	lui	a0,0x1
    5f04:	40a40533          	sub	a0,s0,a0
    5f08:	0ab53c23          	sd	a1,184(a0) # 10b8 <.LBB34_2+0x1bc>
    5f0c:	00001537          	lui	a0,0x1
    5f10:	40a40533          	sub	a0,s0,a0
    5f14:	62053503          	ld	a0,1568(a0) # 1620 <.LBB34_3+0x180>
    5f18:	c2043583          	ld	a1,-992(s0)
    5f1c:	00a58533          	add	a0,a1,a0
    5f20:	ec843583          	ld	a1,-312(s0)
    5f24:	00b50533          	add	a0,a0,a1
    5f28:	00550533          	add	a0,a0,t0
    5f2c:	e6043583          	ld	a1,-416(s0)
    5f30:	00b5053b          	addw	a0,a0,a1
    5f34:	400005b7          	lui	a1,0x40000
    5f38:	00001f37          	lui	t5,0x1
    5f3c:	41e40f33          	sub	t5,s0,t5
    5f40:	06af3023          	sd	a0,96(t5) # 1060 <.LBB34_2+0x164>
    5f44:	00055463          	bgez	a0,5f4c <.LBB34_364>
    5f48:	c00005b7          	lui	a1,0xc0000

0000000000005f4c <.LBB34_364>:
    5f4c:	00001537          	lui	a0,0x1
    5f50:	40a40533          	sub	a0,s0,a0
    5f54:	04b53823          	sd	a1,80(a0) # 1050 <.LBB34_2+0x154>
    5f58:	00001537          	lui	a0,0x1
    5f5c:	40a40533          	sub	a0,s0,a0
    5f60:	62853503          	ld	a0,1576(a0) # 1628 <.LBB34_3+0x188>
    5f64:	c2843583          	ld	a1,-984(s0)
    5f68:	00a58533          	add	a0,a1,a0
    5f6c:	ec043583          	ld	a1,-320(s0)
    5f70:	00b50533          	add	a0,a0,a1
    5f74:	00550533          	add	a0,a0,t0
    5f78:	e6043583          	ld	a1,-416(s0)
    5f7c:	00b5053b          	addw	a0,a0,a1
    5f80:	400005b7          	lui	a1,0x40000
    5f84:	00001f37          	lui	t5,0x1
    5f88:	41e40f33          	sub	t5,s0,t5
    5f8c:	feaf3423          	sd	a0,-24(t5) # fe8 <.LBB34_2+0xec>
    5f90:	00055463          	bgez	a0,5f98 <.LBB34_366>
    5f94:	c00005b7          	lui	a1,0xc0000

0000000000005f98 <.LBB34_366>:
    5f98:	00001537          	lui	a0,0x1
    5f9c:	40a40533          	sub	a0,s0,a0
    5fa0:	fcb53c23          	sd	a1,-40(a0) # fd8 <.LBB34_2+0xdc>
    5fa4:	00001537          	lui	a0,0x1
    5fa8:	40a40533          	sub	a0,s0,a0
    5fac:	63053503          	ld	a0,1584(a0) # 1630 <.LBB34_3+0x190>
    5fb0:	c3043583          	ld	a1,-976(s0)
    5fb4:	00a58533          	add	a0,a1,a0
    5fb8:	eb843583          	ld	a1,-328(s0)
    5fbc:	00b50533          	add	a0,a0,a1
    5fc0:	00550533          	add	a0,a0,t0
    5fc4:	e6043583          	ld	a1,-416(s0)
    5fc8:	00b5053b          	addw	a0,a0,a1
    5fcc:	400005b7          	lui	a1,0x40000
    5fd0:	00001f37          	lui	t5,0x1
    5fd4:	41e40f33          	sub	t5,s0,t5
    5fd8:	f8af3423          	sd	a0,-120(t5) # f88 <.LBB34_2+0x8c>
    5fdc:	00055463          	bgez	a0,5fe4 <.LBB34_368>
    5fe0:	c00005b7          	lui	a1,0xc0000

0000000000005fe4 <.LBB34_368>:
    5fe4:	00001537          	lui	a0,0x1
    5fe8:	40a40533          	sub	a0,s0,a0
    5fec:	f6b53c23          	sd	a1,-136(a0) # f78 <.LBB34_2+0x7c>
    5ff0:	c3843503          	ld	a0,-968(s0)
    5ff4:	00150533          	add	a0,a0,ra
    5ff8:	eb043583          	ld	a1,-336(s0)
    5ffc:	00b50533          	add	a0,a0,a1
    6000:	00550533          	add	a0,a0,t0
    6004:	e6043583          	ld	a1,-416(s0)
    6008:	00b5053b          	addw	a0,a0,a1
    600c:	400005b7          	lui	a1,0x40000
    6010:	00001f37          	lui	t5,0x1
    6014:	41e40f33          	sub	t5,s0,t5
    6018:	f0af3c23          	sd	a0,-232(t5) # f18 <.LBB34_2+0x1c>
    601c:	00055463          	bgez	a0,6024 <.LBB34_370>
    6020:	c00005b7          	lui	a1,0xc0000

0000000000006024 <.LBB34_370>:
    6024:	00001537          	lui	a0,0x1
    6028:	40a40533          	sub	a0,s0,a0
    602c:	f0b53823          	sd	a1,-240(a0) # f10 <.LBB34_2+0x14>
    6030:	c4043503          	ld	a0,-960(s0)
    6034:	01650533          	add	a0,a0,s6
    6038:	ea843583          	ld	a1,-344(s0)
    603c:	00b50533          	add	a0,a0,a1
    6040:	00550533          	add	a0,a0,t0
    6044:	e6043583          	ld	a1,-416(s0)
    6048:	00b5053b          	addw	a0,a0,a1
    604c:	400005b7          	lui	a1,0x40000
    6050:	c6043083          	ld	ra,-928(s0)
    6054:	00001f37          	lui	t5,0x1
    6058:	41e40f33          	sub	t5,s0,t5
    605c:	eaaf3423          	sd	a0,-344(t5) # ea8 <.LBB34_1+0xba0>
    6060:	00055463          	bgez	a0,6068 <.LBB34_372>
    6064:	c00005b7          	lui	a1,0xc0000

0000000000006068 <.LBB34_372>:
    6068:	00001537          	lui	a0,0x1
    606c:	40a40533          	sub	a0,s0,a0
    6070:	eab53023          	sd	a1,-352(a0) # ea0 <.LBB34_1+0xb98>
    6074:	c4843503          	ld	a0,-952(s0)
    6078:	01450533          	add	a0,a0,s4
    607c:	ea043583          	ld	a1,-352(s0)
    6080:	00b50533          	add	a0,a0,a1
    6084:	00550533          	add	a0,a0,t0
    6088:	e6043583          	ld	a1,-416(s0)
    608c:	00b5053b          	addw	a0,a0,a1
    6090:	400005b7          	lui	a1,0x40000
    6094:	c6843b03          	ld	s6,-920(s0)
    6098:	00001f37          	lui	t5,0x1
    609c:	41e40f33          	sub	t5,s0,t5
    60a0:	e2af3c23          	sd	a0,-456(t5) # e38 <.LBB34_1+0xb30>
    60a4:	00055463          	bgez	a0,60ac <.LBB34_374>
    60a8:	c00005b7          	lui	a1,0xc0000

00000000000060ac <.LBB34_374>:
    60ac:	00001537          	lui	a0,0x1
    60b0:	40a40533          	sub	a0,s0,a0
    60b4:	e2b53823          	sd	a1,-464(a0) # e30 <.LBB34_1+0xb28>
    60b8:	c5043503          	ld	a0,-944(s0)
    60bc:	000015b7          	lui	a1,0x1
    60c0:	40b405b3          	sub	a1,s0,a1
    60c4:	6385b583          	ld	a1,1592(a1) # 1638 <.LBB34_3+0x198>
    60c8:	00b50533          	add	a0,a0,a1
    60cc:	e9843583          	ld	a1,-360(s0)
    60d0:	00b50533          	add	a0,a0,a1
    60d4:	00550533          	add	a0,a0,t0
    60d8:	e6043583          	ld	a1,-416(s0)
    60dc:	00b5053b          	addw	a0,a0,a1
    60e0:	400005b7          	lui	a1,0x40000
    60e4:	c7043a03          	ld	s4,-912(s0)
    60e8:	00001f37          	lui	t5,0x1
    60ec:	41e40f33          	sub	t5,s0,t5
    60f0:	dcaf3823          	sd	a0,-560(t5) # dd0 <.LBB34_1+0xac8>
    60f4:	00055463          	bgez	a0,60fc <.LBB34_376>
    60f8:	c00005b7          	lui	a1,0xc0000

00000000000060fc <.LBB34_376>:
    60fc:	00001537          	lui	a0,0x1
    6100:	40a40533          	sub	a0,s0,a0
    6104:	dcb53423          	sd	a1,-568(a0) # dc8 <.LBB34_1+0xac0>
    6108:	c5843503          	ld	a0,-936(s0)
    610c:	000015b7          	lui	a1,0x1
    6110:	40b405b3          	sub	a1,s0,a1
    6114:	6405b583          	ld	a1,1600(a1) # 1640 <.LBB34_3+0x1a0>
    6118:	00b50533          	add	a0,a0,a1
    611c:	e9043583          	ld	a1,-368(s0)
    6120:	00b50533          	add	a0,a0,a1
    6124:	00550533          	add	a0,a0,t0
    6128:	e6043583          	ld	a1,-416(s0)
    612c:	00b5053b          	addw	a0,a0,a1
    6130:	400005b7          	lui	a1,0x40000
    6134:	00001f37          	lui	t5,0x1
    6138:	41e40f33          	sub	t5,s0,t5
    613c:	d4af3c23          	sd	a0,-680(t5) # d58 <.LBB34_1+0xa50>
    6140:	00055463          	bgez	a0,6148 <.LBB34_378>
    6144:	c00005b7          	lui	a1,0xc0000

0000000000006148 <.LBB34_378>:
    6148:	00001537          	lui	a0,0x1
    614c:	40a40533          	sub	a0,s0,a0
    6150:	d4b53823          	sd	a1,-688(a0) # d50 <.LBB34_1+0xa48>
    6154:	00001537          	lui	a0,0x1
    6158:	40a40533          	sub	a0,s0,a0
    615c:	64853503          	ld	a0,1608(a0) # 1648 <.LBB34_3+0x1a8>
    6160:	00a08533          	add	a0,ra,a0
    6164:	e8843583          	ld	a1,-376(s0)
    6168:	00b50533          	add	a0,a0,a1
    616c:	00550533          	add	a0,a0,t0
    6170:	e6043583          	ld	a1,-416(s0)
    6174:	00b5053b          	addw	a0,a0,a1
    6178:	400005b7          	lui	a1,0x40000
    617c:	00001f37          	lui	t5,0x1
    6180:	41e40f33          	sub	t5,s0,t5
    6184:	ceaf3023          	sd	a0,-800(t5) # ce0 <.LBB34_1+0x9d8>
    6188:	00055463          	bgez	a0,6190 <.LBB34_380>
    618c:	c00005b7          	lui	a1,0xc0000

0000000000006190 <.LBB34_380>:
    6190:	00001537          	lui	a0,0x1
    6194:	40a40533          	sub	a0,s0,a0
    6198:	ccb53c23          	sd	a1,-808(a0) # cd8 <.LBB34_1+0x9d0>
    619c:	00001537          	lui	a0,0x1
    61a0:	40a40533          	sub	a0,s0,a0
    61a4:	65053503          	ld	a0,1616(a0) # 1650 <.LBB34_3+0x1b0>
    61a8:	00ab0533          	add	a0,s6,a0
    61ac:	e8043583          	ld	a1,-384(s0)
    61b0:	00b50533          	add	a0,a0,a1
    61b4:	00550533          	add	a0,a0,t0
    61b8:	e6043583          	ld	a1,-416(s0)
    61bc:	00b5053b          	addw	a0,a0,a1
    61c0:	400005b7          	lui	a1,0x40000
    61c4:	00001f37          	lui	t5,0x1
    61c8:	41e40f33          	sub	t5,s0,t5
    61cc:	c6af3423          	sd	a0,-920(t5) # c68 <.LBB34_1+0x960>
    61d0:	00055463          	bgez	a0,61d8 <.LBB34_382>
    61d4:	c00005b7          	lui	a1,0xc0000

00000000000061d8 <.LBB34_382>:
    61d8:	00001537          	lui	a0,0x1
    61dc:	40a40533          	sub	a0,s0,a0
    61e0:	c6b53023          	sd	a1,-928(a0) # c60 <.LBB34_1+0x958>
    61e4:	01fa0533          	add	a0,s4,t6
    61e8:	e7843583          	ld	a1,-392(s0)
    61ec:	00b50533          	add	a0,a0,a1
    61f0:	00550533          	add	a0,a0,t0
    61f4:	e6043583          	ld	a1,-416(s0)
    61f8:	00b5053b          	addw	a0,a0,a1
    61fc:	400005b7          	lui	a1,0x40000
    6200:	00001f37          	lui	t5,0x1
    6204:	41e40f33          	sub	t5,s0,t5
    6208:	c0af3423          	sd	a0,-1016(t5) # c08 <.LBB34_1+0x900>
    620c:	00055463          	bgez	a0,6214 <.LBB34_384>
    6210:	c00005b7          	lui	a1,0xc0000

0000000000006214 <.LBB34_384>:
    6214:	00001537          	lui	a0,0x1
    6218:	40a40533          	sub	a0,s0,a0
    621c:	c0b53023          	sd	a1,-1024(a0) # c00 <.LBB34_1+0x8f8>
    6220:	c7843503          	ld	a0,-904(s0)
    6224:	01c50533          	add	a0,a0,t3
    6228:	e7043583          	ld	a1,-400(s0)
    622c:	00b50533          	add	a0,a0,a1
    6230:	00550533          	add	a0,a0,t0
    6234:	e6043583          	ld	a1,-416(s0)
    6238:	00b5053b          	addw	a0,a0,a1
    623c:	400005b7          	lui	a1,0x40000
    6240:	00001f37          	lui	t5,0x1
    6244:	41e40f33          	sub	t5,s0,t5
    6248:	baaf3023          	sd	a0,-1120(t5) # ba0 <.LBB34_1+0x898>
    624c:	00055463          	bgez	a0,6254 <.LBB34_386>
    6250:	c00005b7          	lui	a1,0xc0000

0000000000006254 <.LBB34_386>:
    6254:	00001537          	lui	a0,0x1
    6258:	40a40533          	sub	a0,s0,a0
    625c:	b8b53c23          	sd	a1,-1128(a0) # b98 <.LBB34_1+0x890>
    6260:	b2643c23          	sd	t1,-1224(s0)
    6264:	b2d43423          	sd	a3,-1240(s0)
    6268:	b0c43c23          	sd	a2,-1256(s0)
    626c:	c8043503          	ld	a0,-896(s0)
    6270:	01b50533          	add	a0,a0,s11
    6274:	e6843583          	ld	a1,-408(s0)
    6278:	00b50533          	add	a0,a0,a1
    627c:	00550533          	add	a0,a0,t0
    6280:	e6043283          	ld	t0,-416(s0)
    6284:	0055053b          	addw	a0,a0,t0
    6288:	400005b7          	lui	a1,0x40000
    628c:	00001637          	lui	a2,0x1
    6290:	40c40633          	sub	a2,s0,a2
    6294:	b2a63423          	sd	a0,-1240(a2) # b28 <.LBB34_1+0x820>
    6298:	00055463          	bgez	a0,62a0 <.LBB34_388>
    629c:	c00005b7          	lui	a1,0xc0000

00000000000062a0 <.LBB34_388>:
    62a0:	00001537          	lui	a0,0x1
    62a4:	40a40533          	sub	a0,s0,a0
    62a8:	b2b53023          	sd	a1,-1248(a0) # b20 <.LBB34_1+0x818>
    62ac:	00001537          	lui	a0,0x1
    62b0:	40a40533          	sub	a0,s0,a0
    62b4:	51853503          	ld	a0,1304(a0) # 1518 <.LBB34_3+0x78>
    62b8:	00451693          	slli	a3,a0,0x4
    62bc:	00a686b3          	add	a3,a3,a0
    62c0:	00001537          	lui	a0,0x1
    62c4:	40a40533          	sub	a0,s0,a0
    62c8:	5a053583          	ld	a1,1440(a0) # 15a0 <.LBB34_3+0x100>
    62cc:	c8843303          	ld	t1,-888(s0)
    62d0:	00b305b3          	add	a1,t1,a1
    62d4:	f8843603          	ld	a2,-120(s0)
    62d8:	00c585b3          	add	a1,a1,a2
    62dc:	00d585b3          	add	a1,a1,a3
    62e0:	0055863b          	addw	a2,a1,t0
    62e4:	400005b7          	lui	a1,0x40000
    62e8:	00001537          	lui	a0,0x1
    62ec:	40a40533          	sub	a0,s0,a0
    62f0:	2cc53823          	sd	a2,720(a0) # 12d0 <.LBB34_2+0x3d4>
    62f4:	00065463          	bgez	a2,62fc <.LBB34_390>
    62f8:	c00005b7          	lui	a1,0xc0000

00000000000062fc <.LBB34_390>:
    62fc:	b5a43c23          	sd	s10,-1192(s0)
    6300:	8cb43c23          	sd	a1,-1832(s0)
    6304:	00001537          	lui	a0,0x1
    6308:	40a40533          	sub	a0,s0,a0
    630c:	59853583          	ld	a1,1432(a0) # 1598 <.LBB34_3+0xf8>
    6310:	c9043503          	ld	a0,-880(s0)
    6314:	00b505b3          	add	a1,a0,a1
    6318:	f8043603          	ld	a2,-128(s0)
    631c:	00c585b3          	add	a1,a1,a2
    6320:	00d585b3          	add	a1,a1,a3
    6324:	005585bb          	addw	a1,a1,t0
    6328:	40000637          	lui	a2,0x40000
    632c:	8cb43023          	sd	a1,-1856(s0)
    6330:	0005d463          	bgez	a1,6338 <.LBB34_392>
    6334:	c0000637          	lui	a2,0xc0000

0000000000006338 <.LBB34_392>:
    6338:	a5043023          	sd	a6,-1472(s0)
    633c:	00001537          	lui	a0,0x1
    6340:	40a40533          	sub	a0,s0,a0
    6344:	59053583          	ld	a1,1424(a0) # 1590 <.LBB34_3+0xf0>
    6348:	c9843303          	ld	t1,-872(s0)
    634c:	00b305b3          	add	a1,t1,a1
    6350:	f7843803          	ld	a6,-136(s0)
    6354:	010585b3          	add	a1,a1,a6
    6358:	00d585b3          	add	a1,a1,a3
    635c:	005585bb          	addw	a1,a1,t0
    6360:	40000d37          	lui	s10,0x40000
    6364:	86b43823          	sd	a1,-1936(s0)
    6368:	0005d463          	bgez	a1,6370 <.LBB34_394>
    636c:	c0000d37          	lui	s10,0xc0000

0000000000006370 <.LBB34_394>:
    6370:	bb143c23          	sd	a7,-1096(s0)
    6374:	00001537          	lui	a0,0x1
    6378:	40a40533          	sub	a0,s0,a0
    637c:	58853583          	ld	a1,1416(a0) # 1588 <.LBB34_3+0xe8>
    6380:	ca043503          	ld	a0,-864(s0)
    6384:	00b505b3          	add	a1,a0,a1
    6388:	f7043803          	ld	a6,-144(s0)
    638c:	010585b3          	add	a1,a1,a6
    6390:	00d585b3          	add	a1,a1,a3
    6394:	005585bb          	addw	a1,a1,t0
    6398:	40000837          	lui	a6,0x40000
    639c:	86b43023          	sd	a1,-1952(s0)
    63a0:	0005d463          	bgez	a1,63a8 <.LBB34_396>
    63a4:	c0000837          	lui	a6,0xc0000

00000000000063a8 <.LBB34_396>:
    63a8:	00001537          	lui	a0,0x1
    63ac:	40a40533          	sub	a0,s0,a0
    63b0:	5a853583          	ld	a1,1448(a0) # 15a8 <.LBB34_3+0x108>
    63b4:	ca843303          	ld	t1,-856(s0)
    63b8:	00b305b3          	add	a1,t1,a1
    63bc:	f6843883          	ld	a7,-152(s0)
    63c0:	011585b3          	add	a1,a1,a7
    63c4:	00d585b3          	add	a1,a1,a3
    63c8:	005585bb          	addw	a1,a1,t0
    63cc:	40000337          	lui	t1,0x40000
    63d0:	00001537          	lui	a0,0x1
    63d4:	40a40533          	sub	a0,s0,a0
    63d8:	7eb53423          	sd	a1,2024(a0) # 17e8 <.LBB34_3+0x348>
    63dc:	0005d463          	bgez	a1,63e4 <.LBB34_398>
    63e0:	c0000337          	lui	t1,0xc0000

00000000000063e4 <.LBB34_398>:
    63e4:	00001537          	lui	a0,0x1
    63e8:	40a40533          	sub	a0,s0,a0
    63ec:	7e653023          	sd	t1,2016(a0) # 17e0 <.LBB34_3+0x340>
    63f0:	00001537          	lui	a0,0x1
    63f4:	40a40533          	sub	a0,s0,a0
    63f8:	5b053583          	ld	a1,1456(a0) # 15b0 <.LBB34_3+0x110>
    63fc:	cb043503          	ld	a0,-848(s0)
    6400:	00b505b3          	add	a1,a0,a1
    6404:	f6043883          	ld	a7,-160(s0)
    6408:	011585b3          	add	a1,a1,a7
    640c:	00d585b3          	add	a1,a1,a3
    6410:	005585bb          	addw	a1,a1,t0
    6414:	40000337          	lui	t1,0x40000
    6418:	00001537          	lui	a0,0x1
    641c:	40a40533          	sub	a0,s0,a0
    6420:	76b53423          	sd	a1,1896(a0) # 1768 <.LBB34_3+0x2c8>
    6424:	0005d463          	bgez	a1,642c <.LBB34_400>
    6428:	c0000337          	lui	t1,0xc0000

000000000000642c <.LBB34_400>:
    642c:	00001537          	lui	a0,0x1
    6430:	40a40533          	sub	a0,s0,a0
    6434:	76653023          	sd	t1,1888(a0) # 1760 <.LBB34_3+0x2c0>
    6438:	00001537          	lui	a0,0x1
    643c:	40a40533          	sub	a0,s0,a0
    6440:	5b853583          	ld	a1,1464(a0) # 15b8 <.LBB34_3+0x118>
    6444:	cb843303          	ld	t1,-840(s0)
    6448:	00b305b3          	add	a1,t1,a1
    644c:	f5843883          	ld	a7,-168(s0)
    6450:	011585b3          	add	a1,a1,a7
    6454:	00d585b3          	add	a1,a1,a3
    6458:	005585bb          	addw	a1,a1,t0
    645c:	40000337          	lui	t1,0x40000
    6460:	00001537          	lui	a0,0x1
    6464:	40a40533          	sub	a0,s0,a0
    6468:	70b53c23          	sd	a1,1816(a0) # 1718 <.LBB34_3+0x278>
    646c:	0005d463          	bgez	a1,6474 <.LBB34_402>
    6470:	c0000337          	lui	t1,0xc0000

0000000000006474 <.LBB34_402>:
    6474:	00001537          	lui	a0,0x1
    6478:	40a40533          	sub	a0,s0,a0
    647c:	70653823          	sd	t1,1808(a0) # 1710 <.LBB34_3+0x270>
    6480:	00001537          	lui	a0,0x1
    6484:	40a40533          	sub	a0,s0,a0
    6488:	5c053583          	ld	a1,1472(a0) # 15c0 <.LBB34_3+0x120>
    648c:	cc043503          	ld	a0,-832(s0)
    6490:	00b505b3          	add	a1,a0,a1
    6494:	f5043883          	ld	a7,-176(s0)
    6498:	011585b3          	add	a1,a1,a7
    649c:	00d585b3          	add	a1,a1,a3
    64a0:	005585bb          	addw	a1,a1,t0
    64a4:	40000337          	lui	t1,0x40000
    64a8:	00001537          	lui	a0,0x1
    64ac:	40a40533          	sub	a0,s0,a0
    64b0:	50b53c23          	sd	a1,1304(a0) # 1518 <.LBB34_3+0x78>
    64b4:	0005d463          	bgez	a1,64bc <.LBB34_404>
    64b8:	c0000337          	lui	t1,0xc0000

00000000000064bc <.LBB34_404>:
    64bc:	00001537          	lui	a0,0x1
    64c0:	40a40533          	sub	a0,s0,a0
    64c4:	50653823          	sd	t1,1296(a0) # 1510 <.LBB34_3+0x70>
    64c8:	00001537          	lui	a0,0x1
    64cc:	40a40533          	sub	a0,s0,a0
    64d0:	5c853583          	ld	a1,1480(a0) # 15c8 <.LBB34_3+0x128>
    64d4:	cc843303          	ld	t1,-824(s0)
    64d8:	00b305b3          	add	a1,t1,a1
    64dc:	f4843883          	ld	a7,-184(s0)
    64e0:	011585b3          	add	a1,a1,a7
    64e4:	00d585b3          	add	a1,a1,a3
    64e8:	005585bb          	addw	a1,a1,t0
    64ec:	40000337          	lui	t1,0x40000
    64f0:	00001537          	lui	a0,0x1
    64f4:	40a40533          	sub	a0,s0,a0
    64f8:	4ab53c23          	sd	a1,1208(a0) # 14b8 <.LBB34_3+0x18>
    64fc:	0005d463          	bgez	a1,6504 <.LBB34_406>
    6500:	c0000337          	lui	t1,0xc0000

0000000000006504 <.LBB34_406>:
    6504:	00001537          	lui	a0,0x1
    6508:	40a40533          	sub	a0,s0,a0
    650c:	4a653823          	sd	t1,1200(a0) # 14b0 <.LBB34_3+0x10>
    6510:	00001537          	lui	a0,0x1
    6514:	40a40533          	sub	a0,s0,a0
    6518:	5d053583          	ld	a1,1488(a0) # 15d0 <.LBB34_3+0x130>
    651c:	cd043503          	ld	a0,-816(s0)
    6520:	00b505b3          	add	a1,a0,a1
    6524:	f4043503          	ld	a0,-192(s0)
    6528:	00a585b3          	add	a1,a1,a0
    652c:	00d585b3          	add	a1,a1,a3
    6530:	005585bb          	addw	a1,a1,t0
    6534:	40000337          	lui	t1,0x40000
    6538:	00001537          	lui	a0,0x1
    653c:	40a40533          	sub	a0,s0,a0
    6540:	44b53823          	sd	a1,1104(a0) # 1450 <.LBB34_2+0x554>
    6544:	0005d463          	bgez	a1,654c <.LBB34_408>
    6548:	c0000337          	lui	t1,0xc0000

000000000000654c <.LBB34_408>:
    654c:	00001537          	lui	a0,0x1
    6550:	40a40533          	sub	a0,s0,a0
    6554:	44653423          	sd	t1,1096(a0) # 1448 <.LBB34_2+0x54c>
    6558:	00001537          	lui	a0,0x1
    655c:	40a40533          	sub	a0,s0,a0
    6560:	5d853583          	ld	a1,1496(a0) # 15d8 <.LBB34_3+0x138>
    6564:	cd843303          	ld	t1,-808(s0)
    6568:	00b305b3          	add	a1,t1,a1
    656c:	f1043503          	ld	a0,-240(s0)
    6570:	00a585b3          	add	a1,a1,a0
    6574:	00d585b3          	add	a1,a1,a3
    6578:	005585bb          	addw	a1,a1,t0
    657c:	40000337          	lui	t1,0x40000
    6580:	00001537          	lui	a0,0x1
    6584:	40a40533          	sub	a0,s0,a0
    6588:	3eb53823          	sd	a1,1008(a0) # 13f0 <.LBB34_2+0x4f4>
    658c:	0005d463          	bgez	a1,6594 <.LBB34_410>
    6590:	c0000337          	lui	t1,0xc0000

0000000000006594 <.LBB34_410>:
    6594:	00001537          	lui	a0,0x1
    6598:	40a40533          	sub	a0,s0,a0
    659c:	3e653423          	sd	t1,1000(a0) # 13e8 <.LBB34_2+0x4ec>
    65a0:	00001537          	lui	a0,0x1
    65a4:	40a40533          	sub	a0,s0,a0
    65a8:	5e053583          	ld	a1,1504(a0) # 15e0 <.LBB34_3+0x140>
    65ac:	ce043503          	ld	a0,-800(s0)
    65b0:	00b505b3          	add	a1,a0,a1
    65b4:	f0843503          	ld	a0,-248(s0)
    65b8:	00a585b3          	add	a1,a1,a0
    65bc:	00d585b3          	add	a1,a1,a3
    65c0:	005585bb          	addw	a1,a1,t0
    65c4:	40000337          	lui	t1,0x40000
    65c8:	00001537          	lui	a0,0x1
    65cc:	40a40533          	sub	a0,s0,a0
    65d0:	38b53c23          	sd	a1,920(a0) # 1398 <.LBB34_2+0x49c>
    65d4:	0005d463          	bgez	a1,65dc <.LBB34_412>
    65d8:	c0000337          	lui	t1,0xc0000

00000000000065dc <.LBB34_412>:
    65dc:	00001537          	lui	a0,0x1
    65e0:	40a40533          	sub	a0,s0,a0
    65e4:	38653823          	sd	t1,912(a0) # 1390 <.LBB34_2+0x494>
    65e8:	00001537          	lui	a0,0x1
    65ec:	40a40533          	sub	a0,s0,a0
    65f0:	5e853583          	ld	a1,1512(a0) # 15e8 <.LBB34_3+0x148>
    65f4:	ce843303          	ld	t1,-792(s0)
    65f8:	00b305b3          	add	a1,t1,a1
    65fc:	f0043503          	ld	a0,-256(s0)
    6600:	00a585b3          	add	a1,a1,a0
    6604:	00d585b3          	add	a1,a1,a3
    6608:	005585bb          	addw	a1,a1,t0
    660c:	40000337          	lui	t1,0x40000
    6610:	00001537          	lui	a0,0x1
    6614:	40a40533          	sub	a0,s0,a0
    6618:	32b53423          	sd	a1,808(a0) # 1328 <.LBB34_2+0x42c>
    661c:	0005d463          	bgez	a1,6624 <.LBB34_414>
    6620:	c0000337          	lui	t1,0xc0000

0000000000006624 <.LBB34_414>:
    6624:	00001537          	lui	a0,0x1
    6628:	40a40533          	sub	a0,s0,a0
    662c:	32653023          	sd	t1,800(a0) # 1320 <.LBB34_2+0x424>
    6630:	00001537          	lui	a0,0x1
    6634:	40a40533          	sub	a0,s0,a0
    6638:	5f053583          	ld	a1,1520(a0) # 15f0 <.LBB34_3+0x150>
    663c:	cf043503          	ld	a0,-784(s0)
    6640:	00b505b3          	add	a1,a0,a1
    6644:	ef843503          	ld	a0,-264(s0)
    6648:	00a585b3          	add	a1,a1,a0
    664c:	00d585b3          	add	a1,a1,a3
    6650:	005585bb          	addw	a1,a1,t0
    6654:	40000337          	lui	t1,0x40000
    6658:	00001537          	lui	a0,0x1
    665c:	40a40533          	sub	a0,s0,a0
    6660:	2ab53c23          	sd	a1,696(a0) # 12b8 <.LBB34_2+0x3bc>
    6664:	0005d463          	bgez	a1,666c <.LBB34_416>
    6668:	c0000337          	lui	t1,0xc0000

000000000000666c <.LBB34_416>:
    666c:	00001537          	lui	a0,0x1
    6670:	40a40533          	sub	a0,s0,a0
    6674:	2a653823          	sd	t1,688(a0) # 12b0 <.LBB34_2+0x3b4>
    6678:	00001537          	lui	a0,0x1
    667c:	40a40533          	sub	a0,s0,a0
    6680:	5f853583          	ld	a1,1528(a0) # 15f8 <.LBB34_3+0x158>
    6684:	cf843303          	ld	t1,-776(s0)
    6688:	00b305b3          	add	a1,t1,a1
    668c:	ef043503          	ld	a0,-272(s0)
    6690:	00a585b3          	add	a1,a1,a0
    6694:	00d585b3          	add	a1,a1,a3
    6698:	005585bb          	addw	a1,a1,t0
    669c:	40000b37          	lui	s6,0x40000
    66a0:	00001537          	lui	a0,0x1
    66a4:	40a40533          	sub	a0,s0,a0
    66a8:	24b53823          	sd	a1,592(a0) # 1250 <.LBB34_2+0x354>
    66ac:	0005d463          	bgez	a1,66b4 <.LBB34_418>
    66b0:	c0000b37          	lui	s6,0xc0000

00000000000066b4 <.LBB34_418>:
    66b4:	00001537          	lui	a0,0x1
    66b8:	40a40533          	sub	a0,s0,a0
    66bc:	60053583          	ld	a1,1536(a0) # 1600 <.LBB34_3+0x160>
    66c0:	d0043503          	ld	a0,-768(s0)
    66c4:	00b505b3          	add	a1,a0,a1
    66c8:	ee843503          	ld	a0,-280(s0)
    66cc:	00a585b3          	add	a1,a1,a0
    66d0:	00d585b3          	add	a1,a1,a3
    66d4:	005585bb          	addw	a1,a1,t0
    66d8:	400008b7          	lui	a7,0x40000
    66dc:	00001537          	lui	a0,0x1
    66e0:	40a40533          	sub	a0,s0,a0
    66e4:	1eb53c23          	sd	a1,504(a0) # 11f8 <.LBB34_2+0x2fc>
    66e8:	0005d463          	bgez	a1,66f0 <.LBB34_420>
    66ec:	c00008b7          	lui	a7,0xc0000

00000000000066f0 <.LBB34_420>:
    66f0:	00001537          	lui	a0,0x1
    66f4:	40a40533          	sub	a0,s0,a0
    66f8:	60853583          	ld	a1,1544(a0) # 1608 <.LBB34_3+0x168>
    66fc:	d0843303          	ld	t1,-760(s0)
    6700:	00b305b3          	add	a1,t1,a1
    6704:	ee043503          	ld	a0,-288(s0)
    6708:	00a585b3          	add	a1,a1,a0
    670c:	00d585b3          	add	a1,a1,a3
    6710:	005585bb          	addw	a1,a1,t0
    6714:	40000337          	lui	t1,0x40000
    6718:	00001537          	lui	a0,0x1
    671c:	40a40533          	sub	a0,s0,a0
    6720:	18b53823          	sd	a1,400(a0) # 1190 <.LBB34_2+0x294>
    6724:	0005d463          	bgez	a1,672c <.LBB34_422>
    6728:	c0000337          	lui	t1,0xc0000

000000000000672c <.LBB34_422>:
    672c:	00001537          	lui	a0,0x1
    6730:	40a40533          	sub	a0,s0,a0
    6734:	18653423          	sd	t1,392(a0) # 1188 <.LBB34_2+0x28c>
    6738:	00001537          	lui	a0,0x1
    673c:	40a40533          	sub	a0,s0,a0
    6740:	61053583          	ld	a1,1552(a0) # 1610 <.LBB34_3+0x170>
    6744:	d1043503          	ld	a0,-752(s0)
    6748:	00b505b3          	add	a1,a0,a1
    674c:	ed843503          	ld	a0,-296(s0)
    6750:	00a585b3          	add	a1,a1,a0
    6754:	00d585b3          	add	a1,a1,a3
    6758:	005585bb          	addw	a1,a1,t0
    675c:	40000337          	lui	t1,0x40000
    6760:	00001537          	lui	a0,0x1
    6764:	40a40533          	sub	a0,s0,a0
    6768:	12b53423          	sd	a1,296(a0) # 1128 <.LBB34_2+0x22c>
    676c:	0005d463          	bgez	a1,6774 <.LBB34_424>
    6770:	c0000337          	lui	t1,0xc0000

0000000000006774 <.LBB34_424>:
    6774:	00001537          	lui	a0,0x1
    6778:	40a40533          	sub	a0,s0,a0
    677c:	12653023          	sd	t1,288(a0) # 1120 <.LBB34_2+0x224>
    6780:	00001537          	lui	a0,0x1
    6784:	40a40533          	sub	a0,s0,a0
    6788:	61853583          	ld	a1,1560(a0) # 1618 <.LBB34_3+0x178>
    678c:	d1843303          	ld	t1,-744(s0)
    6790:	00b305b3          	add	a1,t1,a1
    6794:	ed043503          	ld	a0,-304(s0)
    6798:	00a585b3          	add	a1,a1,a0
    679c:	00d585b3          	add	a1,a1,a3
    67a0:	005585bb          	addw	a1,a1,t0
    67a4:	40000337          	lui	t1,0x40000
    67a8:	00001537          	lui	a0,0x1
    67ac:	40a40533          	sub	a0,s0,a0
    67b0:	0ab53823          	sd	a1,176(a0) # 10b0 <.LBB34_2+0x1b4>
    67b4:	0005d463          	bgez	a1,67bc <.LBB34_426>
    67b8:	c0000337          	lui	t1,0xc0000

00000000000067bc <.LBB34_426>:
    67bc:	00001537          	lui	a0,0x1
    67c0:	40a40533          	sub	a0,s0,a0
    67c4:	0a653423          	sd	t1,168(a0) # 10a8 <.LBB34_2+0x1ac>
    67c8:	00001537          	lui	a0,0x1
    67cc:	40a40533          	sub	a0,s0,a0
    67d0:	62053583          	ld	a1,1568(a0) # 1620 <.LBB34_3+0x180>
    67d4:	d2043503          	ld	a0,-736(s0)
    67d8:	00b505b3          	add	a1,a0,a1
    67dc:	ec843503          	ld	a0,-312(s0)
    67e0:	00a585b3          	add	a1,a1,a0
    67e4:	00d585b3          	add	a1,a1,a3
    67e8:	005585bb          	addw	a1,a1,t0
    67ec:	40000337          	lui	t1,0x40000
    67f0:	00001537          	lui	a0,0x1
    67f4:	40a40533          	sub	a0,s0,a0
    67f8:	04b53423          	sd	a1,72(a0) # 1048 <.LBB34_2+0x14c>
    67fc:	0005d463          	bgez	a1,6804 <.LBB34_428>
    6800:	c0000337          	lui	t1,0xc0000

0000000000006804 <.LBB34_428>:
    6804:	00001537          	lui	a0,0x1
    6808:	40a40533          	sub	a0,s0,a0
    680c:	04653023          	sd	t1,64(a0) # 1040 <.LBB34_2+0x144>
    6810:	00001537          	lui	a0,0x1
    6814:	40a40533          	sub	a0,s0,a0
    6818:	62853583          	ld	a1,1576(a0) # 1628 <.LBB34_3+0x188>
    681c:	d2843303          	ld	t1,-728(s0)
    6820:	00b305b3          	add	a1,t1,a1
    6824:	ec043503          	ld	a0,-320(s0)
    6828:	00a585b3          	add	a1,a1,a0
    682c:	00d585b3          	add	a1,a1,a3
    6830:	005585bb          	addw	a1,a1,t0
    6834:	40000337          	lui	t1,0x40000
    6838:	00001537          	lui	a0,0x1
    683c:	40a40533          	sub	a0,s0,a0
    6840:	fcb53823          	sd	a1,-48(a0) # fd0 <.LBB34_2+0xd4>
    6844:	0005d463          	bgez	a1,684c <.LBB34_430>
    6848:	c0000337          	lui	t1,0xc0000

000000000000684c <.LBB34_430>:
    684c:	00001537          	lui	a0,0x1
    6850:	40a40533          	sub	a0,s0,a0
    6854:	fc653423          	sd	t1,-56(a0) # fc8 <.LBB34_2+0xcc>
    6858:	00001537          	lui	a0,0x1
    685c:	40a40533          	sub	a0,s0,a0
    6860:	63053583          	ld	a1,1584(a0) # 1630 <.LBB34_3+0x190>
    6864:	d3043503          	ld	a0,-720(s0)
    6868:	00b505b3          	add	a1,a0,a1
    686c:	eb843503          	ld	a0,-328(s0)
    6870:	00a585b3          	add	a1,a1,a0
    6874:	00d585b3          	add	a1,a1,a3
    6878:	005585bb          	addw	a1,a1,t0
    687c:	40000337          	lui	t1,0x40000
    6880:	00001537          	lui	a0,0x1
    6884:	40a40533          	sub	a0,s0,a0
    6888:	f6b53823          	sd	a1,-144(a0) # f70 <.LBB34_2+0x74>
    688c:	0005d463          	bgez	a1,6894 <.LBB34_432>
    6890:	c0000337          	lui	t1,0xc0000

0000000000006894 <.LBB34_432>:
    6894:	00001537          	lui	a0,0x1
    6898:	40a40533          	sub	a0,s0,a0
    689c:	f6653023          	sd	t1,-160(a0) # f60 <.LBB34_2+0x64>
    68a0:	00001537          	lui	a0,0x1
    68a4:	40a40533          	sub	a0,s0,a0
    68a8:	56053583          	ld	a1,1376(a0) # 1560 <.LBB34_3+0xc0>
    68ac:	d3843303          	ld	t1,-712(s0)
    68b0:	00b305b3          	add	a1,t1,a1
    68b4:	eb043503          	ld	a0,-336(s0)
    68b8:	00a585b3          	add	a1,a1,a0
    68bc:	00d585b3          	add	a1,a1,a3
    68c0:	005585bb          	addw	a1,a1,t0
    68c4:	40000337          	lui	t1,0x40000
    68c8:	00001537          	lui	a0,0x1
    68cc:	40a40533          	sub	a0,s0,a0
    68d0:	f0b53023          	sd	a1,-256(a0) # f00 <.LBB34_2+0x4>
    68d4:	0005d463          	bgez	a1,68dc <.LBB34_434>
    68d8:	c0000337          	lui	t1,0xc0000

00000000000068dc <.LBB34_434>:
    68dc:	00001537          	lui	a0,0x1
    68e0:	40a40533          	sub	a0,s0,a0
    68e4:	ee653823          	sd	t1,-272(a0) # ef0 <.LBB34_1+0xbe8>
    68e8:	00001537          	lui	a0,0x1
    68ec:	40a40533          	sub	a0,s0,a0
    68f0:	56853583          	ld	a1,1384(a0) # 1568 <.LBB34_3+0xc8>
    68f4:	d4043503          	ld	a0,-704(s0)
    68f8:	00b505b3          	add	a1,a0,a1
    68fc:	ea843503          	ld	a0,-344(s0)
    6900:	00a585b3          	add	a1,a1,a0
    6904:	00d585b3          	add	a1,a1,a3
    6908:	005585bb          	addw	a1,a1,t0
    690c:	40000337          	lui	t1,0x40000
    6910:	00001537          	lui	a0,0x1
    6914:	40a40533          	sub	a0,s0,a0
    6918:	e8b53c23          	sd	a1,-360(a0) # e98 <.LBB34_1+0xb90>
    691c:	0005d463          	bgez	a1,6924 <.LBB34_436>
    6920:	c0000337          	lui	t1,0xc0000

0000000000006924 <.LBB34_436>:
    6924:	00001537          	lui	a0,0x1
    6928:	40a40533          	sub	a0,s0,a0
    692c:	e8653423          	sd	t1,-376(a0) # e88 <.LBB34_1+0xb80>
    6930:	00001537          	lui	a0,0x1
    6934:	40a40533          	sub	a0,s0,a0
    6938:	18f53c23          	sd	a5,408(a0) # 1198 <.LBB34_2+0x29c>
    693c:	00001537          	lui	a0,0x1
    6940:	40a40533          	sub	a0,s0,a0
    6944:	57053583          	ld	a1,1392(a0) # 1570 <.LBB34_3+0xd0>
    6948:	d4843303          	ld	t1,-696(s0)
    694c:	00b305b3          	add	a1,t1,a1
    6950:	ea043503          	ld	a0,-352(s0)
    6954:	00a585b3          	add	a1,a1,a0
    6958:	00d585b3          	add	a1,a1,a3
    695c:	005585bb          	addw	a1,a1,t0
    6960:	400007b7          	lui	a5,0x40000
    6964:	00001537          	lui	a0,0x1
    6968:	40a40533          	sub	a0,s0,a0
    696c:	e2b53423          	sd	a1,-472(a0) # e28 <.LBB34_1+0xb20>
    6970:	0005d463          	bgez	a1,6978 <.LBB34_438>
    6974:	c00007b7          	lui	a5,0xc0000

0000000000006978 <.LBB34_438>:
    6978:	00048a13          	mv	s4,s1
    697c:	00001537          	lui	a0,0x1
    6980:	40a40533          	sub	a0,s0,a0
    6984:	e2f53023          	sd	a5,-480(a0) # e20 <.LBB34_1+0xb18>
    6988:	00070793          	mv	a5,a4
    698c:	d5043583          	ld	a1,-688(s0)
    6990:	00001537          	lui	a0,0x1
    6994:	40a40533          	sub	a0,s0,a0
    6998:	63853503          	ld	a0,1592(a0) # 1638 <.LBB34_3+0x198>
    699c:	00a585b3          	add	a1,a1,a0
    69a0:	e9843503          	ld	a0,-360(s0)
    69a4:	00a585b3          	add	a1,a1,a0
    69a8:	00d585b3          	add	a1,a1,a3
    69ac:	005585bb          	addw	a1,a1,t0
    69b0:	40000737          	lui	a4,0x40000
    69b4:	00001537          	lui	a0,0x1
    69b8:	40a40533          	sub	a0,s0,a0
    69bc:	dcb53023          	sd	a1,-576(a0) # dc0 <.LBB34_1+0xab8>
    69c0:	0005d463          	bgez	a1,69c8 <.LBB34_440>
    69c4:	c0000737          	lui	a4,0xc0000

00000000000069c8 <.LBB34_440>:
    69c8:	000c8993          	mv	s3,s9
    69cc:	00001537          	lui	a0,0x1
    69d0:	40a40533          	sub	a0,s0,a0
    69d4:	dae53c23          	sd	a4,-584(a0) # db8 <.LBB34_1+0xab0>
    69d8:	00001537          	lui	a0,0x1
    69dc:	40a40533          	sub	a0,s0,a0
    69e0:	ae853083          	ld	ra,-1304(a0) # ae8 <.LBB34_1+0x7e0>
    69e4:	00001537          	lui	a0,0x1
    69e8:	40a40533          	sub	a0,s0,a0
    69ec:	af053483          	ld	s1,-1296(a0) # af0 <.LBB34_1+0x7e8>
    69f0:	d5843583          	ld	a1,-680(s0)
    69f4:	00001537          	lui	a0,0x1
    69f8:	40a40533          	sub	a0,s0,a0
    69fc:	64053503          	ld	a0,1600(a0) # 1640 <.LBB34_3+0x1a0>
    6a00:	00a585b3          	add	a1,a1,a0
    6a04:	e9043503          	ld	a0,-368(s0)
    6a08:	00a585b3          	add	a1,a1,a0
    6a0c:	00d585b3          	add	a1,a1,a3
    6a10:	005585bb          	addw	a1,a1,t0
    6a14:	40000337          	lui	t1,0x40000
    6a18:	d8043703          	ld	a4,-640(s0)
    6a1c:	00001537          	lui	a0,0x1
    6a20:	40a40533          	sub	a0,s0,a0
    6a24:	d4b53423          	sd	a1,-696(a0) # d48 <.LBB34_1+0xa40>
    6a28:	0005d463          	bgez	a1,6a30 <.LBB34_442>
    6a2c:	c0000337          	lui	t1,0xc0000

0000000000006a30 <.LBB34_442>:
    6a30:	8ac43823          	sd	a2,-1872(s0)
    6a34:	d6043583          	ld	a1,-672(s0)
    6a38:	00001537          	lui	a0,0x1
    6a3c:	40a40533          	sub	a0,s0,a0
    6a40:	64853603          	ld	a2,1608(a0) # 1648 <.LBB34_3+0x1a8>
    6a44:	00c585b3          	add	a1,a1,a2
    6a48:	e8843503          	ld	a0,-376(s0)
    6a4c:	00a585b3          	add	a1,a1,a0
    6a50:	00d585b3          	add	a1,a1,a3
    6a54:	005585bb          	addw	a1,a1,t0
    6a58:	40000637          	lui	a2,0x40000
    6a5c:	d7043c83          	ld	s9,-656(s0)
    6a60:	00001537          	lui	a0,0x1
    6a64:	40a40533          	sub	a0,s0,a0
    6a68:	ccb53823          	sd	a1,-816(a0) # cd0 <.LBB34_1+0x9c8>
    6a6c:	0005d463          	bgez	a1,6a74 <.LBB34_444>
    6a70:	c0000637          	lui	a2,0xc0000

0000000000006a74 <.LBB34_444>:
    6a74:	00001537          	lui	a0,0x1
    6a78:	40a40533          	sub	a0,s0,a0
    6a7c:	65053583          	ld	a1,1616(a0) # 1650 <.LBB34_3+0x1b0>
    6a80:	d6843503          	ld	a0,-664(s0)
    6a84:	00b505b3          	add	a1,a0,a1
    6a88:	e8043503          	ld	a0,-384(s0)
    6a8c:	00a585b3          	add	a1,a1,a0
    6a90:	00d585b3          	add	a1,a1,a3
    6a94:	005585bb          	addw	a1,a1,t0
    6a98:	40000f37          	lui	t5,0x40000
    6a9c:	00001537          	lui	a0,0x1
    6aa0:	40a40533          	sub	a0,s0,a0
    6aa4:	c4b53c23          	sd	a1,-936(a0) # c58 <.LBB34_1+0x950>
    6aa8:	0005d463          	bgez	a1,6ab0 <.LBB34_446>
    6aac:	c0000f37          	lui	t5,0xc0000

0000000000006ab0 <.LBB34_446>:
    6ab0:	01fc85b3          	add	a1,s9,t6
    6ab4:	e7843503          	ld	a0,-392(s0)
    6ab8:	00a585b3          	add	a1,a1,a0
    6abc:	00d585b3          	add	a1,a1,a3
    6ac0:	005585bb          	addw	a1,a1,t0
    6ac4:	40000537          	lui	a0,0x40000
    6ac8:	00001cb7          	lui	s9,0x1
    6acc:	41940cb3          	sub	s9,s0,s9
    6ad0:	bebcbc23          	sd	a1,-1032(s9) # bf8 <.LBB34_1+0x8f0>
    6ad4:	0005d463          	bgez	a1,6adc <.LBB34_448>
    6ad8:	c0000537          	lui	a0,0xc0000

0000000000006adc <.LBB34_448>:
    6adc:	d7843583          	ld	a1,-648(s0)
    6ae0:	01c585b3          	add	a1,a1,t3
    6ae4:	e7043c83          	ld	s9,-400(s0)
    6ae8:	019585b3          	add	a1,a1,s9
    6aec:	00d585b3          	add	a1,a1,a3
    6af0:	005585bb          	addw	a1,a1,t0
    6af4:	40000cb7          	lui	s9,0x40000
    6af8:	f8a43823          	sd	a0,-112(s0)
    6afc:	00001537          	lui	a0,0x1
    6b00:	40a40533          	sub	a0,s0,a0
    6b04:	b8b53823          	sd	a1,-1136(a0) # b90 <.LBB34_1+0x888>
    6b08:	f9043503          	ld	a0,-112(s0)
    6b0c:	0005d463          	bgez	a1,6b14 <.LBB34_450>
    6b10:	c0000cb7          	lui	s9,0xc0000

0000000000006b14 <.LBB34_450>:
    6b14:	000015b7          	lui	a1,0x1
    6b18:	40b405b3          	sub	a1,s0,a1
    6b1c:	ccc5b423          	sd	a2,-824(a1) # cc8 <.LBB34_1+0x9c0>
    6b20:	000015b7          	lui	a1,0x1
    6b24:	40b405b3          	sub	a1,s0,a1
    6b28:	d465b023          	sd	t1,-704(a1) # d40 <.LBB34_1+0xa38>
    6b2c:	01b70733          	add	a4,a4,s11
    6b30:	e6843583          	ld	a1,-408(s0)
    6b34:	00b70733          	add	a4,a4,a1
    6b38:	00d706b3          	add	a3,a4,a3
    6b3c:	005685bb          	addw	a1,a3,t0
    6b40:	40000637          	lui	a2,0x40000
    6b44:	000016b7          	lui	a3,0x1
    6b48:	40d406b3          	sub	a3,s0,a3
    6b4c:	b0b6bc23          	sd	a1,-1256(a3) # b18 <.LBB34_1+0x810>
    6b50:	0005d463          	bgez	a1,6b58 <.LBB34_452>
    6b54:	c0000637          	lui	a2,0xc0000

0000000000006b58 <.LBB34_452>:
    6b58:	000015b7          	lui	a1,0x1
    6b5c:	40b405b3          	sub	a1,s0,a1
    6b60:	b0c5b823          	sd	a2,-1264(a1) # b10 <.LBB34_1+0x808>
    6b64:	85043c23          	sd	a6,-1960(s0)
    6b68:	000015b7          	lui	a1,0x1
    6b6c:	40b405b3          	sub	a1,s0,a1
    6b70:	b9a5b423          	sd	s10,-1144(a1) # b88 <.LBB34_1+0x880>
    6b74:	000015b7          	lui	a1,0x1
    6b78:	40b405b3          	sub	a1,s0,a1
    6b7c:	5085b583          	ld	a1,1288(a1) # 1508 <.LBB34_3+0x68>
    6b80:	00459713          	slli	a4,a1,0x4
    6b84:	00b70733          	add	a4,a4,a1
    6b88:	000015b7          	lui	a1,0x1
    6b8c:	40b405b3          	sub	a1,s0,a1
    6b90:	5a05b683          	ld	a3,1440(a1) # 15a0 <.LBB34_3+0x100>
    6b94:	d8843583          	ld	a1,-632(s0)
    6b98:	00d586b3          	add	a3,a1,a3
    6b9c:	f8843603          	ld	a2,-120(s0)
    6ba0:	00c686b3          	add	a3,a3,a2
    6ba4:	00e686b3          	add	a3,a3,a4
    6ba8:	e6043303          	ld	t1,-416(s0)
    6bac:	006686bb          	addw	a3,a3,t1
    6bb0:	40000337          	lui	t1,0x40000
    6bb4:	82d43c23          	sd	a3,-1992(s0)
    6bb8:	0006d463          	bgez	a3,6bc0 <.LBB34_454>
    6bbc:	c0000337          	lui	t1,0xc0000

0000000000006bc0 <.LBB34_454>:
    6bc0:	82643823          	sd	t1,-2000(s0)
    6bc4:	000015b7          	lui	a1,0x1
    6bc8:	40b405b3          	sub	a1,s0,a1
    6bcc:	5985b683          	ld	a3,1432(a1) # 1598 <.LBB34_3+0xf8>
    6bd0:	d9043303          	ld	t1,-624(s0)
    6bd4:	00d306b3          	add	a3,t1,a3
    6bd8:	f8043603          	ld	a2,-128(s0)
    6bdc:	00c686b3          	add	a3,a3,a2
    6be0:	00e686b3          	add	a3,a3,a4
    6be4:	e6043303          	ld	t1,-416(s0)
    6be8:	006686bb          	addw	a3,a3,t1
    6bec:	40000837          	lui	a6,0x40000
    6bf0:	82d43423          	sd	a3,-2008(s0)
    6bf4:	0006d463          	bgez	a3,6bfc <.LBB34_456>
    6bf8:	c0000837          	lui	a6,0xc0000

0000000000006bfc <.LBB34_456>:
    6bfc:	83043023          	sd	a6,-2016(s0)
    6c00:	000015b7          	lui	a1,0x1
    6c04:	40b405b3          	sub	a1,s0,a1
    6c08:	5905b683          	ld	a3,1424(a1) # 1590 <.LBB34_3+0xf0>
    6c0c:	d9843303          	ld	t1,-616(s0)
    6c10:	00d306b3          	add	a3,t1,a3
    6c14:	f7843603          	ld	a2,-136(s0)
    6c18:	00c686b3          	add	a3,a3,a2
    6c1c:	00e686b3          	add	a3,a3,a4
    6c20:	e6043303          	ld	t1,-416(s0)
    6c24:	006686bb          	addw	a3,a3,t1
    6c28:	40000837          	lui	a6,0x40000
    6c2c:	80d43c23          	sd	a3,-2024(s0)
    6c30:	0006d463          	bgez	a3,6c38 <.LBB34_458>
    6c34:	c0000837          	lui	a6,0xc0000

0000000000006c38 <.LBB34_458>:
    6c38:	000015b7          	lui	a1,0x1
    6c3c:	40b405b3          	sub	a1,s0,a1
    6c40:	5885b683          	ld	a3,1416(a1) # 1588 <.LBB34_3+0xe8>
    6c44:	da043303          	ld	t1,-608(s0)
    6c48:	00d306b3          	add	a3,t1,a3
    6c4c:	f7043603          	ld	a2,-144(s0)
    6c50:	00c686b3          	add	a3,a3,a2
    6c54:	00e686b3          	add	a3,a3,a4
    6c58:	e6043303          	ld	t1,-416(s0)
    6c5c:	006686bb          	addw	a3,a3,t1
    6c60:	40000337          	lui	t1,0x40000
    6c64:	80d43423          	sd	a3,-2040(s0)
    6c68:	0006d463          	bgez	a3,6c70 <.LBB34_460>
    6c6c:	c0000337          	lui	t1,0xc0000

0000000000006c70 <.LBB34_460>:
    6c70:	80643023          	sd	t1,-2048(s0)
    6c74:	000015b7          	lui	a1,0x1
    6c78:	40b405b3          	sub	a1,s0,a1
    6c7c:	5a85b683          	ld	a3,1448(a1) # 15a8 <.LBB34_3+0x108>
    6c80:	da843303          	ld	t1,-600(s0)
    6c84:	00d306b3          	add	a3,t1,a3
    6c88:	f6843603          	ld	a2,-152(s0)
    6c8c:	00c686b3          	add	a3,a3,a2
    6c90:	00e686b3          	add	a3,a3,a4
    6c94:	e6043303          	ld	t1,-416(s0)
    6c98:	006686bb          	addw	a3,a3,t1
    6c9c:	40000337          	lui	t1,0x40000
    6ca0:	000015b7          	lui	a1,0x1
    6ca4:	40b405b3          	sub	a1,s0,a1
    6ca8:	7cd5bc23          	sd	a3,2008(a1) # 17d8 <.LBB34_3+0x338>
    6cac:	0006d463          	bgez	a3,6cb4 <.LBB34_462>
    6cb0:	c0000337          	lui	t1,0xc0000

0000000000006cb4 <.LBB34_462>:
    6cb4:	000015b7          	lui	a1,0x1
    6cb8:	40b405b3          	sub	a1,s0,a1
    6cbc:	7c65b823          	sd	t1,2000(a1) # 17d0 <.LBB34_3+0x330>
    6cc0:	000015b7          	lui	a1,0x1
    6cc4:	40b405b3          	sub	a1,s0,a1
    6cc8:	5b05b683          	ld	a3,1456(a1) # 15b0 <.LBB34_3+0x110>
    6ccc:	db043303          	ld	t1,-592(s0)
    6cd0:	00d306b3          	add	a3,t1,a3
    6cd4:	f6043603          	ld	a2,-160(s0)
    6cd8:	00c686b3          	add	a3,a3,a2
    6cdc:	00e686b3          	add	a3,a3,a4
    6ce0:	e6043303          	ld	t1,-416(s0)
    6ce4:	006686bb          	addw	a3,a3,t1
    6ce8:	40000337          	lui	t1,0x40000
    6cec:	000015b7          	lui	a1,0x1
    6cf0:	40b405b3          	sub	a1,s0,a1
    6cf4:	74d5bc23          	sd	a3,1880(a1) # 1758 <.LBB34_3+0x2b8>
    6cf8:	0006d463          	bgez	a3,6d00 <.LBB34_464>
    6cfc:	c0000337          	lui	t1,0xc0000

0000000000006d00 <.LBB34_464>:
    6d00:	000015b7          	lui	a1,0x1
    6d04:	40b405b3          	sub	a1,s0,a1
    6d08:	7465b823          	sd	t1,1872(a1) # 1750 <.LBB34_3+0x2b0>
    6d0c:	000015b7          	lui	a1,0x1
    6d10:	40b405b3          	sub	a1,s0,a1
    6d14:	5b85b683          	ld	a3,1464(a1) # 15b8 <.LBB34_3+0x118>
    6d18:	db843303          	ld	t1,-584(s0)
    6d1c:	00d306b3          	add	a3,t1,a3
    6d20:	f5843603          	ld	a2,-168(s0)
    6d24:	00c686b3          	add	a3,a3,a2
    6d28:	00e686b3          	add	a3,a3,a4
    6d2c:	e6043303          	ld	t1,-416(s0)
    6d30:	006686bb          	addw	a3,a3,t1
    6d34:	40000337          	lui	t1,0x40000
    6d38:	000015b7          	lui	a1,0x1
    6d3c:	40b405b3          	sub	a1,s0,a1
    6d40:	70d5b423          	sd	a3,1800(a1) # 1708 <.LBB34_3+0x268>
    6d44:	0006d463          	bgez	a3,6d4c <.LBB34_466>
    6d48:	c0000337          	lui	t1,0xc0000

0000000000006d4c <.LBB34_466>:
    6d4c:	000015b7          	lui	a1,0x1
    6d50:	40b405b3          	sub	a1,s0,a1
    6d54:	7065b023          	sd	t1,1792(a1) # 1700 <.LBB34_3+0x260>
    6d58:	000015b7          	lui	a1,0x1
    6d5c:	40b405b3          	sub	a1,s0,a1
    6d60:	5c05b683          	ld	a3,1472(a1) # 15c0 <.LBB34_3+0x120>
    6d64:	dc043303          	ld	t1,-576(s0)
    6d68:	00d306b3          	add	a3,t1,a3
    6d6c:	f5043603          	ld	a2,-176(s0)
    6d70:	00c686b3          	add	a3,a3,a2
    6d74:	00e686b3          	add	a3,a3,a4
    6d78:	e6043303          	ld	t1,-416(s0)
    6d7c:	006686bb          	addw	a3,a3,t1
    6d80:	40000337          	lui	t1,0x40000
    6d84:	000015b7          	lui	a1,0x1
    6d88:	40b405b3          	sub	a1,s0,a1
    6d8c:	50d5b423          	sd	a3,1288(a1) # 1508 <.LBB34_3+0x68>
    6d90:	0006d463          	bgez	a3,6d98 <.LBB34_468>
    6d94:	c0000337          	lui	t1,0xc0000

0000000000006d98 <.LBB34_468>:
    6d98:	000015b7          	lui	a1,0x1
    6d9c:	40b405b3          	sub	a1,s0,a1
    6da0:	5065b023          	sd	t1,1280(a1) # 1500 <.LBB34_3+0x60>
    6da4:	000015b7          	lui	a1,0x1
    6da8:	40b405b3          	sub	a1,s0,a1
    6dac:	5c85b683          	ld	a3,1480(a1) # 15c8 <.LBB34_3+0x128>
    6db0:	dc843303          	ld	t1,-568(s0)
    6db4:	00d306b3          	add	a3,t1,a3
    6db8:	f4843603          	ld	a2,-184(s0)
    6dbc:	00c686b3          	add	a3,a3,a2
    6dc0:	00e686b3          	add	a3,a3,a4
    6dc4:	e6043303          	ld	t1,-416(s0)
    6dc8:	006686bb          	addw	a3,a3,t1
    6dcc:	40000337          	lui	t1,0x40000
    6dd0:	000015b7          	lui	a1,0x1
    6dd4:	40b405b3          	sub	a1,s0,a1
    6dd8:	4ad5b423          	sd	a3,1192(a1) # 14a8 <.LBB34_3+0x8>
    6ddc:	0006d463          	bgez	a3,6de4 <.LBB34_470>
    6de0:	c0000337          	lui	t1,0xc0000

0000000000006de4 <.LBB34_470>:
    6de4:	000015b7          	lui	a1,0x1
    6de8:	40b405b3          	sub	a1,s0,a1
    6dec:	4a65b023          	sd	t1,1184(a1) # 14a0 <.LBB34_3>
    6df0:	000015b7          	lui	a1,0x1
    6df4:	40b405b3          	sub	a1,s0,a1
    6df8:	5d05b683          	ld	a3,1488(a1) # 15d0 <.LBB34_3+0x130>
    6dfc:	dd043303          	ld	t1,-560(s0)
    6e00:	00d306b3          	add	a3,t1,a3
    6e04:	f4043583          	ld	a1,-192(s0)
    6e08:	00b686b3          	add	a3,a3,a1
    6e0c:	00e686b3          	add	a3,a3,a4
    6e10:	e6043303          	ld	t1,-416(s0)
    6e14:	006686bb          	addw	a3,a3,t1
    6e18:	40000337          	lui	t1,0x40000
    6e1c:	000015b7          	lui	a1,0x1
    6e20:	40b405b3          	sub	a1,s0,a1
    6e24:	44d5b023          	sd	a3,1088(a1) # 1440 <.LBB34_2+0x544>
    6e28:	0006d463          	bgez	a3,6e30 <.LBB34_472>
    6e2c:	c0000337          	lui	t1,0xc0000

0000000000006e30 <.LBB34_472>:
    6e30:	000015b7          	lui	a1,0x1
    6e34:	40b405b3          	sub	a1,s0,a1
    6e38:	4265bc23          	sd	t1,1080(a1) # 1438 <.LBB34_2+0x53c>
    6e3c:	000015b7          	lui	a1,0x1
    6e40:	40b405b3          	sub	a1,s0,a1
    6e44:	5d85b683          	ld	a3,1496(a1) # 15d8 <.LBB34_3+0x138>
    6e48:	dd843303          	ld	t1,-552(s0)
    6e4c:	00d306b3          	add	a3,t1,a3
    6e50:	f1043583          	ld	a1,-240(s0)
    6e54:	00b686b3          	add	a3,a3,a1
    6e58:	00e686b3          	add	a3,a3,a4
    6e5c:	e6043303          	ld	t1,-416(s0)
    6e60:	006686bb          	addw	a3,a3,t1
    6e64:	40000337          	lui	t1,0x40000
    6e68:	000015b7          	lui	a1,0x1
    6e6c:	40b405b3          	sub	a1,s0,a1
    6e70:	3ed5b023          	sd	a3,992(a1) # 13e0 <.LBB34_2+0x4e4>
    6e74:	0006d463          	bgez	a3,6e7c <.LBB34_474>
    6e78:	c0000337          	lui	t1,0xc0000

0000000000006e7c <.LBB34_474>:
    6e7c:	000015b7          	lui	a1,0x1
    6e80:	40b405b3          	sub	a1,s0,a1
    6e84:	3c65bc23          	sd	t1,984(a1) # 13d8 <.LBB34_2+0x4dc>
    6e88:	000015b7          	lui	a1,0x1
    6e8c:	40b405b3          	sub	a1,s0,a1
    6e90:	5e05b683          	ld	a3,1504(a1) # 15e0 <.LBB34_3+0x140>
    6e94:	de043303          	ld	t1,-544(s0)
    6e98:	00d306b3          	add	a3,t1,a3
    6e9c:	f0843583          	ld	a1,-248(s0)
    6ea0:	00b686b3          	add	a3,a3,a1
    6ea4:	00e686b3          	add	a3,a3,a4
    6ea8:	e6043303          	ld	t1,-416(s0)
    6eac:	006686bb          	addw	a3,a3,t1
    6eb0:	40000337          	lui	t1,0x40000
    6eb4:	000015b7          	lui	a1,0x1
    6eb8:	40b405b3          	sub	a1,s0,a1
    6ebc:	38d5b423          	sd	a3,904(a1) # 1388 <.LBB34_2+0x48c>
    6ec0:	0006d463          	bgez	a3,6ec8 <.LBB34_476>
    6ec4:	c0000337          	lui	t1,0xc0000

0000000000006ec8 <.LBB34_476>:
    6ec8:	000015b7          	lui	a1,0x1
    6ecc:	40b405b3          	sub	a1,s0,a1
    6ed0:	3865b023          	sd	t1,896(a1) # 1380 <.LBB34_2+0x484>
    6ed4:	000015b7          	lui	a1,0x1
    6ed8:	40b405b3          	sub	a1,s0,a1
    6edc:	5e85b683          	ld	a3,1512(a1) # 15e8 <.LBB34_3+0x148>
    6ee0:	de843303          	ld	t1,-536(s0)
    6ee4:	00d306b3          	add	a3,t1,a3
    6ee8:	f0043583          	ld	a1,-256(s0)
    6eec:	00b686b3          	add	a3,a3,a1
    6ef0:	00e686b3          	add	a3,a3,a4
    6ef4:	e6043303          	ld	t1,-416(s0)
    6ef8:	006686bb          	addw	a3,a3,t1
    6efc:	40000337          	lui	t1,0x40000
    6f00:	000015b7          	lui	a1,0x1
    6f04:	40b405b3          	sub	a1,s0,a1
    6f08:	30d5bc23          	sd	a3,792(a1) # 1318 <.LBB34_2+0x41c>
    6f0c:	0006d463          	bgez	a3,6f14 <.LBB34_478>
    6f10:	c0000337          	lui	t1,0xc0000

0000000000006f14 <.LBB34_478>:
    6f14:	000015b7          	lui	a1,0x1
    6f18:	40b405b3          	sub	a1,s0,a1
    6f1c:	3065b823          	sd	t1,784(a1) # 1310 <.LBB34_2+0x414>
    6f20:	000015b7          	lui	a1,0x1
    6f24:	40b405b3          	sub	a1,s0,a1
    6f28:	5f05b683          	ld	a3,1520(a1) # 15f0 <.LBB34_3+0x150>
    6f2c:	df043303          	ld	t1,-528(s0)
    6f30:	00d306b3          	add	a3,t1,a3
    6f34:	ef843583          	ld	a1,-264(s0)
    6f38:	00b686b3          	add	a3,a3,a1
    6f3c:	00e686b3          	add	a3,a3,a4
    6f40:	e6043303          	ld	t1,-416(s0)
    6f44:	006686bb          	addw	a3,a3,t1
    6f48:	40000337          	lui	t1,0x40000
    6f4c:	000015b7          	lui	a1,0x1
    6f50:	40b405b3          	sub	a1,s0,a1
    6f54:	2ad5b423          	sd	a3,680(a1) # 12a8 <.LBB34_2+0x3ac>
    6f58:	0006d463          	bgez	a3,6f60 <.LBB34_480>
    6f5c:	c0000337          	lui	t1,0xc0000

0000000000006f60 <.LBB34_480>:
    6f60:	000015b7          	lui	a1,0x1
    6f64:	40b405b3          	sub	a1,s0,a1
    6f68:	2a65b023          	sd	t1,672(a1) # 12a0 <.LBB34_2+0x3a4>
    6f6c:	000015b7          	lui	a1,0x1
    6f70:	40b405b3          	sub	a1,s0,a1
    6f74:	5f85b683          	ld	a3,1528(a1) # 15f8 <.LBB34_3+0x158>
    6f78:	df843303          	ld	t1,-520(s0)
    6f7c:	00d306b3          	add	a3,t1,a3
    6f80:	ef043583          	ld	a1,-272(s0)
    6f84:	00b686b3          	add	a3,a3,a1
    6f88:	00e686b3          	add	a3,a3,a4
    6f8c:	e6043303          	ld	t1,-416(s0)
    6f90:	006686bb          	addw	a3,a3,t1
    6f94:	40000637          	lui	a2,0x40000
    6f98:	000015b7          	lui	a1,0x1
    6f9c:	40b405b3          	sub	a1,s0,a1
    6fa0:	24d5b423          	sd	a3,584(a1) # 1248 <.LBB34_2+0x34c>
    6fa4:	0006d463          	bgez	a3,6fac <.LBB34_482>
    6fa8:	c0000637          	lui	a2,0xc0000

0000000000006fac <.LBB34_482>:
    6fac:	000015b7          	lui	a1,0x1
    6fb0:	40b405b3          	sub	a1,s0,a1
    6fb4:	6005b683          	ld	a3,1536(a1) # 1600 <.LBB34_3+0x160>
    6fb8:	e0043303          	ld	t1,-512(s0)
    6fbc:	00d306b3          	add	a3,t1,a3
    6fc0:	ee843583          	ld	a1,-280(s0)
    6fc4:	00b686b3          	add	a3,a3,a1
    6fc8:	00e686b3          	add	a3,a3,a4
    6fcc:	e6043303          	ld	t1,-416(s0)
    6fd0:	006686bb          	addw	a3,a3,t1
    6fd4:	40000337          	lui	t1,0x40000
    6fd8:	000015b7          	lui	a1,0x1
    6fdc:	40b405b3          	sub	a1,s0,a1
    6fe0:	1ed5b423          	sd	a3,488(a1) # 11e8 <.LBB34_2+0x2ec>
    6fe4:	0006d463          	bgez	a3,6fec <.LBB34_484>
    6fe8:	c0000337          	lui	t1,0xc0000

0000000000006fec <.LBB34_484>:
    6fec:	000015b7          	lui	a1,0x1
    6ff0:	40b405b3          	sub	a1,s0,a1
    6ff4:	1e65b023          	sd	t1,480(a1) # 11e0 <.LBB34_2+0x2e4>
    6ff8:	000015b7          	lui	a1,0x1
    6ffc:	40b405b3          	sub	a1,s0,a1
    7000:	6085b683          	ld	a3,1544(a1) # 1608 <.LBB34_3+0x168>
    7004:	e0843303          	ld	t1,-504(s0)
    7008:	00d306b3          	add	a3,t1,a3
    700c:	ee043583          	ld	a1,-288(s0)
    7010:	00b686b3          	add	a3,a3,a1
    7014:	00e686b3          	add	a3,a3,a4
    7018:	e6043303          	ld	t1,-416(s0)
    701c:	006686bb          	addw	a3,a3,t1
    7020:	40000337          	lui	t1,0x40000
    7024:	000015b7          	lui	a1,0x1
    7028:	40b405b3          	sub	a1,s0,a1
    702c:	18d5b023          	sd	a3,384(a1) # 1180 <.LBB34_2+0x284>
    7030:	0006d463          	bgez	a3,7038 <.LBB34_486>
    7034:	c0000337          	lui	t1,0xc0000

0000000000007038 <.LBB34_486>:
    7038:	000015b7          	lui	a1,0x1
    703c:	40b405b3          	sub	a1,s0,a1
    7040:	1665bc23          	sd	t1,376(a1) # 1178 <.LBB34_2+0x27c>
    7044:	000015b7          	lui	a1,0x1
    7048:	40b405b3          	sub	a1,s0,a1
    704c:	6105b683          	ld	a3,1552(a1) # 1610 <.LBB34_3+0x170>
    7050:	e1043303          	ld	t1,-496(s0)
    7054:	00d306b3          	add	a3,t1,a3
    7058:	ed843583          	ld	a1,-296(s0)
    705c:	00b686b3          	add	a3,a3,a1
    7060:	00e686b3          	add	a3,a3,a4
    7064:	e6043303          	ld	t1,-416(s0)
    7068:	006686bb          	addw	a3,a3,t1
    706c:	40000337          	lui	t1,0x40000
    7070:	000015b7          	lui	a1,0x1
    7074:	40b405b3          	sub	a1,s0,a1
    7078:	10d5bc23          	sd	a3,280(a1) # 1118 <.LBB34_2+0x21c>
    707c:	0006d463          	bgez	a3,7084 <.LBB34_488>
    7080:	c0000337          	lui	t1,0xc0000

0000000000007084 <.LBB34_488>:
    7084:	000015b7          	lui	a1,0x1
    7088:	40b405b3          	sub	a1,s0,a1
    708c:	1065b823          	sd	t1,272(a1) # 1110 <.LBB34_2+0x214>
    7090:	000015b7          	lui	a1,0x1
    7094:	40b405b3          	sub	a1,s0,a1
    7098:	6185b683          	ld	a3,1560(a1) # 1618 <.LBB34_3+0x178>
    709c:	e1843303          	ld	t1,-488(s0)
    70a0:	00d306b3          	add	a3,t1,a3
    70a4:	ed043583          	ld	a1,-304(s0)
    70a8:	00b686b3          	add	a3,a3,a1
    70ac:	00e686b3          	add	a3,a3,a4
    70b0:	e6043303          	ld	t1,-416(s0)
    70b4:	006686bb          	addw	a3,a3,t1
    70b8:	40000337          	lui	t1,0x40000
    70bc:	000015b7          	lui	a1,0x1
    70c0:	40b405b3          	sub	a1,s0,a1
    70c4:	0ad5b023          	sd	a3,160(a1) # 10a0 <.LBB34_2+0x1a4>
    70c8:	0006d463          	bgez	a3,70d0 <.LBB34_490>
    70cc:	c0000337          	lui	t1,0xc0000

00000000000070d0 <.LBB34_490>:
    70d0:	000015b7          	lui	a1,0x1
    70d4:	40b405b3          	sub	a1,s0,a1
    70d8:	0865bc23          	sd	t1,152(a1) # 1098 <.LBB34_2+0x19c>
    70dc:	000015b7          	lui	a1,0x1
    70e0:	40b405b3          	sub	a1,s0,a1
    70e4:	6205b683          	ld	a3,1568(a1) # 1620 <.LBB34_3+0x180>
    70e8:	e2043303          	ld	t1,-480(s0)
    70ec:	00d306b3          	add	a3,t1,a3
    70f0:	ec843583          	ld	a1,-312(s0)
    70f4:	00b686b3          	add	a3,a3,a1
    70f8:	00e686b3          	add	a3,a3,a4
    70fc:	e6043303          	ld	t1,-416(s0)
    7100:	006686bb          	addw	a3,a3,t1
    7104:	40000337          	lui	t1,0x40000
    7108:	000015b7          	lui	a1,0x1
    710c:	40b405b3          	sub	a1,s0,a1
    7110:	02d5bc23          	sd	a3,56(a1) # 1038 <.LBB34_2+0x13c>
    7114:	0006d463          	bgez	a3,711c <.LBB34_492>
    7118:	c0000337          	lui	t1,0xc0000

000000000000711c <.LBB34_492>:
    711c:	000015b7          	lui	a1,0x1
    7120:	40b405b3          	sub	a1,s0,a1
    7124:	0265b823          	sd	t1,48(a1) # 1030 <.LBB34_2+0x134>
    7128:	000015b7          	lui	a1,0x1
    712c:	40b405b3          	sub	a1,s0,a1
    7130:	6285b683          	ld	a3,1576(a1) # 1628 <.LBB34_3+0x188>
    7134:	f1843303          	ld	t1,-232(s0)
    7138:	00d306b3          	add	a3,t1,a3
    713c:	ec043583          	ld	a1,-320(s0)
    7140:	00b686b3          	add	a3,a3,a1
    7144:	00e686b3          	add	a3,a3,a4
    7148:	e6043303          	ld	t1,-416(s0)
    714c:	006686bb          	addw	a3,a3,t1
    7150:	40000337          	lui	t1,0x40000
    7154:	000015b7          	lui	a1,0x1
    7158:	40b405b3          	sub	a1,s0,a1
    715c:	fcd5b023          	sd	a3,-64(a1) # fc0 <.LBB34_2+0xc4>
    7160:	0006d463          	bgez	a3,7168 <.LBB34_494>
    7164:	c0000337          	lui	t1,0xc0000

0000000000007168 <.LBB34_494>:
    7168:	000015b7          	lui	a1,0x1
    716c:	40b405b3          	sub	a1,s0,a1
    7170:	fa65bc23          	sd	t1,-72(a1) # fb8 <.LBB34_2+0xbc>
    7174:	000015b7          	lui	a1,0x1
    7178:	40b405b3          	sub	a1,s0,a1
    717c:	6305b683          	ld	a3,1584(a1) # 1630 <.LBB34_3+0x190>
    7180:	f2043303          	ld	t1,-224(s0)
    7184:	00d306b3          	add	a3,t1,a3
    7188:	eb843583          	ld	a1,-328(s0)
    718c:	00b686b3          	add	a3,a3,a1
    7190:	00e686b3          	add	a3,a3,a4
    7194:	e6043303          	ld	t1,-416(s0)
    7198:	006686bb          	addw	a3,a3,t1
    719c:	40000337          	lui	t1,0x40000
    71a0:	000015b7          	lui	a1,0x1
    71a4:	40b405b3          	sub	a1,s0,a1
    71a8:	f4d5bc23          	sd	a3,-168(a1) # f58 <.LBB34_2+0x5c>
    71ac:	0006d463          	bgez	a3,71b4 <.LBB34_496>
    71b0:	c0000337          	lui	t1,0xc0000

00000000000071b4 <.LBB34_496>:
    71b4:	000015b7          	lui	a1,0x1
    71b8:	40b405b3          	sub	a1,s0,a1
    71bc:	f465b823          	sd	t1,-176(a1) # f50 <.LBB34_2+0x54>
    71c0:	000015b7          	lui	a1,0x1
    71c4:	40b405b3          	sub	a1,s0,a1
    71c8:	5605b683          	ld	a3,1376(a1) # 1560 <.LBB34_3+0xc0>
    71cc:	f2843303          	ld	t1,-216(s0)
    71d0:	00d306b3          	add	a3,t1,a3
    71d4:	eb043583          	ld	a1,-336(s0)
    71d8:	00b686b3          	add	a3,a3,a1
    71dc:	00e686b3          	add	a3,a3,a4
    71e0:	e6043303          	ld	t1,-416(s0)
    71e4:	006686bb          	addw	a3,a3,t1
    71e8:	40000337          	lui	t1,0x40000
    71ec:	000015b7          	lui	a1,0x1
    71f0:	40b405b3          	sub	a1,s0,a1
    71f4:	eed5b423          	sd	a3,-280(a1) # ee8 <.LBB34_1+0xbe0>
    71f8:	0006d463          	bgez	a3,7200 <.LBB34_498>
    71fc:	c0000337          	lui	t1,0xc0000

0000000000007200 <.LBB34_498>:
    7200:	000015b7          	lui	a1,0x1
    7204:	40b405b3          	sub	a1,s0,a1
    7208:	ee65b023          	sd	t1,-288(a1) # ee0 <.LBB34_1+0xbd8>
    720c:	000015b7          	lui	a1,0x1
    7210:	40b405b3          	sub	a1,s0,a1
    7214:	5685b683          	ld	a3,1384(a1) # 1568 <.LBB34_3+0xc8>
    7218:	f3043303          	ld	t1,-208(s0)
    721c:	00d306b3          	add	a3,t1,a3
    7220:	ea843583          	ld	a1,-344(s0)
    7224:	00b686b3          	add	a3,a3,a1
    7228:	00e686b3          	add	a3,a3,a4
    722c:	e6043303          	ld	t1,-416(s0)
    7230:	006686bb          	addw	a3,a3,t1
    7234:	40000337          	lui	t1,0x40000
    7238:	000015b7          	lui	a1,0x1
    723c:	40b405b3          	sub	a1,s0,a1
    7240:	e8d5b023          	sd	a3,-384(a1) # e80 <.LBB34_1+0xb78>
    7244:	0006d463          	bgez	a3,724c <.LBB34_500>
    7248:	c0000337          	lui	t1,0xc0000

000000000000724c <.LBB34_500>:
    724c:	000015b7          	lui	a1,0x1
    7250:	40b405b3          	sub	a1,s0,a1
    7254:	e665b823          	sd	t1,-400(a1) # e70 <.LBB34_1+0xb68>
    7258:	000015b7          	lui	a1,0x1
    725c:	40b405b3          	sub	a1,s0,a1
    7260:	5705b683          	ld	a3,1392(a1) # 1570 <.LBB34_3+0xd0>
    7264:	f3843303          	ld	t1,-200(s0)
    7268:	00d306b3          	add	a3,t1,a3
    726c:	ea043583          	ld	a1,-352(s0)
    7270:	00b686b3          	add	a3,a3,a1
    7274:	00e686b3          	add	a3,a3,a4
    7278:	e6043303          	ld	t1,-416(s0)
    727c:	006686bb          	addw	a3,a3,t1
    7280:	40000337          	lui	t1,0x40000
    7284:	000015b7          	lui	a1,0x1
    7288:	40b405b3          	sub	a1,s0,a1
    728c:	e0d5b823          	sd	a3,-496(a1) # e10 <.LBB34_1+0xb08>
    7290:	0006d463          	bgez	a3,7298 <.LBB34_502>
    7294:	c0000337          	lui	t1,0xc0000

0000000000007298 <.LBB34_502>:
    7298:	000015b7          	lui	a1,0x1
    729c:	40b405b3          	sub	a1,s0,a1
    72a0:	e065b023          	sd	t1,-512(a1) # e00 <.LBB34_1+0xaf8>
    72a4:	000015b7          	lui	a1,0x1
    72a8:	40b405b3          	sub	a1,s0,a1
    72ac:	6385b683          	ld	a3,1592(a1) # 1638 <.LBB34_3+0x198>
    72b0:	e2843303          	ld	t1,-472(s0)
    72b4:	00d306b3          	add	a3,t1,a3
    72b8:	e9843583          	ld	a1,-360(s0)
    72bc:	00b686b3          	add	a3,a3,a1
    72c0:	00e686b3          	add	a3,a3,a4
    72c4:	e6043303          	ld	t1,-416(s0)
    72c8:	006686bb          	addw	a3,a3,t1
    72cc:	40000337          	lui	t1,0x40000
    72d0:	000015b7          	lui	a1,0x1
    72d4:	40b405b3          	sub	a1,s0,a1
    72d8:	dad5b823          	sd	a3,-592(a1) # db0 <.LBB34_1+0xaa8>
    72dc:	0006d463          	bgez	a3,72e4 <.LBB34_504>
    72e0:	c0000337          	lui	t1,0xc0000

00000000000072e4 <.LBB34_504>:
    72e4:	000015b7          	lui	a1,0x1
    72e8:	40b405b3          	sub	a1,s0,a1
    72ec:	da65b023          	sd	t1,-608(a1) # da0 <.LBB34_1+0xa98>
    72f0:	000015b7          	lui	a1,0x1
    72f4:	40b405b3          	sub	a1,s0,a1
    72f8:	6405b683          	ld	a3,1600(a1) # 1640 <.LBB34_3+0x1a0>
    72fc:	e3043303          	ld	t1,-464(s0)
    7300:	00d306b3          	add	a3,t1,a3
    7304:	e9043583          	ld	a1,-368(s0)
    7308:	00b686b3          	add	a3,a3,a1
    730c:	00e686b3          	add	a3,a3,a4
    7310:	e6043303          	ld	t1,-416(s0)
    7314:	006686bb          	addw	a3,a3,t1
    7318:	40000337          	lui	t1,0x40000
    731c:	000015b7          	lui	a1,0x1
    7320:	40b405b3          	sub	a1,s0,a1
    7324:	d2d5bc23          	sd	a3,-712(a1) # d38 <.LBB34_1+0xa30>
    7328:	0006d463          	bgez	a3,7330 <.LBB34_506>
    732c:	c0000337          	lui	t1,0xc0000

0000000000007330 <.LBB34_506>:
    7330:	000015b7          	lui	a1,0x1
    7334:	40b405b3          	sub	a1,s0,a1
    7338:	d265b823          	sd	t1,-720(a1) # d30 <.LBB34_1+0xa28>
    733c:	e3843683          	ld	a3,-456(s0)
    7340:	000015b7          	lui	a1,0x1
    7344:	40b405b3          	sub	a1,s0,a1
    7348:	6485b303          	ld	t1,1608(a1) # 1648 <.LBB34_3+0x1a8>
    734c:	006686b3          	add	a3,a3,t1
    7350:	e8843583          	ld	a1,-376(s0)
    7354:	00b686b3          	add	a3,a3,a1
    7358:	00e686b3          	add	a3,a3,a4
    735c:	e6043303          	ld	t1,-416(s0)
    7360:	006686bb          	addw	a3,a3,t1
    7364:	40000337          	lui	t1,0x40000
    7368:	000015b7          	lui	a1,0x1
    736c:	40b405b3          	sub	a1,s0,a1
    7370:	ccd5b023          	sd	a3,-832(a1) # cc0 <.LBB34_1+0x9b8>
    7374:	0006d463          	bgez	a3,737c <.LBB34_508>
    7378:	c0000337          	lui	t1,0xc0000

000000000000737c <.LBB34_508>:
    737c:	000015b7          	lui	a1,0x1
    7380:	40b405b3          	sub	a1,s0,a1
    7384:	ca65bc23          	sd	t1,-840(a1) # cb8 <.LBB34_1+0x9b0>
    7388:	000a8d13          	mv	s10,s5
    738c:	e4043683          	ld	a3,-448(s0)
    7390:	000015b7          	lui	a1,0x1
    7394:	40b405b3          	sub	a1,s0,a1
    7398:	6505b303          	ld	t1,1616(a1) # 1650 <.LBB34_3+0x1b0>
    739c:	006686b3          	add	a3,a3,t1
    73a0:	e8043583          	ld	a1,-384(s0)
    73a4:	00b686b3          	add	a3,a3,a1
    73a8:	00e686b3          	add	a3,a3,a4
    73ac:	e6043303          	ld	t1,-416(s0)
    73b0:	006685bb          	addw	a1,a3,t1
    73b4:	400006b7          	lui	a3,0x40000
    73b8:	000012b7          	lui	t0,0x1
    73bc:	405402b3          	sub	t0,s0,t0
    73c0:	c4b2b823          	sd	a1,-944(t0) # c50 <.LBB34_1+0x948>
    73c4:	0005d463          	bgez	a1,73cc <.LBB34_510>
    73c8:	c00006b7          	lui	a3,0xc0000

00000000000073cc <.LBB34_510>:
    73cc:	000c8293          	mv	t0,s9
    73d0:	000015b7          	lui	a1,0x1
    73d4:	40b405b3          	sub	a1,s0,a1
    73d8:	c4d5b423          	sd	a3,-952(a1) # c48 <.LBB34_1+0x940>
    73dc:	000b8d93          	mv	s11,s7
    73e0:	e4843683          	ld	a3,-440(s0)
    73e4:	01f686b3          	add	a3,a3,t6
    73e8:	e7843583          	ld	a1,-392(s0)
    73ec:	00b686b3          	add	a3,a3,a1
    73f0:	00e686b3          	add	a3,a3,a4
    73f4:	e6043303          	ld	t1,-416(s0)
    73f8:	006685bb          	addw	a1,a3,t1
    73fc:	400006b7          	lui	a3,0x40000
    7400:	00001337          	lui	t1,0x1
    7404:	40640333          	sub	t1,s0,t1
    7408:	beb33823          	sd	a1,-1040(t1) # bf0 <.LBB34_1+0x8e8>
    740c:	0005d463          	bgez	a1,7414 <.LBB34_512>
    7410:	c00006b7          	lui	a3,0xc0000

0000000000007414 <.LBB34_512>:
    7414:	000015b7          	lui	a1,0x1
    7418:	40b405b3          	sub	a1,s0,a1
    741c:	bed5b423          	sd	a3,-1048(a1) # be8 <.LBB34_1+0x8e0>
    7420:	000c0c93          	mv	s9,s8
    7424:	000015b7          	lui	a1,0x1
    7428:	40b405b3          	sub	a1,s0,a1
    742c:	af85bb83          	ld	s7,-1288(a1) # af8 <.LBB34_1+0x7f0>
    7430:	e5043683          	ld	a3,-432(s0)
    7434:	01c686b3          	add	a3,a3,t3
    7438:	e7043583          	ld	a1,-400(s0)
    743c:	00b686b3          	add	a3,a3,a1
    7440:	00e686b3          	add	a3,a3,a4
    7444:	e6043303          	ld	t1,-416(s0)
    7448:	006686bb          	addw	a3,a3,t1
    744c:	400005b7          	lui	a1,0x40000
    7450:	00001337          	lui	t1,0x1
    7454:	40640333          	sub	t1,s0,t1
    7458:	68033e03          	ld	t3,1664(t1) # 1680 <.LBB34_3+0x1e0>
    745c:	0006d463          	bgez	a3,7464 <.LBB34_514>
    7460:	c00005b7          	lui	a1,0xc0000

0000000000007464 <.LBB34_514>:
    7464:	e5843303          	ld	t1,-424(s0)
    7468:	00001fb7          	lui	t6,0x1
    746c:	41f40fb3          	sub	t6,s0,t6
    7470:	578fbc03          	ld	s8,1400(t6) # 1578 <.LBB34_3+0xd8>
    7474:	01830c33          	add	s8,t1,s8
    7478:	e6843303          	ld	t1,-408(s0)
    747c:	006c0c33          	add	s8,s8,t1
    7480:	00ec0733          	add	a4,s8,a4
    7484:	e6043303          	ld	t1,-416(s0)
    7488:	00670c3b          	addw	s8,a4,t1
    748c:	000c5a63          	bgez	s8,74a0 <.LBB34_516>
    7490:	c0000737          	lui	a4,0xc0000
    7494:	00001337          	lui	t1,0x1
    7498:	40640333          	sub	t1,s0,t1
    749c:	6ae33823          	sd	a4,1712(t1) # 16b0 <.LBB34_3+0x210>

00000000000074a0 <.LBB34_516>:
    74a0:	00001737          	lui	a4,0x1
    74a4:	40e40733          	sub	a4,s0,a4
    74a8:	b8b73023          	sd	a1,-1152(a4) # b80 <.LBB34_1+0x878>
    74ac:	000015b7          	lui	a1,0x1
    74b0:	40b405b3          	sub	a1,s0,a1
    74b4:	6885b303          	ld	t1,1672(a1) # 1688 <.LBB34_3+0x1e8>
    74b8:	000015b7          	lui	a1,0x1
    74bc:	40b405b3          	sub	a1,s0,a1
    74c0:	b785b583          	ld	a1,-1160(a1) # b78 <.LBB34_1+0x870>
    74c4:	02658733          	mul	a4,a1,t1
    74c8:	000015b7          	lui	a1,0x1
    74cc:	40b405b3          	sub	a1,s0,a1
    74d0:	b685bf83          	ld	t6,-1176(a1) # b68 <.LBB34_1+0x860>
    74d4:	01cf8fb3          	add	t6,t6,t3
    74d8:	01f70733          	add	a4,a4,t6
    74dc:	42875e13          	srai	t3,a4,0x28
    74e0:	f8100713          	li	a4,-127
    74e4:	f9c43423          	sd	t3,-120(s0)
    74e8:	01c74663          	blt	a4,t3,74f4 <.LBB34_518>
    74ec:	f8100e13          	li	t3,-127
    74f0:	f9c43423          	sd	t3,-120(s0)

00000000000074f4 <.LBB34_518>:
    74f4:	000015b7          	lui	a1,0x1
    74f8:	40b405b3          	sub	a1,s0,a1
    74fc:	be05b583          	ld	a1,-1056(a1) # be0 <.LBB34_1+0x8d8>
    7500:	02658fb3          	mul	t6,a1,t1
    7504:	000015b7          	lui	a1,0x1
    7508:	40b405b3          	sub	a1,s0,a1
    750c:	6805be03          	ld	t3,1664(a1) # 1680 <.LBB34_3+0x1e0>
    7510:	000015b7          	lui	a1,0x1
    7514:	40b405b3          	sub	a1,s0,a1
    7518:	bd85b583          	ld	a1,-1064(a1) # bd8 <.LBB34_1+0x8d0>
    751c:	01c58e33          	add	t3,a1,t3
    7520:	01cf8e33          	add	t3,t6,t3
    7524:	428e5e13          	srai	t3,t3,0x28
    7528:	f9c43023          	sd	t3,-128(s0)
    752c:	01c74663          	blt	a4,t3,7538 <.LBB34_520>
    7530:	f8100e13          	li	t3,-127
    7534:	f9c43023          	sd	t3,-128(s0)

0000000000007538 <.LBB34_520>:
    7538:	000015b7          	lui	a1,0x1
    753c:	40b405b3          	sub	a1,s0,a1
    7540:	c405b583          	ld	a1,-960(a1) # c40 <.LBB34_1+0x938>
    7544:	02658e33          	mul	t3,a1,t1
    7548:	000015b7          	lui	a1,0x1
    754c:	40b405b3          	sub	a1,s0,a1
    7550:	6805bf83          	ld	t6,1664(a1) # 1680 <.LBB34_3+0x1e0>
    7554:	000015b7          	lui	a1,0x1
    7558:	40b405b3          	sub	a1,s0,a1
    755c:	c385b583          	ld	a1,-968(a1) # c38 <.LBB34_1+0x930>
    7560:	01f58fb3          	add	t6,a1,t6
    7564:	01fe0e33          	add	t3,t3,t6
    7568:	428e5e13          	srai	t3,t3,0x28
    756c:	f7c43c23          	sd	t3,-136(s0)
    7570:	01c74663          	blt	a4,t3,757c <.LBB34_522>
    7574:	f8100e13          	li	t3,-127
    7578:	f7c43c23          	sd	t3,-136(s0)

000000000000757c <.LBB34_522>:
    757c:	000e8a93          	mv	s5,t4
    7580:	000015b7          	lui	a1,0x1
    7584:	40b405b3          	sub	a1,s0,a1
    7588:	cb05be03          	ld	t3,-848(a1) # cb0 <.LBB34_1+0x9a8>
    758c:	026e0e33          	mul	t3,t3,t1
    7590:	000015b7          	lui	a1,0x1
    7594:	40b405b3          	sub	a1,s0,a1
    7598:	6805bf83          	ld	t6,1664(a1) # 1680 <.LBB34_3+0x1e0>
    759c:	000015b7          	lui	a1,0x1
    75a0:	40b405b3          	sub	a1,s0,a1
    75a4:	ca85be83          	ld	t4,-856(a1) # ca8 <.LBB34_1+0x9a0>
    75a8:	01fe8fb3          	add	t6,t4,t6
    75ac:	01fe0e33          	add	t3,t3,t6
    75b0:	428e5e13          	srai	t3,t3,0x28
    75b4:	f7c43823          	sd	t3,-144(s0)
    75b8:	01c74663          	blt	a4,t3,75c4 <.LBB34_524>
    75bc:	f8100e13          	li	t3,-127
    75c0:	f7c43823          	sd	t3,-144(s0)

00000000000075c4 <.LBB34_524>:
    75c4:	000015b7          	lui	a1,0x1
    75c8:	40b405b3          	sub	a1,s0,a1
    75cc:	d285be03          	ld	t3,-728(a1) # d28 <.LBB34_1+0xa20>
    75d0:	026e0e33          	mul	t3,t3,t1
    75d4:	000015b7          	lui	a1,0x1
    75d8:	40b405b3          	sub	a1,s0,a1
    75dc:	6805bf83          	ld	t6,1664(a1) # 1680 <.LBB34_3+0x1e0>
    75e0:	000015b7          	lui	a1,0x1
    75e4:	40b405b3          	sub	a1,s0,a1
    75e8:	d205be83          	ld	t4,-736(a1) # d20 <.LBB34_1+0xa18>
    75ec:	01fe8fb3          	add	t6,t4,t6
    75f0:	01fe0e33          	add	t3,t3,t6
    75f4:	428e5e13          	srai	t3,t3,0x28
    75f8:	f7c43423          	sd	t3,-152(s0)
    75fc:	01c74663          	blt	a4,t3,7608 <.LBB34_526>
    7600:	f8100e13          	li	t3,-127
    7604:	f7c43423          	sd	t3,-152(s0)

0000000000007608 <.LBB34_526>:
    7608:	000015b7          	lui	a1,0x1
    760c:	40b405b3          	sub	a1,s0,a1
    7610:	da85be03          	ld	t3,-600(a1) # da8 <.LBB34_1+0xaa0>
    7614:	026e0e33          	mul	t3,t3,t1
    7618:	000015b7          	lui	a1,0x1
    761c:	40b405b3          	sub	a1,s0,a1
    7620:	6805bf83          	ld	t6,1664(a1) # 1680 <.LBB34_3+0x1e0>
    7624:	000015b7          	lui	a1,0x1
    7628:	40b405b3          	sub	a1,s0,a1
    762c:	d985be83          	ld	t4,-616(a1) # d98 <.LBB34_1+0xa90>
    7630:	01fe8fb3          	add	t6,t4,t6
    7634:	01fe0e33          	add	t3,t3,t6
    7638:	428e5e13          	srai	t3,t3,0x28
    763c:	f7c43023          	sd	t3,-160(s0)
    7640:	01c74663          	blt	a4,t3,764c <.LBB34_528>
    7644:	f8100e13          	li	t3,-127
    7648:	f7c43023          	sd	t3,-160(s0)

000000000000764c <.LBB34_528>:
    764c:	000f0593          	mv	a1,t5
    7650:	00001e37          	lui	t3,0x1
    7654:	41c40e33          	sub	t3,s0,t3
    7658:	e18e3e03          	ld	t3,-488(t3) # e18 <.LBB34_1+0xb10>
    765c:	026e0e33          	mul	t3,t3,t1
    7660:	00001eb7          	lui	t4,0x1
    7664:	41d40eb3          	sub	t4,s0,t4
    7668:	680ebf83          	ld	t6,1664(t4) # 1680 <.LBB34_3+0x1e0>
    766c:	00001eb7          	lui	t4,0x1
    7670:	41d40eb3          	sub	t4,s0,t4
    7674:	e08ebe83          	ld	t4,-504(t4) # e08 <.LBB34_1+0xb00>
    7678:	01fe8fb3          	add	t6,t4,t6
    767c:	01fe0e33          	add	t3,t3,t6
    7680:	428e5e13          	srai	t3,t3,0x28
    7684:	f5c43c23          	sd	t3,-168(s0)
    7688:	01c74663          	blt	a4,t3,7694 <.LBB34_530>
    768c:	f8100e13          	li	t3,-127
    7690:	f5c43c23          	sd	t3,-168(s0)

0000000000007694 <.LBB34_530>:
    7694:	00001e37          	lui	t3,0x1
    7698:	41c40e33          	sub	t3,s0,t3
    769c:	e90e3e03          	ld	t3,-368(t3) # e90 <.LBB34_1+0xb88>
    76a0:	026e0e33          	mul	t3,t3,t1
    76a4:	00001eb7          	lui	t4,0x1
    76a8:	41d40eb3          	sub	t4,s0,t4
    76ac:	680ebf83          	ld	t6,1664(t4) # 1680 <.LBB34_3+0x1e0>
    76b0:	00001eb7          	lui	t4,0x1
    76b4:	41d40eb3          	sub	t4,s0,t4
    76b8:	e78ebf03          	ld	t5,-392(t4) # e78 <.LBB34_1+0xb70>
    76bc:	01ff0fb3          	add	t6,t5,t6
    76c0:	01fe0e33          	add	t3,t3,t6
    76c4:	428e5e13          	srai	t3,t3,0x28
    76c8:	f5c43823          	sd	t3,-176(s0)
    76cc:	01c74663          	blt	a4,t3,76d8 <.LBB34_532>
    76d0:	f8100e13          	li	t3,-127
    76d4:	f5c43823          	sd	t3,-176(s0)

00000000000076d8 <.LBB34_532>:
    76d8:	00001e37          	lui	t3,0x1
    76dc:	41c40e33          	sub	t3,s0,t3
    76e0:	f08e3e03          	ld	t3,-248(t3) # f08 <.LBB34_2+0xc>
    76e4:	026e0e33          	mul	t3,t3,t1
    76e8:	00001eb7          	lui	t4,0x1
    76ec:	41d40eb3          	sub	t4,s0,t4
    76f0:	680ebf83          	ld	t6,1664(t4) # 1680 <.LBB34_3+0x1e0>
    76f4:	00001eb7          	lui	t4,0x1
    76f8:	41d40eb3          	sub	t4,s0,t4
    76fc:	ef8ebf03          	ld	t5,-264(t4) # ef8 <.LBB34_1+0xbf0>
    7700:	01ff0fb3          	add	t6,t5,t6
    7704:	01fe0e33          	add	t3,t3,t6
    7708:	428e5e13          	srai	t3,t3,0x28
    770c:	f5c43423          	sd	t3,-184(s0)
    7710:	01c74663          	blt	a4,t3,771c <.LBB34_534>
    7714:	f8100e13          	li	t3,-127
    7718:	f5c43423          	sd	t3,-184(s0)

000000000000771c <.LBB34_534>:
    771c:	00001e37          	lui	t3,0x1
    7720:	41c40e33          	sub	t3,s0,t3
    7724:	f80e3e03          	ld	t3,-128(t3) # f80 <.LBB34_2+0x84>
    7728:	026e0e33          	mul	t3,t3,t1
    772c:	00001eb7          	lui	t4,0x1
    7730:	41d40eb3          	sub	t4,s0,t4
    7734:	680ebf83          	ld	t6,1664(t4) # 1680 <.LBB34_3+0x1e0>
    7738:	00001eb7          	lui	t4,0x1
    773c:	41d40eb3          	sub	t4,s0,t4
    7740:	f68ebf03          	ld	t5,-152(t4) # f68 <.LBB34_2+0x6c>
    7744:	01ff0fb3          	add	t6,t5,t6
    7748:	01fe0e33          	add	t3,t3,t6
    774c:	428e5e13          	srai	t3,t3,0x28
    7750:	f5c43023          	sd	t3,-192(s0)
    7754:	01c74663          	blt	a4,t3,7760 <.LBB34_536>
    7758:	f8100e13          	li	t3,-127
    775c:	f5c43023          	sd	t3,-192(s0)

0000000000007760 <.LBB34_536>:
    7760:	00001e37          	lui	t3,0x1
    7764:	41c40e33          	sub	t3,s0,t3
    7768:	ff0e3e03          	ld	t3,-16(t3) # ff0 <.LBB34_2+0xf4>
    776c:	026e0e33          	mul	t3,t3,t1
    7770:	00001eb7          	lui	t4,0x1
    7774:	41d40eb3          	sub	t4,s0,t4
    7778:	680ebf83          	ld	t6,1664(t4) # 1680 <.LBB34_3+0x1e0>
    777c:	00001eb7          	lui	t4,0x1
    7780:	41d40eb3          	sub	t4,s0,t4
    7784:	fe0ebf03          	ld	t5,-32(t4) # fe0 <.LBB34_2+0xe4>
    7788:	01ff0fb3          	add	t6,t5,t6
    778c:	01fe0e33          	add	t3,t3,t6
    7790:	428e5e13          	srai	t3,t3,0x28
    7794:	f3c43c23          	sd	t3,-200(s0)
    7798:	01c74663          	blt	a4,t3,77a4 <.LBB34_538>
    779c:	f8100e13          	li	t3,-127
    77a0:	f3c43c23          	sd	t3,-200(s0)

00000000000077a4 <.LBB34_538>:
    77a4:	00001e37          	lui	t3,0x1
    77a8:	41c40e33          	sub	t3,s0,t3
    77ac:	068e3e03          	ld	t3,104(t3) # 1068 <.LBB34_2+0x16c>
    77b0:	026e0e33          	mul	t3,t3,t1
    77b4:	00001eb7          	lui	t4,0x1
    77b8:	41d40eb3          	sub	t4,s0,t4
    77bc:	680ebf83          	ld	t6,1664(t4) # 1680 <.LBB34_3+0x1e0>
    77c0:	00001eb7          	lui	t4,0x1
    77c4:	41d40eb3          	sub	t4,s0,t4
    77c8:	058ebf03          	ld	t5,88(t4) # 1058 <.LBB34_2+0x15c>
    77cc:	01ff0fb3          	add	t6,t5,t6
    77d0:	01fe0e33          	add	t3,t3,t6
    77d4:	428e5e13          	srai	t3,t3,0x28
    77d8:	f3c43823          	sd	t3,-208(s0)
    77dc:	01c74663          	blt	a4,t3,77e8 <.LBB34_540>
    77e0:	f8100e13          	li	t3,-127
    77e4:	f3c43823          	sd	t3,-208(s0)

00000000000077e8 <.LBB34_540>:
    77e8:	00001e37          	lui	t3,0x1
    77ec:	41c40e33          	sub	t3,s0,t3
    77f0:	0e0e3e03          	ld	t3,224(t3) # 10e0 <.LBB34_2+0x1e4>
    77f4:	026e0e33          	mul	t3,t3,t1
    77f8:	00001eb7          	lui	t4,0x1
    77fc:	41d40eb3          	sub	t4,s0,t4
    7800:	680ebf83          	ld	t6,1664(t4) # 1680 <.LBB34_3+0x1e0>
    7804:	00001eb7          	lui	t4,0x1
    7808:	41d40eb3          	sub	t4,s0,t4
    780c:	0d0ebf03          	ld	t5,208(t4) # 10d0 <.LBB34_2+0x1d4>
    7810:	01ff0fb3          	add	t6,t5,t6
    7814:	01fe0e33          	add	t3,t3,t6
    7818:	428e5e13          	srai	t3,t3,0x28
    781c:	f3c43423          	sd	t3,-216(s0)
    7820:	01c74663          	blt	a4,t3,782c <.LBB34_542>
    7824:	f8100e13          	li	t3,-127
    7828:	f3c43423          	sd	t3,-216(s0)

000000000000782c <.LBB34_542>:
    782c:	00001e37          	lui	t3,0x1
    7830:	41c40e33          	sub	t3,s0,t3
    7834:	1f0e3e03          	ld	t3,496(t3) # 11f0 <.LBB34_2+0x2f4>
    7838:	026e0e33          	mul	t3,t3,t1
    783c:	00001eb7          	lui	t4,0x1
    7840:	41d40eb3          	sub	t4,s0,t4
    7844:	680ebf83          	ld	t6,1664(t4) # 1680 <.LBB34_3+0x1e0>
    7848:	00001eb7          	lui	t4,0x1
    784c:	41d40eb3          	sub	t4,s0,t4
    7850:	140ebf03          	ld	t5,320(t4) # 1140 <.LBB34_2+0x244>
    7854:	01ff0fb3          	add	t6,t5,t6
    7858:	01fe0e33          	add	t3,t3,t6
    785c:	428e5e13          	srai	t3,t3,0x28
    7860:	f3c43023          	sd	t3,-224(s0)
    7864:	01c74663          	blt	a4,t3,7870 <.LBB34_544>
    7868:	f8100e13          	li	t3,-127
    786c:	f3c43023          	sd	t3,-224(s0)

0000000000007870 <.LBB34_544>:
    7870:	00001e37          	lui	t3,0x1
    7874:	41c40e33          	sub	t3,s0,t3
    7878:	1f1e3823          	sd	a7,496(t3) # 11f0 <.LBB34_2+0x2f4>
    787c:	000018b7          	lui	a7,0x1
    7880:	411408b3          	sub	a7,s0,a7
    7884:	1c08b883          	ld	a7,448(a7) # 11c0 <.LBB34_2+0x2c4>
    7888:	02688e33          	mul	t3,a7,t1
    788c:	000018b7          	lui	a7,0x1
    7890:	411408b3          	sub	a7,s0,a7
    7894:	6808bf83          	ld	t6,1664(a7) # 1680 <.LBB34_3+0x1e0>
    7898:	000018b7          	lui	a7,0x1
    789c:	411408b3          	sub	a7,s0,a7
    78a0:	1b08b883          	ld	a7,432(a7) # 11b0 <.LBB34_2+0x2b4>
    78a4:	01f88fb3          	add	t6,a7,t6
    78a8:	01fe0e33          	add	t3,t3,t6
    78ac:	428e5e13          	srai	t3,t3,0x28
    78b0:	f1c43c23          	sd	t3,-232(s0)
    78b4:	01c74663          	blt	a4,t3,78c0 <.LBB34_546>
    78b8:	f8100e13          	li	t3,-127
    78bc:	f1c43c23          	sd	t3,-232(s0)

00000000000078c0 <.LBB34_546>:
    78c0:	000018b7          	lui	a7,0x1
    78c4:	411408b3          	sub	a7,s0,a7
    78c8:	2288b883          	ld	a7,552(a7) # 1228 <.LBB34_2+0x32c>
    78cc:	02688e33          	mul	t3,a7,t1
    78d0:	000018b7          	lui	a7,0x1
    78d4:	411408b3          	sub	a7,s0,a7
    78d8:	6808bf83          	ld	t6,1664(a7) # 1680 <.LBB34_3+0x1e0>
    78dc:	000018b7          	lui	a7,0x1
    78e0:	411408b3          	sub	a7,s0,a7
    78e4:	2188b883          	ld	a7,536(a7) # 1218 <.LBB34_2+0x31c>
    78e8:	01f88fb3          	add	t6,a7,t6
    78ec:	01fe0e33          	add	t3,t3,t6
    78f0:	428e5e13          	srai	t3,t3,0x28
    78f4:	f1c43823          	sd	t3,-240(s0)
    78f8:	01c74663          	blt	a4,t3,7904 <.LBB34_548>
    78fc:	f8100e13          	li	t3,-127
    7900:	f1c43823          	sd	t3,-240(s0)

0000000000007904 <.LBB34_548>:
    7904:	000018b7          	lui	a7,0x1
    7908:	411408b3          	sub	a7,s0,a7
    790c:	2888be03          	ld	t3,648(a7) # 1288 <.LBB34_2+0x38c>
    7910:	026e0e33          	mul	t3,t3,t1
    7914:	000018b7          	lui	a7,0x1
    7918:	411408b3          	sub	a7,s0,a7
    791c:	6808bf83          	ld	t6,1664(a7) # 1680 <.LBB34_3+0x1e0>
    7920:	000018b7          	lui	a7,0x1
    7924:	411408b3          	sub	a7,s0,a7
    7928:	2788bf03          	ld	t5,632(a7) # 1278 <.LBB34_2+0x37c>
    792c:	01ff0fb3          	add	t6,t5,t6
    7930:	01fe0e33          	add	t3,t3,t6
    7934:	428e5e13          	srai	t3,t3,0x28
    7938:	f1c43423          	sd	t3,-248(s0)
    793c:	01c74663          	blt	a4,t3,7948 <.LBB34_550>
    7940:	f8100e13          	li	t3,-127
    7944:	f1c43423          	sd	t3,-248(s0)

0000000000007948 <.LBB34_550>:
    7948:	00038f13          	mv	t5,t2
    794c:	000018b7          	lui	a7,0x1
    7950:	411408b3          	sub	a7,s0,a7
    7954:	3008b383          	ld	t2,768(a7) # 1300 <.LBB34_2+0x404>
    7958:	02638e33          	mul	t3,t2,t1
    795c:	000018b7          	lui	a7,0x1
    7960:	411408b3          	sub	a7,s0,a7
    7964:	6808bf83          	ld	t6,1664(a7) # 1680 <.LBB34_3+0x1e0>
    7968:	000018b7          	lui	a7,0x1
    796c:	411408b3          	sub	a7,s0,a7
    7970:	2e88b383          	ld	t2,744(a7) # 12e8 <.LBB34_2+0x3ec>
    7974:	01f38fb3          	add	t6,t2,t6
    7978:	01fe0e33          	add	t3,t3,t6
    797c:	428e5e13          	srai	t3,t3,0x28
    7980:	f1c43023          	sd	t3,-256(s0)
    7984:	01c74663          	blt	a4,t3,7990 <.LBB34_552>
    7988:	f8100e13          	li	t3,-127
    798c:	f1c43023          	sd	t3,-256(s0)

0000000000007990 <.LBB34_552>:
    7990:	000018b7          	lui	a7,0x1
    7994:	411408b3          	sub	a7,s0,a7
    7998:	3788b383          	ld	t2,888(a7) # 1378 <.LBB34_2+0x47c>
    799c:	02638e33          	mul	t3,t2,t1
    79a0:	000018b7          	lui	a7,0x1
    79a4:	411408b3          	sub	a7,s0,a7
    79a8:	6808bf83          	ld	t6,1664(a7) # 1680 <.LBB34_3+0x1e0>
    79ac:	000018b7          	lui	a7,0x1
    79b0:	411408b3          	sub	a7,s0,a7
    79b4:	3688b383          	ld	t2,872(a7) # 1368 <.LBB34_2+0x46c>
    79b8:	01f38fb3          	add	t6,t2,t6
    79bc:	01fe0e33          	add	t3,t3,t6
    79c0:	428e5e13          	srai	t3,t3,0x28
    79c4:	efc43c23          	sd	t3,-264(s0)
    79c8:	01c74663          	blt	a4,t3,79d4 <.LBB34_554>
    79cc:	f8100e13          	li	t3,-127
    79d0:	efc43c23          	sd	t3,-264(s0)

00000000000079d4 <.LBB34_554>:
    79d4:	000018b7          	lui	a7,0x1
    79d8:	411408b3          	sub	a7,s0,a7
    79dc:	3d08b383          	ld	t2,976(a7) # 13d0 <.LBB34_2+0x4d4>
    79e0:	02638e33          	mul	t3,t2,t1
    79e4:	000018b7          	lui	a7,0x1
    79e8:	411408b3          	sub	a7,s0,a7
    79ec:	6808bf83          	ld	t6,1664(a7) # 1680 <.LBB34_3+0x1e0>
    79f0:	000018b7          	lui	a7,0x1
    79f4:	411408b3          	sub	a7,s0,a7
    79f8:	3c08b383          	ld	t2,960(a7) # 13c0 <.LBB34_2+0x4c4>
    79fc:	01f38fb3          	add	t6,t2,t6
    7a00:	01fe0e33          	add	t3,t3,t6
    7a04:	428e5e13          	srai	t3,t3,0x28
    7a08:	efc43823          	sd	t3,-272(s0)
    7a0c:	01c74663          	blt	a4,t3,7a18 <.LBB34_556>
    7a10:	f8100e13          	li	t3,-127
    7a14:	efc43823          	sd	t3,-272(s0)

0000000000007a18 <.LBB34_556>:
    7a18:	000018b7          	lui	a7,0x1
    7a1c:	411408b3          	sub	a7,s0,a7
    7a20:	4308b383          	ld	t2,1072(a7) # 1430 <.LBB34_2+0x534>
    7a24:	02638e33          	mul	t3,t2,t1
    7a28:	000018b7          	lui	a7,0x1
    7a2c:	411408b3          	sub	a7,s0,a7
    7a30:	6808bf83          	ld	t6,1664(a7) # 1680 <.LBB34_3+0x1e0>
    7a34:	000018b7          	lui	a7,0x1
    7a38:	411408b3          	sub	a7,s0,a7
    7a3c:	4288b383          	ld	t2,1064(a7) # 1428 <.LBB34_2+0x52c>
    7a40:	01f38fb3          	add	t6,t2,t6
    7a44:	01fe0e33          	add	t3,t3,t6
    7a48:	428e5e13          	srai	t3,t3,0x28
    7a4c:	efc43423          	sd	t3,-280(s0)
    7a50:	01c74663          	blt	a4,t3,7a5c <.LBB34_558>
    7a54:	f8100e13          	li	t3,-127
    7a58:	efc43423          	sd	t3,-280(s0)

0000000000007a5c <.LBB34_558>:
    7a5c:	000018b7          	lui	a7,0x1
    7a60:	411408b3          	sub	a7,s0,a7
    7a64:	4988b383          	ld	t2,1176(a7) # 1498 <.LBB34_2+0x59c>
    7a68:	02638e33          	mul	t3,t2,t1
    7a6c:	000018b7          	lui	a7,0x1
    7a70:	411408b3          	sub	a7,s0,a7
    7a74:	6808bf83          	ld	t6,1664(a7) # 1680 <.LBB34_3+0x1e0>
    7a78:	000018b7          	lui	a7,0x1
    7a7c:	411408b3          	sub	a7,s0,a7
    7a80:	4908b383          	ld	t2,1168(a7) # 1490 <.LBB34_2+0x594>
    7a84:	01f38fb3          	add	t6,t2,t6
    7a88:	01fe0e33          	add	t3,t3,t6
    7a8c:	428e5e13          	srai	t3,t3,0x28
    7a90:	efc43023          	sd	t3,-288(s0)
    7a94:	01c74663          	blt	a4,t3,7aa0 <.LBB34_560>
    7a98:	f8100e13          	li	t3,-127
    7a9c:	efc43023          	sd	t3,-288(s0)

0000000000007aa0 <.LBB34_560>:
    7aa0:	000018b7          	lui	a7,0x1
    7aa4:	411408b3          	sub	a7,s0,a7
    7aa8:	4f88b383          	ld	t2,1272(a7) # 14f8 <.LBB34_3+0x58>
    7aac:	02638e33          	mul	t3,t2,t1
    7ab0:	000018b7          	lui	a7,0x1
    7ab4:	411408b3          	sub	a7,s0,a7
    7ab8:	6808bf83          	ld	t6,1664(a7) # 1680 <.LBB34_3+0x1e0>
    7abc:	000018b7          	lui	a7,0x1
    7ac0:	411408b3          	sub	a7,s0,a7
    7ac4:	4f08b383          	ld	t2,1264(a7) # 14f0 <.LBB34_3+0x50>
    7ac8:	01f38fb3          	add	t6,t2,t6
    7acc:	01fe0e33          	add	t3,t3,t6
    7ad0:	428e5e13          	srai	t3,t3,0x28
    7ad4:	edc43823          	sd	t3,-304(s0)
    7ad8:	01c74663          	blt	a4,t3,7ae4 <.LBB34_562>
    7adc:	f8100e13          	li	t3,-127
    7ae0:	edc43823          	sd	t3,-304(s0)

0000000000007ae4 <.LBB34_562>:
    7ae4:	000018b7          	lui	a7,0x1
    7ae8:	411408b3          	sub	a7,s0,a7
    7aec:	6d08b383          	ld	t2,1744(a7) # 16d0 <.LBB34_3+0x230>
    7af0:	02638e33          	mul	t3,t2,t1
    7af4:	000018b7          	lui	a7,0x1
    7af8:	411408b3          	sub	a7,s0,a7
    7afc:	6808bf83          	ld	t6,1664(a7) # 1680 <.LBB34_3+0x1e0>
    7b00:	000018b7          	lui	a7,0x1
    7b04:	411408b3          	sub	a7,s0,a7
    7b08:	5288b383          	ld	t2,1320(a7) # 1528 <.LBB34_3+0x88>
    7b0c:	01f38fb3          	add	t6,t2,t6
    7b10:	01fe0e33          	add	t3,t3,t6
    7b14:	428e5e13          	srai	t3,t3,0x28
    7b18:	edc43023          	sd	t3,-320(s0)
    7b1c:	01c74663          	blt	a4,t3,7b28 <.LBB34_564>
    7b20:	f8100e13          	li	t3,-127
    7b24:	edc43023          	sd	t3,-320(s0)

0000000000007b28 <.LBB34_564>:
    7b28:	000018b7          	lui	a7,0x1
    7b2c:	411408b3          	sub	a7,s0,a7
    7b30:	5388b383          	ld	t2,1336(a7) # 1538 <.LBB34_3+0x98>
    7b34:	02638e33          	mul	t3,t2,t1
    7b38:	000018b7          	lui	a7,0x1
    7b3c:	411408b3          	sub	a7,s0,a7
    7b40:	6808bf83          	ld	t6,1664(a7) # 1680 <.LBB34_3+0x1e0>
    7b44:	000018b7          	lui	a7,0x1
    7b48:	411408b3          	sub	a7,s0,a7
    7b4c:	5308b383          	ld	t2,1328(a7) # 1530 <.LBB34_3+0x90>
    7b50:	01f38fb3          	add	t6,t2,t6
    7b54:	01fe0e33          	add	t3,t3,t6
    7b58:	428e5e13          	srai	t3,t3,0x28
    7b5c:	ebc43823          	sd	t3,-336(s0)
    7b60:	01c74663          	blt	a4,t3,7b6c <.LBB34_566>
    7b64:	f8100e13          	li	t3,-127
    7b68:	ebc43823          	sd	t3,-336(s0)

0000000000007b6c <.LBB34_566>:
    7b6c:	81043823          	sd	a6,-2032(s0)
    7b70:	00001837          	lui	a6,0x1
    7b74:	41040833          	sub	a6,s0,a6
    7b78:	54083803          	ld	a6,1344(a6) # 1540 <.LBB34_3+0xa0>
    7b7c:	02680e33          	mul	t3,a6,t1
    7b80:	00001837          	lui	a6,0x1
    7b84:	41040833          	sub	a6,s0,a6
    7b88:	68083f83          	ld	t6,1664(a6) # 1680 <.LBB34_3+0x1e0>
    7b8c:	00001837          	lui	a6,0x1
    7b90:	41040833          	sub	a6,s0,a6
    7b94:	6c083803          	ld	a6,1728(a6) # 16c0 <.LBB34_3+0x220>
    7b98:	01f80fb3          	add	t6,a6,t6
    7b9c:	01fe0e33          	add	t3,t3,t6
    7ba0:	428e5e13          	srai	t3,t3,0x28
    7ba4:	ebc43023          	sd	t3,-352(s0)
    7ba8:	01c74663          	blt	a4,t3,7bb4 <.LBB34_568>
    7bac:	f8100e13          	li	t3,-127
    7bb0:	ebc43023          	sd	t3,-352(s0)

0000000000007bb4 <.LBB34_568>:
    7bb4:	00001837          	lui	a6,0x1
    7bb8:	41040833          	sub	a6,s0,a6
    7bbc:	55083803          	ld	a6,1360(a6) # 1550 <.LBB34_3+0xb0>
    7bc0:	02680e33          	mul	t3,a6,t1
    7bc4:	00001837          	lui	a6,0x1
    7bc8:	41040833          	sub	a6,s0,a6
    7bcc:	68083f83          	ld	t6,1664(a6) # 1680 <.LBB34_3+0x1e0>
    7bd0:	00001837          	lui	a6,0x1
    7bd4:	41040833          	sub	a6,s0,a6
    7bd8:	54883803          	ld	a6,1352(a6) # 1548 <.LBB34_3+0xa8>
    7bdc:	01f80fb3          	add	t6,a6,t6
    7be0:	01fe0e33          	add	t3,t3,t6
    7be4:	428e5e13          	srai	t3,t3,0x28
    7be8:	e9c43823          	sd	t3,-368(s0)
    7bec:	01c74663          	blt	a4,t3,7bf8 <.LBB34_570>
    7bf0:	f8100e13          	li	t3,-127
    7bf4:	e9c43823          	sd	t3,-368(s0)

0000000000007bf8 <.LBB34_570>:
    7bf8:	00001837          	lui	a6,0x1
    7bfc:	41040833          	sub	a6,s0,a6
    7c00:	69883383          	ld	t2,1688(a6) # 1698 <.LBB34_3+0x1f8>
    7c04:	02638e33          	mul	t3,t2,t1
    7c08:	00001837          	lui	a6,0x1
    7c0c:	41040833          	sub	a6,s0,a6
    7c10:	68083f83          	ld	t6,1664(a6) # 1680 <.LBB34_3+0x1e0>
    7c14:	00001837          	lui	a6,0x1
    7c18:	41040833          	sub	a6,s0,a6
    7c1c:	69083383          	ld	t2,1680(a6) # 1690 <.LBB34_3+0x1f0>
    7c20:	01f38fb3          	add	t6,t2,t6
    7c24:	01fe0e33          	add	t3,t3,t6
    7c28:	428e5e13          	srai	t3,t3,0x28
    7c2c:	e9c43023          	sd	t3,-384(s0)
    7c30:	01c74663          	blt	a4,t3,7c3c <.LBB34_572>
    7c34:	f8100e13          	li	t3,-127
    7c38:	e9c43023          	sd	t3,-384(s0)

0000000000007c3c <.LBB34_572>:
    7c3c:	00090893          	mv	a7,s2
    7c40:	00001837          	lui	a6,0x1
    7c44:	41040833          	sub	a6,s0,a6
    7c48:	65883383          	ld	t2,1624(a6) # 1658 <.LBB34_3+0x1b8>
    7c4c:	02638e33          	mul	t3,t2,t1
    7c50:	00001837          	lui	a6,0x1
    7c54:	41040833          	sub	a6,s0,a6
    7c58:	68083f83          	ld	t6,1664(a6) # 1680 <.LBB34_3+0x1e0>
    7c5c:	00001837          	lui	a6,0x1
    7c60:	41040833          	sub	a6,s0,a6
    7c64:	6b883383          	ld	t2,1720(a6) # 16b8 <.LBB34_3+0x218>
    7c68:	01f38fb3          	add	t6,t2,t6
    7c6c:	01fe0e33          	add	t3,t3,t6
    7c70:	428e5e13          	srai	t3,t3,0x28
    7c74:	e7c43823          	sd	t3,-400(s0)
    7c78:	01c74663          	blt	a4,t3,7c84 <.LBB34_574>
    7c7c:	f8100e13          	li	t3,-127
    7c80:	e7c43823          	sd	t3,-400(s0)

0000000000007c84 <.LBB34_574>:
    7c84:	00001837          	lui	a6,0x1
    7c88:	41040833          	sub	a6,s0,a6
    7c8c:	b0083903          	ld	s2,-1280(a6) # b00 <.LBB34_1+0x7f8>
    7c90:	00001837          	lui	a6,0x1
    7c94:	41040833          	sub	a6,s0,a6
    7c98:	b0883803          	ld	a6,-1272(a6) # b08 <.LBB34_1+0x800>
    7c9c:	000013b7          	lui	t2,0x1
    7ca0:	407403b3          	sub	t2,s0,t2
    7ca4:	6a83b383          	ld	t2,1704(t2) # 16a8 <.LBB34_3+0x208>
    7ca8:	02638e33          	mul	t3,t2,t1
    7cac:	000013b7          	lui	t2,0x1
    7cb0:	407403b3          	sub	t2,s0,t2
    7cb4:	6803bf83          	ld	t6,1664(t2) # 1680 <.LBB34_3+0x1e0>
    7cb8:	000013b7          	lui	t2,0x1
    7cbc:	407403b3          	sub	t2,s0,t2
    7cc0:	6c83b383          	ld	t2,1736(t2) # 16c8 <.LBB34_3+0x228>
    7cc4:	01f38fb3          	add	t6,t2,t6
    7cc8:	01fe0e33          	add	t3,t3,t6
    7ccc:	428e5e13          	srai	t3,t3,0x28
    7cd0:	e5c43c23          	sd	t3,-424(s0)
    7cd4:	01c74663          	blt	a4,t3,7ce0 <.LBB34_576>
    7cd8:	f8100e13          	li	t3,-127
    7cdc:	e5c43c23          	sd	t3,-424(s0)

0000000000007ce0 <.LBB34_576>:
    7ce0:	000013b7          	lui	t2,0x1
    7ce4:	407403b3          	sub	t2,s0,t2
    7ce8:	6a03be03          	ld	t3,1696(t2) # 16a0 <.LBB34_3+0x200>
    7cec:	026e0e33          	mul	t3,t3,t1
    7cf0:	000013b7          	lui	t2,0x1
    7cf4:	407403b3          	sub	t2,s0,t2
    7cf8:	6803bf83          	ld	t6,1664(t2) # 1680 <.LBB34_3+0x1e0>
    7cfc:	000013b7          	lui	t2,0x1
    7d00:	407403b3          	sub	t2,s0,t2
    7d04:	6603be83          	ld	t4,1632(t2) # 1660 <.LBB34_3+0x1c0>
    7d08:	01fe8fb3          	add	t6,t4,t6
    7d0c:	01fe0e33          	add	t3,t3,t6
    7d10:	428e5e13          	srai	t3,t3,0x28
    7d14:	e5c43423          	sd	t3,-440(s0)
    7d18:	01c74663          	blt	a4,t3,7d24 <.LBB34_578>
    7d1c:	f8100e13          	li	t3,-127
    7d20:	e5c43423          	sd	t3,-440(s0)

0000000000007d24 <.LBB34_578>:
    7d24:	000013b7          	lui	t2,0x1
    7d28:	407403b3          	sub	t2,s0,t2
    7d2c:	6703be03          	ld	t3,1648(t2) # 1670 <.LBB34_3+0x1d0>
    7d30:	026e0e33          	mul	t3,t3,t1
    7d34:	000013b7          	lui	t2,0x1
    7d38:	407403b3          	sub	t2,s0,t2
    7d3c:	6803bf83          	ld	t6,1664(t2) # 1680 <.LBB34_3+0x1e0>
    7d40:	000013b7          	lui	t2,0x1
    7d44:	407403b3          	sub	t2,s0,t2
    7d48:	6683be83          	ld	t4,1640(t2) # 1668 <.LBB34_3+0x1c8>
    7d4c:	01fe8fb3          	add	t6,t4,t6
    7d50:	01fe0e33          	add	t3,t3,t6
    7d54:	428e5e13          	srai	t3,t3,0x28
    7d58:	01c74463          	blt	a4,t3,7d60 <.LBB34_580>
    7d5c:	f8100e13          	li	t3,-127

0000000000007d60 <.LBB34_580>:
    7d60:	85c43023          	sd	t3,-1984(s0)
    7d64:	000013b7          	lui	t2,0x1
    7d68:	407403b3          	sub	t2,s0,t2
    7d6c:	b703b383          	ld	t2,-1168(t2) # b70 <.LBB34_1+0x868>
    7d70:	02638e33          	mul	t3,t2,t1
    7d74:	000013b7          	lui	t2,0x1
    7d78:	407403b3          	sub	t2,s0,t2
    7d7c:	6803bf83          	ld	t6,1664(t2) # 1680 <.LBB34_3+0x1e0>
    7d80:	000013b7          	lui	t2,0x1
    7d84:	407403b3          	sub	t2,s0,t2
    7d88:	b603b383          	ld	t2,-1184(t2) # b60 <.LBB34_1+0x858>
    7d8c:	01f38fb3          	add	t6,t2,t6
    7d90:	01fe0e33          	add	t3,t3,t6
    7d94:	428e5e13          	srai	t3,t3,0x28
    7d98:	edc43c23          	sd	t3,-296(s0)
    7d9c:	00080e93          	mv	t4,a6
    7da0:	01c74663          	blt	a4,t3,7dac <.LBB34_582>
    7da4:	f8100e13          	li	t3,-127
    7da8:	edc43c23          	sd	t3,-296(s0)

0000000000007dac <.LBB34_582>:
    7dac:	00001837          	lui	a6,0x1
    7db0:	41040833          	sub	a6,s0,a6
    7db4:	bd083803          	ld	a6,-1072(a6) # bd0 <.LBB34_1+0x8c8>
    7db8:	02680e33          	mul	t3,a6,t1
    7dbc:	00001837          	lui	a6,0x1
    7dc0:	41040833          	sub	a6,s0,a6
    7dc4:	68083f83          	ld	t6,1664(a6) # 1680 <.LBB34_3+0x1e0>
    7dc8:	00001837          	lui	a6,0x1
    7dcc:	41040833          	sub	a6,s0,a6
    7dd0:	bc883803          	ld	a6,-1080(a6) # bc8 <.LBB34_1+0x8c0>
    7dd4:	01f80fb3          	add	t6,a6,t6
    7dd8:	01fe0e33          	add	t3,t3,t6
    7ddc:	428e5e13          	srai	t3,t3,0x28
    7de0:	edc43423          	sd	t3,-312(s0)
    7de4:	01c74663          	blt	a4,t3,7df0 <.LBB34_584>
    7de8:	f8100e13          	li	t3,-127
    7dec:	edc43423          	sd	t3,-312(s0)

0000000000007df0 <.LBB34_584>:
    7df0:	00001837          	lui	a6,0x1
    7df4:	41040833          	sub	a6,s0,a6
    7df8:	c3083803          	ld	a6,-976(a6) # c30 <.LBB34_1+0x928>
    7dfc:	02680e33          	mul	t3,a6,t1
    7e00:	00001837          	lui	a6,0x1
    7e04:	41040833          	sub	a6,s0,a6
    7e08:	68083f83          	ld	t6,1664(a6) # 1680 <.LBB34_3+0x1e0>
    7e0c:	00001837          	lui	a6,0x1
    7e10:	41040833          	sub	a6,s0,a6
    7e14:	c2883803          	ld	a6,-984(a6) # c28 <.LBB34_1+0x920>
    7e18:	01f80fb3          	add	t6,a6,t6
    7e1c:	01fe0e33          	add	t3,t3,t6
    7e20:	428e5e13          	srai	t3,t3,0x28
    7e24:	ebc43c23          	sd	t3,-328(s0)
    7e28:	01c74663          	blt	a4,t3,7e34 <.LBB34_586>
    7e2c:	f8100e13          	li	t3,-127
    7e30:	ebc43c23          	sd	t3,-328(s0)

0000000000007e34 <.LBB34_586>:
    7e34:	00001837          	lui	a6,0x1
    7e38:	41040833          	sub	a6,s0,a6
    7e3c:	ca083803          	ld	a6,-864(a6) # ca0 <.LBB34_1+0x998>
    7e40:	02680e33          	mul	t3,a6,t1
    7e44:	00001837          	lui	a6,0x1
    7e48:	41040833          	sub	a6,s0,a6
    7e4c:	68083f83          	ld	t6,1664(a6) # 1680 <.LBB34_3+0x1e0>
    7e50:	00001837          	lui	a6,0x1
    7e54:	41040833          	sub	a6,s0,a6
    7e58:	c9883803          	ld	a6,-872(a6) # c98 <.LBB34_1+0x990>
    7e5c:	01f80fb3          	add	t6,a6,t6
    7e60:	01fe0e33          	add	t3,t3,t6
    7e64:	428e5e13          	srai	t3,t3,0x28
    7e68:	ebc43423          	sd	t3,-344(s0)
    7e6c:	01c74663          	blt	a4,t3,7e78 <.LBB34_588>
    7e70:	f8100e13          	li	t3,-127
    7e74:	ebc43423          	sd	t3,-344(s0)

0000000000007e78 <.LBB34_588>:
    7e78:	00001837          	lui	a6,0x1
    7e7c:	41040833          	sub	a6,s0,a6
    7e80:	d1883803          	ld	a6,-744(a6) # d18 <.LBB34_1+0xa10>
    7e84:	02680e33          	mul	t3,a6,t1
    7e88:	00001837          	lui	a6,0x1
    7e8c:	41040833          	sub	a6,s0,a6
    7e90:	68083f83          	ld	t6,1664(a6) # 1680 <.LBB34_3+0x1e0>
    7e94:	00001837          	lui	a6,0x1
    7e98:	41040833          	sub	a6,s0,a6
    7e9c:	d1083803          	ld	a6,-752(a6) # d10 <.LBB34_1+0xa08>
    7ea0:	01f80fb3          	add	t6,a6,t6
    7ea4:	01fe0e33          	add	t3,t3,t6
    7ea8:	428e5e13          	srai	t3,t3,0x28
    7eac:	e9c43c23          	sd	t3,-360(s0)
    7eb0:	01c74663          	blt	a4,t3,7ebc <.LBB34_590>
    7eb4:	f8100e13          	li	t3,-127
    7eb8:	e9c43c23          	sd	t3,-360(s0)

0000000000007ebc <.LBB34_590>:
    7ebc:	00001837          	lui	a6,0x1
    7ec0:	41040833          	sub	a6,s0,a6
    7ec4:	d9083803          	ld	a6,-624(a6) # d90 <.LBB34_1+0xa88>
    7ec8:	02680e33          	mul	t3,a6,t1
    7ecc:	00001837          	lui	a6,0x1
    7ed0:	41040833          	sub	a6,s0,a6
    7ed4:	68083f83          	ld	t6,1664(a6) # 1680 <.LBB34_3+0x1e0>
    7ed8:	00001837          	lui	a6,0x1
    7edc:	41040833          	sub	a6,s0,a6
    7ee0:	d8883803          	ld	a6,-632(a6) # d88 <.LBB34_1+0xa80>
    7ee4:	01f80fb3          	add	t6,a6,t6
    7ee8:	01fe0e33          	add	t3,t3,t6
    7eec:	428e5e13          	srai	t3,t3,0x28
    7ef0:	e9c43423          	sd	t3,-376(s0)
    7ef4:	01c74663          	blt	a4,t3,7f00 <.LBB34_592>
    7ef8:	f8100e13          	li	t3,-127
    7efc:	e9c43423          	sd	t3,-376(s0)

0000000000007f00 <.LBB34_592>:
    7f00:	00001837          	lui	a6,0x1
    7f04:	41040833          	sub	a6,s0,a6
    7f08:	df883803          	ld	a6,-520(a6) # df8 <.LBB34_1+0xaf0>
    7f0c:	02680e33          	mul	t3,a6,t1
    7f10:	00001837          	lui	a6,0x1
    7f14:	41040833          	sub	a6,s0,a6
    7f18:	68083f83          	ld	t6,1664(a6) # 1680 <.LBB34_3+0x1e0>
    7f1c:	00001837          	lui	a6,0x1
    7f20:	41040833          	sub	a6,s0,a6
    7f24:	df083803          	ld	a6,-528(a6) # df0 <.LBB34_1+0xae8>
    7f28:	01f80fb3          	add	t6,a6,t6
    7f2c:	01fe0e33          	add	t3,t3,t6
    7f30:	428e5e13          	srai	t3,t3,0x28
    7f34:	e7c43c23          	sd	t3,-392(s0)
    7f38:	01c74663          	blt	a4,t3,7f44 <.LBB34_594>
    7f3c:	f8100e13          	li	t3,-127
    7f40:	e7c43c23          	sd	t3,-392(s0)

0000000000007f44 <.LBB34_594>:
    7f44:	00001837          	lui	a6,0x1
    7f48:	41040833          	sub	a6,s0,a6
    7f4c:	e6883803          	ld	a6,-408(a6) # e68 <.LBB34_1+0xb60>
    7f50:	02680e33          	mul	t3,a6,t1
    7f54:	00001837          	lui	a6,0x1
    7f58:	41040833          	sub	a6,s0,a6
    7f5c:	68083f83          	ld	t6,1664(a6) # 1680 <.LBB34_3+0x1e0>
    7f60:	00001837          	lui	a6,0x1
    7f64:	41040833          	sub	a6,s0,a6
    7f68:	e6083803          	ld	a6,-416(a6) # e60 <.LBB34_1+0xb58>
    7f6c:	01f80fb3          	add	t6,a6,t6
    7f70:	01fe0e33          	add	t3,t3,t6
    7f74:	428e5e13          	srai	t3,t3,0x28
    7f78:	e7c43423          	sd	t3,-408(s0)
    7f7c:	01c74663          	blt	a4,t3,7f88 <.LBB34_596>
    7f80:	f8100e13          	li	t3,-127
    7f84:	e7c43423          	sd	t3,-408(s0)

0000000000007f88 <.LBB34_596>:
    7f88:	00001837          	lui	a6,0x1
    7f8c:	41040833          	sub	a6,s0,a6
    7f90:	ed883803          	ld	a6,-296(a6) # ed8 <.LBB34_1+0xbd0>
    7f94:	02680e33          	mul	t3,a6,t1
    7f98:	00001837          	lui	a6,0x1
    7f9c:	41040833          	sub	a6,s0,a6
    7fa0:	68083f83          	ld	t6,1664(a6) # 1680 <.LBB34_3+0x1e0>
    7fa4:	00001837          	lui	a6,0x1
    7fa8:	41040833          	sub	a6,s0,a6
    7fac:	ed083803          	ld	a6,-304(a6) # ed0 <.LBB34_1+0xbc8>
    7fb0:	01f80fb3          	add	t6,a6,t6
    7fb4:	01fe0e33          	add	t3,t3,t6
    7fb8:	428e5e13          	srai	t3,t3,0x28
    7fbc:	e5c43823          	sd	t3,-432(s0)
    7fc0:	01c74663          	blt	a4,t3,7fcc <.LBB34_598>
    7fc4:	f8100e13          	li	t3,-127
    7fc8:	e5c43823          	sd	t3,-432(s0)

0000000000007fcc <.LBB34_598>:
    7fcc:	00001837          	lui	a6,0x1
    7fd0:	41040833          	sub	a6,s0,a6
    7fd4:	f4883803          	ld	a6,-184(a6) # f48 <.LBB34_2+0x4c>
    7fd8:	02680e33          	mul	t3,a6,t1
    7fdc:	00001837          	lui	a6,0x1
    7fe0:	41040833          	sub	a6,s0,a6
    7fe4:	68083f83          	ld	t6,1664(a6) # 1680 <.LBB34_3+0x1e0>
    7fe8:	00001837          	lui	a6,0x1
    7fec:	41040833          	sub	a6,s0,a6
    7ff0:	f4083803          	ld	a6,-192(a6) # f40 <.LBB34_2+0x44>
    7ff4:	01f80fb3          	add	t6,a6,t6
    7ff8:	01fe0e33          	add	t3,t3,t6
    7ffc:	428e5e13          	srai	t3,t3,0x28
    8000:	e5c43023          	sd	t3,-448(s0)
    8004:	01c74663          	blt	a4,t3,8010 <.LBB34_600>
    8008:	f8100e13          	li	t3,-127
    800c:	e5c43023          	sd	t3,-448(s0)

0000000000008010 <.LBB34_600>:
    8010:	00001837          	lui	a6,0x1
    8014:	41040833          	sub	a6,s0,a6
    8018:	fb083803          	ld	a6,-80(a6) # fb0 <.LBB34_2+0xb4>
    801c:	02680e33          	mul	t3,a6,t1
    8020:	00001837          	lui	a6,0x1
    8024:	41040833          	sub	a6,s0,a6
    8028:	68083f83          	ld	t6,1664(a6) # 1680 <.LBB34_3+0x1e0>
    802c:	00001837          	lui	a6,0x1
    8030:	41040833          	sub	a6,s0,a6
    8034:	fa883803          	ld	a6,-88(a6) # fa8 <.LBB34_2+0xac>
    8038:	01f80fb3          	add	t6,a6,t6
    803c:	01fe0e33          	add	t3,t3,t6
    8040:	428e5e13          	srai	t3,t3,0x28
    8044:	e3c43c23          	sd	t3,-456(s0)
    8048:	01c74663          	blt	a4,t3,8054 <.LBB34_602>
    804c:	f8100e13          	li	t3,-127
    8050:	e3c43c23          	sd	t3,-456(s0)

0000000000008054 <.LBB34_602>:
    8054:	00001837          	lui	a6,0x1
    8058:	41040833          	sub	a6,s0,a6
    805c:	02883803          	ld	a6,40(a6) # 1028 <.LBB34_2+0x12c>
    8060:	02680e33          	mul	t3,a6,t1
    8064:	00001837          	lui	a6,0x1
    8068:	41040833          	sub	a6,s0,a6
    806c:	68083f83          	ld	t6,1664(a6) # 1680 <.LBB34_3+0x1e0>
    8070:	00001837          	lui	a6,0x1
    8074:	41040833          	sub	a6,s0,a6
    8078:	02083803          	ld	a6,32(a6) # 1020 <.LBB34_2+0x124>
    807c:	01f80fb3          	add	t6,a6,t6
    8080:	01fe0e33          	add	t3,t3,t6
    8084:	428e5e13          	srai	t3,t3,0x28
    8088:	e3c43823          	sd	t3,-464(s0)
    808c:	01c74663          	blt	a4,t3,8098 <.LBB34_604>
    8090:	f8100e13          	li	t3,-127
    8094:	e3c43823          	sd	t3,-464(s0)

0000000000008098 <.LBB34_604>:
    8098:	00001837          	lui	a6,0x1
    809c:	41040833          	sub	a6,s0,a6
    80a0:	09083803          	ld	a6,144(a6) # 1090 <.LBB34_2+0x194>
    80a4:	02680e33          	mul	t3,a6,t1
    80a8:	00001837          	lui	a6,0x1
    80ac:	41040833          	sub	a6,s0,a6
    80b0:	68083f83          	ld	t6,1664(a6) # 1680 <.LBB34_3+0x1e0>
    80b4:	00001837          	lui	a6,0x1
    80b8:	41040833          	sub	a6,s0,a6
    80bc:	08883803          	ld	a6,136(a6) # 1088 <.LBB34_2+0x18c>
    80c0:	01f80fb3          	add	t6,a6,t6
    80c4:	01fe0e33          	add	t3,t3,t6
    80c8:	428e5e13          	srai	t3,t3,0x28
    80cc:	e3c43423          	sd	t3,-472(s0)
    80d0:	01c74663          	blt	a4,t3,80dc <.LBB34_606>
    80d4:	f8100e13          	li	t3,-127
    80d8:	e3c43423          	sd	t3,-472(s0)

00000000000080dc <.LBB34_606>:
    80dc:	00001837          	lui	a6,0x1
    80e0:	41040833          	sub	a6,s0,a6
    80e4:	10883803          	ld	a6,264(a6) # 1108 <.LBB34_2+0x20c>
    80e8:	02680e33          	mul	t3,a6,t1
    80ec:	00001837          	lui	a6,0x1
    80f0:	41040833          	sub	a6,s0,a6
    80f4:	68083f83          	ld	t6,1664(a6) # 1680 <.LBB34_3+0x1e0>
    80f8:	00001837          	lui	a6,0x1
    80fc:	41040833          	sub	a6,s0,a6
    8100:	10083803          	ld	a6,256(a6) # 1100 <.LBB34_2+0x204>
    8104:	01f80fb3          	add	t6,a6,t6
    8108:	01fe0e33          	add	t3,t3,t6
    810c:	428e5e13          	srai	t3,t3,0x28
    8110:	e3c43023          	sd	t3,-480(s0)
    8114:	01c74663          	blt	a4,t3,8120 <.LBB34_608>
    8118:	f8100e13          	li	t3,-127
    811c:	e3c43023          	sd	t3,-480(s0)

0000000000008120 <.LBB34_608>:
    8120:	00001837          	lui	a6,0x1
    8124:	41040833          	sub	a6,s0,a6
    8128:	17083803          	ld	a6,368(a6) # 1170 <.LBB34_2+0x274>
    812c:	02680e33          	mul	t3,a6,t1
    8130:	00001837          	lui	a6,0x1
    8134:	41040833          	sub	a6,s0,a6
    8138:	68083f83          	ld	t6,1664(a6) # 1680 <.LBB34_3+0x1e0>
    813c:	00001837          	lui	a6,0x1
    8140:	41040833          	sub	a6,s0,a6
    8144:	16883803          	ld	a6,360(a6) # 1168 <.LBB34_2+0x26c>
    8148:	01f80fb3          	add	t6,a6,t6
    814c:	01fe0e33          	add	t3,t3,t6
    8150:	428e5e13          	srai	t3,t3,0x28
    8154:	e1c43c23          	sd	t3,-488(s0)
    8158:	01c74663          	blt	a4,t3,8164 <.LBB34_610>
    815c:	f8100e13          	li	t3,-127
    8160:	e1c43c23          	sd	t3,-488(s0)

0000000000008164 <.LBB34_610>:
    8164:	00001837          	lui	a6,0x1
    8168:	41040833          	sub	a6,s0,a6
    816c:	1d883803          	ld	a6,472(a6) # 11d8 <.LBB34_2+0x2dc>
    8170:	02680e33          	mul	t3,a6,t1
    8174:	00001837          	lui	a6,0x1
    8178:	41040833          	sub	a6,s0,a6
    817c:	68083f83          	ld	t6,1664(a6) # 1680 <.LBB34_3+0x1e0>
    8180:	00001837          	lui	a6,0x1
    8184:	41040833          	sub	a6,s0,a6
    8188:	1d083803          	ld	a6,464(a6) # 11d0 <.LBB34_2+0x2d4>
    818c:	01f80fb3          	add	t6,a6,t6
    8190:	01fe0e33          	add	t3,t3,t6
    8194:	428e5e13          	srai	t3,t3,0x28
    8198:	e1c43823          	sd	t3,-496(s0)
    819c:	01c74663          	blt	a4,t3,81a8 <.LBB34_612>
    81a0:	f8100e13          	li	t3,-127
    81a4:	e1c43823          	sd	t3,-496(s0)

00000000000081a8 <.LBB34_612>:
    81a8:	00001837          	lui	a6,0x1
    81ac:	41040833          	sub	a6,s0,a6
    81b0:	24083803          	ld	a6,576(a6) # 1240 <.LBB34_2+0x344>
    81b4:	02680e33          	mul	t3,a6,t1
    81b8:	00001837          	lui	a6,0x1
    81bc:	41040833          	sub	a6,s0,a6
    81c0:	68083f83          	ld	t6,1664(a6) # 1680 <.LBB34_3+0x1e0>
    81c4:	00001837          	lui	a6,0x1
    81c8:	41040833          	sub	a6,s0,a6
    81cc:	23883803          	ld	a6,568(a6) # 1238 <.LBB34_2+0x33c>
    81d0:	01f80fb3          	add	t6,a6,t6
    81d4:	01fe0e33          	add	t3,t3,t6
    81d8:	428e5e13          	srai	t3,t3,0x28
    81dc:	e1c43423          	sd	t3,-504(s0)
    81e0:	01c74663          	blt	a4,t3,81ec <.LBB34_614>
    81e4:	f8100e13          	li	t3,-127
    81e8:	e1c43423          	sd	t3,-504(s0)

00000000000081ec <.LBB34_614>:
    81ec:	00001837          	lui	a6,0x1
    81f0:	41040833          	sub	a6,s0,a6
    81f4:	29883803          	ld	a6,664(a6) # 1298 <.LBB34_2+0x39c>
    81f8:	02680e33          	mul	t3,a6,t1
    81fc:	00001837          	lui	a6,0x1
    8200:	41040833          	sub	a6,s0,a6
    8204:	68083f83          	ld	t6,1664(a6) # 1680 <.LBB34_3+0x1e0>
    8208:	00001837          	lui	a6,0x1
    820c:	41040833          	sub	a6,s0,a6
    8210:	29083803          	ld	a6,656(a6) # 1290 <.LBB34_2+0x394>
    8214:	01f80fb3          	add	t6,a6,t6
    8218:	01fe0e33          	add	t3,t3,t6
    821c:	428e5e13          	srai	t3,t3,0x28
    8220:	e1c43023          	sd	t3,-512(s0)
    8224:	01c74663          	blt	a4,t3,8230 <.LBB34_616>
    8228:	f8100e13          	li	t3,-127
    822c:	e1c43023          	sd	t3,-512(s0)

0000000000008230 <.LBB34_616>:
    8230:	00001837          	lui	a6,0x1
    8234:	41040833          	sub	a6,s0,a6
    8238:	30883803          	ld	a6,776(a6) # 1308 <.LBB34_2+0x40c>
    823c:	02680e33          	mul	t3,a6,t1
    8240:	00001837          	lui	a6,0x1
    8244:	41040833          	sub	a6,s0,a6
    8248:	68083f83          	ld	t6,1664(a6) # 1680 <.LBB34_3+0x1e0>
    824c:	00001837          	lui	a6,0x1
    8250:	41040833          	sub	a6,s0,a6
    8254:	2f883803          	ld	a6,760(a6) # 12f8 <.LBB34_2+0x3fc>
    8258:	01f80fb3          	add	t6,a6,t6
    825c:	01fe0e33          	add	t3,t3,t6
    8260:	428e5e13          	srai	t3,t3,0x28
    8264:	dfc43c23          	sd	t3,-520(s0)
    8268:	01c74663          	blt	a4,t3,8274 <.LBB34_618>
    826c:	f8100e13          	li	t3,-127
    8270:	dfc43c23          	sd	t3,-520(s0)

0000000000008274 <.LBB34_618>:
    8274:	00001837          	lui	a6,0x1
    8278:	41040833          	sub	a6,s0,a6
    827c:	37083803          	ld	a6,880(a6) # 1370 <.LBB34_2+0x474>
    8280:	02680e33          	mul	t3,a6,t1
    8284:	00001837          	lui	a6,0x1
    8288:	41040833          	sub	a6,s0,a6
    828c:	68083f83          	ld	t6,1664(a6) # 1680 <.LBB34_3+0x1e0>
    8290:	00001837          	lui	a6,0x1
    8294:	41040833          	sub	a6,s0,a6
    8298:	36083803          	ld	a6,864(a6) # 1360 <.LBB34_2+0x464>
    829c:	01f80fb3          	add	t6,a6,t6
    82a0:	01fe0e33          	add	t3,t3,t6
    82a4:	428e5e13          	srai	t3,t3,0x28
    82a8:	dfc43823          	sd	t3,-528(s0)
    82ac:	01c74663          	blt	a4,t3,82b8 <.LBB34_620>
    82b0:	f8100e13          	li	t3,-127
    82b4:	dfc43823          	sd	t3,-528(s0)

00000000000082b8 <.LBB34_620>:
    82b8:	00001837          	lui	a6,0x1
    82bc:	41040833          	sub	a6,s0,a6
    82c0:	3c883803          	ld	a6,968(a6) # 13c8 <.LBB34_2+0x4cc>
    82c4:	02680e33          	mul	t3,a6,t1
    82c8:	00001837          	lui	a6,0x1
    82cc:	41040833          	sub	a6,s0,a6
    82d0:	68083f83          	ld	t6,1664(a6) # 1680 <.LBB34_3+0x1e0>
    82d4:	00001837          	lui	a6,0x1
    82d8:	41040833          	sub	a6,s0,a6
    82dc:	3b883803          	ld	a6,952(a6) # 13b8 <.LBB34_2+0x4bc>
    82e0:	01f80fb3          	add	t6,a6,t6
    82e4:	01fe0e33          	add	t3,t3,t6
    82e8:	428e5e13          	srai	t3,t3,0x28
    82ec:	dfc43423          	sd	t3,-536(s0)
    82f0:	01c74663          	blt	a4,t3,82fc <.LBB34_622>
    82f4:	f8100e13          	li	t3,-127
    82f8:	dfc43423          	sd	t3,-536(s0)

00000000000082fc <.LBB34_622>:
    82fc:	00001837          	lui	a6,0x1
    8300:	41040833          	sub	a6,s0,a6
    8304:	42083803          	ld	a6,1056(a6) # 1420 <.LBB34_2+0x524>
    8308:	02680e33          	mul	t3,a6,t1
    830c:	00001837          	lui	a6,0x1
    8310:	41040833          	sub	a6,s0,a6
    8314:	68083f83          	ld	t6,1664(a6) # 1680 <.LBB34_3+0x1e0>
    8318:	00001837          	lui	a6,0x1
    831c:	41040833          	sub	a6,s0,a6
    8320:	41883803          	ld	a6,1048(a6) # 1418 <.LBB34_2+0x51c>
    8324:	01f80fb3          	add	t6,a6,t6
    8328:	01fe0e33          	add	t3,t3,t6
    832c:	428e5e13          	srai	t3,t3,0x28
    8330:	dfc43023          	sd	t3,-544(s0)
    8334:	01c74663          	blt	a4,t3,8340 <.LBB34_624>
    8338:	f8100e13          	li	t3,-127
    833c:	dfc43023          	sd	t3,-544(s0)

0000000000008340 <.LBB34_624>:
    8340:	00001837          	lui	a6,0x1
    8344:	41040833          	sub	a6,s0,a6
    8348:	48883803          	ld	a6,1160(a6) # 1488 <.LBB34_2+0x58c>
    834c:	02680e33          	mul	t3,a6,t1
    8350:	00001837          	lui	a6,0x1
    8354:	41040833          	sub	a6,s0,a6
    8358:	68083f83          	ld	t6,1664(a6) # 1680 <.LBB34_3+0x1e0>
    835c:	00001837          	lui	a6,0x1
    8360:	41040833          	sub	a6,s0,a6
    8364:	48083803          	ld	a6,1152(a6) # 1480 <.LBB34_2+0x584>
    8368:	01f80fb3          	add	t6,a6,t6
    836c:	01fe0e33          	add	t3,t3,t6
    8370:	428e5e13          	srai	t3,t3,0x28
    8374:	ddc43823          	sd	t3,-560(s0)
    8378:	01c74663          	blt	a4,t3,8384 <.LBB34_626>
    837c:	f8100e13          	li	t3,-127
    8380:	ddc43823          	sd	t3,-560(s0)

0000000000008384 <.LBB34_626>:
    8384:	00001837          	lui	a6,0x1
    8388:	41040833          	sub	a6,s0,a6
    838c:	4e883803          	ld	a6,1256(a6) # 14e8 <.LBB34_3+0x48>
    8390:	02680e33          	mul	t3,a6,t1
    8394:	00001837          	lui	a6,0x1
    8398:	41040833          	sub	a6,s0,a6
    839c:	68083f83          	ld	t6,1664(a6) # 1680 <.LBB34_3+0x1e0>
    83a0:	00001837          	lui	a6,0x1
    83a4:	41040833          	sub	a6,s0,a6
    83a8:	4e083803          	ld	a6,1248(a6) # 14e0 <.LBB34_3+0x40>
    83ac:	01f80fb3          	add	t6,a6,t6
    83b0:	01fe0e33          	add	t3,t3,t6
    83b4:	428e5e13          	srai	t3,t3,0x28
    83b8:	ddc43023          	sd	t3,-576(s0)
    83bc:	01c74663          	blt	a4,t3,83c8 <.LBB34_628>
    83c0:	f8100e13          	li	t3,-127
    83c4:	ddc43023          	sd	t3,-576(s0)

00000000000083c8 <.LBB34_628>:
    83c8:	00001837          	lui	a6,0x1
    83cc:	41040833          	sub	a6,s0,a6
    83d0:	6f883803          	ld	a6,1784(a6) # 16f8 <.LBB34_3+0x258>
    83d4:	02680e33          	mul	t3,a6,t1
    83d8:	00001837          	lui	a6,0x1
    83dc:	41040833          	sub	a6,s0,a6
    83e0:	68083f83          	ld	t6,1664(a6) # 1680 <.LBB34_3+0x1e0>
    83e4:	00001837          	lui	a6,0x1
    83e8:	41040833          	sub	a6,s0,a6
    83ec:	6f083803          	ld	a6,1776(a6) # 16f0 <.LBB34_3+0x250>
    83f0:	01f80fb3          	add	t6,a6,t6
    83f4:	01fe0e33          	add	t3,t3,t6
    83f8:	428e5e13          	srai	t3,t3,0x28
    83fc:	dbc43823          	sd	t3,-592(s0)
    8400:	01c74663          	blt	a4,t3,840c <.LBB34_630>
    8404:	f8100e13          	li	t3,-127
    8408:	dbc43823          	sd	t3,-592(s0)

000000000000840c <.LBB34_630>:
    840c:	00001837          	lui	a6,0x1
    8410:	41040833          	sub	a6,s0,a6
    8414:	74883803          	ld	a6,1864(a6) # 1748 <.LBB34_3+0x2a8>
    8418:	02680e33          	mul	t3,a6,t1
    841c:	00001837          	lui	a6,0x1
    8420:	41040833          	sub	a6,s0,a6
    8424:	68083f83          	ld	t6,1664(a6) # 1680 <.LBB34_3+0x1e0>
    8428:	00001837          	lui	a6,0x1
    842c:	41040833          	sub	a6,s0,a6
    8430:	74083803          	ld	a6,1856(a6) # 1740 <.LBB34_3+0x2a0>
    8434:	01f80fb3          	add	t6,a6,t6
    8438:	01fe0e33          	add	t3,t3,t6
    843c:	428e5e13          	srai	t3,t3,0x28
    8440:	dbc43023          	sd	t3,-608(s0)
    8444:	01c74663          	blt	a4,t3,8450 <.LBB34_632>
    8448:	f8100e13          	li	t3,-127
    844c:	dbc43023          	sd	t3,-608(s0)

0000000000008450 <.LBB34_632>:
    8450:	00001837          	lui	a6,0x1
    8454:	41040833          	sub	a6,s0,a6
    8458:	7b083803          	ld	a6,1968(a6) # 17b0 <.LBB34_3+0x310>
    845c:	02680e33          	mul	t3,a6,t1
    8460:	00001837          	lui	a6,0x1
    8464:	41040833          	sub	a6,s0,a6
    8468:	68083f83          	ld	t6,1664(a6) # 1680 <.LBB34_3+0x1e0>
    846c:	00001837          	lui	a6,0x1
    8470:	41040833          	sub	a6,s0,a6
    8474:	7c883803          	ld	a6,1992(a6) # 17c8 <.LBB34_3+0x328>
    8478:	01f80fb3          	add	t6,a6,t6
    847c:	01fe0e33          	add	t3,t3,t6
    8480:	428e5e13          	srai	t3,t3,0x28
    8484:	d9c43823          	sd	t3,-624(s0)
    8488:	01c74663          	blt	a4,t3,8494 <.LBB34_634>
    848c:	f8100e13          	li	t3,-127
    8490:	d9c43823          	sd	t3,-624(s0)

0000000000008494 <.LBB34_634>:
    8494:	00001837          	lui	a6,0x1
    8498:	41040833          	sub	a6,s0,a6
    849c:	7a883803          	ld	a6,1960(a6) # 17a8 <.LBB34_3+0x308>
    84a0:	02680e33          	mul	t3,a6,t1
    84a4:	00001837          	lui	a6,0x1
    84a8:	41040833          	sub	a6,s0,a6
    84ac:	68083f83          	ld	t6,1664(a6) # 1680 <.LBB34_3+0x1e0>
    84b0:	8d043803          	ld	a6,-1840(s0)
    84b4:	01f80fb3          	add	t6,a6,t6
    84b8:	01fe0e33          	add	t3,t3,t6
    84bc:	428e5e13          	srai	t3,t3,0x28
    84c0:	d9c43023          	sd	t3,-640(s0)
    84c4:	01c74663          	blt	a4,t3,84d0 <.LBB34_636>
    84c8:	f8100e13          	li	t3,-127
    84cc:	d9c43023          	sd	t3,-640(s0)

00000000000084d0 <.LBB34_636>:
    84d0:	00001837          	lui	a6,0x1
    84d4:	41040833          	sub	a6,s0,a6
    84d8:	7a083803          	ld	a6,1952(a6) # 17a0 <.LBB34_3+0x300>
    84dc:	02680e33          	mul	t3,a6,t1
    84e0:	00001837          	lui	a6,0x1
    84e4:	41040833          	sub	a6,s0,a6
    84e8:	68083f83          	ld	t6,1664(a6) # 1680 <.LBB34_3+0x1e0>
    84ec:	86843803          	ld	a6,-1944(s0)
    84f0:	01f80fb3          	add	t6,a6,t6
    84f4:	01fe0e33          	add	t3,t3,t6
    84f8:	428e5e13          	srai	t3,t3,0x28
    84fc:	d7c43823          	sd	t3,-656(s0)
    8500:	01c74663          	blt	a4,t3,850c <.LBB34_638>
    8504:	f8100e13          	li	t3,-127
    8508:	d7c43823          	sd	t3,-656(s0)

000000000000850c <.LBB34_638>:
    850c:	00001837          	lui	a6,0x1
    8510:	41040833          	sub	a6,s0,a6
    8514:	79883803          	ld	a6,1944(a6) # 1798 <.LBB34_3+0x2f8>
    8518:	02680e33          	mul	t3,a6,t1
    851c:	00001837          	lui	a6,0x1
    8520:	41040833          	sub	a6,s0,a6
    8524:	68083f83          	ld	t6,1664(a6) # 1680 <.LBB34_3+0x1e0>
    8528:	96843803          	ld	a6,-1688(s0)
    852c:	01f80fb3          	add	t6,a6,t6
    8530:	01fe0e33          	add	t3,t3,t6
    8534:	428e5e13          	srai	t3,t3,0x28
    8538:	d7c43023          	sd	t3,-672(s0)
    853c:	01c74663          	blt	a4,t3,8548 <.LBB34_640>
    8540:	f8100e13          	li	t3,-127
    8544:	d7c43023          	sd	t3,-672(s0)

0000000000008548 <.LBB34_640>:
    8548:	00001837          	lui	a6,0x1
    854c:	41040833          	sub	a6,s0,a6
    8550:	79083803          	ld	a6,1936(a6) # 1790 <.LBB34_3+0x2f0>
    8554:	02680e33          	mul	t3,a6,t1
    8558:	00001837          	lui	a6,0x1
    855c:	41040833          	sub	a6,s0,a6
    8560:	68083f83          	ld	t6,1664(a6) # 1680 <.LBB34_3+0x1e0>
    8564:	87843803          	ld	a6,-1928(s0)
    8568:	01f80fb3          	add	t6,a6,t6
    856c:	01fe0e33          	add	t3,t3,t6
    8570:	428e5e13          	srai	t3,t3,0x28
    8574:	d5c43823          	sd	t3,-688(s0)
    8578:	01c74663          	blt	a4,t3,8584 <.LBB34_642>
    857c:	f8100e13          	li	t3,-127
    8580:	d5c43823          	sd	t3,-688(s0)

0000000000008584 <.LBB34_642>:
    8584:	00001837          	lui	a6,0x1
    8588:	41040833          	sub	a6,s0,a6
    858c:	78883383          	ld	t2,1928(a6) # 1788 <.LBB34_3+0x2e8>
    8590:	02638e33          	mul	t3,t2,t1
    8594:	00001837          	lui	a6,0x1
    8598:	41040833          	sub	a6,s0,a6
    859c:	68083f83          	ld	t6,1664(a6) # 1680 <.LBB34_3+0x1e0>
    85a0:	97043383          	ld	t2,-1680(s0)
    85a4:	01f38fb3          	add	t6,t2,t6
    85a8:	01fe0e33          	add	t3,t3,t6
    85ac:	428e5e13          	srai	t3,t3,0x28
    85b0:	d5c43023          	sd	t3,-704(s0)
    85b4:	01c74663          	blt	a4,t3,85c0 <.LBB34_644>
    85b8:	f8100e13          	li	t3,-127
    85bc:	d5c43023          	sd	t3,-704(s0)

00000000000085c0 <.LBB34_644>:
    85c0:	00001837          	lui	a6,0x1
    85c4:	41040833          	sub	a6,s0,a6
    85c8:	b5883803          	ld	a6,-1192(a6) # b58 <.LBB34_1+0x850>
    85cc:	02680833          	mul	a6,a6,t1
    85d0:	000013b7          	lui	t2,0x1
    85d4:	407403b3          	sub	t2,s0,t2
    85d8:	6803bf83          	ld	t6,1664(t2) # 1680 <.LBB34_3+0x1e0>
    85dc:	000013b7          	lui	t2,0x1
    85e0:	407403b3          	sub	t2,s0,t2
    85e4:	b503be03          	ld	t3,-1200(t2) # b50 <.LBB34_1+0x848>
    85e8:	01fe0e33          	add	t3,t3,t6
    85ec:	01c80833          	add	a6,a6,t3
    85f0:	42885813          	srai	a6,a6,0x28
    85f4:	dd043c23          	sd	a6,-552(s0)
    85f8:	9f843383          	ld	t2,-1544(s0)
    85fc:	01074663          	blt	a4,a6,8608 <.LBB34_646>
    8600:	f8100813          	li	a6,-127
    8604:	dd043c23          	sd	a6,-552(s0)

0000000000008608 <.LBB34_646>:
    8608:	00001837          	lui	a6,0x1
    860c:	41040833          	sub	a6,s0,a6
    8610:	bc083803          	ld	a6,-1088(a6) # bc0 <.LBB34_1+0x8b8>
    8614:	02680833          	mul	a6,a6,t1
    8618:	00001e37          	lui	t3,0x1
    861c:	41c40e33          	sub	t3,s0,t3
    8620:	bb8e3e03          	ld	t3,-1096(t3) # bb8 <.LBB34_1+0x8b0>
    8624:	01fe0e33          	add	t3,t3,t6
    8628:	01c80833          	add	a6,a6,t3
    862c:	42885813          	srai	a6,a6,0x28
    8630:	dd043423          	sd	a6,-568(s0)
    8634:	01074663          	blt	a4,a6,8640 <.LBB34_648>
    8638:	f8100813          	li	a6,-127
    863c:	dd043423          	sd	a6,-568(s0)

0000000000008640 <.LBB34_648>:
    8640:	00001837          	lui	a6,0x1
    8644:	41040833          	sub	a6,s0,a6
    8648:	c2083803          	ld	a6,-992(a6) # c20 <.LBB34_1+0x918>
    864c:	02680833          	mul	a6,a6,t1
    8650:	01f98e33          	add	t3,s3,t6
    8654:	01c80833          	add	a6,a6,t3
    8658:	42885813          	srai	a6,a6,0x28
    865c:	db043c23          	sd	a6,-584(s0)
    8660:	01074663          	blt	a4,a6,866c <.LBB34_650>
    8664:	f8100813          	li	a6,-127
    8668:	db043c23          	sd	a6,-584(s0)

000000000000866c <.LBB34_650>:
    866c:	00001837          	lui	a6,0x1
    8670:	41040833          	sub	a6,s0,a6
    8674:	c9083803          	ld	a6,-880(a6) # c90 <.LBB34_1+0x988>
    8678:	02680833          	mul	a6,a6,t1
    867c:	00001337          	lui	t1,0x1
    8680:	40640333          	sub	t1,s0,t1
    8684:	c8833303          	ld	t1,-888(t1) # c88 <.LBB34_1+0x980>
    8688:	01f30333          	add	t1,t1,t6
    868c:	00680833          	add	a6,a6,t1
    8690:	42885813          	srai	a6,a6,0x28
    8694:	db043423          	sd	a6,-600(s0)
    8698:	01074663          	blt	a4,a6,86a4 <.LBB34_652>
    869c:	f8100813          	li	a6,-127
    86a0:	db043423          	sd	a6,-600(s0)

00000000000086a4 <.LBB34_652>:
    86a4:	00001837          	lui	a6,0x1
    86a8:	41040833          	sub	a6,s0,a6
    86ac:	68883803          	ld	a6,1672(a6) # 1688 <.LBB34_3+0x1e8>
    86b0:	00001337          	lui	t1,0x1
    86b4:	40640333          	sub	t1,s0,t1
    86b8:	d0833303          	ld	t1,-760(t1) # d08 <.LBB34_1+0xa00>
    86bc:	03030833          	mul	a6,t1,a6
    86c0:	00001337          	lui	t1,0x1
    86c4:	40640333          	sub	t1,s0,t1
    86c8:	d0033303          	ld	t1,-768(t1) # d00 <.LBB34_1+0x9f8>
    86cc:	01f30333          	add	t1,t1,t6
    86d0:	00680833          	add	a6,a6,t1
    86d4:	42885813          	srai	a6,a6,0x28
    86d8:	d9043c23          	sd	a6,-616(s0)
    86dc:	01074663          	blt	a4,a6,86e8 <.LBB34_654>
    86e0:	f8100813          	li	a6,-127
    86e4:	d9043c23          	sd	a6,-616(s0)

00000000000086e8 <.LBB34_654>:
    86e8:	00001837          	lui	a6,0x1
    86ec:	41040833          	sub	a6,s0,a6
    86f0:	68883803          	ld	a6,1672(a6) # 1688 <.LBB34_3+0x1e8>
    86f4:	00001337          	lui	t1,0x1
    86f8:	40640333          	sub	t1,s0,t1
    86fc:	d8033303          	ld	t1,-640(t1) # d80 <.LBB34_1+0xa78>
    8700:	03030833          	mul	a6,t1,a6
    8704:	95843303          	ld	t1,-1704(s0)
    8708:	01f30333          	add	t1,t1,t6
    870c:	00680833          	add	a6,a6,t1
    8710:	42885813          	srai	a6,a6,0x28
    8714:	d9043423          	sd	a6,-632(s0)
    8718:	01074663          	blt	a4,a6,8724 <.LBB34_656>
    871c:	f8100813          	li	a6,-127
    8720:	d9043423          	sd	a6,-632(s0)

0000000000008724 <.LBB34_656>:
    8724:	00001837          	lui	a6,0x1
    8728:	41040833          	sub	a6,s0,a6
    872c:	68883803          	ld	a6,1672(a6) # 1688 <.LBB34_3+0x1e8>
    8730:	00001337          	lui	t1,0x1
    8734:	40640333          	sub	t1,s0,t1
    8738:	de833303          	ld	t1,-536(t1) # de8 <.LBB34_1+0xae0>
    873c:	03030833          	mul	a6,t1,a6
    8740:	01f08333          	add	t1,ra,t6
    8744:	00680833          	add	a6,a6,t1
    8748:	42885813          	srai	a6,a6,0x28
    874c:	d7043c23          	sd	a6,-648(s0)
    8750:	01074663          	blt	a4,a6,875c <.LBB34_658>
    8754:	f8100813          	li	a6,-127
    8758:	d7043c23          	sd	a6,-648(s0)

000000000000875c <.LBB34_658>:
    875c:	00001837          	lui	a6,0x1
    8760:	41040833          	sub	a6,s0,a6
    8764:	68883803          	ld	a6,1672(a6) # 1688 <.LBB34_3+0x1e8>
    8768:	00001337          	lui	t1,0x1
    876c:	40640333          	sub	t1,s0,t1
    8770:	e5833303          	ld	t1,-424(t1) # e58 <.LBB34_1+0xb50>
    8774:	03030833          	mul	a6,t1,a6
    8778:	94843303          	ld	t1,-1720(s0)
    877c:	01f30333          	add	t1,t1,t6
    8780:	00680833          	add	a6,a6,t1
    8784:	42885813          	srai	a6,a6,0x28
    8788:	d7043423          	sd	a6,-664(s0)
    878c:	01074663          	blt	a4,a6,8798 <.LBB34_660>
    8790:	f8100813          	li	a6,-127
    8794:	d7043423          	sd	a6,-664(s0)

0000000000008798 <.LBB34_660>:
    8798:	00001837          	lui	a6,0x1
    879c:	41040833          	sub	a6,s0,a6
    87a0:	68883803          	ld	a6,1672(a6) # 1688 <.LBB34_3+0x1e8>
    87a4:	00001337          	lui	t1,0x1
    87a8:	40640333          	sub	t1,s0,t1
    87ac:	ec833303          	ld	t1,-312(t1) # ec8 <.LBB34_1+0xbc0>
    87b0:	03030833          	mul	a6,t1,a6
    87b4:	01f48333          	add	t1,s1,t6
    87b8:	00680833          	add	a6,a6,t1
    87bc:	42885813          	srai	a6,a6,0x28
    87c0:	d5043c23          	sd	a6,-680(s0)
    87c4:	01074663          	blt	a4,a6,87d0 <.LBB34_662>
    87c8:	f8100813          	li	a6,-127
    87cc:	d5043c23          	sd	a6,-680(s0)

00000000000087d0 <.LBB34_662>:
    87d0:	00001837          	lui	a6,0x1
    87d4:	41040833          	sub	a6,s0,a6
    87d8:	68883803          	ld	a6,1672(a6) # 1688 <.LBB34_3+0x1e8>
    87dc:	00001337          	lui	t1,0x1
    87e0:	40640333          	sub	t1,s0,t1
    87e4:	f3833303          	ld	t1,-200(t1) # f38 <.LBB34_2+0x3c>
    87e8:	03030833          	mul	a6,t1,a6
    87ec:	93843303          	ld	t1,-1736(s0)
    87f0:	01f30333          	add	t1,t1,t6
    87f4:	00680833          	add	a6,a6,t1
    87f8:	42885813          	srai	a6,a6,0x28
    87fc:	d5043423          	sd	a6,-696(s0)
    8800:	01074663          	blt	a4,a6,880c <.LBB34_664>
    8804:	f8100813          	li	a6,-127
    8808:	d5043423          	sd	a6,-696(s0)

000000000000880c <.LBB34_664>:
    880c:	00001837          	lui	a6,0x1
    8810:	41040833          	sub	a6,s0,a6
    8814:	68883803          	ld	a6,1672(a6) # 1688 <.LBB34_3+0x1e8>
    8818:	00001337          	lui	t1,0x1
    881c:	40640333          	sub	t1,s0,t1
    8820:	fa033303          	ld	t1,-96(t1) # fa0 <.LBB34_2+0xa4>
    8824:	03030833          	mul	a6,t1,a6
    8828:	93043303          	ld	t1,-1744(s0)
    882c:	01f30333          	add	t1,t1,t6
    8830:	00680833          	add	a6,a6,t1
    8834:	42885813          	srai	a6,a6,0x28
    8838:	d3043c23          	sd	a6,-712(s0)
    883c:	01074663          	blt	a4,a6,8848 <.LBB34_666>
    8840:	f8100813          	li	a6,-127
    8844:	d3043c23          	sd	a6,-712(s0)

0000000000008848 <.LBB34_666>:
    8848:	00001837          	lui	a6,0x1
    884c:	41040833          	sub	a6,s0,a6
    8850:	68883803          	ld	a6,1672(a6) # 1688 <.LBB34_3+0x1e8>
    8854:	00001337          	lui	t1,0x1
    8858:	40640333          	sub	t1,s0,t1
    885c:	01833303          	ld	t1,24(t1) # 1018 <.LBB34_2+0x11c>
    8860:	03030833          	mul	a6,t1,a6
    8864:	92843303          	ld	t1,-1752(s0)
    8868:	01f30333          	add	t1,t1,t6
    886c:	00680833          	add	a6,a6,t1
    8870:	42885813          	srai	a6,a6,0x28
    8874:	d3043823          	sd	a6,-720(s0)
    8878:	01074663          	blt	a4,a6,8884 <.LBB34_668>
    887c:	f8100813          	li	a6,-127
    8880:	d3043823          	sd	a6,-720(s0)

0000000000008884 <.LBB34_668>:
    8884:	00001837          	lui	a6,0x1
    8888:	41040833          	sub	a6,s0,a6
    888c:	68883803          	ld	a6,1672(a6) # 1688 <.LBB34_3+0x1e8>
    8890:	00001337          	lui	t1,0x1
    8894:	40640333          	sub	t1,s0,t1
    8898:	08033303          	ld	t1,128(t1) # 1080 <.LBB34_2+0x184>
    889c:	03030833          	mul	a6,t1,a6
    88a0:	92043303          	ld	t1,-1760(s0)
    88a4:	01f30333          	add	t1,t1,t6
    88a8:	00680833          	add	a6,a6,t1
    88ac:	42885813          	srai	a6,a6,0x28
    88b0:	d3043423          	sd	a6,-728(s0)
    88b4:	01074663          	blt	a4,a6,88c0 <.LBB34_670>
    88b8:	f8100813          	li	a6,-127
    88bc:	d3043423          	sd	a6,-728(s0)

00000000000088c0 <.LBB34_670>:
    88c0:	00001837          	lui	a6,0x1
    88c4:	41040833          	sub	a6,s0,a6
    88c8:	68883803          	ld	a6,1672(a6) # 1688 <.LBB34_3+0x1e8>
    88cc:	00001337          	lui	t1,0x1
    88d0:	40640333          	sub	t1,s0,t1
    88d4:	0f833303          	ld	t1,248(t1) # 10f8 <.LBB34_2+0x1fc>
    88d8:	03030833          	mul	a6,t1,a6
    88dc:	91843303          	ld	t1,-1768(s0)
    88e0:	01f30333          	add	t1,t1,t6
    88e4:	00680833          	add	a6,a6,t1
    88e8:	42885813          	srai	a6,a6,0x28
    88ec:	d3043023          	sd	a6,-736(s0)
    88f0:	01074663          	blt	a4,a6,88fc <.LBB34_672>
    88f4:	f8100813          	li	a6,-127
    88f8:	d3043023          	sd	a6,-736(s0)

00000000000088fc <.LBB34_672>:
    88fc:	00001837          	lui	a6,0x1
    8900:	41040833          	sub	a6,s0,a6
    8904:	68883803          	ld	a6,1672(a6) # 1688 <.LBB34_3+0x1e8>
    8908:	00001337          	lui	t1,0x1
    890c:	40640333          	sub	t1,s0,t1
    8910:	16033303          	ld	t1,352(t1) # 1160 <.LBB34_2+0x264>
    8914:	03030833          	mul	a6,t1,a6
    8918:	91043303          	ld	t1,-1776(s0)
    891c:	01f30333          	add	t1,t1,t6
    8920:	00680833          	add	a6,a6,t1
    8924:	42885813          	srai	a6,a6,0x28
    8928:	d1043c23          	sd	a6,-744(s0)
    892c:	01074663          	blt	a4,a6,8938 <.LBB34_674>
    8930:	f8100813          	li	a6,-127
    8934:	d1043c23          	sd	a6,-744(s0)

0000000000008938 <.LBB34_674>:
    8938:	00001837          	lui	a6,0x1
    893c:	41040833          	sub	a6,s0,a6
    8940:	68883803          	ld	a6,1672(a6) # 1688 <.LBB34_3+0x1e8>
    8944:	00001337          	lui	t1,0x1
    8948:	40640333          	sub	t1,s0,t1
    894c:	1c833303          	ld	t1,456(t1) # 11c8 <.LBB34_2+0x2cc>
    8950:	03030833          	mul	a6,t1,a6
    8954:	90843303          	ld	t1,-1784(s0)
    8958:	01f30333          	add	t1,t1,t6
    895c:	00680833          	add	a6,a6,t1
    8960:	42885813          	srai	a6,a6,0x28
    8964:	d1043823          	sd	a6,-752(s0)
    8968:	01074663          	blt	a4,a6,8974 <.LBB34_676>
    896c:	f8100813          	li	a6,-127
    8970:	d1043823          	sd	a6,-752(s0)

0000000000008974 <.LBB34_676>:
    8974:	00001837          	lui	a6,0x1
    8978:	41040833          	sub	a6,s0,a6
    897c:	68883803          	ld	a6,1672(a6) # 1688 <.LBB34_3+0x1e8>
    8980:	00001337          	lui	t1,0x1
    8984:	40640333          	sub	t1,s0,t1
    8988:	23033303          	ld	t1,560(t1) # 1230 <.LBB34_2+0x334>
    898c:	03030833          	mul	a6,t1,a6
    8990:	90043303          	ld	t1,-1792(s0)
    8994:	01f30333          	add	t1,t1,t6
    8998:	00680833          	add	a6,a6,t1
    899c:	42885813          	srai	a6,a6,0x28
    89a0:	d1043423          	sd	a6,-760(s0)
    89a4:	01074663          	blt	a4,a6,89b0 <.LBB34_678>
    89a8:	f8100813          	li	a6,-127
    89ac:	d1043423          	sd	a6,-760(s0)

00000000000089b0 <.LBB34_678>:
    89b0:	00001837          	lui	a6,0x1
    89b4:	41040833          	sub	a6,s0,a6
    89b8:	68883803          	ld	a6,1672(a6) # 1688 <.LBB34_3+0x1e8>
    89bc:	00001337          	lui	t1,0x1
    89c0:	40640333          	sub	t1,s0,t1
    89c4:	28033303          	ld	t1,640(t1) # 1280 <.LBB34_2+0x384>
    89c8:	03030833          	mul	a6,t1,a6
    89cc:	8f843303          	ld	t1,-1800(s0)
    89d0:	01f30333          	add	t1,t1,t6
    89d4:	00680833          	add	a6,a6,t1
    89d8:	42885813          	srai	a6,a6,0x28
    89dc:	d1043023          	sd	a6,-768(s0)
    89e0:	01074663          	blt	a4,a6,89ec <.LBB34_680>
    89e4:	f8100813          	li	a6,-127
    89e8:	d1043023          	sd	a6,-768(s0)

00000000000089ec <.LBB34_680>:
    89ec:	00001837          	lui	a6,0x1
    89f0:	41040833          	sub	a6,s0,a6
    89f4:	68883803          	ld	a6,1672(a6) # 1688 <.LBB34_3+0x1e8>
    89f8:	00001337          	lui	t1,0x1
    89fc:	40640333          	sub	t1,s0,t1
    8a00:	2f033303          	ld	t1,752(t1) # 12f0 <.LBB34_2+0x3f4>
    8a04:	03030833          	mul	a6,t1,a6
    8a08:	00001337          	lui	t1,0x1
    8a0c:	40640333          	sub	t1,s0,t1
    8a10:	2e033303          	ld	t1,736(t1) # 12e0 <.LBB34_2+0x3e4>
    8a14:	01f30333          	add	t1,t1,t6
    8a18:	00680833          	add	a6,a6,t1
    8a1c:	42885813          	srai	a6,a6,0x28
    8a20:	cf043c23          	sd	a6,-776(s0)
    8a24:	01074663          	blt	a4,a6,8a30 <.LBB34_682>
    8a28:	f8100813          	li	a6,-127
    8a2c:	cf043c23          	sd	a6,-776(s0)

0000000000008a30 <.LBB34_682>:
    8a30:	00001837          	lui	a6,0x1
    8a34:	41040833          	sub	a6,s0,a6
    8a38:	68883803          	ld	a6,1672(a6) # 1688 <.LBB34_3+0x1e8>
    8a3c:	00001337          	lui	t1,0x1
    8a40:	40640333          	sub	t1,s0,t1
    8a44:	35833303          	ld	t1,856(t1) # 1358 <.LBB34_2+0x45c>
    8a48:	03030833          	mul	a6,t1,a6
    8a4c:	00001337          	lui	t1,0x1
    8a50:	40640333          	sub	t1,s0,t1
    8a54:	35033303          	ld	t1,848(t1) # 1350 <.LBB34_2+0x454>
    8a58:	01f30333          	add	t1,t1,t6
    8a5c:	00680833          	add	a6,a6,t1
    8a60:	42885813          	srai	a6,a6,0x28
    8a64:	cf043823          	sd	a6,-784(s0)
    8a68:	01074663          	blt	a4,a6,8a74 <.LBB34_684>
    8a6c:	f8100813          	li	a6,-127
    8a70:	cf043823          	sd	a6,-784(s0)

0000000000008a74 <.LBB34_684>:
    8a74:	00001837          	lui	a6,0x1
    8a78:	41040833          	sub	a6,s0,a6
    8a7c:	68883803          	ld	a6,1672(a6) # 1688 <.LBB34_3+0x1e8>
    8a80:	00001337          	lui	t1,0x1
    8a84:	40640333          	sub	t1,s0,t1
    8a88:	3b033303          	ld	t1,944(t1) # 13b0 <.LBB34_2+0x4b4>
    8a8c:	03030833          	mul	a6,t1,a6
    8a90:	01f38333          	add	t1,t2,t6
    8a94:	00680833          	add	a6,a6,t1
    8a98:	42885813          	srai	a6,a6,0x28
    8a9c:	cf043423          	sd	a6,-792(s0)
    8aa0:	01074663          	blt	a4,a6,8aac <.LBB34_686>
    8aa4:	f8100813          	li	a6,-127
    8aa8:	cf043423          	sd	a6,-792(s0)

0000000000008aac <.LBB34_686>:
    8aac:	00001837          	lui	a6,0x1
    8ab0:	41040833          	sub	a6,s0,a6
    8ab4:	68883803          	ld	a6,1672(a6) # 1688 <.LBB34_3+0x1e8>
    8ab8:	00001337          	lui	t1,0x1
    8abc:	40640333          	sub	t1,s0,t1
    8ac0:	41033303          	ld	t1,1040(t1) # 1410 <.LBB34_2+0x514>
    8ac4:	03030833          	mul	a6,t1,a6
    8ac8:	a0843303          	ld	t1,-1528(s0)
    8acc:	01f30333          	add	t1,t1,t6
    8ad0:	00680833          	add	a6,a6,t1
    8ad4:	42885813          	srai	a6,a6,0x28
    8ad8:	cf043023          	sd	a6,-800(s0)
    8adc:	00001337          	lui	t1,0x1
    8ae0:	40640333          	sub	t1,s0,t1
    8ae4:	21033383          	ld	t2,528(t1) # 1210 <.LBB34_2+0x314>
    8ae8:	01074663          	blt	a4,a6,8af4 <.LBB34_688>
    8aec:	f8100813          	li	a6,-127
    8af0:	cf043023          	sd	a6,-800(s0)

0000000000008af4 <.LBB34_688>:
    8af4:	00001837          	lui	a6,0x1
    8af8:	41040833          	sub	a6,s0,a6
    8afc:	68883803          	ld	a6,1672(a6) # 1688 <.LBB34_3+0x1e8>
    8b00:	00001337          	lui	t1,0x1
    8b04:	40640333          	sub	t1,s0,t1
    8b08:	47833303          	ld	t1,1144(t1) # 1478 <.LBB34_2+0x57c>
    8b0c:	03030833          	mul	a6,t1,a6
    8b10:	00001337          	lui	t1,0x1
    8b14:	40640333          	sub	t1,s0,t1
    8b18:	47033303          	ld	t1,1136(t1) # 1470 <.LBB34_2+0x574>
    8b1c:	01f30333          	add	t1,t1,t6
    8b20:	00680833          	add	a6,a6,t1
    8b24:	42885813          	srai	a6,a6,0x28
    8b28:	cd043823          	sd	a6,-816(s0)
    8b2c:	01074663          	blt	a4,a6,8b38 <.LBB34_690>
    8b30:	f8100813          	li	a6,-127
    8b34:	cd043823          	sd	a6,-816(s0)

0000000000008b38 <.LBB34_690>:
    8b38:	00001837          	lui	a6,0x1
    8b3c:	41040833          	sub	a6,s0,a6
    8b40:	68883803          	ld	a6,1672(a6) # 1688 <.LBB34_3+0x1e8>
    8b44:	00001337          	lui	t1,0x1
    8b48:	40640333          	sub	t1,s0,t1
    8b4c:	4d833303          	ld	t1,1240(t1) # 14d8 <.LBB34_3+0x38>
    8b50:	03030833          	mul	a6,t1,a6
    8b54:	8c843303          	ld	t1,-1848(s0)
    8b58:	01f30333          	add	t1,t1,t6
    8b5c:	00680833          	add	a6,a6,t1
    8b60:	42885813          	srai	a6,a6,0x28
    8b64:	cd043023          	sd	a6,-832(s0)
    8b68:	01074663          	blt	a4,a6,8b74 <.LBB34_692>
    8b6c:	f8100813          	li	a6,-127
    8b70:	cd043023          	sd	a6,-832(s0)

0000000000008b74 <.LBB34_692>:
    8b74:	00001837          	lui	a6,0x1
    8b78:	41040833          	sub	a6,s0,a6
    8b7c:	68883803          	ld	a6,1672(a6) # 1688 <.LBB34_3+0x1e8>
    8b80:	00001337          	lui	t1,0x1
    8b84:	40640333          	sub	t1,s0,t1
    8b88:	6e833303          	ld	t1,1768(t1) # 16e8 <.LBB34_3+0x248>
    8b8c:	03030833          	mul	a6,t1,a6
    8b90:	00001337          	lui	t1,0x1
    8b94:	40640333          	sub	t1,s0,t1
    8b98:	6e033303          	ld	t1,1760(t1) # 16e0 <.LBB34_3+0x240>
    8b9c:	01f30333          	add	t1,t1,t6
    8ba0:	00680833          	add	a6,a6,t1
    8ba4:	42885813          	srai	a6,a6,0x28
    8ba8:	cb043823          	sd	a6,-848(s0)
    8bac:	01074663          	blt	a4,a6,8bb8 <.LBB34_694>
    8bb0:	f8100813          	li	a6,-127
    8bb4:	cb043823          	sd	a6,-848(s0)

0000000000008bb8 <.LBB34_694>:
    8bb8:	00001837          	lui	a6,0x1
    8bbc:	41040833          	sub	a6,s0,a6
    8bc0:	68883803          	ld	a6,1672(a6) # 1688 <.LBB34_3+0x1e8>
    8bc4:	00001337          	lui	t1,0x1
    8bc8:	40640333          	sub	t1,s0,t1
    8bcc:	73833303          	ld	t1,1848(t1) # 1738 <.LBB34_3+0x298>
    8bd0:	03030833          	mul	a6,t1,a6
    8bd4:	8b843303          	ld	t1,-1864(s0)
    8bd8:	01f30333          	add	t1,t1,t6
    8bdc:	00680833          	add	a6,a6,t1
    8be0:	42885813          	srai	a6,a6,0x28
    8be4:	cb043023          	sd	a6,-864(s0)
    8be8:	01074663          	blt	a4,a6,8bf4 <.LBB34_696>
    8bec:	f8100813          	li	a6,-127
    8bf0:	cb043023          	sd	a6,-864(s0)

0000000000008bf4 <.LBB34_696>:
    8bf4:	00001837          	lui	a6,0x1
    8bf8:	41040833          	sub	a6,s0,a6
    8bfc:	68883803          	ld	a6,1672(a6) # 1688 <.LBB34_3+0x1e8>
    8c00:	00001337          	lui	t1,0x1
    8c04:	40640333          	sub	t1,s0,t1
    8c08:	7c033303          	ld	t1,1984(t1) # 17c0 <.LBB34_3+0x320>
    8c0c:	03030833          	mul	a6,t1,a6
    8c10:	00001337          	lui	t1,0x1
    8c14:	40640333          	sub	t1,s0,t1
    8c18:	7b833303          	ld	t1,1976(t1) # 17b8 <.LBB34_3+0x318>
    8c1c:	01f30333          	add	t1,t1,t6
    8c20:	00680833          	add	a6,a6,t1
    8c24:	42885813          	srai	a6,a6,0x28
    8c28:	c9043823          	sd	a6,-880(s0)
    8c2c:	01074663          	blt	a4,a6,8c38 <.LBB34_698>
    8c30:	f8100813          	li	a6,-127
    8c34:	c9043823          	sd	a6,-880(s0)

0000000000008c38 <.LBB34_698>:
    8c38:	00001837          	lui	a6,0x1
    8c3c:	41040833          	sub	a6,s0,a6
    8c40:	68883803          	ld	a6,1672(a6) # 1688 <.LBB34_3+0x1e8>
    8c44:	85043303          	ld	t1,-1968(s0)
    8c48:	03030833          	mul	a6,t1,a6
    8c4c:	8a843303          	ld	t1,-1880(s0)
    8c50:	01f30333          	add	t1,t1,t6
    8c54:	00680833          	add	a6,a6,t1
    8c58:	42885813          	srai	a6,a6,0x28
    8c5c:	c9043023          	sd	a6,-896(s0)
    8c60:	01074663          	blt	a4,a6,8c6c <.LBB34_700>
    8c64:	f8100813          	li	a6,-127
    8c68:	c9043023          	sd	a6,-896(s0)

0000000000008c6c <.LBB34_700>:
    8c6c:	00001837          	lui	a6,0x1
    8c70:	41040833          	sub	a6,s0,a6
    8c74:	68883803          	ld	a6,1672(a6) # 1688 <.LBB34_3+0x1e8>
    8c78:	8a043303          	ld	t1,-1888(s0)
    8c7c:	03030833          	mul	a6,t1,a6
    8c80:	94043303          	ld	t1,-1728(s0)
    8c84:	01f30333          	add	t1,t1,t6
    8c88:	00680833          	add	a6,a6,t1
    8c8c:	42885813          	srai	a6,a6,0x28
    8c90:	c7043823          	sd	a6,-912(s0)
    8c94:	01074663          	blt	a4,a6,8ca0 <.LBB34_702>
    8c98:	f8100813          	li	a6,-127
    8c9c:	c7043823          	sd	a6,-912(s0)

0000000000008ca0 <.LBB34_702>:
    8ca0:	00001837          	lui	a6,0x1
    8ca4:	41040833          	sub	a6,s0,a6
    8ca8:	68883803          	ld	a6,1672(a6) # 1688 <.LBB34_3+0x1e8>
    8cac:	88043303          	ld	t1,-1920(s0)
    8cb0:	03030833          	mul	a6,t1,a6
    8cb4:	89843303          	ld	t1,-1896(s0)
    8cb8:	01f30333          	add	t1,t1,t6
    8cbc:	00680833          	add	a6,a6,t1
    8cc0:	42885813          	srai	a6,a6,0x28
    8cc4:	c7043023          	sd	a6,-928(s0)
    8cc8:	01074663          	blt	a4,a6,8cd4 <.LBB34_704>
    8ccc:	f8100813          	li	a6,-127
    8cd0:	c7043023          	sd	a6,-928(s0)

0000000000008cd4 <.LBB34_704>:
    8cd4:	00001837          	lui	a6,0x1
    8cd8:	41040833          	sub	a6,s0,a6
    8cdc:	68883803          	ld	a6,1672(a6) # 1688 <.LBB34_3+0x1e8>
    8ce0:	89043303          	ld	t1,-1904(s0)
    8ce4:	03030833          	mul	a6,t1,a6
    8ce8:	a7043303          	ld	t1,-1424(s0)
    8cec:	01f30333          	add	t1,t1,t6
    8cf0:	00680833          	add	a6,a6,t1
    8cf4:	42885813          	srai	a6,a6,0x28
    8cf8:	c5043823          	sd	a6,-944(s0)
    8cfc:	01074663          	blt	a4,a6,8d08 <.LBB34_706>
    8d00:	f8100813          	li	a6,-127
    8d04:	c5043823          	sd	a6,-944(s0)

0000000000008d08 <.LBB34_706>:
    8d08:	00001837          	lui	a6,0x1
    8d0c:	41040833          	sub	a6,s0,a6
    8d10:	68883803          	ld	a6,1672(a6) # 1688 <.LBB34_3+0x1e8>
    8d14:	88843303          	ld	t1,-1912(s0)
    8d18:	03030833          	mul	a6,t1,a6
    8d1c:	97843303          	ld	t1,-1672(s0)
    8d20:	01f30333          	add	t1,t1,t6
    8d24:	00680833          	add	a6,a6,t1
    8d28:	42885813          	srai	a6,a6,0x28
    8d2c:	c5043023          	sd	a6,-960(s0)
    8d30:	01074663          	blt	a4,a6,8d3c <.LBB34_708>
    8d34:	f8100813          	li	a6,-127
    8d38:	c5043023          	sd	a6,-960(s0)

0000000000008d3c <.LBB34_708>:
    8d3c:	00001837          	lui	a6,0x1
    8d40:	41040833          	sub	a6,s0,a6
    8d44:	68883803          	ld	a6,1672(a6) # 1688 <.LBB34_3+0x1e8>
    8d48:	00001337          	lui	t1,0x1
    8d4c:	40640333          	sub	t1,s0,t1
    8d50:	b4833303          	ld	t1,-1208(t1) # b48 <.LBB34_1+0x840>
    8d54:	03030833          	mul	a6,t1,a6
    8d58:	00001337          	lui	t1,0x1
    8d5c:	40640333          	sub	t1,s0,t1
    8d60:	b4033303          	ld	t1,-1216(t1) # b40 <.LBB34_1+0x838>
    8d64:	01f30333          	add	t1,t1,t6
    8d68:	00680833          	add	a6,a6,t1
    8d6c:	42885813          	srai	a6,a6,0x28
    8d70:	cd043c23          	sd	a6,-808(s0)
    8d74:	01074663          	blt	a4,a6,8d80 <.LBB34_710>
    8d78:	f8100813          	li	a6,-127
    8d7c:	cd043c23          	sd	a6,-808(s0)

0000000000008d80 <.LBB34_710>:
    8d80:	00001837          	lui	a6,0x1
    8d84:	41040833          	sub	a6,s0,a6
    8d88:	68883803          	ld	a6,1672(a6) # 1688 <.LBB34_3+0x1e8>
    8d8c:	00001337          	lui	t1,0x1
    8d90:	40640333          	sub	t1,s0,t1
    8d94:	bb033303          	ld	t1,-1104(t1) # bb0 <.LBB34_1+0x8a8>
    8d98:	03030833          	mul	a6,t1,a6
    8d9c:	00001337          	lui	t1,0x1
    8da0:	40640333          	sub	t1,s0,t1
    8da4:	ba833303          	ld	t1,-1112(t1) # ba8 <.LBB34_1+0x8a0>
    8da8:	01f30333          	add	t1,t1,t6
    8dac:	00680833          	add	a6,a6,t1
    8db0:	42885813          	srai	a6,a6,0x28
    8db4:	cd043423          	sd	a6,-824(s0)
    8db8:	01074663          	blt	a4,a6,8dc4 <.LBB34_712>
    8dbc:	f8100813          	li	a6,-127
    8dc0:	cd043423          	sd	a6,-824(s0)

0000000000008dc4 <.LBB34_712>:
    8dc4:	00001837          	lui	a6,0x1
    8dc8:	41040833          	sub	a6,s0,a6
    8dcc:	68883803          	ld	a6,1672(a6) # 1688 <.LBB34_3+0x1e8>
    8dd0:	00001337          	lui	t1,0x1
    8dd4:	40640333          	sub	t1,s0,t1
    8dd8:	c1833303          	ld	t1,-1000(t1) # c18 <.LBB34_1+0x910>
    8ddc:	03030833          	mul	a6,t1,a6
    8de0:	b4043303          	ld	t1,-1216(s0)
    8de4:	01f30333          	add	t1,t1,t6
    8de8:	00680833          	add	a6,a6,t1
    8dec:	42885813          	srai	a6,a6,0x28
    8df0:	cb043c23          	sd	a6,-840(s0)
    8df4:	01074663          	blt	a4,a6,8e00 <.LBB34_714>
    8df8:	f8100813          	li	a6,-127
    8dfc:	cb043c23          	sd	a6,-840(s0)

0000000000008e00 <.LBB34_714>:
    8e00:	00001837          	lui	a6,0x1
    8e04:	41040833          	sub	a6,s0,a6
    8e08:	68883803          	ld	a6,1672(a6) # 1688 <.LBB34_3+0x1e8>
    8e0c:	00001337          	lui	t1,0x1
    8e10:	40640333          	sub	t1,s0,t1
    8e14:	c8033303          	ld	t1,-896(t1) # c80 <.LBB34_1+0x978>
    8e18:	03030833          	mul	a6,t1,a6
    8e1c:	00001337          	lui	t1,0x1
    8e20:	40640333          	sub	t1,s0,t1
    8e24:	c7833303          	ld	t1,-904(t1) # c78 <.LBB34_1+0x970>
    8e28:	01f30333          	add	t1,t1,t6
    8e2c:	00680833          	add	a6,a6,t1
    8e30:	42885813          	srai	a6,a6,0x28
    8e34:	cb043423          	sd	a6,-856(s0)
    8e38:	01074663          	blt	a4,a6,8e44 <.LBB34_716>
    8e3c:	f8100813          	li	a6,-127
    8e40:	cb043423          	sd	a6,-856(s0)

0000000000008e44 <.LBB34_716>:
    8e44:	00001837          	lui	a6,0x1
    8e48:	41040833          	sub	a6,s0,a6
    8e4c:	68883803          	ld	a6,1672(a6) # 1688 <.LBB34_3+0x1e8>
    8e50:	00001337          	lui	t1,0x1
    8e54:	40640333          	sub	t1,s0,t1
    8e58:	cf833303          	ld	t1,-776(t1) # cf8 <.LBB34_1+0x9f0>
    8e5c:	03030833          	mul	a6,t1,a6
    8e60:	00001337          	lui	t1,0x1
    8e64:	40640333          	sub	t1,s0,t1
    8e68:	cf033303          	ld	t1,-784(t1) # cf0 <.LBB34_1+0x9e8>
    8e6c:	01f30333          	add	t1,t1,t6
    8e70:	00680833          	add	a6,a6,t1
    8e74:	42885813          	srai	a6,a6,0x28
    8e78:	c9043c23          	sd	a6,-872(s0)
    8e7c:	01074663          	blt	a4,a6,8e88 <.LBB34_718>
    8e80:	f8100813          	li	a6,-127
    8e84:	c9043c23          	sd	a6,-872(s0)

0000000000008e88 <.LBB34_718>:
    8e88:	00001837          	lui	a6,0x1
    8e8c:	41040833          	sub	a6,s0,a6
    8e90:	68883803          	ld	a6,1672(a6) # 1688 <.LBB34_3+0x1e8>
    8e94:	00001337          	lui	t1,0x1
    8e98:	40640333          	sub	t1,s0,t1
    8e9c:	d7833303          	ld	t1,-648(t1) # d78 <.LBB34_1+0xa70>
    8ea0:	03030833          	mul	a6,t1,a6
    8ea4:	00001337          	lui	t1,0x1
    8ea8:	40640333          	sub	t1,s0,t1
    8eac:	d7033303          	ld	t1,-656(t1) # d70 <.LBB34_1+0xa68>
    8eb0:	01f30333          	add	t1,t1,t6
    8eb4:	00680833          	add	a6,a6,t1
    8eb8:	42885813          	srai	a6,a6,0x28
    8ebc:	c9043423          	sd	a6,-888(s0)
    8ec0:	01074663          	blt	a4,a6,8ecc <.LBB34_720>
    8ec4:	f8100813          	li	a6,-127
    8ec8:	c9043423          	sd	a6,-888(s0)

0000000000008ecc <.LBB34_720>:
    8ecc:	00001837          	lui	a6,0x1
    8ed0:	41040833          	sub	a6,s0,a6
    8ed4:	68883803          	ld	a6,1672(a6) # 1688 <.LBB34_3+0x1e8>
    8ed8:	00001337          	lui	t1,0x1
    8edc:	40640333          	sub	t1,s0,t1
    8ee0:	de033303          	ld	t1,-544(t1) # de0 <.LBB34_1+0xad8>
    8ee4:	03030833          	mul	a6,t1,a6
    8ee8:	a5043303          	ld	t1,-1456(s0)
    8eec:	01f30333          	add	t1,t1,t6
    8ef0:	00680833          	add	a6,a6,t1
    8ef4:	42885813          	srai	a6,a6,0x28
    8ef8:	c7043c23          	sd	a6,-904(s0)
    8efc:	01074663          	blt	a4,a6,8f08 <.LBB34_722>
    8f00:	f8100813          	li	a6,-127
    8f04:	c7043c23          	sd	a6,-904(s0)

0000000000008f08 <.LBB34_722>:
    8f08:	00001837          	lui	a6,0x1
    8f0c:	41040833          	sub	a6,s0,a6
    8f10:	68883803          	ld	a6,1672(a6) # 1688 <.LBB34_3+0x1e8>
    8f14:	00001337          	lui	t1,0x1
    8f18:	40640333          	sub	t1,s0,t1
    8f1c:	e5033303          	ld	t1,-432(t1) # e50 <.LBB34_1+0xb48>
    8f20:	03030833          	mul	a6,t1,a6
    8f24:	00001337          	lui	t1,0x1
    8f28:	40640333          	sub	t1,s0,t1
    8f2c:	e4833303          	ld	t1,-440(t1) # e48 <.LBB34_1+0xb40>
    8f30:	01f30333          	add	t1,t1,t6
    8f34:	00680833          	add	a6,a6,t1
    8f38:	42885813          	srai	a6,a6,0x28
    8f3c:	c7043423          	sd	a6,-920(s0)
    8f40:	01074663          	blt	a4,a6,8f4c <.LBB34_724>
    8f44:	f8100813          	li	a6,-127
    8f48:	c7043423          	sd	a6,-920(s0)

0000000000008f4c <.LBB34_724>:
    8f4c:	00001837          	lui	a6,0x1
    8f50:	41040833          	sub	a6,s0,a6
    8f54:	68883803          	ld	a6,1672(a6) # 1688 <.LBB34_3+0x1e8>
    8f58:	00001337          	lui	t1,0x1
    8f5c:	40640333          	sub	t1,s0,t1
    8f60:	ec033303          	ld	t1,-320(t1) # ec0 <.LBB34_1+0xbb8>
    8f64:	03030833          	mul	a6,t1,a6
    8f68:	00001337          	lui	t1,0x1
    8f6c:	40640333          	sub	t1,s0,t1
    8f70:	eb833303          	ld	t1,-328(t1) # eb8 <.LBB34_1+0xbb0>
    8f74:	01f30333          	add	t1,t1,t6
    8f78:	00680833          	add	a6,a6,t1
    8f7c:	42885813          	srai	a6,a6,0x28
    8f80:	c5043c23          	sd	a6,-936(s0)
    8f84:	01074663          	blt	a4,a6,8f90 <.LBB34_726>
    8f88:	f8100813          	li	a6,-127
    8f8c:	c5043c23          	sd	a6,-936(s0)

0000000000008f90 <.LBB34_726>:
    8f90:	00001837          	lui	a6,0x1
    8f94:	41040833          	sub	a6,s0,a6
    8f98:	68883803          	ld	a6,1672(a6) # 1688 <.LBB34_3+0x1e8>
    8f9c:	00001337          	lui	t1,0x1
    8fa0:	40640333          	sub	t1,s0,t1
    8fa4:	f3033303          	ld	t1,-208(t1) # f30 <.LBB34_2+0x34>
    8fa8:	03030833          	mul	a6,t1,a6
    8fac:	00001337          	lui	t1,0x1
    8fb0:	40640333          	sub	t1,s0,t1
    8fb4:	f2833303          	ld	t1,-216(t1) # f28 <.LBB34_2+0x2c>
    8fb8:	01f30333          	add	t1,t1,t6
    8fbc:	00680833          	add	a6,a6,t1
    8fc0:	42885813          	srai	a6,a6,0x28
    8fc4:	c5043423          	sd	a6,-952(s0)
    8fc8:	01074663          	blt	a4,a6,8fd4 <.LBB34_728>
    8fcc:	f8100813          	li	a6,-127
    8fd0:	c5043423          	sd	a6,-952(s0)

0000000000008fd4 <.LBB34_728>:
    8fd4:	00001837          	lui	a6,0x1
    8fd8:	41040833          	sub	a6,s0,a6
    8fdc:	68883803          	ld	a6,1672(a6) # 1688 <.LBB34_3+0x1e8>
    8fe0:	00001337          	lui	t1,0x1
    8fe4:	40640333          	sub	t1,s0,t1
    8fe8:	f9833303          	ld	t1,-104(t1) # f98 <.LBB34_2+0x9c>
    8fec:	03030833          	mul	a6,t1,a6
    8ff0:	00001337          	lui	t1,0x1
    8ff4:	40640333          	sub	t1,s0,t1
    8ff8:	f9033303          	ld	t1,-112(t1) # f90 <.LBB34_2+0x94>
    8ffc:	01f30333          	add	t1,t1,t6
    9000:	00680833          	add	a6,a6,t1
    9004:	42885813          	srai	a6,a6,0x28
    9008:	c3043c23          	sd	a6,-968(s0)
    900c:	01074663          	blt	a4,a6,9018 <.LBB34_730>
    9010:	f8100813          	li	a6,-127
    9014:	c3043c23          	sd	a6,-968(s0)

0000000000009018 <.LBB34_730>:
    9018:	00001837          	lui	a6,0x1
    901c:	41040833          	sub	a6,s0,a6
    9020:	68883803          	ld	a6,1672(a6) # 1688 <.LBB34_3+0x1e8>
    9024:	00001337          	lui	t1,0x1
    9028:	40640333          	sub	t1,s0,t1
    902c:	01033303          	ld	t1,16(t1) # 1010 <.LBB34_2+0x114>
    9030:	03030833          	mul	a6,t1,a6
    9034:	00001337          	lui	t1,0x1
    9038:	40640333          	sub	t1,s0,t1
    903c:	00833303          	ld	t1,8(t1) # 1008 <.LBB34_2+0x10c>
    9040:	01f30333          	add	t1,t1,t6
    9044:	00680833          	add	a6,a6,t1
    9048:	42885813          	srai	a6,a6,0x28
    904c:	c3043823          	sd	a6,-976(s0)
    9050:	01074663          	blt	a4,a6,905c <.LBB34_732>
    9054:	f8100813          	li	a6,-127
    9058:	c3043823          	sd	a6,-976(s0)

000000000000905c <.LBB34_732>:
    905c:	00001837          	lui	a6,0x1
    9060:	41040833          	sub	a6,s0,a6
    9064:	68883803          	ld	a6,1672(a6) # 1688 <.LBB34_3+0x1e8>
    9068:	00001337          	lui	t1,0x1
    906c:	40640333          	sub	t1,s0,t1
    9070:	07833303          	ld	t1,120(t1) # 1078 <.LBB34_2+0x17c>
    9074:	03030833          	mul	a6,t1,a6
    9078:	00001337          	lui	t1,0x1
    907c:	40640333          	sub	t1,s0,t1
    9080:	07033303          	ld	t1,112(t1) # 1070 <.LBB34_2+0x174>
    9084:	01f30333          	add	t1,t1,t6
    9088:	00680833          	add	a6,a6,t1
    908c:	42885813          	srai	a6,a6,0x28
    9090:	c3043423          	sd	a6,-984(s0)
    9094:	01074663          	blt	a4,a6,90a0 <.LBB34_734>
    9098:	f8100813          	li	a6,-127
    909c:	c3043423          	sd	a6,-984(s0)

00000000000090a0 <.LBB34_734>:
    90a0:	00001837          	lui	a6,0x1
    90a4:	41040833          	sub	a6,s0,a6
    90a8:	68883803          	ld	a6,1672(a6) # 1688 <.LBB34_3+0x1e8>
    90ac:	00001337          	lui	t1,0x1
    90b0:	40640333          	sub	t1,s0,t1
    90b4:	0f033303          	ld	t1,240(t1) # 10f0 <.LBB34_2+0x1f4>
    90b8:	03030833          	mul	a6,t1,a6
    90bc:	00001337          	lui	t1,0x1
    90c0:	40640333          	sub	t1,s0,t1
    90c4:	0e833303          	ld	t1,232(t1) # 10e8 <.LBB34_2+0x1ec>
    90c8:	01f30333          	add	t1,t1,t6
    90cc:	00680833          	add	a6,a6,t1
    90d0:	42885813          	srai	a6,a6,0x28
    90d4:	c3043023          	sd	a6,-992(s0)
    90d8:	01074663          	blt	a4,a6,90e4 <.LBB34_736>
    90dc:	f8100813          	li	a6,-127
    90e0:	c3043023          	sd	a6,-992(s0)

00000000000090e4 <.LBB34_736>:
    90e4:	00001837          	lui	a6,0x1
    90e8:	41040833          	sub	a6,s0,a6
    90ec:	68883803          	ld	a6,1672(a6) # 1688 <.LBB34_3+0x1e8>
    90f0:	00001337          	lui	t1,0x1
    90f4:	40640333          	sub	t1,s0,t1
    90f8:	15833303          	ld	t1,344(t1) # 1158 <.LBB34_2+0x25c>
    90fc:	03030833          	mul	a6,t1,a6
    9100:	00001337          	lui	t1,0x1
    9104:	40640333          	sub	t1,s0,t1
    9108:	15033303          	ld	t1,336(t1) # 1150 <.LBB34_2+0x254>
    910c:	01f30333          	add	t1,t1,t6
    9110:	00680833          	add	a6,a6,t1
    9114:	42885813          	srai	a6,a6,0x28
    9118:	c1043c23          	sd	a6,-1000(s0)
    911c:	01074663          	blt	a4,a6,9128 <.LBB34_738>
    9120:	f8100813          	li	a6,-127
    9124:	c1043c23          	sd	a6,-1000(s0)

0000000000009128 <.LBB34_738>:
    9128:	00001837          	lui	a6,0x1
    912c:	41040833          	sub	a6,s0,a6
    9130:	68883803          	ld	a6,1672(a6) # 1688 <.LBB34_3+0x1e8>
    9134:	00001337          	lui	t1,0x1
    9138:	40640333          	sub	t1,s0,t1
    913c:	1b833303          	ld	t1,440(t1) # 11b8 <.LBB34_2+0x2bc>
    9140:	03030833          	mul	a6,t1,a6
    9144:	01f78333          	add	t1,a5,t6
    9148:	00680833          	add	a6,a6,t1
    914c:	42885813          	srai	a6,a6,0x28
    9150:	c1043823          	sd	a6,-1008(s0)
    9154:	01074663          	blt	a4,a6,9160 <.LBB34_740>
    9158:	f8100813          	li	a6,-127
    915c:	c1043823          	sd	a6,-1008(s0)

0000000000009160 <.LBB34_740>:
    9160:	000017b7          	lui	a5,0x1
    9164:	40f407b3          	sub	a5,s0,a5
    9168:	6887b803          	ld	a6,1672(a5) # 1688 <.LBB34_3+0x1e8>
    916c:	000017b7          	lui	a5,0x1
    9170:	40f407b3          	sub	a5,s0,a5
    9174:	2207b303          	ld	t1,544(a5) # 1220 <.LBB34_2+0x324>
    9178:	03030833          	mul	a6,t1,a6
    917c:	01f38333          	add	t1,t2,t6
    9180:	00680833          	add	a6,a6,t1
    9184:	42885813          	srai	a6,a6,0x28
    9188:	c1043423          	sd	a6,-1016(s0)
    918c:	01074663          	blt	a4,a6,9198 <.LBB34_742>
    9190:	f8100813          	li	a6,-127
    9194:	c1043423          	sd	a6,-1016(s0)

0000000000009198 <.LBB34_742>:
    9198:	000017b7          	lui	a5,0x1
    919c:	40f407b3          	sub	a5,s0,a5
    91a0:	6887b803          	ld	a6,1672(a5) # 1688 <.LBB34_3+0x1e8>
    91a4:	000017b7          	lui	a5,0x1
    91a8:	40f407b3          	sub	a5,s0,a5
    91ac:	2707b303          	ld	t1,624(a5) # 1270 <.LBB34_2+0x374>
    91b0:	03030833          	mul	a6,t1,a6
    91b4:	000017b7          	lui	a5,0x1
    91b8:	40f407b3          	sub	a5,s0,a5
    91bc:	2687b303          	ld	t1,616(a5) # 1268 <.LBB34_2+0x36c>
    91c0:	01f30333          	add	t1,t1,t6
    91c4:	00680833          	add	a6,a6,t1
    91c8:	42885813          	srai	a6,a6,0x28
    91cc:	c1043023          	sd	a6,-1024(s0)
    91d0:	01074663          	blt	a4,a6,91dc <.LBB34_744>
    91d4:	f8100813          	li	a6,-127
    91d8:	c1043023          	sd	a6,-1024(s0)

00000000000091dc <.LBB34_744>:
    91dc:	000017b7          	lui	a5,0x1
    91e0:	40f407b3          	sub	a5,s0,a5
    91e4:	6887b803          	ld	a6,1672(a5) # 1688 <.LBB34_3+0x1e8>
    91e8:	000017b7          	lui	a5,0x1
    91ec:	40f407b3          	sub	a5,s0,a5
    91f0:	2d87b303          	ld	t1,728(a5) # 12d8 <.LBB34_2+0x3dc>
    91f4:	03030833          	mul	a6,t1,a6
    91f8:	01fb8333          	add	t1,s7,t6
    91fc:	00680833          	add	a6,a6,t1
    9200:	42885813          	srai	a6,a6,0x28
    9204:	bf043c23          	sd	a6,-1032(s0)
    9208:	01074663          	blt	a4,a6,9214 <.LBB34_746>
    920c:	f8100813          	li	a6,-127
    9210:	bf043c23          	sd	a6,-1032(s0)

0000000000009214 <.LBB34_746>:
    9214:	000017b7          	lui	a5,0x1
    9218:	40f407b3          	sub	a5,s0,a5
    921c:	6887b803          	ld	a6,1672(a5) # 1688 <.LBB34_3+0x1e8>
    9220:	000017b7          	lui	a5,0x1
    9224:	40f407b3          	sub	a5,s0,a5
    9228:	3487b303          	ld	t1,840(a5) # 1348 <.LBB34_2+0x44c>
    922c:	03030833          	mul	a6,t1,a6
    9230:	000017b7          	lui	a5,0x1
    9234:	40f407b3          	sub	a5,s0,a5
    9238:	3407b303          	ld	t1,832(a5) # 1340 <.LBB34_2+0x444>
    923c:	01f30333          	add	t1,t1,t6
    9240:	00680833          	add	a6,a6,t1
    9244:	42885813          	srai	a6,a6,0x28
    9248:	bf043823          	sd	a6,-1040(s0)
    924c:	01074663          	blt	a4,a6,9258 <.LBB34_748>
    9250:	f8100813          	li	a6,-127
    9254:	bf043823          	sd	a6,-1040(s0)

0000000000009258 <.LBB34_748>:
    9258:	000017b7          	lui	a5,0x1
    925c:	40f407b3          	sub	a5,s0,a5
    9260:	6887b803          	ld	a6,1672(a5) # 1688 <.LBB34_3+0x1e8>
    9264:	000017b7          	lui	a5,0x1
    9268:	40f407b3          	sub	a5,s0,a5
    926c:	3a87b303          	ld	t1,936(a5) # 13a8 <.LBB34_2+0x4ac>
    9270:	03030833          	mul	a6,t1,a6
    9274:	9e043303          	ld	t1,-1568(s0)
    9278:	01f30333          	add	t1,t1,t6
    927c:	00680833          	add	a6,a6,t1
    9280:	42885813          	srai	a6,a6,0x28
    9284:	bf043423          	sd	a6,-1048(s0)
    9288:	01074663          	blt	a4,a6,9294 <.LBB34_750>
    928c:	f8100813          	li	a6,-127
    9290:	bf043423          	sd	a6,-1048(s0)

0000000000009294 <.LBB34_750>:
    9294:	000017b7          	lui	a5,0x1
    9298:	40f407b3          	sub	a5,s0,a5
    929c:	6887b803          	ld	a6,1672(a5) # 1688 <.LBB34_3+0x1e8>
    92a0:	000017b7          	lui	a5,0x1
    92a4:	40f407b3          	sub	a5,s0,a5
    92a8:	4087b303          	ld	t1,1032(a5) # 1408 <.LBB34_2+0x50c>
    92ac:	03030833          	mul	a6,t1,a6
    92b0:	9d843303          	ld	t1,-1576(s0)
    92b4:	01f30333          	add	t1,t1,t6
    92b8:	00680833          	add	a6,a6,t1
    92bc:	42885813          	srai	a6,a6,0x28
    92c0:	bf043023          	sd	a6,-1056(s0)
    92c4:	01074663          	blt	a4,a6,92d0 <.LBB34_752>
    92c8:	f8100813          	li	a6,-127
    92cc:	bf043023          	sd	a6,-1056(s0)

00000000000092d0 <.LBB34_752>:
    92d0:	000017b7          	lui	a5,0x1
    92d4:	40f407b3          	sub	a5,s0,a5
    92d8:	6887b803          	ld	a6,1672(a5) # 1688 <.LBB34_3+0x1e8>
    92dc:	000017b7          	lui	a5,0x1
    92e0:	40f407b3          	sub	a5,s0,a5
    92e4:	4687b303          	ld	t1,1128(a5) # 1468 <.LBB34_2+0x56c>
    92e8:	03030833          	mul	a6,t1,a6
    92ec:	9d043303          	ld	t1,-1584(s0)
    92f0:	01f30333          	add	t1,t1,t6
    92f4:	00680833          	add	a6,a6,t1
    92f8:	42885813          	srai	a6,a6,0x28
    92fc:	bd043823          	sd	a6,-1072(s0)
    9300:	01074663          	blt	a4,a6,930c <.LBB34_754>
    9304:	f8100813          	li	a6,-127
    9308:	bd043823          	sd	a6,-1072(s0)

000000000000930c <.LBB34_754>:
    930c:	000017b7          	lui	a5,0x1
    9310:	40f407b3          	sub	a5,s0,a5
    9314:	6887b803          	ld	a6,1672(a5) # 1688 <.LBB34_3+0x1e8>
    9318:	000017b7          	lui	a5,0x1
    931c:	40f407b3          	sub	a5,s0,a5
    9320:	4d07b303          	ld	t1,1232(a5) # 14d0 <.LBB34_3+0x30>
    9324:	03030833          	mul	a6,t1,a6
    9328:	b1043303          	ld	t1,-1264(s0)
    932c:	01f30333          	add	t1,t1,t6
    9330:	00680833          	add	a6,a6,t1
    9334:	42885813          	srai	a6,a6,0x28
    9338:	bd043023          	sd	a6,-1088(s0)
    933c:	01074663          	blt	a4,a6,9348 <.LBB34_756>
    9340:	f8100813          	li	a6,-127
    9344:	bd043023          	sd	a6,-1088(s0)

0000000000009348 <.LBB34_756>:
    9348:	000017b7          	lui	a5,0x1
    934c:	40f407b3          	sub	a5,s0,a5
    9350:	6887b803          	ld	a6,1672(a5) # 1688 <.LBB34_3+0x1e8>
    9354:	000017b7          	lui	a5,0x1
    9358:	40f407b3          	sub	a5,s0,a5
    935c:	6d87b303          	ld	t1,1752(a5) # 16d8 <.LBB34_3+0x238>
    9360:	03030833          	mul	a6,t1,a6
    9364:	9c043303          	ld	t1,-1600(s0)
    9368:	01f30333          	add	t1,t1,t6
    936c:	00680833          	add	a6,a6,t1
    9370:	42885813          	srai	a6,a6,0x28
    9374:	bb043823          	sd	a6,-1104(s0)
    9378:	01074663          	blt	a4,a6,9384 <.LBB34_758>
    937c:	f8100813          	li	a6,-127
    9380:	bb043823          	sd	a6,-1104(s0)

0000000000009384 <.LBB34_758>:
    9384:	000017b7          	lui	a5,0x1
    9388:	40f407b3          	sub	a5,s0,a5
    938c:	6887b803          	ld	a6,1672(a5) # 1688 <.LBB34_3+0x1e8>
    9390:	000017b7          	lui	a5,0x1
    9394:	40f407b3          	sub	a5,s0,a5
    9398:	7307b303          	ld	t1,1840(a5) # 1730 <.LBB34_3+0x290>
    939c:	03030833          	mul	a6,t1,a6
    93a0:	01fe8333          	add	t1,t4,t6
    93a4:	00680833          	add	a6,a6,t1
    93a8:	42885813          	srai	a6,a6,0x28
    93ac:	bb043023          	sd	a6,-1120(s0)
    93b0:	01074663          	blt	a4,a6,93bc <.LBB34_760>
    93b4:	f8100813          	li	a6,-127
    93b8:	bb043023          	sd	a6,-1120(s0)

00000000000093bc <.LBB34_760>:
    93bc:	000017b7          	lui	a5,0x1
    93c0:	40f407b3          	sub	a5,s0,a5
    93c4:	6887b803          	ld	a6,1672(a5) # 1688 <.LBB34_3+0x1e8>
    93c8:	000017b7          	lui	a5,0x1
    93cc:	40f407b3          	sub	a5,s0,a5
    93d0:	7807b303          	ld	t1,1920(a5) # 1780 <.LBB34_3+0x2e0>
    93d4:	03030833          	mul	a6,t1,a6
    93d8:	9b043303          	ld	t1,-1616(s0)
    93dc:	01f30333          	add	t1,t1,t6
    93e0:	00680833          	add	a6,a6,t1
    93e4:	42885813          	srai	a6,a6,0x28
    93e8:	b9043823          	sd	a6,-1136(s0)
    93ec:	00090393          	mv	t2,s2
    93f0:	000017b7          	lui	a5,0x1
    93f4:	40f407b3          	sub	a5,s0,a5
    93f8:	e407be03          	ld	t3,-448(a5) # e40 <.LBB34_1+0xb38>
    93fc:	000017b7          	lui	a5,0x1
    9400:	40f407b3          	sub	a5,s0,a5
    9404:	d607be83          	ld	t4,-672(a5) # d60 <.LBB34_1+0xa58>
    9408:	01074663          	blt	a4,a6,9414 <.LBB34_762>
    940c:	f8100813          	li	a6,-127
    9410:	b9043823          	sd	a6,-1136(s0)

0000000000009414 <.LBB34_762>:
    9414:	000017b7          	lui	a5,0x1
    9418:	40f407b3          	sub	a5,s0,a5
    941c:	6887b803          	ld	a6,1672(a5) # 1688 <.LBB34_3+0x1e8>
    9420:	84843303          	ld	t1,-1976(s0)
    9424:	03030833          	mul	a6,t1,a6
    9428:	ae843303          	ld	t1,-1304(s0)
    942c:	01f30333          	add	t1,t1,t6
    9430:	00680833          	add	a6,a6,t1
    9434:	42885813          	srai	a6,a6,0x28
    9438:	b9043023          	sd	a6,-1152(s0)
    943c:	01074663          	blt	a4,a6,9448 <.LBB34_764>
    9440:	f8100813          	li	a6,-127
    9444:	b9043023          	sd	a6,-1152(s0)

0000000000009448 <.LBB34_764>:
    9448:	000017b7          	lui	a5,0x1
    944c:	40f407b3          	sub	a5,s0,a5
    9450:	6887b803          	ld	a6,1672(a5) # 1688 <.LBB34_3+0x1e8>
    9454:	8f043303          	ld	t1,-1808(s0)
    9458:	03030833          	mul	a6,t1,a6
    945c:	9a043303          	ld	t1,-1632(s0)
    9460:	01f30333          	add	t1,t1,t6
    9464:	00680833          	add	a6,a6,t1
    9468:	42885813          	srai	a6,a6,0x28
    946c:	b7043823          	sd	a6,-1168(s0)
    9470:	01074663          	blt	a4,a6,947c <.LBB34_766>
    9474:	f8100813          	li	a6,-127
    9478:	b7043823          	sd	a6,-1168(s0)

000000000000947c <.LBB34_766>:
    947c:	000017b7          	lui	a5,0x1
    9480:	40f407b3          	sub	a5,s0,a5
    9484:	6887b803          	ld	a6,1672(a5) # 1688 <.LBB34_3+0x1e8>
    9488:	99843303          	ld	t1,-1640(s0)
    948c:	03030833          	mul	a6,t1,a6
    9490:	b6843303          	ld	t1,-1176(s0)
    9494:	01f30333          	add	t1,t1,t6
    9498:	00680833          	add	a6,a6,t1
    949c:	42885813          	srai	a6,a6,0x28
    94a0:	b7043023          	sd	a6,-1184(s0)
    94a4:	01074663          	blt	a4,a6,94b0 <.LBB34_768>
    94a8:	f8100813          	li	a6,-127
    94ac:	b7043023          	sd	a6,-1184(s0)

00000000000094b0 <.LBB34_768>:
    94b0:	000017b7          	lui	a5,0x1
    94b4:	40f407b3          	sub	a5,s0,a5
    94b8:	6887b803          	ld	a6,1672(a5) # 1688 <.LBB34_3+0x1e8>
    94bc:	98043303          	ld	t1,-1664(s0)
    94c0:	03030833          	mul	a6,t1,a6
    94c4:	99043303          	ld	t1,-1648(s0)
    94c8:	01f30333          	add	t1,t1,t6
    94cc:	00680833          	add	a6,a6,t1
    94d0:	42885813          	srai	a6,a6,0x28
    94d4:	b5043823          	sd	a6,-1200(s0)
    94d8:	01074663          	blt	a4,a6,94e4 <.LBB34_770>
    94dc:	f8100813          	li	a6,-127
    94e0:	b5043823          	sd	a6,-1200(s0)

00000000000094e4 <.LBB34_770>:
    94e4:	000017b7          	lui	a5,0x1
    94e8:	40f407b3          	sub	a5,s0,a5
    94ec:	6887b803          	ld	a6,1672(a5) # 1688 <.LBB34_3+0x1e8>
    94f0:	98843303          	ld	t1,-1656(s0)
    94f4:	03030833          	mul	a6,t1,a6
    94f8:	a7843303          	ld	t1,-1416(s0)
    94fc:	01f30333          	add	t1,t1,t6
    9500:	00680833          	add	a6,a6,t1
    9504:	42885813          	srai	a6,a6,0x28
    9508:	b5043023          	sd	a6,-1216(s0)
    950c:	01074663          	blt	a4,a6,9518 <.LBB34_772>
    9510:	f8100813          	li	a6,-127
    9514:	b5043023          	sd	a6,-1216(s0)

0000000000009518 <.LBB34_772>:
    9518:	000017b7          	lui	a5,0x1
    951c:	40f407b3          	sub	a5,s0,a5
    9520:	6887b803          	ld	a6,1672(a5) # 1688 <.LBB34_3+0x1e8>
    9524:	000017b7          	lui	a5,0x1
    9528:	40f407b3          	sub	a5,s0,a5
    952c:	b387b783          	ld	a5,-1224(a5) # b38 <.LBB34_1+0x830>
    9530:	03078833          	mul	a6,a5,a6
    9534:	000017b7          	lui	a5,0x1
    9538:	40f407b3          	sub	a5,s0,a5
    953c:	b307b303          	ld	t1,-1232(a5) # b30 <.LBB34_1+0x828>
    9540:	01f30333          	add	t1,t1,t6
    9544:	00680833          	add	a6,a6,t1
    9548:	42885813          	srai	a6,a6,0x28
    954c:	bd043c23          	sd	a6,-1064(s0)
    9550:	01074663          	blt	a4,a6,955c <.LBB34_774>
    9554:	f8100813          	li	a6,-127
    9558:	bd043c23          	sd	a6,-1064(s0)

000000000000955c <.LBB34_774>:
    955c:	000017b7          	lui	a5,0x1
    9560:	40f407b3          	sub	a5,s0,a5
    9564:	6887b803          	ld	a6,1672(a5) # 1688 <.LBB34_3+0x1e8>
    9568:	b7843783          	ld	a5,-1160(s0)
    956c:	03078833          	mul	a6,a5,a6
    9570:	01fa0333          	add	t1,s4,t6
    9574:	00680833          	add	a6,a6,t1
    9578:	42885813          	srai	a6,a6,0x28
    957c:	bd043423          	sd	a6,-1080(s0)
    9580:	ad843903          	ld	s2,-1320(s0)
    9584:	01074663          	blt	a4,a6,9590 <.LBB34_776>
    9588:	f8100813          	li	a6,-127
    958c:	bd043423          	sd	a6,-1080(s0)

0000000000009590 <.LBB34_776>:
    9590:	000017b7          	lui	a5,0x1
    9594:	40f407b3          	sub	a5,s0,a5
    9598:	6887b303          	ld	t1,1672(a5) # 1688 <.LBB34_3+0x1e8>
    959c:	000017b7          	lui	a5,0x1
    95a0:	40f407b3          	sub	a5,s0,a5
    95a4:	c107b783          	ld	a5,-1008(a5) # c10 <.LBB34_1+0x908>
    95a8:	026787b3          	mul	a5,a5,t1
    95ac:	bb843803          	ld	a6,-1096(s0)
    95b0:	01f80833          	add	a6,a6,t6
    95b4:	010787b3          	add	a5,a5,a6
    95b8:	4287d793          	srai	a5,a5,0x28
    95bc:	baf43c23          	sd	a5,-1096(s0)
    95c0:	00f74663          	blt	a4,a5,95cc <.LBB34_778>
    95c4:	f8100793          	li	a5,-127
    95c8:	baf43c23          	sd	a5,-1096(s0)

00000000000095cc <.LBB34_778>:
    95cc:	000017b7          	lui	a5,0x1
    95d0:	40f407b3          	sub	a5,s0,a5
    95d4:	c707b783          	ld	a5,-912(a5) # c70 <.LBB34_1+0x968>
    95d8:	026787b3          	mul	a5,a5,t1
    95dc:	ba843803          	ld	a6,-1112(s0)
    95e0:	01f80833          	add	a6,a6,t6
    95e4:	010787b3          	add	a5,a5,a6
    95e8:	4287d793          	srai	a5,a5,0x28
    95ec:	baf43423          	sd	a5,-1112(s0)
    95f0:	00f74663          	blt	a4,a5,95fc <.LBB34_780>
    95f4:	f8100793          	li	a5,-127
    95f8:	baf43423          	sd	a5,-1112(s0)

00000000000095fc <.LBB34_780>:
    95fc:	000017b7          	lui	a5,0x1
    9600:	40f407b3          	sub	a5,s0,a5
    9604:	ce87b783          	ld	a5,-792(a5) # ce8 <.LBB34_1+0x9e0>
    9608:	026787b3          	mul	a5,a5,t1
    960c:	01fa8833          	add	a6,s5,t6
    9610:	010787b3          	add	a5,a5,a6
    9614:	4287d793          	srai	a5,a5,0x28
    9618:	b8f43c23          	sd	a5,-1128(s0)
    961c:	00f74663          	blt	a4,a5,9628 <.LBB34_782>
    9620:	f8100793          	li	a5,-127
    9624:	b8f43c23          	sd	a5,-1128(s0)

0000000000009628 <.LBB34_782>:
    9628:	000017b7          	lui	a5,0x1
    962c:	40f407b3          	sub	a5,s0,a5
    9630:	d687b783          	ld	a5,-664(a5) # d68 <.LBB34_1+0xa60>
    9634:	026787b3          	mul	a5,a5,t1
    9638:	01fe8833          	add	a6,t4,t6
    963c:	010787b3          	add	a5,a5,a6
    9640:	4287d793          	srai	a5,a5,0x28
    9644:	b8f43423          	sd	a5,-1144(s0)
    9648:	00f74663          	blt	a4,a5,9654 <.LBB34_784>
    964c:	f8100793          	li	a5,-127
    9650:	b8f43423          	sd	a5,-1144(s0)

0000000000009654 <.LBB34_784>:
    9654:	000017b7          	lui	a5,0x1
    9658:	40f407b3          	sub	a5,s0,a5
    965c:	dd87b783          	ld	a5,-552(a5) # dd8 <.LBB34_1+0xad0>
    9660:	026787b3          	mul	a5,a5,t1
    9664:	01fc8833          	add	a6,s9,t6
    9668:	010787b3          	add	a5,a5,a6
    966c:	4287d793          	srai	a5,a5,0x28
    9670:	b6f43c23          	sd	a5,-1160(s0)
    9674:	00f74663          	blt	a4,a5,9680 <.LBB34_786>
    9678:	f8100793          	li	a5,-127
    967c:	b6f43c23          	sd	a5,-1160(s0)

0000000000009680 <.LBB34_786>:
    9680:	b4843783          	ld	a5,-1208(s0)
    9684:	026787b3          	mul	a5,a5,t1
    9688:	01fe0833          	add	a6,t3,t6
    968c:	010787b3          	add	a5,a5,a6
    9690:	4287d793          	srai	a5,a5,0x28
    9694:	b6f43423          	sd	a5,-1176(s0)
    9698:	00f74663          	blt	a4,a5,96a4 <.LBB34_788>
    969c:	f8100793          	li	a5,-127
    96a0:	b6f43423          	sd	a5,-1176(s0)

00000000000096a4 <.LBB34_788>:
    96a4:	000017b7          	lui	a5,0x1
    96a8:	40f407b3          	sub	a5,s0,a5
    96ac:	eb07b783          	ld	a5,-336(a5) # eb0 <.LBB34_1+0xba8>
    96b0:	026787b3          	mul	a5,a5,t1
    96b4:	b5843803          	ld	a6,-1192(s0)
    96b8:	01f80833          	add	a6,a6,t6
    96bc:	010787b3          	add	a5,a5,a6
    96c0:	4287d793          	srai	a5,a5,0x28
    96c4:	b4f43c23          	sd	a5,-1192(s0)
    96c8:	00f74663          	blt	a4,a5,96d4 <.LBB34_790>
    96cc:	f8100793          	li	a5,-127
    96d0:	b4f43c23          	sd	a5,-1192(s0)

00000000000096d4 <.LBB34_790>:
    96d4:	000017b7          	lui	a5,0x1
    96d8:	40f407b3          	sub	a5,s0,a5
    96dc:	f207b783          	ld	a5,-224(a5) # f20 <.LBB34_2+0x24>
    96e0:	026787b3          	mul	a5,a5,t1
    96e4:	01fd0833          	add	a6,s10,t6
    96e8:	010787b3          	add	a5,a5,a6
    96ec:	4287d793          	srai	a5,a5,0x28
    96f0:	b4f43423          	sd	a5,-1208(s0)
    96f4:	00f74663          	blt	a4,a5,9700 <.LBB34_792>
    96f8:	f8100793          	li	a5,-127
    96fc:	b4f43423          	sd	a5,-1208(s0)

0000000000009700 <.LBB34_792>:
    9700:	b3043783          	ld	a5,-1232(s0)
    9704:	026787b3          	mul	a5,a5,t1
    9708:	b3843803          	ld	a6,-1224(s0)
    970c:	01f80833          	add	a6,a6,t6
    9710:	010787b3          	add	a5,a5,a6
    9714:	4287d793          	srai	a5,a5,0x28
    9718:	b2f43c23          	sd	a5,-1224(s0)
    971c:	00050e93          	mv	t4,a0
    9720:	00f74663          	blt	a4,a5,972c <.LBB34_794>
    9724:	f8100793          	li	a5,-127
    9728:	b2f43c23          	sd	a5,-1224(s0)

000000000000972c <.LBB34_794>:
    972c:	00001537          	lui	a0,0x1
    9730:	40a40533          	sub	a0,s0,a0
    9734:	00053783          	ld	a5,0(a0) # 1000 <.LBB34_2+0x104>
    9738:	026787b3          	mul	a5,a5,t1
    973c:	00001537          	lui	a0,0x1
    9740:	40a40533          	sub	a0,s0,a0
    9744:	ff853803          	ld	a6,-8(a0) # ff8 <.LBB34_2+0xfc>
    9748:	01f80833          	add	a6,a6,t6
    974c:	010787b3          	add	a5,a5,a6
    9750:	4287d793          	srai	a5,a5,0x28
    9754:	b2f43823          	sd	a5,-1232(s0)
    9758:	00f74663          	blt	a4,a5,9764 <.LBB34_796>
    975c:	f8100793          	li	a5,-127
    9760:	b2f43823          	sd	a5,-1232(s0)

0000000000009764 <.LBB34_796>:
    9764:	b2043783          	ld	a5,-1248(s0)
    9768:	026787b3          	mul	a5,a5,t1
    976c:	b2843803          	ld	a6,-1240(s0)
    9770:	01f80833          	add	a6,a6,t6
    9774:	010787b3          	add	a5,a5,a6
    9778:	4287d793          	srai	a5,a5,0x28
    977c:	b2f43423          	sd	a5,-1240(s0)
    9780:	00f74663          	blt	a4,a5,978c <.LBB34_798>
    9784:	f8100793          	li	a5,-127
    9788:	b2f43423          	sd	a5,-1240(s0)

000000000000978c <.LBB34_798>:
    978c:	00001537          	lui	a0,0x1
    9790:	40a40533          	sub	a0,s0,a0
    9794:	0d853783          	ld	a5,216(a0) # 10d8 <.LBB34_2+0x1dc>
    9798:	026787b3          	mul	a5,a5,t1
    979c:	00001537          	lui	a0,0x1
    97a0:	40a40533          	sub	a0,s0,a0
    97a4:	0c853803          	ld	a6,200(a0) # 10c8 <.LBB34_2+0x1cc>
    97a8:	01f80833          	add	a6,a6,t6
    97ac:	010787b3          	add	a5,a5,a6
    97b0:	4287d793          	srai	a5,a5,0x28
    97b4:	b2f43023          	sd	a5,-1248(s0)
    97b8:	00f74663          	blt	a4,a5,97c4 <.LBB34_800>
    97bc:	f8100793          	li	a5,-127
    97c0:	b2f43023          	sd	a5,-1248(s0)

00000000000097c4 <.LBB34_800>:
    97c4:	00001537          	lui	a0,0x1
    97c8:	40a40533          	sub	a0,s0,a0
    97cc:	14853783          	ld	a5,328(a0) # 1148 <.LBB34_2+0x24c>
    97d0:	026787b3          	mul	a5,a5,t1
    97d4:	b1843803          	ld	a6,-1256(s0)
    97d8:	01f80833          	add	a6,a6,t6
    97dc:	010787b3          	add	a5,a5,a6
    97e0:	4287d793          	srai	a5,a5,0x28
    97e4:	b0f43c23          	sd	a5,-1256(s0)
    97e8:	00f74663          	blt	a4,a5,97f4 <.LBB34_802>
    97ec:	f8100793          	li	a5,-127
    97f0:	b0f43c23          	sd	a5,-1256(s0)

00000000000097f4 <.LBB34_802>:
    97f4:	b0843783          	ld	a5,-1272(s0)
    97f8:	026787b3          	mul	a5,a5,t1
    97fc:	00001537          	lui	a0,0x1
    9800:	40a40533          	sub	a0,s0,a0
    9804:	1a853803          	ld	a6,424(a0) # 11a8 <.LBB34_2+0x2ac>
    9808:	01f80833          	add	a6,a6,t6
    980c:	010787b3          	add	a5,a5,a6
    9810:	4287d793          	srai	a5,a5,0x28
    9814:	b0f43823          	sd	a5,-1264(s0)
    9818:	00f74663          	blt	a4,a5,9824 <.LBB34_804>
    981c:	f8100793          	li	a5,-127
    9820:	b0f43823          	sd	a5,-1264(s0)

0000000000009824 <.LBB34_804>:
    9824:	b0043783          	ld	a5,-1280(s0)
    9828:	026787b3          	mul	a5,a5,t1
    982c:	01fd8833          	add	a6,s11,t6
    9830:	010787b3          	add	a5,a5,a6
    9834:	4287d793          	srai	a5,a5,0x28
    9838:	b0f43423          	sd	a5,-1272(s0)
    983c:	00f74663          	blt	a4,a5,9848 <.LBB34_806>
    9840:	f8100793          	li	a5,-127
    9844:	b0f43423          	sd	a5,-1272(s0)

0000000000009848 <.LBB34_806>:
    9848:	af843783          	ld	a5,-1288(s0)
    984c:	026787b3          	mul	a5,a5,t1
    9850:	01f88833          	add	a6,a7,t6
    9854:	010787b3          	add	a5,a5,a6
    9858:	4287d793          	srai	a5,a5,0x28
    985c:	b0f43023          	sd	a5,-1280(s0)
    9860:	00f74663          	blt	a4,a5,986c <.LBB34_808>
    9864:	f8100793          	li	a5,-127
    9868:	b0f43023          	sd	a5,-1280(s0)

000000000000986c <.LBB34_808>:
    986c:	af043783          	ld	a5,-1296(s0)
    9870:	026787b3          	mul	a5,a5,t1
    9874:	a0043803          	ld	a6,-1536(s0)
    9878:	01f80833          	add	a6,a6,t6
    987c:	010787b3          	add	a5,a5,a6
    9880:	4287d793          	srai	a5,a5,0x28
    9884:	aef43c23          	sd	a5,-1288(s0)
    9888:	00060893          	mv	a7,a2
    988c:	00f74663          	blt	a4,a5,9898 <.LBB34_810>
    9890:	f8100793          	li	a5,-127
    9894:	aef43c23          	sd	a5,-1288(s0)

0000000000009898 <.LBB34_810>:
    9898:	a1043783          	ld	a5,-1520(s0)
    989c:	026787b3          	mul	a5,a5,t1
    98a0:	01ff0833          	add	a6,t5,t6
    98a4:	010787b3          	add	a5,a5,a6
    98a8:	4287d793          	srai	a5,a5,0x28
    98ac:	aef43823          	sd	a5,-1296(s0)
    98b0:	00001537          	lui	a0,0x1
    98b4:	40a40533          	sub	a0,s0,a0
    98b8:	cc853603          	ld	a2,-824(a0) # cc8 <.LBB34_1+0x9c0>
    98bc:	00f74663          	blt	a4,a5,98c8 <.LBB34_812>
    98c0:	f8100793          	li	a5,-127
    98c4:	aef43823          	sd	a5,-1296(s0)

00000000000098c8 <.LBB34_812>:
    98c8:	a2043783          	ld	a5,-1504(s0)
    98cc:	026787b3          	mul	a5,a5,t1
    98d0:	a1843803          	ld	a6,-1512(s0)
    98d4:	01f80833          	add	a6,a6,t6
    98d8:	010787b3          	add	a5,a5,a6
    98dc:	4287d793          	srai	a5,a5,0x28
    98e0:	aef43423          	sd	a5,-1304(s0)
    98e4:	00058e13          	mv	t3,a1
    98e8:	00f74663          	blt	a4,a5,98f4 <.LBB34_814>
    98ec:	f8100793          	li	a5,-127
    98f0:	aef43423          	sd	a5,-1304(s0)

00000000000098f4 <.LBB34_814>:
    98f4:	a2843783          	ld	a5,-1496(s0)
    98f8:	026787b3          	mul	a5,a5,t1
    98fc:	ae043803          	ld	a6,-1312(s0)
    9900:	01f80833          	add	a6,a6,t6
    9904:	010787b3          	add	a5,a5,a6
    9908:	4287d793          	srai	a5,a5,0x28
    990c:	aef43023          	sd	a5,-1312(s0)
    9910:	00001537          	lui	a0,0x1
    9914:	40a40533          	sub	a0,s0,a0
    9918:	c0053583          	ld	a1,-1024(a0) # c00 <.LBB34_1+0x8f8>
    991c:	00f74663          	blt	a4,a5,9928 <.LBB34_816>
    9920:	f8100793          	li	a5,-127
    9924:	aef43023          	sd	a5,-1312(s0)

0000000000009928 <.LBB34_816>:
    9928:	ad043783          	ld	a5,-1328(s0)
    992c:	026787b3          	mul	a5,a5,t1
    9930:	a3043803          	ld	a6,-1488(s0)
    9934:	01f80833          	add	a6,a6,t6
    9938:	010787b3          	add	a5,a5,a6
    993c:	4287d793          	srai	a5,a5,0x28
    9940:	acf43823          	sd	a5,-1328(s0)
    9944:	00f74663          	blt	a4,a5,9950 <.LBB34_818>
    9948:	f8100793          	li	a5,-127
    994c:	acf43823          	sd	a5,-1328(s0)

0000000000009950 <.LBB34_818>:
    9950:	ac043783          	ld	a5,-1344(s0)
    9954:	026787b3          	mul	a5,a5,t1
    9958:	01f38833          	add	a6,t2,t6
    995c:	010787b3          	add	a5,a5,a6
    9960:	4287d793          	srai	a5,a5,0x28
    9964:	acf43023          	sd	a5,-1344(s0)
    9968:	00f74663          	blt	a4,a5,9974 <.LBB34_820>
    996c:	f8100793          	li	a5,-127
    9970:	acf43023          	sd	a5,-1344(s0)

0000000000009974 <.LBB34_820>:
    9974:	ab043783          	ld	a5,-1360(s0)
    9978:	026787b3          	mul	a5,a5,t1
    997c:	a3843803          	ld	a6,-1480(s0)
    9980:	01f80833          	add	a6,a6,t6
    9984:	010787b3          	add	a5,a5,a6
    9988:	4287d793          	srai	a5,a5,0x28
    998c:	aaf43823          	sd	a5,-1360(s0)
    9990:	00f74663          	blt	a4,a5,999c <.LBB34_822>
    9994:	f8100793          	li	a5,-127
    9998:	aaf43823          	sd	a5,-1360(s0)

000000000000999c <.LBB34_822>:
    999c:	aa043783          	ld	a5,-1376(s0)
    99a0:	026787b3          	mul	a5,a5,t1
    99a4:	a4043803          	ld	a6,-1472(s0)
    99a8:	01f80833          	add	a6,a6,t6
    99ac:	010787b3          	add	a5,a5,a6
    99b0:	4287d793          	srai	a5,a5,0x28
    99b4:	aaf43023          	sd	a5,-1376(s0)
    99b8:	00f74663          	blt	a4,a5,99c4 <.LBB34_824>
    99bc:	f8100793          	li	a5,-127
    99c0:	aaf43023          	sd	a5,-1376(s0)

00000000000099c4 <.LBB34_824>:
    99c4:	a9043783          	ld	a5,-1392(s0)
    99c8:	026787b3          	mul	a5,a5,t1
    99cc:	a8043803          	ld	a6,-1408(s0)
    99d0:	01f80833          	add	a6,a6,t6
    99d4:	010787b3          	add	a5,a5,a6
    99d8:	4287d793          	srai	a5,a5,0x28
    99dc:	a8f43823          	sd	a5,-1392(s0)
    99e0:	00f74663          	blt	a4,a5,99ec <.LBB34_826>
    99e4:	f8100793          	li	a5,-127
    99e8:	a8f43823          	sd	a5,-1392(s0)

00000000000099ec <.LBB34_826>:
    99ec:	aa843783          	ld	a5,-1368(s0)
    99f0:	026787b3          	mul	a5,a5,t1
    99f4:	ab843803          	ld	a6,-1352(s0)
    99f8:	01f80833          	add	a6,a6,t6
    99fc:	010787b3          	add	a5,a5,a6
    9a00:	4287d793          	srai	a5,a5,0x28
    9a04:	a8f43023          	sd	a5,-1408(s0)
    9a08:	00f74663          	blt	a4,a5,9a14 <.LBB34_828>
    9a0c:	f8100793          	li	a5,-127
    9a10:	a8f43023          	sd	a5,-1408(s0)

0000000000009a14 <.LBB34_828>:
    9a14:	a4843783          	ld	a5,-1464(s0)
    9a18:	026787b3          	mul	a5,a5,t1
    9a1c:	ac843803          	ld	a6,-1336(s0)
    9a20:	01f80833          	add	a6,a6,t6
    9a24:	010787b3          	add	a5,a5,a6
    9a28:	4287d793          	srai	a5,a5,0x28
    9a2c:	a6f43823          	sd	a5,-1424(s0)
    9a30:	00f74663          	blt	a4,a5,9a3c <.LBB34_830>
    9a34:	f8100793          	li	a5,-127
    9a38:	a6f43823          	sd	a5,-1424(s0)

0000000000009a3c <.LBB34_830>:
    9a3c:	a6043783          	ld	a5,-1440(s0)
    9a40:	026787b3          	mul	a5,a5,t1
    9a44:	a9843803          	ld	a6,-1384(s0)
    9a48:	01f80833          	add	a6,a6,t6
    9a4c:	010787b3          	add	a5,a5,a6
    9a50:	4287d793          	srai	a5,a5,0x28
    9a54:	a6f43023          	sd	a5,-1440(s0)
    9a58:	00f74663          	blt	a4,a5,9a64 <.LBB34_832>
    9a5c:	f8100793          	li	a5,-127
    9a60:	a6f43023          	sd	a5,-1440(s0)

0000000000009a64 <.LBB34_832>:
    9a64:	a5843783          	ld	a5,-1448(s0)
    9a68:	026787b3          	mul	a5,a5,t1
    9a6c:	01f90833          	add	a6,s2,t6
    9a70:	010787b3          	add	a5,a5,a6
    9a74:	4287d793          	srai	a5,a5,0x28
    9a78:	a4f43823          	sd	a5,-1456(s0)
    9a7c:	00f74663          	blt	a4,a5,9a88 <.LBB34_834>
    9a80:	f8100793          	li	a5,-127
    9a84:	a4f43823          	sd	a5,-1456(s0)

0000000000009a88 <.LBB34_834>:
    9a88:	a6843783          	ld	a5,-1432(s0)
    9a8c:	026787b3          	mul	a5,a5,t1
    9a90:	a8843803          	ld	a6,-1400(s0)
    9a94:	01f80833          	add	a6,a6,t6
    9a98:	010787b3          	add	a5,a5,a6
    9a9c:	4287d793          	srai	a5,a5,0x28
    9aa0:	a4f43023          	sd	a5,-1472(s0)
    9aa4:	00f74663          	blt	a4,a5,9ab0 <.LBB34_836>
    9aa8:	f8100793          	li	a5,-127
    9aac:	a4f43023          	sd	a5,-1472(s0)

0000000000009ab0 <.LBB34_836>:
    9ab0:	00001537          	lui	a0,0x1
    9ab4:	40a40533          	sub	a0,s0,a0
    9ab8:	b2853503          	ld	a0,-1240(a0) # b28 <.LBB34_1+0x820>
    9abc:	02650533          	mul	a0,a0,t1
    9ac0:	000017b7          	lui	a5,0x1
    9ac4:	40f407b3          	sub	a5,s0,a5
    9ac8:	b207b783          	ld	a5,-1248(a5) # b20 <.LBB34_1+0x818>
    9acc:	01f787b3          	add	a5,a5,t6
    9ad0:	00f50533          	add	a0,a0,a5
    9ad4:	42855513          	srai	a0,a0,0x28
    9ad8:	aca43c23          	sd	a0,-1320(s0)
    9adc:	000017b7          	lui	a5,0x1
    9ae0:	40f407b3          	sub	a5,s0,a5
    9ae4:	b887bd03          	ld	s10,-1144(a5) # b88 <.LBB34_1+0x880>
    9ae8:	85843803          	ld	a6,-1960(s0)
    9aec:	00a74663          	blt	a4,a0,9af8 <.LBB34_838>
    9af0:	f8100513          	li	a0,-127
    9af4:	aca43c23          	sd	a0,-1320(s0)

0000000000009af8 <.LBB34_838>:
    9af8:	00001537          	lui	a0,0x1
    9afc:	40a40533          	sub	a0,s0,a0
    9b00:	ba053503          	ld	a0,-1120(a0) # ba0 <.LBB34_1+0x898>
    9b04:	02650533          	mul	a0,a0,t1
    9b08:	000017b7          	lui	a5,0x1
    9b0c:	40f407b3          	sub	a5,s0,a5
    9b10:	b987b783          	ld	a5,-1128(a5) # b98 <.LBB34_1+0x890>
    9b14:	01f787b3          	add	a5,a5,t6
    9b18:	00f50533          	add	a0,a0,a5
    9b1c:	42855513          	srai	a0,a0,0x28
    9b20:	aca43423          	sd	a0,-1336(s0)
    9b24:	00a74663          	blt	a4,a0,9b30 <.LBB34_840>
    9b28:	f8100513          	li	a0,-127
    9b2c:	aca43423          	sd	a0,-1336(s0)

0000000000009b30 <.LBB34_840>:
    9b30:	00001537          	lui	a0,0x1
    9b34:	40a40533          	sub	a0,s0,a0
    9b38:	c0853503          	ld	a0,-1016(a0) # c08 <.LBB34_1+0x900>
    9b3c:	02650533          	mul	a0,a0,t1
    9b40:	01f587b3          	add	a5,a1,t6
    9b44:	00f50533          	add	a0,a0,a5
    9b48:	42855513          	srai	a0,a0,0x28
    9b4c:	aaa43c23          	sd	a0,-1352(s0)
    9b50:	00a74663          	blt	a4,a0,9b5c <.LBB34_842>
    9b54:	f8100513          	li	a0,-127
    9b58:	aaa43c23          	sd	a0,-1352(s0)

0000000000009b5c <.LBB34_842>:
    9b5c:	00001537          	lui	a0,0x1
    9b60:	40a40533          	sub	a0,s0,a0
    9b64:	c6853503          	ld	a0,-920(a0) # c68 <.LBB34_1+0x960>
    9b68:	02650533          	mul	a0,a0,t1
    9b6c:	000015b7          	lui	a1,0x1
    9b70:	40b405b3          	sub	a1,s0,a1
    9b74:	c605b783          	ld	a5,-928(a1) # c60 <.LBB34_1+0x958>
    9b78:	01f787b3          	add	a5,a5,t6
    9b7c:	00f50533          	add	a0,a0,a5
    9b80:	42855513          	srai	a0,a0,0x28
    9b84:	aaa43423          	sd	a0,-1368(s0)
    9b88:	00a74663          	blt	a4,a0,9b94 <.LBB34_844>
    9b8c:	f8100513          	li	a0,-127
    9b90:	aaa43423          	sd	a0,-1368(s0)

0000000000009b94 <.LBB34_844>:
    9b94:	00001537          	lui	a0,0x1
    9b98:	40a40533          	sub	a0,s0,a0
    9b9c:	ce053503          	ld	a0,-800(a0) # ce0 <.LBB34_1+0x9d8>
    9ba0:	02650533          	mul	a0,a0,t1
    9ba4:	000015b7          	lui	a1,0x1
    9ba8:	40b405b3          	sub	a1,s0,a1
    9bac:	cd85b783          	ld	a5,-808(a1) # cd8 <.LBB34_1+0x9d0>
    9bb0:	01f787b3          	add	a5,a5,t6
    9bb4:	00f50533          	add	a0,a0,a5
    9bb8:	42855513          	srai	a0,a0,0x28
    9bbc:	a8a43c23          	sd	a0,-1384(s0)
    9bc0:	00a74663          	blt	a4,a0,9bcc <.LBB34_846>
    9bc4:	f8100513          	li	a0,-127
    9bc8:	a8a43c23          	sd	a0,-1384(s0)

0000000000009bcc <.LBB34_846>:
    9bcc:	00001537          	lui	a0,0x1
    9bd0:	40a40533          	sub	a0,s0,a0
    9bd4:	d5853503          	ld	a0,-680(a0) # d58 <.LBB34_1+0xa50>
    9bd8:	02650533          	mul	a0,a0,t1
    9bdc:	000015b7          	lui	a1,0x1
    9be0:	40b405b3          	sub	a1,s0,a1
    9be4:	d505b783          	ld	a5,-688(a1) # d50 <.LBB34_1+0xa48>
    9be8:	01f787b3          	add	a5,a5,t6
    9bec:	00f50533          	add	a0,a0,a5
    9bf0:	42855513          	srai	a0,a0,0x28
    9bf4:	a8a43423          	sd	a0,-1400(s0)
    9bf8:	00a74663          	blt	a4,a0,9c04 <.LBB34_848>
    9bfc:	f8100513          	li	a0,-127
    9c00:	a8a43423          	sd	a0,-1400(s0)

0000000000009c04 <.LBB34_848>:
    9c04:	00001537          	lui	a0,0x1
    9c08:	40a40533          	sub	a0,s0,a0
    9c0c:	dd053503          	ld	a0,-560(a0) # dd0 <.LBB34_1+0xac8>
    9c10:	02650533          	mul	a0,a0,t1
    9c14:	000015b7          	lui	a1,0x1
    9c18:	40b405b3          	sub	a1,s0,a1
    9c1c:	dc85b783          	ld	a5,-568(a1) # dc8 <.LBB34_1+0xac0>
    9c20:	01f787b3          	add	a5,a5,t6
    9c24:	00f50533          	add	a0,a0,a5
    9c28:	42855513          	srai	a0,a0,0x28
    9c2c:	a6a43c23          	sd	a0,-1416(s0)
    9c30:	00a74663          	blt	a4,a0,9c3c <.LBB34_850>
    9c34:	f8100513          	li	a0,-127
    9c38:	a6a43c23          	sd	a0,-1416(s0)

0000000000009c3c <.LBB34_850>:
    9c3c:	00001537          	lui	a0,0x1
    9c40:	40a40533          	sub	a0,s0,a0
    9c44:	e3853503          	ld	a0,-456(a0) # e38 <.LBB34_1+0xb30>
    9c48:	02650533          	mul	a0,a0,t1
    9c4c:	000015b7          	lui	a1,0x1
    9c50:	40b405b3          	sub	a1,s0,a1
    9c54:	e305b783          	ld	a5,-464(a1) # e30 <.LBB34_1+0xb28>
    9c58:	01f787b3          	add	a5,a5,t6
    9c5c:	00f50533          	add	a0,a0,a5
    9c60:	42855513          	srai	a0,a0,0x28
    9c64:	a6a43423          	sd	a0,-1432(s0)
    9c68:	00a74663          	blt	a4,a0,9c74 <.LBB34_852>
    9c6c:	f8100513          	li	a0,-127
    9c70:	a6a43423          	sd	a0,-1432(s0)

0000000000009c74 <.LBB34_852>:
    9c74:	00001537          	lui	a0,0x1
    9c78:	40a40533          	sub	a0,s0,a0
    9c7c:	ea853503          	ld	a0,-344(a0) # ea8 <.LBB34_1+0xba0>
    9c80:	02650533          	mul	a0,a0,t1
    9c84:	000015b7          	lui	a1,0x1
    9c88:	40b405b3          	sub	a1,s0,a1
    9c8c:	ea05b783          	ld	a5,-352(a1) # ea0 <.LBB34_1+0xb98>
    9c90:	01f787b3          	add	a5,a5,t6
    9c94:	00f50533          	add	a0,a0,a5
    9c98:	42855513          	srai	a0,a0,0x28
    9c9c:	a4a43c23          	sd	a0,-1448(s0)
    9ca0:	00a74663          	blt	a4,a0,9cac <.LBB34_854>
    9ca4:	f8100513          	li	a0,-127
    9ca8:	a4a43c23          	sd	a0,-1448(s0)

0000000000009cac <.LBB34_854>:
    9cac:	00001537          	lui	a0,0x1
    9cb0:	40a40533          	sub	a0,s0,a0
    9cb4:	f1853503          	ld	a0,-232(a0) # f18 <.LBB34_2+0x1c>
    9cb8:	02650533          	mul	a0,a0,t1
    9cbc:	000015b7          	lui	a1,0x1
    9cc0:	40b405b3          	sub	a1,s0,a1
    9cc4:	f105b783          	ld	a5,-240(a1) # f10 <.LBB34_2+0x14>
    9cc8:	01f787b3          	add	a5,a5,t6
    9ccc:	00f50533          	add	a0,a0,a5
    9cd0:	42855513          	srai	a0,a0,0x28
    9cd4:	a4a43423          	sd	a0,-1464(s0)
    9cd8:	00a74663          	blt	a4,a0,9ce4 <.LBB34_856>
    9cdc:	f8100513          	li	a0,-127
    9ce0:	a4a43423          	sd	a0,-1464(s0)

0000000000009ce4 <.LBB34_856>:
    9ce4:	00001537          	lui	a0,0x1
    9ce8:	40a40533          	sub	a0,s0,a0
    9cec:	f8853503          	ld	a0,-120(a0) # f88 <.LBB34_2+0x8c>
    9cf0:	02650533          	mul	a0,a0,t1
    9cf4:	000015b7          	lui	a1,0x1
    9cf8:	40b405b3          	sub	a1,s0,a1
    9cfc:	f785b783          	ld	a5,-136(a1) # f78 <.LBB34_2+0x7c>
    9d00:	01f787b3          	add	a5,a5,t6
    9d04:	00f50533          	add	a0,a0,a5
    9d08:	42855513          	srai	a0,a0,0x28
    9d0c:	a2a43c23          	sd	a0,-1480(s0)
    9d10:	00a74663          	blt	a4,a0,9d1c <.LBB34_858>
    9d14:	f8100513          	li	a0,-127
    9d18:	a2a43c23          	sd	a0,-1480(s0)

0000000000009d1c <.LBB34_858>:
    9d1c:	00001537          	lui	a0,0x1
    9d20:	40a40533          	sub	a0,s0,a0
    9d24:	fe853503          	ld	a0,-24(a0) # fe8 <.LBB34_2+0xec>
    9d28:	02650533          	mul	a0,a0,t1
    9d2c:	000015b7          	lui	a1,0x1
    9d30:	40b405b3          	sub	a1,s0,a1
    9d34:	fd85b783          	ld	a5,-40(a1) # fd8 <.LBB34_2+0xdc>
    9d38:	01f787b3          	add	a5,a5,t6
    9d3c:	00f50533          	add	a0,a0,a5
    9d40:	42855513          	srai	a0,a0,0x28
    9d44:	a2a43823          	sd	a0,-1488(s0)
    9d48:	00a74663          	blt	a4,a0,9d54 <.LBB34_860>
    9d4c:	f8100513          	li	a0,-127
    9d50:	a2a43823          	sd	a0,-1488(s0)

0000000000009d54 <.LBB34_860>:
    9d54:	00001537          	lui	a0,0x1
    9d58:	40a40533          	sub	a0,s0,a0
    9d5c:	06053503          	ld	a0,96(a0) # 1060 <.LBB34_2+0x164>
    9d60:	02650533          	mul	a0,a0,t1
    9d64:	000015b7          	lui	a1,0x1
    9d68:	40b405b3          	sub	a1,s0,a1
    9d6c:	0505b783          	ld	a5,80(a1) # 1050 <.LBB34_2+0x154>
    9d70:	01f787b3          	add	a5,a5,t6
    9d74:	00f50533          	add	a0,a0,a5
    9d78:	42855513          	srai	a0,a0,0x28
    9d7c:	a2a43423          	sd	a0,-1496(s0)
    9d80:	00a74663          	blt	a4,a0,9d8c <.LBB34_862>
    9d84:	f8100513          	li	a0,-127
    9d88:	a2a43423          	sd	a0,-1496(s0)

0000000000009d8c <.LBB34_862>:
    9d8c:	00001537          	lui	a0,0x1
    9d90:	40a40533          	sub	a0,s0,a0
    9d94:	0c053503          	ld	a0,192(a0) # 10c0 <.LBB34_2+0x1c4>
    9d98:	02650533          	mul	a0,a0,t1
    9d9c:	000015b7          	lui	a1,0x1
    9da0:	40b405b3          	sub	a1,s0,a1
    9da4:	0b85b783          	ld	a5,184(a1) # 10b8 <.LBB34_2+0x1bc>
    9da8:	01f787b3          	add	a5,a5,t6
    9dac:	00f50533          	add	a0,a0,a5
    9db0:	42855513          	srai	a0,a0,0x28
    9db4:	a2a43023          	sd	a0,-1504(s0)
    9db8:	00a74663          	blt	a4,a0,9dc4 <.LBB34_864>
    9dbc:	f8100513          	li	a0,-127
    9dc0:	a2a43023          	sd	a0,-1504(s0)

0000000000009dc4 <.LBB34_864>:
    9dc4:	00001537          	lui	a0,0x1
    9dc8:	40a40533          	sub	a0,s0,a0
    9dcc:	13853503          	ld	a0,312(a0) # 1138 <.LBB34_2+0x23c>
    9dd0:	02650533          	mul	a0,a0,t1
    9dd4:	000015b7          	lui	a1,0x1
    9dd8:	40b405b3          	sub	a1,s0,a1
    9ddc:	1305b783          	ld	a5,304(a1) # 1130 <.LBB34_2+0x234>
    9de0:	01f787b3          	add	a5,a5,t6
    9de4:	00f50533          	add	a0,a0,a5
    9de8:	42855513          	srai	a0,a0,0x28
    9dec:	a0a43c23          	sd	a0,-1512(s0)
    9df0:	00a74663          	blt	a4,a0,9dfc <.LBB34_866>
    9df4:	f8100513          	li	a0,-127
    9df8:	a0a43c23          	sd	a0,-1512(s0)

0000000000009dfc <.LBB34_866>:
    9dfc:	00001537          	lui	a0,0x1
    9e00:	40a40533          	sub	a0,s0,a0
    9e04:	1a053503          	ld	a0,416(a0) # 11a0 <.LBB34_2+0x2a4>
    9e08:	02650533          	mul	a0,a0,t1
    9e0c:	000015b7          	lui	a1,0x1
    9e10:	40b405b3          	sub	a1,s0,a1
    9e14:	1985b783          	ld	a5,408(a1) # 1198 <.LBB34_2+0x29c>
    9e18:	01f787b3          	add	a5,a5,t6
    9e1c:	00f50533          	add	a0,a0,a5
    9e20:	42855513          	srai	a0,a0,0x28
    9e24:	a0a43823          	sd	a0,-1520(s0)
    9e28:	00a74663          	blt	a4,a0,9e34 <.LBB34_868>
    9e2c:	f8100513          	li	a0,-127
    9e30:	a0a43823          	sd	a0,-1520(s0)

0000000000009e34 <.LBB34_868>:
    9e34:	00001537          	lui	a0,0x1
    9e38:	40a40533          	sub	a0,s0,a0
    9e3c:	20853503          	ld	a0,520(a0) # 1208 <.LBB34_2+0x30c>
    9e40:	02650533          	mul	a0,a0,t1
    9e44:	000015b7          	lui	a1,0x1
    9e48:	40b405b3          	sub	a1,s0,a1
    9e4c:	2005b783          	ld	a5,512(a1) # 1200 <.LBB34_2+0x304>
    9e50:	01f787b3          	add	a5,a5,t6
    9e54:	00f50533          	add	a0,a0,a5
    9e58:	42855513          	srai	a0,a0,0x28
    9e5c:	a0a43423          	sd	a0,-1528(s0)
    9e60:	00a74663          	blt	a4,a0,9e6c <.LBB34_870>
    9e64:	f8100513          	li	a0,-127
    9e68:	a0a43423          	sd	a0,-1528(s0)

0000000000009e6c <.LBB34_870>:
    9e6c:	00001537          	lui	a0,0x1
    9e70:	40a40533          	sub	a0,s0,a0
    9e74:	26053503          	ld	a0,608(a0) # 1260 <.LBB34_2+0x364>
    9e78:	02650533          	mul	a0,a0,t1
    9e7c:	000015b7          	lui	a1,0x1
    9e80:	40b405b3          	sub	a1,s0,a1
    9e84:	2585b783          	ld	a5,600(a1) # 1258 <.LBB34_2+0x35c>
    9e88:	01f787b3          	add	a5,a5,t6
    9e8c:	00f50533          	add	a0,a0,a5
    9e90:	42855513          	srai	a0,a0,0x28
    9e94:	a0a43023          	sd	a0,-1536(s0)
    9e98:	00a74663          	blt	a4,a0,9ea4 <.LBB34_872>
    9e9c:	f8100513          	li	a0,-127
    9ea0:	a0a43023          	sd	a0,-1536(s0)

0000000000009ea4 <.LBB34_872>:
    9ea4:	00001537          	lui	a0,0x1
    9ea8:	40a40533          	sub	a0,s0,a0
    9eac:	2c853503          	ld	a0,712(a0) # 12c8 <.LBB34_2+0x3cc>
    9eb0:	02650533          	mul	a0,a0,t1
    9eb4:	000015b7          	lui	a1,0x1
    9eb8:	40b405b3          	sub	a1,s0,a1
    9ebc:	2c05b783          	ld	a5,704(a1) # 12c0 <.LBB34_2+0x3c4>
    9ec0:	01f787b3          	add	a5,a5,t6
    9ec4:	00f50533          	add	a0,a0,a5
    9ec8:	42855513          	srai	a0,a0,0x28
    9ecc:	9ea43c23          	sd	a0,-1544(s0)
    9ed0:	00a74663          	blt	a4,a0,9edc <.LBB34_874>
    9ed4:	f8100513          	li	a0,-127
    9ed8:	9ea43c23          	sd	a0,-1544(s0)

0000000000009edc <.LBB34_874>:
    9edc:	9f043503          	ld	a0,-1552(s0)
    9ee0:	02650533          	mul	a0,a0,t1
    9ee4:	000015b7          	lui	a1,0x1
    9ee8:	40b405b3          	sub	a1,s0,a1
    9eec:	3305b783          	ld	a5,816(a1) # 1330 <.LBB34_2+0x434>
    9ef0:	01f787b3          	add	a5,a5,t6
    9ef4:	00f50533          	add	a0,a0,a5
    9ef8:	42855513          	srai	a0,a0,0x28
    9efc:	9ea43823          	sd	a0,-1552(s0)
    9f00:	00a74663          	blt	a4,a0,9f0c <.LBB34_876>
    9f04:	f8100513          	li	a0,-127
    9f08:	9ea43823          	sd	a0,-1552(s0)

0000000000009f0c <.LBB34_876>:
    9f0c:	9e843503          	ld	a0,-1560(s0)
    9f10:	02650533          	mul	a0,a0,t1
    9f14:	000015b7          	lui	a1,0x1
    9f18:	40b405b3          	sub	a1,s0,a1
    9f1c:	3a05b783          	ld	a5,928(a1) # 13a0 <.LBB34_2+0x4a4>
    9f20:	01f787b3          	add	a5,a5,t6
    9f24:	00f50533          	add	a0,a0,a5
    9f28:	42855513          	srai	a0,a0,0x28
    9f2c:	9ea43423          	sd	a0,-1560(s0)
    9f30:	00a74663          	blt	a4,a0,9f3c <.LBB34_878>
    9f34:	f8100513          	li	a0,-127
    9f38:	9ea43423          	sd	a0,-1560(s0)

0000000000009f3c <.LBB34_878>:
    9f3c:	00001537          	lui	a0,0x1
    9f40:	40a40533          	sub	a0,s0,a0
    9f44:	40053503          	ld	a0,1024(a0) # 1400 <.LBB34_2+0x504>
    9f48:	02650533          	mul	a0,a0,t1
    9f4c:	000015b7          	lui	a1,0x1
    9f50:	40b405b3          	sub	a1,s0,a1
    9f54:	3f85b783          	ld	a5,1016(a1) # 13f8 <.LBB34_2+0x4fc>
    9f58:	01f787b3          	add	a5,a5,t6
    9f5c:	00f50533          	add	a0,a0,a5
    9f60:	42855513          	srai	a0,a0,0x28
    9f64:	9ea43023          	sd	a0,-1568(s0)
    9f68:	00a74663          	blt	a4,a0,9f74 <.LBB34_880>
    9f6c:	f8100513          	li	a0,-127
    9f70:	9ea43023          	sd	a0,-1568(s0)

0000000000009f74 <.LBB34_880>:
    9f74:	00001537          	lui	a0,0x1
    9f78:	40a40533          	sub	a0,s0,a0
    9f7c:	46053503          	ld	a0,1120(a0) # 1460 <.LBB34_2+0x564>
    9f80:	02650533          	mul	a0,a0,t1
    9f84:	000015b7          	lui	a1,0x1
    9f88:	40b405b3          	sub	a1,s0,a1
    9f8c:	4585b783          	ld	a5,1112(a1) # 1458 <.LBB34_2+0x55c>
    9f90:	01f787b3          	add	a5,a5,t6
    9f94:	00f50533          	add	a0,a0,a5
    9f98:	42855513          	srai	a0,a0,0x28
    9f9c:	9ca43823          	sd	a0,-1584(s0)
    9fa0:	00a74663          	blt	a4,a0,9fac <.LBB34_882>
    9fa4:	f8100513          	li	a0,-127
    9fa8:	9ca43823          	sd	a0,-1584(s0)

0000000000009fac <.LBB34_882>:
    9fac:	00001537          	lui	a0,0x1
    9fb0:	40a40533          	sub	a0,s0,a0
    9fb4:	4c853503          	ld	a0,1224(a0) # 14c8 <.LBB34_3+0x28>
    9fb8:	02650533          	mul	a0,a0,t1
    9fbc:	000015b7          	lui	a1,0x1
    9fc0:	40b405b3          	sub	a1,s0,a1
    9fc4:	4c05b783          	ld	a5,1216(a1) # 14c0 <.LBB34_3+0x20>
    9fc8:	01f787b3          	add	a5,a5,t6
    9fcc:	00f50533          	add	a0,a0,a5
    9fd0:	42855513          	srai	a0,a0,0x28
    9fd4:	9ca43023          	sd	a0,-1600(s0)
    9fd8:	00a74663          	blt	a4,a0,9fe4 <.LBB34_884>
    9fdc:	f8100513          	li	a0,-127
    9fe0:	9ca43023          	sd	a0,-1600(s0)

0000000000009fe4 <.LBB34_884>:
    9fe4:	00001537          	lui	a0,0x1
    9fe8:	40a40533          	sub	a0,s0,a0
    9fec:	67853503          	ld	a0,1656(a0) # 1678 <.LBB34_3+0x1d8>
    9ff0:	02650533          	mul	a0,a0,t1
    9ff4:	000015b7          	lui	a1,0x1
    9ff8:	40b405b3          	sub	a1,s0,a1
    9ffc:	5205b783          	ld	a5,1312(a1) # 1520 <.LBB34_3+0x80>
    a000:	01f787b3          	add	a5,a5,t6
    a004:	00f50533          	add	a0,a0,a5
    a008:	42855513          	srai	a0,a0,0x28
    a00c:	9aa43823          	sd	a0,-1616(s0)
    a010:	00a74663          	blt	a4,a0,a01c <.LBB34_886>
    a014:	f8100513          	li	a0,-127
    a018:	9aa43823          	sd	a0,-1616(s0)

000000000000a01c <.LBB34_886>:
    a01c:	00001537          	lui	a0,0x1
    a020:	40a40533          	sub	a0,s0,a0
    a024:	72853503          	ld	a0,1832(a0) # 1728 <.LBB34_3+0x288>
    a028:	02650533          	mul	a0,a0,t1
    a02c:	000015b7          	lui	a1,0x1
    a030:	40b405b3          	sub	a1,s0,a1
    a034:	7205b783          	ld	a5,1824(a1) # 1720 <.LBB34_3+0x280>
    a038:	01f787b3          	add	a5,a5,t6
    a03c:	00f50533          	add	a0,a0,a5
    a040:	42855513          	srai	a0,a0,0x28
    a044:	9aa43023          	sd	a0,-1632(s0)
    a048:	00a74663          	blt	a4,a0,a054 <.LBB34_888>
    a04c:	f8100513          	li	a0,-127
    a050:	9aa43023          	sd	a0,-1632(s0)

000000000000a054 <.LBB34_888>:
    a054:	00001537          	lui	a0,0x1
    a058:	40a40533          	sub	a0,s0,a0
    a05c:	77853503          	ld	a0,1912(a0) # 1778 <.LBB34_3+0x2d8>
    a060:	02650533          	mul	a0,a0,t1
    a064:	000015b7          	lui	a1,0x1
    a068:	40b405b3          	sub	a1,s0,a1
    a06c:	7705b783          	ld	a5,1904(a1) # 1770 <.LBB34_3+0x2d0>
    a070:	01f787b3          	add	a5,a5,t6
    a074:	00f50533          	add	a0,a0,a5
    a078:	42855513          	srai	a0,a0,0x28
    a07c:	98a43823          	sd	a0,-1648(s0)
    a080:	00a74663          	blt	a4,a0,a08c <.LBB34_890>
    a084:	f8100513          	li	a0,-127
    a088:	98a43823          	sd	a0,-1648(s0)

000000000000a08c <.LBB34_890>:
    a08c:	00001537          	lui	a0,0x1
    a090:	40a40533          	sub	a0,s0,a0
    a094:	7f853503          	ld	a0,2040(a0) # 17f8 <.LBB34_3+0x358>
    a098:	02650533          	mul	a0,a0,t1
    a09c:	000015b7          	lui	a1,0x1
    a0a0:	40b405b3          	sub	a1,s0,a1
    a0a4:	7f05b783          	ld	a5,2032(a1) # 17f0 <.LBB34_3+0x350>
    a0a8:	01f787b3          	add	a5,a5,t6
    a0ac:	00f50533          	add	a0,a0,a5
    a0b0:	42855513          	srai	a0,a0,0x28
    a0b4:	98a43023          	sd	a0,-1664(s0)
    a0b8:	00a74663          	blt	a4,a0,a0c4 <.LBB34_892>
    a0bc:	f8100513          	li	a0,-127
    a0c0:	98a43023          	sd	a0,-1664(s0)

000000000000a0c4 <.LBB34_892>:
    a0c4:	8e843503          	ld	a0,-1816(s0)
    a0c8:	02650533          	mul	a0,a0,t1
    a0cc:	8e043783          	ld	a5,-1824(s0)
    a0d0:	01f787b3          	add	a5,a5,t6
    a0d4:	00f50533          	add	a0,a0,a5
    a0d8:	42855513          	srai	a0,a0,0x28
    a0dc:	96a43823          	sd	a0,-1680(s0)
    a0e0:	00a74663          	blt	a4,a0,a0ec <.LBB34_894>
    a0e4:	f8100513          	li	a0,-127
    a0e8:	96a43823          	sd	a0,-1680(s0)

000000000000a0ec <.LBB34_894>:
    a0ec:	96043503          	ld	a0,-1696(s0)
    a0f0:	02650533          	mul	a0,a0,t1
    a0f4:	95043783          	ld	a5,-1712(s0)
    a0f8:	01f787b3          	add	a5,a5,t6
    a0fc:	00f50533          	add	a0,a0,a5
    a100:	42855513          	srai	a0,a0,0x28
    a104:	96a43023          	sd	a0,-1696(s0)
    a108:	00a74663          	blt	a4,a0,a114 <.LBB34_896>
    a10c:	f8100513          	li	a0,-127
    a110:	96a43023          	sd	a0,-1696(s0)

000000000000a114 <.LBB34_896>:
    a114:	9b843503          	ld	a0,-1608(s0)
    a118:	02650533          	mul	a0,a0,t1
    a11c:	9a843783          	ld	a5,-1624(s0)
    a120:	01f787b3          	add	a5,a5,t6
    a124:	00f50533          	add	a0,a0,a5
    a128:	42855513          	srai	a0,a0,0x28
    a12c:	94a43823          	sd	a0,-1712(s0)
    a130:	00a74663          	blt	a4,a0,a13c <.LBB34_898>
    a134:	f8100513          	li	a0,-127
    a138:	94a43823          	sd	a0,-1712(s0)

000000000000a13c <.LBB34_898>:
    a13c:	00001537          	lui	a0,0x1
    a140:	40a40533          	sub	a0,s0,a0
    a144:	33853503          	ld	a0,824(a0) # 1338 <.LBB34_2+0x43c>
    a148:	02650533          	mul	a0,a0,t1
    a14c:	9c843783          	ld	a5,-1592(s0)
    a150:	01f787b3          	add	a5,a5,t6
    a154:	00f50533          	add	a0,a0,a5
    a158:	42855513          	srai	a0,a0,0x28
    a15c:	94a43023          	sd	a0,-1728(s0)
    a160:	00a74663          	blt	a4,a0,a16c <.LBB34_900>
    a164:	f8100513          	li	a0,-127
    a168:	94a43023          	sd	a0,-1728(s0)

000000000000a16c <.LBB34_900>:
    a16c:	00001537          	lui	a0,0x1
    a170:	40a40533          	sub	a0,s0,a0
    a174:	b1853503          	ld	a0,-1256(a0) # b18 <.LBB34_1+0x810>
    a178:	02650533          	mul	a0,a0,t1
    a17c:	000015b7          	lui	a1,0x1
    a180:	40b405b3          	sub	a1,s0,a1
    a184:	b105b783          	ld	a5,-1264(a1) # b10 <.LBB34_1+0x808>
    a188:	01f787b3          	add	a5,a5,t6
    a18c:	00f50533          	add	a0,a0,a5
    a190:	42855513          	srai	a0,a0,0x28
    a194:	9ca43c23          	sd	a0,-1576(s0)
    a198:	00a74663          	blt	a4,a0,a1a4 <.LBB34_902>
    a19c:	f8100513          	li	a0,-127
    a1a0:	9ca43c23          	sd	a0,-1576(s0)

000000000000a1a4 <.LBB34_902>:
    a1a4:	00001537          	lui	a0,0x1
    a1a8:	40a40533          	sub	a0,s0,a0
    a1ac:	b9053503          	ld	a0,-1136(a0) # b90 <.LBB34_1+0x888>
    a1b0:	02650533          	mul	a0,a0,t1
    a1b4:	01f285b3          	add	a1,t0,t6
    a1b8:	00b50533          	add	a0,a0,a1
    a1bc:	42855513          	srai	a0,a0,0x28
    a1c0:	9ca43423          	sd	a0,-1592(s0)
    a1c4:	000015b7          	lui	a1,0x1
    a1c8:	40b405b3          	sub	a1,s0,a1
    a1cc:	e205b783          	ld	a5,-480(a1) # e20 <.LBB34_1+0xb18>
    a1d0:	00a74663          	blt	a4,a0,a1dc <.LBB34_904>
    a1d4:	f8100513          	li	a0,-127
    a1d8:	9ca43423          	sd	a0,-1592(s0)

000000000000a1dc <.LBB34_904>:
    a1dc:	00001537          	lui	a0,0x1
    a1e0:	40a40533          	sub	a0,s0,a0
    a1e4:	bf853503          	ld	a0,-1032(a0) # bf8 <.LBB34_1+0x8f0>
    a1e8:	02650533          	mul	a0,a0,t1
    a1ec:	01fe85b3          	add	a1,t4,t6
    a1f0:	00b50533          	add	a0,a0,a1
    a1f4:	42855513          	srai	a0,a0,0x28
    a1f8:	9aa43c23          	sd	a0,-1608(s0)
    a1fc:	00a74663          	blt	a4,a0,a208 <.LBB34_906>
    a200:	f8100513          	li	a0,-127
    a204:	9aa43c23          	sd	a0,-1608(s0)

000000000000a208 <.LBB34_906>:
    a208:	00001537          	lui	a0,0x1
    a20c:	40a40533          	sub	a0,s0,a0
    a210:	c5853503          	ld	a0,-936(a0) # c58 <.LBB34_1+0x950>
    a214:	02650533          	mul	a0,a0,t1
    a218:	01fe05b3          	add	a1,t3,t6
    a21c:	00b50533          	add	a0,a0,a1
    a220:	42855513          	srai	a0,a0,0x28
    a224:	9aa43423          	sd	a0,-1624(s0)
    a228:	00a74663          	blt	a4,a0,a234 <.LBB34_908>
    a22c:	f8100513          	li	a0,-127
    a230:	9aa43423          	sd	a0,-1624(s0)

000000000000a234 <.LBB34_908>:
    a234:	00001537          	lui	a0,0x1
    a238:	40a40533          	sub	a0,s0,a0
    a23c:	cd053503          	ld	a0,-816(a0) # cd0 <.LBB34_1+0x9c8>
    a240:	02650533          	mul	a0,a0,t1
    a244:	01f605b3          	add	a1,a2,t6
    a248:	00b50533          	add	a0,a0,a1
    a24c:	42855513          	srai	a0,a0,0x28
    a250:	8b043603          	ld	a2,-1872(s0)
    a254:	98a43c23          	sd	a0,-1640(s0)
    a258:	00a74663          	blt	a4,a0,a264 <.LBB34_910>
    a25c:	f8100513          	li	a0,-127
    a260:	98a43c23          	sd	a0,-1640(s0)

000000000000a264 <.LBB34_910>:
    a264:	00001537          	lui	a0,0x1
    a268:	40a40533          	sub	a0,s0,a0
    a26c:	d4853503          	ld	a0,-696(a0) # d48 <.LBB34_1+0xa40>
    a270:	02650533          	mul	a0,a0,t1
    a274:	000015b7          	lui	a1,0x1
    a278:	40b405b3          	sub	a1,s0,a1
    a27c:	d405b583          	ld	a1,-704(a1) # d40 <.LBB34_1+0xa38>
    a280:	01f585b3          	add	a1,a1,t6
    a284:	00b50533          	add	a0,a0,a1
    a288:	42855513          	srai	a0,a0,0x28
    a28c:	98a43423          	sd	a0,-1656(s0)
    a290:	00a74663          	blt	a4,a0,a29c <.LBB34_912>
    a294:	f8100513          	li	a0,-127
    a298:	98a43423          	sd	a0,-1656(s0)

000000000000a29c <.LBB34_912>:
    a29c:	00001537          	lui	a0,0x1
    a2a0:	40a40533          	sub	a0,s0,a0
    a2a4:	dc053503          	ld	a0,-576(a0) # dc0 <.LBB34_1+0xab8>
    a2a8:	02650533          	mul	a0,a0,t1
    a2ac:	000015b7          	lui	a1,0x1
    a2b0:	40b405b3          	sub	a1,s0,a1
    a2b4:	db85b583          	ld	a1,-584(a1) # db8 <.LBB34_1+0xab0>
    a2b8:	01f585b3          	add	a1,a1,t6
    a2bc:	00b50533          	add	a0,a0,a1
    a2c0:	42855513          	srai	a0,a0,0x28
    a2c4:	96a43c23          	sd	a0,-1672(s0)
    a2c8:	00a74663          	blt	a4,a0,a2d4 <.LBB34_914>
    a2cc:	f8100513          	li	a0,-127
    a2d0:	96a43c23          	sd	a0,-1672(s0)

000000000000a2d4 <.LBB34_914>:
    a2d4:	00001537          	lui	a0,0x1
    a2d8:	40a40533          	sub	a0,s0,a0
    a2dc:	e2853503          	ld	a0,-472(a0) # e28 <.LBB34_1+0xb20>
    a2e0:	02650533          	mul	a0,a0,t1
    a2e4:	01f785b3          	add	a1,a5,t6
    a2e8:	00b50533          	add	a0,a0,a1
    a2ec:	42855513          	srai	a0,a0,0x28
    a2f0:	96a43423          	sd	a0,-1688(s0)
    a2f4:	00a74663          	blt	a4,a0,a300 <.LBB34_916>
    a2f8:	f8100513          	li	a0,-127
    a2fc:	96a43423          	sd	a0,-1688(s0)

000000000000a300 <.LBB34_916>:
    a300:	00001537          	lui	a0,0x1
    a304:	40a40533          	sub	a0,s0,a0
    a308:	e9853503          	ld	a0,-360(a0) # e98 <.LBB34_1+0xb90>
    a30c:	02650533          	mul	a0,a0,t1
    a310:	000015b7          	lui	a1,0x1
    a314:	40b405b3          	sub	a1,s0,a1
    a318:	e885b583          	ld	a1,-376(a1) # e88 <.LBB34_1+0xb80>
    a31c:	01f585b3          	add	a1,a1,t6
    a320:	00b50533          	add	a0,a0,a1
    a324:	42855513          	srai	a0,a0,0x28
    a328:	94a43c23          	sd	a0,-1704(s0)
    a32c:	00a74663          	blt	a4,a0,a338 <.LBB34_918>
    a330:	f8100513          	li	a0,-127
    a334:	94a43c23          	sd	a0,-1704(s0)

000000000000a338 <.LBB34_918>:
    a338:	00001537          	lui	a0,0x1
    a33c:	40a40533          	sub	a0,s0,a0
    a340:	f0053503          	ld	a0,-256(a0) # f00 <.LBB34_2+0x4>
    a344:	02650533          	mul	a0,a0,t1
    a348:	000015b7          	lui	a1,0x1
    a34c:	40b405b3          	sub	a1,s0,a1
    a350:	ef05b583          	ld	a1,-272(a1) # ef0 <.LBB34_1+0xbe8>
    a354:	01f585b3          	add	a1,a1,t6
    a358:	00b50533          	add	a0,a0,a1
    a35c:	42855513          	srai	a0,a0,0x28
    a360:	94a43423          	sd	a0,-1720(s0)
    a364:	00a74663          	blt	a4,a0,a370 <.LBB34_920>
    a368:	f8100513          	li	a0,-127
    a36c:	94a43423          	sd	a0,-1720(s0)

000000000000a370 <.LBB34_920>:
    a370:	00001537          	lui	a0,0x1
    a374:	40a40533          	sub	a0,s0,a0
    a378:	f7053503          	ld	a0,-144(a0) # f70 <.LBB34_2+0x74>
    a37c:	02650533          	mul	a0,a0,t1
    a380:	000015b7          	lui	a1,0x1
    a384:	40b405b3          	sub	a1,s0,a1
    a388:	f605b583          	ld	a1,-160(a1) # f60 <.LBB34_2+0x64>
    a38c:	01f585b3          	add	a1,a1,t6
    a390:	00b50533          	add	a0,a0,a1
    a394:	42855513          	srai	a0,a0,0x28
    a398:	92a43c23          	sd	a0,-1736(s0)
    a39c:	00a74663          	blt	a4,a0,a3a8 <.LBB34_922>
    a3a0:	f8100513          	li	a0,-127
    a3a4:	92a43c23          	sd	a0,-1736(s0)

000000000000a3a8 <.LBB34_922>:
    a3a8:	00001537          	lui	a0,0x1
    a3ac:	40a40533          	sub	a0,s0,a0
    a3b0:	fd053503          	ld	a0,-48(a0) # fd0 <.LBB34_2+0xd4>
    a3b4:	02650533          	mul	a0,a0,t1
    a3b8:	000015b7          	lui	a1,0x1
    a3bc:	40b405b3          	sub	a1,s0,a1
    a3c0:	fc85b583          	ld	a1,-56(a1) # fc8 <.LBB34_2+0xcc>
    a3c4:	01f585b3          	add	a1,a1,t6
    a3c8:	00b50533          	add	a0,a0,a1
    a3cc:	42855513          	srai	a0,a0,0x28
    a3d0:	92a43823          	sd	a0,-1744(s0)
    a3d4:	00a74663          	blt	a4,a0,a3e0 <.LBB34_924>
    a3d8:	f8100513          	li	a0,-127
    a3dc:	92a43823          	sd	a0,-1744(s0)

000000000000a3e0 <.LBB34_924>:
    a3e0:	00001537          	lui	a0,0x1
    a3e4:	40a40533          	sub	a0,s0,a0
    a3e8:	04853503          	ld	a0,72(a0) # 1048 <.LBB34_2+0x14c>
    a3ec:	02650533          	mul	a0,a0,t1
    a3f0:	000015b7          	lui	a1,0x1
    a3f4:	40b405b3          	sub	a1,s0,a1
    a3f8:	0405b583          	ld	a1,64(a1) # 1040 <.LBB34_2+0x144>
    a3fc:	01f585b3          	add	a1,a1,t6
    a400:	00b50533          	add	a0,a0,a1
    a404:	42855513          	srai	a0,a0,0x28
    a408:	92a43423          	sd	a0,-1752(s0)
    a40c:	00a74663          	blt	a4,a0,a418 <.LBB34_926>
    a410:	f8100513          	li	a0,-127
    a414:	92a43423          	sd	a0,-1752(s0)

000000000000a418 <.LBB34_926>:
    a418:	00001537          	lui	a0,0x1
    a41c:	40a40533          	sub	a0,s0,a0
    a420:	0b053503          	ld	a0,176(a0) # 10b0 <.LBB34_2+0x1b4>
    a424:	02650533          	mul	a0,a0,t1
    a428:	000015b7          	lui	a1,0x1
    a42c:	40b405b3          	sub	a1,s0,a1
    a430:	0a85b583          	ld	a1,168(a1) # 10a8 <.LBB34_2+0x1ac>
    a434:	01f585b3          	add	a1,a1,t6
    a438:	00b50533          	add	a0,a0,a1
    a43c:	42855513          	srai	a0,a0,0x28
    a440:	92a43023          	sd	a0,-1760(s0)
    a444:	00a74663          	blt	a4,a0,a450 <.LBB34_928>
    a448:	f8100513          	li	a0,-127
    a44c:	92a43023          	sd	a0,-1760(s0)

000000000000a450 <.LBB34_928>:
    a450:	00001537          	lui	a0,0x1
    a454:	40a40533          	sub	a0,s0,a0
    a458:	12853503          	ld	a0,296(a0) # 1128 <.LBB34_2+0x22c>
    a45c:	02650533          	mul	a0,a0,t1
    a460:	000015b7          	lui	a1,0x1
    a464:	40b405b3          	sub	a1,s0,a1
    a468:	1205b583          	ld	a1,288(a1) # 1120 <.LBB34_2+0x224>
    a46c:	01f585b3          	add	a1,a1,t6
    a470:	00b50533          	add	a0,a0,a1
    a474:	42855513          	srai	a0,a0,0x28
    a478:	90a43c23          	sd	a0,-1768(s0)
    a47c:	00a74663          	blt	a4,a0,a488 <.LBB34_930>
    a480:	f8100513          	li	a0,-127
    a484:	90a43c23          	sd	a0,-1768(s0)

000000000000a488 <.LBB34_930>:
    a488:	00001537          	lui	a0,0x1
    a48c:	40a40533          	sub	a0,s0,a0
    a490:	19053503          	ld	a0,400(a0) # 1190 <.LBB34_2+0x294>
    a494:	02650533          	mul	a0,a0,t1
    a498:	000015b7          	lui	a1,0x1
    a49c:	40b405b3          	sub	a1,s0,a1
    a4a0:	1885b583          	ld	a1,392(a1) # 1188 <.LBB34_2+0x28c>
    a4a4:	01f585b3          	add	a1,a1,t6
    a4a8:	00b50533          	add	a0,a0,a1
    a4ac:	42855513          	srai	a0,a0,0x28
    a4b0:	90a43823          	sd	a0,-1776(s0)
    a4b4:	00a74663          	blt	a4,a0,a4c0 <.LBB34_932>
    a4b8:	f8100513          	li	a0,-127
    a4bc:	90a43823          	sd	a0,-1776(s0)

000000000000a4c0 <.LBB34_932>:
    a4c0:	00001537          	lui	a0,0x1
    a4c4:	40a40533          	sub	a0,s0,a0
    a4c8:	1f853503          	ld	a0,504(a0) # 11f8 <.LBB34_2+0x2fc>
    a4cc:	02650533          	mul	a0,a0,t1
    a4d0:	000015b7          	lui	a1,0x1
    a4d4:	40b405b3          	sub	a1,s0,a1
    a4d8:	1f05b583          	ld	a1,496(a1) # 11f0 <.LBB34_2+0x2f4>
    a4dc:	01f585b3          	add	a1,a1,t6
    a4e0:	00b50533          	add	a0,a0,a1
    a4e4:	42855513          	srai	a0,a0,0x28
    a4e8:	90a43423          	sd	a0,-1784(s0)
    a4ec:	00a74663          	blt	a4,a0,a4f8 <.LBB34_934>
    a4f0:	f8100513          	li	a0,-127
    a4f4:	90a43423          	sd	a0,-1784(s0)

000000000000a4f8 <.LBB34_934>:
    a4f8:	00001537          	lui	a0,0x1
    a4fc:	40a40533          	sub	a0,s0,a0
    a500:	25053503          	ld	a0,592(a0) # 1250 <.LBB34_2+0x354>
    a504:	02650533          	mul	a0,a0,t1
    a508:	01fb05b3          	add	a1,s6,t6
    a50c:	00b50533          	add	a0,a0,a1
    a510:	42855513          	srai	a0,a0,0x28
    a514:	90a43023          	sd	a0,-1792(s0)
    a518:	00a74663          	blt	a4,a0,a524 <.LBB34_936>
    a51c:	f8100513          	li	a0,-127
    a520:	90a43023          	sd	a0,-1792(s0)

000000000000a524 <.LBB34_936>:
    a524:	00001537          	lui	a0,0x1
    a528:	40a40533          	sub	a0,s0,a0
    a52c:	2b853503          	ld	a0,696(a0) # 12b8 <.LBB34_2+0x3bc>
    a530:	02650533          	mul	a0,a0,t1
    a534:	000015b7          	lui	a1,0x1
    a538:	40b405b3          	sub	a1,s0,a1
    a53c:	2b05b583          	ld	a1,688(a1) # 12b0 <.LBB34_2+0x3b4>
    a540:	01f585b3          	add	a1,a1,t6
    a544:	00b50533          	add	a0,a0,a1
    a548:	42855513          	srai	a0,a0,0x28
    a54c:	8ea43c23          	sd	a0,-1800(s0)
    a550:	00a74663          	blt	a4,a0,a55c <.LBB34_938>
    a554:	f8100513          	li	a0,-127
    a558:	8ea43c23          	sd	a0,-1800(s0)

000000000000a55c <.LBB34_938>:
    a55c:	00001537          	lui	a0,0x1
    a560:	40a40533          	sub	a0,s0,a0
    a564:	32853503          	ld	a0,808(a0) # 1328 <.LBB34_2+0x42c>
    a568:	02650533          	mul	a0,a0,t1
    a56c:	000015b7          	lui	a1,0x1
    a570:	40b405b3          	sub	a1,s0,a1
    a574:	3205b583          	ld	a1,800(a1) # 1320 <.LBB34_2+0x424>
    a578:	01f585b3          	add	a1,a1,t6
    a57c:	00b50533          	add	a0,a0,a1
    a580:	42855513          	srai	a0,a0,0x28
    a584:	8ea43823          	sd	a0,-1808(s0)
    a588:	00a74663          	blt	a4,a0,a594 <.LBB34_940>
    a58c:	f8100513          	li	a0,-127
    a590:	8ea43823          	sd	a0,-1808(s0)

000000000000a594 <.LBB34_940>:
    a594:	00001537          	lui	a0,0x1
    a598:	40a40533          	sub	a0,s0,a0
    a59c:	39853503          	ld	a0,920(a0) # 1398 <.LBB34_2+0x49c>
    a5a0:	02650533          	mul	a0,a0,t1
    a5a4:	000015b7          	lui	a1,0x1
    a5a8:	40b405b3          	sub	a1,s0,a1
    a5ac:	3905b583          	ld	a1,912(a1) # 1390 <.LBB34_2+0x494>
    a5b0:	01f585b3          	add	a1,a1,t6
    a5b4:	00b50533          	add	a0,a0,a1
    a5b8:	42855513          	srai	a0,a0,0x28
    a5bc:	8ea43423          	sd	a0,-1816(s0)
    a5c0:	00a74663          	blt	a4,a0,a5cc <.LBB34_942>
    a5c4:	f8100513          	li	a0,-127
    a5c8:	8ea43423          	sd	a0,-1816(s0)

000000000000a5cc <.LBB34_942>:
    a5cc:	00001537          	lui	a0,0x1
    a5d0:	40a40533          	sub	a0,s0,a0
    a5d4:	3f053503          	ld	a0,1008(a0) # 13f0 <.LBB34_2+0x4f4>
    a5d8:	02650533          	mul	a0,a0,t1
    a5dc:	000015b7          	lui	a1,0x1
    a5e0:	40b405b3          	sub	a1,s0,a1
    a5e4:	3e85b583          	ld	a1,1000(a1) # 13e8 <.LBB34_2+0x4ec>
    a5e8:	01f585b3          	add	a1,a1,t6
    a5ec:	00b50533          	add	a0,a0,a1
    a5f0:	42855513          	srai	a0,a0,0x28
    a5f4:	8ea43023          	sd	a0,-1824(s0)
    a5f8:	00a74663          	blt	a4,a0,a604 <.LBB34_944>
    a5fc:	f8100513          	li	a0,-127
    a600:	8ea43023          	sd	a0,-1824(s0)

000000000000a604 <.LBB34_944>:
    a604:	00001537          	lui	a0,0x1
    a608:	40a40533          	sub	a0,s0,a0
    a60c:	45053503          	ld	a0,1104(a0) # 1450 <.LBB34_2+0x554>
    a610:	02650533          	mul	a0,a0,t1
    a614:	000015b7          	lui	a1,0x1
    a618:	40b405b3          	sub	a1,s0,a1
    a61c:	4485b583          	ld	a1,1096(a1) # 1448 <.LBB34_2+0x54c>
    a620:	01f585b3          	add	a1,a1,t6
    a624:	00b50533          	add	a0,a0,a1
    a628:	42855513          	srai	a0,a0,0x28
    a62c:	8ca43823          	sd	a0,-1840(s0)
    a630:	00a74663          	blt	a4,a0,a63c <.LBB34_946>
    a634:	f8100513          	li	a0,-127
    a638:	8ca43823          	sd	a0,-1840(s0)

000000000000a63c <.LBB34_946>:
    a63c:	00001537          	lui	a0,0x1
    a640:	40a40533          	sub	a0,s0,a0
    a644:	4b853503          	ld	a0,1208(a0) # 14b8 <.LBB34_3+0x18>
    a648:	02650533          	mul	a0,a0,t1
    a64c:	000015b7          	lui	a1,0x1
    a650:	40b405b3          	sub	a1,s0,a1
    a654:	4b05b583          	ld	a1,1200(a1) # 14b0 <.LBB34_3+0x10>
    a658:	01f585b3          	add	a1,a1,t6
    a65c:	00b50533          	add	a0,a0,a1
    a660:	42855493          	srai	s1,a0,0x28
    a664:	00974463          	blt	a4,s1,a66c <.LBB34_948>
    a668:	f8100493          	li	s1,-127

000000000000a66c <.LBB34_948>:
    a66c:	00001537          	lui	a0,0x1
    a670:	40a40533          	sub	a0,s0,a0
    a674:	51853503          	ld	a0,1304(a0) # 1518 <.LBB34_3+0x78>
    a678:	02650533          	mul	a0,a0,t1
    a67c:	000015b7          	lui	a1,0x1
    a680:	40b405b3          	sub	a1,s0,a1
    a684:	5105b583          	ld	a1,1296(a1) # 1510 <.LBB34_3+0x70>
    a688:	01f585b3          	add	a1,a1,t6
    a68c:	00b50533          	add	a0,a0,a1
    a690:	42855993          	srai	s3,a0,0x28
    a694:	01374463          	blt	a4,s3,a69c <.LBB34_950>
    a698:	f8100993          	li	s3,-127

000000000000a69c <.LBB34_950>:
    a69c:	00001537          	lui	a0,0x1
    a6a0:	40a40533          	sub	a0,s0,a0
    a6a4:	71853503          	ld	a0,1816(a0) # 1718 <.LBB34_3+0x278>
    a6a8:	02650533          	mul	a0,a0,t1
    a6ac:	000015b7          	lui	a1,0x1
    a6b0:	40b405b3          	sub	a1,s0,a1
    a6b4:	7105b583          	ld	a1,1808(a1) # 1710 <.LBB34_3+0x270>
    a6b8:	01f585b3          	add	a1,a1,t6
    a6bc:	00b50533          	add	a0,a0,a1
    a6c0:	42855a13          	srai	s4,a0,0x28
    a6c4:	01474463          	blt	a4,s4,a6cc <.LBB34_952>
    a6c8:	f8100a13          	li	s4,-127

000000000000a6cc <.LBB34_952>:
    a6cc:	00001537          	lui	a0,0x1
    a6d0:	40a40533          	sub	a0,s0,a0
    a6d4:	76853503          	ld	a0,1896(a0) # 1768 <.LBB34_3+0x2c8>
    a6d8:	02650533          	mul	a0,a0,t1
    a6dc:	000015b7          	lui	a1,0x1
    a6e0:	40b405b3          	sub	a1,s0,a1
    a6e4:	7605b583          	ld	a1,1888(a1) # 1760 <.LBB34_3+0x2c0>
    a6e8:	01f585b3          	add	a1,a1,t6
    a6ec:	00b50533          	add	a0,a0,a1
    a6f0:	42855513          	srai	a0,a0,0x28
    a6f4:	8aa43423          	sd	a0,-1880(s0)
    a6f8:	00a74663          	blt	a4,a0,a704 <.LBB34_954>
    a6fc:	f8100513          	li	a0,-127
    a700:	8aa43423          	sd	a0,-1880(s0)

000000000000a704 <.LBB34_954>:
    a704:	00001537          	lui	a0,0x1
    a708:	40a40533          	sub	a0,s0,a0
    a70c:	7e853503          	ld	a0,2024(a0) # 17e8 <.LBB34_3+0x348>
    a710:	02650533          	mul	a0,a0,t1
    a714:	000015b7          	lui	a1,0x1
    a718:	40b405b3          	sub	a1,s0,a1
    a71c:	7e05b583          	ld	a1,2016(a1) # 17e0 <.LBB34_3+0x340>
    a720:	01f585b3          	add	a1,a1,t6
    a724:	00b50533          	add	a0,a0,a1
    a728:	42855513          	srai	a0,a0,0x28
    a72c:	8aa43023          	sd	a0,-1888(s0)
    a730:	00a74663          	blt	a4,a0,a73c <.LBB34_956>
    a734:	f8100513          	li	a0,-127
    a738:	8aa43023          	sd	a0,-1888(s0)

000000000000a73c <.LBB34_956>:
    a73c:	86043503          	ld	a0,-1952(s0)
    a740:	02650533          	mul	a0,a0,t1
    a744:	01f805b3          	add	a1,a6,t6
    a748:	00b50533          	add	a0,a0,a1
    a74c:	42855913          	srai	s2,a0,0x28
    a750:	01274463          	blt	a4,s2,a758 <.LBB34_958>
    a754:	f8100913          	li	s2,-127

000000000000a758 <.LBB34_958>:
    a758:	87043503          	ld	a0,-1936(s0)
    a75c:	02650533          	mul	a0,a0,t1
    a760:	01fd05b3          	add	a1,s10,t6
    a764:	00b50533          	add	a0,a0,a1
    a768:	42855b13          	srai	s6,a0,0x28
    a76c:	01674463          	blt	a4,s6,a774 <.LBB34_960>
    a770:	f8100b13          	li	s6,-127

000000000000a774 <.LBB34_960>:
    a774:	8c043503          	ld	a0,-1856(s0)
    a778:	02650533          	mul	a0,a0,t1
    a77c:	01f605b3          	add	a1,a2,t6
    a780:	00b50533          	add	a0,a0,a1
    a784:	42855513          	srai	a0,a0,0x28
    a788:	88a43023          	sd	a0,-1920(s0)
    a78c:	00a74663          	blt	a4,a0,a798 <.LBB34_962>
    a790:	f8100513          	li	a0,-127
    a794:	88a43023          	sd	a0,-1920(s0)

000000000000a798 <.LBB34_962>:
    a798:	00001537          	lui	a0,0x1
    a79c:	40a40533          	sub	a0,s0,a0
    a7a0:	2d053503          	ld	a0,720(a0) # 12d0 <.LBB34_2+0x3d4>
    a7a4:	02650533          	mul	a0,a0,t1
    a7a8:	8d843583          	ld	a1,-1832(s0)
    a7ac:	01f585b3          	add	a1,a1,t6
    a7b0:	00b50533          	add	a0,a0,a1
    a7b4:	42855513          	srai	a0,a0,0x28
    a7b8:	86a43823          	sd	a0,-1936(s0)
    a7bc:	00a74663          	blt	a4,a0,a7c8 <.LBB34_964>
    a7c0:	f8100513          	li	a0,-127
    a7c4:	86a43823          	sd	a0,-1936(s0)

000000000000a7c8 <.LBB34_964>:
    a7c8:	026c0533          	mul	a0,s8,t1
    a7cc:	000015b7          	lui	a1,0x1
    a7d0:	40b405b3          	sub	a1,s0,a1
    a7d4:	6b05b583          	ld	a1,1712(a1) # 16b0 <.LBB34_3+0x210>
    a7d8:	01f585b3          	add	a1,a1,t6
    a7dc:	00b50533          	add	a0,a0,a1
    a7e0:	42855f13          	srai	t5,a0,0x28
    a7e4:	01e74463          	blt	a4,t5,a7ec <.LBB34_966>
    a7e8:	f8100f13          	li	t5,-127

000000000000a7ec <.LBB34_966>:
    a7ec:	02668533          	mul	a0,a3,t1
    a7f0:	000015b7          	lui	a1,0x1
    a7f4:	40b405b3          	sub	a1,s0,a1
    a7f8:	b805b583          	ld	a1,-1152(a1) # b80 <.LBB34_1+0x878>
    a7fc:	01f585b3          	add	a1,a1,t6
    a800:	00b50533          	add	a0,a0,a1
    a804:	42855513          	srai	a0,a0,0x28
    a808:	8ca43423          	sd	a0,-1848(s0)
    a80c:	00a74663          	blt	a4,a0,a818 <.LBB34_968>
    a810:	f8100513          	li	a0,-127
    a814:	8ca43423          	sd	a0,-1848(s0)

000000000000a818 <.LBB34_968>:
    a818:	00001537          	lui	a0,0x1
    a81c:	40a40533          	sub	a0,s0,a0
    a820:	bf053503          	ld	a0,-1040(a0) # bf0 <.LBB34_1+0x8e8>
    a824:	02650533          	mul	a0,a0,t1
    a828:	000015b7          	lui	a1,0x1
    a82c:	40b405b3          	sub	a1,s0,a1
    a830:	be85b583          	ld	a1,-1048(a1) # be8 <.LBB34_1+0x8e0>
    a834:	01f585b3          	add	a1,a1,t6
    a838:	00b50533          	add	a0,a0,a1
    a83c:	42855513          	srai	a0,a0,0x28
    a840:	8ca43023          	sd	a0,-1856(s0)
    a844:	000015b7          	lui	a1,0x1
    a848:	40b405b3          	sub	a1,s0,a1
    a84c:	c485b583          	ld	a1,-952(a1) # c48 <.LBB34_1+0x940>
    a850:	00a74663          	blt	a4,a0,a85c <.LBB34_970>
    a854:	f8100513          	li	a0,-127
    a858:	8ca43023          	sd	a0,-1856(s0)

000000000000a85c <.LBB34_970>:
    a85c:	00001537          	lui	a0,0x1
    a860:	40a40533          	sub	a0,s0,a0
    a864:	c5053503          	ld	a0,-944(a0) # c50 <.LBB34_1+0x948>
    a868:	02650533          	mul	a0,a0,t1
    a86c:	01f585b3          	add	a1,a1,t6
    a870:	00b50533          	add	a0,a0,a1
    a874:	42855513          	srai	a0,a0,0x28
    a878:	8aa43c23          	sd	a0,-1864(s0)
    a87c:	00a74663          	blt	a4,a0,a888 <.LBB34_972>
    a880:	f8100513          	li	a0,-127
    a884:	8aa43c23          	sd	a0,-1864(s0)

000000000000a888 <.LBB34_972>:
    a888:	00001537          	lui	a0,0x1
    a88c:	40a40533          	sub	a0,s0,a0
    a890:	cc053503          	ld	a0,-832(a0) # cc0 <.LBB34_1+0x9b8>
    a894:	02650533          	mul	a0,a0,t1
    a898:	000015b7          	lui	a1,0x1
    a89c:	40b405b3          	sub	a1,s0,a1
    a8a0:	cb85b583          	ld	a1,-840(a1) # cb8 <.LBB34_1+0x9b0>
    a8a4:	01f585b3          	add	a1,a1,t6
    a8a8:	00b50533          	add	a0,a0,a1
    a8ac:	42855513          	srai	a0,a0,0x28
    a8b0:	8aa43823          	sd	a0,-1872(s0)
    a8b4:	00a74663          	blt	a4,a0,a8c0 <.LBB34_974>
    a8b8:	f8100513          	li	a0,-127
    a8bc:	8aa43823          	sd	a0,-1872(s0)

000000000000a8c0 <.LBB34_974>:
    a8c0:	00001537          	lui	a0,0x1
    a8c4:	40a40533          	sub	a0,s0,a0
    a8c8:	d3853503          	ld	a0,-712(a0) # d38 <.LBB34_1+0xa30>
    a8cc:	02650533          	mul	a0,a0,t1
    a8d0:	000015b7          	lui	a1,0x1
    a8d4:	40b405b3          	sub	a1,s0,a1
    a8d8:	d305b583          	ld	a1,-720(a1) # d30 <.LBB34_1+0xa28>
    a8dc:	01f585b3          	add	a1,a1,t6
    a8e0:	00b50533          	add	a0,a0,a1
    a8e4:	42855a93          	srai	s5,a0,0x28
    a8e8:	01574463          	blt	a4,s5,a8f0 <.LBB34_976>
    a8ec:	f8100a93          	li	s5,-127

000000000000a8f0 <.LBB34_976>:
    a8f0:	00001537          	lui	a0,0x1
    a8f4:	40a40533          	sub	a0,s0,a0
    a8f8:	db053503          	ld	a0,-592(a0) # db0 <.LBB34_1+0xaa8>
    a8fc:	02650533          	mul	a0,a0,t1
    a900:	000015b7          	lui	a1,0x1
    a904:	40b405b3          	sub	a1,s0,a1
    a908:	da05b583          	ld	a1,-608(a1) # da0 <.LBB34_1+0xa98>
    a90c:	01f585b3          	add	a1,a1,t6
    a910:	00b50533          	add	a0,a0,a1
    a914:	42855513          	srai	a0,a0,0x28
    a918:	88a43c23          	sd	a0,-1896(s0)
    a91c:	00a74663          	blt	a4,a0,a928 <.LBB34_978>
    a920:	f8100513          	li	a0,-127
    a924:	88a43c23          	sd	a0,-1896(s0)

000000000000a928 <.LBB34_978>:
    a928:	00001537          	lui	a0,0x1
    a92c:	40a40533          	sub	a0,s0,a0
    a930:	e1053503          	ld	a0,-496(a0) # e10 <.LBB34_1+0xb08>
    a934:	02650533          	mul	a0,a0,t1
    a938:	000015b7          	lui	a1,0x1
    a93c:	40b405b3          	sub	a1,s0,a1
    a940:	e005b583          	ld	a1,-512(a1) # e00 <.LBB34_1+0xaf8>
    a944:	01f585b3          	add	a1,a1,t6
    a948:	00b50533          	add	a0,a0,a1
    a94c:	42855513          	srai	a0,a0,0x28
    a950:	88a43823          	sd	a0,-1904(s0)
    a954:	00a74663          	blt	a4,a0,a960 <.LBB34_980>
    a958:	f8100513          	li	a0,-127
    a95c:	88a43823          	sd	a0,-1904(s0)

000000000000a960 <.LBB34_980>:
    a960:	00001537          	lui	a0,0x1
    a964:	40a40533          	sub	a0,s0,a0
    a968:	e8053503          	ld	a0,-384(a0) # e80 <.LBB34_1+0xb78>
    a96c:	02650533          	mul	a0,a0,t1
    a970:	000015b7          	lui	a1,0x1
    a974:	40b405b3          	sub	a1,s0,a1
    a978:	e705b583          	ld	a1,-400(a1) # e70 <.LBB34_1+0xb68>
    a97c:	01f585b3          	add	a1,a1,t6
    a980:	00b50533          	add	a0,a0,a1
    a984:	42855513          	srai	a0,a0,0x28
    a988:	88a43423          	sd	a0,-1912(s0)
    a98c:	00a74663          	blt	a4,a0,a998 <.LBB34_982>
    a990:	f8100513          	li	a0,-127
    a994:	88a43423          	sd	a0,-1912(s0)

000000000000a998 <.LBB34_982>:
    a998:	00001537          	lui	a0,0x1
    a99c:	40a40533          	sub	a0,s0,a0
    a9a0:	ee853503          	ld	a0,-280(a0) # ee8 <.LBB34_1+0xbe0>
    a9a4:	02650533          	mul	a0,a0,t1
    a9a8:	000015b7          	lui	a1,0x1
    a9ac:	40b405b3          	sub	a1,s0,a1
    a9b0:	ee05b583          	ld	a1,-288(a1) # ee0 <.LBB34_1+0xbd8>
    a9b4:	01f585b3          	add	a1,a1,t6
    a9b8:	00b50533          	add	a0,a0,a1
    a9bc:	42855513          	srai	a0,a0,0x28
    a9c0:	86a43c23          	sd	a0,-1928(s0)
    a9c4:	00a74663          	blt	a4,a0,a9d0 <.LBB34_984>
    a9c8:	f8100513          	li	a0,-127
    a9cc:	86a43c23          	sd	a0,-1928(s0)

000000000000a9d0 <.LBB34_984>:
    a9d0:	00001537          	lui	a0,0x1
    a9d4:	40a40533          	sub	a0,s0,a0
    a9d8:	f5853503          	ld	a0,-168(a0) # f58 <.LBB34_2+0x5c>
    a9dc:	02650533          	mul	a0,a0,t1
    a9e0:	000015b7          	lui	a1,0x1
    a9e4:	40b405b3          	sub	a1,s0,a1
    a9e8:	f505b583          	ld	a1,-176(a1) # f50 <.LBB34_2+0x54>
    a9ec:	01f585b3          	add	a1,a1,t6
    a9f0:	00b50533          	add	a0,a0,a1
    a9f4:	42855513          	srai	a0,a0,0x28
    a9f8:	86a43423          	sd	a0,-1944(s0)
    a9fc:	00a74663          	blt	a4,a0,aa08 <.LBB34_986>
    aa00:	f8100513          	li	a0,-127
    aa04:	86a43423          	sd	a0,-1944(s0)

000000000000aa08 <.LBB34_986>:
    aa08:	00001537          	lui	a0,0x1
    aa0c:	40a40533          	sub	a0,s0,a0
    aa10:	fc053503          	ld	a0,-64(a0) # fc0 <.LBB34_2+0xc4>
    aa14:	02650533          	mul	a0,a0,t1
    aa18:	000015b7          	lui	a1,0x1
    aa1c:	40b405b3          	sub	a1,s0,a1
    aa20:	fb85b583          	ld	a1,-72(a1) # fb8 <.LBB34_2+0xbc>
    aa24:	01f585b3          	add	a1,a1,t6
    aa28:	00b50533          	add	a0,a0,a1
    aa2c:	42855513          	srai	a0,a0,0x28
    aa30:	86a43023          	sd	a0,-1952(s0)
    aa34:	00a74663          	blt	a4,a0,aa40 <.LBB34_988>
    aa38:	f8100513          	li	a0,-127
    aa3c:	86a43023          	sd	a0,-1952(s0)

000000000000aa40 <.LBB34_988>:
    aa40:	00001537          	lui	a0,0x1
    aa44:	40a40533          	sub	a0,s0,a0
    aa48:	03853503          	ld	a0,56(a0) # 1038 <.LBB34_2+0x13c>
    aa4c:	02650533          	mul	a0,a0,t1
    aa50:	000015b7          	lui	a1,0x1
    aa54:	40b405b3          	sub	a1,s0,a1
    aa58:	0305b583          	ld	a1,48(a1) # 1030 <.LBB34_2+0x134>
    aa5c:	01f585b3          	add	a1,a1,t6
    aa60:	00b50533          	add	a0,a0,a1
    aa64:	42855513          	srai	a0,a0,0x28
    aa68:	84a43c23          	sd	a0,-1960(s0)
    aa6c:	00a74663          	blt	a4,a0,aa78 <.LBB34_990>
    aa70:	f8100513          	li	a0,-127
    aa74:	84a43c23          	sd	a0,-1960(s0)

000000000000aa78 <.LBB34_990>:
    aa78:	00001537          	lui	a0,0x1
    aa7c:	40a40533          	sub	a0,s0,a0
    aa80:	0a053503          	ld	a0,160(a0) # 10a0 <.LBB34_2+0x1a4>
    aa84:	02650533          	mul	a0,a0,t1
    aa88:	000015b7          	lui	a1,0x1
    aa8c:	40b405b3          	sub	a1,s0,a1
    aa90:	0985b583          	ld	a1,152(a1) # 1098 <.LBB34_2+0x19c>
    aa94:	01f585b3          	add	a1,a1,t6
    aa98:	00b50533          	add	a0,a0,a1
    aa9c:	42855513          	srai	a0,a0,0x28
    aaa0:	84a43823          	sd	a0,-1968(s0)
    aaa4:	00a74663          	blt	a4,a0,aab0 <.LBB34_992>
    aaa8:	f8100513          	li	a0,-127
    aaac:	84a43823          	sd	a0,-1968(s0)

000000000000aab0 <.LBB34_992>:
    aab0:	00001537          	lui	a0,0x1
    aab4:	40a40533          	sub	a0,s0,a0
    aab8:	11853503          	ld	a0,280(a0) # 1118 <.LBB34_2+0x21c>
    aabc:	02650533          	mul	a0,a0,t1
    aac0:	000015b7          	lui	a1,0x1
    aac4:	40b405b3          	sub	a1,s0,a1
    aac8:	1105b583          	ld	a1,272(a1) # 1110 <.LBB34_2+0x214>
    aacc:	01f585b3          	add	a1,a1,t6
    aad0:	00b50533          	add	a0,a0,a1
    aad4:	42855513          	srai	a0,a0,0x28
    aad8:	84a43423          	sd	a0,-1976(s0)
    aadc:	00a74663          	blt	a4,a0,aae8 <.LBB34_994>
    aae0:	f8100513          	li	a0,-127
    aae4:	84a43423          	sd	a0,-1976(s0)

000000000000aae8 <.LBB34_994>:
    aae8:	00001537          	lui	a0,0x1
    aaec:	40a40533          	sub	a0,s0,a0
    aaf0:	18053503          	ld	a0,384(a0) # 1180 <.LBB34_2+0x284>
    aaf4:	02650533          	mul	a0,a0,t1
    aaf8:	000015b7          	lui	a1,0x1
    aafc:	40b405b3          	sub	a1,s0,a1
    ab00:	1785b603          	ld	a2,376(a1) # 1178 <.LBB34_2+0x27c>
    ab04:	01f60633          	add	a2,a2,t6
    ab08:	00c50533          	add	a0,a0,a2
    ab0c:	42855393          	srai	t2,a0,0x28
    ab10:	00774463          	blt	a4,t2,ab18 <.LBB34_996>
    ab14:	f8100393          	li	t2,-127

000000000000ab18 <.LBB34_996>:
    ab18:	00001537          	lui	a0,0x1
    ab1c:	40a40533          	sub	a0,s0,a0
    ab20:	1e853503          	ld	a0,488(a0) # 11e8 <.LBB34_2+0x2ec>
    ab24:	02650533          	mul	a0,a0,t1
    ab28:	000015b7          	lui	a1,0x1
    ab2c:	40b405b3          	sub	a1,s0,a1
    ab30:	1e05b603          	ld	a2,480(a1) # 11e0 <.LBB34_2+0x2e4>
    ab34:	01f60633          	add	a2,a2,t6
    ab38:	00c50533          	add	a0,a0,a2
    ab3c:	42855e13          	srai	t3,a0,0x28
    ab40:	01c74463          	blt	a4,t3,ab48 <.LBB34_998>
    ab44:	f8100e13          	li	t3,-127

000000000000ab48 <.LBB34_998>:
    ab48:	00001537          	lui	a0,0x1
    ab4c:	40a40533          	sub	a0,s0,a0
    ab50:	24853503          	ld	a0,584(a0) # 1248 <.LBB34_2+0x34c>
    ab54:	02650533          	mul	a0,a0,t1
    ab58:	01f88633          	add	a2,a7,t6
    ab5c:	00c50533          	add	a0,a0,a2
    ab60:	42855e93          	srai	t4,a0,0x28
    ab64:	01d74463          	blt	a4,t4,ab6c <.LBB34_1000>
    ab68:	f8100e93          	li	t4,-127

000000000000ab6c <.LBB34_1000>:
    ab6c:	00001537          	lui	a0,0x1
    ab70:	40a40533          	sub	a0,s0,a0
    ab74:	2a853503          	ld	a0,680(a0) # 12a8 <.LBB34_2+0x3ac>
    ab78:	02650533          	mul	a0,a0,t1
    ab7c:	000015b7          	lui	a1,0x1
    ab80:	40b405b3          	sub	a1,s0,a1
    ab84:	2a05b603          	ld	a2,672(a1) # 12a0 <.LBB34_2+0x3a4>
    ab88:	01f60633          	add	a2,a2,t6
    ab8c:	00c50533          	add	a0,a0,a2
    ab90:	42855b93          	srai	s7,a0,0x28
    ab94:	01774463          	blt	a4,s7,ab9c <.LBB34_1002>
    ab98:	f8100b93          	li	s7,-127

000000000000ab9c <.LBB34_1002>:
    ab9c:	00001537          	lui	a0,0x1
    aba0:	40a40533          	sub	a0,s0,a0
    aba4:	31853503          	ld	a0,792(a0) # 1318 <.LBB34_2+0x41c>
    aba8:	02650533          	mul	a0,a0,t1
    abac:	000015b7          	lui	a1,0x1
    abb0:	40b405b3          	sub	a1,s0,a1
    abb4:	3105b603          	ld	a2,784(a1) # 1310 <.LBB34_2+0x414>
    abb8:	01f60633          	add	a2,a2,t6
    abbc:	00c50533          	add	a0,a0,a2
    abc0:	42855c13          	srai	s8,a0,0x28
    abc4:	01874463          	blt	a4,s8,abcc <.LBB34_1004>
    abc8:	f8100c13          	li	s8,-127

000000000000abcc <.LBB34_1004>:
    abcc:	00001537          	lui	a0,0x1
    abd0:	40a40533          	sub	a0,s0,a0
    abd4:	38853503          	ld	a0,904(a0) # 1388 <.LBB34_2+0x48c>
    abd8:	02650533          	mul	a0,a0,t1
    abdc:	000015b7          	lui	a1,0x1
    abe0:	40b405b3          	sub	a1,s0,a1
    abe4:	3805b603          	ld	a2,896(a1) # 1380 <.LBB34_2+0x484>
    abe8:	01f60633          	add	a2,a2,t6
    abec:	00c50533          	add	a0,a0,a2
    abf0:	42855c93          	srai	s9,a0,0x28
    abf4:	01974463          	blt	a4,s9,abfc <.LBB34_1006>
    abf8:	f8100c93          	li	s9,-127

000000000000abfc <.LBB34_1006>:
    abfc:	00001537          	lui	a0,0x1
    ac00:	40a40533          	sub	a0,s0,a0
    ac04:	3e053503          	ld	a0,992(a0) # 13e0 <.LBB34_2+0x4e4>
    ac08:	02650533          	mul	a0,a0,t1
    ac0c:	000015b7          	lui	a1,0x1
    ac10:	40b405b3          	sub	a1,s0,a1
    ac14:	3d85b603          	ld	a2,984(a1) # 13d8 <.LBB34_2+0x4dc>
    ac18:	01f60633          	add	a2,a2,t6
    ac1c:	00c50533          	add	a0,a0,a2
    ac20:	42855d13          	srai	s10,a0,0x28
    ac24:	01a74463          	blt	a4,s10,ac2c <.LBB34_1008>
    ac28:	f8100d13          	li	s10,-127

000000000000ac2c <.LBB34_1008>:
    ac2c:	00001537          	lui	a0,0x1
    ac30:	40a40533          	sub	a0,s0,a0
    ac34:	44053503          	ld	a0,1088(a0) # 1440 <.LBB34_2+0x544>
    ac38:	02650533          	mul	a0,a0,t1
    ac3c:	000015b7          	lui	a1,0x1
    ac40:	40b405b3          	sub	a1,s0,a1
    ac44:	4385b603          	ld	a2,1080(a1) # 1438 <.LBB34_2+0x53c>
    ac48:	01f60633          	add	a2,a2,t6
    ac4c:	00c50533          	add	a0,a0,a2
    ac50:	42855d93          	srai	s11,a0,0x28
    ac54:	01b74463          	blt	a4,s11,ac5c <.LBB34_1010>
    ac58:	f8100d93          	li	s11,-127

000000000000ac5c <.LBB34_1010>:
    ac5c:	00001537          	lui	a0,0x1
    ac60:	40a40533          	sub	a0,s0,a0
    ac64:	4a853503          	ld	a0,1192(a0) # 14a8 <.LBB34_3+0x8>
    ac68:	02650533          	mul	a0,a0,t1
    ac6c:	000015b7          	lui	a1,0x1
    ac70:	40b405b3          	sub	a1,s0,a1
    ac74:	4a05b603          	ld	a2,1184(a1) # 14a0 <.LBB34_3>
    ac78:	01f60633          	add	a2,a2,t6
    ac7c:	00c50533          	add	a0,a0,a2
    ac80:	42855093          	srai	ra,a0,0x28
    ac84:	00174463          	blt	a4,ra,ac8c <.LBB34_1012>
    ac88:	f8100093          	li	ra,-127

000000000000ac8c <.LBB34_1012>:
    ac8c:	00001537          	lui	a0,0x1
    ac90:	40a40533          	sub	a0,s0,a0
    ac94:	50853503          	ld	a0,1288(a0) # 1508 <.LBB34_3+0x68>
    ac98:	02650533          	mul	a0,a0,t1
    ac9c:	000015b7          	lui	a1,0x1
    aca0:	40b405b3          	sub	a1,s0,a1
    aca4:	5005b603          	ld	a2,1280(a1) # 1500 <.LBB34_3+0x60>
    aca8:	01f60633          	add	a2,a2,t6
    acac:	00c50533          	add	a0,a0,a2
    acb0:	42855693          	srai	a3,a0,0x28
    acb4:	00d74463          	blt	a4,a3,acbc <.LBB34_1014>
    acb8:	f8100693          	li	a3,-127

000000000000acbc <.LBB34_1014>:
    acbc:	00001537          	lui	a0,0x1
    acc0:	40a40533          	sub	a0,s0,a0
    acc4:	70853503          	ld	a0,1800(a0) # 1708 <.LBB34_3+0x268>
    acc8:	02650533          	mul	a0,a0,t1
    accc:	000015b7          	lui	a1,0x1
    acd0:	40b405b3          	sub	a1,s0,a1
    acd4:	7005b603          	ld	a2,1792(a1) # 1700 <.LBB34_3+0x260>
    acd8:	01f60633          	add	a2,a2,t6
    acdc:	00c50533          	add	a0,a0,a2
    ace0:	42855613          	srai	a2,a0,0x28
    ace4:	00c74463          	blt	a4,a2,acec <.LBB34_1016>
    ace8:	f8100613          	li	a2,-127

000000000000acec <.LBB34_1016>:
    acec:	00001537          	lui	a0,0x1
    acf0:	40a40533          	sub	a0,s0,a0
    acf4:	75853503          	ld	a0,1880(a0) # 1758 <.LBB34_3+0x2b8>
    acf8:	02650533          	mul	a0,a0,t1
    acfc:	000015b7          	lui	a1,0x1
    ad00:	40b405b3          	sub	a1,s0,a1
    ad04:	7505b783          	ld	a5,1872(a1) # 1750 <.LBB34_3+0x2b0>
    ad08:	01f787b3          	add	a5,a5,t6
    ad0c:	00f50533          	add	a0,a0,a5
    ad10:	42855513          	srai	a0,a0,0x28
    ad14:	00a74463          	blt	a4,a0,ad1c <.LBB34_1018>
    ad18:	f8100513          	li	a0,-127

000000000000ad1c <.LBB34_1018>:
    ad1c:	000015b7          	lui	a1,0x1
    ad20:	40b405b3          	sub	a1,s0,a1
    ad24:	7d85b783          	ld	a5,2008(a1) # 17d8 <.LBB34_3+0x338>
    ad28:	026787b3          	mul	a5,a5,t1
    ad2c:	000015b7          	lui	a1,0x1
    ad30:	40b405b3          	sub	a1,s0,a1
    ad34:	7d05b803          	ld	a6,2000(a1) # 17d0 <.LBB34_3+0x330>
    ad38:	01f80833          	add	a6,a6,t6
    ad3c:	010787b3          	add	a5,a5,a6
    ad40:	4287d793          	srai	a5,a5,0x28
    ad44:	00f74463          	blt	a4,a5,ad4c <.LBB34_1020>
    ad48:	f8100793          	li	a5,-127

000000000000ad4c <.LBB34_1020>:
    ad4c:	80843803          	ld	a6,-2040(s0)
    ad50:	02680833          	mul	a6,a6,t1
    ad54:	80043883          	ld	a7,-2048(s0)
    ad58:	01f888b3          	add	a7,a7,t6
    ad5c:	01180833          	add	a6,a6,a7
    ad60:	42885813          	srai	a6,a6,0x28
    ad64:	01074463          	blt	a4,a6,ad6c <.LBB34_1022>
    ad68:	f8100813          	li	a6,-127

000000000000ad6c <.LBB34_1022>:
    ad6c:	81843883          	ld	a7,-2024(s0)
    ad70:	026888b3          	mul	a7,a7,t1
    ad74:	81043283          	ld	t0,-2032(s0)
    ad78:	01f282b3          	add	t0,t0,t6
    ad7c:	005888b3          	add	a7,a7,t0
    ad80:	4288d893          	srai	a7,a7,0x28
    ad84:	01174463          	blt	a4,a7,ad8c <.LBB34_1024>
    ad88:	f8100893          	li	a7,-127

000000000000ad8c <.LBB34_1024>:
    ad8c:	8de43c23          	sd	t5,-1832(s0)
    ad90:	82843283          	ld	t0,-2008(s0)
    ad94:	026282b3          	mul	t0,t0,t1
    ad98:	82043303          	ld	t1,-2016(s0)
    ad9c:	01f30333          	add	t1,t1,t6
    ada0:	006282b3          	add	t0,t0,t1
    ada4:	4282d293          	srai	t0,t0,0x28
    ada8:	00574463          	blt	a4,t0,adb0 <.LBB34_1026>
    adac:	f8100293          	li	t0,-127

000000000000adb0 <.LBB34_1026>:
    adb0:	000015b7          	lui	a1,0x1
    adb4:	40b405b3          	sub	a1,s0,a1
    adb8:	6885b303          	ld	t1,1672(a1) # 1688 <.LBB34_3+0x1e8>
    adbc:	83843f03          	ld	t5,-1992(s0)
    adc0:	026f0333          	mul	t1,t5,t1
    adc4:	83043f03          	ld	t5,-2000(s0)
    adc8:	01ff0f33          	add	t5,t5,t6
    adcc:	01e30333          	add	t1,t1,t5
    add0:	42835313          	srai	t1,t1,0x28
    add4:	7c675463          	bge	a4,t1,b59c <.LBB34_1283>
    add8:	08000713          	li	a4,128
    addc:	84043f83          	ld	t6,-1984(s0)
    ade0:	7cefd663          	bge	t6,a4,b5ac <.LBB34_1284>

000000000000ade4 <.LBB34_1028>:
    ade4:	e4843f03          	ld	t5,-440(s0)
    ade8:	7cef5863          	bge	t5,a4,b5b8 <.LBB34_1285>

000000000000adec <.LBB34_1029>:
    adec:	e5843f03          	ld	t5,-424(s0)
    adf0:	7cef5c63          	bge	t5,a4,b5c8 <.LBB34_1286>

000000000000adf4 <.LBB34_1030>:
    adf4:	e7043f03          	ld	t5,-400(s0)
    adf8:	7eef5063          	bge	t5,a4,b5d8 <.LBB34_1287>

000000000000adfc <.LBB34_1031>:
    adfc:	e8043f03          	ld	t5,-384(s0)
    ae00:	7eef5463          	bge	t5,a4,b5e8 <.LBB34_1288>

000000000000ae04 <.LBB34_1032>:
    ae04:	e9043f03          	ld	t5,-368(s0)
    ae08:	7eef5863          	bge	t5,a4,b5f8 <.LBB34_1289>

000000000000ae0c <.LBB34_1033>:
    ae0c:	ea043f03          	ld	t5,-352(s0)
    ae10:	7eef5c63          	bge	t5,a4,b608 <.LBB34_1290>

000000000000ae14 <.LBB34_1034>:
    ae14:	eb043f03          	ld	t5,-336(s0)
    ae18:	00ef50e3          	bge	t5,a4,b618 <.LBB34_1291>

000000000000ae1c <.LBB34_1035>:
    ae1c:	ec043f03          	ld	t5,-320(s0)
    ae20:	00ef54e3          	bge	t5,a4,b628 <.LBB34_1292>

000000000000ae24 <.LBB34_1036>:
    ae24:	ed043f03          	ld	t5,-304(s0)
    ae28:	00ef58e3          	bge	t5,a4,b638 <.LBB34_1293>

000000000000ae2c <.LBB34_1037>:
    ae2c:	ee043f03          	ld	t5,-288(s0)
    ae30:	00ef5ce3          	bge	t5,a4,b648 <.LBB34_1294>

000000000000ae34 <.LBB34_1038>:
    ae34:	ee843f03          	ld	t5,-280(s0)
    ae38:	02ef50e3          	bge	t5,a4,b658 <.LBB34_1295>

000000000000ae3c <.LBB34_1039>:
    ae3c:	ef043f03          	ld	t5,-272(s0)
    ae40:	02ef54e3          	bge	t5,a4,b668 <.LBB34_1296>

000000000000ae44 <.LBB34_1040>:
    ae44:	ef843f03          	ld	t5,-264(s0)
    ae48:	02ef58e3          	bge	t5,a4,b678 <.LBB34_1297>

000000000000ae4c <.LBB34_1041>:
    ae4c:	f0043f03          	ld	t5,-256(s0)
    ae50:	02ef5ce3          	bge	t5,a4,b688 <.LBB34_1298>

000000000000ae54 <.LBB34_1042>:
    ae54:	f0843f03          	ld	t5,-248(s0)
    ae58:	04ef50e3          	bge	t5,a4,b698 <.LBB34_1299>

000000000000ae5c <.LBB34_1043>:
    ae5c:	f1043f03          	ld	t5,-240(s0)
    ae60:	04ef54e3          	bge	t5,a4,b6a8 <.LBB34_1300>

000000000000ae64 <.LBB34_1044>:
    ae64:	f1843f03          	ld	t5,-232(s0)
    ae68:	04ef58e3          	bge	t5,a4,b6b8 <.LBB34_1301>

000000000000ae6c <.LBB34_1045>:
    ae6c:	f2043f03          	ld	t5,-224(s0)
    ae70:	04ef5ce3          	bge	t5,a4,b6c8 <.LBB34_1302>

000000000000ae74 <.LBB34_1046>:
    ae74:	f2843f03          	ld	t5,-216(s0)
    ae78:	06ef50e3          	bge	t5,a4,b6d8 <.LBB34_1303>

000000000000ae7c <.LBB34_1047>:
    ae7c:	f3043f03          	ld	t5,-208(s0)
    ae80:	06ef54e3          	bge	t5,a4,b6e8 <.LBB34_1304>

000000000000ae84 <.LBB34_1048>:
    ae84:	f3843f03          	ld	t5,-200(s0)
    ae88:	06ef58e3          	bge	t5,a4,b6f8 <.LBB34_1305>

000000000000ae8c <.LBB34_1049>:
    ae8c:	f4043f03          	ld	t5,-192(s0)
    ae90:	06ef5ce3          	bge	t5,a4,b708 <.LBB34_1306>

000000000000ae94 <.LBB34_1050>:
    ae94:	f4843f03          	ld	t5,-184(s0)
    ae98:	08ef50e3          	bge	t5,a4,b718 <.LBB34_1307>

000000000000ae9c <.LBB34_1051>:
    ae9c:	f5043f03          	ld	t5,-176(s0)
    aea0:	08ef54e3          	bge	t5,a4,b728 <.LBB34_1308>

000000000000aea4 <.LBB34_1052>:
    aea4:	f5843f03          	ld	t5,-168(s0)
    aea8:	08ef58e3          	bge	t5,a4,b738 <.LBB34_1309>

000000000000aeac <.LBB34_1053>:
    aeac:	f6043f03          	ld	t5,-160(s0)
    aeb0:	08ef5ce3          	bge	t5,a4,b748 <.LBB34_1310>

000000000000aeb4 <.LBB34_1054>:
    aeb4:	f6843f03          	ld	t5,-152(s0)
    aeb8:	0aef50e3          	bge	t5,a4,b758 <.LBB34_1311>

000000000000aebc <.LBB34_1055>:
    aebc:	f7043f03          	ld	t5,-144(s0)
    aec0:	0aef54e3          	bge	t5,a4,b768 <.LBB34_1312>

000000000000aec4 <.LBB34_1056>:
    aec4:	f7843f03          	ld	t5,-136(s0)
    aec8:	0aef58e3          	bge	t5,a4,b778 <.LBB34_1313>

000000000000aecc <.LBB34_1057>:
    aecc:	f8043f03          	ld	t5,-128(s0)
    aed0:	0aef5ce3          	bge	t5,a4,b788 <.LBB34_1314>

000000000000aed4 <.LBB34_1058>:
    aed4:	f8843f03          	ld	t5,-120(s0)
    aed8:	0cef50e3          	bge	t5,a4,b798 <.LBB34_1315>

000000000000aedc <.LBB34_1059>:
    aedc:	d4043f03          	ld	t5,-704(s0)
    aee0:	0cef54e3          	bge	t5,a4,b7a8 <.LBB34_1316>

000000000000aee4 <.LBB34_1060>:
    aee4:	d5043f03          	ld	t5,-688(s0)
    aee8:	0cef58e3          	bge	t5,a4,b7b8 <.LBB34_1317>

000000000000aeec <.LBB34_1061>:
    aeec:	d6043f03          	ld	t5,-672(s0)
    aef0:	0cef5ce3          	bge	t5,a4,b7c8 <.LBB34_1318>

000000000000aef4 <.LBB34_1062>:
    aef4:	d7043f03          	ld	t5,-656(s0)
    aef8:	0eef50e3          	bge	t5,a4,b7d8 <.LBB34_1319>

000000000000aefc <.LBB34_1063>:
    aefc:	d8043f03          	ld	t5,-640(s0)
    af00:	0eef54e3          	bge	t5,a4,b7e8 <.LBB34_1320>

000000000000af04 <.LBB34_1064>:
    af04:	d9043f03          	ld	t5,-624(s0)
    af08:	0eef58e3          	bge	t5,a4,b7f8 <.LBB34_1321>

000000000000af0c <.LBB34_1065>:
    af0c:	da043f03          	ld	t5,-608(s0)
    af10:	0eef5ce3          	bge	t5,a4,b808 <.LBB34_1322>

000000000000af14 <.LBB34_1066>:
    af14:	db043f03          	ld	t5,-592(s0)
    af18:	10ef50e3          	bge	t5,a4,b818 <.LBB34_1323>

000000000000af1c <.LBB34_1067>:
    af1c:	dc043f03          	ld	t5,-576(s0)
    af20:	10ef54e3          	bge	t5,a4,b828 <.LBB34_1324>

000000000000af24 <.LBB34_1068>:
    af24:	dd043f03          	ld	t5,-560(s0)
    af28:	10ef58e3          	bge	t5,a4,b838 <.LBB34_1325>

000000000000af2c <.LBB34_1069>:
    af2c:	de043f03          	ld	t5,-544(s0)
    af30:	10ef5ce3          	bge	t5,a4,b848 <.LBB34_1326>

000000000000af34 <.LBB34_1070>:
    af34:	de843f03          	ld	t5,-536(s0)
    af38:	12ef50e3          	bge	t5,a4,b858 <.LBB34_1327>

000000000000af3c <.LBB34_1071>:
    af3c:	df043f03          	ld	t5,-528(s0)
    af40:	12ef54e3          	bge	t5,a4,b868 <.LBB34_1328>

000000000000af44 <.LBB34_1072>:
    af44:	df843f03          	ld	t5,-520(s0)
    af48:	12ef58e3          	bge	t5,a4,b878 <.LBB34_1329>

000000000000af4c <.LBB34_1073>:
    af4c:	e0043f03          	ld	t5,-512(s0)
    af50:	12ef5ce3          	bge	t5,a4,b888 <.LBB34_1330>

000000000000af54 <.LBB34_1074>:
    af54:	e0843f03          	ld	t5,-504(s0)
    af58:	14ef50e3          	bge	t5,a4,b898 <.LBB34_1331>

000000000000af5c <.LBB34_1075>:
    af5c:	e1043f03          	ld	t5,-496(s0)
    af60:	14ef54e3          	bge	t5,a4,b8a8 <.LBB34_1332>

000000000000af64 <.LBB34_1076>:
    af64:	e1843f03          	ld	t5,-488(s0)
    af68:	14ef58e3          	bge	t5,a4,b8b8 <.LBB34_1333>

000000000000af6c <.LBB34_1077>:
    af6c:	e2043f03          	ld	t5,-480(s0)
    af70:	14ef5ce3          	bge	t5,a4,b8c8 <.LBB34_1334>

000000000000af74 <.LBB34_1078>:
    af74:	e2843f03          	ld	t5,-472(s0)
    af78:	16ef50e3          	bge	t5,a4,b8d8 <.LBB34_1335>

000000000000af7c <.LBB34_1079>:
    af7c:	e3043f03          	ld	t5,-464(s0)
    af80:	16ef54e3          	bge	t5,a4,b8e8 <.LBB34_1336>

000000000000af84 <.LBB34_1080>:
    af84:	e3843f03          	ld	t5,-456(s0)
    af88:	16ef58e3          	bge	t5,a4,b8f8 <.LBB34_1337>

000000000000af8c <.LBB34_1081>:
    af8c:	e4043f03          	ld	t5,-448(s0)
    af90:	16ef5ce3          	bge	t5,a4,b908 <.LBB34_1338>

000000000000af94 <.LBB34_1082>:
    af94:	e5043f03          	ld	t5,-432(s0)
    af98:	18ef50e3          	bge	t5,a4,b918 <.LBB34_1339>

000000000000af9c <.LBB34_1083>:
    af9c:	e6843f03          	ld	t5,-408(s0)
    afa0:	18ef54e3          	bge	t5,a4,b928 <.LBB34_1340>

000000000000afa4 <.LBB34_1084>:
    afa4:	e7843f03          	ld	t5,-392(s0)
    afa8:	18ef58e3          	bge	t5,a4,b938 <.LBB34_1341>

000000000000afac <.LBB34_1085>:
    afac:	e8843f03          	ld	t5,-376(s0)
    afb0:	18ef5ce3          	bge	t5,a4,b948 <.LBB34_1342>

000000000000afb4 <.LBB34_1086>:
    afb4:	e9843f03          	ld	t5,-360(s0)
    afb8:	1aef50e3          	bge	t5,a4,b958 <.LBB34_1343>

000000000000afbc <.LBB34_1087>:
    afbc:	ea843f03          	ld	t5,-344(s0)
    afc0:	1aef54e3          	bge	t5,a4,b968 <.LBB34_1344>

000000000000afc4 <.LBB34_1088>:
    afc4:	eb843f03          	ld	t5,-328(s0)
    afc8:	1aef58e3          	bge	t5,a4,b978 <.LBB34_1345>

000000000000afcc <.LBB34_1089>:
    afcc:	ec843f03          	ld	t5,-312(s0)
    afd0:	1aef5ce3          	bge	t5,a4,b988 <.LBB34_1346>

000000000000afd4 <.LBB34_1090>:
    afd4:	ed843f03          	ld	t5,-296(s0)
    afd8:	1cef50e3          	bge	t5,a4,b998 <.LBB34_1347>

000000000000afdc <.LBB34_1091>:
    afdc:	c4043f03          	ld	t5,-960(s0)
    afe0:	1cef54e3          	bge	t5,a4,b9a8 <.LBB34_1348>

000000000000afe4 <.LBB34_1092>:
    afe4:	c5043f03          	ld	t5,-944(s0)
    afe8:	1cef58e3          	bge	t5,a4,b9b8 <.LBB34_1349>

000000000000afec <.LBB34_1093>:
    afec:	c6043f03          	ld	t5,-928(s0)
    aff0:	1cef5ce3          	bge	t5,a4,b9c8 <.LBB34_1350>

000000000000aff4 <.LBB34_1094>:
    aff4:	c7043f03          	ld	t5,-912(s0)
    aff8:	1eef50e3          	bge	t5,a4,b9d8 <.LBB34_1351>

000000000000affc <.LBB34_1095>:
    affc:	c8043f03          	ld	t5,-896(s0)
    b000:	1eef54e3          	bge	t5,a4,b9e8 <.LBB34_1352>

000000000000b004 <.LBB34_1096>:
    b004:	c9043f03          	ld	t5,-880(s0)
    b008:	1eef58e3          	bge	t5,a4,b9f8 <.LBB34_1353>

000000000000b00c <.LBB34_1097>:
    b00c:	ca043f03          	ld	t5,-864(s0)
    b010:	1eef5ce3          	bge	t5,a4,ba08 <.LBB34_1354>

000000000000b014 <.LBB34_1098>:
    b014:	cb043f03          	ld	t5,-848(s0)
    b018:	20ef50e3          	bge	t5,a4,ba18 <.LBB34_1355>

000000000000b01c <.LBB34_1099>:
    b01c:	cc043f03          	ld	t5,-832(s0)
    b020:	20ef54e3          	bge	t5,a4,ba28 <.LBB34_1356>

000000000000b024 <.LBB34_1100>:
    b024:	cd043f03          	ld	t5,-816(s0)
    b028:	20ef58e3          	bge	t5,a4,ba38 <.LBB34_1357>

000000000000b02c <.LBB34_1101>:
    b02c:	ce043f03          	ld	t5,-800(s0)
    b030:	20ef5ce3          	bge	t5,a4,ba48 <.LBB34_1358>

000000000000b034 <.LBB34_1102>:
    b034:	ce843f03          	ld	t5,-792(s0)
    b038:	22ef50e3          	bge	t5,a4,ba58 <.LBB34_1359>

000000000000b03c <.LBB34_1103>:
    b03c:	cf043f03          	ld	t5,-784(s0)
    b040:	22ef54e3          	bge	t5,a4,ba68 <.LBB34_1360>

000000000000b044 <.LBB34_1104>:
    b044:	cf843f03          	ld	t5,-776(s0)
    b048:	22ef58e3          	bge	t5,a4,ba78 <.LBB34_1361>

000000000000b04c <.LBB34_1105>:
    b04c:	d0043f03          	ld	t5,-768(s0)
    b050:	22ef5ce3          	bge	t5,a4,ba88 <.LBB34_1362>

000000000000b054 <.LBB34_1106>:
    b054:	d0843f03          	ld	t5,-760(s0)
    b058:	24ef50e3          	bge	t5,a4,ba98 <.LBB34_1363>

000000000000b05c <.LBB34_1107>:
    b05c:	d1043f03          	ld	t5,-752(s0)
    b060:	24ef54e3          	bge	t5,a4,baa8 <.LBB34_1364>

000000000000b064 <.LBB34_1108>:
    b064:	d1843f03          	ld	t5,-744(s0)
    b068:	24ef58e3          	bge	t5,a4,bab8 <.LBB34_1365>

000000000000b06c <.LBB34_1109>:
    b06c:	d2043f03          	ld	t5,-736(s0)
    b070:	24ef5ce3          	bge	t5,a4,bac8 <.LBB34_1366>

000000000000b074 <.LBB34_1110>:
    b074:	d2843f03          	ld	t5,-728(s0)
    b078:	26ef50e3          	bge	t5,a4,bad8 <.LBB34_1367>

000000000000b07c <.LBB34_1111>:
    b07c:	d3043f03          	ld	t5,-720(s0)
    b080:	26ef54e3          	bge	t5,a4,bae8 <.LBB34_1368>

000000000000b084 <.LBB34_1112>:
    b084:	d3843f03          	ld	t5,-712(s0)
    b088:	26ef58e3          	bge	t5,a4,baf8 <.LBB34_1369>

000000000000b08c <.LBB34_1113>:
    b08c:	d4843f03          	ld	t5,-696(s0)
    b090:	26ef5ce3          	bge	t5,a4,bb08 <.LBB34_1370>

000000000000b094 <.LBB34_1114>:
    b094:	d5843f03          	ld	t5,-680(s0)
    b098:	28ef50e3          	bge	t5,a4,bb18 <.LBB34_1371>

000000000000b09c <.LBB34_1115>:
    b09c:	d6843f03          	ld	t5,-664(s0)
    b0a0:	28ef54e3          	bge	t5,a4,bb28 <.LBB34_1372>

000000000000b0a4 <.LBB34_1116>:
    b0a4:	d7843f03          	ld	t5,-648(s0)
    b0a8:	28ef58e3          	bge	t5,a4,bb38 <.LBB34_1373>

000000000000b0ac <.LBB34_1117>:
    b0ac:	d8843f03          	ld	t5,-632(s0)
    b0b0:	28ef5ce3          	bge	t5,a4,bb48 <.LBB34_1374>

000000000000b0b4 <.LBB34_1118>:
    b0b4:	d9843f03          	ld	t5,-616(s0)
    b0b8:	2aef50e3          	bge	t5,a4,bb58 <.LBB34_1375>

000000000000b0bc <.LBB34_1119>:
    b0bc:	da843f03          	ld	t5,-600(s0)
    b0c0:	2aef54e3          	bge	t5,a4,bb68 <.LBB34_1376>

000000000000b0c4 <.LBB34_1120>:
    b0c4:	db843f03          	ld	t5,-584(s0)
    b0c8:	2aef58e3          	bge	t5,a4,bb78 <.LBB34_1377>

000000000000b0cc <.LBB34_1121>:
    b0cc:	dc843f03          	ld	t5,-568(s0)
    b0d0:	2aef5ce3          	bge	t5,a4,bb88 <.LBB34_1378>

000000000000b0d4 <.LBB34_1122>:
    b0d4:	dd843f03          	ld	t5,-552(s0)
    b0d8:	2cef50e3          	bge	t5,a4,bb98 <.LBB34_1379>

000000000000b0dc <.LBB34_1123>:
    b0dc:	b4043f03          	ld	t5,-1216(s0)
    b0e0:	2cef54e3          	bge	t5,a4,bba8 <.LBB34_1380>

000000000000b0e4 <.LBB34_1124>:
    b0e4:	b5043f03          	ld	t5,-1200(s0)
    b0e8:	2cef58e3          	bge	t5,a4,bbb8 <.LBB34_1381>

000000000000b0ec <.LBB34_1125>:
    b0ec:	b6043f03          	ld	t5,-1184(s0)
    b0f0:	2cef5ce3          	bge	t5,a4,bbc8 <.LBB34_1382>

000000000000b0f4 <.LBB34_1126>:
    b0f4:	b7043f03          	ld	t5,-1168(s0)
    b0f8:	2eef50e3          	bge	t5,a4,bbd8 <.LBB34_1383>

000000000000b0fc <.LBB34_1127>:
    b0fc:	b8043f03          	ld	t5,-1152(s0)
    b100:	2eef54e3          	bge	t5,a4,bbe8 <.LBB34_1384>

000000000000b104 <.LBB34_1128>:
    b104:	b9043f03          	ld	t5,-1136(s0)
    b108:	2eef58e3          	bge	t5,a4,bbf8 <.LBB34_1385>

000000000000b10c <.LBB34_1129>:
    b10c:	ba043f03          	ld	t5,-1120(s0)
    b110:	2eef5ce3          	bge	t5,a4,bc08 <.LBB34_1386>

000000000000b114 <.LBB34_1130>:
    b114:	bb043f03          	ld	t5,-1104(s0)
    b118:	30ef50e3          	bge	t5,a4,bc18 <.LBB34_1387>

000000000000b11c <.LBB34_1131>:
    b11c:	bc043f03          	ld	t5,-1088(s0)
    b120:	30ef54e3          	bge	t5,a4,bc28 <.LBB34_1388>

000000000000b124 <.LBB34_1132>:
    b124:	bd043f03          	ld	t5,-1072(s0)
    b128:	30ef58e3          	bge	t5,a4,bc38 <.LBB34_1389>

000000000000b12c <.LBB34_1133>:
    b12c:	be043f03          	ld	t5,-1056(s0)
    b130:	30ef5ce3          	bge	t5,a4,bc48 <.LBB34_1390>

000000000000b134 <.LBB34_1134>:
    b134:	be843f03          	ld	t5,-1048(s0)
    b138:	32ef50e3          	bge	t5,a4,bc58 <.LBB34_1391>

000000000000b13c <.LBB34_1135>:
    b13c:	bf043f03          	ld	t5,-1040(s0)
    b140:	32ef54e3          	bge	t5,a4,bc68 <.LBB34_1392>

000000000000b144 <.LBB34_1136>:
    b144:	bf843f03          	ld	t5,-1032(s0)
    b148:	32ef58e3          	bge	t5,a4,bc78 <.LBB34_1393>

000000000000b14c <.LBB34_1137>:
    b14c:	c0043f03          	ld	t5,-1024(s0)
    b150:	32ef5ce3          	bge	t5,a4,bc88 <.LBB34_1394>

000000000000b154 <.LBB34_1138>:
    b154:	c0843f03          	ld	t5,-1016(s0)
    b158:	34ef50e3          	bge	t5,a4,bc98 <.LBB34_1395>

000000000000b15c <.LBB34_1139>:
    b15c:	c1043f03          	ld	t5,-1008(s0)
    b160:	34ef54e3          	bge	t5,a4,bca8 <.LBB34_1396>

000000000000b164 <.LBB34_1140>:
    b164:	c1843f03          	ld	t5,-1000(s0)
    b168:	34ef58e3          	bge	t5,a4,bcb8 <.LBB34_1397>

000000000000b16c <.LBB34_1141>:
    b16c:	c2043f03          	ld	t5,-992(s0)
    b170:	34ef5ce3          	bge	t5,a4,bcc8 <.LBB34_1398>

000000000000b174 <.LBB34_1142>:
    b174:	c2843f03          	ld	t5,-984(s0)
    b178:	36ef50e3          	bge	t5,a4,bcd8 <.LBB34_1399>

000000000000b17c <.LBB34_1143>:
    b17c:	c3043f03          	ld	t5,-976(s0)
    b180:	36ef54e3          	bge	t5,a4,bce8 <.LBB34_1400>

000000000000b184 <.LBB34_1144>:
    b184:	c3843f03          	ld	t5,-968(s0)
    b188:	36ef58e3          	bge	t5,a4,bcf8 <.LBB34_1401>

000000000000b18c <.LBB34_1145>:
    b18c:	c4843f03          	ld	t5,-952(s0)
    b190:	36ef5ce3          	bge	t5,a4,bd08 <.LBB34_1402>

000000000000b194 <.LBB34_1146>:
    b194:	c5843f03          	ld	t5,-936(s0)
    b198:	38ef50e3          	bge	t5,a4,bd18 <.LBB34_1403>

000000000000b19c <.LBB34_1147>:
    b19c:	c6843f03          	ld	t5,-920(s0)
    b1a0:	38ef54e3          	bge	t5,a4,bd28 <.LBB34_1404>

000000000000b1a4 <.LBB34_1148>:
    b1a4:	c7843f03          	ld	t5,-904(s0)
    b1a8:	38ef58e3          	bge	t5,a4,bd38 <.LBB34_1405>

000000000000b1ac <.LBB34_1149>:
    b1ac:	c8843f03          	ld	t5,-888(s0)
    b1b0:	38ef5ce3          	bge	t5,a4,bd48 <.LBB34_1406>

000000000000b1b4 <.LBB34_1150>:
    b1b4:	c9843f03          	ld	t5,-872(s0)
    b1b8:	3aef50e3          	bge	t5,a4,bd58 <.LBB34_1407>

000000000000b1bc <.LBB34_1151>:
    b1bc:	ca843f03          	ld	t5,-856(s0)
    b1c0:	3aef54e3          	bge	t5,a4,bd68 <.LBB34_1408>

000000000000b1c4 <.LBB34_1152>:
    b1c4:	cb843f03          	ld	t5,-840(s0)
    b1c8:	3aef58e3          	bge	t5,a4,bd78 <.LBB34_1409>

000000000000b1cc <.LBB34_1153>:
    b1cc:	cc843f03          	ld	t5,-824(s0)
    b1d0:	3aef5ce3          	bge	t5,a4,bd88 <.LBB34_1410>

000000000000b1d4 <.LBB34_1154>:
    b1d4:	cd843f03          	ld	t5,-808(s0)
    b1d8:	3cef50e3          	bge	t5,a4,bd98 <.LBB34_1411>

000000000000b1dc <.LBB34_1155>:
    b1dc:	a4043f03          	ld	t5,-1472(s0)
    b1e0:	3cef54e3          	bge	t5,a4,bda8 <.LBB34_1412>

000000000000b1e4 <.LBB34_1156>:
    b1e4:	a5043f03          	ld	t5,-1456(s0)
    b1e8:	3cef58e3          	bge	t5,a4,bdb8 <.LBB34_1413>

000000000000b1ec <.LBB34_1157>:
    b1ec:	a6043f03          	ld	t5,-1440(s0)
    b1f0:	3cef5ce3          	bge	t5,a4,bdc8 <.LBB34_1414>

000000000000b1f4 <.LBB34_1158>:
    b1f4:	a7043f03          	ld	t5,-1424(s0)
    b1f8:	3eef50e3          	bge	t5,a4,bdd8 <.LBB34_1415>

000000000000b1fc <.LBB34_1159>:
    b1fc:	a8043f03          	ld	t5,-1408(s0)
    b200:	3eef54e3          	bge	t5,a4,bde8 <.LBB34_1416>

000000000000b204 <.LBB34_1160>:
    b204:	a9043f03          	ld	t5,-1392(s0)
    b208:	3eef58e3          	bge	t5,a4,bdf8 <.LBB34_1417>

000000000000b20c <.LBB34_1161>:
    b20c:	aa043f03          	ld	t5,-1376(s0)
    b210:	3eef5ce3          	bge	t5,a4,be08 <.LBB34_1418>

000000000000b214 <.LBB34_1162>:
    b214:	ab043f03          	ld	t5,-1360(s0)
    b218:	40ef50e3          	bge	t5,a4,be18 <.LBB34_1419>

000000000000b21c <.LBB34_1163>:
    b21c:	ac043f03          	ld	t5,-1344(s0)
    b220:	40ef54e3          	bge	t5,a4,be28 <.LBB34_1420>

000000000000b224 <.LBB34_1164>:
    b224:	ad043f03          	ld	t5,-1328(s0)
    b228:	40ef58e3          	bge	t5,a4,be38 <.LBB34_1421>

000000000000b22c <.LBB34_1165>:
    b22c:	ae043f03          	ld	t5,-1312(s0)
    b230:	40ef5ce3          	bge	t5,a4,be48 <.LBB34_1422>

000000000000b234 <.LBB34_1166>:
    b234:	ae843f03          	ld	t5,-1304(s0)
    b238:	42ef50e3          	bge	t5,a4,be58 <.LBB34_1423>

000000000000b23c <.LBB34_1167>:
    b23c:	af043f03          	ld	t5,-1296(s0)
    b240:	42ef54e3          	bge	t5,a4,be68 <.LBB34_1424>

000000000000b244 <.LBB34_1168>:
    b244:	af843f03          	ld	t5,-1288(s0)
    b248:	42ef58e3          	bge	t5,a4,be78 <.LBB34_1425>

000000000000b24c <.LBB34_1169>:
    b24c:	b0043f03          	ld	t5,-1280(s0)
    b250:	42ef5ce3          	bge	t5,a4,be88 <.LBB34_1426>

000000000000b254 <.LBB34_1170>:
    b254:	b0843f03          	ld	t5,-1272(s0)
    b258:	44ef50e3          	bge	t5,a4,be98 <.LBB34_1427>

000000000000b25c <.LBB34_1171>:
    b25c:	b1043f03          	ld	t5,-1264(s0)
    b260:	44ef54e3          	bge	t5,a4,bea8 <.LBB34_1428>

000000000000b264 <.LBB34_1172>:
    b264:	b1843f03          	ld	t5,-1256(s0)
    b268:	44ef58e3          	bge	t5,a4,beb8 <.LBB34_1429>

000000000000b26c <.LBB34_1173>:
    b26c:	b2043f03          	ld	t5,-1248(s0)
    b270:	44ef5ce3          	bge	t5,a4,bec8 <.LBB34_1430>

000000000000b274 <.LBB34_1174>:
    b274:	b2843f03          	ld	t5,-1240(s0)
    b278:	46ef50e3          	bge	t5,a4,bed8 <.LBB34_1431>

000000000000b27c <.LBB34_1175>:
    b27c:	b3043f03          	ld	t5,-1232(s0)
    b280:	46ef54e3          	bge	t5,a4,bee8 <.LBB34_1432>

000000000000b284 <.LBB34_1176>:
    b284:	b3843f03          	ld	t5,-1224(s0)
    b288:	46ef58e3          	bge	t5,a4,bef8 <.LBB34_1433>

000000000000b28c <.LBB34_1177>:
    b28c:	b4843f03          	ld	t5,-1208(s0)
    b290:	46ef5ce3          	bge	t5,a4,bf08 <.LBB34_1434>

000000000000b294 <.LBB34_1178>:
    b294:	b5843f03          	ld	t5,-1192(s0)
    b298:	48ef50e3          	bge	t5,a4,bf18 <.LBB34_1435>

000000000000b29c <.LBB34_1179>:
    b29c:	b6843f03          	ld	t5,-1176(s0)
    b2a0:	48ef54e3          	bge	t5,a4,bf28 <.LBB34_1436>

000000000000b2a4 <.LBB34_1180>:
    b2a4:	b7843f03          	ld	t5,-1160(s0)
    b2a8:	48ef58e3          	bge	t5,a4,bf38 <.LBB34_1437>

000000000000b2ac <.LBB34_1181>:
    b2ac:	b8843f03          	ld	t5,-1144(s0)
    b2b0:	48ef5ce3          	bge	t5,a4,bf48 <.LBB34_1438>

000000000000b2b4 <.LBB34_1182>:
    b2b4:	b9843f03          	ld	t5,-1128(s0)
    b2b8:	4aef50e3          	bge	t5,a4,bf58 <.LBB34_1439>

000000000000b2bc <.LBB34_1183>:
    b2bc:	ba843f03          	ld	t5,-1112(s0)
    b2c0:	4aef54e3          	bge	t5,a4,bf68 <.LBB34_1440>

000000000000b2c4 <.LBB34_1184>:
    b2c4:	bb843f03          	ld	t5,-1096(s0)
    b2c8:	4aef58e3          	bge	t5,a4,bf78 <.LBB34_1441>

000000000000b2cc <.LBB34_1185>:
    b2cc:	bc843f03          	ld	t5,-1080(s0)
    b2d0:	4aef5ce3          	bge	t5,a4,bf88 <.LBB34_1442>

000000000000b2d4 <.LBB34_1186>:
    b2d4:	bd843f03          	ld	t5,-1064(s0)
    b2d8:	4cef50e3          	bge	t5,a4,bf98 <.LBB34_1443>

000000000000b2dc <.LBB34_1187>:
    b2dc:	94043f03          	ld	t5,-1728(s0)
    b2e0:	4cef54e3          	bge	t5,a4,bfa8 <.LBB34_1444>

000000000000b2e4 <.LBB34_1188>:
    b2e4:	95043f03          	ld	t5,-1712(s0)
    b2e8:	4cef58e3          	bge	t5,a4,bfb8 <.LBB34_1445>

000000000000b2ec <.LBB34_1189>:
    b2ec:	96043f03          	ld	t5,-1696(s0)
    b2f0:	4cef5ce3          	bge	t5,a4,bfc8 <.LBB34_1446>

000000000000b2f4 <.LBB34_1190>:
    b2f4:	97043f03          	ld	t5,-1680(s0)
    b2f8:	4eef50e3          	bge	t5,a4,bfd8 <.LBB34_1447>

000000000000b2fc <.LBB34_1191>:
    b2fc:	98043f03          	ld	t5,-1664(s0)
    b300:	4eef54e3          	bge	t5,a4,bfe8 <.LBB34_1448>

000000000000b304 <.LBB34_1192>:
    b304:	99043f03          	ld	t5,-1648(s0)
    b308:	4eef58e3          	bge	t5,a4,bff8 <.LBB34_1449>

000000000000b30c <.LBB34_1193>:
    b30c:	9a043f03          	ld	t5,-1632(s0)
    b310:	4eef5ce3          	bge	t5,a4,c008 <.LBB34_1450>

000000000000b314 <.LBB34_1194>:
    b314:	9b043f03          	ld	t5,-1616(s0)
    b318:	50ef50e3          	bge	t5,a4,c018 <.LBB34_1451>

000000000000b31c <.LBB34_1195>:
    b31c:	9c043f03          	ld	t5,-1600(s0)
    b320:	50ef54e3          	bge	t5,a4,c028 <.LBB34_1452>

000000000000b324 <.LBB34_1196>:
    b324:	9d043f03          	ld	t5,-1584(s0)
    b328:	50ef58e3          	bge	t5,a4,c038 <.LBB34_1453>

000000000000b32c <.LBB34_1197>:
    b32c:	9e043f03          	ld	t5,-1568(s0)
    b330:	50ef5ce3          	bge	t5,a4,c048 <.LBB34_1454>

000000000000b334 <.LBB34_1198>:
    b334:	9e843f03          	ld	t5,-1560(s0)
    b338:	52ef50e3          	bge	t5,a4,c058 <.LBB34_1455>

000000000000b33c <.LBB34_1199>:
    b33c:	9f043f03          	ld	t5,-1552(s0)
    b340:	52ef54e3          	bge	t5,a4,c068 <.LBB34_1456>

000000000000b344 <.LBB34_1200>:
    b344:	9f843f03          	ld	t5,-1544(s0)
    b348:	52ef58e3          	bge	t5,a4,c078 <.LBB34_1457>

000000000000b34c <.LBB34_1201>:
    b34c:	a0043f03          	ld	t5,-1536(s0)
    b350:	52ef5ce3          	bge	t5,a4,c088 <.LBB34_1458>

000000000000b354 <.LBB34_1202>:
    b354:	a0843f03          	ld	t5,-1528(s0)
    b358:	54ef50e3          	bge	t5,a4,c098 <.LBB34_1459>

000000000000b35c <.LBB34_1203>:
    b35c:	a1043f03          	ld	t5,-1520(s0)
    b360:	54ef54e3          	bge	t5,a4,c0a8 <.LBB34_1460>

000000000000b364 <.LBB34_1204>:
    b364:	a1843f03          	ld	t5,-1512(s0)
    b368:	54ef58e3          	bge	t5,a4,c0b8 <.LBB34_1461>

000000000000b36c <.LBB34_1205>:
    b36c:	a2043f03          	ld	t5,-1504(s0)
    b370:	54ef5ce3          	bge	t5,a4,c0c8 <.LBB34_1462>

000000000000b374 <.LBB34_1206>:
    b374:	a2843f03          	ld	t5,-1496(s0)
    b378:	56ef50e3          	bge	t5,a4,c0d8 <.LBB34_1463>

000000000000b37c <.LBB34_1207>:
    b37c:	a3043f03          	ld	t5,-1488(s0)
    b380:	56ef54e3          	bge	t5,a4,c0e8 <.LBB34_1464>

000000000000b384 <.LBB34_1208>:
    b384:	a3843f03          	ld	t5,-1480(s0)
    b388:	56ef58e3          	bge	t5,a4,c0f8 <.LBB34_1465>

000000000000b38c <.LBB34_1209>:
    b38c:	a4843f03          	ld	t5,-1464(s0)
    b390:	56ef5ce3          	bge	t5,a4,c108 <.LBB34_1466>

000000000000b394 <.LBB34_1210>:
    b394:	a5843f03          	ld	t5,-1448(s0)
    b398:	58ef50e3          	bge	t5,a4,c118 <.LBB34_1467>

000000000000b39c <.LBB34_1211>:
    b39c:	a6843f03          	ld	t5,-1432(s0)
    b3a0:	58ef54e3          	bge	t5,a4,c128 <.LBB34_1468>

000000000000b3a4 <.LBB34_1212>:
    b3a4:	a7843f03          	ld	t5,-1416(s0)
    b3a8:	58ef58e3          	bge	t5,a4,c138 <.LBB34_1469>

000000000000b3ac <.LBB34_1213>:
    b3ac:	a8843f03          	ld	t5,-1400(s0)
    b3b0:	58ef5ce3          	bge	t5,a4,c148 <.LBB34_1470>

000000000000b3b4 <.LBB34_1214>:
    b3b4:	a9843f03          	ld	t5,-1384(s0)
    b3b8:	5aef50e3          	bge	t5,a4,c158 <.LBB34_1471>

000000000000b3bc <.LBB34_1215>:
    b3bc:	aa843f03          	ld	t5,-1368(s0)
    b3c0:	5aef54e3          	bge	t5,a4,c168 <.LBB34_1472>

000000000000b3c4 <.LBB34_1216>:
    b3c4:	ab843f03          	ld	t5,-1352(s0)
    b3c8:	5aef58e3          	bge	t5,a4,c178 <.LBB34_1473>

000000000000b3cc <.LBB34_1217>:
    b3cc:	ac843f03          	ld	t5,-1336(s0)
    b3d0:	5aef5ce3          	bge	t5,a4,c188 <.LBB34_1474>

000000000000b3d4 <.LBB34_1218>:
    b3d4:	ad843f03          	ld	t5,-1320(s0)
    b3d8:	5cef50e3          	bge	t5,a4,c198 <.LBB34_1475>

000000000000b3dc <.LBB34_1219>:
    b3dc:	87043583          	ld	a1,-1936(s0)
    b3e0:	5ce5d4e3          	bge	a1,a4,c1a8 <.LBB34_1476>

000000000000b3e4 <.LBB34_1220>:
    b3e4:	88043583          	ld	a1,-1920(s0)
    b3e8:	5ce5d8e3          	bge	a1,a4,c1b8 <.LBB34_1477>

000000000000b3ec <.LBB34_1221>:
    b3ec:	5ceb5ce3          	bge	s6,a4,c1c4 <.LBB34_1478>

000000000000b3f0 <.LBB34_1222>:
    b3f0:	5ce95ee3          	bge	s2,a4,c1cc <.LBB34_1479>

000000000000b3f4 <.LBB34_1223>:
    b3f4:	8a043f03          	ld	t5,-1888(s0)
    b3f8:	5eef50e3          	bge	t5,a4,c1d8 <.LBB34_1480>

000000000000b3fc <.LBB34_1224>:
    b3fc:	8a843f03          	ld	t5,-1880(s0)
    b400:	5eef54e3          	bge	t5,a4,c1e8 <.LBB34_1481>

000000000000b404 <.LBB34_1225>:
    b404:	5eea58e3          	bge	s4,a4,c1f4 <.LBB34_1482>

000000000000b408 <.LBB34_1226>:
    b408:	5ee9dae3          	bge	s3,a4,c1fc <.LBB34_1483>

000000000000b40c <.LBB34_1227>:
    b40c:	5ee4dce3          	bge	s1,a4,c204 <.LBB34_1484>

000000000000b410 <.LBB34_1228>:
    b410:	8d043f03          	ld	t5,-1840(s0)
    b414:	5eef5ee3          	bge	t5,a4,c210 <.LBB34_1485>

000000000000b418 <.LBB34_1229>:
    b418:	8e043f03          	ld	t5,-1824(s0)
    b41c:	60ef52e3          	bge	t5,a4,c220 <.LBB34_1486>

000000000000b420 <.LBB34_1230>:
    b420:	8e843f03          	ld	t5,-1816(s0)
    b424:	60ef56e3          	bge	t5,a4,c230 <.LBB34_1487>

000000000000b428 <.LBB34_1231>:
    b428:	8f043f03          	ld	t5,-1808(s0)
    b42c:	60ef5ae3          	bge	t5,a4,c240 <.LBB34_1488>

000000000000b430 <.LBB34_1232>:
    b430:	8f843f03          	ld	t5,-1800(s0)
    b434:	60ef5ee3          	bge	t5,a4,c250 <.LBB34_1489>

000000000000b438 <.LBB34_1233>:
    b438:	90043f03          	ld	t5,-1792(s0)
    b43c:	62ef52e3          	bge	t5,a4,c260 <.LBB34_1490>

000000000000b440 <.LBB34_1234>:
    b440:	90843f03          	ld	t5,-1784(s0)
    b444:	62ef56e3          	bge	t5,a4,c270 <.LBB34_1491>

000000000000b448 <.LBB34_1235>:
    b448:	91043f03          	ld	t5,-1776(s0)
    b44c:	62ef5ae3          	bge	t5,a4,c280 <.LBB34_1492>

000000000000b450 <.LBB34_1236>:
    b450:	91843f03          	ld	t5,-1768(s0)
    b454:	62ef5ee3          	bge	t5,a4,c290 <.LBB34_1493>

000000000000b458 <.LBB34_1237>:
    b458:	92043f03          	ld	t5,-1760(s0)
    b45c:	64ef52e3          	bge	t5,a4,c2a0 <.LBB34_1494>

000000000000b460 <.LBB34_1238>:
    b460:	92843f03          	ld	t5,-1752(s0)
    b464:	64ef56e3          	bge	t5,a4,c2b0 <.LBB34_1495>

000000000000b468 <.LBB34_1239>:
    b468:	93043f03          	ld	t5,-1744(s0)
    b46c:	64ef5ae3          	bge	t5,a4,c2c0 <.LBB34_1496>

000000000000b470 <.LBB34_1240>:
    b470:	93843f03          	ld	t5,-1736(s0)
    b474:	64ef5ee3          	bge	t5,a4,c2d0 <.LBB34_1497>

000000000000b478 <.LBB34_1241>:
    b478:	94843f03          	ld	t5,-1720(s0)
    b47c:	66ef52e3          	bge	t5,a4,c2e0 <.LBB34_1498>

000000000000b480 <.LBB34_1242>:
    b480:	95843f03          	ld	t5,-1704(s0)
    b484:	66ef56e3          	bge	t5,a4,c2f0 <.LBB34_1499>

000000000000b488 <.LBB34_1243>:
    b488:	96843f03          	ld	t5,-1688(s0)
    b48c:	66ef5ae3          	bge	t5,a4,c300 <.LBB34_1500>

000000000000b490 <.LBB34_1244>:
    b490:	97843f03          	ld	t5,-1672(s0)
    b494:	66ef5ee3          	bge	t5,a4,c310 <.LBB34_1501>

000000000000b498 <.LBB34_1245>:
    b498:	98843f03          	ld	t5,-1656(s0)
    b49c:	68ef52e3          	bge	t5,a4,c320 <.LBB34_1502>

000000000000b4a0 <.LBB34_1246>:
    b4a0:	99843f03          	ld	t5,-1640(s0)
    b4a4:	68ef56e3          	bge	t5,a4,c330 <.LBB34_1503>

000000000000b4a8 <.LBB34_1247>:
    b4a8:	9a843f03          	ld	t5,-1624(s0)
    b4ac:	68ef5ae3          	bge	t5,a4,c340 <.LBB34_1504>

000000000000b4b0 <.LBB34_1248>:
    b4b0:	9b843f03          	ld	t5,-1608(s0)
    b4b4:	68ef5ee3          	bge	t5,a4,c350 <.LBB34_1505>

000000000000b4b8 <.LBB34_1249>:
    b4b8:	9c843f03          	ld	t5,-1592(s0)
    b4bc:	6aef52e3          	bge	t5,a4,c360 <.LBB34_1506>

000000000000b4c0 <.LBB34_1250>:
    b4c0:	9d843f03          	ld	t5,-1576(s0)
    b4c4:	6aef56e3          	bge	t5,a4,c370 <.LBB34_1507>

000000000000b4c8 <.LBB34_1251>:
    b4c8:	6ae35ae3          	bge	t1,a4,c37c <.LBB34_1508>

000000000000b4cc <.LBB34_1252>:
    b4cc:	8d843f03          	ld	t5,-1832(s0)
    b4d0:	6ae2dce3          	bge	t0,a4,c388 <.LBB34_1509>

000000000000b4d4 <.LBB34_1253>:
    b4d4:	6ae8dee3          	bge	a7,a4,c390 <.LBB34_1510>

000000000000b4d8 <.LBB34_1254>:
    b4d8:	6ce850e3          	bge	a6,a4,c398 <.LBB34_1511>

000000000000b4dc <.LBB34_1255>:
    b4dc:	6ce7d2e3          	bge	a5,a4,c3a0 <.LBB34_1512>

000000000000b4e0 <.LBB34_1256>:
    b4e0:	6ce554e3          	bge	a0,a4,c3a8 <.LBB34_1513>

000000000000b4e4 <.LBB34_1257>:
    b4e4:	6ce656e3          	bge	a2,a4,c3b0 <.LBB34_1514>

000000000000b4e8 <.LBB34_1258>:
    b4e8:	6ce6d8e3          	bge	a3,a4,c3b8 <.LBB34_1515>

000000000000b4ec <.LBB34_1259>:
    b4ec:	6ce0dae3          	bge	ra,a4,c3c0 <.LBB34_1516>

000000000000b4f0 <.LBB34_1260>:
    b4f0:	6ceddce3          	bge	s11,a4,c3c8 <.LBB34_1517>

000000000000b4f4 <.LBB34_1261>:
    b4f4:	6ced5ee3          	bge	s10,a4,c3d0 <.LBB34_1518>

000000000000b4f8 <.LBB34_1262>:
    b4f8:	6eecd0e3          	bge	s9,a4,c3d8 <.LBB34_1519>

000000000000b4fc <.LBB34_1263>:
    b4fc:	6eec52e3          	bge	s8,a4,c3e0 <.LBB34_1520>

000000000000b500 <.LBB34_1264>:
    b500:	6eebd4e3          	bge	s7,a4,c3e8 <.LBB34_1521>

000000000000b504 <.LBB34_1265>:
    b504:	6eeed6e3          	bge	t4,a4,c3f0 <.LBB34_1522>

000000000000b508 <.LBB34_1266>:
    b508:	6eee58e3          	bge	t3,a4,c3f8 <.LBB34_1523>

000000000000b50c <.LBB34_1267>:
    b50c:	6ee3dae3          	bge	t2,a4,c400 <.LBB34_1524>

000000000000b510 <.LBB34_1268>:
    b510:	84843583          	ld	a1,-1976(s0)
    b514:	6ee5dce3          	bge	a1,a4,c40c <.LBB34_1525>

000000000000b518 <.LBB34_1269>:
    b518:	85043583          	ld	a1,-1968(s0)
    b51c:	70e5d0e3          	bge	a1,a4,c41c <.LBB34_1526>

000000000000b520 <.LBB34_1270>:
    b520:	85843583          	ld	a1,-1960(s0)
    b524:	70e5d4e3          	bge	a1,a4,c42c <.LBB34_1527>

000000000000b528 <.LBB34_1271>:
    b528:	86043583          	ld	a1,-1952(s0)
    b52c:	70e5d8e3          	bge	a1,a4,c43c <.LBB34_1528>

000000000000b530 <.LBB34_1272>:
    b530:	86843583          	ld	a1,-1944(s0)
    b534:	70e5dce3          	bge	a1,a4,c44c <.LBB34_1529>

000000000000b538 <.LBB34_1273>:
    b538:	87843583          	ld	a1,-1928(s0)
    b53c:	72e5d0e3          	bge	a1,a4,c45c <.LBB34_1530>

000000000000b540 <.LBB34_1274>:
    b540:	000b0593          	mv	a1,s6
    b544:	88843b03          	ld	s6,-1912(s0)
    b548:	72eb54e3          	bge	s6,a4,c470 <.LBB34_1531>

000000000000b54c <.LBB34_1275>:
    b54c:	00090b13          	mv	s6,s2
    b550:	89043903          	ld	s2,-1904(s0)
    b554:	72e958e3          	bge	s2,a4,c484 <.LBB34_1532>

000000000000b558 <.LBB34_1276>:
    b558:	89843903          	ld	s2,-1896(s0)
    b55c:	72e95ce3          	bge	s2,a4,c494 <.LBB34_1533>

000000000000b560 <.LBB34_1277>:
    b560:	74ead0e3          	bge	s5,a4,c4a0 <.LBB34_1534>

000000000000b564 <.LBB34_1278>:
    b564:	85543023          	sd	s5,-1984(s0)
    b568:	000a0a93          	mv	s5,s4
    b56c:	8b043a03          	ld	s4,-1872(s0)
    b570:	74ea52e3          	bge	s4,a4,c4b4 <.LBB34_1535>

000000000000b574 <.LBB34_1279>:
    b574:	00098a13          	mv	s4,s3
    b578:	8b843983          	ld	s3,-1864(s0)
    b57c:	74e9d6e3          	bge	s3,a4,c4c8 <.LBB34_1536>

000000000000b580 <.LBB34_1280>:
    b580:	00048993          	mv	s3,s1
    b584:	8c043483          	ld	s1,-1856(s0)
    b588:	74e4dae3          	bge	s1,a4,c4dc <.LBB34_1537>

000000000000b58c <.LBB34_1281>:
    b58c:	8c843483          	ld	s1,-1848(s0)
    b590:	74e4dee3          	bge	s1,a4,c4ec <.LBB34_1538>

000000000000b594 <.LBB34_1282>:
    b594:	76ef54e3          	bge	t5,a4,c4fc <.LBB34_1539>
    b598:	d71f406f          	j	308 <.LBB34_1>

000000000000b59c <.LBB34_1283>:
    b59c:	f8100313          	li	t1,-127
    b5a0:	08000713          	li	a4,128
    b5a4:	84043f83          	ld	t6,-1984(s0)
    b5a8:	82efcee3          	blt	t6,a4,ade4 <.LBB34_1028>

000000000000b5ac <.LBB34_1284>:
    b5ac:	08000f93          	li	t6,128
    b5b0:	e4843f03          	ld	t5,-440(s0)
    b5b4:	82ef4ce3          	blt	t5,a4,adec <.LBB34_1029>

000000000000b5b8 <.LBB34_1285>:
    b5b8:	08000f13          	li	t5,128
    b5bc:	e5e43423          	sd	t5,-440(s0)
    b5c0:	e5843f03          	ld	t5,-424(s0)
    b5c4:	82ef48e3          	blt	t5,a4,adf4 <.LBB34_1030>

000000000000b5c8 <.LBB34_1286>:
    b5c8:	08000f13          	li	t5,128
    b5cc:	e5e43c23          	sd	t5,-424(s0)
    b5d0:	e7043f03          	ld	t5,-400(s0)
    b5d4:	82ef44e3          	blt	t5,a4,adfc <.LBB34_1031>

000000000000b5d8 <.LBB34_1287>:
    b5d8:	08000f13          	li	t5,128
    b5dc:	e7e43823          	sd	t5,-400(s0)
    b5e0:	e8043f03          	ld	t5,-384(s0)
    b5e4:	82ef40e3          	blt	t5,a4,ae04 <.LBB34_1032>

000000000000b5e8 <.LBB34_1288>:
    b5e8:	08000f13          	li	t5,128
    b5ec:	e9e43023          	sd	t5,-384(s0)
    b5f0:	e9043f03          	ld	t5,-368(s0)
    b5f4:	80ef4ce3          	blt	t5,a4,ae0c <.LBB34_1033>

000000000000b5f8 <.LBB34_1289>:
    b5f8:	08000f13          	li	t5,128
    b5fc:	e9e43823          	sd	t5,-368(s0)
    b600:	ea043f03          	ld	t5,-352(s0)
    b604:	80ef48e3          	blt	t5,a4,ae14 <.LBB34_1034>

000000000000b608 <.LBB34_1290>:
    b608:	08000f13          	li	t5,128
    b60c:	ebe43023          	sd	t5,-352(s0)
    b610:	eb043f03          	ld	t5,-336(s0)
    b614:	80ef44e3          	blt	t5,a4,ae1c <.LBB34_1035>

000000000000b618 <.LBB34_1291>:
    b618:	08000f13          	li	t5,128
    b61c:	ebe43823          	sd	t5,-336(s0)
    b620:	ec043f03          	ld	t5,-320(s0)
    b624:	80ef40e3          	blt	t5,a4,ae24 <.LBB34_1036>

000000000000b628 <.LBB34_1292>:
    b628:	08000f13          	li	t5,128
    b62c:	ede43023          	sd	t5,-320(s0)
    b630:	ed043f03          	ld	t5,-304(s0)
    b634:	feef4c63          	blt	t5,a4,ae2c <.LBB34_1037>

000000000000b638 <.LBB34_1293>:
    b638:	08000f13          	li	t5,128
    b63c:	ede43823          	sd	t5,-304(s0)
    b640:	ee043f03          	ld	t5,-288(s0)
    b644:	feef4863          	blt	t5,a4,ae34 <.LBB34_1038>

000000000000b648 <.LBB34_1294>:
    b648:	08000f13          	li	t5,128
    b64c:	efe43023          	sd	t5,-288(s0)
    b650:	ee843f03          	ld	t5,-280(s0)
    b654:	feef4463          	blt	t5,a4,ae3c <.LBB34_1039>

000000000000b658 <.LBB34_1295>:
    b658:	08000f13          	li	t5,128
    b65c:	efe43423          	sd	t5,-280(s0)
    b660:	ef043f03          	ld	t5,-272(s0)
    b664:	feef4063          	blt	t5,a4,ae44 <.LBB34_1040>

000000000000b668 <.LBB34_1296>:
    b668:	08000f13          	li	t5,128
    b66c:	efe43823          	sd	t5,-272(s0)
    b670:	ef843f03          	ld	t5,-264(s0)
    b674:	fcef4c63          	blt	t5,a4,ae4c <.LBB34_1041>

000000000000b678 <.LBB34_1297>:
    b678:	08000f13          	li	t5,128
    b67c:	efe43c23          	sd	t5,-264(s0)
    b680:	f0043f03          	ld	t5,-256(s0)
    b684:	fcef4863          	blt	t5,a4,ae54 <.LBB34_1042>

000000000000b688 <.LBB34_1298>:
    b688:	08000f13          	li	t5,128
    b68c:	f1e43023          	sd	t5,-256(s0)
    b690:	f0843f03          	ld	t5,-248(s0)
    b694:	fcef4463          	blt	t5,a4,ae5c <.LBB34_1043>

000000000000b698 <.LBB34_1299>:
    b698:	08000f13          	li	t5,128
    b69c:	f1e43423          	sd	t5,-248(s0)
    b6a0:	f1043f03          	ld	t5,-240(s0)
    b6a4:	fcef4063          	blt	t5,a4,ae64 <.LBB34_1044>

000000000000b6a8 <.LBB34_1300>:
    b6a8:	08000f13          	li	t5,128
    b6ac:	f1e43823          	sd	t5,-240(s0)
    b6b0:	f1843f03          	ld	t5,-232(s0)
    b6b4:	faef4c63          	blt	t5,a4,ae6c <.LBB34_1045>

000000000000b6b8 <.LBB34_1301>:
    b6b8:	08000f13          	li	t5,128
    b6bc:	f1e43c23          	sd	t5,-232(s0)
    b6c0:	f2043f03          	ld	t5,-224(s0)
    b6c4:	faef4863          	blt	t5,a4,ae74 <.LBB34_1046>

000000000000b6c8 <.LBB34_1302>:
    b6c8:	08000f13          	li	t5,128
    b6cc:	f3e43023          	sd	t5,-224(s0)
    b6d0:	f2843f03          	ld	t5,-216(s0)
    b6d4:	faef4463          	blt	t5,a4,ae7c <.LBB34_1047>

000000000000b6d8 <.LBB34_1303>:
    b6d8:	08000f13          	li	t5,128
    b6dc:	f3e43423          	sd	t5,-216(s0)
    b6e0:	f3043f03          	ld	t5,-208(s0)
    b6e4:	faef4063          	blt	t5,a4,ae84 <.LBB34_1048>

000000000000b6e8 <.LBB34_1304>:
    b6e8:	08000f13          	li	t5,128
    b6ec:	f3e43823          	sd	t5,-208(s0)
    b6f0:	f3843f03          	ld	t5,-200(s0)
    b6f4:	f8ef4c63          	blt	t5,a4,ae8c <.LBB34_1049>

000000000000b6f8 <.LBB34_1305>:
    b6f8:	08000f13          	li	t5,128
    b6fc:	f3e43c23          	sd	t5,-200(s0)
    b700:	f4043f03          	ld	t5,-192(s0)
    b704:	f8ef4863          	blt	t5,a4,ae94 <.LBB34_1050>

000000000000b708 <.LBB34_1306>:
    b708:	08000f13          	li	t5,128
    b70c:	f5e43023          	sd	t5,-192(s0)
    b710:	f4843f03          	ld	t5,-184(s0)
    b714:	f8ef4463          	blt	t5,a4,ae9c <.LBB34_1051>

000000000000b718 <.LBB34_1307>:
    b718:	08000f13          	li	t5,128
    b71c:	f5e43423          	sd	t5,-184(s0)
    b720:	f5043f03          	ld	t5,-176(s0)
    b724:	f8ef4063          	blt	t5,a4,aea4 <.LBB34_1052>

000000000000b728 <.LBB34_1308>:
    b728:	08000f13          	li	t5,128
    b72c:	f5e43823          	sd	t5,-176(s0)
    b730:	f5843f03          	ld	t5,-168(s0)
    b734:	f6ef4c63          	blt	t5,a4,aeac <.LBB34_1053>

000000000000b738 <.LBB34_1309>:
    b738:	08000f13          	li	t5,128
    b73c:	f5e43c23          	sd	t5,-168(s0)
    b740:	f6043f03          	ld	t5,-160(s0)
    b744:	f6ef4863          	blt	t5,a4,aeb4 <.LBB34_1054>

000000000000b748 <.LBB34_1310>:
    b748:	08000f13          	li	t5,128
    b74c:	f7e43023          	sd	t5,-160(s0)
    b750:	f6843f03          	ld	t5,-152(s0)
    b754:	f6ef4463          	blt	t5,a4,aebc <.LBB34_1055>

000000000000b758 <.LBB34_1311>:
    b758:	08000f13          	li	t5,128
    b75c:	f7e43423          	sd	t5,-152(s0)
    b760:	f7043f03          	ld	t5,-144(s0)
    b764:	f6ef4063          	blt	t5,a4,aec4 <.LBB34_1056>

000000000000b768 <.LBB34_1312>:
    b768:	08000f13          	li	t5,128
    b76c:	f7e43823          	sd	t5,-144(s0)
    b770:	f7843f03          	ld	t5,-136(s0)
    b774:	f4ef4c63          	blt	t5,a4,aecc <.LBB34_1057>

000000000000b778 <.LBB34_1313>:
    b778:	08000f13          	li	t5,128
    b77c:	f7e43c23          	sd	t5,-136(s0)
    b780:	f8043f03          	ld	t5,-128(s0)
    b784:	f4ef4863          	blt	t5,a4,aed4 <.LBB34_1058>

000000000000b788 <.LBB34_1314>:
    b788:	08000f13          	li	t5,128
    b78c:	f9e43023          	sd	t5,-128(s0)
    b790:	f8843f03          	ld	t5,-120(s0)
    b794:	f4ef4463          	blt	t5,a4,aedc <.LBB34_1059>

000000000000b798 <.LBB34_1315>:
    b798:	08000f13          	li	t5,128
    b79c:	f9e43423          	sd	t5,-120(s0)
    b7a0:	d4043f03          	ld	t5,-704(s0)
    b7a4:	f4ef4063          	blt	t5,a4,aee4 <.LBB34_1060>

000000000000b7a8 <.LBB34_1316>:
    b7a8:	08000f13          	li	t5,128
    b7ac:	d5e43023          	sd	t5,-704(s0)
    b7b0:	d5043f03          	ld	t5,-688(s0)
    b7b4:	f2ef4c63          	blt	t5,a4,aeec <.LBB34_1061>

000000000000b7b8 <.LBB34_1317>:
    b7b8:	08000f13          	li	t5,128
    b7bc:	d5e43823          	sd	t5,-688(s0)
    b7c0:	d6043f03          	ld	t5,-672(s0)
    b7c4:	f2ef4863          	blt	t5,a4,aef4 <.LBB34_1062>

000000000000b7c8 <.LBB34_1318>:
    b7c8:	08000f13          	li	t5,128
    b7cc:	d7e43023          	sd	t5,-672(s0)
    b7d0:	d7043f03          	ld	t5,-656(s0)
    b7d4:	f2ef4463          	blt	t5,a4,aefc <.LBB34_1063>

000000000000b7d8 <.LBB34_1319>:
    b7d8:	08000f13          	li	t5,128
    b7dc:	d7e43823          	sd	t5,-656(s0)
    b7e0:	d8043f03          	ld	t5,-640(s0)
    b7e4:	f2ef4063          	blt	t5,a4,af04 <.LBB34_1064>

000000000000b7e8 <.LBB34_1320>:
    b7e8:	08000f13          	li	t5,128
    b7ec:	d9e43023          	sd	t5,-640(s0)
    b7f0:	d9043f03          	ld	t5,-624(s0)
    b7f4:	f0ef4c63          	blt	t5,a4,af0c <.LBB34_1065>

000000000000b7f8 <.LBB34_1321>:
    b7f8:	08000f13          	li	t5,128
    b7fc:	d9e43823          	sd	t5,-624(s0)
    b800:	da043f03          	ld	t5,-608(s0)
    b804:	f0ef4863          	blt	t5,a4,af14 <.LBB34_1066>

000000000000b808 <.LBB34_1322>:
    b808:	08000f13          	li	t5,128
    b80c:	dbe43023          	sd	t5,-608(s0)
    b810:	db043f03          	ld	t5,-592(s0)
    b814:	f0ef4463          	blt	t5,a4,af1c <.LBB34_1067>

000000000000b818 <.LBB34_1323>:
    b818:	08000f13          	li	t5,128
    b81c:	dbe43823          	sd	t5,-592(s0)
    b820:	dc043f03          	ld	t5,-576(s0)
    b824:	f0ef4063          	blt	t5,a4,af24 <.LBB34_1068>

000000000000b828 <.LBB34_1324>:
    b828:	08000f13          	li	t5,128
    b82c:	dde43023          	sd	t5,-576(s0)
    b830:	dd043f03          	ld	t5,-560(s0)
    b834:	eeef4c63          	blt	t5,a4,af2c <.LBB34_1069>

000000000000b838 <.LBB34_1325>:
    b838:	08000f13          	li	t5,128
    b83c:	dde43823          	sd	t5,-560(s0)
    b840:	de043f03          	ld	t5,-544(s0)
    b844:	eeef4863          	blt	t5,a4,af34 <.LBB34_1070>

000000000000b848 <.LBB34_1326>:
    b848:	08000f13          	li	t5,128
    b84c:	dfe43023          	sd	t5,-544(s0)
    b850:	de843f03          	ld	t5,-536(s0)
    b854:	eeef4463          	blt	t5,a4,af3c <.LBB34_1071>

000000000000b858 <.LBB34_1327>:
    b858:	08000f13          	li	t5,128
    b85c:	dfe43423          	sd	t5,-536(s0)
    b860:	df043f03          	ld	t5,-528(s0)
    b864:	eeef4063          	blt	t5,a4,af44 <.LBB34_1072>

000000000000b868 <.LBB34_1328>:
    b868:	08000f13          	li	t5,128
    b86c:	dfe43823          	sd	t5,-528(s0)
    b870:	df843f03          	ld	t5,-520(s0)
    b874:	ecef4c63          	blt	t5,a4,af4c <.LBB34_1073>

000000000000b878 <.LBB34_1329>:
    b878:	08000f13          	li	t5,128
    b87c:	dfe43c23          	sd	t5,-520(s0)
    b880:	e0043f03          	ld	t5,-512(s0)
    b884:	ecef4863          	blt	t5,a4,af54 <.LBB34_1074>

000000000000b888 <.LBB34_1330>:
    b888:	08000f13          	li	t5,128
    b88c:	e1e43023          	sd	t5,-512(s0)
    b890:	e0843f03          	ld	t5,-504(s0)
    b894:	ecef4463          	blt	t5,a4,af5c <.LBB34_1075>

000000000000b898 <.LBB34_1331>:
    b898:	08000f13          	li	t5,128
    b89c:	e1e43423          	sd	t5,-504(s0)
    b8a0:	e1043f03          	ld	t5,-496(s0)
    b8a4:	ecef4063          	blt	t5,a4,af64 <.LBB34_1076>

000000000000b8a8 <.LBB34_1332>:
    b8a8:	08000f13          	li	t5,128
    b8ac:	e1e43823          	sd	t5,-496(s0)
    b8b0:	e1843f03          	ld	t5,-488(s0)
    b8b4:	eaef4c63          	blt	t5,a4,af6c <.LBB34_1077>

000000000000b8b8 <.LBB34_1333>:
    b8b8:	08000f13          	li	t5,128
    b8bc:	e1e43c23          	sd	t5,-488(s0)
    b8c0:	e2043f03          	ld	t5,-480(s0)
    b8c4:	eaef4863          	blt	t5,a4,af74 <.LBB34_1078>

000000000000b8c8 <.LBB34_1334>:
    b8c8:	08000f13          	li	t5,128
    b8cc:	e3e43023          	sd	t5,-480(s0)
    b8d0:	e2843f03          	ld	t5,-472(s0)
    b8d4:	eaef4463          	blt	t5,a4,af7c <.LBB34_1079>

000000000000b8d8 <.LBB34_1335>:
    b8d8:	08000f13          	li	t5,128
    b8dc:	e3e43423          	sd	t5,-472(s0)
    b8e0:	e3043f03          	ld	t5,-464(s0)
    b8e4:	eaef4063          	blt	t5,a4,af84 <.LBB34_1080>

000000000000b8e8 <.LBB34_1336>:
    b8e8:	08000f13          	li	t5,128
    b8ec:	e3e43823          	sd	t5,-464(s0)
    b8f0:	e3843f03          	ld	t5,-456(s0)
    b8f4:	e8ef4c63          	blt	t5,a4,af8c <.LBB34_1081>

000000000000b8f8 <.LBB34_1337>:
    b8f8:	08000f13          	li	t5,128
    b8fc:	e3e43c23          	sd	t5,-456(s0)
    b900:	e4043f03          	ld	t5,-448(s0)
    b904:	e8ef4863          	blt	t5,a4,af94 <.LBB34_1082>

000000000000b908 <.LBB34_1338>:
    b908:	08000f13          	li	t5,128
    b90c:	e5e43023          	sd	t5,-448(s0)
    b910:	e5043f03          	ld	t5,-432(s0)
    b914:	e8ef4463          	blt	t5,a4,af9c <.LBB34_1083>

000000000000b918 <.LBB34_1339>:
    b918:	08000f13          	li	t5,128
    b91c:	e5e43823          	sd	t5,-432(s0)
    b920:	e6843f03          	ld	t5,-408(s0)
    b924:	e8ef4063          	blt	t5,a4,afa4 <.LBB34_1084>

000000000000b928 <.LBB34_1340>:
    b928:	08000f13          	li	t5,128
    b92c:	e7e43423          	sd	t5,-408(s0)
    b930:	e7843f03          	ld	t5,-392(s0)
    b934:	e6ef4c63          	blt	t5,a4,afac <.LBB34_1085>

000000000000b938 <.LBB34_1341>:
    b938:	08000f13          	li	t5,128
    b93c:	e7e43c23          	sd	t5,-392(s0)
    b940:	e8843f03          	ld	t5,-376(s0)
    b944:	e6ef4863          	blt	t5,a4,afb4 <.LBB34_1086>

000000000000b948 <.LBB34_1342>:
    b948:	08000f13          	li	t5,128
    b94c:	e9e43423          	sd	t5,-376(s0)
    b950:	e9843f03          	ld	t5,-360(s0)
    b954:	e6ef4463          	blt	t5,a4,afbc <.LBB34_1087>

000000000000b958 <.LBB34_1343>:
    b958:	08000f13          	li	t5,128
    b95c:	e9e43c23          	sd	t5,-360(s0)
    b960:	ea843f03          	ld	t5,-344(s0)
    b964:	e6ef4063          	blt	t5,a4,afc4 <.LBB34_1088>

000000000000b968 <.LBB34_1344>:
    b968:	08000f13          	li	t5,128
    b96c:	ebe43423          	sd	t5,-344(s0)
    b970:	eb843f03          	ld	t5,-328(s0)
    b974:	e4ef4c63          	blt	t5,a4,afcc <.LBB34_1089>

000000000000b978 <.LBB34_1345>:
    b978:	08000f13          	li	t5,128
    b97c:	ebe43c23          	sd	t5,-328(s0)
    b980:	ec843f03          	ld	t5,-312(s0)
    b984:	e4ef4863          	blt	t5,a4,afd4 <.LBB34_1090>

000000000000b988 <.LBB34_1346>:
    b988:	08000f13          	li	t5,128
    b98c:	ede43423          	sd	t5,-312(s0)
    b990:	ed843f03          	ld	t5,-296(s0)
    b994:	e4ef4463          	blt	t5,a4,afdc <.LBB34_1091>

000000000000b998 <.LBB34_1347>:
    b998:	08000f13          	li	t5,128
    b99c:	ede43c23          	sd	t5,-296(s0)
    b9a0:	c4043f03          	ld	t5,-960(s0)
    b9a4:	e4ef4063          	blt	t5,a4,afe4 <.LBB34_1092>

000000000000b9a8 <.LBB34_1348>:
    b9a8:	08000f13          	li	t5,128
    b9ac:	c5e43023          	sd	t5,-960(s0)
    b9b0:	c5043f03          	ld	t5,-944(s0)
    b9b4:	e2ef4c63          	blt	t5,a4,afec <.LBB34_1093>

000000000000b9b8 <.LBB34_1349>:
    b9b8:	08000f13          	li	t5,128
    b9bc:	c5e43823          	sd	t5,-944(s0)
    b9c0:	c6043f03          	ld	t5,-928(s0)
    b9c4:	e2ef4863          	blt	t5,a4,aff4 <.LBB34_1094>

000000000000b9c8 <.LBB34_1350>:
    b9c8:	08000f13          	li	t5,128
    b9cc:	c7e43023          	sd	t5,-928(s0)
    b9d0:	c7043f03          	ld	t5,-912(s0)
    b9d4:	e2ef4463          	blt	t5,a4,affc <.LBB34_1095>

000000000000b9d8 <.LBB34_1351>:
    b9d8:	08000f13          	li	t5,128
    b9dc:	c7e43823          	sd	t5,-912(s0)
    b9e0:	c8043f03          	ld	t5,-896(s0)
    b9e4:	e2ef4063          	blt	t5,a4,b004 <.LBB34_1096>

000000000000b9e8 <.LBB34_1352>:
    b9e8:	08000f13          	li	t5,128
    b9ec:	c9e43023          	sd	t5,-896(s0)
    b9f0:	c9043f03          	ld	t5,-880(s0)
    b9f4:	e0ef4c63          	blt	t5,a4,b00c <.LBB34_1097>

000000000000b9f8 <.LBB34_1353>:
    b9f8:	08000f13          	li	t5,128
    b9fc:	c9e43823          	sd	t5,-880(s0)
    ba00:	ca043f03          	ld	t5,-864(s0)
    ba04:	e0ef4863          	blt	t5,a4,b014 <.LBB34_1098>

000000000000ba08 <.LBB34_1354>:
    ba08:	08000f13          	li	t5,128
    ba0c:	cbe43023          	sd	t5,-864(s0)
    ba10:	cb043f03          	ld	t5,-848(s0)
    ba14:	e0ef4463          	blt	t5,a4,b01c <.LBB34_1099>

000000000000ba18 <.LBB34_1355>:
    ba18:	08000f13          	li	t5,128
    ba1c:	cbe43823          	sd	t5,-848(s0)
    ba20:	cc043f03          	ld	t5,-832(s0)
    ba24:	e0ef4063          	blt	t5,a4,b024 <.LBB34_1100>

000000000000ba28 <.LBB34_1356>:
    ba28:	08000f13          	li	t5,128
    ba2c:	cde43023          	sd	t5,-832(s0)
    ba30:	cd043f03          	ld	t5,-816(s0)
    ba34:	deef4c63          	blt	t5,a4,b02c <.LBB34_1101>

000000000000ba38 <.LBB34_1357>:
    ba38:	08000f13          	li	t5,128
    ba3c:	cde43823          	sd	t5,-816(s0)
    ba40:	ce043f03          	ld	t5,-800(s0)
    ba44:	deef4863          	blt	t5,a4,b034 <.LBB34_1102>

000000000000ba48 <.LBB34_1358>:
    ba48:	08000f13          	li	t5,128
    ba4c:	cfe43023          	sd	t5,-800(s0)
    ba50:	ce843f03          	ld	t5,-792(s0)
    ba54:	deef4463          	blt	t5,a4,b03c <.LBB34_1103>

000000000000ba58 <.LBB34_1359>:
    ba58:	08000f13          	li	t5,128
    ba5c:	cfe43423          	sd	t5,-792(s0)
    ba60:	cf043f03          	ld	t5,-784(s0)
    ba64:	deef4063          	blt	t5,a4,b044 <.LBB34_1104>

000000000000ba68 <.LBB34_1360>:
    ba68:	08000f13          	li	t5,128
    ba6c:	cfe43823          	sd	t5,-784(s0)
    ba70:	cf843f03          	ld	t5,-776(s0)
    ba74:	dcef4c63          	blt	t5,a4,b04c <.LBB34_1105>

000000000000ba78 <.LBB34_1361>:
    ba78:	08000f13          	li	t5,128
    ba7c:	cfe43c23          	sd	t5,-776(s0)
    ba80:	d0043f03          	ld	t5,-768(s0)
    ba84:	dcef4863          	blt	t5,a4,b054 <.LBB34_1106>

000000000000ba88 <.LBB34_1362>:
    ba88:	08000f13          	li	t5,128
    ba8c:	d1e43023          	sd	t5,-768(s0)
    ba90:	d0843f03          	ld	t5,-760(s0)
    ba94:	dcef4463          	blt	t5,a4,b05c <.LBB34_1107>

000000000000ba98 <.LBB34_1363>:
    ba98:	08000f13          	li	t5,128
    ba9c:	d1e43423          	sd	t5,-760(s0)
    baa0:	d1043f03          	ld	t5,-752(s0)
    baa4:	dcef4063          	blt	t5,a4,b064 <.LBB34_1108>

000000000000baa8 <.LBB34_1364>:
    baa8:	08000f13          	li	t5,128
    baac:	d1e43823          	sd	t5,-752(s0)
    bab0:	d1843f03          	ld	t5,-744(s0)
    bab4:	daef4c63          	blt	t5,a4,b06c <.LBB34_1109>

000000000000bab8 <.LBB34_1365>:
    bab8:	08000f13          	li	t5,128
    babc:	d1e43c23          	sd	t5,-744(s0)
    bac0:	d2043f03          	ld	t5,-736(s0)
    bac4:	daef4863          	blt	t5,a4,b074 <.LBB34_1110>

000000000000bac8 <.LBB34_1366>:
    bac8:	08000f13          	li	t5,128
    bacc:	d3e43023          	sd	t5,-736(s0)
    bad0:	d2843f03          	ld	t5,-728(s0)
    bad4:	daef4463          	blt	t5,a4,b07c <.LBB34_1111>

000000000000bad8 <.LBB34_1367>:
    bad8:	08000f13          	li	t5,128
    badc:	d3e43423          	sd	t5,-728(s0)
    bae0:	d3043f03          	ld	t5,-720(s0)
    bae4:	daef4063          	blt	t5,a4,b084 <.LBB34_1112>

000000000000bae8 <.LBB34_1368>:
    bae8:	08000f13          	li	t5,128
    baec:	d3e43823          	sd	t5,-720(s0)
    baf0:	d3843f03          	ld	t5,-712(s0)
    baf4:	d8ef4c63          	blt	t5,a4,b08c <.LBB34_1113>

000000000000baf8 <.LBB34_1369>:
    baf8:	08000f13          	li	t5,128
    bafc:	d3e43c23          	sd	t5,-712(s0)
    bb00:	d4843f03          	ld	t5,-696(s0)
    bb04:	d8ef4863          	blt	t5,a4,b094 <.LBB34_1114>

000000000000bb08 <.LBB34_1370>:
    bb08:	08000f13          	li	t5,128
    bb0c:	d5e43423          	sd	t5,-696(s0)
    bb10:	d5843f03          	ld	t5,-680(s0)
    bb14:	d8ef4463          	blt	t5,a4,b09c <.LBB34_1115>

000000000000bb18 <.LBB34_1371>:
    bb18:	08000f13          	li	t5,128
    bb1c:	d5e43c23          	sd	t5,-680(s0)
    bb20:	d6843f03          	ld	t5,-664(s0)
    bb24:	d8ef4063          	blt	t5,a4,b0a4 <.LBB34_1116>

000000000000bb28 <.LBB34_1372>:
    bb28:	08000f13          	li	t5,128
    bb2c:	d7e43423          	sd	t5,-664(s0)
    bb30:	d7843f03          	ld	t5,-648(s0)
    bb34:	d6ef4c63          	blt	t5,a4,b0ac <.LBB34_1117>

000000000000bb38 <.LBB34_1373>:
    bb38:	08000f13          	li	t5,128
    bb3c:	d7e43c23          	sd	t5,-648(s0)
    bb40:	d8843f03          	ld	t5,-632(s0)
    bb44:	d6ef4863          	blt	t5,a4,b0b4 <.LBB34_1118>

000000000000bb48 <.LBB34_1374>:
    bb48:	08000f13          	li	t5,128
    bb4c:	d9e43423          	sd	t5,-632(s0)
    bb50:	d9843f03          	ld	t5,-616(s0)
    bb54:	d6ef4463          	blt	t5,a4,b0bc <.LBB34_1119>

000000000000bb58 <.LBB34_1375>:
    bb58:	08000f13          	li	t5,128
    bb5c:	d9e43c23          	sd	t5,-616(s0)
    bb60:	da843f03          	ld	t5,-600(s0)
    bb64:	d6ef4063          	blt	t5,a4,b0c4 <.LBB34_1120>

000000000000bb68 <.LBB34_1376>:
    bb68:	08000f13          	li	t5,128
    bb6c:	dbe43423          	sd	t5,-600(s0)
    bb70:	db843f03          	ld	t5,-584(s0)
    bb74:	d4ef4c63          	blt	t5,a4,b0cc <.LBB34_1121>

000000000000bb78 <.LBB34_1377>:
    bb78:	08000f13          	li	t5,128
    bb7c:	dbe43c23          	sd	t5,-584(s0)
    bb80:	dc843f03          	ld	t5,-568(s0)
    bb84:	d4ef4863          	blt	t5,a4,b0d4 <.LBB34_1122>

000000000000bb88 <.LBB34_1378>:
    bb88:	08000f13          	li	t5,128
    bb8c:	dde43423          	sd	t5,-568(s0)
    bb90:	dd843f03          	ld	t5,-552(s0)
    bb94:	d4ef4463          	blt	t5,a4,b0dc <.LBB34_1123>

000000000000bb98 <.LBB34_1379>:
    bb98:	08000f13          	li	t5,128
    bb9c:	dde43c23          	sd	t5,-552(s0)
    bba0:	b4043f03          	ld	t5,-1216(s0)
    bba4:	d4ef4063          	blt	t5,a4,b0e4 <.LBB34_1124>

000000000000bba8 <.LBB34_1380>:
    bba8:	08000f13          	li	t5,128
    bbac:	b5e43023          	sd	t5,-1216(s0)
    bbb0:	b5043f03          	ld	t5,-1200(s0)
    bbb4:	d2ef4c63          	blt	t5,a4,b0ec <.LBB34_1125>

000000000000bbb8 <.LBB34_1381>:
    bbb8:	08000f13          	li	t5,128
    bbbc:	b5e43823          	sd	t5,-1200(s0)
    bbc0:	b6043f03          	ld	t5,-1184(s0)
    bbc4:	d2ef4863          	blt	t5,a4,b0f4 <.LBB34_1126>

000000000000bbc8 <.LBB34_1382>:
    bbc8:	08000f13          	li	t5,128
    bbcc:	b7e43023          	sd	t5,-1184(s0)
    bbd0:	b7043f03          	ld	t5,-1168(s0)
    bbd4:	d2ef4463          	blt	t5,a4,b0fc <.LBB34_1127>

000000000000bbd8 <.LBB34_1383>:
    bbd8:	08000f13          	li	t5,128
    bbdc:	b7e43823          	sd	t5,-1168(s0)
    bbe0:	b8043f03          	ld	t5,-1152(s0)
    bbe4:	d2ef4063          	blt	t5,a4,b104 <.LBB34_1128>

000000000000bbe8 <.LBB34_1384>:
    bbe8:	08000f13          	li	t5,128
    bbec:	b9e43023          	sd	t5,-1152(s0)
    bbf0:	b9043f03          	ld	t5,-1136(s0)
    bbf4:	d0ef4c63          	blt	t5,a4,b10c <.LBB34_1129>

000000000000bbf8 <.LBB34_1385>:
    bbf8:	08000f13          	li	t5,128
    bbfc:	b9e43823          	sd	t5,-1136(s0)
    bc00:	ba043f03          	ld	t5,-1120(s0)
    bc04:	d0ef4863          	blt	t5,a4,b114 <.LBB34_1130>

000000000000bc08 <.LBB34_1386>:
    bc08:	08000f13          	li	t5,128
    bc0c:	bbe43023          	sd	t5,-1120(s0)
    bc10:	bb043f03          	ld	t5,-1104(s0)
    bc14:	d0ef4463          	blt	t5,a4,b11c <.LBB34_1131>

000000000000bc18 <.LBB34_1387>:
    bc18:	08000f13          	li	t5,128
    bc1c:	bbe43823          	sd	t5,-1104(s0)
    bc20:	bc043f03          	ld	t5,-1088(s0)
    bc24:	d0ef4063          	blt	t5,a4,b124 <.LBB34_1132>

000000000000bc28 <.LBB34_1388>:
    bc28:	08000f13          	li	t5,128
    bc2c:	bde43023          	sd	t5,-1088(s0)
    bc30:	bd043f03          	ld	t5,-1072(s0)
    bc34:	ceef4c63          	blt	t5,a4,b12c <.LBB34_1133>

000000000000bc38 <.LBB34_1389>:
    bc38:	08000f13          	li	t5,128
    bc3c:	bde43823          	sd	t5,-1072(s0)
    bc40:	be043f03          	ld	t5,-1056(s0)
    bc44:	ceef4863          	blt	t5,a4,b134 <.LBB34_1134>

000000000000bc48 <.LBB34_1390>:
    bc48:	08000f13          	li	t5,128
    bc4c:	bfe43023          	sd	t5,-1056(s0)
    bc50:	be843f03          	ld	t5,-1048(s0)
    bc54:	ceef4463          	blt	t5,a4,b13c <.LBB34_1135>

000000000000bc58 <.LBB34_1391>:
    bc58:	08000f13          	li	t5,128
    bc5c:	bfe43423          	sd	t5,-1048(s0)
    bc60:	bf043f03          	ld	t5,-1040(s0)
    bc64:	ceef4063          	blt	t5,a4,b144 <.LBB34_1136>

000000000000bc68 <.LBB34_1392>:
    bc68:	08000f13          	li	t5,128
    bc6c:	bfe43823          	sd	t5,-1040(s0)
    bc70:	bf843f03          	ld	t5,-1032(s0)
    bc74:	ccef4c63          	blt	t5,a4,b14c <.LBB34_1137>

000000000000bc78 <.LBB34_1393>:
    bc78:	08000f13          	li	t5,128
    bc7c:	bfe43c23          	sd	t5,-1032(s0)
    bc80:	c0043f03          	ld	t5,-1024(s0)
    bc84:	ccef4863          	blt	t5,a4,b154 <.LBB34_1138>

000000000000bc88 <.LBB34_1394>:
    bc88:	08000f13          	li	t5,128
    bc8c:	c1e43023          	sd	t5,-1024(s0)
    bc90:	c0843f03          	ld	t5,-1016(s0)
    bc94:	ccef4463          	blt	t5,a4,b15c <.LBB34_1139>

000000000000bc98 <.LBB34_1395>:
    bc98:	08000f13          	li	t5,128
    bc9c:	c1e43423          	sd	t5,-1016(s0)
    bca0:	c1043f03          	ld	t5,-1008(s0)
    bca4:	ccef4063          	blt	t5,a4,b164 <.LBB34_1140>

000000000000bca8 <.LBB34_1396>:
    bca8:	08000f13          	li	t5,128
    bcac:	c1e43823          	sd	t5,-1008(s0)
    bcb0:	c1843f03          	ld	t5,-1000(s0)
    bcb4:	caef4c63          	blt	t5,a4,b16c <.LBB34_1141>

000000000000bcb8 <.LBB34_1397>:
    bcb8:	08000f13          	li	t5,128
    bcbc:	c1e43c23          	sd	t5,-1000(s0)
    bcc0:	c2043f03          	ld	t5,-992(s0)
    bcc4:	caef4863          	blt	t5,a4,b174 <.LBB34_1142>

000000000000bcc8 <.LBB34_1398>:
    bcc8:	08000f13          	li	t5,128
    bccc:	c3e43023          	sd	t5,-992(s0)
    bcd0:	c2843f03          	ld	t5,-984(s0)
    bcd4:	caef4463          	blt	t5,a4,b17c <.LBB34_1143>

000000000000bcd8 <.LBB34_1399>:
    bcd8:	08000f13          	li	t5,128
    bcdc:	c3e43423          	sd	t5,-984(s0)
    bce0:	c3043f03          	ld	t5,-976(s0)
    bce4:	caef4063          	blt	t5,a4,b184 <.LBB34_1144>

000000000000bce8 <.LBB34_1400>:
    bce8:	08000f13          	li	t5,128
    bcec:	c3e43823          	sd	t5,-976(s0)
    bcf0:	c3843f03          	ld	t5,-968(s0)
    bcf4:	c8ef4c63          	blt	t5,a4,b18c <.LBB34_1145>

000000000000bcf8 <.LBB34_1401>:
    bcf8:	08000f13          	li	t5,128
    bcfc:	c3e43c23          	sd	t5,-968(s0)
    bd00:	c4843f03          	ld	t5,-952(s0)
    bd04:	c8ef4863          	blt	t5,a4,b194 <.LBB34_1146>

000000000000bd08 <.LBB34_1402>:
    bd08:	08000f13          	li	t5,128
    bd0c:	c5e43423          	sd	t5,-952(s0)
    bd10:	c5843f03          	ld	t5,-936(s0)
    bd14:	c8ef4463          	blt	t5,a4,b19c <.LBB34_1147>

000000000000bd18 <.LBB34_1403>:
    bd18:	08000f13          	li	t5,128
    bd1c:	c5e43c23          	sd	t5,-936(s0)
    bd20:	c6843f03          	ld	t5,-920(s0)
    bd24:	c8ef4063          	blt	t5,a4,b1a4 <.LBB34_1148>

000000000000bd28 <.LBB34_1404>:
    bd28:	08000f13          	li	t5,128
    bd2c:	c7e43423          	sd	t5,-920(s0)
    bd30:	c7843f03          	ld	t5,-904(s0)
    bd34:	c6ef4c63          	blt	t5,a4,b1ac <.LBB34_1149>

000000000000bd38 <.LBB34_1405>:
    bd38:	08000f13          	li	t5,128
    bd3c:	c7e43c23          	sd	t5,-904(s0)
    bd40:	c8843f03          	ld	t5,-888(s0)
    bd44:	c6ef4863          	blt	t5,a4,b1b4 <.LBB34_1150>

000000000000bd48 <.LBB34_1406>:
    bd48:	08000f13          	li	t5,128
    bd4c:	c9e43423          	sd	t5,-888(s0)
    bd50:	c9843f03          	ld	t5,-872(s0)
    bd54:	c6ef4463          	blt	t5,a4,b1bc <.LBB34_1151>

000000000000bd58 <.LBB34_1407>:
    bd58:	08000f13          	li	t5,128
    bd5c:	c9e43c23          	sd	t5,-872(s0)
    bd60:	ca843f03          	ld	t5,-856(s0)
    bd64:	c6ef4063          	blt	t5,a4,b1c4 <.LBB34_1152>

000000000000bd68 <.LBB34_1408>:
    bd68:	08000f13          	li	t5,128
    bd6c:	cbe43423          	sd	t5,-856(s0)
    bd70:	cb843f03          	ld	t5,-840(s0)
    bd74:	c4ef4c63          	blt	t5,a4,b1cc <.LBB34_1153>

000000000000bd78 <.LBB34_1409>:
    bd78:	08000f13          	li	t5,128
    bd7c:	cbe43c23          	sd	t5,-840(s0)
    bd80:	cc843f03          	ld	t5,-824(s0)
    bd84:	c4ef4863          	blt	t5,a4,b1d4 <.LBB34_1154>

000000000000bd88 <.LBB34_1410>:
    bd88:	08000f13          	li	t5,128
    bd8c:	cde43423          	sd	t5,-824(s0)
    bd90:	cd843f03          	ld	t5,-808(s0)
    bd94:	c4ef4463          	blt	t5,a4,b1dc <.LBB34_1155>

000000000000bd98 <.LBB34_1411>:
    bd98:	08000f13          	li	t5,128
    bd9c:	cde43c23          	sd	t5,-808(s0)
    bda0:	a4043f03          	ld	t5,-1472(s0)
    bda4:	c4ef4063          	blt	t5,a4,b1e4 <.LBB34_1156>

000000000000bda8 <.LBB34_1412>:
    bda8:	08000f13          	li	t5,128
    bdac:	a5e43023          	sd	t5,-1472(s0)
    bdb0:	a5043f03          	ld	t5,-1456(s0)
    bdb4:	c2ef4c63          	blt	t5,a4,b1ec <.LBB34_1157>

000000000000bdb8 <.LBB34_1413>:
    bdb8:	08000f13          	li	t5,128
    bdbc:	a5e43823          	sd	t5,-1456(s0)
    bdc0:	a6043f03          	ld	t5,-1440(s0)
    bdc4:	c2ef4863          	blt	t5,a4,b1f4 <.LBB34_1158>

000000000000bdc8 <.LBB34_1414>:
    bdc8:	08000f13          	li	t5,128
    bdcc:	a7e43023          	sd	t5,-1440(s0)
    bdd0:	a7043f03          	ld	t5,-1424(s0)
    bdd4:	c2ef4463          	blt	t5,a4,b1fc <.LBB34_1159>

000000000000bdd8 <.LBB34_1415>:
    bdd8:	08000f13          	li	t5,128
    bddc:	a7e43823          	sd	t5,-1424(s0)
    bde0:	a8043f03          	ld	t5,-1408(s0)
    bde4:	c2ef4063          	blt	t5,a4,b204 <.LBB34_1160>

000000000000bde8 <.LBB34_1416>:
    bde8:	08000f13          	li	t5,128
    bdec:	a9e43023          	sd	t5,-1408(s0)
    bdf0:	a9043f03          	ld	t5,-1392(s0)
    bdf4:	c0ef4c63          	blt	t5,a4,b20c <.LBB34_1161>

000000000000bdf8 <.LBB34_1417>:
    bdf8:	08000f13          	li	t5,128
    bdfc:	a9e43823          	sd	t5,-1392(s0)
    be00:	aa043f03          	ld	t5,-1376(s0)
    be04:	c0ef4863          	blt	t5,a4,b214 <.LBB34_1162>

000000000000be08 <.LBB34_1418>:
    be08:	08000f13          	li	t5,128
    be0c:	abe43023          	sd	t5,-1376(s0)
    be10:	ab043f03          	ld	t5,-1360(s0)
    be14:	c0ef4463          	blt	t5,a4,b21c <.LBB34_1163>

000000000000be18 <.LBB34_1419>:
    be18:	08000f13          	li	t5,128
    be1c:	abe43823          	sd	t5,-1360(s0)
    be20:	ac043f03          	ld	t5,-1344(s0)
    be24:	c0ef4063          	blt	t5,a4,b224 <.LBB34_1164>

000000000000be28 <.LBB34_1420>:
    be28:	08000f13          	li	t5,128
    be2c:	ade43023          	sd	t5,-1344(s0)
    be30:	ad043f03          	ld	t5,-1328(s0)
    be34:	beef4c63          	blt	t5,a4,b22c <.LBB34_1165>

000000000000be38 <.LBB34_1421>:
    be38:	08000f13          	li	t5,128
    be3c:	ade43823          	sd	t5,-1328(s0)
    be40:	ae043f03          	ld	t5,-1312(s0)
    be44:	beef4863          	blt	t5,a4,b234 <.LBB34_1166>

000000000000be48 <.LBB34_1422>:
    be48:	08000f13          	li	t5,128
    be4c:	afe43023          	sd	t5,-1312(s0)
    be50:	ae843f03          	ld	t5,-1304(s0)
    be54:	beef4463          	blt	t5,a4,b23c <.LBB34_1167>

000000000000be58 <.LBB34_1423>:
    be58:	08000f13          	li	t5,128
    be5c:	afe43423          	sd	t5,-1304(s0)
    be60:	af043f03          	ld	t5,-1296(s0)
    be64:	beef4063          	blt	t5,a4,b244 <.LBB34_1168>

000000000000be68 <.LBB34_1424>:
    be68:	08000f13          	li	t5,128
    be6c:	afe43823          	sd	t5,-1296(s0)
    be70:	af843f03          	ld	t5,-1288(s0)
    be74:	bcef4c63          	blt	t5,a4,b24c <.LBB34_1169>

000000000000be78 <.LBB34_1425>:
    be78:	08000f13          	li	t5,128
    be7c:	afe43c23          	sd	t5,-1288(s0)
    be80:	b0043f03          	ld	t5,-1280(s0)
    be84:	bcef4863          	blt	t5,a4,b254 <.LBB34_1170>

000000000000be88 <.LBB34_1426>:
    be88:	08000f13          	li	t5,128
    be8c:	b1e43023          	sd	t5,-1280(s0)
    be90:	b0843f03          	ld	t5,-1272(s0)
    be94:	bcef4463          	blt	t5,a4,b25c <.LBB34_1171>

000000000000be98 <.LBB34_1427>:
    be98:	08000f13          	li	t5,128
    be9c:	b1e43423          	sd	t5,-1272(s0)
    bea0:	b1043f03          	ld	t5,-1264(s0)
    bea4:	bcef4063          	blt	t5,a4,b264 <.LBB34_1172>

000000000000bea8 <.LBB34_1428>:
    bea8:	08000f13          	li	t5,128
    beac:	b1e43823          	sd	t5,-1264(s0)
    beb0:	b1843f03          	ld	t5,-1256(s0)
    beb4:	baef4c63          	blt	t5,a4,b26c <.LBB34_1173>

000000000000beb8 <.LBB34_1429>:
    beb8:	08000f13          	li	t5,128
    bebc:	b1e43c23          	sd	t5,-1256(s0)
    bec0:	b2043f03          	ld	t5,-1248(s0)
    bec4:	baef4863          	blt	t5,a4,b274 <.LBB34_1174>

000000000000bec8 <.LBB34_1430>:
    bec8:	08000f13          	li	t5,128
    becc:	b3e43023          	sd	t5,-1248(s0)
    bed0:	b2843f03          	ld	t5,-1240(s0)
    bed4:	baef4463          	blt	t5,a4,b27c <.LBB34_1175>

000000000000bed8 <.LBB34_1431>:
    bed8:	08000f13          	li	t5,128
    bedc:	b3e43423          	sd	t5,-1240(s0)
    bee0:	b3043f03          	ld	t5,-1232(s0)
    bee4:	baef4063          	blt	t5,a4,b284 <.LBB34_1176>

000000000000bee8 <.LBB34_1432>:
    bee8:	08000f13          	li	t5,128
    beec:	b3e43823          	sd	t5,-1232(s0)
    bef0:	b3843f03          	ld	t5,-1224(s0)
    bef4:	b8ef4c63          	blt	t5,a4,b28c <.LBB34_1177>

000000000000bef8 <.LBB34_1433>:
    bef8:	08000f13          	li	t5,128
    befc:	b3e43c23          	sd	t5,-1224(s0)
    bf00:	b4843f03          	ld	t5,-1208(s0)
    bf04:	b8ef4863          	blt	t5,a4,b294 <.LBB34_1178>

000000000000bf08 <.LBB34_1434>:
    bf08:	08000f13          	li	t5,128
    bf0c:	b5e43423          	sd	t5,-1208(s0)
    bf10:	b5843f03          	ld	t5,-1192(s0)
    bf14:	b8ef4463          	blt	t5,a4,b29c <.LBB34_1179>

000000000000bf18 <.LBB34_1435>:
    bf18:	08000f13          	li	t5,128
    bf1c:	b5e43c23          	sd	t5,-1192(s0)
    bf20:	b6843f03          	ld	t5,-1176(s0)
    bf24:	b8ef4063          	blt	t5,a4,b2a4 <.LBB34_1180>

000000000000bf28 <.LBB34_1436>:
    bf28:	08000f13          	li	t5,128
    bf2c:	b7e43423          	sd	t5,-1176(s0)
    bf30:	b7843f03          	ld	t5,-1160(s0)
    bf34:	b6ef4c63          	blt	t5,a4,b2ac <.LBB34_1181>

000000000000bf38 <.LBB34_1437>:
    bf38:	08000f13          	li	t5,128
    bf3c:	b7e43c23          	sd	t5,-1160(s0)
    bf40:	b8843f03          	ld	t5,-1144(s0)
    bf44:	b6ef4863          	blt	t5,a4,b2b4 <.LBB34_1182>

000000000000bf48 <.LBB34_1438>:
    bf48:	08000f13          	li	t5,128
    bf4c:	b9e43423          	sd	t5,-1144(s0)
    bf50:	b9843f03          	ld	t5,-1128(s0)
    bf54:	b6ef4463          	blt	t5,a4,b2bc <.LBB34_1183>

000000000000bf58 <.LBB34_1439>:
    bf58:	08000f13          	li	t5,128
    bf5c:	b9e43c23          	sd	t5,-1128(s0)
    bf60:	ba843f03          	ld	t5,-1112(s0)
    bf64:	b6ef4063          	blt	t5,a4,b2c4 <.LBB34_1184>

000000000000bf68 <.LBB34_1440>:
    bf68:	08000f13          	li	t5,128
    bf6c:	bbe43423          	sd	t5,-1112(s0)
    bf70:	bb843f03          	ld	t5,-1096(s0)
    bf74:	b4ef4c63          	blt	t5,a4,b2cc <.LBB34_1185>

000000000000bf78 <.LBB34_1441>:
    bf78:	08000f13          	li	t5,128
    bf7c:	bbe43c23          	sd	t5,-1096(s0)
    bf80:	bc843f03          	ld	t5,-1080(s0)
    bf84:	b4ef4863          	blt	t5,a4,b2d4 <.LBB34_1186>

000000000000bf88 <.LBB34_1442>:
    bf88:	08000f13          	li	t5,128
    bf8c:	bde43423          	sd	t5,-1080(s0)
    bf90:	bd843f03          	ld	t5,-1064(s0)
    bf94:	b4ef4463          	blt	t5,a4,b2dc <.LBB34_1187>

000000000000bf98 <.LBB34_1443>:
    bf98:	08000f13          	li	t5,128
    bf9c:	bde43c23          	sd	t5,-1064(s0)
    bfa0:	94043f03          	ld	t5,-1728(s0)
    bfa4:	b4ef4063          	blt	t5,a4,b2e4 <.LBB34_1188>

000000000000bfa8 <.LBB34_1444>:
    bfa8:	08000f13          	li	t5,128
    bfac:	95e43023          	sd	t5,-1728(s0)
    bfb0:	95043f03          	ld	t5,-1712(s0)
    bfb4:	b2ef4c63          	blt	t5,a4,b2ec <.LBB34_1189>

000000000000bfb8 <.LBB34_1445>:
    bfb8:	08000f13          	li	t5,128
    bfbc:	95e43823          	sd	t5,-1712(s0)
    bfc0:	96043f03          	ld	t5,-1696(s0)
    bfc4:	b2ef4863          	blt	t5,a4,b2f4 <.LBB34_1190>

000000000000bfc8 <.LBB34_1446>:
    bfc8:	08000f13          	li	t5,128
    bfcc:	97e43023          	sd	t5,-1696(s0)
    bfd0:	97043f03          	ld	t5,-1680(s0)
    bfd4:	b2ef4463          	blt	t5,a4,b2fc <.LBB34_1191>

000000000000bfd8 <.LBB34_1447>:
    bfd8:	08000f13          	li	t5,128
    bfdc:	97e43823          	sd	t5,-1680(s0)
    bfe0:	98043f03          	ld	t5,-1664(s0)
    bfe4:	b2ef4063          	blt	t5,a4,b304 <.LBB34_1192>

000000000000bfe8 <.LBB34_1448>:
    bfe8:	08000f13          	li	t5,128
    bfec:	99e43023          	sd	t5,-1664(s0)
    bff0:	99043f03          	ld	t5,-1648(s0)
    bff4:	b0ef4c63          	blt	t5,a4,b30c <.LBB34_1193>

000000000000bff8 <.LBB34_1449>:
    bff8:	08000f13          	li	t5,128
    bffc:	99e43823          	sd	t5,-1648(s0)
    c000:	9a043f03          	ld	t5,-1632(s0)
    c004:	b0ef4863          	blt	t5,a4,b314 <.LBB34_1194>

000000000000c008 <.LBB34_1450>:
    c008:	08000f13          	li	t5,128
    c00c:	9be43023          	sd	t5,-1632(s0)
    c010:	9b043f03          	ld	t5,-1616(s0)
    c014:	b0ef4463          	blt	t5,a4,b31c <.LBB34_1195>

000000000000c018 <.LBB34_1451>:
    c018:	08000f13          	li	t5,128
    c01c:	9be43823          	sd	t5,-1616(s0)
    c020:	9c043f03          	ld	t5,-1600(s0)
    c024:	b0ef4063          	blt	t5,a4,b324 <.LBB34_1196>

000000000000c028 <.LBB34_1452>:
    c028:	08000f13          	li	t5,128
    c02c:	9de43023          	sd	t5,-1600(s0)
    c030:	9d043f03          	ld	t5,-1584(s0)
    c034:	aeef4c63          	blt	t5,a4,b32c <.LBB34_1197>

000000000000c038 <.LBB34_1453>:
    c038:	08000f13          	li	t5,128
    c03c:	9de43823          	sd	t5,-1584(s0)
    c040:	9e043f03          	ld	t5,-1568(s0)
    c044:	aeef4863          	blt	t5,a4,b334 <.LBB34_1198>

000000000000c048 <.LBB34_1454>:
    c048:	08000f13          	li	t5,128
    c04c:	9fe43023          	sd	t5,-1568(s0)
    c050:	9e843f03          	ld	t5,-1560(s0)
    c054:	aeef4463          	blt	t5,a4,b33c <.LBB34_1199>

000000000000c058 <.LBB34_1455>:
    c058:	08000f13          	li	t5,128
    c05c:	9fe43423          	sd	t5,-1560(s0)
    c060:	9f043f03          	ld	t5,-1552(s0)
    c064:	aeef4063          	blt	t5,a4,b344 <.LBB34_1200>

000000000000c068 <.LBB34_1456>:
    c068:	08000f13          	li	t5,128
    c06c:	9fe43823          	sd	t5,-1552(s0)
    c070:	9f843f03          	ld	t5,-1544(s0)
    c074:	acef4c63          	blt	t5,a4,b34c <.LBB34_1201>

000000000000c078 <.LBB34_1457>:
    c078:	08000f13          	li	t5,128
    c07c:	9fe43c23          	sd	t5,-1544(s0)
    c080:	a0043f03          	ld	t5,-1536(s0)
    c084:	acef4863          	blt	t5,a4,b354 <.LBB34_1202>

000000000000c088 <.LBB34_1458>:
    c088:	08000f13          	li	t5,128
    c08c:	a1e43023          	sd	t5,-1536(s0)
    c090:	a0843f03          	ld	t5,-1528(s0)
    c094:	acef4463          	blt	t5,a4,b35c <.LBB34_1203>

000000000000c098 <.LBB34_1459>:
    c098:	08000f13          	li	t5,128
    c09c:	a1e43423          	sd	t5,-1528(s0)
    c0a0:	a1043f03          	ld	t5,-1520(s0)
    c0a4:	acef4063          	blt	t5,a4,b364 <.LBB34_1204>

000000000000c0a8 <.LBB34_1460>:
    c0a8:	08000f13          	li	t5,128
    c0ac:	a1e43823          	sd	t5,-1520(s0)
    c0b0:	a1843f03          	ld	t5,-1512(s0)
    c0b4:	aaef4c63          	blt	t5,a4,b36c <.LBB34_1205>

000000000000c0b8 <.LBB34_1461>:
    c0b8:	08000f13          	li	t5,128
    c0bc:	a1e43c23          	sd	t5,-1512(s0)
    c0c0:	a2043f03          	ld	t5,-1504(s0)
    c0c4:	aaef4863          	blt	t5,a4,b374 <.LBB34_1206>

000000000000c0c8 <.LBB34_1462>:
    c0c8:	08000f13          	li	t5,128
    c0cc:	a3e43023          	sd	t5,-1504(s0)
    c0d0:	a2843f03          	ld	t5,-1496(s0)
    c0d4:	aaef4463          	blt	t5,a4,b37c <.LBB34_1207>

000000000000c0d8 <.LBB34_1463>:
    c0d8:	08000f13          	li	t5,128
    c0dc:	a3e43423          	sd	t5,-1496(s0)
    c0e0:	a3043f03          	ld	t5,-1488(s0)
    c0e4:	aaef4063          	blt	t5,a4,b384 <.LBB34_1208>

000000000000c0e8 <.LBB34_1464>:
    c0e8:	08000f13          	li	t5,128
    c0ec:	a3e43823          	sd	t5,-1488(s0)
    c0f0:	a3843f03          	ld	t5,-1480(s0)
    c0f4:	a8ef4c63          	blt	t5,a4,b38c <.LBB34_1209>

000000000000c0f8 <.LBB34_1465>:
    c0f8:	08000f13          	li	t5,128
    c0fc:	a3e43c23          	sd	t5,-1480(s0)
    c100:	a4843f03          	ld	t5,-1464(s0)
    c104:	a8ef4863          	blt	t5,a4,b394 <.LBB34_1210>

000000000000c108 <.LBB34_1466>:
    c108:	08000f13          	li	t5,128
    c10c:	a5e43423          	sd	t5,-1464(s0)
    c110:	a5843f03          	ld	t5,-1448(s0)
    c114:	a8ef4463          	blt	t5,a4,b39c <.LBB34_1211>

000000000000c118 <.LBB34_1467>:
    c118:	08000f13          	li	t5,128
    c11c:	a5e43c23          	sd	t5,-1448(s0)
    c120:	a6843f03          	ld	t5,-1432(s0)
    c124:	a8ef4063          	blt	t5,a4,b3a4 <.LBB34_1212>

000000000000c128 <.LBB34_1468>:
    c128:	08000f13          	li	t5,128
    c12c:	a7e43423          	sd	t5,-1432(s0)
    c130:	a7843f03          	ld	t5,-1416(s0)
    c134:	a6ef4c63          	blt	t5,a4,b3ac <.LBB34_1213>

000000000000c138 <.LBB34_1469>:
    c138:	08000f13          	li	t5,128
    c13c:	a7e43c23          	sd	t5,-1416(s0)
    c140:	a8843f03          	ld	t5,-1400(s0)
    c144:	a6ef4863          	blt	t5,a4,b3b4 <.LBB34_1214>

000000000000c148 <.LBB34_1470>:
    c148:	08000f13          	li	t5,128
    c14c:	a9e43423          	sd	t5,-1400(s0)
    c150:	a9843f03          	ld	t5,-1384(s0)
    c154:	a6ef4463          	blt	t5,a4,b3bc <.LBB34_1215>

000000000000c158 <.LBB34_1471>:
    c158:	08000f13          	li	t5,128
    c15c:	a9e43c23          	sd	t5,-1384(s0)
    c160:	aa843f03          	ld	t5,-1368(s0)
    c164:	a6ef4063          	blt	t5,a4,b3c4 <.LBB34_1216>

000000000000c168 <.LBB34_1472>:
    c168:	08000f13          	li	t5,128
    c16c:	abe43423          	sd	t5,-1368(s0)
    c170:	ab843f03          	ld	t5,-1352(s0)
    c174:	a4ef4c63          	blt	t5,a4,b3cc <.LBB34_1217>

000000000000c178 <.LBB34_1473>:
    c178:	08000f13          	li	t5,128
    c17c:	abe43c23          	sd	t5,-1352(s0)
    c180:	ac843f03          	ld	t5,-1336(s0)
    c184:	a4ef4863          	blt	t5,a4,b3d4 <.LBB34_1218>

000000000000c188 <.LBB34_1474>:
    c188:	08000f13          	li	t5,128
    c18c:	ade43423          	sd	t5,-1336(s0)
    c190:	ad843f03          	ld	t5,-1320(s0)
    c194:	a4ef4463          	blt	t5,a4,b3dc <.LBB34_1219>

000000000000c198 <.LBB34_1475>:
    c198:	08000f13          	li	t5,128
    c19c:	ade43c23          	sd	t5,-1320(s0)
    c1a0:	87043583          	ld	a1,-1936(s0)
    c1a4:	a4e5c063          	blt	a1,a4,b3e4 <.LBB34_1220>

000000000000c1a8 <.LBB34_1476>:
    c1a8:	08000593          	li	a1,128
    c1ac:	86b43823          	sd	a1,-1936(s0)
    c1b0:	88043583          	ld	a1,-1920(s0)
    c1b4:	a2e5cc63          	blt	a1,a4,b3ec <.LBB34_1221>

000000000000c1b8 <.LBB34_1477>:
    c1b8:	08000593          	li	a1,128
    c1bc:	88b43023          	sd	a1,-1920(s0)
    c1c0:	a2eb4863          	blt	s6,a4,b3f0 <.LBB34_1222>

000000000000c1c4 <.LBB34_1478>:
    c1c4:	08000b13          	li	s6,128
    c1c8:	a2e94663          	blt	s2,a4,b3f4 <.LBB34_1223>

000000000000c1cc <.LBB34_1479>:
    c1cc:	08000913          	li	s2,128
    c1d0:	8a043f03          	ld	t5,-1888(s0)
    c1d4:	a2ef4463          	blt	t5,a4,b3fc <.LBB34_1224>

000000000000c1d8 <.LBB34_1480>:
    c1d8:	08000f13          	li	t5,128
    c1dc:	8be43023          	sd	t5,-1888(s0)
    c1e0:	8a843f03          	ld	t5,-1880(s0)
    c1e4:	a2ef4063          	blt	t5,a4,b404 <.LBB34_1225>

000000000000c1e8 <.LBB34_1481>:
    c1e8:	08000f13          	li	t5,128
    c1ec:	8be43423          	sd	t5,-1880(s0)
    c1f0:	a0ea4c63          	blt	s4,a4,b408 <.LBB34_1226>

000000000000c1f4 <.LBB34_1482>:
    c1f4:	08000a13          	li	s4,128
    c1f8:	a0e9ca63          	blt	s3,a4,b40c <.LBB34_1227>

000000000000c1fc <.LBB34_1483>:
    c1fc:	08000993          	li	s3,128
    c200:	a0e4c863          	blt	s1,a4,b410 <.LBB34_1228>

000000000000c204 <.LBB34_1484>:
    c204:	08000493          	li	s1,128
    c208:	8d043f03          	ld	t5,-1840(s0)
    c20c:	a0ef4663          	blt	t5,a4,b418 <.LBB34_1229>

000000000000c210 <.LBB34_1485>:
    c210:	08000f13          	li	t5,128
    c214:	8de43823          	sd	t5,-1840(s0)
    c218:	8e043f03          	ld	t5,-1824(s0)
    c21c:	a0ef4263          	blt	t5,a4,b420 <.LBB34_1230>

000000000000c220 <.LBB34_1486>:
    c220:	08000f13          	li	t5,128
    c224:	8fe43023          	sd	t5,-1824(s0)
    c228:	8e843f03          	ld	t5,-1816(s0)
    c22c:	9eef4e63          	blt	t5,a4,b428 <.LBB34_1231>

000000000000c230 <.LBB34_1487>:
    c230:	08000f13          	li	t5,128
    c234:	8fe43423          	sd	t5,-1816(s0)
    c238:	8f043f03          	ld	t5,-1808(s0)
    c23c:	9eef4a63          	blt	t5,a4,b430 <.LBB34_1232>

000000000000c240 <.LBB34_1488>:
    c240:	08000f13          	li	t5,128
    c244:	8fe43823          	sd	t5,-1808(s0)
    c248:	8f843f03          	ld	t5,-1800(s0)
    c24c:	9eef4663          	blt	t5,a4,b438 <.LBB34_1233>

000000000000c250 <.LBB34_1489>:
    c250:	08000f13          	li	t5,128
    c254:	8fe43c23          	sd	t5,-1800(s0)
    c258:	90043f03          	ld	t5,-1792(s0)
    c25c:	9eef4263          	blt	t5,a4,b440 <.LBB34_1234>

000000000000c260 <.LBB34_1490>:
    c260:	08000f13          	li	t5,128
    c264:	91e43023          	sd	t5,-1792(s0)
    c268:	90843f03          	ld	t5,-1784(s0)
    c26c:	9cef4e63          	blt	t5,a4,b448 <.LBB34_1235>

000000000000c270 <.LBB34_1491>:
    c270:	08000f13          	li	t5,128
    c274:	91e43423          	sd	t5,-1784(s0)
    c278:	91043f03          	ld	t5,-1776(s0)
    c27c:	9cef4a63          	blt	t5,a4,b450 <.LBB34_1236>

000000000000c280 <.LBB34_1492>:
    c280:	08000f13          	li	t5,128
    c284:	91e43823          	sd	t5,-1776(s0)
    c288:	91843f03          	ld	t5,-1768(s0)
    c28c:	9cef4663          	blt	t5,a4,b458 <.LBB34_1237>

000000000000c290 <.LBB34_1493>:
    c290:	08000f13          	li	t5,128
    c294:	91e43c23          	sd	t5,-1768(s0)
    c298:	92043f03          	ld	t5,-1760(s0)
    c29c:	9cef4263          	blt	t5,a4,b460 <.LBB34_1238>

000000000000c2a0 <.LBB34_1494>:
    c2a0:	08000f13          	li	t5,128
    c2a4:	93e43023          	sd	t5,-1760(s0)
    c2a8:	92843f03          	ld	t5,-1752(s0)
    c2ac:	9aef4e63          	blt	t5,a4,b468 <.LBB34_1239>

000000000000c2b0 <.LBB34_1495>:
    c2b0:	08000f13          	li	t5,128
    c2b4:	93e43423          	sd	t5,-1752(s0)
    c2b8:	93043f03          	ld	t5,-1744(s0)
    c2bc:	9aef4a63          	blt	t5,a4,b470 <.LBB34_1240>

000000000000c2c0 <.LBB34_1496>:
    c2c0:	08000f13          	li	t5,128
    c2c4:	93e43823          	sd	t5,-1744(s0)
    c2c8:	93843f03          	ld	t5,-1736(s0)
    c2cc:	9aef4663          	blt	t5,a4,b478 <.LBB34_1241>

000000000000c2d0 <.LBB34_1497>:
    c2d0:	08000f13          	li	t5,128
    c2d4:	93e43c23          	sd	t5,-1736(s0)
    c2d8:	94843f03          	ld	t5,-1720(s0)
    c2dc:	9aef4263          	blt	t5,a4,b480 <.LBB34_1242>

000000000000c2e0 <.LBB34_1498>:
    c2e0:	08000f13          	li	t5,128
    c2e4:	95e43423          	sd	t5,-1720(s0)
    c2e8:	95843f03          	ld	t5,-1704(s0)
    c2ec:	98ef4e63          	blt	t5,a4,b488 <.LBB34_1243>

000000000000c2f0 <.LBB34_1499>:
    c2f0:	08000f13          	li	t5,128
    c2f4:	95e43c23          	sd	t5,-1704(s0)
    c2f8:	96843f03          	ld	t5,-1688(s0)
    c2fc:	98ef4a63          	blt	t5,a4,b490 <.LBB34_1244>

000000000000c300 <.LBB34_1500>:
    c300:	08000f13          	li	t5,128
    c304:	97e43423          	sd	t5,-1688(s0)
    c308:	97843f03          	ld	t5,-1672(s0)
    c30c:	98ef4663          	blt	t5,a4,b498 <.LBB34_1245>

000000000000c310 <.LBB34_1501>:
    c310:	08000f13          	li	t5,128
    c314:	97e43c23          	sd	t5,-1672(s0)
    c318:	98843f03          	ld	t5,-1656(s0)
    c31c:	98ef4263          	blt	t5,a4,b4a0 <.LBB34_1246>

000000000000c320 <.LBB34_1502>:
    c320:	08000f13          	li	t5,128
    c324:	99e43423          	sd	t5,-1656(s0)
    c328:	99843f03          	ld	t5,-1640(s0)
    c32c:	96ef4e63          	blt	t5,a4,b4a8 <.LBB34_1247>

000000000000c330 <.LBB34_1503>:
    c330:	08000f13          	li	t5,128
    c334:	99e43c23          	sd	t5,-1640(s0)
    c338:	9a843f03          	ld	t5,-1624(s0)
    c33c:	96ef4a63          	blt	t5,a4,b4b0 <.LBB34_1248>

000000000000c340 <.LBB34_1504>:
    c340:	08000f13          	li	t5,128
    c344:	9be43423          	sd	t5,-1624(s0)
    c348:	9b843f03          	ld	t5,-1608(s0)
    c34c:	96ef4663          	blt	t5,a4,b4b8 <.LBB34_1249>

000000000000c350 <.LBB34_1505>:
    c350:	08000f13          	li	t5,128
    c354:	9be43c23          	sd	t5,-1608(s0)
    c358:	9c843f03          	ld	t5,-1592(s0)
    c35c:	96ef4263          	blt	t5,a4,b4c0 <.LBB34_1250>

000000000000c360 <.LBB34_1506>:
    c360:	08000f13          	li	t5,128
    c364:	9de43423          	sd	t5,-1592(s0)
    c368:	9d843f03          	ld	t5,-1576(s0)
    c36c:	94ef4e63          	blt	t5,a4,b4c8 <.LBB34_1251>

000000000000c370 <.LBB34_1507>:
    c370:	08000f13          	li	t5,128
    c374:	9de43c23          	sd	t5,-1576(s0)
    c378:	94e34a63          	blt	t1,a4,b4cc <.LBB34_1252>

000000000000c37c <.LBB34_1508>:
    c37c:	08000313          	li	t1,128
    c380:	8d843f03          	ld	t5,-1832(s0)
    c384:	94e2c863          	blt	t0,a4,b4d4 <.LBB34_1253>

000000000000c388 <.LBB34_1509>:
    c388:	08000293          	li	t0,128
    c38c:	94e8c663          	blt	a7,a4,b4d8 <.LBB34_1254>

000000000000c390 <.LBB34_1510>:
    c390:	08000893          	li	a7,128
    c394:	94e84463          	blt	a6,a4,b4dc <.LBB34_1255>

000000000000c398 <.LBB34_1511>:
    c398:	08000813          	li	a6,128
    c39c:	94e7c263          	blt	a5,a4,b4e0 <.LBB34_1256>

000000000000c3a0 <.LBB34_1512>:
    c3a0:	08000793          	li	a5,128
    c3a4:	94e54063          	blt	a0,a4,b4e4 <.LBB34_1257>

000000000000c3a8 <.LBB34_1513>:
    c3a8:	08000513          	li	a0,128
    c3ac:	92e64e63          	blt	a2,a4,b4e8 <.LBB34_1258>

000000000000c3b0 <.LBB34_1514>:
    c3b0:	08000613          	li	a2,128
    c3b4:	92e6cc63          	blt	a3,a4,b4ec <.LBB34_1259>

000000000000c3b8 <.LBB34_1515>:
    c3b8:	08000693          	li	a3,128
    c3bc:	92e0ca63          	blt	ra,a4,b4f0 <.LBB34_1260>

000000000000c3c0 <.LBB34_1516>:
    c3c0:	08000093          	li	ra,128
    c3c4:	92edc863          	blt	s11,a4,b4f4 <.LBB34_1261>

000000000000c3c8 <.LBB34_1517>:
    c3c8:	08000d93          	li	s11,128
    c3cc:	92ed4663          	blt	s10,a4,b4f8 <.LBB34_1262>

000000000000c3d0 <.LBB34_1518>:
    c3d0:	08000d13          	li	s10,128
    c3d4:	92ecc463          	blt	s9,a4,b4fc <.LBB34_1263>

000000000000c3d8 <.LBB34_1519>:
    c3d8:	08000c93          	li	s9,128
    c3dc:	92ec4263          	blt	s8,a4,b500 <.LBB34_1264>

000000000000c3e0 <.LBB34_1520>:
    c3e0:	08000c13          	li	s8,128
    c3e4:	92ebc063          	blt	s7,a4,b504 <.LBB34_1265>

000000000000c3e8 <.LBB34_1521>:
    c3e8:	08000b93          	li	s7,128
    c3ec:	90eece63          	blt	t4,a4,b508 <.LBB34_1266>

000000000000c3f0 <.LBB34_1522>:
    c3f0:	08000e93          	li	t4,128
    c3f4:	90ee4c63          	blt	t3,a4,b50c <.LBB34_1267>

000000000000c3f8 <.LBB34_1523>:
    c3f8:	08000e13          	li	t3,128
    c3fc:	90e3ca63          	blt	t2,a4,b510 <.LBB34_1268>

000000000000c400 <.LBB34_1524>:
    c400:	08000393          	li	t2,128
    c404:	84843583          	ld	a1,-1976(s0)
    c408:	90e5c863          	blt	a1,a4,b518 <.LBB34_1269>

000000000000c40c <.LBB34_1525>:
    c40c:	08000593          	li	a1,128
    c410:	84b43423          	sd	a1,-1976(s0)
    c414:	85043583          	ld	a1,-1968(s0)
    c418:	90e5c463          	blt	a1,a4,b520 <.LBB34_1270>

000000000000c41c <.LBB34_1526>:
    c41c:	08000593          	li	a1,128
    c420:	84b43823          	sd	a1,-1968(s0)
    c424:	85843583          	ld	a1,-1960(s0)
    c428:	90e5c063          	blt	a1,a4,b528 <.LBB34_1271>

000000000000c42c <.LBB34_1527>:
    c42c:	08000593          	li	a1,128
    c430:	84b43c23          	sd	a1,-1960(s0)
    c434:	86043583          	ld	a1,-1952(s0)
    c438:	8ee5cc63          	blt	a1,a4,b530 <.LBB34_1272>

000000000000c43c <.LBB34_1528>:
    c43c:	08000593          	li	a1,128
    c440:	86b43023          	sd	a1,-1952(s0)
    c444:	86843583          	ld	a1,-1944(s0)
    c448:	8ee5c863          	blt	a1,a4,b538 <.LBB34_1273>

000000000000c44c <.LBB34_1529>:
    c44c:	08000593          	li	a1,128
    c450:	86b43423          	sd	a1,-1944(s0)
    c454:	87843583          	ld	a1,-1928(s0)
    c458:	8ee5c463          	blt	a1,a4,b540 <.LBB34_1274>

000000000000c45c <.LBB34_1530>:
    c45c:	08000593          	li	a1,128
    c460:	86b43c23          	sd	a1,-1928(s0)
    c464:	000b0593          	mv	a1,s6
    c468:	88843b03          	ld	s6,-1912(s0)
    c46c:	8eeb4063          	blt	s6,a4,b54c <.LBB34_1275>

000000000000c470 <.LBB34_1531>:
    c470:	08000b13          	li	s6,128
    c474:	89643423          	sd	s6,-1912(s0)
    c478:	00090b13          	mv	s6,s2
    c47c:	89043903          	ld	s2,-1904(s0)
    c480:	8ce94c63          	blt	s2,a4,b558 <.LBB34_1276>

000000000000c484 <.LBB34_1532>:
    c484:	08000913          	li	s2,128
    c488:	89243823          	sd	s2,-1904(s0)
    c48c:	89843903          	ld	s2,-1896(s0)
    c490:	8ce94863          	blt	s2,a4,b560 <.LBB34_1277>

000000000000c494 <.LBB34_1533>:
    c494:	08000913          	li	s2,128
    c498:	89243c23          	sd	s2,-1896(s0)
    c49c:	8ceac463          	blt	s5,a4,b564 <.LBB34_1278>

000000000000c4a0 <.LBB34_1534>:
    c4a0:	08000a93          	li	s5,128
    c4a4:	85543023          	sd	s5,-1984(s0)
    c4a8:	000a0a93          	mv	s5,s4
    c4ac:	8b043a03          	ld	s4,-1872(s0)
    c4b0:	8cea4263          	blt	s4,a4,b574 <.LBB34_1279>

000000000000c4b4 <.LBB34_1535>:
    c4b4:	08000a13          	li	s4,128
    c4b8:	8b443823          	sd	s4,-1872(s0)
    c4bc:	00098a13          	mv	s4,s3
    c4c0:	8b843983          	ld	s3,-1864(s0)
    c4c4:	8ae9ce63          	blt	s3,a4,b580 <.LBB34_1280>

000000000000c4c8 <.LBB34_1536>:
    c4c8:	08000993          	li	s3,128
    c4cc:	8b343c23          	sd	s3,-1864(s0)
    c4d0:	00048993          	mv	s3,s1
    c4d4:	8c043483          	ld	s1,-1856(s0)
    c4d8:	8ae4ca63          	blt	s1,a4,b58c <.LBB34_1281>

000000000000c4dc <.LBB34_1537>:
    c4dc:	08000493          	li	s1,128
    c4e0:	8c943023          	sd	s1,-1856(s0)
    c4e4:	8c843483          	ld	s1,-1848(s0)
    c4e8:	8ae4c663          	blt	s1,a4,b594 <.LBB34_1282>

000000000000c4ec <.LBB34_1538>:
    c4ec:	08000493          	li	s1,128
    c4f0:	8c943423          	sd	s1,-1848(s0)
    c4f4:	00ef5463          	bge	t5,a4,c4fc <.LBB34_1539>
    c4f8:	e11f306f          	j	308 <.LBB34_1>

000000000000c4fc <.LBB34_1539>:
    c4fc:	08000f13          	li	t5,128
    c500:	e09f306f          	j	308 <.LBB34_1>

000000000000c504 <.LBB34_1540>:
    c504:	00000513          	li	a0,0
    c508:	7f010113          	addi	sp,sp,2032
    c50c:	57010113          	addi	sp,sp,1392
    c510:	7e813083          	ld	ra,2024(sp)
    c514:	7e013403          	ld	s0,2016(sp)
    c518:	7d813483          	ld	s1,2008(sp)
    c51c:	7d013903          	ld	s2,2000(sp)
    c520:	7c813983          	ld	s3,1992(sp)
    c524:	7c013a03          	ld	s4,1984(sp)
    c528:	7b813a83          	ld	s5,1976(sp)
    c52c:	7b013b03          	ld	s6,1968(sp)
    c530:	7a813b83          	ld	s7,1960(sp)
    c534:	7a013c03          	ld	s8,1952(sp)
    c538:	79813c83          	ld	s9,1944(sp)
    c53c:	79013d03          	ld	s10,1936(sp)
    c540:	78813d83          	ld	s11,1928(sp)
    c544:	7f010113          	addi	sp,sp,2032
    c548:	00008067          	ret
