
code.o:     file format elf64-littleriscv


Disassembly of section .text.main_dispatch_51_matmul_784x192x32_i8xi8xi32:

0000000000000000 <main_dispatch_51_matmul_784x192x32_i8xi8xi32>:
       0:	f1501173          	csrrw	sp,0xf15,zero

0000000000000004 <.Lfunc_begin46>:
       4:	81010113          	addi	sp,sp,-2032
       8:	7e113423          	sd	ra,2024(sp)
       c:	7e813023          	sd	s0,2016(sp)
      10:	7c913c23          	sd	s1,2008(sp)
      14:	7d213823          	sd	s2,2000(sp)
      18:	7d313423          	sd	s3,1992(sp)
      1c:	7d413023          	sd	s4,1984(sp)
      20:	7b513c23          	sd	s5,1976(sp)
      24:	7b613823          	sd	s6,1968(sp)
      28:	7b713423          	sd	s7,1960(sp)
      2c:	7b813023          	sd	s8,1952(sp)
      30:	79913c23          	sd	s9,1944(sp)
      34:	79a13823          	sd	s10,1936(sp)
      38:	79b13423          	sd	s11,1928(sp)
      3c:	7f010413          	addi	s0,sp,2032
      40:	80010113          	addi	sp,sp,-2048
      44:	ce010113          	addi	sp,sp,-800
      48:	0205b583          	ld	a1,32(a1)
      4c:	00000513          	li	a0,0
      50:	0085b603          	ld	a2,8(a1)
      54:	0005b683          	ld	a3,0(a1)
      58:	0002e737          	lui	a4,0x2e
      5c:	8807071b          	addiw	a4,a4,-1920 # 2d880 <.Lfunc_end80+0x4eb4>
      60:	00e60733          	add	a4,a2,a4
      64:	000017b7          	lui	a5,0x1
      68:	40f407b3          	sub	a5,s0,a5
      6c:	d0e7b023          	sd	a4,-768(a5) # d00 <.LBB46_3+0xacc>
      70:	0001e737          	lui	a4,0x1e
      74:	3807071b          	addiw	a4,a4,896 # 1e380 <.LBB60_3670+0x4>
      78:	00e60733          	add	a4,a2,a4
      7c:	000017b7          	lui	a5,0x1
      80:	40f407b3          	sub	a5,s0,a5
      84:	d2e7b423          	sd	a4,-728(a5) # d28 <.LBB46_3+0xaf4>
      88:	00006737          	lui	a4,0x6
      8c:	2007071b          	addiw	a4,a4,512 # 6200 <.LBB46_316+0x20>
      90:	00e68733          	add	a4,a3,a4
      94:	000017b7          	lui	a5,0x1
      98:	40f407b3          	sub	a5,s0,a5
      9c:	cee7bc23          	sd	a4,-776(a5) # cf8 <.LBB46_3+0xac4>
      a0:	0002f737          	lui	a4,0x2f
      a4:	0807071b          	addiw	a4,a4,128 # 2f080 <.Lfunc_end80+0x66b4>
      a8:	0105b583          	ld	a1,16(a1)
      ac:	00e60633          	add	a2,a2,a4
      b0:	00001737          	lui	a4,0x1
      b4:	40e40733          	sub	a4,s0,a4
      b8:	d2c73023          	sd	a2,-736(a4) # d20 <.LBB46_3+0xaec>
      bc:	00007637          	lui	a2,0x7
      c0:	e406061b          	addiw	a2,a2,-448 # 6e40 <.LBB46_428+0xc>
      c4:	00c585b3          	add	a1,a1,a2
      c8:	00001637          	lui	a2,0x1
      cc:	40c40633          	sub	a2,s0,a2
      d0:	ceb63823          	sd	a1,-784(a2) # cf0 <.LBB46_3+0xabc>
      d4:	08068593          	addi	a1,a3,128
      d8:	00001637          	lui	a2,0x1
      dc:	40c40633          	sub	a2,s0,a2
      e0:	d6b63823          	sd	a1,-656(a2) # d70 <.LBB46_3+0xb3c>
      e4:	00300593          	li	a1,3
      e8:	00b59593          	slli	a1,a1,0xb
      ec:	00001637          	lui	a2,0x1
      f0:	40c40633          	sub	a2,s0,a2
      f4:	d0b63c23          	sd	a1,-744(a2) # d18 <.LBB46_3+0xae4>
      f8:	6eb435b7          	lui	a1,0x6eb43
      fc:	6c15859b          	addiw	a1,a1,1729 # 6eb436c1 <.Lfunc_end80+0x6eb1acf5>
     100:	00001637          	lui	a2,0x1
     104:	40c40633          	sub	a2,s0,a2
     108:	d0b63823          	sd	a1,-752(a2) # d10 <.LBB46_3+0xadc>
     10c:	00100593          	li	a1,1
     110:	02359593          	slli	a1,a1,0x23
     114:	00001637          	lui	a2,0x1
     118:	40c40633          	sub	a2,s0,a2
     11c:	64b63c23          	sd	a1,1624(a2) # 1658 <.LBB46_4+0x4d0>
     120:	03c0006f          	j	15c <.LBB46_2>

0000000000000124 <.LBB46_1>:
     124:	00001537          	lui	a0,0x1
     128:	40a40533          	sub	a0,s0,a0
     12c:	d0853603          	ld	a2,-760(a0) # d08 <.LBB46_3+0xad4>
     130:	00860513          	addi	a0,a2,8
     134:	000015b7          	lui	a1,0x1
     138:	40b405b3          	sub	a1,s0,a1
     13c:	d705b583          	ld	a1,-656(a1) # d70 <.LBB46_3+0xb3c>
     140:	10058593          	addi	a1,a1,256
     144:	000016b7          	lui	a3,0x1
     148:	40d406b3          	sub	a3,s0,a3
     14c:	d6b6b823          	sd	a1,-656(a3) # d70 <.LBB46_3+0xb3c>
     150:	30800593          	li	a1,776
     154:	00b66463          	bltu	a2,a1,15c <.LBB46_2>
     158:	21c0b06f          	j	b374 <.LBB46_1030>

000000000000015c <.LBB46_2>:
     15c:	00000593          	li	a1,0
     160:	00050693          	mv	a3,a0
     164:	00251513          	slli	a0,a0,0x2
     168:	00001637          	lui	a2,0x1
     16c:	40c40633          	sub	a2,s0,a2
     170:	cf863603          	ld	a2,-776(a2) # cf8 <.LBB46_3+0xac4>
     174:	00a60533          	add	a0,a2,a0
     178:	00001637          	lui	a2,0x1
     17c:	40c40633          	sub	a2,s0,a2
     180:	66a63023          	sd	a0,1632(a2) # 1660 <.LBB46_4+0x4d8>
     184:	0c000513          	li	a0,192
     188:	00001637          	lui	a2,0x1
     18c:	40c40633          	sub	a2,s0,a2
     190:	d0d63423          	sd	a3,-760(a2) # d08 <.LBB46_3+0xad4>
     194:	02a68533          	mul	a0,a3,a0
     198:	00001637          	lui	a2,0x1
     19c:	40c40633          	sub	a2,s0,a2
     1a0:	cf063603          	ld	a2,-784(a2) # cf0 <.LBB46_3+0xabc>
     1a4:	00a60533          	add	a0,a2,a0
     1a8:	0c050613          	addi	a2,a0,192
     1ac:	000016b7          	lui	a3,0x1
     1b0:	40d406b3          	sub	a3,s0,a3
     1b4:	d6c6b023          	sd	a2,-672(a3) # d60 <.LBB46_3+0xb2c>
     1b8:	18050613          	addi	a2,a0,384
     1bc:	000016b7          	lui	a3,0x1
     1c0:	40d406b3          	sub	a3,s0,a3
     1c4:	d4c6bc23          	sd	a2,-680(a3) # d58 <.LBB46_3+0xb24>
     1c8:	24050613          	addi	a2,a0,576
     1cc:	000016b7          	lui	a3,0x1
     1d0:	40d406b3          	sub	a3,s0,a3
     1d4:	d4c6b823          	sd	a2,-688(a3) # d50 <.LBB46_3+0xb1c>
     1d8:	30050613          	addi	a2,a0,768
     1dc:	000016b7          	lui	a3,0x1
     1e0:	40d406b3          	sub	a3,s0,a3
     1e4:	d4c6b423          	sd	a2,-696(a3) # d48 <.LBB46_3+0xb14>
     1e8:	3c050613          	addi	a2,a0,960
     1ec:	000016b7          	lui	a3,0x1
     1f0:	40d406b3          	sub	a3,s0,a3
     1f4:	d4c6b023          	sd	a2,-704(a3) # d40 <.LBB46_3+0xb0c>
     1f8:	48050613          	addi	a2,a0,1152
     1fc:	000016b7          	lui	a3,0x1
     200:	40d406b3          	sub	a3,s0,a3
     204:	d2c6bc23          	sd	a2,-712(a3) # d38 <.LBB46_3+0xb04>
     208:	00001637          	lui	a2,0x1
     20c:	40c40633          	sub	a2,s0,a2
     210:	d6a63423          	sd	a0,-664(a2) # d68 <.LBB46_3+0xb34>
     214:	54050513          	addi	a0,a0,1344
     218:	00001637          	lui	a2,0x1
     21c:	40c40633          	sub	a2,s0,a2
     220:	d2a63823          	sd	a0,-720(a2) # d30 <.LBB46_3+0xafc>
     224:	00001537          	lui	a0,0x1
     228:	40a40533          	sub	a0,s0,a0
     22c:	d0053603          	ld	a2,-768(a0) # d00 <.LBB46_3+0xacc>
     230:	7590006f          	j	1188 <.LBB46_4>

0000000000000234 <.LBB46_3>:
     234:	080d4c93          	xori	s9,s10,128
     238:	00001c37          	lui	s8,0x1
     23c:	41840c33          	sub	s8,s0,s8
     240:	d68c3c03          	ld	s8,-664(s8) # d68 <.LBB46_3+0xb34>
     244:	00001d37          	lui	s10,0x1
     248:	41a40d33          	sub	s10,s0,s10
     24c:	668d3d03          	ld	s10,1640(s10) # 1668 <.LBB46_4+0x4e0>
     250:	01ac0c33          	add	s8,s8,s10
     254:	019c01a3          	sb	s9,3(s8)
     258:	f8843c83          	ld	s9,-120(s0)
     25c:	080ccc93          	xori	s9,s9,128
     260:	019c0123          	sb	s9,2(s8)
     264:	f8043c83          	ld	s9,-128(s0)
     268:	080ccc93          	xori	s9,s9,128
     26c:	019c00a3          	sb	s9,1(s8)
     270:	f7843c83          	ld	s9,-136(s0)
     274:	080ccc93          	xori	s9,s9,128
     278:	019c0023          	sb	s9,0(s8)
     27c:	f7043c83          	ld	s9,-144(s0)
     280:	080ccc93          	xori	s9,s9,128
     284:	019c0223          	sb	s9,4(s8)
     288:	f6843c83          	ld	s9,-152(s0)
     28c:	080ccc93          	xori	s9,s9,128
     290:	019c02a3          	sb	s9,5(s8)
     294:	f6043c83          	ld	s9,-160(s0)
     298:	080ccc93          	xori	s9,s9,128
     29c:	019c0323          	sb	s9,6(s8)
     2a0:	f5843c83          	ld	s9,-168(s0)
     2a4:	080ccc93          	xori	s9,s9,128
     2a8:	019c03a3          	sb	s9,7(s8)
     2ac:	f5043c83          	ld	s9,-176(s0)
     2b0:	080ccc93          	xori	s9,s9,128
     2b4:	019c0423          	sb	s9,8(s8)
     2b8:	f4843c83          	ld	s9,-184(s0)
     2bc:	080ccc93          	xori	s9,s9,128
     2c0:	019c04a3          	sb	s9,9(s8)
     2c4:	f4043c83          	ld	s9,-192(s0)
     2c8:	080ccc93          	xori	s9,s9,128
     2cc:	019c0523          	sb	s9,10(s8)
     2d0:	f3843c83          	ld	s9,-200(s0)
     2d4:	080ccc93          	xori	s9,s9,128
     2d8:	019c05a3          	sb	s9,11(s8)
     2dc:	f3043c83          	ld	s9,-208(s0)
     2e0:	080ccc93          	xori	s9,s9,128
     2e4:	019c0623          	sb	s9,12(s8)
     2e8:	f2843c83          	ld	s9,-216(s0)
     2ec:	080ccc93          	xori	s9,s9,128
     2f0:	019c06a3          	sb	s9,13(s8)
     2f4:	f2043c83          	ld	s9,-224(s0)
     2f8:	080ccc93          	xori	s9,s9,128
     2fc:	019c0723          	sb	s9,14(s8)
     300:	f1843c83          	ld	s9,-232(s0)
     304:	080ccc93          	xori	s9,s9,128
     308:	019c07a3          	sb	s9,15(s8)
     30c:	f1043c83          	ld	s9,-240(s0)
     310:	080ccc93          	xori	s9,s9,128
     314:	019c0823          	sb	s9,16(s8)
     318:	f0843c83          	ld	s9,-248(s0)
     31c:	080ccc93          	xori	s9,s9,128
     320:	019c08a3          	sb	s9,17(s8)
     324:	f0043c83          	ld	s9,-256(s0)
     328:	080ccc93          	xori	s9,s9,128
     32c:	019c0923          	sb	s9,18(s8)
     330:	ef843c83          	ld	s9,-264(s0)
     334:	080ccc93          	xori	s9,s9,128
     338:	019c09a3          	sb	s9,19(s8)
     33c:	ef043c83          	ld	s9,-272(s0)
     340:	080ccc93          	xori	s9,s9,128
     344:	019c0a23          	sb	s9,20(s8)
     348:	ee043c83          	ld	s9,-288(s0)
     34c:	080ccc93          	xori	s9,s9,128
     350:	019c0aa3          	sb	s9,21(s8)
     354:	ed843c83          	ld	s9,-296(s0)
     358:	080ccc93          	xori	s9,s9,128
     35c:	019c0b23          	sb	s9,22(s8)
     360:	ed043c83          	ld	s9,-304(s0)
     364:	080ccc93          	xori	s9,s9,128
     368:	019c0ba3          	sb	s9,23(s8)
     36c:	ea843c83          	ld	s9,-344(s0)
     370:	080ccc93          	xori	s9,s9,128
     374:	019c0c23          	sb	s9,24(s8)
     378:	e7843c83          	ld	s9,-392(s0)
     37c:	080ccc93          	xori	s9,s9,128
     380:	019c0ca3          	sb	s9,25(s8)
     384:	e5843c83          	ld	s9,-424(s0)
     388:	080ccc93          	xori	s9,s9,128
     38c:	019c0d23          	sb	s9,26(s8)
     390:	e4043c83          	ld	s9,-448(s0)
     394:	080ccc93          	xori	s9,s9,128
     398:	019c0da3          	sb	s9,27(s8)
     39c:	e3843c83          	ld	s9,-456(s0)
     3a0:	080ccc93          	xori	s9,s9,128
     3a4:	019c0e23          	sb	s9,28(s8)
     3a8:	e3043c83          	ld	s9,-464(s0)
     3ac:	080ccc93          	xori	s9,s9,128
     3b0:	019c0ea3          	sb	s9,29(s8)
     3b4:	e2843c83          	ld	s9,-472(s0)
     3b8:	080ccc93          	xori	s9,s9,128
     3bc:	019c0f23          	sb	s9,30(s8)
     3c0:	e2043c83          	ld	s9,-480(s0)
     3c4:	080ccc93          	xori	s9,s9,128
     3c8:	019c0fa3          	sb	s9,31(s8)
     3cc:	e1843c03          	ld	s8,-488(s0)
     3d0:	080c4c93          	xori	s9,s8,128
     3d4:	00001c37          	lui	s8,0x1
     3d8:	41840c33          	sub	s8,s0,s8
     3dc:	d60c3c03          	ld	s8,-672(s8) # d60 <.LBB46_3+0xb2c>
     3e0:	01ac0c33          	add	s8,s8,s10
     3e4:	019c01a3          	sb	s9,3(s8)
     3e8:	e1043c83          	ld	s9,-496(s0)
     3ec:	080ccc93          	xori	s9,s9,128
     3f0:	019c0123          	sb	s9,2(s8)
     3f4:	e0843c83          	ld	s9,-504(s0)
     3f8:	080ccc93          	xori	s9,s9,128
     3fc:	019c00a3          	sb	s9,1(s8)
     400:	e0043c83          	ld	s9,-512(s0)
     404:	080ccc93          	xori	s9,s9,128
     408:	019c0023          	sb	s9,0(s8)
     40c:	c0843c83          	ld	s9,-1016(s0)
     410:	080ccc93          	xori	s9,s9,128
     414:	019c0223          	sb	s9,4(s8)
     418:	bc043c83          	ld	s9,-1088(s0)
     41c:	080ccc93          	xori	s9,s9,128
     420:	019c02a3          	sb	s9,5(s8)
     424:	b8043c83          	ld	s9,-1152(s0)
     428:	080ccc93          	xori	s9,s9,128
     42c:	019c0323          	sb	s9,6(s8)
     430:	b3043c83          	ld	s9,-1232(s0)
     434:	080ccc93          	xori	s9,s9,128
     438:	019c03a3          	sb	s9,7(s8)
     43c:	ae043c83          	ld	s9,-1312(s0)
     440:	080ccc93          	xori	s9,s9,128
     444:	019c0423          	sb	s9,8(s8)
     448:	aa043c83          	ld	s9,-1376(s0)
     44c:	080ccc93          	xori	s9,s9,128
     450:	019c04a3          	sb	s9,9(s8)
     454:	a5843c83          	ld	s9,-1448(s0)
     458:	080ccc93          	xori	s9,s9,128
     45c:	019c0523          	sb	s9,10(s8)
     460:	a1843c83          	ld	s9,-1512(s0)
     464:	080ccc93          	xori	s9,s9,128
     468:	019c05a3          	sb	s9,11(s8)
     46c:	9d843c83          	ld	s9,-1576(s0)
     470:	080ccc93          	xori	s9,s9,128
     474:	019c0623          	sb	s9,12(s8)
     478:	99043c83          	ld	s9,-1648(s0)
     47c:	080ccc93          	xori	s9,s9,128
     480:	019c06a3          	sb	s9,13(s8)
     484:	95043c83          	ld	s9,-1712(s0)
     488:	080ccc93          	xori	s9,s9,128
     48c:	019c0723          	sb	s9,14(s8)
     490:	91843c83          	ld	s9,-1768(s0)
     494:	080ccc93          	xori	s9,s9,128
     498:	019c07a3          	sb	s9,15(s8)
     49c:	8d043c83          	ld	s9,-1840(s0)
     4a0:	080ccc93          	xori	s9,s9,128
     4a4:	019c0823          	sb	s9,16(s8)
     4a8:	89043c83          	ld	s9,-1904(s0)
     4ac:	080ccc93          	xori	s9,s9,128
     4b0:	019c08a3          	sb	s9,17(s8)
     4b4:	85043c83          	ld	s9,-1968(s0)
     4b8:	080ccc93          	xori	s9,s9,128
     4bc:	019c0923          	sb	s9,18(s8)
     4c0:	80843c83          	ld	s9,-2040(s0)
     4c4:	080ccc93          	xori	s9,s9,128
     4c8:	019c09a3          	sb	s9,19(s8)
     4cc:	00001cb7          	lui	s9,0x1
     4d0:	41940cb3          	sub	s9,s0,s9
     4d4:	7d0cbc83          	ld	s9,2000(s9) # 17d0 <.LBB46_5+0xb4>
     4d8:	080ccc93          	xori	s9,s9,128
     4dc:	019c0a23          	sb	s9,20(s8)
     4e0:	00001cb7          	lui	s9,0x1
     4e4:	41940cb3          	sub	s9,s0,s9
     4e8:	790cbc83          	ld	s9,1936(s9) # 1790 <.LBB46_5+0x74>
     4ec:	080ccc93          	xori	s9,s9,128
     4f0:	019c0aa3          	sb	s9,21(s8)
     4f4:	00001cb7          	lui	s9,0x1
     4f8:	41940cb3          	sub	s9,s0,s9
     4fc:	788cbc83          	ld	s9,1928(s9) # 1788 <.LBB46_5+0x6c>
     500:	080ccc93          	xori	s9,s9,128
     504:	019c0b23          	sb	s9,22(s8)
     508:	00001cb7          	lui	s9,0x1
     50c:	41940cb3          	sub	s9,s0,s9
     510:	780cbc83          	ld	s9,1920(s9) # 1780 <.LBB46_5+0x64>
     514:	080ccc93          	xori	s9,s9,128
     518:	019c0ba3          	sb	s9,23(s8)
     51c:	00001cb7          	lui	s9,0x1
     520:	41940cb3          	sub	s9,s0,s9
     524:	778cbc83          	ld	s9,1912(s9) # 1778 <.LBB46_5+0x5c>
     528:	080ccc93          	xori	s9,s9,128
     52c:	019c0c23          	sb	s9,24(s8)
     530:	00001cb7          	lui	s9,0x1
     534:	41940cb3          	sub	s9,s0,s9
     538:	770cbc83          	ld	s9,1904(s9) # 1770 <.LBB46_5+0x54>
     53c:	080ccc93          	xori	s9,s9,128
     540:	019c0ca3          	sb	s9,25(s8)
     544:	00001cb7          	lui	s9,0x1
     548:	41940cb3          	sub	s9,s0,s9
     54c:	768cbc83          	ld	s9,1896(s9) # 1768 <.LBB46_5+0x4c>
     550:	080ccc93          	xori	s9,s9,128
     554:	019c0d23          	sb	s9,26(s8)
     558:	00001cb7          	lui	s9,0x1
     55c:	41940cb3          	sub	s9,s0,s9
     560:	760cbc83          	ld	s9,1888(s9) # 1760 <.LBB46_5+0x44>
     564:	080ccc93          	xori	s9,s9,128
     568:	019c0da3          	sb	s9,27(s8)
     56c:	00001cb7          	lui	s9,0x1
     570:	41940cb3          	sub	s9,s0,s9
     574:	758cbc83          	ld	s9,1880(s9) # 1758 <.LBB46_5+0x3c>
     578:	080ccc93          	xori	s9,s9,128
     57c:	019c0e23          	sb	s9,28(s8)
     580:	00001cb7          	lui	s9,0x1
     584:	41940cb3          	sub	s9,s0,s9
     588:	750cbc83          	ld	s9,1872(s9) # 1750 <.LBB46_5+0x34>
     58c:	080ccc93          	xori	s9,s9,128
     590:	019c0ea3          	sb	s9,29(s8)
     594:	00001cb7          	lui	s9,0x1
     598:	41940cb3          	sub	s9,s0,s9
     59c:	748cbc83          	ld	s9,1864(s9) # 1748 <.LBB46_5+0x2c>
     5a0:	080ccc93          	xori	s9,s9,128
     5a4:	019c0f23          	sb	s9,30(s8)
     5a8:	00001cb7          	lui	s9,0x1
     5ac:	41940cb3          	sub	s9,s0,s9
     5b0:	740cbc83          	ld	s9,1856(s9) # 1740 <.LBB46_5+0x24>
     5b4:	080ccc93          	xori	s9,s9,128
     5b8:	019c0fa3          	sb	s9,31(s8)
     5bc:	00001c37          	lui	s8,0x1
     5c0:	41840c33          	sub	s8,s0,s8
     5c4:	738c3c03          	ld	s8,1848(s8) # 1738 <.LBB46_5+0x1c>
     5c8:	080c4c93          	xori	s9,s8,128
     5cc:	00001c37          	lui	s8,0x1
     5d0:	41840c33          	sub	s8,s0,s8
     5d4:	d58c3c03          	ld	s8,-680(s8) # d58 <.LBB46_3+0xb24>
     5d8:	01ac0c33          	add	s8,s8,s10
     5dc:	019c01a3          	sb	s9,3(s8)
     5e0:	00001cb7          	lui	s9,0x1
     5e4:	41940cb3          	sub	s9,s0,s9
     5e8:	730cbc83          	ld	s9,1840(s9) # 1730 <.LBB46_5+0x14>
     5ec:	080ccc93          	xori	s9,s9,128
     5f0:	019c0123          	sb	s9,2(s8)
     5f4:	00001cb7          	lui	s9,0x1
     5f8:	41940cb3          	sub	s9,s0,s9
     5fc:	728cbc83          	ld	s9,1832(s9) # 1728 <.LBB46_5+0xc>
     600:	080ccc93          	xori	s9,s9,128
     604:	019c00a3          	sb	s9,1(s8)
     608:	00001cb7          	lui	s9,0x1
     60c:	41940cb3          	sub	s9,s0,s9
     610:	720cbc83          	ld	s9,1824(s9) # 1720 <.LBB46_5+0x4>
     614:	080ccc93          	xori	s9,s9,128
     618:	019c0023          	sb	s9,0(s8)
     61c:	00001cb7          	lui	s9,0x1
     620:	41940cb3          	sub	s9,s0,s9
     624:	718cbc83          	ld	s9,1816(s9) # 1718 <.LBB46_4+0x590>
     628:	080ccc93          	xori	s9,s9,128
     62c:	019c0223          	sb	s9,4(s8)
     630:	00001cb7          	lui	s9,0x1
     634:	41940cb3          	sub	s9,s0,s9
     638:	710cbc83          	ld	s9,1808(s9) # 1710 <.LBB46_4+0x588>
     63c:	080ccc93          	xori	s9,s9,128
     640:	019c02a3          	sb	s9,5(s8)
     644:	00001cb7          	lui	s9,0x1
     648:	41940cb3          	sub	s9,s0,s9
     64c:	708cbc83          	ld	s9,1800(s9) # 1708 <.LBB46_4+0x580>
     650:	080ccc93          	xori	s9,s9,128
     654:	019c0323          	sb	s9,6(s8)
     658:	00001cb7          	lui	s9,0x1
     65c:	41940cb3          	sub	s9,s0,s9
     660:	700cbc83          	ld	s9,1792(s9) # 1700 <.LBB46_4+0x578>
     664:	080ccc93          	xori	s9,s9,128
     668:	019c03a3          	sb	s9,7(s8)
     66c:	00001cb7          	lui	s9,0x1
     670:	41940cb3          	sub	s9,s0,s9
     674:	6f8cbc83          	ld	s9,1784(s9) # 16f8 <.LBB46_4+0x570>
     678:	080ccc93          	xori	s9,s9,128
     67c:	019c0423          	sb	s9,8(s8)
     680:	00001cb7          	lui	s9,0x1
     684:	41940cb3          	sub	s9,s0,s9
     688:	6f0cbc83          	ld	s9,1776(s9) # 16f0 <.LBB46_4+0x568>
     68c:	080ccc93          	xori	s9,s9,128
     690:	019c04a3          	sb	s9,9(s8)
     694:	00001cb7          	lui	s9,0x1
     698:	41940cb3          	sub	s9,s0,s9
     69c:	6e8cbc83          	ld	s9,1768(s9) # 16e8 <.LBB46_4+0x560>
     6a0:	080ccc93          	xori	s9,s9,128
     6a4:	019c0523          	sb	s9,10(s8)
     6a8:	00001cb7          	lui	s9,0x1
     6ac:	41940cb3          	sub	s9,s0,s9
     6b0:	6e0cbc83          	ld	s9,1760(s9) # 16e0 <.LBB46_4+0x558>
     6b4:	080ccc93          	xori	s9,s9,128
     6b8:	019c05a3          	sb	s9,11(s8)
     6bc:	00001cb7          	lui	s9,0x1
     6c0:	41940cb3          	sub	s9,s0,s9
     6c4:	6d8cbc83          	ld	s9,1752(s9) # 16d8 <.LBB46_4+0x550>
     6c8:	080ccc93          	xori	s9,s9,128
     6cc:	019c0623          	sb	s9,12(s8)
     6d0:	00001cb7          	lui	s9,0x1
     6d4:	41940cb3          	sub	s9,s0,s9
     6d8:	6d0cbc83          	ld	s9,1744(s9) # 16d0 <.LBB46_4+0x548>
     6dc:	080ccc93          	xori	s9,s9,128
     6e0:	019c06a3          	sb	s9,13(s8)
     6e4:	00001cb7          	lui	s9,0x1
     6e8:	41940cb3          	sub	s9,s0,s9
     6ec:	6c8cbc83          	ld	s9,1736(s9) # 16c8 <.LBB46_4+0x540>
     6f0:	080ccc93          	xori	s9,s9,128
     6f4:	019c0723          	sb	s9,14(s8)
     6f8:	00001cb7          	lui	s9,0x1
     6fc:	41940cb3          	sub	s9,s0,s9
     700:	6c0cbc83          	ld	s9,1728(s9) # 16c0 <.LBB46_4+0x538>
     704:	080ccc93          	xori	s9,s9,128
     708:	019c07a3          	sb	s9,15(s8)
     70c:	00001cb7          	lui	s9,0x1
     710:	41940cb3          	sub	s9,s0,s9
     714:	6b8cbc83          	ld	s9,1720(s9) # 16b8 <.LBB46_4+0x530>
     718:	080ccc93          	xori	s9,s9,128
     71c:	019c0823          	sb	s9,16(s8)
     720:	00001cb7          	lui	s9,0x1
     724:	41940cb3          	sub	s9,s0,s9
     728:	6b0cbc83          	ld	s9,1712(s9) # 16b0 <.LBB46_4+0x528>
     72c:	080ccc93          	xori	s9,s9,128
     730:	019c08a3          	sb	s9,17(s8)
     734:	00001cb7          	lui	s9,0x1
     738:	41940cb3          	sub	s9,s0,s9
     73c:	6a8cbc83          	ld	s9,1704(s9) # 16a8 <.LBB46_4+0x520>
     740:	080ccc93          	xori	s9,s9,128
     744:	019c0923          	sb	s9,18(s8)
     748:	00001cb7          	lui	s9,0x1
     74c:	41940cb3          	sub	s9,s0,s9
     750:	6a0cbc83          	ld	s9,1696(s9) # 16a0 <.LBB46_4+0x518>
     754:	080ccc93          	xori	s9,s9,128
     758:	019c09a3          	sb	s9,19(s8)
     75c:	00001cb7          	lui	s9,0x1
     760:	41940cb3          	sub	s9,s0,s9
     764:	690cbc83          	ld	s9,1680(s9) # 1690 <.LBB46_4+0x508>
     768:	080ccc93          	xori	s9,s9,128
     76c:	019c0a23          	sb	s9,20(s8)
     770:	00001cb7          	lui	s9,0x1
     774:	41940cb3          	sub	s9,s0,s9
     778:	688cbc83          	ld	s9,1672(s9) # 1688 <.LBB46_4+0x500>
     77c:	080ccc93          	xori	s9,s9,128
     780:	019c0aa3          	sb	s9,21(s8)
     784:	00001cb7          	lui	s9,0x1
     788:	41940cb3          	sub	s9,s0,s9
     78c:	2c8cbc83          	ld	s9,712(s9) # 12c8 <.LBB46_4+0x140>
     790:	080ccc93          	xori	s9,s9,128
     794:	019c0b23          	sb	s9,22(s8)
     798:	00001cb7          	lui	s9,0x1
     79c:	41940cb3          	sub	s9,s0,s9
     7a0:	2d8cbc83          	ld	s9,728(s9) # 12d8 <.LBB46_4+0x150>
     7a4:	080ccc93          	xori	s9,s9,128
     7a8:	019c0ba3          	sb	s9,23(s8)
     7ac:	00001cb7          	lui	s9,0x1
     7b0:	41940cb3          	sub	s9,s0,s9
     7b4:	2e8cbc83          	ld	s9,744(s9) # 12e8 <.LBB46_4+0x160>
     7b8:	080ccc93          	xori	s9,s9,128
     7bc:	019c0c23          	sb	s9,24(s8)
     7c0:	00001cb7          	lui	s9,0x1
     7c4:	41940cb3          	sub	s9,s0,s9
     7c8:	2f8cbc83          	ld	s9,760(s9) # 12f8 <.LBB46_4+0x170>
     7cc:	080ccc93          	xori	s9,s9,128
     7d0:	019c0ca3          	sb	s9,25(s8)
     7d4:	00001cb7          	lui	s9,0x1
     7d8:	41940cb3          	sub	s9,s0,s9
     7dc:	308cbc83          	ld	s9,776(s9) # 1308 <.LBB46_4+0x180>
     7e0:	080ccc93          	xori	s9,s9,128
     7e4:	019c0d23          	sb	s9,26(s8)
     7e8:	00001cb7          	lui	s9,0x1
     7ec:	41940cb3          	sub	s9,s0,s9
     7f0:	318cbc83          	ld	s9,792(s9) # 1318 <.LBB46_4+0x190>
     7f4:	080ccc93          	xori	s9,s9,128
     7f8:	019c0da3          	sb	s9,27(s8)
     7fc:	00001cb7          	lui	s9,0x1
     800:	41940cb3          	sub	s9,s0,s9
     804:	328cbc83          	ld	s9,808(s9) # 1328 <.LBB46_4+0x1a0>
     808:	080ccc93          	xori	s9,s9,128
     80c:	019c0e23          	sb	s9,28(s8)
     810:	00001cb7          	lui	s9,0x1
     814:	41940cb3          	sub	s9,s0,s9
     818:	338cbc83          	ld	s9,824(s9) # 1338 <.LBB46_4+0x1b0>
     81c:	080ccc93          	xori	s9,s9,128
     820:	019c0ea3          	sb	s9,29(s8)
     824:	00001cb7          	lui	s9,0x1
     828:	41940cb3          	sub	s9,s0,s9
     82c:	348cbc83          	ld	s9,840(s9) # 1348 <.LBB46_4+0x1c0>
     830:	080ccc93          	xori	s9,s9,128
     834:	019c0f23          	sb	s9,30(s8)
     838:	00001cb7          	lui	s9,0x1
     83c:	41940cb3          	sub	s9,s0,s9
     840:	358cbc83          	ld	s9,856(s9) # 1358 <.LBB46_4+0x1d0>
     844:	080ccc93          	xori	s9,s9,128
     848:	019c0fa3          	sb	s9,31(s8)
     84c:	00001c37          	lui	s8,0x1
     850:	41840c33          	sub	s8,s0,s8
     854:	368c3c03          	ld	s8,872(s8) # 1368 <.LBB46_4+0x1e0>
     858:	080c4c93          	xori	s9,s8,128
     85c:	00001c37          	lui	s8,0x1
     860:	41840c33          	sub	s8,s0,s8
     864:	d50c3c03          	ld	s8,-688(s8) # d50 <.LBB46_3+0xb1c>
     868:	01ac0c33          	add	s8,s8,s10
     86c:	019c01a3          	sb	s9,3(s8)
     870:	00001cb7          	lui	s9,0x1
     874:	41940cb3          	sub	s9,s0,s9
     878:	378cbc83          	ld	s9,888(s9) # 1378 <.LBB46_4+0x1f0>
     87c:	080ccc93          	xori	s9,s9,128
     880:	019c0123          	sb	s9,2(s8)
     884:	00001cb7          	lui	s9,0x1
     888:	41940cb3          	sub	s9,s0,s9
     88c:	388cbc83          	ld	s9,904(s9) # 1388 <.LBB46_4+0x200>
     890:	080ccc93          	xori	s9,s9,128
     894:	019c00a3          	sb	s9,1(s8)
     898:	00001cb7          	lui	s9,0x1
     89c:	41940cb3          	sub	s9,s0,s9
     8a0:	398cbc83          	ld	s9,920(s9) # 1398 <.LBB46_4+0x210>
     8a4:	080ccc93          	xori	s9,s9,128
     8a8:	019c0023          	sb	s9,0(s8)
     8ac:	00001cb7          	lui	s9,0x1
     8b0:	41940cb3          	sub	s9,s0,s9
     8b4:	3a8cbc83          	ld	s9,936(s9) # 13a8 <.LBB46_4+0x220>
     8b8:	080ccc93          	xori	s9,s9,128
     8bc:	019c0223          	sb	s9,4(s8)
     8c0:	00001cb7          	lui	s9,0x1
     8c4:	41940cb3          	sub	s9,s0,s9
     8c8:	3b8cbc83          	ld	s9,952(s9) # 13b8 <.LBB46_4+0x230>
     8cc:	080ccc93          	xori	s9,s9,128
     8d0:	019c02a3          	sb	s9,5(s8)
     8d4:	00001cb7          	lui	s9,0x1
     8d8:	41940cb3          	sub	s9,s0,s9
     8dc:	3c8cbc83          	ld	s9,968(s9) # 13c8 <.LBB46_4+0x240>
     8e0:	080ccc93          	xori	s9,s9,128
     8e4:	019c0323          	sb	s9,6(s8)
     8e8:	00001cb7          	lui	s9,0x1
     8ec:	41940cb3          	sub	s9,s0,s9
     8f0:	3d8cbc83          	ld	s9,984(s9) # 13d8 <.LBB46_4+0x250>
     8f4:	080ccc93          	xori	s9,s9,128
     8f8:	019c03a3          	sb	s9,7(s8)
     8fc:	00001cb7          	lui	s9,0x1
     900:	41940cb3          	sub	s9,s0,s9
     904:	3e8cbc83          	ld	s9,1000(s9) # 13e8 <.LBB46_4+0x260>
     908:	080ccc93          	xori	s9,s9,128
     90c:	019c0423          	sb	s9,8(s8)
     910:	00001cb7          	lui	s9,0x1
     914:	41940cb3          	sub	s9,s0,s9
     918:	3f8cbc83          	ld	s9,1016(s9) # 13f8 <.LBB46_4+0x270>
     91c:	080ccc93          	xori	s9,s9,128
     920:	019c04a3          	sb	s9,9(s8)
     924:	00001cb7          	lui	s9,0x1
     928:	41940cb3          	sub	s9,s0,s9
     92c:	408cbc83          	ld	s9,1032(s9) # 1408 <.LBB46_4+0x280>
     930:	080ccc93          	xori	s9,s9,128
     934:	019c0523          	sb	s9,10(s8)
     938:	00001cb7          	lui	s9,0x1
     93c:	41940cb3          	sub	s9,s0,s9
     940:	418cbc83          	ld	s9,1048(s9) # 1418 <.LBB46_4+0x290>
     944:	080ccc93          	xori	s9,s9,128
     948:	019c05a3          	sb	s9,11(s8)
     94c:	00001cb7          	lui	s9,0x1
     950:	41940cb3          	sub	s9,s0,s9
     954:	428cbc83          	ld	s9,1064(s9) # 1428 <.LBB46_4+0x2a0>
     958:	080ccc93          	xori	s9,s9,128
     95c:	019c0623          	sb	s9,12(s8)
     960:	00001cb7          	lui	s9,0x1
     964:	41940cb3          	sub	s9,s0,s9
     968:	438cbc83          	ld	s9,1080(s9) # 1438 <.LBB46_4+0x2b0>
     96c:	080ccc93          	xori	s9,s9,128
     970:	019c06a3          	sb	s9,13(s8)
     974:	00001cb7          	lui	s9,0x1
     978:	41940cb3          	sub	s9,s0,s9
     97c:	448cbc83          	ld	s9,1096(s9) # 1448 <.LBB46_4+0x2c0>
     980:	080ccc93          	xori	s9,s9,128
     984:	019c0723          	sb	s9,14(s8)
     988:	00001cb7          	lui	s9,0x1
     98c:	41940cb3          	sub	s9,s0,s9
     990:	458cbc83          	ld	s9,1112(s9) # 1458 <.LBB46_4+0x2d0>
     994:	080ccc93          	xori	s9,s9,128
     998:	019c07a3          	sb	s9,15(s8)
     99c:	00001cb7          	lui	s9,0x1
     9a0:	41940cb3          	sub	s9,s0,s9
     9a4:	468cbc83          	ld	s9,1128(s9) # 1468 <.LBB46_4+0x2e0>
     9a8:	080ccc93          	xori	s9,s9,128
     9ac:	019c0823          	sb	s9,16(s8)
     9b0:	00001cb7          	lui	s9,0x1
     9b4:	41940cb3          	sub	s9,s0,s9
     9b8:	478cbc83          	ld	s9,1144(s9) # 1478 <.LBB46_4+0x2f0>
     9bc:	080ccc93          	xori	s9,s9,128
     9c0:	019c08a3          	sb	s9,17(s8)
     9c4:	00001cb7          	lui	s9,0x1
     9c8:	41940cb3          	sub	s9,s0,s9
     9cc:	488cbc83          	ld	s9,1160(s9) # 1488 <.LBB46_4+0x300>
     9d0:	080ccc93          	xori	s9,s9,128
     9d4:	019c0923          	sb	s9,18(s8)
     9d8:	00001cb7          	lui	s9,0x1
     9dc:	41940cb3          	sub	s9,s0,s9
     9e0:	498cbc83          	ld	s9,1176(s9) # 1498 <.LBB46_4+0x310>
     9e4:	080ccc93          	xori	s9,s9,128
     9e8:	019c09a3          	sb	s9,19(s8)
     9ec:	00001cb7          	lui	s9,0x1
     9f0:	41940cb3          	sub	s9,s0,s9
     9f4:	4a8cbc83          	ld	s9,1192(s9) # 14a8 <.LBB46_4+0x320>
     9f8:	080ccc93          	xori	s9,s9,128
     9fc:	019c0a23          	sb	s9,20(s8)
     a00:	00001cb7          	lui	s9,0x1
     a04:	41940cb3          	sub	s9,s0,s9
     a08:	4b8cbc83          	ld	s9,1208(s9) # 14b8 <.LBB46_4+0x330>
     a0c:	080ccc93          	xori	s9,s9,128
     a10:	019c0aa3          	sb	s9,21(s8)
     a14:	00001cb7          	lui	s9,0x1
     a18:	41940cb3          	sub	s9,s0,s9
     a1c:	4c8cbc83          	ld	s9,1224(s9) # 14c8 <.LBB46_4+0x340>
     a20:	080ccc93          	xori	s9,s9,128
     a24:	019c0b23          	sb	s9,22(s8)
     a28:	00001cb7          	lui	s9,0x1
     a2c:	41940cb3          	sub	s9,s0,s9
     a30:	4d8cbc83          	ld	s9,1240(s9) # 14d8 <.LBB46_4+0x350>
     a34:	080ccc93          	xori	s9,s9,128
     a38:	019c0ba3          	sb	s9,23(s8)
     a3c:	00001cb7          	lui	s9,0x1
     a40:	41940cb3          	sub	s9,s0,s9
     a44:	4e8cbc83          	ld	s9,1256(s9) # 14e8 <.LBB46_4+0x360>
     a48:	080ccc93          	xori	s9,s9,128
     a4c:	019c0c23          	sb	s9,24(s8)
     a50:	00001cb7          	lui	s9,0x1
     a54:	41940cb3          	sub	s9,s0,s9
     a58:	4f8cbc83          	ld	s9,1272(s9) # 14f8 <.LBB46_4+0x370>
     a5c:	080ccc93          	xori	s9,s9,128
     a60:	019c0ca3          	sb	s9,25(s8)
     a64:	00001cb7          	lui	s9,0x1
     a68:	41940cb3          	sub	s9,s0,s9
     a6c:	508cbc83          	ld	s9,1288(s9) # 1508 <.LBB46_4+0x380>
     a70:	080ccc93          	xori	s9,s9,128
     a74:	019c0d23          	sb	s9,26(s8)
     a78:	00001cb7          	lui	s9,0x1
     a7c:	41940cb3          	sub	s9,s0,s9
     a80:	518cbc83          	ld	s9,1304(s9) # 1518 <.LBB46_4+0x390>
     a84:	080ccc93          	xori	s9,s9,128
     a88:	019c0da3          	sb	s9,27(s8)
     a8c:	00001cb7          	lui	s9,0x1
     a90:	41940cb3          	sub	s9,s0,s9
     a94:	528cbc83          	ld	s9,1320(s9) # 1528 <.LBB46_4+0x3a0>
     a98:	080ccc93          	xori	s9,s9,128
     a9c:	019c0e23          	sb	s9,28(s8)
     aa0:	00001cb7          	lui	s9,0x1
     aa4:	41940cb3          	sub	s9,s0,s9
     aa8:	538cbc83          	ld	s9,1336(s9) # 1538 <.LBB46_4+0x3b0>
     aac:	080ccc93          	xori	s9,s9,128
     ab0:	019c0ea3          	sb	s9,29(s8)
     ab4:	00001cb7          	lui	s9,0x1
     ab8:	41940cb3          	sub	s9,s0,s9
     abc:	548cbc83          	ld	s9,1352(s9) # 1548 <.LBB46_4+0x3c0>
     ac0:	080ccc93          	xori	s9,s9,128
     ac4:	019c0f23          	sb	s9,30(s8)
     ac8:	00001cb7          	lui	s9,0x1
     acc:	41940cb3          	sub	s9,s0,s9
     ad0:	558cbc83          	ld	s9,1368(s9) # 1558 <.LBB46_4+0x3d0>
     ad4:	080ccc93          	xori	s9,s9,128
     ad8:	019c0fa3          	sb	s9,31(s8)
     adc:	00001c37          	lui	s8,0x1
     ae0:	41840c33          	sub	s8,s0,s8
     ae4:	568c3c03          	ld	s8,1384(s8) # 1568 <.LBB46_4+0x3e0>
     ae8:	080c4c93          	xori	s9,s8,128
     aec:	00001c37          	lui	s8,0x1
     af0:	41840c33          	sub	s8,s0,s8
     af4:	d48c3c03          	ld	s8,-696(s8) # d48 <.LBB46_3+0xb14>
     af8:	01ac0c33          	add	s8,s8,s10
     afc:	019c01a3          	sb	s9,3(s8)
     b00:	00001cb7          	lui	s9,0x1
     b04:	41940cb3          	sub	s9,s0,s9
     b08:	578cbc83          	ld	s9,1400(s9) # 1578 <.LBB46_4+0x3f0>
     b0c:	080ccc93          	xori	s9,s9,128
     b10:	019c0123          	sb	s9,2(s8)
     b14:	00001cb7          	lui	s9,0x1
     b18:	41940cb3          	sub	s9,s0,s9
     b1c:	588cbc83          	ld	s9,1416(s9) # 1588 <.LBB46_4+0x400>
     b20:	080ccc93          	xori	s9,s9,128
     b24:	019c00a3          	sb	s9,1(s8)
     b28:	00001cb7          	lui	s9,0x1
     b2c:	41940cb3          	sub	s9,s0,s9
     b30:	598cbc83          	ld	s9,1432(s9) # 1598 <.LBB46_4+0x410>
     b34:	080ccc93          	xori	s9,s9,128
     b38:	019c0023          	sb	s9,0(s8)
     b3c:	00001cb7          	lui	s9,0x1
     b40:	41940cb3          	sub	s9,s0,s9
     b44:	5a8cbc83          	ld	s9,1448(s9) # 15a8 <.LBB46_4+0x420>
     b48:	080ccc93          	xori	s9,s9,128
     b4c:	019c0223          	sb	s9,4(s8)
     b50:	00001cb7          	lui	s9,0x1
     b54:	41940cb3          	sub	s9,s0,s9
     b58:	5b8cbc83          	ld	s9,1464(s9) # 15b8 <.LBB46_4+0x430>
     b5c:	080ccc93          	xori	s9,s9,128
     b60:	019c02a3          	sb	s9,5(s8)
     b64:	00001cb7          	lui	s9,0x1
     b68:	41940cb3          	sub	s9,s0,s9
     b6c:	5c8cbc83          	ld	s9,1480(s9) # 15c8 <.LBB46_4+0x440>
     b70:	080ccc93          	xori	s9,s9,128
     b74:	019c0323          	sb	s9,6(s8)
     b78:	00001cb7          	lui	s9,0x1
     b7c:	41940cb3          	sub	s9,s0,s9
     b80:	5d8cbc83          	ld	s9,1496(s9) # 15d8 <.LBB46_4+0x450>
     b84:	080ccc93          	xori	s9,s9,128
     b88:	019c03a3          	sb	s9,7(s8)
     b8c:	00001cb7          	lui	s9,0x1
     b90:	41940cb3          	sub	s9,s0,s9
     b94:	5e8cbc83          	ld	s9,1512(s9) # 15e8 <.LBB46_4+0x460>
     b98:	080ccc93          	xori	s9,s9,128
     b9c:	019c0423          	sb	s9,8(s8)
     ba0:	00001cb7          	lui	s9,0x1
     ba4:	41940cb3          	sub	s9,s0,s9
     ba8:	5f8cbc83          	ld	s9,1528(s9) # 15f8 <.LBB46_4+0x470>
     bac:	080ccc93          	xori	s9,s9,128
     bb0:	019c04a3          	sb	s9,9(s8)
     bb4:	00001cb7          	lui	s9,0x1
     bb8:	41940cb3          	sub	s9,s0,s9
     bbc:	608cbc83          	ld	s9,1544(s9) # 1608 <.LBB46_4+0x480>
     bc0:	080ccc93          	xori	s9,s9,128
     bc4:	019c0523          	sb	s9,10(s8)
     bc8:	00001cb7          	lui	s9,0x1
     bcc:	41940cb3          	sub	s9,s0,s9
     bd0:	618cbc83          	ld	s9,1560(s9) # 1618 <.LBB46_4+0x490>
     bd4:	080ccc93          	xori	s9,s9,128
     bd8:	019c05a3          	sb	s9,11(s8)
     bdc:	00001cb7          	lui	s9,0x1
     be0:	41940cb3          	sub	s9,s0,s9
     be4:	628cbc83          	ld	s9,1576(s9) # 1628 <.LBB46_4+0x4a0>
     be8:	080ccc93          	xori	s9,s9,128
     bec:	019c0623          	sb	s9,12(s8)
     bf0:	00001cb7          	lui	s9,0x1
     bf4:	41940cb3          	sub	s9,s0,s9
     bf8:	638cbc83          	ld	s9,1592(s9) # 1638 <.LBB46_4+0x4b0>
     bfc:	080ccc93          	xori	s9,s9,128
     c00:	019c06a3          	sb	s9,13(s8)
     c04:	00001cb7          	lui	s9,0x1
     c08:	41940cb3          	sub	s9,s0,s9
     c0c:	648cbc83          	ld	s9,1608(s9) # 1648 <.LBB46_4+0x4c0>
     c10:	080ccc93          	xori	s9,s9,128
     c14:	019c0723          	sb	s9,14(s8)
     c18:	b1043c83          	ld	s9,-1264(s0)
     c1c:	080ccc93          	xori	s9,s9,128
     c20:	019c07a3          	sb	s9,15(s8)
     c24:	00001cb7          	lui	s9,0x1
     c28:	41940cb3          	sub	s9,s0,s9
     c2c:	680cbc83          	ld	s9,1664(s9) # 1680 <.LBB46_4+0x4f8>
     c30:	080ccc93          	xori	s9,s9,128
     c34:	019c0823          	sb	s9,16(s8)
     c38:	b2043c83          	ld	s9,-1248(s0)
     c3c:	080ccc93          	xori	s9,s9,128
     c40:	019c08a3          	sb	s9,17(s8)
     c44:	00001cb7          	lui	s9,0x1
     c48:	41940cb3          	sub	s9,s0,s9
     c4c:	7a0cbc83          	ld	s9,1952(s9) # 17a0 <.LBB46_5+0x84>
     c50:	080ccc93          	xori	s9,s9,128
     c54:	019c0923          	sb	s9,18(s8)
     c58:	00001cb7          	lui	s9,0x1
     c5c:	41940cb3          	sub	s9,s0,s9
     c60:	7b0cbc83          	ld	s9,1968(s9) # 17b0 <.LBB46_5+0x94>
     c64:	080ccc93          	xori	s9,s9,128
     c68:	019c09a3          	sb	s9,19(s8)
     c6c:	00001cb7          	lui	s9,0x1
     c70:	41940cb3          	sub	s9,s0,s9
     c74:	7c0cbc83          	ld	s9,1984(s9) # 17c0 <.LBB46_5+0xa4>
     c78:	080ccc93          	xori	s9,s9,128
     c7c:	019c0a23          	sb	s9,20(s8)
     c80:	00001cb7          	lui	s9,0x1
     c84:	41940cb3          	sub	s9,s0,s9
     c88:	7d8cbc83          	ld	s9,2008(s9) # 17d8 <.LBB46_5+0xbc>
     c8c:	080ccc93          	xori	s9,s9,128
     c90:	019c0aa3          	sb	s9,21(s8)
     c94:	00001cb7          	lui	s9,0x1
     c98:	41940cb3          	sub	s9,s0,s9
     c9c:	7e8cbc83          	ld	s9,2024(s9) # 17e8 <.LBB46_5+0xcc>
     ca0:	080ccc93          	xori	s9,s9,128
     ca4:	019c0b23          	sb	s9,22(s8)
     ca8:	b5043c83          	ld	s9,-1200(s0)
     cac:	080ccc93          	xori	s9,s9,128
     cb0:	019c0ba3          	sb	s9,23(s8)
     cb4:	80043c83          	ld	s9,-2048(s0)
     cb8:	080ccc93          	xori	s9,s9,128
     cbc:	019c0c23          	sb	s9,24(s8)
     cc0:	81843c83          	ld	s9,-2024(s0)
     cc4:	080ccc93          	xori	s9,s9,128
     cc8:	019c0ca3          	sb	s9,25(s8)
     ccc:	82843c83          	ld	s9,-2008(s0)
     cd0:	080ccc93          	xori	s9,s9,128
     cd4:	019c0d23          	sb	s9,26(s8)
     cd8:	83843c83          	ld	s9,-1992(s0)
     cdc:	080ccc93          	xori	s9,s9,128
     ce0:	019c0da3          	sb	s9,27(s8)
     ce4:	84843c83          	ld	s9,-1976(s0)
     ce8:	080ccc93          	xori	s9,s9,128
     cec:	019c0e23          	sb	s9,28(s8)
     cf0:	86043c83          	ld	s9,-1952(s0)
     cf4:	080ccc93          	xori	s9,s9,128
     cf8:	019c0ea3          	sb	s9,29(s8)
     cfc:	87043c83          	ld	s9,-1936(s0)
     d00:	080ccc93          	xori	s9,s9,128
     d04:	019c0f23          	sb	s9,30(s8)
     d08:	88043c83          	ld	s9,-1920(s0)
     d0c:	080ccc93          	xori	s9,s9,128
     d10:	019c0fa3          	sb	s9,31(s8)
     d14:	89843c03          	ld	s8,-1896(s0)
     d18:	080c4c93          	xori	s9,s8,128
     d1c:	00001c37          	lui	s8,0x1
     d20:	41840c33          	sub	s8,s0,s8
     d24:	d40c3c03          	ld	s8,-704(s8) # d40 <.LBB46_3+0xb0c>
     d28:	01ac0c33          	add	s8,s8,s10
     d2c:	019c01a3          	sb	s9,3(s8)
     d30:	8a843c83          	ld	s9,-1880(s0)
     d34:	080ccc93          	xori	s9,s9,128
     d38:	019c0123          	sb	s9,2(s8)
     d3c:	8b843c83          	ld	s9,-1864(s0)
     d40:	080ccc93          	xori	s9,s9,128
     d44:	019c00a3          	sb	s9,1(s8)
     d48:	8c843c83          	ld	s9,-1848(s0)
     d4c:	080ccc93          	xori	s9,s9,128
     d50:	019c0023          	sb	s9,0(s8)
     d54:	8e043c83          	ld	s9,-1824(s0)
     d58:	080ccc93          	xori	s9,s9,128
     d5c:	019c0223          	sb	s9,4(s8)
     d60:	8f043c83          	ld	s9,-1808(s0)
     d64:	080ccc93          	xori	s9,s9,128
     d68:	019c02a3          	sb	s9,5(s8)
     d6c:	90043c83          	ld	s9,-1792(s0)
     d70:	080ccc93          	xori	s9,s9,128
     d74:	019c0323          	sb	s9,6(s8)
     d78:	91043c83          	ld	s9,-1776(s0)
     d7c:	080ccc93          	xori	s9,s9,128
     d80:	019c03a3          	sb	s9,7(s8)
     d84:	92843c83          	ld	s9,-1752(s0)
     d88:	080ccc93          	xori	s9,s9,128
     d8c:	019c0423          	sb	s9,8(s8)
     d90:	93843c83          	ld	s9,-1736(s0)
     d94:	080ccc93          	xori	s9,s9,128
     d98:	019c04a3          	sb	s9,9(s8)
     d9c:	94843c83          	ld	s9,-1720(s0)
     da0:	080ccc93          	xori	s9,s9,128
     da4:	019c0523          	sb	s9,10(s8)
     da8:	bf043c83          	ld	s9,-1040(s0)
     dac:	080ccc93          	xori	s9,s9,128
     db0:	019c05a3          	sb	s9,11(s8)
     db4:	96843c83          	ld	s9,-1688(s0)
     db8:	080ccc93          	xori	s9,s9,128
     dbc:	019c0623          	sb	s9,12(s8)
     dc0:	97843c83          	ld	s9,-1672(s0)
     dc4:	080ccc93          	xori	s9,s9,128
     dc8:	019c06a3          	sb	s9,13(s8)
     dcc:	98843c83          	ld	s9,-1656(s0)
     dd0:	080ccc93          	xori	s9,s9,128
     dd4:	019c0723          	sb	s9,14(s8)
     dd8:	9a043c83          	ld	s9,-1632(s0)
     ddc:	080ccc93          	xori	s9,s9,128
     de0:	019c07a3          	sb	s9,15(s8)
     de4:	9b043c83          	ld	s9,-1616(s0)
     de8:	080ccc93          	xori	s9,s9,128
     dec:	019c0823          	sb	s9,16(s8)
     df0:	9c043c83          	ld	s9,-1600(s0)
     df4:	080ccc93          	xori	s9,s9,128
     df8:	019c08a3          	sb	s9,17(s8)
     dfc:	9d043c83          	ld	s9,-1584(s0)
     e00:	080ccc93          	xori	s9,s9,128
     e04:	019c0923          	sb	s9,18(s8)
     e08:	9e843c83          	ld	s9,-1560(s0)
     e0c:	080ccc93          	xori	s9,s9,128
     e10:	019c09a3          	sb	s9,19(s8)
     e14:	9f843c83          	ld	s9,-1544(s0)
     e18:	080ccc93          	xori	s9,s9,128
     e1c:	019c0a23          	sb	s9,20(s8)
     e20:	a0843c83          	ld	s9,-1528(s0)
     e24:	080ccc93          	xori	s9,s9,128
     e28:	019c0aa3          	sb	s9,21(s8)
     e2c:	a2043c83          	ld	s9,-1504(s0)
     e30:	080ccc93          	xori	s9,s9,128
     e34:	019c0b23          	sb	s9,22(s8)
     e38:	a3043c83          	ld	s9,-1488(s0)
     e3c:	080ccc93          	xori	s9,s9,128
     e40:	019c0ba3          	sb	s9,23(s8)
     e44:	a4043c83          	ld	s9,-1472(s0)
     e48:	080ccc93          	xori	s9,s9,128
     e4c:	019c0c23          	sb	s9,24(s8)
     e50:	a5043c83          	ld	s9,-1456(s0)
     e54:	080ccc93          	xori	s9,s9,128
     e58:	019c0ca3          	sb	s9,25(s8)
     e5c:	a6843c83          	ld	s9,-1432(s0)
     e60:	080ccc93          	xori	s9,s9,128
     e64:	019c0d23          	sb	s9,26(s8)
     e68:	a7843c83          	ld	s9,-1416(s0)
     e6c:	080ccc93          	xori	s9,s9,128
     e70:	019c0da3          	sb	s9,27(s8)
     e74:	a8843c83          	ld	s9,-1400(s0)
     e78:	080ccc93          	xori	s9,s9,128
     e7c:	019c0e23          	sb	s9,28(s8)
     e80:	a9843c83          	ld	s9,-1384(s0)
     e84:	080ccc93          	xori	s9,s9,128
     e88:	019c0ea3          	sb	s9,29(s8)
     e8c:	ab043c83          	ld	s9,-1360(s0)
     e90:	080ccc93          	xori	s9,s9,128
     e94:	019c0f23          	sb	s9,30(s8)
     e98:	ac043c83          	ld	s9,-1344(s0)
     e9c:	080ccc93          	xori	s9,s9,128
     ea0:	019c0fa3          	sb	s9,31(s8)
     ea4:	ad043c03          	ld	s8,-1328(s0)
     ea8:	080c4c93          	xori	s9,s8,128
     eac:	00001c37          	lui	s8,0x1
     eb0:	41840c33          	sub	s8,s0,s8
     eb4:	d38c3c03          	ld	s8,-712(s8) # d38 <.LBB46_3+0xb04>
     eb8:	01ac0c33          	add	s8,s8,s10
     ebc:	019c01a3          	sb	s9,3(s8)
     ec0:	ae843c83          	ld	s9,-1304(s0)
     ec4:	080ccc93          	xori	s9,s9,128
     ec8:	019c0123          	sb	s9,2(s8)
     ecc:	af843c83          	ld	s9,-1288(s0)
     ed0:	080ccc93          	xori	s9,s9,128
     ed4:	019c00a3          	sb	s9,1(s8)
     ed8:	b0843c83          	ld	s9,-1272(s0)
     edc:	080ccc93          	xori	s9,s9,128
     ee0:	019c0023          	sb	s9,0(s8)
     ee4:	b2843c83          	ld	s9,-1240(s0)
     ee8:	080ccc93          	xori	s9,s9,128
     eec:	019c0223          	sb	s9,4(s8)
     ef0:	b4043c83          	ld	s9,-1216(s0)
     ef4:	080ccc93          	xori	s9,s9,128
     ef8:	019c02a3          	sb	s9,5(s8)
     efc:	b5843c83          	ld	s9,-1192(s0)
     f00:	080ccc93          	xori	s9,s9,128
     f04:	019c0323          	sb	s9,6(s8)
     f08:	b6843c83          	ld	s9,-1176(s0)
     f0c:	080ccc93          	xori	s9,s9,128
     f10:	019c03a3          	sb	s9,7(s8)
     f14:	b7843c83          	ld	s9,-1160(s0)
     f18:	080ccc93          	xori	s9,s9,128
     f1c:	019c0423          	sb	s9,8(s8)
     f20:	b9043c83          	ld	s9,-1136(s0)
     f24:	080ccc93          	xori	s9,s9,128
     f28:	019c04a3          	sb	s9,9(s8)
     f2c:	ba043c83          	ld	s9,-1120(s0)
     f30:	080ccc93          	xori	s9,s9,128
     f34:	019c0523          	sb	s9,10(s8)
     f38:	bb043c83          	ld	s9,-1104(s0)
     f3c:	080ccc93          	xori	s9,s9,128
     f40:	019c05a3          	sb	s9,11(s8)
     f44:	bc843c83          	ld	s9,-1080(s0)
     f48:	080ccc93          	xori	s9,s9,128
     f4c:	019c0623          	sb	s9,12(s8)
     f50:	bd843c83          	ld	s9,-1064(s0)
     f54:	080ccc93          	xori	s9,s9,128
     f58:	019c06a3          	sb	s9,13(s8)
     f5c:	be843c83          	ld	s9,-1048(s0)
     f60:	080ccc93          	xori	s9,s9,128
     f64:	019c0723          	sb	s9,14(s8)
     f68:	c0043c83          	ld	s9,-1024(s0)
     f6c:	080ccc93          	xori	s9,s9,128
     f70:	019c07a3          	sb	s9,15(s8)
     f74:	c1843c83          	ld	s9,-1000(s0)
     f78:	080ccc93          	xori	s9,s9,128
     f7c:	019c0823          	sb	s9,16(s8)
     f80:	c2843c83          	ld	s9,-984(s0)
     f84:	080ccc93          	xori	s9,s9,128
     f88:	019c08a3          	sb	s9,17(s8)
     f8c:	c3843c83          	ld	s9,-968(s0)
     f90:	080ccc93          	xori	s9,s9,128
     f94:	019c0923          	sb	s9,18(s8)
     f98:	c4843c83          	ld	s9,-952(s0)
     f9c:	080ccc93          	xori	s9,s9,128
     fa0:	019c09a3          	sb	s9,19(s8)
     fa4:	c5843c83          	ld	s9,-936(s0)
     fa8:	080ccc93          	xori	s9,s9,128
     fac:	019c0a23          	sb	s9,20(s8)
     fb0:	c6843c83          	ld	s9,-920(s0)
     fb4:	080ccc93          	xori	s9,s9,128
     fb8:	019c0aa3          	sb	s9,21(s8)
     fbc:	c7843c83          	ld	s9,-904(s0)
     fc0:	080ccc93          	xori	s9,s9,128
     fc4:	019c0b23          	sb	s9,22(s8)
     fc8:	c8843c83          	ld	s9,-888(s0)
     fcc:	080ccc93          	xori	s9,s9,128
     fd0:	019c0ba3          	sb	s9,23(s8)
     fd4:	c9843c83          	ld	s9,-872(s0)
     fd8:	080ccc93          	xori	s9,s9,128
     fdc:	019c0c23          	sb	s9,24(s8)
     fe0:	ca843c83          	ld	s9,-856(s0)
     fe4:	080ccc93          	xori	s9,s9,128
     fe8:	019c0ca3          	sb	s9,25(s8)
     fec:	cb843c83          	ld	s9,-840(s0)
     ff0:	080ccc93          	xori	s9,s9,128
     ff4:	019c0d23          	sb	s9,26(s8)
     ff8:	cc843c83          	ld	s9,-824(s0)
     ffc:	080ccc93          	xori	s9,s9,128
    1000:	019c0da3          	sb	s9,27(s8)
    1004:	cd843c83          	ld	s9,-808(s0)
    1008:	080ccc93          	xori	s9,s9,128
    100c:	019c0e23          	sb	s9,28(s8)
    1010:	ce843c83          	ld	s9,-792(s0)
    1014:	080ccc93          	xori	s9,s9,128
    1018:	019c0ea3          	sb	s9,29(s8)
    101c:	cf843c83          	ld	s9,-776(s0)
    1020:	080ccc93          	xori	s9,s9,128
    1024:	019c0f23          	sb	s9,30(s8)
    1028:	d0843c83          	ld	s9,-760(s0)
    102c:	080ccc93          	xori	s9,s9,128
    1030:	019c0fa3          	sb	s9,31(s8)
    1034:	d1843c03          	ld	s8,-744(s0)
    1038:	080c4c93          	xori	s9,s8,128
    103c:	00001c37          	lui	s8,0x1
    1040:	41840c33          	sub	s8,s0,s8
    1044:	d30c3c03          	ld	s8,-720(s8) # d30 <.LBB46_3+0xafc>
    1048:	01ac0c33          	add	s8,s8,s10
    104c:	019c01a3          	sb	s9,3(s8)
    1050:	d2843c83          	ld	s9,-728(s0)
    1054:	080ccc93          	xori	s9,s9,128
    1058:	019c0123          	sb	s9,2(s8)
    105c:	d3843c83          	ld	s9,-712(s0)
    1060:	080ccc93          	xori	s9,s9,128
    1064:	019c00a3          	sb	s9,1(s8)
    1068:	d4843c83          	ld	s9,-696(s0)
    106c:	080ccc93          	xori	s9,s9,128
    1070:	019c0023          	sb	s9,0(s8)
    1074:	d5843c83          	ld	s9,-680(s0)
    1078:	080ccc93          	xori	s9,s9,128
    107c:	019c0223          	sb	s9,4(s8)
    1080:	d6843c83          	ld	s9,-664(s0)
    1084:	080ccc93          	xori	s9,s9,128
    1088:	019c02a3          	sb	s9,5(s8)
    108c:	e8843c83          	ld	s9,-376(s0)
    1090:	080ccc93          	xori	s9,s9,128
    1094:	019c0323          	sb	s9,6(s8)
    1098:	d8043c83          	ld	s9,-640(s0)
    109c:	080ccc93          	xori	s9,s9,128
    10a0:	019c03a3          	sb	s9,7(s8)
    10a4:	d9043c83          	ld	s9,-624(s0)
    10a8:	080ccc93          	xori	s9,s9,128
    10ac:	019c0423          	sb	s9,8(s8)
    10b0:	080dcc93          	xori	s9,s11,128
    10b4:	019c04a3          	sb	s9,9(s8)
    10b8:	08054513          	xori	a0,a0,128
    10bc:	00ac0523          	sb	a0,10(s8)
    10c0:	0805c513          	xori	a0,a1,128
    10c4:	00ac05a3          	sb	a0,11(s8)
    10c8:	08064513          	xori	a0,a2,128
    10cc:	00ac0623          	sb	a0,12(s8)
    10d0:	0806c513          	xori	a0,a3,128
    10d4:	00ac06a3          	sb	a0,13(s8)
    10d8:	08074513          	xori	a0,a4,128
    10dc:	00ac0723          	sb	a0,14(s8)
    10e0:	0807c513          	xori	a0,a5,128
    10e4:	00ac07a3          	sb	a0,15(s8)
    10e8:	08084513          	xori	a0,a6,128
    10ec:	00ac0823          	sb	a0,16(s8)
    10f0:	0808c513          	xori	a0,a7,128
    10f4:	00ac08a3          	sb	a0,17(s8)
    10f8:	0802c513          	xori	a0,t0,128
    10fc:	00ac0923          	sb	a0,18(s8)
    1100:	08034513          	xori	a0,t1,128
    1104:	00ac09a3          	sb	a0,19(s8)
    1108:	0803c513          	xori	a0,t2,128
    110c:	00ac0a23          	sb	a0,20(s8)
    1110:	080e4513          	xori	a0,t3,128
    1114:	00ac0aa3          	sb	a0,21(s8)
    1118:	080ec513          	xori	a0,t4,128
    111c:	00ac0b23          	sb	a0,22(s8)
    1120:	080f4513          	xori	a0,t5,128
    1124:	00ac0ba3          	sb	a0,23(s8)
    1128:	080fc513          	xori	a0,t6,128
    112c:	00ac0c23          	sb	a0,24(s8)
    1130:	0804c513          	xori	a0,s1,128
    1134:	00ac0ca3          	sb	a0,25(s8)
    1138:	08094513          	xori	a0,s2,128
    113c:	00ac0d23          	sb	a0,26(s8)
    1140:	0809c513          	xori	a0,s3,128
    1144:	00ac0da3          	sb	a0,27(s8)
    1148:	080a4513          	xori	a0,s4,128
    114c:	00ac0e23          	sb	a0,28(s8)
    1150:	080ac513          	xori	a0,s5,128
    1154:	00ac0ea3          	sb	a0,29(s8)
    1158:	080b4513          	xori	a0,s6,128
    115c:	00ac0f23          	sb	a0,30(s8)
    1160:	080bc513          	xori	a0,s7,128
    1164:	00ac0fa3          	sb	a0,31(s8)
    1168:	020d0593          	addi	a1,s10,32
    116c:	00001537          	lui	a0,0x1
    1170:	40a40533          	sub	a0,s0,a0
    1174:	65053603          	ld	a2,1616(a0) # 1650 <.LBB46_4+0x4c8>
    1178:	02060613          	addi	a2,a2,32
    117c:	0a000513          	li	a0,160
    1180:	00ad6463          	bltu	s10,a0,1188 <.LBB46_4>
    1184:	fa1fe06f          	j	124 <.LBB46_1>

0000000000001188 <.LBB46_4>:
    1188:	00001537          	lui	a0,0x1
    118c:	40a40533          	sub	a0,s0,a0
    1190:	66b53423          	sd	a1,1640(a0) # 1668 <.LBB46_4+0x4e0>
    1194:	00001537          	lui	a0,0x1
    1198:	40a40533          	sub	a0,s0,a0
    119c:	d1853e83          	ld	t4,-744(a0) # d18 <.LBB46_3+0xae4>
    11a0:	00001537          	lui	a0,0x1
    11a4:	40a40533          	sub	a0,s0,a0
    11a8:	d7053483          	ld	s1,-656(a0) # d70 <.LBB46_3+0xb3c>
    11ac:	00001537          	lui	a0,0x1
    11b0:	40a40533          	sub	a0,s0,a0
    11b4:	64c53823          	sd	a2,1616(a0) # 1650 <.LBB46_4+0x4c8>
    11b8:	00060913          	mv	s2,a2
    11bc:	00001537          	lui	a0,0x1
    11c0:	40a40533          	sub	a0,s0,a0
    11c4:	6c053c23          	sd	zero,1752(a0) # 16d8 <.LBB46_4+0x550>
    11c8:	00001537          	lui	a0,0x1
    11cc:	40a40533          	sub	a0,s0,a0
    11d0:	6c053823          	sd	zero,1744(a0) # 16d0 <.LBB46_4+0x548>
    11d4:	00001537          	lui	a0,0x1
    11d8:	40a40533          	sub	a0,s0,a0
    11dc:	6c053423          	sd	zero,1736(a0) # 16c8 <.LBB46_4+0x540>
    11e0:	00001537          	lui	a0,0x1
    11e4:	40a40533          	sub	a0,s0,a0
    11e8:	6e053023          	sd	zero,1760(a0) # 16e0 <.LBB46_4+0x558>
    11ec:	00001537          	lui	a0,0x1
    11f0:	40a40533          	sub	a0,s0,a0
    11f4:	6c053023          	sd	zero,1728(a0) # 16c0 <.LBB46_4+0x538>
    11f8:	00001537          	lui	a0,0x1
    11fc:	40a40533          	sub	a0,s0,a0
    1200:	6a053c23          	sd	zero,1720(a0) # 16b8 <.LBB46_4+0x530>
    1204:	00001537          	lui	a0,0x1
    1208:	40a40533          	sub	a0,s0,a0
    120c:	6a053823          	sd	zero,1712(a0) # 16b0 <.LBB46_4+0x528>
    1210:	00001537          	lui	a0,0x1
    1214:	40a40533          	sub	a0,s0,a0
    1218:	6a053423          	sd	zero,1704(a0) # 16a8 <.LBB46_4+0x520>
    121c:	00001537          	lui	a0,0x1
    1220:	40a40533          	sub	a0,s0,a0
    1224:	6a053023          	sd	zero,1696(a0) # 16a0 <.LBB46_4+0x518>
    1228:	00001537          	lui	a0,0x1
    122c:	40a40533          	sub	a0,s0,a0
    1230:	6e053423          	sd	zero,1768(a0) # 16e8 <.LBB46_4+0x560>
    1234:	00001537          	lui	a0,0x1
    1238:	40a40533          	sub	a0,s0,a0
    123c:	6e053823          	sd	zero,1776(a0) # 16f0 <.LBB46_4+0x568>
    1240:	00001537          	lui	a0,0x1
    1244:	40a40533          	sub	a0,s0,a0
    1248:	6e053c23          	sd	zero,1784(a0) # 16f8 <.LBB46_4+0x570>
    124c:	00001537          	lui	a0,0x1
    1250:	40a40533          	sub	a0,s0,a0
    1254:	70053023          	sd	zero,1792(a0) # 1700 <.LBB46_4+0x578>
    1258:	00001537          	lui	a0,0x1
    125c:	40a40533          	sub	a0,s0,a0
    1260:	70053423          	sd	zero,1800(a0) # 1708 <.LBB46_4+0x580>
    1264:	00001537          	lui	a0,0x1
    1268:	40a40533          	sub	a0,s0,a0
    126c:	70053823          	sd	zero,1808(a0) # 1710 <.LBB46_4+0x588>
    1270:	00001537          	lui	a0,0x1
    1274:	40a40533          	sub	a0,s0,a0
    1278:	70053c23          	sd	zero,1816(a0) # 1718 <.LBB46_4+0x590>
    127c:	00001537          	lui	a0,0x1
    1280:	40a40533          	sub	a0,s0,a0
    1284:	72053023          	sd	zero,1824(a0) # 1720 <.LBB46_5+0x4>
    1288:	00001537          	lui	a0,0x1
    128c:	40a40533          	sub	a0,s0,a0
    1290:	72053423          	sd	zero,1832(a0) # 1728 <.LBB46_5+0xc>
    1294:	00001537          	lui	a0,0x1
    1298:	40a40533          	sub	a0,s0,a0
    129c:	72053823          	sd	zero,1840(a0) # 1730 <.LBB46_5+0x14>
    12a0:	00001537          	lui	a0,0x1
    12a4:	40a40533          	sub	a0,s0,a0
    12a8:	72053c23          	sd	zero,1848(a0) # 1738 <.LBB46_5+0x1c>
    12ac:	00001537          	lui	a0,0x1
    12b0:	40a40533          	sub	a0,s0,a0
    12b4:	74053023          	sd	zero,1856(a0) # 1740 <.LBB46_5+0x24>
    12b8:	00001537          	lui	a0,0x1
    12bc:	40a40533          	sub	a0,s0,a0
    12c0:	74053423          	sd	zero,1864(a0) # 1748 <.LBB46_5+0x2c>
    12c4:	00001537          	lui	a0,0x1
    12c8:	40a40533          	sub	a0,s0,a0
    12cc:	74053823          	sd	zero,1872(a0) # 1750 <.LBB46_5+0x34>
    12d0:	00001537          	lui	a0,0x1
    12d4:	40a40533          	sub	a0,s0,a0
    12d8:	74053c23          	sd	zero,1880(a0) # 1758 <.LBB46_5+0x3c>
    12dc:	00001537          	lui	a0,0x1
    12e0:	40a40533          	sub	a0,s0,a0
    12e4:	76053023          	sd	zero,1888(a0) # 1760 <.LBB46_5+0x44>
    12e8:	00001537          	lui	a0,0x1
    12ec:	40a40533          	sub	a0,s0,a0
    12f0:	76053423          	sd	zero,1896(a0) # 1768 <.LBB46_5+0x4c>
    12f4:	00001537          	lui	a0,0x1
    12f8:	40a40533          	sub	a0,s0,a0
    12fc:	76053823          	sd	zero,1904(a0) # 1770 <.LBB46_5+0x54>
    1300:	00001537          	lui	a0,0x1
    1304:	40a40533          	sub	a0,s0,a0
    1308:	76053c23          	sd	zero,1912(a0) # 1778 <.LBB46_5+0x5c>
    130c:	00000c93          	li	s9,0
    1310:	00001537          	lui	a0,0x1
    1314:	40a40533          	sub	a0,s0,a0
    1318:	78053023          	sd	zero,1920(a0) # 1780 <.LBB46_5+0x64>
    131c:	00001537          	lui	a0,0x1
    1320:	40a40533          	sub	a0,s0,a0
    1324:	78053423          	sd	zero,1928(a0) # 1788 <.LBB46_5+0x6c>
    1328:	00001537          	lui	a0,0x1
    132c:	40a40533          	sub	a0,s0,a0
    1330:	78053823          	sd	zero,1936(a0) # 1790 <.LBB46_5+0x74>
    1334:	00001537          	lui	a0,0x1
    1338:	40a40533          	sub	a0,s0,a0
    133c:	7a053823          	sd	zero,1968(a0) # 17b0 <.LBB46_5+0x94>
    1340:	00001537          	lui	a0,0x1
    1344:	40a40533          	sub	a0,s0,a0
    1348:	7a053423          	sd	zero,1960(a0) # 17a8 <.LBB46_5+0x8c>
    134c:	00001537          	lui	a0,0x1
    1350:	40a40533          	sub	a0,s0,a0
    1354:	7a053023          	sd	zero,1952(a0) # 17a0 <.LBB46_5+0x84>
    1358:	00001537          	lui	a0,0x1
    135c:	40a40533          	sub	a0,s0,a0
    1360:	78053c23          	sd	zero,1944(a0) # 1798 <.LBB46_5+0x7c>
    1364:	00001537          	lui	a0,0x1
    1368:	40a40533          	sub	a0,s0,a0
    136c:	7a053c23          	sd	zero,1976(a0) # 17b8 <.LBB46_5+0x9c>
    1370:	00001537          	lui	a0,0x1
    1374:	40a40533          	sub	a0,s0,a0
    1378:	7c053023          	sd	zero,1984(a0) # 17c0 <.LBB46_5+0xa4>
    137c:	00001537          	lui	a0,0x1
    1380:	40a40533          	sub	a0,s0,a0
    1384:	7c053423          	sd	zero,1992(a0) # 17c8 <.LBB46_5+0xac>
    1388:	00001537          	lui	a0,0x1
    138c:	40a40533          	sub	a0,s0,a0
    1390:	7c053823          	sd	zero,2000(a0) # 17d0 <.LBB46_5+0xb4>
    1394:	00001537          	lui	a0,0x1
    1398:	40a40533          	sub	a0,s0,a0
    139c:	7c053c23          	sd	zero,2008(a0) # 17d8 <.LBB46_5+0xbc>
    13a0:	00001537          	lui	a0,0x1
    13a4:	40a40533          	sub	a0,s0,a0
    13a8:	7e053023          	sd	zero,2016(a0) # 17e0 <.LBB46_5+0xc4>
    13ac:	00001537          	lui	a0,0x1
    13b0:	40a40533          	sub	a0,s0,a0
    13b4:	7e053423          	sd	zero,2024(a0) # 17e8 <.LBB46_5+0xcc>
    13b8:	00001537          	lui	a0,0x1
    13bc:	40a40533          	sub	a0,s0,a0
    13c0:	7e053823          	sd	zero,2032(a0) # 17f0 <.LBB46_5+0xd4>
    13c4:	00001537          	lui	a0,0x1
    13c8:	40a40533          	sub	a0,s0,a0
    13cc:	7e053c23          	sd	zero,2040(a0) # 17f8 <.LBB46_5+0xdc>
    13d0:	80043023          	sd	zero,-2048(s0)
    13d4:	80043423          	sd	zero,-2040(s0)
    13d8:	80043823          	sd	zero,-2032(s0)
    13dc:	80043c23          	sd	zero,-2024(s0)
    13e0:	82043023          	sd	zero,-2016(s0)
    13e4:	82043423          	sd	zero,-2008(s0)
    13e8:	82043823          	sd	zero,-2000(s0)
    13ec:	82043c23          	sd	zero,-1992(s0)
    13f0:	84043023          	sd	zero,-1984(s0)
    13f4:	84043423          	sd	zero,-1976(s0)
    13f8:	84043823          	sd	zero,-1968(s0)
    13fc:	84043c23          	sd	zero,-1960(s0)
    1400:	86043023          	sd	zero,-1952(s0)
    1404:	86043423          	sd	zero,-1944(s0)
    1408:	86043823          	sd	zero,-1936(s0)
    140c:	86043c23          	sd	zero,-1928(s0)
    1410:	88043023          	sd	zero,-1920(s0)
    1414:	88043423          	sd	zero,-1912(s0)
    1418:	88043823          	sd	zero,-1904(s0)
    141c:	8a043823          	sd	zero,-1872(s0)
    1420:	8a043423          	sd	zero,-1880(s0)
    1424:	8a043023          	sd	zero,-1888(s0)
    1428:	88043c23          	sd	zero,-1896(s0)
    142c:	8a043c23          	sd	zero,-1864(s0)
    1430:	8c043023          	sd	zero,-1856(s0)
    1434:	8c043423          	sd	zero,-1848(s0)
    1438:	8c043823          	sd	zero,-1840(s0)
    143c:	8c043c23          	sd	zero,-1832(s0)
    1440:	8e043023          	sd	zero,-1824(s0)
    1444:	8e043423          	sd	zero,-1816(s0)
    1448:	8e043823          	sd	zero,-1808(s0)
    144c:	8e043c23          	sd	zero,-1800(s0)
    1450:	90043023          	sd	zero,-1792(s0)
    1454:	90043423          	sd	zero,-1784(s0)
    1458:	90043823          	sd	zero,-1776(s0)
    145c:	90043c23          	sd	zero,-1768(s0)
    1460:	92043023          	sd	zero,-1760(s0)
    1464:	92043423          	sd	zero,-1752(s0)
    1468:	92043823          	sd	zero,-1744(s0)
    146c:	92043c23          	sd	zero,-1736(s0)
    1470:	94043023          	sd	zero,-1728(s0)
    1474:	94043423          	sd	zero,-1720(s0)
    1478:	94043823          	sd	zero,-1712(s0)
    147c:	94043c23          	sd	zero,-1704(s0)
    1480:	96043023          	sd	zero,-1696(s0)
    1484:	96043423          	sd	zero,-1688(s0)
    1488:	96043823          	sd	zero,-1680(s0)
    148c:	96043c23          	sd	zero,-1672(s0)
    1490:	98043023          	sd	zero,-1664(s0)
    1494:	98043423          	sd	zero,-1656(s0)
    1498:	98043823          	sd	zero,-1648(s0)
    149c:	9a043823          	sd	zero,-1616(s0)
    14a0:	9a043423          	sd	zero,-1624(s0)
    14a4:	9a043023          	sd	zero,-1632(s0)
    14a8:	98043c23          	sd	zero,-1640(s0)
    14ac:	9a043c23          	sd	zero,-1608(s0)
    14b0:	9c043023          	sd	zero,-1600(s0)
    14b4:	9c043423          	sd	zero,-1592(s0)
    14b8:	9c043823          	sd	zero,-1584(s0)
    14bc:	9c043c23          	sd	zero,-1576(s0)
    14c0:	9e043023          	sd	zero,-1568(s0)
    14c4:	9e043423          	sd	zero,-1560(s0)
    14c8:	9e043823          	sd	zero,-1552(s0)
    14cc:	9e043c23          	sd	zero,-1544(s0)
    14d0:	a0043023          	sd	zero,-1536(s0)
    14d4:	a0043423          	sd	zero,-1528(s0)
    14d8:	a0043823          	sd	zero,-1520(s0)
    14dc:	a0043c23          	sd	zero,-1512(s0)
    14e0:	a2043023          	sd	zero,-1504(s0)
    14e4:	a2043423          	sd	zero,-1496(s0)
    14e8:	a2043823          	sd	zero,-1488(s0)
    14ec:	a2043c23          	sd	zero,-1480(s0)
    14f0:	a4043023          	sd	zero,-1472(s0)
    14f4:	a4043423          	sd	zero,-1464(s0)
    14f8:	a4043823          	sd	zero,-1456(s0)
    14fc:	a4043c23          	sd	zero,-1448(s0)
    1500:	a6043023          	sd	zero,-1440(s0)
    1504:	a6043423          	sd	zero,-1432(s0)
    1508:	a6043823          	sd	zero,-1424(s0)
    150c:	a6043c23          	sd	zero,-1416(s0)
    1510:	a8043023          	sd	zero,-1408(s0)
    1514:	a8043423          	sd	zero,-1400(s0)
    1518:	a8043823          	sd	zero,-1392(s0)
    151c:	aa043823          	sd	zero,-1360(s0)
    1520:	aa043423          	sd	zero,-1368(s0)
    1524:	aa043023          	sd	zero,-1376(s0)
    1528:	a8043c23          	sd	zero,-1384(s0)
    152c:	aa043c23          	sd	zero,-1352(s0)
    1530:	ac043023          	sd	zero,-1344(s0)
    1534:	ac043423          	sd	zero,-1336(s0)
    1538:	ac043823          	sd	zero,-1328(s0)
    153c:	ac043c23          	sd	zero,-1320(s0)
    1540:	ae043023          	sd	zero,-1312(s0)
    1544:	ae043423          	sd	zero,-1304(s0)
    1548:	ae043823          	sd	zero,-1296(s0)
    154c:	ae043c23          	sd	zero,-1288(s0)
    1550:	b0043023          	sd	zero,-1280(s0)
    1554:	b0043423          	sd	zero,-1272(s0)
    1558:	b0043823          	sd	zero,-1264(s0)
    155c:	b0043c23          	sd	zero,-1256(s0)
    1560:	b2043023          	sd	zero,-1248(s0)
    1564:	b2043423          	sd	zero,-1240(s0)
    1568:	b2043823          	sd	zero,-1232(s0)
    156c:	b2043c23          	sd	zero,-1224(s0)
    1570:	b4043023          	sd	zero,-1216(s0)
    1574:	b4043423          	sd	zero,-1208(s0)
    1578:	b4043823          	sd	zero,-1200(s0)
    157c:	b4043c23          	sd	zero,-1192(s0)
    1580:	b6043023          	sd	zero,-1184(s0)
    1584:	b6043423          	sd	zero,-1176(s0)
    1588:	b6043823          	sd	zero,-1168(s0)
    158c:	b6043c23          	sd	zero,-1160(s0)
    1590:	b8043023          	sd	zero,-1152(s0)
    1594:	b8043423          	sd	zero,-1144(s0)
    1598:	b8043823          	sd	zero,-1136(s0)
    159c:	ba043823          	sd	zero,-1104(s0)
    15a0:	ba043423          	sd	zero,-1112(s0)
    15a4:	ba043023          	sd	zero,-1120(s0)
    15a8:	b8043c23          	sd	zero,-1128(s0)
    15ac:	ba043c23          	sd	zero,-1096(s0)
    15b0:	bc043023          	sd	zero,-1088(s0)
    15b4:	bc043423          	sd	zero,-1080(s0)
    15b8:	bc043823          	sd	zero,-1072(s0)
    15bc:	bc043c23          	sd	zero,-1064(s0)
    15c0:	be043023          	sd	zero,-1056(s0)
    15c4:	be043423          	sd	zero,-1048(s0)
    15c8:	be043823          	sd	zero,-1040(s0)
    15cc:	be043c23          	sd	zero,-1032(s0)
    15d0:	c0043023          	sd	zero,-1024(s0)
    15d4:	c0043423          	sd	zero,-1016(s0)
    15d8:	c0043823          	sd	zero,-1008(s0)
    15dc:	c0043c23          	sd	zero,-1000(s0)
    15e0:	c2043023          	sd	zero,-992(s0)
    15e4:	c2043423          	sd	zero,-984(s0)
    15e8:	c2043823          	sd	zero,-976(s0)
    15ec:	c2043c23          	sd	zero,-968(s0)
    15f0:	c4043023          	sd	zero,-960(s0)
    15f4:	c4043423          	sd	zero,-952(s0)
    15f8:	c4043823          	sd	zero,-944(s0)
    15fc:	c4043c23          	sd	zero,-936(s0)
    1600:	c6043023          	sd	zero,-928(s0)
    1604:	c6043423          	sd	zero,-920(s0)
    1608:	c6043823          	sd	zero,-912(s0)
    160c:	c6043c23          	sd	zero,-904(s0)
    1610:	c8043023          	sd	zero,-896(s0)
    1614:	c8043423          	sd	zero,-888(s0)
    1618:	c8043823          	sd	zero,-880(s0)
    161c:	ca043823          	sd	zero,-848(s0)
    1620:	ca043423          	sd	zero,-856(s0)
    1624:	ca043023          	sd	zero,-864(s0)
    1628:	c8043c23          	sd	zero,-872(s0)
    162c:	ca043c23          	sd	zero,-840(s0)
    1630:	cc043023          	sd	zero,-832(s0)
    1634:	cc043423          	sd	zero,-824(s0)
    1638:	cc043823          	sd	zero,-816(s0)
    163c:	cc043c23          	sd	zero,-808(s0)
    1640:	ce043023          	sd	zero,-800(s0)
    1644:	ce043423          	sd	zero,-792(s0)
    1648:	ce043823          	sd	zero,-784(s0)
    164c:	ce043c23          	sd	zero,-776(s0)
    1650:	d0043023          	sd	zero,-768(s0)
    1654:	d0043423          	sd	zero,-760(s0)
    1658:	d0043823          	sd	zero,-752(s0)
    165c:	d0043c23          	sd	zero,-744(s0)
    1660:	d2043023          	sd	zero,-736(s0)
    1664:	d2043423          	sd	zero,-728(s0)
    1668:	d2043823          	sd	zero,-720(s0)
    166c:	d2043c23          	sd	zero,-712(s0)
    1670:	d4043023          	sd	zero,-704(s0)
    1674:	d4043423          	sd	zero,-696(s0)
    1678:	d4043823          	sd	zero,-688(s0)
    167c:	d4043c23          	sd	zero,-680(s0)
    1680:	d6043023          	sd	zero,-672(s0)
    1684:	d6043423          	sd	zero,-664(s0)
    1688:	d6043823          	sd	zero,-656(s0)
    168c:	d6043c23          	sd	zero,-648(s0)
    1690:	d8043023          	sd	zero,-640(s0)
    1694:	d8043423          	sd	zero,-632(s0)
    1698:	d8043823          	sd	zero,-624(s0)
    169c:	da043823          	sd	zero,-592(s0)
    16a0:	da043423          	sd	zero,-600(s0)
    16a4:	da043023          	sd	zero,-608(s0)
    16a8:	d8043c23          	sd	zero,-616(s0)
    16ac:	da043c23          	sd	zero,-584(s0)
    16b0:	dc043023          	sd	zero,-576(s0)
    16b4:	dc043423          	sd	zero,-568(s0)
    16b8:	00000093          	li	ra,0
    16bc:	00000d13          	li	s10,0
    16c0:	00000c13          	li	s8,0
    16c4:	dc043823          	sd	zero,-560(s0)
    16c8:	00000b93          	li	s7,0
    16cc:	00000a13          	li	s4,0
    16d0:	00000713          	li	a4,0
    16d4:	00000693          	li	a3,0
    16d8:	00000b13          	li	s6,0
    16dc:	00000f93          	li	t6,0
    16e0:	00000f13          	li	t5,0
    16e4:	00000613          	li	a2,0
    16e8:	00000e13          	li	t3,0
    16ec:	00000393          	li	t2,0
    16f0:	00000313          	li	t1,0
    16f4:	00000293          	li	t0,0
    16f8:	00000593          	li	a1,0
    16fc:	00000513          	li	a0,0
    1700:	00000893          	li	a7,0
    1704:	00000813          	li	a6,0
    1708:	00000793          	li	a5,0
    170c:	e2043423          	sd	zero,-472(s0)
    1710:	e2043823          	sd	zero,-464(s0)
    1714:	e2043c23          	sd	zero,-456(s0)
    1718:	e4043023          	sd	zero,-448(s0)

000000000000171c <.LBB46_5>:
    171c:	dd643c23          	sd	s6,-552(s0)
    1720:	f9243423          	sd	s2,-120(s0)
    1724:	f8943023          	sd	s1,-128(s0)
    1728:	000019b7          	lui	s3,0x1
    172c:	413409b3          	sub	s3,s0,s3
    1730:	69d9b823          	sd	t4,1680(s3) # 1690 <.LBB46_4+0x508>
    1734:	ea143c23          	sd	ra,-328(s0)
    1738:	eda43023          	sd	s10,-320(s0)
    173c:	ed843423          	sd	s8,-312(s0)
    1740:	ed743823          	sd	s7,-304(s0)
    1744:	ed443c23          	sd	s4,-296(s0)
    1748:	eee43023          	sd	a4,-288(s0)
    174c:	eed43423          	sd	a3,-280(s0)
    1750:	dff43023          	sd	t6,-544(s0)
    1754:	dfe43423          	sd	t5,-536(s0)
    1758:	eec43823          	sd	a2,-272(s0)
    175c:	dfc43823          	sd	t3,-528(s0)
    1760:	de743c23          	sd	t2,-520(s0)
    1764:	e0643023          	sd	t1,-512(s0)
    1768:	e0543423          	sd	t0,-504(s0)
    176c:	eeb43c23          	sd	a1,-264(s0)
    1770:	f0a43023          	sd	a0,-256(s0)
    1774:	e1143823          	sd	a7,-496(s0)
    1778:	e1043c23          	sd	a6,-488(s0)
    177c:	e2f43023          	sd	a5,-480(s0)
    1780:	f8048503          	lb	a0,-128(s1)
    1784:	00290603          	lb	a2,2(s2)
    1788:	f0c43c23          	sd	a2,-232(s0)
    178c:	00190683          	lb	a3,1(s2)
    1790:	f0d43423          	sd	a3,-248(s0)
    1794:	00090703          	lb	a4,0(s2)
    1798:	f6e43c23          	sd	a4,-136(s0)
    179c:	00390783          	lb	a5,3(s2)
    17a0:	eaf43023          	sd	a5,-352(s0)
    17a4:	00490803          	lb	a6,4(s2)
    17a8:	f1043823          	sd	a6,-240(s0)
    17ac:	00590a03          	lb	s4,5(s2)
    17b0:	f7443823          	sd	s4,-144(s0)
    17b4:	00690d03          	lb	s10,6(s2)
    17b8:	f7a43423          	sd	s10,-152(s0)
    17bc:	000c8a93          	mv	s5,s9
    17c0:	00790c83          	lb	s9,7(s2)
    17c4:	f7943023          	sd	s9,-160(s0)
    17c8:	00890883          	lb	a7,8(s2)
    17cc:	000015b7          	lui	a1,0x1
    17d0:	40b405b3          	sub	a1,s0,a1
    17d4:	6915b423          	sd	a7,1672(a1) # 1688 <.LBB46_4+0x500>
    17d8:	00990283          	lb	t0,9(s2)
    17dc:	e6543423          	sd	t0,-408(s0)
    17e0:	00a90383          	lb	t2,10(s2)
    17e4:	e6743823          	sd	t2,-400(s0)
    17e8:	00b90e83          	lb	t4,11(s2)
    17ec:	00c90083          	lb	ra,12(s2)
    17f0:	f4143023          	sd	ra,-192(s0)
    17f4:	00d90303          	lb	t1,13(s2)
    17f8:	f4643423          	sd	t1,-184(s0)
    17fc:	00e90e03          	lb	t3,14(s2)
    1800:	f5c43823          	sd	t3,-176(s0)
    1804:	00f90f83          	lb	t6,15(s2)
    1808:	01090f03          	lb	t5,16(s2)
    180c:	f5e43c23          	sd	t5,-168(s0)
    1810:	01190483          	lb	s1,17(s2)
    1814:	01290583          	lb	a1,18(s2)
    1818:	f2b43423          	sd	a1,-216(s0)
    181c:	01390983          	lb	s3,19(s2)
    1820:	e9343c23          	sd	s3,-360(s0)
    1824:	01490c03          	lb	s8,20(s2)
    1828:	01590b03          	lb	s6,21(s2)
    182c:	eb643823          	sd	s6,-336(s0)
    1830:	01690b83          	lb	s7,22(s2)
    1834:	f3743c23          	sd	s7,-200(s0)
    1838:	01790903          	lb	s2,23(s2)
    183c:	f8843583          	ld	a1,-120(s0)
    1840:	01858d83          	lb	s11,24(a1)
    1844:	f3b43823          	sd	s11,-208(s0)
    1848:	02c505b3          	mul	a1,a0,a2
    184c:	00001637          	lui	a2,0x1
    1850:	40c40633          	sub	a2,s0,a2
    1854:	6c863603          	ld	a2,1736(a2) # 16c8 <.LBB46_4+0x540>
    1858:	00c58633          	add	a2,a1,a2
    185c:	000015b7          	lui	a1,0x1
    1860:	40b405b3          	sub	a1,s0,a1
    1864:	6cc5b423          	sd	a2,1736(a1) # 16c8 <.LBB46_4+0x540>
    1868:	02d505b3          	mul	a1,a0,a3
    186c:	00001637          	lui	a2,0x1
    1870:	40c40633          	sub	a2,s0,a2
    1874:	6d063603          	ld	a2,1744(a2) # 16d0 <.LBB46_4+0x548>
    1878:	00c58633          	add	a2,a1,a2
    187c:	000015b7          	lui	a1,0x1
    1880:	40b405b3          	sub	a1,s0,a1
    1884:	6cc5b823          	sd	a2,1744(a1) # 16d0 <.LBB46_4+0x548>
    1888:	02e505b3          	mul	a1,a0,a4
    188c:	00001637          	lui	a2,0x1
    1890:	40c40633          	sub	a2,s0,a2
    1894:	6d863603          	ld	a2,1752(a2) # 16d8 <.LBB46_4+0x550>
    1898:	00c58633          	add	a2,a1,a2
    189c:	000015b7          	lui	a1,0x1
    18a0:	40b405b3          	sub	a1,s0,a1
    18a4:	6cc5bc23          	sd	a2,1752(a1) # 16d8 <.LBB46_4+0x550>
    18a8:	02f505b3          	mul	a1,a0,a5
    18ac:	00001637          	lui	a2,0x1
    18b0:	40c40633          	sub	a2,s0,a2
    18b4:	6e063603          	ld	a2,1760(a2) # 16e0 <.LBB46_4+0x558>
    18b8:	00c58633          	add	a2,a1,a2
    18bc:	000015b7          	lui	a1,0x1
    18c0:	40b405b3          	sub	a1,s0,a1
    18c4:	6ec5b023          	sd	a2,1760(a1) # 16e0 <.LBB46_4+0x558>
    18c8:	030505b3          	mul	a1,a0,a6
    18cc:	00001637          	lui	a2,0x1
    18d0:	40c40633          	sub	a2,s0,a2
    18d4:	6c063603          	ld	a2,1728(a2) # 16c0 <.LBB46_4+0x538>
    18d8:	00c58633          	add	a2,a1,a2
    18dc:	000015b7          	lui	a1,0x1
    18e0:	40b405b3          	sub	a1,s0,a1
    18e4:	6cc5b023          	sd	a2,1728(a1) # 16c0 <.LBB46_4+0x538>
    18e8:	034505b3          	mul	a1,a0,s4
    18ec:	00001637          	lui	a2,0x1
    18f0:	40c40633          	sub	a2,s0,a2
    18f4:	6b863603          	ld	a2,1720(a2) # 16b8 <.LBB46_4+0x530>
    18f8:	00c58633          	add	a2,a1,a2
    18fc:	000015b7          	lui	a1,0x1
    1900:	40b405b3          	sub	a1,s0,a1
    1904:	6ac5bc23          	sd	a2,1720(a1) # 16b8 <.LBB46_4+0x530>
    1908:	03a505b3          	mul	a1,a0,s10
    190c:	00001637          	lui	a2,0x1
    1910:	40c40633          	sub	a2,s0,a2
    1914:	6b063603          	ld	a2,1712(a2) # 16b0 <.LBB46_4+0x528>
    1918:	00c58633          	add	a2,a1,a2
    191c:	000015b7          	lui	a1,0x1
    1920:	40b405b3          	sub	a1,s0,a1
    1924:	6ac5b823          	sd	a2,1712(a1) # 16b0 <.LBB46_4+0x528>
    1928:	039505b3          	mul	a1,a0,s9
    192c:	00001637          	lui	a2,0x1
    1930:	40c40633          	sub	a2,s0,a2
    1934:	6a863603          	ld	a2,1704(a2) # 16a8 <.LBB46_4+0x520>
    1938:	00c58633          	add	a2,a1,a2
    193c:	000015b7          	lui	a1,0x1
    1940:	40b405b3          	sub	a1,s0,a1
    1944:	6ac5b423          	sd	a2,1704(a1) # 16a8 <.LBB46_4+0x520>
    1948:	031505b3          	mul	a1,a0,a7
    194c:	00001637          	lui	a2,0x1
    1950:	40c40633          	sub	a2,s0,a2
    1954:	6a063603          	ld	a2,1696(a2) # 16a0 <.LBB46_4+0x518>
    1958:	00c58633          	add	a2,a1,a2
    195c:	000015b7          	lui	a1,0x1
    1960:	40b405b3          	sub	a1,s0,a1
    1964:	6ac5b023          	sd	a2,1696(a1) # 16a0 <.LBB46_4+0x518>
    1968:	025505b3          	mul	a1,a0,t0
    196c:	00001637          	lui	a2,0x1
    1970:	40c40633          	sub	a2,s0,a2
    1974:	6e863603          	ld	a2,1768(a2) # 16e8 <.LBB46_4+0x560>
    1978:	00c58633          	add	a2,a1,a2
    197c:	000015b7          	lui	a1,0x1
    1980:	40b405b3          	sub	a1,s0,a1
    1984:	6ec5b423          	sd	a2,1768(a1) # 16e8 <.LBB46_4+0x560>
    1988:	027505b3          	mul	a1,a0,t2
    198c:	00001637          	lui	a2,0x1
    1990:	40c40633          	sub	a2,s0,a2
    1994:	6f063603          	ld	a2,1776(a2) # 16f0 <.LBB46_4+0x568>
    1998:	00c58633          	add	a2,a1,a2
    199c:	000015b7          	lui	a1,0x1
    19a0:	40b405b3          	sub	a1,s0,a1
    19a4:	6ec5b823          	sd	a2,1776(a1) # 16f0 <.LBB46_4+0x568>
    19a8:	03d505b3          	mul	a1,a0,t4
    19ac:	000e8893          	mv	a7,t4
    19b0:	00001637          	lui	a2,0x1
    19b4:	40c40633          	sub	a2,s0,a2
    19b8:	6f863603          	ld	a2,1784(a2) # 16f8 <.LBB46_4+0x570>
    19bc:	00c58633          	add	a2,a1,a2
    19c0:	000015b7          	lui	a1,0x1
    19c4:	40b405b3          	sub	a1,s0,a1
    19c8:	6ec5bc23          	sd	a2,1784(a1) # 16f8 <.LBB46_4+0x570>
    19cc:	021505b3          	mul	a1,a0,ra
    19d0:	00001637          	lui	a2,0x1
    19d4:	40c40633          	sub	a2,s0,a2
    19d8:	70063603          	ld	a2,1792(a2) # 1700 <.LBB46_4+0x578>
    19dc:	00c58633          	add	a2,a1,a2
    19e0:	000015b7          	lui	a1,0x1
    19e4:	40b405b3          	sub	a1,s0,a1
    19e8:	70c5b023          	sd	a2,1792(a1) # 1700 <.LBB46_4+0x578>
    19ec:	026505b3          	mul	a1,a0,t1
    19f0:	00001637          	lui	a2,0x1
    19f4:	40c40633          	sub	a2,s0,a2
    19f8:	70863603          	ld	a2,1800(a2) # 1708 <.LBB46_4+0x580>
    19fc:	00c58633          	add	a2,a1,a2
    1a00:	000015b7          	lui	a1,0x1
    1a04:	40b405b3          	sub	a1,s0,a1
    1a08:	70c5b423          	sd	a2,1800(a1) # 1708 <.LBB46_4+0x580>
    1a0c:	03c505b3          	mul	a1,a0,t3
    1a10:	00001637          	lui	a2,0x1
    1a14:	40c40633          	sub	a2,s0,a2
    1a18:	71063603          	ld	a2,1808(a2) # 1710 <.LBB46_4+0x588>
    1a1c:	00c58633          	add	a2,a1,a2
    1a20:	000015b7          	lui	a1,0x1
    1a24:	40b405b3          	sub	a1,s0,a1
    1a28:	70c5b823          	sd	a2,1808(a1) # 1710 <.LBB46_4+0x588>
    1a2c:	03f505b3          	mul	a1,a0,t6
    1a30:	000f8093          	mv	ra,t6
    1a34:	00001637          	lui	a2,0x1
    1a38:	40c40633          	sub	a2,s0,a2
    1a3c:	71863603          	ld	a2,1816(a2) # 1718 <.LBB46_4+0x590>
    1a40:	00c58633          	add	a2,a1,a2
    1a44:	000015b7          	lui	a1,0x1
    1a48:	40b405b3          	sub	a1,s0,a1
    1a4c:	70c5bc23          	sd	a2,1816(a1) # 1718 <.LBB46_4+0x590>
    1a50:	03e505b3          	mul	a1,a0,t5
    1a54:	00001637          	lui	a2,0x1
    1a58:	40c40633          	sub	a2,s0,a2
    1a5c:	72063603          	ld	a2,1824(a2) # 1720 <.LBB46_5+0x4>
    1a60:	00c58633          	add	a2,a1,a2
    1a64:	000015b7          	lui	a1,0x1
    1a68:	40b405b3          	sub	a1,s0,a1
    1a6c:	72c5b023          	sd	a2,1824(a1) # 1720 <.LBB46_5+0x4>
    1a70:	029505b3          	mul	a1,a0,s1
    1a74:	00048f93          	mv	t6,s1
    1a78:	e6943023          	sd	s1,-416(s0)
    1a7c:	00001637          	lui	a2,0x1
    1a80:	40c40633          	sub	a2,s0,a2
    1a84:	72863603          	ld	a2,1832(a2) # 1728 <.LBB46_5+0xc>
    1a88:	00c58633          	add	a2,a1,a2
    1a8c:	000015b7          	lui	a1,0x1
    1a90:	40b405b3          	sub	a1,s0,a1
    1a94:	72c5b423          	sd	a2,1832(a1) # 1728 <.LBB46_5+0xc>
    1a98:	f2843783          	ld	a5,-216(s0)
    1a9c:	02f505b3          	mul	a1,a0,a5
    1aa0:	00001637          	lui	a2,0x1
    1aa4:	40c40633          	sub	a2,s0,a2
    1aa8:	73063603          	ld	a2,1840(a2) # 1730 <.LBB46_5+0x14>
    1aac:	00c58633          	add	a2,a1,a2
    1ab0:	000015b7          	lui	a1,0x1
    1ab4:	40b405b3          	sub	a1,s0,a1
    1ab8:	72c5b823          	sd	a2,1840(a1) # 1730 <.LBB46_5+0x14>
    1abc:	033505b3          	mul	a1,a0,s3
    1ac0:	00001637          	lui	a2,0x1
    1ac4:	40c40633          	sub	a2,s0,a2
    1ac8:	73863603          	ld	a2,1848(a2) # 1738 <.LBB46_5+0x1c>
    1acc:	00c58633          	add	a2,a1,a2
    1ad0:	000015b7          	lui	a1,0x1
    1ad4:	40b405b3          	sub	a1,s0,a1
    1ad8:	72c5bc23          	sd	a2,1848(a1) # 1738 <.LBB46_5+0x1c>
    1adc:	038505b3          	mul	a1,a0,s8
    1ae0:	000c0493          	mv	s1,s8
    1ae4:	00001637          	lui	a2,0x1
    1ae8:	40c40633          	sub	a2,s0,a2
    1aec:	74063603          	ld	a2,1856(a2) # 1740 <.LBB46_5+0x24>
    1af0:	00c58633          	add	a2,a1,a2
    1af4:	000015b7          	lui	a1,0x1
    1af8:	40b405b3          	sub	a1,s0,a1
    1afc:	74c5b023          	sd	a2,1856(a1) # 1740 <.LBB46_5+0x24>
    1b00:	036505b3          	mul	a1,a0,s6
    1b04:	00001637          	lui	a2,0x1
    1b08:	40c40633          	sub	a2,s0,a2
    1b0c:	74863603          	ld	a2,1864(a2) # 1748 <.LBB46_5+0x2c>
    1b10:	00c58633          	add	a2,a1,a2
    1b14:	000015b7          	lui	a1,0x1
    1b18:	40b405b3          	sub	a1,s0,a1
    1b1c:	74c5b423          	sd	a2,1864(a1) # 1748 <.LBB46_5+0x2c>
    1b20:	037505b3          	mul	a1,a0,s7
    1b24:	00001637          	lui	a2,0x1
    1b28:	40c40633          	sub	a2,s0,a2
    1b2c:	75063603          	ld	a2,1872(a2) # 1750 <.LBB46_5+0x34>
    1b30:	00c58633          	add	a2,a1,a2
    1b34:	000015b7          	lui	a1,0x1
    1b38:	40b405b3          	sub	a1,s0,a1
    1b3c:	74c5b823          	sd	a2,1872(a1) # 1750 <.LBB46_5+0x34>
    1b40:	032505b3          	mul	a1,a0,s2
    1b44:	00090e13          	mv	t3,s2
    1b48:	00001637          	lui	a2,0x1
    1b4c:	40c40633          	sub	a2,s0,a2
    1b50:	75863603          	ld	a2,1880(a2) # 1758 <.LBB46_5+0x3c>
    1b54:	00c58633          	add	a2,a1,a2
    1b58:	000015b7          	lui	a1,0x1
    1b5c:	40b405b3          	sub	a1,s0,a1
    1b60:	74c5bc23          	sd	a2,1880(a1) # 1758 <.LBB46_5+0x3c>
    1b64:	f8843583          	ld	a1,-120(s0)
    1b68:	01958803          	lb	a6,25(a1)
    1b6c:	03b505b3          	mul	a1,a0,s11
    1b70:	00001637          	lui	a2,0x1
    1b74:	40c40633          	sub	a2,s0,a2
    1b78:	76063603          	ld	a2,1888(a2) # 1760 <.LBB46_5+0x44>
    1b7c:	00c58633          	add	a2,a1,a2
    1b80:	000015b7          	lui	a1,0x1
    1b84:	40b405b3          	sub	a1,s0,a1
    1b88:	76c5b023          	sd	a2,1888(a1) # 1760 <.LBB46_5+0x44>
    1b8c:	f8843583          	ld	a1,-120(s0)
    1b90:	01a58303          	lb	t1,26(a1)
    1b94:	030505b3          	mul	a1,a0,a6
    1b98:	e5043823          	sd	a6,-432(s0)
    1b9c:	00001637          	lui	a2,0x1
    1ba0:	40c40633          	sub	a2,s0,a2
    1ba4:	76863603          	ld	a2,1896(a2) # 1768 <.LBB46_5+0x4c>
    1ba8:	00c58633          	add	a2,a1,a2
    1bac:	000015b7          	lui	a1,0x1
    1bb0:	40b405b3          	sub	a1,s0,a1
    1bb4:	76c5b423          	sd	a2,1896(a1) # 1768 <.LBB46_5+0x4c>
    1bb8:	f8843583          	ld	a1,-120(s0)
    1bbc:	01b58683          	lb	a3,27(a1)
    1bc0:	e8d43423          	sd	a3,-376(s0)
    1bc4:	026505b3          	mul	a1,a0,t1
    1bc8:	e8643823          	sd	t1,-368(s0)
    1bcc:	00001637          	lui	a2,0x1
    1bd0:	40c40633          	sub	a2,s0,a2
    1bd4:	77063603          	ld	a2,1904(a2) # 1770 <.LBB46_5+0x54>
    1bd8:	00c58633          	add	a2,a1,a2
    1bdc:	000015b7          	lui	a1,0x1
    1be0:	40b405b3          	sub	a1,s0,a1
    1be4:	76c5b823          	sd	a2,1904(a1) # 1770 <.LBB46_5+0x54>
    1be8:	f8843583          	ld	a1,-120(s0)
    1bec:	01c58703          	lb	a4,28(a1)
    1bf0:	02d505b3          	mul	a1,a0,a3
    1bf4:	00001637          	lui	a2,0x1
    1bf8:	40c40633          	sub	a2,s0,a2
    1bfc:	77863603          	ld	a2,1912(a2) # 1778 <.LBB46_5+0x5c>
    1c00:	00c58633          	add	a2,a1,a2
    1c04:	000015b7          	lui	a1,0x1
    1c08:	40b405b3          	sub	a1,s0,a1
    1c0c:	76c5bc23          	sd	a2,1912(a1) # 1778 <.LBB46_5+0x5c>
    1c10:	f8843583          	ld	a1,-120(s0)
    1c14:	01d58603          	lb	a2,29(a1)
    1c18:	02e505b3          	mul	a1,a0,a4
    1c1c:	01558ab3          	add	s5,a1,s5
    1c20:	000015b7          	lui	a1,0x1
    1c24:	40b405b3          	sub	a1,s0,a1
    1c28:	6955bc23          	sd	s5,1688(a1) # 1698 <.LBB46_4+0x510>
    1c2c:	f8843583          	ld	a1,-120(s0)
    1c30:	01e58683          	lb	a3,30(a1)
    1c34:	02c505b3          	mul	a1,a0,a2
    1c38:	00060e93          	mv	t4,a2
    1c3c:	00001637          	lui	a2,0x1
    1c40:	40c40633          	sub	a2,s0,a2
    1c44:	78063603          	ld	a2,1920(a2) # 1780 <.LBB46_5+0x64>
    1c48:	00c58633          	add	a2,a1,a2
    1c4c:	000015b7          	lui	a1,0x1
    1c50:	40b405b3          	sub	a1,s0,a1
    1c54:	78c5b023          	sd	a2,1920(a1) # 1780 <.LBB46_5+0x64>
    1c58:	f8843583          	ld	a1,-120(s0)
    1c5c:	01f58583          	lb	a1,31(a1)
    1c60:	f8043603          	ld	a2,-128(s0)
    1c64:	fa060a03          	lb	s4,-96(a2)
    1c68:	02d50cb3          	mul	s9,a0,a3
    1c6c:	00068f13          	mv	t5,a3
    1c70:	f2d43023          	sd	a3,-224(s0)
    1c74:	00001637          	lui	a2,0x1
    1c78:	40c40633          	sub	a2,s0,a2
    1c7c:	78863603          	ld	a2,1928(a2) # 1788 <.LBB46_5+0x6c>
    1c80:	00cc8633          	add	a2,s9,a2
    1c84:	000016b7          	lui	a3,0x1
    1c88:	40d406b3          	sub	a3,s0,a3
    1c8c:	78c6b423          	sd	a2,1928(a3) # 1788 <.LBB46_5+0x6c>
    1c90:	02b50533          	mul	a0,a0,a1
    1c94:	00058d13          	mv	s10,a1
    1c98:	000015b7          	lui	a1,0x1
    1c9c:	40b405b3          	sub	a1,s0,a1
    1ca0:	7905b603          	ld	a2,1936(a1) # 1790 <.LBB46_5+0x74>
    1ca4:	00c50633          	add	a2,a0,a2
    1ca8:	00001537          	lui	a0,0x1
    1cac:	40a40533          	sub	a0,s0,a0
    1cb0:	78c53823          	sd	a2,1936(a0) # 1790 <.LBB46_5+0x74>
    1cb4:	f7843503          	ld	a0,-136(s0)
    1cb8:	02aa0533          	mul	a0,s4,a0
    1cbc:	000015b7          	lui	a1,0x1
    1cc0:	40b405b3          	sub	a1,s0,a1
    1cc4:	7b05b603          	ld	a2,1968(a1) # 17b0 <.LBB46_5+0x94>
    1cc8:	00c50633          	add	a2,a0,a2
    1ccc:	00001537          	lui	a0,0x1
    1cd0:	40a40533          	sub	a0,s0,a0
    1cd4:	7ac53823          	sd	a2,1968(a0) # 17b0 <.LBB46_5+0x94>
    1cd8:	f0843383          	ld	t2,-248(s0)
    1cdc:	027a0533          	mul	a0,s4,t2
    1ce0:	000015b7          	lui	a1,0x1
    1ce4:	40b405b3          	sub	a1,s0,a1
    1ce8:	7a85b603          	ld	a2,1960(a1) # 17a8 <.LBB46_5+0x8c>
    1cec:	00c50633          	add	a2,a0,a2
    1cf0:	00001537          	lui	a0,0x1
    1cf4:	40a40533          	sub	a0,s0,a0
    1cf8:	7ac53423          	sd	a2,1960(a0) # 17a8 <.LBB46_5+0x8c>
    1cfc:	f1843283          	ld	t0,-232(s0)
    1d00:	025a0533          	mul	a0,s4,t0
    1d04:	000015b7          	lui	a1,0x1
    1d08:	40b405b3          	sub	a1,s0,a1
    1d0c:	7a05b603          	ld	a2,1952(a1) # 17a0 <.LBB46_5+0x84>
    1d10:	00c50633          	add	a2,a0,a2
    1d14:	00001537          	lui	a0,0x1
    1d18:	40a40533          	sub	a0,s0,a0
    1d1c:	7ac53023          	sd	a2,1952(a0) # 17a0 <.LBB46_5+0x84>
    1d20:	ea043903          	ld	s2,-352(s0)
    1d24:	032a0533          	mul	a0,s4,s2
    1d28:	000015b7          	lui	a1,0x1
    1d2c:	40b405b3          	sub	a1,s0,a1
    1d30:	7985b603          	ld	a2,1944(a1) # 1798 <.LBB46_5+0x7c>
    1d34:	00c50633          	add	a2,a0,a2
    1d38:	00001537          	lui	a0,0x1
    1d3c:	40a40533          	sub	a0,s0,a0
    1d40:	78c53c23          	sd	a2,1944(a0) # 1798 <.LBB46_5+0x7c>
    1d44:	f1043983          	ld	s3,-240(s0)
    1d48:	033a0533          	mul	a0,s4,s3
    1d4c:	000015b7          	lui	a1,0x1
    1d50:	40b405b3          	sub	a1,s0,a1
    1d54:	7b85b603          	ld	a2,1976(a1) # 17b8 <.LBB46_5+0x9c>
    1d58:	00c50633          	add	a2,a0,a2
    1d5c:	00001537          	lui	a0,0x1
    1d60:	40a40533          	sub	a0,s0,a0
    1d64:	7ac53c23          	sd	a2,1976(a0) # 17b8 <.LBB46_5+0x9c>
    1d68:	f7043a83          	ld	s5,-144(s0)
    1d6c:	035a0533          	mul	a0,s4,s5
    1d70:	000015b7          	lui	a1,0x1
    1d74:	40b405b3          	sub	a1,s0,a1
    1d78:	7c05b603          	ld	a2,1984(a1) # 17c0 <.LBB46_5+0xa4>
    1d7c:	00c50633          	add	a2,a0,a2
    1d80:	00001537          	lui	a0,0x1
    1d84:	40a40533          	sub	a0,s0,a0
    1d88:	7cc53023          	sd	a2,1984(a0) # 17c0 <.LBB46_5+0xa4>
    1d8c:	f6843b03          	ld	s6,-152(s0)
    1d90:	036a0533          	mul	a0,s4,s6
    1d94:	000015b7          	lui	a1,0x1
    1d98:	40b405b3          	sub	a1,s0,a1
    1d9c:	7c85b603          	ld	a2,1992(a1) # 17c8 <.LBB46_5+0xac>
    1da0:	00c50633          	add	a2,a0,a2
    1da4:	00001537          	lui	a0,0x1
    1da8:	40a40533          	sub	a0,s0,a0
    1dac:	7cc53423          	sd	a2,1992(a0) # 17c8 <.LBB46_5+0xac>
    1db0:	f6043683          	ld	a3,-160(s0)
    1db4:	02da0533          	mul	a0,s4,a3
    1db8:	000015b7          	lui	a1,0x1
    1dbc:	40b405b3          	sub	a1,s0,a1
    1dc0:	7d05b603          	ld	a2,2000(a1) # 17d0 <.LBB46_5+0xb4>
    1dc4:	00c50633          	add	a2,a0,a2
    1dc8:	00001537          	lui	a0,0x1
    1dcc:	40a40533          	sub	a0,s0,a0
    1dd0:	7cc53823          	sd	a2,2000(a0) # 17d0 <.LBB46_5+0xb4>
    1dd4:	00001537          	lui	a0,0x1
    1dd8:	40a40533          	sub	a0,s0,a0
    1ddc:	68853d83          	ld	s11,1672(a0) # 1688 <.LBB46_4+0x500>
    1de0:	03ba0533          	mul	a0,s4,s11
    1de4:	000015b7          	lui	a1,0x1
    1de8:	40b405b3          	sub	a1,s0,a1
    1dec:	7d85b603          	ld	a2,2008(a1) # 17d8 <.LBB46_5+0xbc>
    1df0:	00c50633          	add	a2,a0,a2
    1df4:	00001537          	lui	a0,0x1
    1df8:	40a40533          	sub	a0,s0,a0
    1dfc:	7cc53c23          	sd	a2,2008(a0) # 17d8 <.LBB46_5+0xbc>
    1e00:	e6843c03          	ld	s8,-408(s0)
    1e04:	038a0533          	mul	a0,s4,s8
    1e08:	000015b7          	lui	a1,0x1
    1e0c:	40b405b3          	sub	a1,s0,a1
    1e10:	7e05b603          	ld	a2,2016(a1) # 17e0 <.LBB46_5+0xc4>
    1e14:	00c50633          	add	a2,a0,a2
    1e18:	00001537          	lui	a0,0x1
    1e1c:	40a40533          	sub	a0,s0,a0
    1e20:	7ec53023          	sd	a2,2016(a0) # 17e0 <.LBB46_5+0xc4>
    1e24:	e7043b83          	ld	s7,-400(s0)
    1e28:	037a0533          	mul	a0,s4,s7
    1e2c:	000015b7          	lui	a1,0x1
    1e30:	40b405b3          	sub	a1,s0,a1
    1e34:	7e85b603          	ld	a2,2024(a1) # 17e8 <.LBB46_5+0xcc>
    1e38:	00c50633          	add	a2,a0,a2
    1e3c:	00001537          	lui	a0,0x1
    1e40:	40a40533          	sub	a0,s0,a0
    1e44:	7ec53423          	sd	a2,2024(a0) # 17e8 <.LBB46_5+0xcc>
    1e48:	e9143023          	sd	a7,-384(s0)
    1e4c:	031a0533          	mul	a0,s4,a7
    1e50:	000015b7          	lui	a1,0x1
    1e54:	40b405b3          	sub	a1,s0,a1
    1e58:	7f05b603          	ld	a2,2032(a1) # 17f0 <.LBB46_5+0xd4>
    1e5c:	00c50633          	add	a2,a0,a2
    1e60:	00001537          	lui	a0,0x1
    1e64:	40a40533          	sub	a0,s0,a0
    1e68:	7ec53823          	sd	a2,2032(a0) # 17f0 <.LBB46_5+0xd4>
    1e6c:	f4043503          	ld	a0,-192(s0)
    1e70:	02aa0533          	mul	a0,s4,a0
    1e74:	000015b7          	lui	a1,0x1
    1e78:	40b405b3          	sub	a1,s0,a1
    1e7c:	7f85b603          	ld	a2,2040(a1) # 17f8 <.LBB46_5+0xdc>
    1e80:	00c50633          	add	a2,a0,a2
    1e84:	00001537          	lui	a0,0x1
    1e88:	40a40533          	sub	a0,s0,a0
    1e8c:	7ec53c23          	sd	a2,2040(a0) # 17f8 <.LBB46_5+0xdc>
    1e90:	f4843503          	ld	a0,-184(s0)
    1e94:	02aa0533          	mul	a0,s4,a0
    1e98:	80043603          	ld	a2,-2048(s0)
    1e9c:	00c50633          	add	a2,a0,a2
    1ea0:	80c43023          	sd	a2,-2048(s0)
    1ea4:	f5043503          	ld	a0,-176(s0)
    1ea8:	02aa0533          	mul	a0,s4,a0
    1eac:	80843603          	ld	a2,-2040(s0)
    1eb0:	00c50633          	add	a2,a0,a2
    1eb4:	80c43423          	sd	a2,-2040(s0)
    1eb8:	021a0533          	mul	a0,s4,ra
    1ebc:	e4143423          	sd	ra,-440(s0)
    1ec0:	81043603          	ld	a2,-2032(s0)
    1ec4:	00c50633          	add	a2,a0,a2
    1ec8:	80c43823          	sd	a2,-2032(s0)
    1ecc:	f5843503          	ld	a0,-168(s0)
    1ed0:	02aa0533          	mul	a0,s4,a0
    1ed4:	81843603          	ld	a2,-2024(s0)
    1ed8:	00c50633          	add	a2,a0,a2
    1edc:	80c43c23          	sd	a2,-2024(s0)
    1ee0:	03fa0533          	mul	a0,s4,t6
    1ee4:	82043603          	ld	a2,-2016(s0)
    1ee8:	00c50633          	add	a2,a0,a2
    1eec:	82c43023          	sd	a2,-2016(s0)
    1ef0:	02fa0533          	mul	a0,s4,a5
    1ef4:	82843603          	ld	a2,-2008(s0)
    1ef8:	00c50633          	add	a2,a0,a2
    1efc:	82c43423          	sd	a2,-2008(s0)
    1f00:	e9843f83          	ld	t6,-360(s0)
    1f04:	03fa0533          	mul	a0,s4,t6
    1f08:	83043603          	ld	a2,-2000(s0)
    1f0c:	00c50633          	add	a2,a0,a2
    1f10:	82c43823          	sd	a2,-2000(s0)
    1f14:	00048593          	mv	a1,s1
    1f18:	00001537          	lui	a0,0x1
    1f1c:	40a40533          	sub	a0,s0,a0
    1f20:	68953023          	sd	s1,1664(a0) # 1680 <.LBB46_4+0x4f8>
    1f24:	029a0533          	mul	a0,s4,s1
    1f28:	83843603          	ld	a2,-1992(s0)
    1f2c:	00c50633          	add	a2,a0,a2
    1f30:	82c43c23          	sd	a2,-1992(s0)
    1f34:	eb043503          	ld	a0,-336(s0)
    1f38:	02aa0533          	mul	a0,s4,a0
    1f3c:	84043603          	ld	a2,-1984(s0)
    1f40:	00c50633          	add	a2,a0,a2
    1f44:	84c43023          	sd	a2,-1984(s0)
    1f48:	f3843503          	ld	a0,-200(s0)
    1f4c:	02aa0533          	mul	a0,s4,a0
    1f50:	84843603          	ld	a2,-1976(s0)
    1f54:	00c50633          	add	a2,a0,a2
    1f58:	84c43423          	sd	a2,-1976(s0)
    1f5c:	03ca0533          	mul	a0,s4,t3
    1f60:	ebc43423          	sd	t3,-344(s0)
    1f64:	85043603          	ld	a2,-1968(s0)
    1f68:	00c50633          	add	a2,a0,a2
    1f6c:	84c43823          	sd	a2,-1968(s0)
    1f70:	f3043503          	ld	a0,-208(s0)
    1f74:	02aa0533          	mul	a0,s4,a0
    1f78:	85843603          	ld	a2,-1960(s0)
    1f7c:	00c50633          	add	a2,a0,a2
    1f80:	84c43c23          	sd	a2,-1960(s0)
    1f84:	030a0533          	mul	a0,s4,a6
    1f88:	86043603          	ld	a2,-1952(s0)
    1f8c:	00c50633          	add	a2,a0,a2
    1f90:	86c43023          	sd	a2,-1952(s0)
    1f94:	026a0533          	mul	a0,s4,t1
    1f98:	86843603          	ld	a2,-1944(s0)
    1f9c:	00c50633          	add	a2,a0,a2
    1fa0:	86c43423          	sd	a2,-1944(s0)
    1fa4:	e8843483          	ld	s1,-376(s0)
    1fa8:	029a0533          	mul	a0,s4,s1
    1fac:	87043603          	ld	a2,-1936(s0)
    1fb0:	00c50633          	add	a2,a0,a2
    1fb4:	86c43823          	sd	a2,-1936(s0)
    1fb8:	02ea0533          	mul	a0,s4,a4
    1fbc:	00070793          	mv	a5,a4
    1fc0:	00001637          	lui	a2,0x1
    1fc4:	40c40633          	sub	a2,s0,a2
    1fc8:	66e63c23          	sd	a4,1656(a2) # 1678 <.LBB46_4+0x4f0>
    1fcc:	87843603          	ld	a2,-1928(s0)
    1fd0:	00c50633          	add	a2,a0,a2
    1fd4:	86c43c23          	sd	a2,-1928(s0)
    1fd8:	03da0533          	mul	a0,s4,t4
    1fdc:	e7d43c23          	sd	t4,-392(s0)
    1fe0:	88043603          	ld	a2,-1920(s0)
    1fe4:	00c50633          	add	a2,a0,a2
    1fe8:	88c43023          	sd	a2,-1920(s0)
    1fec:	f8043503          	ld	a0,-128(s0)
    1ff0:	fc050503          	lb	a0,-64(a0)
    1ff4:	03ea0cb3          	mul	s9,s4,t5
    1ff8:	88843603          	ld	a2,-1912(s0)
    1ffc:	00cc8633          	add	a2,s9,a2
    2000:	88c43423          	sd	a2,-1912(s0)
    2004:	03aa0a33          	mul	s4,s4,s10
    2008:	89043603          	ld	a2,-1904(s0)
    200c:	00ca0633          	add	a2,s4,a2
    2010:	88c43823          	sd	a2,-1904(s0)
    2014:	f7843603          	ld	a2,-136(s0)
    2018:	02c50a33          	mul	s4,a0,a2
    201c:	8b043603          	ld	a2,-1872(s0)
    2020:	00ca0633          	add	a2,s4,a2
    2024:	8ac43823          	sd	a2,-1872(s0)
    2028:	02750a33          	mul	s4,a0,t2
    202c:	8a843603          	ld	a2,-1880(s0)
    2030:	00ca0633          	add	a2,s4,a2
    2034:	8ac43423          	sd	a2,-1880(s0)
    2038:	02550a33          	mul	s4,a0,t0
    203c:	8a043603          	ld	a2,-1888(s0)
    2040:	00ca0633          	add	a2,s4,a2
    2044:	8ac43023          	sd	a2,-1888(s0)
    2048:	03250a33          	mul	s4,a0,s2
    204c:	89843603          	ld	a2,-1896(s0)
    2050:	00ca0633          	add	a2,s4,a2
    2054:	88c43c23          	sd	a2,-1896(s0)
    2058:	03350a33          	mul	s4,a0,s3
    205c:	8b843603          	ld	a2,-1864(s0)
    2060:	00ca0633          	add	a2,s4,a2
    2064:	8ac43c23          	sd	a2,-1864(s0)
    2068:	03550a33          	mul	s4,a0,s5
    206c:	8c043603          	ld	a2,-1856(s0)
    2070:	00ca0633          	add	a2,s4,a2
    2074:	8cc43023          	sd	a2,-1856(s0)
    2078:	03650a33          	mul	s4,a0,s6
    207c:	8c843603          	ld	a2,-1848(s0)
    2080:	00ca0633          	add	a2,s4,a2
    2084:	8cc43423          	sd	a2,-1848(s0)
    2088:	02d50a33          	mul	s4,a0,a3
    208c:	8d043603          	ld	a2,-1840(s0)
    2090:	00ca0633          	add	a2,s4,a2
    2094:	8cc43823          	sd	a2,-1840(s0)
    2098:	03b50a33          	mul	s4,a0,s11
    209c:	8d843603          	ld	a2,-1832(s0)
    20a0:	00ca0633          	add	a2,s4,a2
    20a4:	8cc43c23          	sd	a2,-1832(s0)
    20a8:	03850a33          	mul	s4,a0,s8
    20ac:	8e043603          	ld	a2,-1824(s0)
    20b0:	00ca0633          	add	a2,s4,a2
    20b4:	8ec43023          	sd	a2,-1824(s0)
    20b8:	03750a33          	mul	s4,a0,s7
    20bc:	000b8393          	mv	t2,s7
    20c0:	8e843603          	ld	a2,-1816(s0)
    20c4:	00ca0633          	add	a2,s4,a2
    20c8:	8ec43423          	sd	a2,-1816(s0)
    20cc:	03150a33          	mul	s4,a0,a7
    20d0:	8f043603          	ld	a2,-1808(s0)
    20d4:	00ca0633          	add	a2,s4,a2
    20d8:	8ec43823          	sd	a2,-1808(s0)
    20dc:	f4043b03          	ld	s6,-192(s0)
    20e0:	03650a33          	mul	s4,a0,s6
    20e4:	8f843603          	ld	a2,-1800(s0)
    20e8:	00ca0633          	add	a2,s4,a2
    20ec:	8ec43c23          	sd	a2,-1800(s0)
    20f0:	f4843a83          	ld	s5,-184(s0)
    20f4:	03550a33          	mul	s4,a0,s5
    20f8:	90043603          	ld	a2,-1792(s0)
    20fc:	00ca0633          	add	a2,s4,a2
    2100:	90c43023          	sd	a2,-1792(s0)
    2104:	f5043283          	ld	t0,-176(s0)
    2108:	02550a33          	mul	s4,a0,t0
    210c:	90843603          	ld	a2,-1784(s0)
    2110:	00ca0633          	add	a2,s4,a2
    2114:	90c43423          	sd	a2,-1784(s0)
    2118:	02150a33          	mul	s4,a0,ra
    211c:	91043603          	ld	a2,-1776(s0)
    2120:	00ca0633          	add	a2,s4,a2
    2124:	90c43823          	sd	a2,-1776(s0)
    2128:	f5843303          	ld	t1,-168(s0)
    212c:	02650a33          	mul	s4,a0,t1
    2130:	91843603          	ld	a2,-1768(s0)
    2134:	00ca0633          	add	a2,s4,a2
    2138:	90c43c23          	sd	a2,-1768(s0)
    213c:	e6043803          	ld	a6,-416(s0)
    2140:	03050a33          	mul	s4,a0,a6
    2144:	92043603          	ld	a2,-1760(s0)
    2148:	00ca0633          	add	a2,s4,a2
    214c:	92c43023          	sd	a2,-1760(s0)
    2150:	f2843603          	ld	a2,-216(s0)
    2154:	02c50a33          	mul	s4,a0,a2
    2158:	92843603          	ld	a2,-1752(s0)
    215c:	00ca0633          	add	a2,s4,a2
    2160:	92c43423          	sd	a2,-1752(s0)
    2164:	000f8f13          	mv	t5,t6
    2168:	03f50a33          	mul	s4,a0,t6
    216c:	93043603          	ld	a2,-1744(s0)
    2170:	00ca0633          	add	a2,s4,a2
    2174:	92c43823          	sd	a2,-1744(s0)
    2178:	02b50a33          	mul	s4,a0,a1
    217c:	93843603          	ld	a2,-1736(s0)
    2180:	00ca0633          	add	a2,s4,a2
    2184:	92c43c23          	sd	a2,-1736(s0)
    2188:	eb043883          	ld	a7,-336(s0)
    218c:	03150a33          	mul	s4,a0,a7
    2190:	94043603          	ld	a2,-1728(s0)
    2194:	00ca0633          	add	a2,s4,a2
    2198:	94c43023          	sd	a2,-1728(s0)
    219c:	f3843983          	ld	s3,-200(s0)
    21a0:	03350a33          	mul	s4,a0,s3
    21a4:	94843603          	ld	a2,-1720(s0)
    21a8:	00ca0633          	add	a2,s4,a2
    21ac:	94c43423          	sd	a2,-1720(s0)
    21b0:	03c50a33          	mul	s4,a0,t3
    21b4:	95043603          	ld	a2,-1712(s0)
    21b8:	00ca0633          	add	a2,s4,a2
    21bc:	94c43823          	sd	a2,-1712(s0)
    21c0:	f3043e03          	ld	t3,-208(s0)
    21c4:	03c50a33          	mul	s4,a0,t3
    21c8:	95843603          	ld	a2,-1704(s0)
    21cc:	00ca0633          	add	a2,s4,a2
    21d0:	94c43c23          	sd	a2,-1704(s0)
    21d4:	e5043583          	ld	a1,-432(s0)
    21d8:	02b50a33          	mul	s4,a0,a1
    21dc:	96043603          	ld	a2,-1696(s0)
    21e0:	00ca0633          	add	a2,s4,a2
    21e4:	96c43023          	sd	a2,-1696(s0)
    21e8:	e9043703          	ld	a4,-368(s0)
    21ec:	02e50a33          	mul	s4,a0,a4
    21f0:	96843603          	ld	a2,-1688(s0)
    21f4:	00ca0633          	add	a2,s4,a2
    21f8:	96c43423          	sd	a2,-1688(s0)
    21fc:	02950a33          	mul	s4,a0,s1
    2200:	97043603          	ld	a2,-1680(s0)
    2204:	00ca0633          	add	a2,s4,a2
    2208:	96c43823          	sd	a2,-1680(s0)
    220c:	02f50a33          	mul	s4,a0,a5
    2210:	97843603          	ld	a2,-1672(s0)
    2214:	00ca0633          	add	a2,s4,a2
    2218:	96c43c23          	sd	a2,-1672(s0)
    221c:	03d50a33          	mul	s4,a0,t4
    2220:	98043603          	ld	a2,-1664(s0)
    2224:	00ca0633          	add	a2,s4,a2
    2228:	98c43023          	sd	a2,-1664(s0)
    222c:	f8043603          	ld	a2,-128(s0)
    2230:	fe060a03          	lb	s4,-32(a2)
    2234:	f2043b83          	ld	s7,-224(s0)
    2238:	03750cb3          	mul	s9,a0,s7
    223c:	98843603          	ld	a2,-1656(s0)
    2240:	00cc8633          	add	a2,s9,a2
    2244:	98c43423          	sd	a2,-1656(s0)
    2248:	03a50533          	mul	a0,a0,s10
    224c:	e5a43c23          	sd	s10,-424(s0)
    2250:	99043603          	ld	a2,-1648(s0)
    2254:	00c50633          	add	a2,a0,a2
    2258:	98c43823          	sd	a2,-1648(s0)
    225c:	f7843e83          	ld	t4,-136(s0)
    2260:	03da0533          	mul	a0,s4,t4
    2264:	9b043603          	ld	a2,-1616(s0)
    2268:	00c50633          	add	a2,a0,a2
    226c:	9ac43823          	sd	a2,-1616(s0)
    2270:	f0843683          	ld	a3,-248(s0)
    2274:	02da0533          	mul	a0,s4,a3
    2278:	9a843603          	ld	a2,-1624(s0)
    227c:	00c50633          	add	a2,a0,a2
    2280:	9ac43423          	sd	a2,-1624(s0)
    2284:	f1843f83          	ld	t6,-232(s0)
    2288:	03fa0533          	mul	a0,s4,t6
    228c:	9a043603          	ld	a2,-1632(s0)
    2290:	00c50633          	add	a2,a0,a2
    2294:	9ac43023          	sd	a2,-1632(s0)
    2298:	00090793          	mv	a5,s2
    229c:	032a0533          	mul	a0,s4,s2
    22a0:	99843603          	ld	a2,-1640(s0)
    22a4:	00c50633          	add	a2,a0,a2
    22a8:	98c43c23          	sd	a2,-1640(s0)
    22ac:	f1043483          	ld	s1,-240(s0)
    22b0:	029a0533          	mul	a0,s4,s1
    22b4:	9b843603          	ld	a2,-1608(s0)
    22b8:	00c50633          	add	a2,a0,a2
    22bc:	9ac43c23          	sd	a2,-1608(s0)
    22c0:	f7043903          	ld	s2,-144(s0)
    22c4:	032a0533          	mul	a0,s4,s2
    22c8:	9c043603          	ld	a2,-1600(s0)
    22cc:	00c50633          	add	a2,a0,a2
    22d0:	9cc43023          	sd	a2,-1600(s0)
    22d4:	f6843583          	ld	a1,-152(s0)
    22d8:	02ba0533          	mul	a0,s4,a1
    22dc:	9c843603          	ld	a2,-1592(s0)
    22e0:	00c50633          	add	a2,a0,a2
    22e4:	9cc43423          	sd	a2,-1592(s0)
    22e8:	f6043083          	ld	ra,-160(s0)
    22ec:	021a0533          	mul	a0,s4,ra
    22f0:	9d043603          	ld	a2,-1584(s0)
    22f4:	00c50633          	add	a2,a0,a2
    22f8:	9cc43823          	sd	a2,-1584(s0)
    22fc:	03ba0533          	mul	a0,s4,s11
    2300:	9d843603          	ld	a2,-1576(s0)
    2304:	00c50633          	add	a2,a0,a2
    2308:	9cc43c23          	sd	a2,-1576(s0)
    230c:	038a0533          	mul	a0,s4,s8
    2310:	9e043603          	ld	a2,-1568(s0)
    2314:	00c50633          	add	a2,a0,a2
    2318:	9ec43023          	sd	a2,-1568(s0)
    231c:	027a0533          	mul	a0,s4,t2
    2320:	9e843603          	ld	a2,-1560(s0)
    2324:	00c50633          	add	a2,a0,a2
    2328:	9ec43423          	sd	a2,-1560(s0)
    232c:	e8043503          	ld	a0,-384(s0)
    2330:	02aa0533          	mul	a0,s4,a0
    2334:	9f043603          	ld	a2,-1552(s0)
    2338:	00c50633          	add	a2,a0,a2
    233c:	9ec43823          	sd	a2,-1552(s0)
    2340:	036a0533          	mul	a0,s4,s6
    2344:	9f843603          	ld	a2,-1544(s0)
    2348:	00c50633          	add	a2,a0,a2
    234c:	9ec43c23          	sd	a2,-1544(s0)
    2350:	035a0533          	mul	a0,s4,s5
    2354:	a0043603          	ld	a2,-1536(s0)
    2358:	00c50633          	add	a2,a0,a2
    235c:	a0c43023          	sd	a2,-1536(s0)
    2360:	025a0533          	mul	a0,s4,t0
    2364:	00028a93          	mv	s5,t0
    2368:	a0843603          	ld	a2,-1528(s0)
    236c:	00c50633          	add	a2,a0,a2
    2370:	a0c43423          	sd	a2,-1528(s0)
    2374:	e4843383          	ld	t2,-440(s0)
    2378:	027a0533          	mul	a0,s4,t2
    237c:	a1043603          	ld	a2,-1520(s0)
    2380:	00c50633          	add	a2,a0,a2
    2384:	a0c43823          	sd	a2,-1520(s0)
    2388:	026a0533          	mul	a0,s4,t1
    238c:	a1843603          	ld	a2,-1512(s0)
    2390:	00c50633          	add	a2,a0,a2
    2394:	a0c43c23          	sd	a2,-1512(s0)
    2398:	030a0533          	mul	a0,s4,a6
    239c:	a2043603          	ld	a2,-1504(s0)
    23a0:	00c50633          	add	a2,a0,a2
    23a4:	a2c43023          	sd	a2,-1504(s0)
    23a8:	f2843283          	ld	t0,-216(s0)
    23ac:	025a0533          	mul	a0,s4,t0
    23b0:	a2843603          	ld	a2,-1496(s0)
    23b4:	00c50633          	add	a2,a0,a2
    23b8:	a2c43423          	sd	a2,-1496(s0)
    23bc:	03ea0533          	mul	a0,s4,t5
    23c0:	a3043603          	ld	a2,-1488(s0)
    23c4:	00c50633          	add	a2,a0,a2
    23c8:	a2c43823          	sd	a2,-1488(s0)
    23cc:	00001537          	lui	a0,0x1
    23d0:	40a40533          	sub	a0,s0,a0
    23d4:	68053803          	ld	a6,1664(a0) # 1680 <.LBB46_4+0x4f8>
    23d8:	030a0533          	mul	a0,s4,a6
    23dc:	a3843603          	ld	a2,-1480(s0)
    23e0:	00c50633          	add	a2,a0,a2
    23e4:	a2c43c23          	sd	a2,-1480(s0)
    23e8:	031a0533          	mul	a0,s4,a7
    23ec:	00088f13          	mv	t5,a7
    23f0:	a4043603          	ld	a2,-1472(s0)
    23f4:	00c50633          	add	a2,a0,a2
    23f8:	a4c43023          	sd	a2,-1472(s0)
    23fc:	033a0533          	mul	a0,s4,s3
    2400:	a4843603          	ld	a2,-1464(s0)
    2404:	00c50633          	add	a2,a0,a2
    2408:	a4c43423          	sd	a2,-1464(s0)
    240c:	ea843503          	ld	a0,-344(s0)
    2410:	02aa0533          	mul	a0,s4,a0
    2414:	a5043603          	ld	a2,-1456(s0)
    2418:	00c50633          	add	a2,a0,a2
    241c:	a4c43823          	sd	a2,-1456(s0)
    2420:	03ca0533          	mul	a0,s4,t3
    2424:	a5843603          	ld	a2,-1448(s0)
    2428:	00c50633          	add	a2,a0,a2
    242c:	a4c43c23          	sd	a2,-1448(s0)
    2430:	e5043e03          	ld	t3,-432(s0)
    2434:	03ca0533          	mul	a0,s4,t3
    2438:	a6043603          	ld	a2,-1440(s0)
    243c:	00c50633          	add	a2,a0,a2
    2440:	a6c43023          	sd	a2,-1440(s0)
    2444:	02ea0533          	mul	a0,s4,a4
    2448:	a6843603          	ld	a2,-1432(s0)
    244c:	00c50633          	add	a2,a0,a2
    2450:	a6c43423          	sd	a2,-1432(s0)
    2454:	e8843703          	ld	a4,-376(s0)
    2458:	02ea0533          	mul	a0,s4,a4
    245c:	a7043603          	ld	a2,-1424(s0)
    2460:	00c50633          	add	a2,a0,a2
    2464:	a6c43823          	sd	a2,-1424(s0)
    2468:	00001537          	lui	a0,0x1
    246c:	40a40533          	sub	a0,s0,a0
    2470:	67853b03          	ld	s6,1656(a0) # 1678 <.LBB46_4+0x4f0>
    2474:	036a0533          	mul	a0,s4,s6
    2478:	a7843603          	ld	a2,-1416(s0)
    247c:	00c50633          	add	a2,a0,a2
    2480:	a6c43c23          	sd	a2,-1416(s0)
    2484:	e7843503          	ld	a0,-392(s0)
    2488:	02aa0533          	mul	a0,s4,a0
    248c:	a8043603          	ld	a2,-1408(s0)
    2490:	00c50633          	add	a2,a0,a2
    2494:	a8c43023          	sd	a2,-1408(s0)
    2498:	f8043503          	ld	a0,-128(s0)
    249c:	00050503          	lb	a0,0(a0)
    24a0:	037a0cb3          	mul	s9,s4,s7
    24a4:	a8843603          	ld	a2,-1400(s0)
    24a8:	00cc8633          	add	a2,s9,a2
    24ac:	a8c43423          	sd	a2,-1400(s0)
    24b0:	03aa0a33          	mul	s4,s4,s10
    24b4:	a9043603          	ld	a2,-1392(s0)
    24b8:	00ca0633          	add	a2,s4,a2
    24bc:	a8c43823          	sd	a2,-1392(s0)
    24c0:	03d50a33          	mul	s4,a0,t4
    24c4:	000e8993          	mv	s3,t4
    24c8:	ab043603          	ld	a2,-1360(s0)
    24cc:	00ca0633          	add	a2,s4,a2
    24d0:	aac43823          	sd	a2,-1360(s0)
    24d4:	02d50a33          	mul	s4,a0,a3
    24d8:	aa843603          	ld	a2,-1368(s0)
    24dc:	00ca0633          	add	a2,s4,a2
    24e0:	aac43423          	sd	a2,-1368(s0)
    24e4:	03f50a33          	mul	s4,a0,t6
    24e8:	aa043603          	ld	a2,-1376(s0)
    24ec:	00ca0633          	add	a2,s4,a2
    24f0:	aac43023          	sd	a2,-1376(s0)
    24f4:	02f50a33          	mul	s4,a0,a5
    24f8:	a9843603          	ld	a2,-1384(s0)
    24fc:	00ca0633          	add	a2,s4,a2
    2500:	a8c43c23          	sd	a2,-1384(s0)
    2504:	02950a33          	mul	s4,a0,s1
    2508:	ab843603          	ld	a2,-1352(s0)
    250c:	00ca0633          	add	a2,s4,a2
    2510:	aac43c23          	sd	a2,-1352(s0)
    2514:	03250a33          	mul	s4,a0,s2
    2518:	ac043603          	ld	a2,-1344(s0)
    251c:	00ca0633          	add	a2,s4,a2
    2520:	acc43023          	sd	a2,-1344(s0)
    2524:	02b50a33          	mul	s4,a0,a1
    2528:	ac843603          	ld	a2,-1336(s0)
    252c:	00ca0633          	add	a2,s4,a2
    2530:	acc43423          	sd	a2,-1336(s0)
    2534:	02150a33          	mul	s4,a0,ra
    2538:	ad043603          	ld	a2,-1328(s0)
    253c:	00ca0633          	add	a2,s4,a2
    2540:	acc43823          	sd	a2,-1328(s0)
    2544:	03b50a33          	mul	s4,a0,s11
    2548:	ad843603          	ld	a2,-1320(s0)
    254c:	00ca0633          	add	a2,s4,a2
    2550:	acc43c23          	sd	a2,-1320(s0)
    2554:	03850a33          	mul	s4,a0,s8
    2558:	ae043603          	ld	a2,-1312(s0)
    255c:	00ca0633          	add	a2,s4,a2
    2560:	aec43023          	sd	a2,-1312(s0)
    2564:	e7043b83          	ld	s7,-400(s0)
    2568:	03750a33          	mul	s4,a0,s7
    256c:	ae843603          	ld	a2,-1304(s0)
    2570:	00ca0633          	add	a2,s4,a2
    2574:	aec43423          	sd	a2,-1304(s0)
    2578:	e8043783          	ld	a5,-384(s0)
    257c:	02f50a33          	mul	s4,a0,a5
    2580:	af043603          	ld	a2,-1296(s0)
    2584:	00ca0633          	add	a2,s4,a2
    2588:	aec43823          	sd	a2,-1296(s0)
    258c:	f4043683          	ld	a3,-192(s0)
    2590:	02d50a33          	mul	s4,a0,a3
    2594:	af843603          	ld	a2,-1288(s0)
    2598:	00ca0633          	add	a2,s4,a2
    259c:	aec43c23          	sd	a2,-1288(s0)
    25a0:	f4843303          	ld	t1,-184(s0)
    25a4:	02650a33          	mul	s4,a0,t1
    25a8:	b0043603          	ld	a2,-1280(s0)
    25ac:	00ca0633          	add	a2,s4,a2
    25b0:	b0c43023          	sd	a2,-1280(s0)
    25b4:	03550a33          	mul	s4,a0,s5
    25b8:	b0843603          	ld	a2,-1272(s0)
    25bc:	00ca0633          	add	a2,s4,a2
    25c0:	b0c43423          	sd	a2,-1272(s0)
    25c4:	02750a33          	mul	s4,a0,t2
    25c8:	b1043603          	ld	a2,-1264(s0)
    25cc:	00ca0633          	add	a2,s4,a2
    25d0:	b0c43823          	sd	a2,-1264(s0)
    25d4:	f5843583          	ld	a1,-168(s0)
    25d8:	02b50a33          	mul	s4,a0,a1
    25dc:	b1843603          	ld	a2,-1256(s0)
    25e0:	00ca0633          	add	a2,s4,a2
    25e4:	b0c43c23          	sd	a2,-1256(s0)
    25e8:	e6043883          	ld	a7,-416(s0)
    25ec:	03150a33          	mul	s4,a0,a7
    25f0:	b2043603          	ld	a2,-1248(s0)
    25f4:	00ca0633          	add	a2,s4,a2
    25f8:	b2c43023          	sd	a2,-1248(s0)
    25fc:	02550a33          	mul	s4,a0,t0
    2600:	b2843603          	ld	a2,-1240(s0)
    2604:	00ca0633          	add	a2,s4,a2
    2608:	b2c43423          	sd	a2,-1240(s0)
    260c:	e9843383          	ld	t2,-360(s0)
    2610:	02750a33          	mul	s4,a0,t2
    2614:	b3043603          	ld	a2,-1232(s0)
    2618:	00ca0633          	add	a2,s4,a2
    261c:	b2c43823          	sd	a2,-1232(s0)
    2620:	03050a33          	mul	s4,a0,a6
    2624:	00080d13          	mv	s10,a6
    2628:	b3843603          	ld	a2,-1224(s0)
    262c:	00ca0633          	add	a2,s4,a2
    2630:	b2c43c23          	sd	a2,-1224(s0)
    2634:	03e50a33          	mul	s4,a0,t5
    2638:	b4043603          	ld	a2,-1216(s0)
    263c:	00ca0633          	add	a2,s4,a2
    2640:	b4c43023          	sd	a2,-1216(s0)
    2644:	f3843f83          	ld	t6,-200(s0)
    2648:	03f50a33          	mul	s4,a0,t6
    264c:	b4843603          	ld	a2,-1208(s0)
    2650:	00ca0633          	add	a2,s4,a2
    2654:	b4c43423          	sd	a2,-1208(s0)
    2658:	ea843483          	ld	s1,-344(s0)
    265c:	02950a33          	mul	s4,a0,s1
    2660:	b5043603          	ld	a2,-1200(s0)
    2664:	00ca0633          	add	a2,s4,a2
    2668:	b4c43823          	sd	a2,-1200(s0)
    266c:	f3043903          	ld	s2,-208(s0)
    2670:	03250a33          	mul	s4,a0,s2
    2674:	b5843603          	ld	a2,-1192(s0)
    2678:	00ca0633          	add	a2,s4,a2
    267c:	b4c43c23          	sd	a2,-1192(s0)
    2680:	000e0813          	mv	a6,t3
    2684:	03c50a33          	mul	s4,a0,t3
    2688:	b6043603          	ld	a2,-1184(s0)
    268c:	00ca0633          	add	a2,s4,a2
    2690:	b6c43023          	sd	a2,-1184(s0)
    2694:	e9043e03          	ld	t3,-368(s0)
    2698:	03c50a33          	mul	s4,a0,t3
    269c:	b6843603          	ld	a2,-1176(s0)
    26a0:	00ca0633          	add	a2,s4,a2
    26a4:	b6c43423          	sd	a2,-1176(s0)
    26a8:	02e50a33          	mul	s4,a0,a4
    26ac:	b7043603          	ld	a2,-1168(s0)
    26b0:	00ca0633          	add	a2,s4,a2
    26b4:	b6c43823          	sd	a2,-1168(s0)
    26b8:	000b0a93          	mv	s5,s6
    26bc:	03650a33          	mul	s4,a0,s6
    26c0:	b7843603          	ld	a2,-1160(s0)
    26c4:	00ca0633          	add	a2,s4,a2
    26c8:	b6c43c23          	sd	a2,-1160(s0)
    26cc:	e7843e83          	ld	t4,-392(s0)
    26d0:	03d50a33          	mul	s4,a0,t4
    26d4:	b8043603          	ld	a2,-1152(s0)
    26d8:	00ca0633          	add	a2,s4,a2
    26dc:	b8c43023          	sd	a2,-1152(s0)
    26e0:	f8043603          	ld	a2,-128(s0)
    26e4:	02060a03          	lb	s4,32(a2)
    26e8:	f2043603          	ld	a2,-224(s0)
    26ec:	02c50cb3          	mul	s9,a0,a2
    26f0:	b8843603          	ld	a2,-1144(s0)
    26f4:	00cc8633          	add	a2,s9,a2
    26f8:	b8c43423          	sd	a2,-1144(s0)
    26fc:	e5843083          	ld	ra,-424(s0)
    2700:	02150533          	mul	a0,a0,ra
    2704:	b9043603          	ld	a2,-1136(s0)
    2708:	00c50633          	add	a2,a0,a2
    270c:	b8c43823          	sd	a2,-1136(s0)
    2710:	033a0533          	mul	a0,s4,s3
    2714:	bb043603          	ld	a2,-1104(s0)
    2718:	00c50633          	add	a2,a0,a2
    271c:	bac43823          	sd	a2,-1104(s0)
    2720:	f0843703          	ld	a4,-248(s0)
    2724:	02ea0533          	mul	a0,s4,a4
    2728:	ba843603          	ld	a2,-1112(s0)
    272c:	00c50633          	add	a2,a0,a2
    2730:	bac43423          	sd	a2,-1112(s0)
    2734:	f1843f03          	ld	t5,-232(s0)
    2738:	03ea0533          	mul	a0,s4,t5
    273c:	ba043603          	ld	a2,-1120(s0)
    2740:	00c50633          	add	a2,a0,a2
    2744:	bac43023          	sd	a2,-1120(s0)
    2748:	ea043983          	ld	s3,-352(s0)
    274c:	033a0533          	mul	a0,s4,s3
    2750:	b9843603          	ld	a2,-1128(s0)
    2754:	00c50633          	add	a2,a0,a2
    2758:	b8c43c23          	sd	a2,-1128(s0)
    275c:	f1043b03          	ld	s6,-240(s0)
    2760:	036a0533          	mul	a0,s4,s6
    2764:	bb843603          	ld	a2,-1096(s0)
    2768:	00c50633          	add	a2,a0,a2
    276c:	bac43c23          	sd	a2,-1096(s0)
    2770:	f7043503          	ld	a0,-144(s0)
    2774:	02aa0533          	mul	a0,s4,a0
    2778:	bc043603          	ld	a2,-1088(s0)
    277c:	00c50633          	add	a2,a0,a2
    2780:	bcc43023          	sd	a2,-1088(s0)
    2784:	f6843503          	ld	a0,-152(s0)
    2788:	02aa0533          	mul	a0,s4,a0
    278c:	bc843603          	ld	a2,-1080(s0)
    2790:	00c50633          	add	a2,a0,a2
    2794:	bcc43423          	sd	a2,-1080(s0)
    2798:	f6043503          	ld	a0,-160(s0)
    279c:	02aa0533          	mul	a0,s4,a0
    27a0:	bd043603          	ld	a2,-1072(s0)
    27a4:	00c50633          	add	a2,a0,a2
    27a8:	bcc43823          	sd	a2,-1072(s0)
    27ac:	03ba0533          	mul	a0,s4,s11
    27b0:	bd843603          	ld	a2,-1064(s0)
    27b4:	00c50633          	add	a2,a0,a2
    27b8:	bcc43c23          	sd	a2,-1064(s0)
    27bc:	038a0533          	mul	a0,s4,s8
    27c0:	be043603          	ld	a2,-1056(s0)
    27c4:	00c50633          	add	a2,a0,a2
    27c8:	bec43023          	sd	a2,-1056(s0)
    27cc:	037a0533          	mul	a0,s4,s7
    27d0:	be843603          	ld	a2,-1048(s0)
    27d4:	00c50633          	add	a2,a0,a2
    27d8:	bec43423          	sd	a2,-1048(s0)
    27dc:	02fa0533          	mul	a0,s4,a5
    27e0:	bf043603          	ld	a2,-1040(s0)
    27e4:	00c50633          	add	a2,a0,a2
    27e8:	bec43823          	sd	a2,-1040(s0)
    27ec:	02da0533          	mul	a0,s4,a3
    27f0:	bf843603          	ld	a2,-1032(s0)
    27f4:	00c50633          	add	a2,a0,a2
    27f8:	bec43c23          	sd	a2,-1032(s0)
    27fc:	026a0533          	mul	a0,s4,t1
    2800:	c0043603          	ld	a2,-1024(s0)
    2804:	00c50633          	add	a2,a0,a2
    2808:	c0c43023          	sd	a2,-1024(s0)
    280c:	f5043303          	ld	t1,-176(s0)
    2810:	026a0533          	mul	a0,s4,t1
    2814:	c0843603          	ld	a2,-1016(s0)
    2818:	00c50633          	add	a2,a0,a2
    281c:	c0c43423          	sd	a2,-1016(s0)
    2820:	e4843c03          	ld	s8,-440(s0)
    2824:	038a0533          	mul	a0,s4,s8
    2828:	c1043603          	ld	a2,-1008(s0)
    282c:	00c50633          	add	a2,a0,a2
    2830:	c0c43823          	sd	a2,-1008(s0)
    2834:	02ba0533          	mul	a0,s4,a1
    2838:	c1843603          	ld	a2,-1000(s0)
    283c:	00c50633          	add	a2,a0,a2
    2840:	c0c43c23          	sd	a2,-1000(s0)
    2844:	031a0533          	mul	a0,s4,a7
    2848:	c2043603          	ld	a2,-992(s0)
    284c:	00c50633          	add	a2,a0,a2
    2850:	c2c43023          	sd	a2,-992(s0)
    2854:	025a0533          	mul	a0,s4,t0
    2858:	c2843603          	ld	a2,-984(s0)
    285c:	00c50633          	add	a2,a0,a2
    2860:	c2c43423          	sd	a2,-984(s0)
    2864:	027a0533          	mul	a0,s4,t2
    2868:	c3043603          	ld	a2,-976(s0)
    286c:	00c50633          	add	a2,a0,a2
    2870:	c2c43823          	sd	a2,-976(s0)
    2874:	000d0693          	mv	a3,s10
    2878:	03aa0533          	mul	a0,s4,s10
    287c:	c3843603          	ld	a2,-968(s0)
    2880:	00c50633          	add	a2,a0,a2
    2884:	c2c43c23          	sd	a2,-968(s0)
    2888:	eb043d03          	ld	s10,-336(s0)
    288c:	03aa0533          	mul	a0,s4,s10
    2890:	c4043603          	ld	a2,-960(s0)
    2894:	00c50633          	add	a2,a0,a2
    2898:	c4c43023          	sd	a2,-960(s0)
    289c:	03fa0533          	mul	a0,s4,t6
    28a0:	c4843603          	ld	a2,-952(s0)
    28a4:	00c50633          	add	a2,a0,a2
    28a8:	c4c43423          	sd	a2,-952(s0)
    28ac:	029a0533          	mul	a0,s4,s1
    28b0:	c5043603          	ld	a2,-944(s0)
    28b4:	00c50633          	add	a2,a0,a2
    28b8:	c4c43823          	sd	a2,-944(s0)
    28bc:	032a0533          	mul	a0,s4,s2
    28c0:	c5843603          	ld	a2,-936(s0)
    28c4:	00c50633          	add	a2,a0,a2
    28c8:	c4c43c23          	sd	a2,-936(s0)
    28cc:	030a0533          	mul	a0,s4,a6
    28d0:	c6043603          	ld	a2,-928(s0)
    28d4:	00c50633          	add	a2,a0,a2
    28d8:	c6c43023          	sd	a2,-928(s0)
    28dc:	03ca0533          	mul	a0,s4,t3
    28e0:	c6843603          	ld	a2,-920(s0)
    28e4:	00c50633          	add	a2,a0,a2
    28e8:	c6c43423          	sd	a2,-920(s0)
    28ec:	e8843e03          	ld	t3,-376(s0)
    28f0:	03ca0533          	mul	a0,s4,t3
    28f4:	c7043603          	ld	a2,-912(s0)
    28f8:	00c50633          	add	a2,a0,a2
    28fc:	c6c43823          	sd	a2,-912(s0)
    2900:	035a0533          	mul	a0,s4,s5
    2904:	c7843603          	ld	a2,-904(s0)
    2908:	00c50633          	add	a2,a0,a2
    290c:	c6c43c23          	sd	a2,-904(s0)
    2910:	03da0533          	mul	a0,s4,t4
    2914:	c8043603          	ld	a2,-896(s0)
    2918:	00c50633          	add	a2,a0,a2
    291c:	c8c43023          	sd	a2,-896(s0)
    2920:	f8043503          	ld	a0,-128(s0)
    2924:	04050503          	lb	a0,64(a0)
    2928:	f2043583          	ld	a1,-224(s0)
    292c:	02ba0cb3          	mul	s9,s4,a1
    2930:	c8843603          	ld	a2,-888(s0)
    2934:	00cc8633          	add	a2,s9,a2
    2938:	c8c43423          	sd	a2,-888(s0)
    293c:	021a0a33          	mul	s4,s4,ra
    2940:	c9043603          	ld	a2,-880(s0)
    2944:	00ca0633          	add	a2,s4,a2
    2948:	c8c43823          	sd	a2,-880(s0)
    294c:	f7843583          	ld	a1,-136(s0)
    2950:	02b50a33          	mul	s4,a0,a1
    2954:	cb043603          	ld	a2,-848(s0)
    2958:	00ca0633          	add	a2,s4,a2
    295c:	cac43823          	sd	a2,-848(s0)
    2960:	02e50a33          	mul	s4,a0,a4
    2964:	ca843603          	ld	a2,-856(s0)
    2968:	00ca0633          	add	a2,s4,a2
    296c:	cac43423          	sd	a2,-856(s0)
    2970:	03e50a33          	mul	s4,a0,t5
    2974:	ca043603          	ld	a2,-864(s0)
    2978:	00ca0633          	add	a2,s4,a2
    297c:	cac43023          	sd	a2,-864(s0)
    2980:	03350a33          	mul	s4,a0,s3
    2984:	c9843603          	ld	a2,-872(s0)
    2988:	00ca0633          	add	a2,s4,a2
    298c:	c8c43c23          	sd	a2,-872(s0)
    2990:	03650a33          	mul	s4,a0,s6
    2994:	cb843603          	ld	a2,-840(s0)
    2998:	00ca0633          	add	a2,s4,a2
    299c:	cac43c23          	sd	a2,-840(s0)
    29a0:	f7043583          	ld	a1,-144(s0)
    29a4:	02b50a33          	mul	s4,a0,a1
    29a8:	cc043603          	ld	a2,-832(s0)
    29ac:	00ca0633          	add	a2,s4,a2
    29b0:	ccc43023          	sd	a2,-832(s0)
    29b4:	f6843583          	ld	a1,-152(s0)
    29b8:	02b50a33          	mul	s4,a0,a1
    29bc:	cc843603          	ld	a2,-824(s0)
    29c0:	00ca0633          	add	a2,s4,a2
    29c4:	ccc43423          	sd	a2,-824(s0)
    29c8:	f6043583          	ld	a1,-160(s0)
    29cc:	02b50a33          	mul	s4,a0,a1
    29d0:	cd043603          	ld	a2,-816(s0)
    29d4:	00ca0633          	add	a2,s4,a2
    29d8:	ccc43823          	sd	a2,-816(s0)
    29dc:	000d8093          	mv	ra,s11
    29e0:	03b50a33          	mul	s4,a0,s11
    29e4:	cd843603          	ld	a2,-808(s0)
    29e8:	00ca0633          	add	a2,s4,a2
    29ec:	ccc43c23          	sd	a2,-808(s0)
    29f0:	e6843d83          	ld	s11,-408(s0)
    29f4:	03b50a33          	mul	s4,a0,s11
    29f8:	ce043603          	ld	a2,-800(s0)
    29fc:	00ca0633          	add	a2,s4,a2
    2a00:	cec43023          	sd	a2,-800(s0)
    2a04:	03750a33          	mul	s4,a0,s7
    2a08:	ce843603          	ld	a2,-792(s0)
    2a0c:	00ca0633          	add	a2,s4,a2
    2a10:	cec43423          	sd	a2,-792(s0)
    2a14:	00078913          	mv	s2,a5
    2a18:	02f50a33          	mul	s4,a0,a5
    2a1c:	cf043603          	ld	a2,-784(s0)
    2a20:	00ca0633          	add	a2,s4,a2
    2a24:	cec43823          	sd	a2,-784(s0)
    2a28:	f4043483          	ld	s1,-192(s0)
    2a2c:	02950a33          	mul	s4,a0,s1
    2a30:	cf843603          	ld	a2,-776(s0)
    2a34:	00ca0633          	add	a2,s4,a2
    2a38:	cec43c23          	sd	a2,-776(s0)
    2a3c:	f4843f83          	ld	t6,-184(s0)
    2a40:	03f50a33          	mul	s4,a0,t6
    2a44:	d0043603          	ld	a2,-768(s0)
    2a48:	00ca0633          	add	a2,s4,a2
    2a4c:	d0c43023          	sd	a2,-768(s0)
    2a50:	02650a33          	mul	s4,a0,t1
    2a54:	d0843603          	ld	a2,-760(s0)
    2a58:	00ca0633          	add	a2,s4,a2
    2a5c:	d0c43423          	sd	a2,-760(s0)
    2a60:	000c0393          	mv	t2,s8
    2a64:	03850a33          	mul	s4,a0,s8
    2a68:	d1043603          	ld	a2,-752(s0)
    2a6c:	00ca0633          	add	a2,s4,a2
    2a70:	d0c43823          	sd	a2,-752(s0)
    2a74:	f5843c03          	ld	s8,-168(s0)
    2a78:	03850a33          	mul	s4,a0,s8
    2a7c:	d1843603          	ld	a2,-744(s0)
    2a80:	00ca0633          	add	a2,s4,a2
    2a84:	d0c43c23          	sd	a2,-744(s0)
    2a88:	00088293          	mv	t0,a7
    2a8c:	03150a33          	mul	s4,a0,a7
    2a90:	d2043603          	ld	a2,-736(s0)
    2a94:	00ca0633          	add	a2,s4,a2
    2a98:	d2c43023          	sd	a2,-736(s0)
    2a9c:	f2843883          	ld	a7,-216(s0)
    2aa0:	03150a33          	mul	s4,a0,a7
    2aa4:	d2843603          	ld	a2,-728(s0)
    2aa8:	00ca0633          	add	a2,s4,a2
    2aac:	d2c43423          	sd	a2,-728(s0)
    2ab0:	e9843783          	ld	a5,-360(s0)
    2ab4:	02f50a33          	mul	s4,a0,a5
    2ab8:	d3043603          	ld	a2,-720(s0)
    2abc:	00ca0633          	add	a2,s4,a2
    2ac0:	d2c43823          	sd	a2,-720(s0)
    2ac4:	02d50a33          	mul	s4,a0,a3
    2ac8:	00068b13          	mv	s6,a3
    2acc:	d3843603          	ld	a2,-712(s0)
    2ad0:	00ca0633          	add	a2,s4,a2
    2ad4:	d2c43c23          	sd	a2,-712(s0)
    2ad8:	03a50a33          	mul	s4,a0,s10
    2adc:	d4043603          	ld	a2,-704(s0)
    2ae0:	00ca0633          	add	a2,s4,a2
    2ae4:	d4c43023          	sd	a2,-704(s0)
    2ae8:	f3843703          	ld	a4,-200(s0)
    2aec:	02e50a33          	mul	s4,a0,a4
    2af0:	d4843603          	ld	a2,-696(s0)
    2af4:	00ca0633          	add	a2,s4,a2
    2af8:	d4c43423          	sd	a2,-696(s0)
    2afc:	ea843683          	ld	a3,-344(s0)
    2b00:	02d50a33          	mul	s4,a0,a3
    2b04:	d5043603          	ld	a2,-688(s0)
    2b08:	00ca0633          	add	a2,s4,a2
    2b0c:	d4c43823          	sd	a2,-688(s0)
    2b10:	f3043583          	ld	a1,-208(s0)
    2b14:	02b50a33          	mul	s4,a0,a1
    2b18:	d5843603          	ld	a2,-680(s0)
    2b1c:	00ca0633          	add	a2,s4,a2
    2b20:	d4c43c23          	sd	a2,-680(s0)
    2b24:	03050a33          	mul	s4,a0,a6
    2b28:	d6043603          	ld	a2,-672(s0)
    2b2c:	00ca0633          	add	a2,s4,a2
    2b30:	d6c43023          	sd	a2,-672(s0)
    2b34:	e9043303          	ld	t1,-368(s0)
    2b38:	02650a33          	mul	s4,a0,t1
    2b3c:	d6843603          	ld	a2,-664(s0)
    2b40:	00ca0633          	add	a2,s4,a2
    2b44:	d6c43423          	sd	a2,-664(s0)
    2b48:	03c50a33          	mul	s4,a0,t3
    2b4c:	d7043603          	ld	a2,-656(s0)
    2b50:	00ca0633          	add	a2,s4,a2
    2b54:	d6c43823          	sd	a2,-656(s0)
    2b58:	03550a33          	mul	s4,a0,s5
    2b5c:	d7843603          	ld	a2,-648(s0)
    2b60:	00ca0633          	add	a2,s4,a2
    2b64:	d6c43c23          	sd	a2,-648(s0)
    2b68:	03d50a33          	mul	s4,a0,t4
    2b6c:	d8043603          	ld	a2,-640(s0)
    2b70:	00ca0633          	add	a2,s4,a2
    2b74:	d8c43023          	sd	a2,-640(s0)
    2b78:	f8043603          	ld	a2,-128(s0)
    2b7c:	06060a03          	lb	s4,96(a2)
    2b80:	f2043f03          	ld	t5,-224(s0)
    2b84:	03e50cb3          	mul	s9,a0,t5
    2b88:	d8843603          	ld	a2,-632(s0)
    2b8c:	00cc8633          	add	a2,s9,a2
    2b90:	d8c43423          	sd	a2,-632(s0)
    2b94:	e5843983          	ld	s3,-424(s0)
    2b98:	03350533          	mul	a0,a0,s3
    2b9c:	d9043603          	ld	a2,-624(s0)
    2ba0:	00c50633          	add	a2,a0,a2
    2ba4:	d8c43823          	sd	a2,-624(s0)
    2ba8:	033a0533          	mul	a0,s4,s3
    2bac:	e4a43c23          	sd	a0,-424(s0)
    2bb0:	03ea0533          	mul	a0,s4,t5
    2bb4:	00001637          	lui	a2,0x1
    2bb8:	40c40633          	sub	a2,s0,a2
    2bbc:	66a63823          	sd	a0,1648(a2) # 1670 <.LBB46_4+0x4e8>
    2bc0:	03da0533          	mul	a0,s4,t4
    2bc4:	e6a43c23          	sd	a0,-392(s0)
    2bc8:	035a0533          	mul	a0,s4,s5
    2bcc:	00001637          	lui	a2,0x1
    2bd0:	40c40633          	sub	a2,s0,a2
    2bd4:	66a63c23          	sd	a0,1656(a2) # 1678 <.LBB46_4+0x4f0>
    2bd8:	03ca0533          	mul	a0,s4,t3
    2bdc:	e8a43423          	sd	a0,-376(s0)
    2be0:	026a0533          	mul	a0,s4,t1
    2be4:	f2a43023          	sd	a0,-224(s0)
    2be8:	030a0533          	mul	a0,s4,a6
    2bec:	e8a43823          	sd	a0,-368(s0)
    2bf0:	02ba0533          	mul	a0,s4,a1
    2bf4:	f2a43823          	sd	a0,-208(s0)
    2bf8:	02da0533          	mul	a0,s4,a3
    2bfc:	eaa43423          	sd	a0,-344(s0)
    2c00:	02ea0533          	mul	a0,s4,a4
    2c04:	f2a43c23          	sd	a0,-200(s0)
    2c08:	03aa0533          	mul	a0,s4,s10
    2c0c:	eaa43823          	sd	a0,-336(s0)
    2c10:	036a0333          	mul	t1,s4,s6
    2c14:	02fa0833          	mul	a6,s4,a5
    2c18:	031a0eb3          	mul	t4,s4,a7
    2c1c:	025a0e33          	mul	t3,s4,t0
    2c20:	038a0f33          	mul	t5,s4,s8
    2c24:	027a08b3          	mul	a7,s4,t2
    2c28:	f5043503          	ld	a0,-176(s0)
    2c2c:	02aa09b3          	mul	s3,s4,a0
    2c30:	03fa0ab3          	mul	s5,s4,t6
    2c34:	029a0b33          	mul	s6,s4,s1
    2c38:	032a0cb3          	mul	s9,s4,s2
    2c3c:	037a0bb3          	mul	s7,s4,s7
    2c40:	03ba0c33          	mul	s8,s4,s11
    2c44:	021a0db3          	mul	s11,s4,ra
    2c48:	f6043503          	ld	a0,-160(s0)
    2c4c:	02aa00b3          	mul	ra,s4,a0
    2c50:	f6843503          	ld	a0,-152(s0)
    2c54:	02aa0733          	mul	a4,s4,a0
    2c58:	f7043503          	ld	a0,-144(s0)
    2c5c:	02aa0d33          	mul	s10,s4,a0
    2c60:	f1043503          	ld	a0,-240(s0)
    2c64:	02aa06b3          	mul	a3,s4,a0
    2c68:	ea043503          	ld	a0,-352(s0)
    2c6c:	02aa0633          	mul	a2,s4,a0
    2c70:	f1843503          	ld	a0,-232(s0)
    2c74:	02aa05b3          	mul	a1,s4,a0
    2c78:	f0843503          	ld	a0,-248(s0)
    2c7c:	02aa0533          	mul	a0,s4,a0
    2c80:	f7843783          	ld	a5,-136(s0)
    2c84:	02fa0a33          	mul	s4,s4,a5
    2c88:	db043783          	ld	a5,-592(s0)
    2c8c:	00fa07b3          	add	a5,s4,a5
    2c90:	daf43823          	sd	a5,-592(s0)
    2c94:	da843783          	ld	a5,-600(s0)
    2c98:	00f507b3          	add	a5,a0,a5
    2c9c:	daf43423          	sd	a5,-600(s0)
    2ca0:	da043503          	ld	a0,-608(s0)
    2ca4:	00a58533          	add	a0,a1,a0
    2ca8:	daa43023          	sd	a0,-608(s0)
    2cac:	d9843503          	ld	a0,-616(s0)
    2cb0:	00a60533          	add	a0,a2,a0
    2cb4:	d8a43c23          	sd	a0,-616(s0)
    2cb8:	db843503          	ld	a0,-584(s0)
    2cbc:	00a68533          	add	a0,a3,a0
    2cc0:	daa43c23          	sd	a0,-584(s0)
    2cc4:	dc043503          	ld	a0,-576(s0)
    2cc8:	00ad0533          	add	a0,s10,a0
    2ccc:	dca43023          	sd	a0,-576(s0)
    2cd0:	dc843503          	ld	a0,-568(s0)
    2cd4:	00a70533          	add	a0,a4,a0
    2cd8:	dca43423          	sd	a0,-568(s0)
    2cdc:	eb843503          	ld	a0,-328(s0)
    2ce0:	00a08533          	add	a0,ra,a0
    2ce4:	eaa43c23          	sd	a0,-328(s0)
    2ce8:	eb843083          	ld	ra,-328(s0)
    2cec:	ec043503          	ld	a0,-320(s0)
    2cf0:	00ad8533          	add	a0,s11,a0
    2cf4:	eca43023          	sd	a0,-320(s0)
    2cf8:	ec043d03          	ld	s10,-320(s0)
    2cfc:	ec843503          	ld	a0,-312(s0)
    2d00:	00ac0533          	add	a0,s8,a0
    2d04:	eca43423          	sd	a0,-312(s0)
    2d08:	ec843c03          	ld	s8,-312(s0)
    2d0c:	dd043503          	ld	a0,-560(s0)
    2d10:	00ab8533          	add	a0,s7,a0
    2d14:	dca43823          	sd	a0,-560(s0)
    2d18:	ed043503          	ld	a0,-304(s0)
    2d1c:	00ac8533          	add	a0,s9,a0
    2d20:	000015b7          	lui	a1,0x1
    2d24:	40b405b3          	sub	a1,s0,a1
    2d28:	6985bc83          	ld	s9,1688(a1) # 1698 <.LBB46_4+0x510>
    2d2c:	eca43823          	sd	a0,-304(s0)
    2d30:	ed043b83          	ld	s7,-304(s0)
    2d34:	ed843503          	ld	a0,-296(s0)
    2d38:	00ab0533          	add	a0,s6,a0
    2d3c:	dd843b03          	ld	s6,-552(s0)
    2d40:	eca43c23          	sd	a0,-296(s0)
    2d44:	ed843a03          	ld	s4,-296(s0)
    2d48:	ee043503          	ld	a0,-288(s0)
    2d4c:	00aa8533          	add	a0,s5,a0
    2d50:	eea43023          	sd	a0,-288(s0)
    2d54:	ee043703          	ld	a4,-288(s0)
    2d58:	ee843503          	ld	a0,-280(s0)
    2d5c:	00a98533          	add	a0,s3,a0
    2d60:	eea43423          	sd	a0,-280(s0)
    2d64:	ee843683          	ld	a3,-280(s0)
    2d68:	01688b33          	add	s6,a7,s6
    2d6c:	de043f83          	ld	t6,-544(s0)
    2d70:	01ff0fb3          	add	t6,t5,t6
    2d74:	de843f03          	ld	t5,-536(s0)
    2d78:	01ee0f33          	add	t5,t3,t5
    2d7c:	df043e03          	ld	t3,-528(s0)
    2d80:	ef043503          	ld	a0,-272(s0)
    2d84:	00ae8533          	add	a0,t4,a0
    2d88:	000015b7          	lui	a1,0x1
    2d8c:	40b405b3          	sub	a1,s0,a1
    2d90:	6905be83          	ld	t4,1680(a1) # 1690 <.LBB46_4+0x508>
    2d94:	eea43823          	sd	a0,-272(s0)
    2d98:	ef043603          	ld	a2,-272(s0)
    2d9c:	01c80e33          	add	t3,a6,t3
    2da0:	df843383          	ld	t2,-520(s0)
    2da4:	007303b3          	add	t2,t1,t2
    2da8:	e0043303          	ld	t1,-512(s0)
    2dac:	eb043503          	ld	a0,-336(s0)
    2db0:	00650333          	add	t1,a0,t1
    2db4:	e0843283          	ld	t0,-504(s0)
    2db8:	f3843503          	ld	a0,-200(s0)
    2dbc:	005502b3          	add	t0,a0,t0
    2dc0:	e1043883          	ld	a7,-496(s0)
    2dc4:	ef843503          	ld	a0,-264(s0)
    2dc8:	ea843583          	ld	a1,-344(s0)
    2dcc:	00a58533          	add	a0,a1,a0
    2dd0:	f8043483          	ld	s1,-128(s0)
    2dd4:	eea43c23          	sd	a0,-264(s0)
    2dd8:	ef843583          	ld	a1,-264(s0)
    2ddc:	f0043503          	ld	a0,-256(s0)
    2de0:	f3043783          	ld	a5,-208(s0)
    2de4:	00a78533          	add	a0,a5,a0
    2de8:	f8843903          	ld	s2,-120(s0)
    2dec:	f0a43023          	sd	a0,-256(s0)
    2df0:	f0043503          	ld	a0,-256(s0)
    2df4:	e9043783          	ld	a5,-368(s0)
    2df8:	011788b3          	add	a7,a5,a7
    2dfc:	e1843803          	ld	a6,-488(s0)
    2e00:	f2043783          	ld	a5,-224(s0)
    2e04:	01078833          	add	a6,a5,a6
    2e08:	e2043783          	ld	a5,-480(s0)
    2e0c:	e8843983          	ld	s3,-376(s0)
    2e10:	00f987b3          	add	a5,s3,a5
    2e14:	e2843a83          	ld	s5,-472(s0)
    2e18:	000019b7          	lui	s3,0x1
    2e1c:	413409b3          	sub	s3,s0,s3
    2e20:	6789b983          	ld	s3,1656(s3) # 1678 <.LBB46_4+0x4f0>
    2e24:	01598ab3          	add	s5,s3,s5
    2e28:	e3543423          	sd	s5,-472(s0)
    2e2c:	e3043a83          	ld	s5,-464(s0)
    2e30:	e7843983          	ld	s3,-392(s0)
    2e34:	01598ab3          	add	s5,s3,s5
    2e38:	e3543823          	sd	s5,-464(s0)
    2e3c:	e3843a83          	ld	s5,-456(s0)
    2e40:	000019b7          	lui	s3,0x1
    2e44:	413409b3          	sub	s3,s0,s3
    2e48:	6709b983          	ld	s3,1648(s3) # 1670 <.LBB46_4+0x4e8>
    2e4c:	01598ab3          	add	s5,s3,s5
    2e50:	e3543c23          	sd	s5,-456(s0)
    2e54:	e4043a83          	ld	s5,-448(s0)
    2e58:	e5843983          	ld	s3,-424(s0)
    2e5c:	01598ab3          	add	s5,s3,s5
    2e60:	e5543023          	sd	s5,-448(s0)
    2e64:	f40e8e93          	addi	t4,t4,-192
    2e68:	0c090913          	addi	s2,s2,192
    2e6c:	00148493          	addi	s1,s1,1
    2e70:	000e8463          	beqz	t4,2e78 <.LBB46_6>
    2e74:	8a9fe06f          	j	171c <.LBB46_5>

0000000000002e78 <.LBB46_6>:
    2e78:	00001537          	lui	a0,0x1
    2e7c:	40a40533          	sub	a0,s0,a0
    2e80:	6c853a83          	ld	s5,1736(a0) # 16c8 <.LBB46_4+0x540>
    2e84:	00001537          	lui	a0,0x1
    2e88:	40a40533          	sub	a0,s0,a0
    2e8c:	6d053d83          	ld	s11,1744(a0) # 16d0 <.LBB46_4+0x548>
    2e90:	00001537          	lui	a0,0x1
    2e94:	40a40533          	sub	a0,s0,a0
    2e98:	6d853d03          	ld	s10,1752(a0) # 16d8 <.LBB46_4+0x550>
    2e9c:	00001537          	lui	a0,0x1
    2ea0:	40a40533          	sub	a0,s0,a0
    2ea4:	6c053c83          	ld	s9,1728(a0) # 16c0 <.LBB46_4+0x538>
    2ea8:	00001537          	lui	a0,0x1
    2eac:	40a40533          	sub	a0,s0,a0
    2eb0:	6b853a03          	ld	s4,1720(a0) # 16b8 <.LBB46_4+0x530>
    2eb4:	00001537          	lui	a0,0x1
    2eb8:	40a40533          	sub	a0,s0,a0
    2ebc:	6b053983          	ld	s3,1712(a0) # 16b0 <.LBB46_4+0x528>
    2ec0:	00001537          	lui	a0,0x1
    2ec4:	40a40533          	sub	a0,s0,a0
    2ec8:	6a853903          	ld	s2,1704(a0) # 16a8 <.LBB46_4+0x520>
    2ecc:	00001537          	lui	a0,0x1
    2ed0:	40a40533          	sub	a0,s0,a0
    2ed4:	6a053483          	ld	s1,1696(a0) # 16a0 <.LBB46_4+0x518>
    2ed8:	dd643c23          	sd	s6,-552(s0)
    2edc:	00001537          	lui	a0,0x1
    2ee0:	40a40533          	sub	a0,s0,a0
    2ee4:	66853503          	ld	a0,1640(a0) # 1668 <.LBB46_4+0x4e0>
    2ee8:	00251513          	slli	a0,a0,0x2
    2eec:	000015b7          	lui	a1,0x1
    2ef0:	40b405b3          	sub	a1,s0,a1
    2ef4:	d285b583          	ld	a1,-728(a1) # d28 <.LBB46_3+0xaf4>
    2ef8:	00a585b3          	add	a1,a1,a0
    2efc:	00001637          	lui	a2,0x1
    2f00:	40c40633          	sub	a2,s0,a2
    2f04:	d2063603          	ld	a2,-736(a2) # d20 <.LBB46_3+0xaec>
    2f08:	00a60533          	add	a0,a2,a0
    2f0c:	00c52603          	lw	a2,12(a0)
    2f10:	00c5ae83          	lw	t4,12(a1)
    2f14:	000016b7          	lui	a3,0x1
    2f18:	40d406b3          	sub	a3,s0,a3
    2f1c:	6606b683          	ld	a3,1632(a3) # 1660 <.LBB46_4+0x4d8>
    2f20:	0006a703          	lw	a4,0(a3)
    2f24:	00261693          	slli	a3,a2,0x2
    2f28:	e9d43423          	sd	t4,-376(s0)
    2f2c:	00001637          	lui	a2,0x1
    2f30:	40c40633          	sub	a2,s0,a2
    2f34:	6e063603          	ld	a2,1760(a2) # 16e0 <.LBB46_4+0x558>
    2f38:	01d60633          	add	a2,a2,t4
    2f3c:	e8d43023          	sd	a3,-384(s0)
    2f40:	00d60633          	add	a2,a2,a3
    2f44:	00e60633          	add	a2,a2,a4
    2f48:	0806061b          	addiw	a2,a2,128
    2f4c:	400006b7          	lui	a3,0x40000
    2f50:	00001eb7          	lui	t4,0x1
    2f54:	41d40eb3          	sub	t4,s0,t4
    2f58:	feceb823          	sd	a2,-16(t4) # ff0 <.LBB46_3+0xdbc>
    2f5c:	00065463          	bgez	a2,2f64 <.LBB46_8>
    2f60:	c00006b7          	lui	a3,0xc0000

0000000000002f64 <.LBB46_8>:
    2f64:	00001637          	lui	a2,0x1
    2f68:	40c40633          	sub	a2,s0,a2
    2f6c:	fad63c23          	sd	a3,-72(a2) # fb8 <.LBB46_3+0xd84>
    2f70:	00852603          	lw	a2,8(a0)
    2f74:	0085a683          	lw	a3,8(a1)
    2f78:	00261e93          	slli	t4,a2,0x2
    2f7c:	e6d43c23          	sd	a3,-392(s0)
    2f80:	00da8633          	add	a2,s5,a3
    2f84:	e7d43823          	sd	t4,-400(s0)
    2f88:	01d60633          	add	a2,a2,t4
    2f8c:	00e60633          	add	a2,a2,a4
    2f90:	0806061b          	addiw	a2,a2,128
    2f94:	400006b7          	lui	a3,0x40000
    2f98:	00001eb7          	lui	t4,0x1
    2f9c:	41d40eb3          	sub	t4,s0,t4
    2fa0:	feceb423          	sd	a2,-24(t4) # fe8 <.LBB46_3+0xdb4>
    2fa4:	00048b93          	mv	s7,s1
    2fa8:	00090c13          	mv	s8,s2
    2fac:	00098b13          	mv	s6,s3
    2fb0:	000a0a93          	mv	s5,s4
    2fb4:	00065463          	bgez	a2,2fbc <.LBB46_10>
    2fb8:	c00006b7          	lui	a3,0xc0000

0000000000002fbc <.LBB46_10>:
    2fbc:	00452603          	lw	a2,4(a0)
    2fc0:	0045ae83          	lw	t4,4(a1)
    2fc4:	00261493          	slli	s1,a2,0x2
    2fc8:	e7d43423          	sd	t4,-408(s0)
    2fcc:	01dd8633          	add	a2,s11,t4
    2fd0:	e6943023          	sd	s1,-416(s0)
    2fd4:	00960633          	add	a2,a2,s1
    2fd8:	00e60633          	add	a2,a2,a4
    2fdc:	0806061b          	addiw	a2,a2,128
    2fe0:	40000eb7          	lui	t4,0x40000
    2fe4:	000014b7          	lui	s1,0x1
    2fe8:	409404b3          	sub	s1,s0,s1
    2fec:	fcc4bc23          	sd	a2,-40(s1) # fd8 <.LBB46_3+0xda4>
    2ff0:	00065463          	bgez	a2,2ff8 <.LBB46_12>
    2ff4:	c0000eb7          	lui	t4,0xc0000

0000000000002ff8 <.LBB46_12>:
    2ff8:	00052603          	lw	a2,0(a0)
    2ffc:	0005a483          	lw	s1,0(a1)
    3000:	00261913          	slli	s2,a2,0x2
    3004:	e4943c23          	sd	s1,-424(s0)
    3008:	009d0633          	add	a2,s10,s1
    300c:	e5243823          	sd	s2,-432(s0)
    3010:	01260633          	add	a2,a2,s2
    3014:	00e60633          	add	a2,a2,a4
    3018:	0806061b          	addiw	a2,a2,128
    301c:	400004b7          	lui	s1,0x40000
    3020:	00001937          	lui	s2,0x1
    3024:	41240933          	sub	s2,s0,s2
    3028:	fcc93023          	sd	a2,-64(s2) # fc0 <.LBB46_3+0xd8c>
    302c:	00065463          	bgez	a2,3034 <.LBB46_14>
    3030:	c00004b7          	lui	s1,0xc0000

0000000000003034 <.LBB46_14>:
    3034:	01052603          	lw	a2,16(a0)
    3038:	0105a903          	lw	s2,16(a1)
    303c:	00261993          	slli	s3,a2,0x2
    3040:	e5243423          	sd	s2,-440(s0)
    3044:	012c8633          	add	a2,s9,s2
    3048:	00001937          	lui	s2,0x1
    304c:	41240933          	sub	s2,s0,s2
    3050:	6f393023          	sd	s3,1760(s2) # 16e0 <.LBB46_4+0x558>
    3054:	01360633          	add	a2,a2,s3
    3058:	00e60633          	add	a2,a2,a4
    305c:	0806061b          	addiw	a2,a2,128
    3060:	40000937          	lui	s2,0x40000
    3064:	000019b7          	lui	s3,0x1
    3068:	413409b3          	sub	s3,s0,s3
    306c:	fac9b423          	sd	a2,-88(s3) # fa8 <.LBB46_3+0xd74>
    3070:	00065463          	bgez	a2,3078 <.LBB46_16>
    3074:	c0000937          	lui	s2,0xc0000

0000000000003078 <.LBB46_16>:
    3078:	01452603          	lw	a2,20(a0)
    307c:	0145a983          	lw	s3,20(a1)
    3080:	00261a13          	slli	s4,a2,0x2
    3084:	00001637          	lui	a2,0x1
    3088:	40c40633          	sub	a2,s0,a2
    308c:	6d363c23          	sd	s3,1752(a2) # 16d8 <.LBB46_4+0x550>
    3090:	013a8633          	add	a2,s5,s3
    3094:	000019b7          	lui	s3,0x1
    3098:	413409b3          	sub	s3,s0,s3
    309c:	6d49b823          	sd	s4,1744(s3) # 16d0 <.LBB46_4+0x548>
    30a0:	01460633          	add	a2,a2,s4
    30a4:	00e60633          	add	a2,a2,a4
    30a8:	0806061b          	addiw	a2,a2,128
    30ac:	400009b7          	lui	s3,0x40000
    30b0:	00001a37          	lui	s4,0x1
    30b4:	41440a33          	sub	s4,s0,s4
    30b8:	f8ca3823          	sd	a2,-112(s4) # f90 <.LBB46_3+0xd5c>
    30bc:	00065463          	bgez	a2,30c4 <.LBB46_18>
    30c0:	c00009b7          	lui	s3,0xc0000

00000000000030c4 <.LBB46_18>:
    30c4:	01852603          	lw	a2,24(a0)
    30c8:	0185aa03          	lw	s4,24(a1)
    30cc:	00261a93          	slli	s5,a2,0x2
    30d0:	00001637          	lui	a2,0x1
    30d4:	40c40633          	sub	a2,s0,a2
    30d8:	6d463423          	sd	s4,1736(a2) # 16c8 <.LBB46_4+0x540>
    30dc:	014b0633          	add	a2,s6,s4
    30e0:	00001a37          	lui	s4,0x1
    30e4:	41440a33          	sub	s4,s0,s4
    30e8:	6d5a3023          	sd	s5,1728(s4) # 16c0 <.LBB46_4+0x538>
    30ec:	01560633          	add	a2,a2,s5
    30f0:	00e60633          	add	a2,a2,a4
    30f4:	0806061b          	addiw	a2,a2,128
    30f8:	40000a37          	lui	s4,0x40000
    30fc:	00001ab7          	lui	s5,0x1
    3100:	41540ab3          	sub	s5,s0,s5
    3104:	f6cabc23          	sd	a2,-136(s5) # f78 <.LBB46_3+0xd44>
    3108:	00065463          	bgez	a2,3110 <.LBB46_20>
    310c:	c0000a37          	lui	s4,0xc0000

0000000000003110 <.LBB46_20>:
    3110:	01c52603          	lw	a2,28(a0)
    3114:	01c5aa83          	lw	s5,28(a1)
    3118:	00261b13          	slli	s6,a2,0x2
    311c:	00001637          	lui	a2,0x1
    3120:	40c40633          	sub	a2,s0,a2
    3124:	6b563c23          	sd	s5,1720(a2) # 16b8 <.LBB46_4+0x530>
    3128:	015c0633          	add	a2,s8,s5
    312c:	00001ab7          	lui	s5,0x1
    3130:	41540ab3          	sub	s5,s0,s5
    3134:	6b6ab823          	sd	s6,1712(s5) # 16b0 <.LBB46_4+0x528>
    3138:	01660633          	add	a2,a2,s6
    313c:	00e60633          	add	a2,a2,a4
    3140:	0806061b          	addiw	a2,a2,128
    3144:	40000ab7          	lui	s5,0x40000
    3148:	00001b37          	lui	s6,0x1
    314c:	41640b33          	sub	s6,s0,s6
    3150:	f6cb3423          	sd	a2,-152(s6) # f68 <.LBB46_3+0xd34>
    3154:	00065463          	bgez	a2,315c <.LBB46_22>
    3158:	c0000ab7          	lui	s5,0xc0000

000000000000315c <.LBB46_22>:
    315c:	00001637          	lui	a2,0x1
    3160:	40c40633          	sub	a2,s0,a2
    3164:	f5563423          	sd	s5,-184(a2) # f48 <.LBB46_3+0xd14>
    3168:	00001637          	lui	a2,0x1
    316c:	40c40633          	sub	a2,s0,a2
    3170:	f5463c23          	sd	s4,-168(a2) # f58 <.LBB46_3+0xd24>
    3174:	00001637          	lui	a2,0x1
    3178:	40c40633          	sub	a2,s0,a2
    317c:	f7363823          	sd	s3,-144(a2) # f70 <.LBB46_3+0xd3c>
    3180:	00001637          	lui	a2,0x1
    3184:	40c40633          	sub	a2,s0,a2
    3188:	f9263423          	sd	s2,-120(a2) # f88 <.LBB46_3+0xd54>
    318c:	00001637          	lui	a2,0x1
    3190:	40c40633          	sub	a2,s0,a2
    3194:	f8963c23          	sd	s1,-104(a2) # f98 <.LBB46_3+0xd64>
    3198:	00001637          	lui	a2,0x1
    319c:	40c40633          	sub	a2,s0,a2
    31a0:	fbd63823          	sd	t4,-80(a2) # fb0 <.LBB46_3+0xd7c>
    31a4:	00001637          	lui	a2,0x1
    31a8:	40c40633          	sub	a2,s0,a2
    31ac:	fcd63823          	sd	a3,-48(a2) # fd0 <.LBB46_3+0xd9c>
    31b0:	dff43023          	sd	t6,-544(s0)
    31b4:	dfe43423          	sd	t5,-536(s0)
    31b8:	dfc43823          	sd	t3,-528(s0)
    31bc:	de743c23          	sd	t2,-520(s0)
    31c0:	e0643023          	sd	t1,-512(s0)
    31c4:	e0543423          	sd	t0,-504(s0)
    31c8:	e1143823          	sd	a7,-496(s0)
    31cc:	e1043c23          	sd	a6,-488(s0)
    31d0:	e2f43023          	sd	a5,-480(s0)
    31d4:	02052603          	lw	a2,32(a0)
    31d8:	0205a683          	lw	a3,32(a1)
    31dc:	00261793          	slli	a5,a2,0x2
    31e0:	00001637          	lui	a2,0x1
    31e4:	40c40633          	sub	a2,s0,a2
    31e8:	6ad63423          	sd	a3,1704(a2) # 16a8 <.LBB46_4+0x520>
    31ec:	00db8633          	add	a2,s7,a3
    31f0:	000016b7          	lui	a3,0x1
    31f4:	40d406b3          	sub	a3,s0,a3
    31f8:	6af6b023          	sd	a5,1696(a3) # 16a0 <.LBB46_4+0x518>
    31fc:	00f60633          	add	a2,a2,a5
    3200:	00e60633          	add	a2,a2,a4
    3204:	0806061b          	addiw	a2,a2,128
    3208:	400006b7          	lui	a3,0x40000
    320c:	000017b7          	lui	a5,0x1
    3210:	40f407b3          	sub	a5,s0,a5
    3214:	f4c7b823          	sd	a2,-176(a5) # f50 <.LBB46_3+0xd1c>
    3218:	00065463          	bgez	a2,3220 <.LBB46_24>
    321c:	c00006b7          	lui	a3,0xc0000

0000000000003220 <.LBB46_24>:
    3220:	00001637          	lui	a2,0x1
    3224:	40c40633          	sub	a2,s0,a2
    3228:	f2d63c23          	sd	a3,-200(a2) # f38 <.LBB46_3+0xd04>
    322c:	07c5a603          	lw	a2,124(a1)
    3230:	f8c43423          	sd	a2,-120(s0)
    3234:	0785a603          	lw	a2,120(a1)
    3238:	f8c43023          	sd	a2,-128(s0)
    323c:	0745a603          	lw	a2,116(a1)
    3240:	f6c43c23          	sd	a2,-136(s0)
    3244:	0705a603          	lw	a2,112(a1)
    3248:	f6c43823          	sd	a2,-144(s0)
    324c:	06c5a603          	lw	a2,108(a1)
    3250:	f6c43423          	sd	a2,-152(s0)
    3254:	0685a603          	lw	a2,104(a1)
    3258:	f6c43023          	sd	a2,-160(s0)
    325c:	0645a603          	lw	a2,100(a1)
    3260:	f4c43c23          	sd	a2,-168(s0)
    3264:	0605a603          	lw	a2,96(a1)
    3268:	f4c43823          	sd	a2,-176(s0)
    326c:	05c5a603          	lw	a2,92(a1)
    3270:	f4c43423          	sd	a2,-184(s0)
    3274:	0585a603          	lw	a2,88(a1)
    3278:	f4c43023          	sd	a2,-192(s0)
    327c:	0545a603          	lw	a2,84(a1)
    3280:	f2c43c23          	sd	a2,-200(s0)
    3284:	0505a603          	lw	a2,80(a1)
    3288:	f2c43823          	sd	a2,-208(s0)
    328c:	04c5a603          	lw	a2,76(a1)
    3290:	f2c43423          	sd	a2,-216(s0)
    3294:	0485a603          	lw	a2,72(a1)
    3298:	f2c43023          	sd	a2,-224(s0)
    329c:	0445a603          	lw	a2,68(a1)
    32a0:	f0c43c23          	sd	a2,-232(s0)
    32a4:	0405a603          	lw	a2,64(a1)
    32a8:	f0c43823          	sd	a2,-240(s0)
    32ac:	03c5a603          	lw	a2,60(a1)
    32b0:	f0c43423          	sd	a2,-248(s0)
    32b4:	0385a603          	lw	a2,56(a1)
    32b8:	eac43823          	sd	a2,-336(s0)
    32bc:	0345a603          	lw	a2,52(a1)
    32c0:	eac43423          	sd	a2,-344(s0)
    32c4:	0305a603          	lw	a2,48(a1)
    32c8:	eac43023          	sd	a2,-352(s0)
    32cc:	02c5a603          	lw	a2,44(a1)
    32d0:	e8c43c23          	sd	a2,-360(s0)
    32d4:	0285a603          	lw	a2,40(a1)
    32d8:	e8c43823          	sd	a2,-368(s0)
    32dc:	0245a603          	lw	a2,36(a1)
    32e0:	07c52583          	lw	a1,124(a0)
    32e4:	000016b7          	lui	a3,0x1
    32e8:	40d406b3          	sub	a3,s0,a3
    32ec:	68b6b023          	sd	a1,1664(a3) # 1680 <.LBB46_4+0x4f8>
    32f0:	07852583          	lw	a1,120(a0)
    32f4:	000016b7          	lui	a3,0x1
    32f8:	40d406b3          	sub	a3,s0,a3
    32fc:	66b6bc23          	sd	a1,1656(a3) # 1678 <.LBB46_4+0x4f0>
    3300:	07452583          	lw	a1,116(a0)
    3304:	000016b7          	lui	a3,0x1
    3308:	40d406b3          	sub	a3,s0,a3
    330c:	66b6b823          	sd	a1,1648(a3) # 1670 <.LBB46_4+0x4e8>
    3310:	07052283          	lw	t0,112(a0)
    3314:	06c52303          	lw	t1,108(a0)
    3318:	06852383          	lw	t2,104(a0)
    331c:	06452e03          	lw	t3,100(a0)
    3320:	06052e83          	lw	t4,96(a0)
    3324:	05c52f03          	lw	t5,92(a0)
    3328:	05852f83          	lw	t6,88(a0)
    332c:	05452483          	lw	s1,84(a0)
    3330:	05052903          	lw	s2,80(a0)
    3334:	04c52983          	lw	s3,76(a0)
    3338:	04852a03          	lw	s4,72(a0)
    333c:	04452a83          	lw	s5,68(a0)
    3340:	04052b03          	lw	s6,64(a0)
    3344:	03c52b83          	lw	s7,60(a0)
    3348:	03852c03          	lw	s8,56(a0)
    334c:	03452c83          	lw	s9,52(a0)
    3350:	02452583          	lw	a1,36(a0)
    3354:	03052d03          	lw	s10,48(a0)
    3358:	02c52d83          	lw	s11,44(a0)
    335c:	02852083          	lw	ra,40(a0)
    3360:	00259593          	slli	a1,a1,0x2
    3364:	f8543823          	sd	t0,-112(s0)
    3368:	00001537          	lui	a0,0x1
    336c:	40a40533          	sub	a0,s0,a0
    3370:	68c53823          	sd	a2,1680(a0) # 1690 <.LBB46_4+0x508>
    3374:	00001537          	lui	a0,0x1
    3378:	40a40533          	sub	a0,s0,a0
    337c:	6e853503          	ld	a0,1768(a0) # 16e8 <.LBB46_4+0x560>
    3380:	00c50533          	add	a0,a0,a2
    3384:	00001637          	lui	a2,0x1
    3388:	40c40633          	sub	a2,s0,a2
    338c:	6eb63423          	sd	a1,1768(a2) # 16e8 <.LBB46_4+0x560>
    3390:	00b50533          	add	a0,a0,a1
    3394:	000015b7          	lui	a1,0x1
    3398:	40b405b3          	sub	a1,s0,a1
    339c:	6605b683          	ld	a3,1632(a1) # 1660 <.LBB46_4+0x4d8>
    33a0:	01c6a583          	lw	a1,28(a3)
    33a4:	00001637          	lui	a2,0x1
    33a8:	40c40633          	sub	a2,s0,a2
    33ac:	d6b63c23          	sd	a1,-648(a2) # d78 <.LBB46_3+0xb44>
    33b0:	0186a583          	lw	a1,24(a3)
    33b4:	00001637          	lui	a2,0x1
    33b8:	40c40633          	sub	a2,s0,a2
    33bc:	e0b63423          	sd	a1,-504(a2) # e08 <.LBB46_3+0xbd4>
    33c0:	0146a883          	lw	a7,20(a3)
    33c4:	0106a783          	lw	a5,16(a3)
    33c8:	00c6a583          	lw	a1,12(a3)
    33cc:	0086a603          	lw	a2,8(a3)
    33d0:	0046a683          	lw	a3,4(a3)
    33d4:	00e50533          	add	a0,a0,a4
    33d8:	0805051b          	addiw	a0,a0,128
    33dc:	40000837          	lui	a6,0x40000
    33e0:	000012b7          	lui	t0,0x1
    33e4:	405402b3          	sub	t0,s0,t0
    33e8:	6902b423          	sd	a6,1672(t0) # 1688 <.LBB46_4+0x500>
    33ec:	f9043283          	ld	t0,-112(s0)
    33f0:	00001837          	lui	a6,0x1
    33f4:	41040833          	sub	a6,s0,a6
    33f8:	d8a83023          	sd	a0,-640(a6) # d80 <.LBB46_3+0xb4c>
    33fc:	00055a63          	bgez	a0,3410 <.LBB46_26>
    3400:	c0000537          	lui	a0,0xc0000
    3404:	00001837          	lui	a6,0x1
    3408:	41040833          	sub	a6,s0,a6
    340c:	68a83423          	sd	a0,1672(a6) # 1688 <.LBB46_4+0x500>

0000000000003410 <.LBB46_26>:
    3410:	00209093          	slli	ra,ra,0x2
    3414:	e9043503          	ld	a0,-368(s0)
    3418:	00001837          	lui	a6,0x1
    341c:	41040833          	sub	a6,s0,a6
    3420:	6f083803          	ld	a6,1776(a6) # 16f0 <.LBB46_4+0x568>
    3424:	00a80533          	add	a0,a6,a0
    3428:	00001837          	lui	a6,0x1
    342c:	41040833          	sub	a6,s0,a6
    3430:	6e183823          	sd	ra,1776(a6) # 16f0 <.LBB46_4+0x568>
    3434:	00150533          	add	a0,a0,ra
    3438:	00e50533          	add	a0,a0,a4
    343c:	0805051b          	addiw	a0,a0,128 # ffffffffc0000080 <.Lfunc_end80+0xffffffffbffd76b4>
    3440:	400000b7          	lui	ra,0x40000
    3444:	00001837          	lui	a6,0x1
    3448:	41040833          	sub	a6,s0,a6
    344c:	d8a83823          	sd	a0,-624(a6) # d90 <.LBB46_3+0xb5c>
    3450:	00001837          	lui	a6,0x1
    3454:	41040833          	sub	a6,s0,a6
    3458:	78083803          	ld	a6,1920(a6) # 1780 <.LBB46_5+0x64>
    345c:	00055463          	bgez	a0,3464 <.LBB46_28>
    3460:	c00000b7          	lui	ra,0xc0000

0000000000003464 <.LBB46_28>:
    3464:	f8b43823          	sd	a1,-112(s0)
    3468:	00001537          	lui	a0,0x1
    346c:	40a40533          	sub	a0,s0,a0
    3470:	d8153423          	sd	ra,-632(a0) # d88 <.LBB46_3+0xb54>
    3474:	002d9d93          	slli	s11,s11,0x2
    3478:	e9843503          	ld	a0,-360(s0)
    347c:	000015b7          	lui	a1,0x1
    3480:	40b405b3          	sub	a1,s0,a1
    3484:	6f85b083          	ld	ra,1784(a1) # 16f8 <.LBB46_4+0x570>
    3488:	00a08533          	add	a0,ra,a0
    348c:	000015b7          	lui	a1,0x1
    3490:	40b405b3          	sub	a1,s0,a1
    3494:	6fb5bc23          	sd	s11,1784(a1) # 16f8 <.LBB46_4+0x570>
    3498:	01b50533          	add	a0,a0,s11
    349c:	00e50533          	add	a0,a0,a4
    34a0:	0805051b          	addiw	a0,a0,128
    34a4:	40000db7          	lui	s11,0x40000
    34a8:	b2843083          	ld	ra,-1240(s0)
    34ac:	000015b7          	lui	a1,0x1
    34b0:	40b405b3          	sub	a1,s0,a1
    34b4:	daa5b023          	sd	a0,-608(a1) # da0 <.LBB46_3+0xb6c>
    34b8:	f9043583          	ld	a1,-112(s0)
    34bc:	00055463          	bgez	a0,34c4 <.LBB46_30>
    34c0:	c0000db7          	lui	s11,0xc0000

00000000000034c4 <.LBB46_30>:
    34c4:	f8b43823          	sd	a1,-112(s0)
    34c8:	00001537          	lui	a0,0x1
    34cc:	40a40533          	sub	a0,s0,a0
    34d0:	d9b53c23          	sd	s11,-616(a0) # d98 <.LBB46_3+0xb64>
    34d4:	002d1d13          	slli	s10,s10,0x2
    34d8:	ea043503          	ld	a0,-352(s0)
    34dc:	000015b7          	lui	a1,0x1
    34e0:	40b405b3          	sub	a1,s0,a1
    34e4:	7005bd83          	ld	s11,1792(a1) # 1700 <.LBB46_4+0x578>
    34e8:	00ad8533          	add	a0,s11,a0
    34ec:	000015b7          	lui	a1,0x1
    34f0:	40b405b3          	sub	a1,s0,a1
    34f4:	71a5b023          	sd	s10,1792(a1) # 1700 <.LBB46_4+0x578>
    34f8:	01a50533          	add	a0,a0,s10
    34fc:	00e50533          	add	a0,a0,a4
    3500:	0805051b          	addiw	a0,a0,128
    3504:	40000d37          	lui	s10,0x40000
    3508:	b1843d83          	ld	s11,-1256(s0)
    350c:	000015b7          	lui	a1,0x1
    3510:	40b405b3          	sub	a1,s0,a1
    3514:	daa5b823          	sd	a0,-592(a1) # db0 <.LBB46_3+0xb7c>
    3518:	f9043583          	ld	a1,-112(s0)
    351c:	00055463          	bgez	a0,3524 <.LBB46_32>
    3520:	c0000d37          	lui	s10,0xc0000

0000000000003524 <.LBB46_32>:
    3524:	f8b43823          	sd	a1,-112(s0)
    3528:	00001537          	lui	a0,0x1
    352c:	40a40533          	sub	a0,s0,a0
    3530:	dba53423          	sd	s10,-600(a0) # da8 <.LBB46_3+0xb74>
    3534:	002c9c93          	slli	s9,s9,0x2
    3538:	ea843503          	ld	a0,-344(s0)
    353c:	000015b7          	lui	a1,0x1
    3540:	40b405b3          	sub	a1,s0,a1
    3544:	7085bd03          	ld	s10,1800(a1) # 1708 <.LBB46_4+0x580>
    3548:	00ad0533          	add	a0,s10,a0
    354c:	000c8d13          	mv	s10,s9
    3550:	01950533          	add	a0,a0,s9
    3554:	00e50533          	add	a0,a0,a4
    3558:	0805051b          	addiw	a0,a0,128
    355c:	40000cb7          	lui	s9,0x40000
    3560:	000015b7          	lui	a1,0x1
    3564:	40b405b3          	sub	a1,s0,a1
    3568:	dca5b023          	sd	a0,-576(a1) # dc0 <.LBB46_3+0xb8c>
    356c:	f9043583          	ld	a1,-112(s0)
    3570:	00055463          	bgez	a0,3578 <.LBB46_34>
    3574:	c0000cb7          	lui	s9,0xc0000

0000000000003578 <.LBB46_34>:
    3578:	f8b43823          	sd	a1,-112(s0)
    357c:	00001537          	lui	a0,0x1
    3580:	40a40533          	sub	a0,s0,a0
    3584:	db953c23          	sd	s9,-584(a0) # db8 <.LBB46_3+0xb84>
    3588:	002c1c13          	slli	s8,s8,0x2
    358c:	eb043503          	ld	a0,-336(s0)
    3590:	000015b7          	lui	a1,0x1
    3594:	40b405b3          	sub	a1,s0,a1
    3598:	7105bc83          	ld	s9,1808(a1) # 1710 <.LBB46_4+0x588>
    359c:	00ac8533          	add	a0,s9,a0
    35a0:	000015b7          	lui	a1,0x1
    35a4:	40b405b3          	sub	a1,s0,a1
    35a8:	7185b823          	sd	s8,1808(a1) # 1710 <.LBB46_4+0x588>
    35ac:	01850533          	add	a0,a0,s8
    35b0:	00e50533          	add	a0,a0,a4
    35b4:	0805051b          	addiw	a0,a0,128
    35b8:	40000c37          	lui	s8,0x40000
    35bc:	b5843c83          	ld	s9,-1192(s0)
    35c0:	000015b7          	lui	a1,0x1
    35c4:	40b405b3          	sub	a1,s0,a1
    35c8:	dca5b823          	sd	a0,-560(a1) # dd0 <.LBB46_3+0xb9c>
    35cc:	f9043583          	ld	a1,-112(s0)
    35d0:	00055463          	bgez	a0,35d8 <.LBB46_36>
    35d4:	c0000c37          	lui	s8,0xc0000

00000000000035d8 <.LBB46_36>:
    35d8:	f8b43823          	sd	a1,-112(s0)
    35dc:	00001537          	lui	a0,0x1
    35e0:	40a40533          	sub	a0,s0,a0
    35e4:	dd853423          	sd	s8,-568(a0) # dc8 <.LBB46_3+0xb94>
    35e8:	002b9b93          	slli	s7,s7,0x2
    35ec:	f0843503          	ld	a0,-248(s0)
    35f0:	000015b7          	lui	a1,0x1
    35f4:	40b405b3          	sub	a1,s0,a1
    35f8:	7185bc03          	ld	s8,1816(a1) # 1718 <.LBB46_4+0x590>
    35fc:	00ac0533          	add	a0,s8,a0
    3600:	000015b7          	lui	a1,0x1
    3604:	40b405b3          	sub	a1,s0,a1
    3608:	7175bc23          	sd	s7,1816(a1) # 1718 <.LBB46_4+0x590>
    360c:	01750533          	add	a0,a0,s7
    3610:	00e50533          	add	a0,a0,a4
    3614:	0805051b          	addiw	a0,a0,128
    3618:	40000bb7          	lui	s7,0x40000
    361c:	000015b7          	lui	a1,0x1
    3620:	40b405b3          	sub	a1,s0,a1
    3624:	d105bc03          	ld	s8,-752(a1) # d10 <.LBB46_3+0xadc>
    3628:	000015b7          	lui	a1,0x1
    362c:	40b405b3          	sub	a1,s0,a1
    3630:	dea5b023          	sd	a0,-544(a1) # de0 <.LBB46_3+0xbac>
    3634:	f9043583          	ld	a1,-112(s0)
    3638:	00055463          	bgez	a0,3640 <.LBB46_38>
    363c:	c0000bb7          	lui	s7,0xc0000

0000000000003640 <.LBB46_38>:
    3640:	f8b43823          	sd	a1,-112(s0)
    3644:	00001537          	lui	a0,0x1
    3648:	40a40533          	sub	a0,s0,a0
    364c:	dd753c23          	sd	s7,-552(a0) # dd8 <.LBB46_3+0xba4>
    3650:	002b1b13          	slli	s6,s6,0x2
    3654:	f1043503          	ld	a0,-240(s0)
    3658:	000015b7          	lui	a1,0x1
    365c:	40b405b3          	sub	a1,s0,a1
    3660:	7205bb83          	ld	s7,1824(a1) # 1720 <.LBB46_5+0x4>
    3664:	00ab8533          	add	a0,s7,a0
    3668:	000015b7          	lui	a1,0x1
    366c:	40b405b3          	sub	a1,s0,a1
    3670:	7365b023          	sd	s6,1824(a1) # 1720 <.LBB46_5+0x4>
    3674:	01650533          	add	a0,a0,s6
    3678:	00e50533          	add	a0,a0,a4
    367c:	0805051b          	addiw	a0,a0,128
    3680:	40000b37          	lui	s6,0x40000
    3684:	000015b7          	lui	a1,0x1
    3688:	40b405b3          	sub	a1,s0,a1
    368c:	6585bb83          	ld	s7,1624(a1) # 1658 <.LBB46_4+0x4d0>
    3690:	000015b7          	lui	a1,0x1
    3694:	40b405b3          	sub	a1,s0,a1
    3698:	dea5b823          	sd	a0,-528(a1) # df0 <.LBB46_3+0xbbc>
    369c:	f9043583          	ld	a1,-112(s0)
    36a0:	00055463          	bgez	a0,36a8 <.LBB46_40>
    36a4:	c0000b37          	lui	s6,0xc0000

00000000000036a8 <.LBB46_40>:
    36a8:	f8b43823          	sd	a1,-112(s0)
    36ac:	00001537          	lui	a0,0x1
    36b0:	40a40533          	sub	a0,s0,a0
    36b4:	df653423          	sd	s6,-536(a0) # de8 <.LBB46_3+0xbb4>
    36b8:	002a9a93          	slli	s5,s5,0x2
    36bc:	f1843503          	ld	a0,-232(s0)
    36c0:	000015b7          	lui	a1,0x1
    36c4:	40b405b3          	sub	a1,s0,a1
    36c8:	7285bb03          	ld	s6,1832(a1) # 1728 <.LBB46_5+0xc>
    36cc:	00ab0533          	add	a0,s6,a0
    36d0:	000015b7          	lui	a1,0x1
    36d4:	40b405b3          	sub	a1,s0,a1
    36d8:	7355b423          	sd	s5,1832(a1) # 1728 <.LBB46_5+0xc>
    36dc:	01550533          	add	a0,a0,s5
    36e0:	00e50533          	add	a0,a0,a4
    36e4:	0805051b          	addiw	a0,a0,128
    36e8:	40000ab7          	lui	s5,0x40000
    36ec:	dd043b03          	ld	s6,-560(s0)
    36f0:	000015b7          	lui	a1,0x1
    36f4:	40b405b3          	sub	a1,s0,a1
    36f8:	e0a5b023          	sd	a0,-512(a1) # e00 <.LBB46_3+0xbcc>
    36fc:	f9043583          	ld	a1,-112(s0)
    3700:	00055463          	bgez	a0,3708 <.LBB46_42>
    3704:	c0000ab7          	lui	s5,0xc0000

0000000000003708 <.LBB46_42>:
    3708:	00001537          	lui	a0,0x1
    370c:	40a40533          	sub	a0,s0,a0
    3710:	df553c23          	sd	s5,-520(a0) # df8 <.LBB46_3+0xbc4>
    3714:	002a1a13          	slli	s4,s4,0x2
    3718:	f2043503          	ld	a0,-224(s0)
    371c:	00001ab7          	lui	s5,0x1
    3720:	41540ab3          	sub	s5,s0,s5
    3724:	730aba83          	ld	s5,1840(s5) # 1730 <.LBB46_5+0x14>
    3728:	00aa8533          	add	a0,s5,a0
    372c:	00001ab7          	lui	s5,0x1
    3730:	41540ab3          	sub	s5,s0,s5
    3734:	734ab823          	sd	s4,1840(s5) # 1730 <.LBB46_5+0x14>
    3738:	01450533          	add	a0,a0,s4
    373c:	00e50533          	add	a0,a0,a4
    3740:	0805051b          	addiw	a0,a0,128
    3744:	40000ab7          	lui	s5,0x40000
    3748:	00001a37          	lui	s4,0x1
    374c:	41440a33          	sub	s4,s0,s4
    3750:	e0aa3823          	sd	a0,-496(s4) # e10 <.LBB46_3+0xbdc>
    3754:	00055463          	bgez	a0,375c <.LBB46_44>
    3758:	c0000ab7          	lui	s5,0xc0000

000000000000375c <.LBB46_44>:
    375c:	00299993          	slli	s3,s3,0x2
    3760:	f2843503          	ld	a0,-216(s0)
    3764:	00001a37          	lui	s4,0x1
    3768:	41440a33          	sub	s4,s0,s4
    376c:	738a3a03          	ld	s4,1848(s4) # 1738 <.LBB46_5+0x1c>
    3770:	00aa0533          	add	a0,s4,a0
    3774:	00001a37          	lui	s4,0x1
    3778:	41440a33          	sub	s4,s0,s4
    377c:	733a3c23          	sd	s3,1848(s4) # 1738 <.LBB46_5+0x1c>
    3780:	01350533          	add	a0,a0,s3
    3784:	00e50533          	add	a0,a0,a4
    3788:	0805051b          	addiw	a0,a0,128
    378c:	400009b7          	lui	s3,0x40000
    3790:	00001a37          	lui	s4,0x1
    3794:	41440a33          	sub	s4,s0,s4
    3798:	e2aa3023          	sd	a0,-480(s4) # e20 <.LBB46_3+0xbec>
    379c:	00055463          	bgez	a0,37a4 <.LBB46_46>
    37a0:	c00009b7          	lui	s3,0xc0000

00000000000037a4 <.LBB46_46>:
    37a4:	00001537          	lui	a0,0x1
    37a8:	40a40533          	sub	a0,s0,a0
    37ac:	e1353c23          	sd	s3,-488(a0) # e18 <.LBB46_3+0xbe4>
    37b0:	00291913          	slli	s2,s2,0x2
    37b4:	f3043503          	ld	a0,-208(s0)
    37b8:	000019b7          	lui	s3,0x1
    37bc:	413409b3          	sub	s3,s0,s3
    37c0:	7409b983          	ld	s3,1856(s3) # 1740 <.LBB46_5+0x24>
    37c4:	00a98533          	add	a0,s3,a0
    37c8:	000019b7          	lui	s3,0x1
    37cc:	413409b3          	sub	s3,s0,s3
    37d0:	7529b023          	sd	s2,1856(s3) # 1740 <.LBB46_5+0x24>
    37d4:	01250533          	add	a0,a0,s2
    37d8:	00e50533          	add	a0,a0,a4
    37dc:	0805051b          	addiw	a0,a0,128
    37e0:	40000937          	lui	s2,0x40000
    37e4:	ee843983          	ld	s3,-280(s0)
    37e8:	00001a37          	lui	s4,0x1
    37ec:	41440a33          	sub	s4,s0,s4
    37f0:	e2aa3823          	sd	a0,-464(s4) # e30 <.LBB46_3+0xbfc>
    37f4:	00088a13          	mv	s4,a7
    37f8:	00055463          	bgez	a0,3800 <.LBB46_48>
    37fc:	c0000937          	lui	s2,0xc0000

0000000000003800 <.LBB46_48>:
    3800:	00001537          	lui	a0,0x1
    3804:	40a40533          	sub	a0,s0,a0
    3808:	e3253423          	sd	s2,-472(a0) # e28 <.LBB46_3+0xbf4>
    380c:	00249493          	slli	s1,s1,0x2
    3810:	f3843503          	ld	a0,-200(s0)
    3814:	000018b7          	lui	a7,0x1
    3818:	411408b3          	sub	a7,s0,a7
    381c:	7488b903          	ld	s2,1864(a7) # 1748 <.LBB46_5+0x2c>
    3820:	00a90533          	add	a0,s2,a0
    3824:	000018b7          	lui	a7,0x1
    3828:	411408b3          	sub	a7,s0,a7
    382c:	7498b423          	sd	s1,1864(a7) # 1748 <.LBB46_5+0x2c>
    3830:	00950533          	add	a0,a0,s1
    3834:	00e50533          	add	a0,a0,a4
    3838:	0805051b          	addiw	a0,a0,128
    383c:	400004b7          	lui	s1,0x40000
    3840:	dd843903          	ld	s2,-552(s0)
    3844:	000018b7          	lui	a7,0x1
    3848:	411408b3          	sub	a7,s0,a7
    384c:	e4a8b023          	sd	a0,-448(a7) # e40 <.LBB46_3+0xc0c>
    3850:	00055463          	bgez	a0,3858 <.LBB46_50>
    3854:	c00004b7          	lui	s1,0xc0000

0000000000003858 <.LBB46_50>:
    3858:	00001537          	lui	a0,0x1
    385c:	40a40533          	sub	a0,s0,a0
    3860:	e2953c23          	sd	s1,-456(a0) # e38 <.LBB46_3+0xc04>
    3864:	002f9f93          	slli	t6,t6,0x2
    3868:	f4043503          	ld	a0,-192(s0)
    386c:	000018b7          	lui	a7,0x1
    3870:	411408b3          	sub	a7,s0,a7
    3874:	7508b483          	ld	s1,1872(a7) # 1750 <.LBB46_5+0x34>
    3878:	00a48533          	add	a0,s1,a0
    387c:	000018b7          	lui	a7,0x1
    3880:	411408b3          	sub	a7,s0,a7
    3884:	75f8b823          	sd	t6,1872(a7) # 1750 <.LBB46_5+0x34>
    3888:	01f50533          	add	a0,a0,t6
    388c:	00e50533          	add	a0,a0,a4
    3890:	0805051b          	addiw	a0,a0,128
    3894:	40000fb7          	lui	t6,0x40000
    3898:	bf843483          	ld	s1,-1032(s0)
    389c:	000018b7          	lui	a7,0x1
    38a0:	411408b3          	sub	a7,s0,a7
    38a4:	e4a8b823          	sd	a0,-432(a7) # e50 <.LBB46_3+0xc1c>
    38a8:	00055463          	bgez	a0,38b0 <.LBB46_52>
    38ac:	c0000fb7          	lui	t6,0xc0000

00000000000038b0 <.LBB46_52>:
    38b0:	00001537          	lui	a0,0x1
    38b4:	40a40533          	sub	a0,s0,a0
    38b8:	e5f53423          	sd	t6,-440(a0) # e48 <.LBB46_3+0xc14>
    38bc:	002f1f13          	slli	t5,t5,0x2
    38c0:	f4843503          	ld	a0,-184(s0)
    38c4:	000018b7          	lui	a7,0x1
    38c8:	411408b3          	sub	a7,s0,a7
    38cc:	7588bf83          	ld	t6,1880(a7) # 1758 <.LBB46_5+0x3c>
    38d0:	00af8533          	add	a0,t6,a0
    38d4:	000018b7          	lui	a7,0x1
    38d8:	411408b3          	sub	a7,s0,a7
    38dc:	75e8bc23          	sd	t5,1880(a7) # 1758 <.LBB46_5+0x3c>
    38e0:	01e50533          	add	a0,a0,t5
    38e4:	00e50533          	add	a0,a0,a4
    38e8:	0805051b          	addiw	a0,a0,128
    38ec:	40000f37          	lui	t5,0x40000
    38f0:	de043f83          	ld	t6,-544(s0)
    38f4:	000018b7          	lui	a7,0x1
    38f8:	411408b3          	sub	a7,s0,a7
    38fc:	e6a8b023          	sd	a0,-416(a7) # e60 <.LBB46_3+0xc2c>
    3900:	00055463          	bgez	a0,3908 <.LBB46_54>
    3904:	c0000f37          	lui	t5,0xc0000

0000000000003908 <.LBB46_54>:
    3908:	00001537          	lui	a0,0x1
    390c:	40a40533          	sub	a0,s0,a0
    3910:	e5e53c23          	sd	t5,-424(a0) # e58 <.LBB46_3+0xc24>
    3914:	002e9e93          	slli	t4,t4,0x2
    3918:	f5043503          	ld	a0,-176(s0)
    391c:	000018b7          	lui	a7,0x1
    3920:	411408b3          	sub	a7,s0,a7
    3924:	7608bf03          	ld	t5,1888(a7) # 1760 <.LBB46_5+0x44>
    3928:	00af0533          	add	a0,t5,a0
    392c:	000018b7          	lui	a7,0x1
    3930:	411408b3          	sub	a7,s0,a7
    3934:	77d8b023          	sd	t4,1888(a7) # 1760 <.LBB46_5+0x44>
    3938:	01d50533          	add	a0,a0,t4
    393c:	00e50533          	add	a0,a0,a4
    3940:	0805051b          	addiw	a0,a0,128
    3944:	40000eb7          	lui	t4,0x40000
    3948:	de843f03          	ld	t5,-536(s0)
    394c:	000018b7          	lui	a7,0x1
    3950:	411408b3          	sub	a7,s0,a7
    3954:	e6a8b823          	sd	a0,-400(a7) # e70 <.LBB46_3+0xc3c>
    3958:	00055463          	bgez	a0,3960 <.LBB46_56>
    395c:	c0000eb7          	lui	t4,0xc0000

0000000000003960 <.LBB46_56>:
    3960:	00001537          	lui	a0,0x1
    3964:	40a40533          	sub	a0,s0,a0
    3968:	e7d53423          	sd	t4,-408(a0) # e68 <.LBB46_3+0xc34>
    396c:	002e1e13          	slli	t3,t3,0x2
    3970:	f5843503          	ld	a0,-168(s0)
    3974:	000018b7          	lui	a7,0x1
    3978:	411408b3          	sub	a7,s0,a7
    397c:	7688be83          	ld	t4,1896(a7) # 1768 <.LBB46_5+0x4c>
    3980:	00ae8533          	add	a0,t4,a0
    3984:	000018b7          	lui	a7,0x1
    3988:	411408b3          	sub	a7,s0,a7
    398c:	77c8b423          	sd	t3,1896(a7) # 1768 <.LBB46_5+0x4c>
    3990:	01c50533          	add	a0,a0,t3
    3994:	00e50533          	add	a0,a0,a4
    3998:	0805051b          	addiw	a0,a0,128
    399c:	40000e37          	lui	t3,0x40000
    39a0:	ef043e83          	ld	t4,-272(s0)
    39a4:	000018b7          	lui	a7,0x1
    39a8:	411408b3          	sub	a7,s0,a7
    39ac:	e8a8b023          	sd	a0,-384(a7) # e80 <.LBB46_3+0xc4c>
    39b0:	00055463          	bgez	a0,39b8 <.LBB46_58>
    39b4:	c0000e37          	lui	t3,0xc0000

00000000000039b8 <.LBB46_58>:
    39b8:	00001537          	lui	a0,0x1
    39bc:	40a40533          	sub	a0,s0,a0
    39c0:	e7c53c23          	sd	t3,-392(a0) # e78 <.LBB46_3+0xc44>
    39c4:	00239393          	slli	t2,t2,0x2
    39c8:	f6043503          	ld	a0,-160(s0)
    39cc:	000018b7          	lui	a7,0x1
    39d0:	411408b3          	sub	a7,s0,a7
    39d4:	7708be03          	ld	t3,1904(a7) # 1770 <.LBB46_5+0x54>
    39d8:	00ae0533          	add	a0,t3,a0
    39dc:	000018b7          	lui	a7,0x1
    39e0:	411408b3          	sub	a7,s0,a7
    39e4:	7678b823          	sd	t2,1904(a7) # 1770 <.LBB46_5+0x54>
    39e8:	00750533          	add	a0,a0,t2
    39ec:	00e50533          	add	a0,a0,a4
    39f0:	0805051b          	addiw	a0,a0,128
    39f4:	400003b7          	lui	t2,0x40000
    39f8:	df043e03          	ld	t3,-528(s0)
    39fc:	000018b7          	lui	a7,0x1
    3a00:	411408b3          	sub	a7,s0,a7
    3a04:	e8a8b823          	sd	a0,-368(a7) # e90 <.LBB46_3+0xc5c>
    3a08:	00055463          	bgez	a0,3a10 <.LBB46_60>
    3a0c:	c00003b7          	lui	t2,0xc0000

0000000000003a10 <.LBB46_60>:
    3a10:	00001537          	lui	a0,0x1
    3a14:	40a40533          	sub	a0,s0,a0
    3a18:	e8753423          	sd	t2,-376(a0) # e88 <.LBB46_3+0xc54>
    3a1c:	00231313          	slli	t1,t1,0x2
    3a20:	f6843503          	ld	a0,-152(s0)
    3a24:	000018b7          	lui	a7,0x1
    3a28:	411408b3          	sub	a7,s0,a7
    3a2c:	7788b383          	ld	t2,1912(a7) # 1778 <.LBB46_5+0x5c>
    3a30:	00a38533          	add	a0,t2,a0
    3a34:	000018b7          	lui	a7,0x1
    3a38:	411408b3          	sub	a7,s0,a7
    3a3c:	7668bc23          	sd	t1,1912(a7) # 1778 <.LBB46_5+0x5c>
    3a40:	00650533          	add	a0,a0,t1
    3a44:	00e50533          	add	a0,a0,a4
    3a48:	0805051b          	addiw	a0,a0,128
    3a4c:	40000337          	lui	t1,0x40000
    3a50:	df843383          	ld	t2,-520(s0)
    3a54:	000018b7          	lui	a7,0x1
    3a58:	411408b3          	sub	a7,s0,a7
    3a5c:	eaa8b023          	sd	a0,-352(a7) # ea0 <.LBB46_3+0xc6c>
    3a60:	00055463          	bgez	a0,3a68 <.LBB46_62>
    3a64:	c0000337          	lui	t1,0xc0000

0000000000003a68 <.LBB46_62>:
    3a68:	00001537          	lui	a0,0x1
    3a6c:	40a40533          	sub	a0,s0,a0
    3a70:	e8653c23          	sd	t1,-360(a0) # e98 <.LBB46_3+0xc64>
    3a74:	00229293          	slli	t0,t0,0x2
    3a78:	f7043503          	ld	a0,-144(s0)
    3a7c:	000018b7          	lui	a7,0x1
    3a80:	411408b3          	sub	a7,s0,a7
    3a84:	6988b303          	ld	t1,1688(a7) # 1698 <.LBB46_4+0x510>
    3a88:	00a30533          	add	a0,t1,a0
    3a8c:	000018b7          	lui	a7,0x1
    3a90:	411408b3          	sub	a7,s0,a7
    3a94:	7058b423          	sd	t0,1800(a7) # 1708 <.LBB46_4+0x580>
    3a98:	00550533          	add	a0,a0,t0
    3a9c:	00e50533          	add	a0,a0,a4
    3aa0:	0805051b          	addiw	a0,a0,128
    3aa4:	400002b7          	lui	t0,0x40000
    3aa8:	e0043303          	ld	t1,-512(s0)
    3aac:	000018b7          	lui	a7,0x1
    3ab0:	411408b3          	sub	a7,s0,a7
    3ab4:	eaa8b823          	sd	a0,-336(a7) # eb0 <.LBB46_3+0xc7c>
    3ab8:	00055463          	bgez	a0,3ac0 <.LBB46_64>
    3abc:	c00002b7          	lui	t0,0xc0000

0000000000003ac0 <.LBB46_64>:
    3ac0:	00001537          	lui	a0,0x1
    3ac4:	40a40533          	sub	a0,s0,a0
    3ac8:	ea553423          	sd	t0,-344(a0) # ea8 <.LBB46_3+0xc74>
    3acc:	00001537          	lui	a0,0x1
    3ad0:	40a40533          	sub	a0,s0,a0
    3ad4:	67053883          	ld	a7,1648(a0) # 1670 <.LBB46_4+0x4e8>
    3ad8:	00289893          	slli	a7,a7,0x2
    3adc:	f7843503          	ld	a0,-136(s0)
    3ae0:	00a80533          	add	a0,a6,a0
    3ae4:	00001837          	lui	a6,0x1
    3ae8:	41040833          	sub	a6,s0,a6
    3aec:	79183023          	sd	a7,1920(a6) # 1780 <.LBB46_5+0x64>
    3af0:	01150533          	add	a0,a0,a7
    3af4:	00e50533          	add	a0,a0,a4
    3af8:	0805051b          	addiw	a0,a0,128
    3afc:	400008b7          	lui	a7,0x40000
    3b00:	e0843283          	ld	t0,-504(s0)
    3b04:	00001837          	lui	a6,0x1
    3b08:	41040833          	sub	a6,s0,a6
    3b0c:	eca83023          	sd	a0,-320(a6) # ec0 <.LBB46_3+0xc8c>
    3b10:	00055463          	bgez	a0,3b18 <.LBB46_66>
    3b14:	c00008b7          	lui	a7,0xc0000

0000000000003b18 <.LBB46_66>:
    3b18:	00001537          	lui	a0,0x1
    3b1c:	40a40533          	sub	a0,s0,a0
    3b20:	eb153c23          	sd	a7,-328(a0) # eb8 <.LBB46_3+0xc84>
    3b24:	00001537          	lui	a0,0x1
    3b28:	40a40533          	sub	a0,s0,a0
    3b2c:	67853803          	ld	a6,1656(a0) # 1678 <.LBB46_4+0x4f0>
    3b30:	00281813          	slli	a6,a6,0x2
    3b34:	f8043503          	ld	a0,-128(s0)
    3b38:	000018b7          	lui	a7,0x1
    3b3c:	411408b3          	sub	a7,s0,a7
    3b40:	7888b883          	ld	a7,1928(a7) # 1788 <.LBB46_5+0x6c>
    3b44:	00a88533          	add	a0,a7,a0
    3b48:	000018b7          	lui	a7,0x1
    3b4c:	411408b3          	sub	a7,s0,a7
    3b50:	7908b423          	sd	a6,1928(a7) # 1788 <.LBB46_5+0x6c>
    3b54:	01050533          	add	a0,a0,a6
    3b58:	00e50533          	add	a0,a0,a4
    3b5c:	0805051b          	addiw	a0,a0,128
    3b60:	40000837          	lui	a6,0x40000
    3b64:	000018b7          	lui	a7,0x1
    3b68:	411408b3          	sub	a7,s0,a7
    3b6c:	eca8b823          	sd	a0,-304(a7) # ed0 <.LBB46_3+0xc9c>
    3b70:	00055463          	bgez	a0,3b78 <.LBB46_68>
    3b74:	c0000837          	lui	a6,0xc0000

0000000000003b78 <.LBB46_68>:
    3b78:	00001537          	lui	a0,0x1
    3b7c:	40a40533          	sub	a0,s0,a0
    3b80:	ed053423          	sd	a6,-312(a0) # ec8 <.LBB46_3+0xc94>
    3b84:	00001537          	lui	a0,0x1
    3b88:	40a40533          	sub	a0,s0,a0
    3b8c:	68053803          	ld	a6,1664(a0) # 1680 <.LBB46_4+0x4f8>
    3b90:	00281813          	slli	a6,a6,0x2
    3b94:	f8843503          	ld	a0,-120(s0)
    3b98:	000018b7          	lui	a7,0x1
    3b9c:	411408b3          	sub	a7,s0,a7
    3ba0:	7908b883          	ld	a7,1936(a7) # 1790 <.LBB46_5+0x74>
    3ba4:	00a88533          	add	a0,a7,a0
    3ba8:	000018b7          	lui	a7,0x1
    3bac:	411408b3          	sub	a7,s0,a7
    3bb0:	7908b823          	sd	a6,1936(a7) # 1790 <.LBB46_5+0x74>
    3bb4:	01050533          	add	a0,a0,a6
    3bb8:	00e50533          	add	a0,a0,a4
    3bbc:	0805051b          	addiw	a0,a0,128
    3bc0:	40000737          	lui	a4,0x40000
    3bc4:	e1843803          	ld	a6,-488(s0)
    3bc8:	000018b7          	lui	a7,0x1
    3bcc:	411408b3          	sub	a7,s0,a7
    3bd0:	eea8b023          	sd	a0,-288(a7) # ee0 <.LBB46_3+0xcac>
    3bd4:	88843883          	ld	a7,-1912(s0)
    3bd8:	00055463          	bgez	a0,3be0 <.LBB46_70>
    3bdc:	c0000737          	lui	a4,0xc0000

0000000000003be0 <.LBB46_70>:
    3be0:	f8b43823          	sd	a1,-112(s0)
    3be4:	00001537          	lui	a0,0x1
    3be8:	40a40533          	sub	a0,s0,a0
    3bec:	ece53c23          	sd	a4,-296(a0) # ed8 <.LBB46_3+0xca4>
    3bf0:	e8843503          	ld	a0,-376(s0)
    3bf4:	000015b7          	lui	a1,0x1
    3bf8:	40b405b3          	sub	a1,s0,a1
    3bfc:	7985b703          	ld	a4,1944(a1) # 1798 <.LBB46_5+0x7c>
    3c00:	00a70533          	add	a0,a4,a0
    3c04:	e8043703          	ld	a4,-384(s0)
    3c08:	00e50533          	add	a0,a0,a4
    3c0c:	00d50533          	add	a0,a0,a3
    3c10:	0805051b          	addiw	a0,a0,128
    3c14:	40000737          	lui	a4,0x40000
    3c18:	000015b7          	lui	a1,0x1
    3c1c:	40b405b3          	sub	a1,s0,a1
    3c20:	eea5b823          	sd	a0,-272(a1) # ef0 <.LBB46_3+0xcbc>
    3c24:	f9043583          	ld	a1,-112(s0)
    3c28:	00055463          	bgez	a0,3c30 <.LBB46_72>
    3c2c:	c0000737          	lui	a4,0xc0000

0000000000003c30 <.LBB46_72>:
    3c30:	f8b43823          	sd	a1,-112(s0)
    3c34:	00001537          	lui	a0,0x1
    3c38:	40a40533          	sub	a0,s0,a0
    3c3c:	eee53423          	sd	a4,-280(a0) # ee8 <.LBB46_3+0xcb4>
    3c40:	e7843503          	ld	a0,-392(s0)
    3c44:	000015b7          	lui	a1,0x1
    3c48:	40b405b3          	sub	a1,s0,a1
    3c4c:	7a05b703          	ld	a4,1952(a1) # 17a0 <.LBB46_5+0x84>
    3c50:	00a70533          	add	a0,a4,a0
    3c54:	e7043703          	ld	a4,-400(s0)
    3c58:	00e50533          	add	a0,a0,a4
    3c5c:	00d50533          	add	a0,a0,a3
    3c60:	0805051b          	addiw	a0,a0,128
    3c64:	40000737          	lui	a4,0x40000
    3c68:	000015b7          	lui	a1,0x1
    3c6c:	40b405b3          	sub	a1,s0,a1
    3c70:	f0a5b023          	sd	a0,-256(a1) # f00 <.LBB46_3+0xccc>
    3c74:	f9043583          	ld	a1,-112(s0)
    3c78:	00055463          	bgez	a0,3c80 <.LBB46_74>
    3c7c:	c0000737          	lui	a4,0xc0000

0000000000003c80 <.LBB46_74>:
    3c80:	f8b43823          	sd	a1,-112(s0)
    3c84:	00001537          	lui	a0,0x1
    3c88:	40a40533          	sub	a0,s0,a0
    3c8c:	eee53c23          	sd	a4,-264(a0) # ef8 <.LBB46_3+0xcc4>
    3c90:	e6843503          	ld	a0,-408(s0)
    3c94:	000015b7          	lui	a1,0x1
    3c98:	40b405b3          	sub	a1,s0,a1
    3c9c:	7a85b703          	ld	a4,1960(a1) # 17a8 <.LBB46_5+0x8c>
    3ca0:	00a70533          	add	a0,a4,a0
    3ca4:	e6043703          	ld	a4,-416(s0)
    3ca8:	00e50533          	add	a0,a0,a4
    3cac:	00d50533          	add	a0,a0,a3
    3cb0:	0805051b          	addiw	a0,a0,128
    3cb4:	40000737          	lui	a4,0x40000
    3cb8:	000015b7          	lui	a1,0x1
    3cbc:	40b405b3          	sub	a1,s0,a1
    3cc0:	f0a5b823          	sd	a0,-240(a1) # f10 <.LBB46_3+0xcdc>
    3cc4:	f9043583          	ld	a1,-112(s0)
    3cc8:	00055463          	bgez	a0,3cd0 <.LBB46_76>
    3ccc:	c0000737          	lui	a4,0xc0000

0000000000003cd0 <.LBB46_76>:
    3cd0:	f8b43823          	sd	a1,-112(s0)
    3cd4:	00001537          	lui	a0,0x1
    3cd8:	40a40533          	sub	a0,s0,a0
    3cdc:	f0e53423          	sd	a4,-248(a0) # f08 <.LBB46_3+0xcd4>
    3ce0:	e5843503          	ld	a0,-424(s0)
    3ce4:	000015b7          	lui	a1,0x1
    3ce8:	40b405b3          	sub	a1,s0,a1
    3cec:	7b05b703          	ld	a4,1968(a1) # 17b0 <.LBB46_5+0x94>
    3cf0:	00a70533          	add	a0,a4,a0
    3cf4:	e5043703          	ld	a4,-432(s0)
    3cf8:	00e50533          	add	a0,a0,a4
    3cfc:	00d50533          	add	a0,a0,a3
    3d00:	0805051b          	addiw	a0,a0,128
    3d04:	40000737          	lui	a4,0x40000
    3d08:	000015b7          	lui	a1,0x1
    3d0c:	40b405b3          	sub	a1,s0,a1
    3d10:	f2a5b023          	sd	a0,-224(a1) # f20 <.LBB46_3+0xcec>
    3d14:	f9043583          	ld	a1,-112(s0)
    3d18:	00055463          	bgez	a0,3d20 <.LBB46_78>
    3d1c:	c0000737          	lui	a4,0xc0000

0000000000003d20 <.LBB46_78>:
    3d20:	f8b43823          	sd	a1,-112(s0)
    3d24:	00001537          	lui	a0,0x1
    3d28:	40a40533          	sub	a0,s0,a0
    3d2c:	f0e53c23          	sd	a4,-232(a0) # f18 <.LBB46_3+0xce4>
    3d30:	e4843503          	ld	a0,-440(s0)
    3d34:	000015b7          	lui	a1,0x1
    3d38:	40b405b3          	sub	a1,s0,a1
    3d3c:	7b85b703          	ld	a4,1976(a1) # 17b8 <.LBB46_5+0x9c>
    3d40:	00a70533          	add	a0,a4,a0
    3d44:	000015b7          	lui	a1,0x1
    3d48:	40b405b3          	sub	a1,s0,a1
    3d4c:	6e05b703          	ld	a4,1760(a1) # 16e0 <.LBB46_4+0x558>
    3d50:	00e50533          	add	a0,a0,a4
    3d54:	00d50533          	add	a0,a0,a3
    3d58:	0805051b          	addiw	a0,a0,128
    3d5c:	40000737          	lui	a4,0x40000
    3d60:	000015b7          	lui	a1,0x1
    3d64:	40b405b3          	sub	a1,s0,a1
    3d68:	f2a5b823          	sd	a0,-208(a1) # f30 <.LBB46_3+0xcfc>
    3d6c:	f9043583          	ld	a1,-112(s0)
    3d70:	00055463          	bgez	a0,3d78 <.LBB46_80>
    3d74:	c0000737          	lui	a4,0xc0000

0000000000003d78 <.LBB46_80>:
    3d78:	f8b43823          	sd	a1,-112(s0)
    3d7c:	00001537          	lui	a0,0x1
    3d80:	40a40533          	sub	a0,s0,a0
    3d84:	f2e53423          	sd	a4,-216(a0) # f28 <.LBB46_3+0xcf4>
    3d88:	00001537          	lui	a0,0x1
    3d8c:	40a40533          	sub	a0,s0,a0
    3d90:	6d853503          	ld	a0,1752(a0) # 16d8 <.LBB46_4+0x550>
    3d94:	000015b7          	lui	a1,0x1
    3d98:	40b405b3          	sub	a1,s0,a1
    3d9c:	7c05b703          	ld	a4,1984(a1) # 17c0 <.LBB46_5+0xa4>
    3da0:	00a70533          	add	a0,a4,a0
    3da4:	000015b7          	lui	a1,0x1
    3da8:	40b405b3          	sub	a1,s0,a1
    3dac:	6d05b703          	ld	a4,1744(a1) # 16d0 <.LBB46_4+0x548>
    3db0:	00e50533          	add	a0,a0,a4
    3db4:	00d50533          	add	a0,a0,a3
    3db8:	0805051b          	addiw	a0,a0,128
    3dbc:	40000737          	lui	a4,0x40000
    3dc0:	000015b7          	lui	a1,0x1
    3dc4:	40b405b3          	sub	a1,s0,a1
    3dc8:	f6a5b023          	sd	a0,-160(a1) # f60 <.LBB46_3+0xd2c>
    3dcc:	f9043583          	ld	a1,-112(s0)
    3dd0:	00055463          	bgez	a0,3dd8 <.LBB46_82>
    3dd4:	c0000737          	lui	a4,0xc0000

0000000000003dd8 <.LBB46_82>:
    3dd8:	f8b43823          	sd	a1,-112(s0)
    3ddc:	00001537          	lui	a0,0x1
    3de0:	40a40533          	sub	a0,s0,a0
    3de4:	f4e53023          	sd	a4,-192(a0) # f40 <.LBB46_3+0xd0c>
    3de8:	00001537          	lui	a0,0x1
    3dec:	40a40533          	sub	a0,s0,a0
    3df0:	6c853503          	ld	a0,1736(a0) # 16c8 <.LBB46_4+0x540>
    3df4:	000015b7          	lui	a1,0x1
    3df8:	40b405b3          	sub	a1,s0,a1
    3dfc:	7c85b703          	ld	a4,1992(a1) # 17c8 <.LBB46_5+0xac>
    3e00:	00a70533          	add	a0,a4,a0
    3e04:	000015b7          	lui	a1,0x1
    3e08:	40b405b3          	sub	a1,s0,a1
    3e0c:	6c05b703          	ld	a4,1728(a1) # 16c0 <.LBB46_4+0x538>
    3e10:	00e50533          	add	a0,a0,a4
    3e14:	00d50533          	add	a0,a0,a3
    3e18:	0805051b          	addiw	a0,a0,128
    3e1c:	40000737          	lui	a4,0x40000
    3e20:	000015b7          	lui	a1,0x1
    3e24:	40b405b3          	sub	a1,s0,a1
    3e28:	faa5b023          	sd	a0,-96(a1) # fa0 <.LBB46_3+0xd6c>
    3e2c:	f9043583          	ld	a1,-112(s0)
    3e30:	00055463          	bgez	a0,3e38 <.LBB46_84>
    3e34:	c0000737          	lui	a4,0xc0000

0000000000003e38 <.LBB46_84>:
    3e38:	f8b43823          	sd	a1,-112(s0)
    3e3c:	00001537          	lui	a0,0x1
    3e40:	40a40533          	sub	a0,s0,a0
    3e44:	f8e53023          	sd	a4,-128(a0) # f80 <.LBB46_3+0xd4c>
    3e48:	00001537          	lui	a0,0x1
    3e4c:	40a40533          	sub	a0,s0,a0
    3e50:	6b853503          	ld	a0,1720(a0) # 16b8 <.LBB46_4+0x530>
    3e54:	000015b7          	lui	a1,0x1
    3e58:	40b405b3          	sub	a1,s0,a1
    3e5c:	7d05b703          	ld	a4,2000(a1) # 17d0 <.LBB46_5+0xb4>
    3e60:	00a70533          	add	a0,a4,a0
    3e64:	000015b7          	lui	a1,0x1
    3e68:	40b405b3          	sub	a1,s0,a1
    3e6c:	6b05b703          	ld	a4,1712(a1) # 16b0 <.LBB46_4+0x528>
    3e70:	00e50533          	add	a0,a0,a4
    3e74:	00d50533          	add	a0,a0,a3
    3e78:	0805051b          	addiw	a0,a0,128
    3e7c:	40000737          	lui	a4,0x40000
    3e80:	000015b7          	lui	a1,0x1
    3e84:	40b405b3          	sub	a1,s0,a1
    3e88:	fea5b023          	sd	a0,-32(a1) # fe0 <.LBB46_3+0xdac>
    3e8c:	f9043583          	ld	a1,-112(s0)
    3e90:	00055463          	bgez	a0,3e98 <.LBB46_86>
    3e94:	c0000737          	lui	a4,0xc0000

0000000000003e98 <.LBB46_86>:
    3e98:	f8b43823          	sd	a1,-112(s0)
    3e9c:	00001537          	lui	a0,0x1
    3ea0:	40a40533          	sub	a0,s0,a0
    3ea4:	fce53423          	sd	a4,-56(a0) # fc8 <.LBB46_3+0xd94>
    3ea8:	00001537          	lui	a0,0x1
    3eac:	40a40533          	sub	a0,s0,a0
    3eb0:	6a853503          	ld	a0,1704(a0) # 16a8 <.LBB46_4+0x520>
    3eb4:	000015b7          	lui	a1,0x1
    3eb8:	40b405b3          	sub	a1,s0,a1
    3ebc:	7d85b703          	ld	a4,2008(a1) # 17d8 <.LBB46_5+0xbc>
    3ec0:	00a70533          	add	a0,a4,a0
    3ec4:	000015b7          	lui	a1,0x1
    3ec8:	40b405b3          	sub	a1,s0,a1
    3ecc:	6a05b703          	ld	a4,1696(a1) # 16a0 <.LBB46_4+0x518>
    3ed0:	00e50533          	add	a0,a0,a4
    3ed4:	00d50533          	add	a0,a0,a3
    3ed8:	0805051b          	addiw	a0,a0,128
    3edc:	40000737          	lui	a4,0x40000
    3ee0:	000015b7          	lui	a1,0x1
    3ee4:	40b405b3          	sub	a1,s0,a1
    3ee8:	00a5b023          	sd	a0,0(a1) # 1000 <.LBB46_3+0xdcc>
    3eec:	f9043583          	ld	a1,-112(s0)
    3ef0:	00055463          	bgez	a0,3ef8 <.LBB46_88>
    3ef4:	c0000737          	lui	a4,0xc0000

0000000000003ef8 <.LBB46_88>:
    3ef8:	f8b43823          	sd	a1,-112(s0)
    3efc:	00001537          	lui	a0,0x1
    3f00:	40a40533          	sub	a0,s0,a0
    3f04:	fee53c23          	sd	a4,-8(a0) # ff8 <.LBB46_3+0xdc4>
    3f08:	00001537          	lui	a0,0x1
    3f0c:	40a40533          	sub	a0,s0,a0
    3f10:	69053503          	ld	a0,1680(a0) # 1690 <.LBB46_4+0x508>
    3f14:	000015b7          	lui	a1,0x1
    3f18:	40b405b3          	sub	a1,s0,a1
    3f1c:	7e05b703          	ld	a4,2016(a1) # 17e0 <.LBB46_5+0xc4>
    3f20:	00a70533          	add	a0,a4,a0
    3f24:	000015b7          	lui	a1,0x1
    3f28:	40b405b3          	sub	a1,s0,a1
    3f2c:	6e85b703          	ld	a4,1768(a1) # 16e8 <.LBB46_4+0x560>
    3f30:	00e50533          	add	a0,a0,a4
    3f34:	00d50533          	add	a0,a0,a3
    3f38:	0805051b          	addiw	a0,a0,128
    3f3c:	40000737          	lui	a4,0x40000
    3f40:	000015b7          	lui	a1,0x1
    3f44:	40b405b3          	sub	a1,s0,a1
    3f48:	00a5b823          	sd	a0,16(a1) # 1010 <.LBB46_3+0xddc>
    3f4c:	f9043583          	ld	a1,-112(s0)
    3f50:	00055463          	bgez	a0,3f58 <.LBB46_90>
    3f54:	c0000737          	lui	a4,0xc0000

0000000000003f58 <.LBB46_90>:
    3f58:	f8b43823          	sd	a1,-112(s0)
    3f5c:	00001537          	lui	a0,0x1
    3f60:	40a40533          	sub	a0,s0,a0
    3f64:	00e53423          	sd	a4,8(a0) # 1008 <.LBB46_3+0xdd4>
    3f68:	e9043503          	ld	a0,-368(s0)
    3f6c:	000015b7          	lui	a1,0x1
    3f70:	40b405b3          	sub	a1,s0,a1
    3f74:	7e85b703          	ld	a4,2024(a1) # 17e8 <.LBB46_5+0xcc>
    3f78:	00a70533          	add	a0,a4,a0
    3f7c:	000015b7          	lui	a1,0x1
    3f80:	40b405b3          	sub	a1,s0,a1
    3f84:	6f05b703          	ld	a4,1776(a1) # 16f0 <.LBB46_4+0x568>
    3f88:	00e50533          	add	a0,a0,a4
    3f8c:	00d50533          	add	a0,a0,a3
    3f90:	0805051b          	addiw	a0,a0,128
    3f94:	40000737          	lui	a4,0x40000
    3f98:	000015b7          	lui	a1,0x1
    3f9c:	40b405b3          	sub	a1,s0,a1
    3fa0:	02a5b023          	sd	a0,32(a1) # 1020 <.LBB46_3+0xdec>
    3fa4:	f9043583          	ld	a1,-112(s0)
    3fa8:	00055463          	bgez	a0,3fb0 <.LBB46_92>
    3fac:	c0000737          	lui	a4,0xc0000

0000000000003fb0 <.LBB46_92>:
    3fb0:	f8b43823          	sd	a1,-112(s0)
    3fb4:	00001537          	lui	a0,0x1
    3fb8:	40a40533          	sub	a0,s0,a0
    3fbc:	00e53c23          	sd	a4,24(a0) # 1018 <.LBB46_3+0xde4>
    3fc0:	e9843503          	ld	a0,-360(s0)
    3fc4:	000015b7          	lui	a1,0x1
    3fc8:	40b405b3          	sub	a1,s0,a1
    3fcc:	7f05b703          	ld	a4,2032(a1) # 17f0 <.LBB46_5+0xd4>
    3fd0:	00a70533          	add	a0,a4,a0
    3fd4:	000015b7          	lui	a1,0x1
    3fd8:	40b405b3          	sub	a1,s0,a1
    3fdc:	6f85b703          	ld	a4,1784(a1) # 16f8 <.LBB46_4+0x570>
    3fe0:	00e50533          	add	a0,a0,a4
    3fe4:	00d50533          	add	a0,a0,a3
    3fe8:	0805051b          	addiw	a0,a0,128
    3fec:	40000737          	lui	a4,0x40000
    3ff0:	000015b7          	lui	a1,0x1
    3ff4:	40b405b3          	sub	a1,s0,a1
    3ff8:	02a5b823          	sd	a0,48(a1) # 1030 <.LBB46_3+0xdfc>
    3ffc:	f9043583          	ld	a1,-112(s0)
    4000:	00055463          	bgez	a0,4008 <.LBB46_94>
    4004:	c0000737          	lui	a4,0xc0000

0000000000004008 <.LBB46_94>:
    4008:	f8b43823          	sd	a1,-112(s0)
    400c:	00001537          	lui	a0,0x1
    4010:	40a40533          	sub	a0,s0,a0
    4014:	02e53423          	sd	a4,40(a0) # 1028 <.LBB46_3+0xdf4>
    4018:	ea043503          	ld	a0,-352(s0)
    401c:	000015b7          	lui	a1,0x1
    4020:	40b405b3          	sub	a1,s0,a1
    4024:	7f85b703          	ld	a4,2040(a1) # 17f8 <.LBB46_5+0xdc>
    4028:	00a70533          	add	a0,a4,a0
    402c:	000015b7          	lui	a1,0x1
    4030:	40b405b3          	sub	a1,s0,a1
    4034:	7005b703          	ld	a4,1792(a1) # 1700 <.LBB46_4+0x578>
    4038:	00e50533          	add	a0,a0,a4
    403c:	00d50533          	add	a0,a0,a3
    4040:	0805051b          	addiw	a0,a0,128
    4044:	40000737          	lui	a4,0x40000
    4048:	000015b7          	lui	a1,0x1
    404c:	40b405b3          	sub	a1,s0,a1
    4050:	04a5b023          	sd	a0,64(a1) # 1040 <.LBB46_3+0xe0c>
    4054:	f9043583          	ld	a1,-112(s0)
    4058:	00055463          	bgez	a0,4060 <.LBB46_96>
    405c:	c0000737          	lui	a4,0xc0000

0000000000004060 <.LBB46_96>:
    4060:	f8b43823          	sd	a1,-112(s0)
    4064:	00001537          	lui	a0,0x1
    4068:	40a40533          	sub	a0,s0,a0
    406c:	02e53c23          	sd	a4,56(a0) # 1038 <.LBB46_3+0xe04>
    4070:	ea843503          	ld	a0,-344(s0)
    4074:	80043703          	ld	a4,-2048(s0)
    4078:	00a70533          	add	a0,a4,a0
    407c:	01a50533          	add	a0,a0,s10
    4080:	00d50533          	add	a0,a0,a3
    4084:	0805051b          	addiw	a0,a0,128
    4088:	40000737          	lui	a4,0x40000
    408c:	000015b7          	lui	a1,0x1
    4090:	40b405b3          	sub	a1,s0,a1
    4094:	04a5b823          	sd	a0,80(a1) # 1050 <.LBB46_3+0xe1c>
    4098:	f9043583          	ld	a1,-112(s0)
    409c:	00055463          	bgez	a0,40a4 <.LBB46_98>
    40a0:	c0000737          	lui	a4,0xc0000

00000000000040a4 <.LBB46_98>:
    40a4:	f8b43823          	sd	a1,-112(s0)
    40a8:	00001537          	lui	a0,0x1
    40ac:	40a40533          	sub	a0,s0,a0
    40b0:	04e53423          	sd	a4,72(a0) # 1048 <.LBB46_3+0xe14>
    40b4:	eb043503          	ld	a0,-336(s0)
    40b8:	80843703          	ld	a4,-2040(s0)
    40bc:	00a70533          	add	a0,a4,a0
    40c0:	000015b7          	lui	a1,0x1
    40c4:	40b405b3          	sub	a1,s0,a1
    40c8:	7105b703          	ld	a4,1808(a1) # 1710 <.LBB46_4+0x588>
    40cc:	00e50533          	add	a0,a0,a4
    40d0:	00d50533          	add	a0,a0,a3
    40d4:	0805051b          	addiw	a0,a0,128
    40d8:	40000737          	lui	a4,0x40000
    40dc:	000015b7          	lui	a1,0x1
    40e0:	40b405b3          	sub	a1,s0,a1
    40e4:	06a5b023          	sd	a0,96(a1) # 1060 <.LBB46_3+0xe2c>
    40e8:	f9043583          	ld	a1,-112(s0)
    40ec:	00055463          	bgez	a0,40f4 <.LBB46_100>
    40f0:	c0000737          	lui	a4,0xc0000

00000000000040f4 <.LBB46_100>:
    40f4:	f8b43823          	sd	a1,-112(s0)
    40f8:	00001537          	lui	a0,0x1
    40fc:	40a40533          	sub	a0,s0,a0
    4100:	04e53c23          	sd	a4,88(a0) # 1058 <.LBB46_3+0xe24>
    4104:	f0843503          	ld	a0,-248(s0)
    4108:	81043703          	ld	a4,-2032(s0)
    410c:	00a70533          	add	a0,a4,a0
    4110:	000015b7          	lui	a1,0x1
    4114:	40b405b3          	sub	a1,s0,a1
    4118:	7185b703          	ld	a4,1816(a1) # 1718 <.LBB46_4+0x590>
    411c:	00e50533          	add	a0,a0,a4
    4120:	00d50533          	add	a0,a0,a3
    4124:	0805051b          	addiw	a0,a0,128
    4128:	40000737          	lui	a4,0x40000
    412c:	000015b7          	lui	a1,0x1
    4130:	40b405b3          	sub	a1,s0,a1
    4134:	06a5b823          	sd	a0,112(a1) # 1070 <.LBB46_3+0xe3c>
    4138:	f9043583          	ld	a1,-112(s0)
    413c:	00055463          	bgez	a0,4144 <.LBB46_102>
    4140:	c0000737          	lui	a4,0xc0000

0000000000004144 <.LBB46_102>:
    4144:	f8b43823          	sd	a1,-112(s0)
    4148:	00001537          	lui	a0,0x1
    414c:	40a40533          	sub	a0,s0,a0
    4150:	06e53423          	sd	a4,104(a0) # 1068 <.LBB46_3+0xe34>
    4154:	f1043503          	ld	a0,-240(s0)
    4158:	81843703          	ld	a4,-2024(s0)
    415c:	00a70533          	add	a0,a4,a0
    4160:	000015b7          	lui	a1,0x1
    4164:	40b405b3          	sub	a1,s0,a1
    4168:	7205b703          	ld	a4,1824(a1) # 1720 <.LBB46_5+0x4>
    416c:	00e50533          	add	a0,a0,a4
    4170:	00d50533          	add	a0,a0,a3
    4174:	0805051b          	addiw	a0,a0,128
    4178:	40000737          	lui	a4,0x40000
    417c:	000015b7          	lui	a1,0x1
    4180:	40b405b3          	sub	a1,s0,a1
    4184:	08a5b023          	sd	a0,128(a1) # 1080 <.LBB46_3+0xe4c>
    4188:	f9043583          	ld	a1,-112(s0)
    418c:	00055463          	bgez	a0,4194 <.LBB46_104>
    4190:	c0000737          	lui	a4,0xc0000

0000000000004194 <.LBB46_104>:
    4194:	f8b43823          	sd	a1,-112(s0)
    4198:	00001537          	lui	a0,0x1
    419c:	40a40533          	sub	a0,s0,a0
    41a0:	06e53c23          	sd	a4,120(a0) # 1078 <.LBB46_3+0xe44>
    41a4:	f1843503          	ld	a0,-232(s0)
    41a8:	82043703          	ld	a4,-2016(s0)
    41ac:	00a70533          	add	a0,a4,a0
    41b0:	000015b7          	lui	a1,0x1
    41b4:	40b405b3          	sub	a1,s0,a1
    41b8:	7285b703          	ld	a4,1832(a1) # 1728 <.LBB46_5+0xc>
    41bc:	00e50533          	add	a0,a0,a4
    41c0:	00d50533          	add	a0,a0,a3
    41c4:	0805051b          	addiw	a0,a0,128
    41c8:	40000737          	lui	a4,0x40000
    41cc:	000015b7          	lui	a1,0x1
    41d0:	40b405b3          	sub	a1,s0,a1
    41d4:	08a5b823          	sd	a0,144(a1) # 1090 <.LBB46_3+0xe5c>
    41d8:	f9043583          	ld	a1,-112(s0)
    41dc:	00055463          	bgez	a0,41e4 <.LBB46_106>
    41e0:	c0000737          	lui	a4,0xc0000

00000000000041e4 <.LBB46_106>:
    41e4:	f8b43823          	sd	a1,-112(s0)
    41e8:	00001537          	lui	a0,0x1
    41ec:	40a40533          	sub	a0,s0,a0
    41f0:	08e53423          	sd	a4,136(a0) # 1088 <.LBB46_3+0xe54>
    41f4:	f2043503          	ld	a0,-224(s0)
    41f8:	82843703          	ld	a4,-2008(s0)
    41fc:	00a70533          	add	a0,a4,a0
    4200:	000015b7          	lui	a1,0x1
    4204:	40b405b3          	sub	a1,s0,a1
    4208:	7305b703          	ld	a4,1840(a1) # 1730 <.LBB46_5+0x14>
    420c:	00e50533          	add	a0,a0,a4
    4210:	00d50533          	add	a0,a0,a3
    4214:	0805051b          	addiw	a0,a0,128
    4218:	40000737          	lui	a4,0x40000
    421c:	000015b7          	lui	a1,0x1
    4220:	40b405b3          	sub	a1,s0,a1
    4224:	0aa5b023          	sd	a0,160(a1) # 10a0 <.LBB46_3+0xe6c>
    4228:	f9043583          	ld	a1,-112(s0)
    422c:	00055463          	bgez	a0,4234 <.LBB46_108>
    4230:	c0000737          	lui	a4,0xc0000

0000000000004234 <.LBB46_108>:
    4234:	00001537          	lui	a0,0x1
    4238:	40a40533          	sub	a0,s0,a0
    423c:	08e53c23          	sd	a4,152(a0) # 1098 <.LBB46_3+0xe64>
    4240:	f2843503          	ld	a0,-216(s0)
    4244:	83043703          	ld	a4,-2000(s0)
    4248:	00a70533          	add	a0,a4,a0
    424c:	00001737          	lui	a4,0x1
    4250:	40e40733          	sub	a4,s0,a4
    4254:	73873703          	ld	a4,1848(a4) # 1738 <.LBB46_5+0x1c>
    4258:	00e50533          	add	a0,a0,a4
    425c:	00d50533          	add	a0,a0,a3
    4260:	0805051b          	addiw	a0,a0,128
    4264:	40000737          	lui	a4,0x40000
    4268:	80a43423          	sd	a0,-2040(s0)
    426c:	00055463          	bgez	a0,4274 <.LBB46_110>
    4270:	c0000737          	lui	a4,0xc0000

0000000000004274 <.LBB46_110>:
    4274:	f8b43823          	sd	a1,-112(s0)
    4278:	00001537          	lui	a0,0x1
    427c:	40a40533          	sub	a0,s0,a0
    4280:	0ae53423          	sd	a4,168(a0) # 10a8 <.LBB46_3+0xe74>
    4284:	f3043503          	ld	a0,-208(s0)
    4288:	83843703          	ld	a4,-1992(s0)
    428c:	00a70533          	add	a0,a4,a0
    4290:	000015b7          	lui	a1,0x1
    4294:	40b405b3          	sub	a1,s0,a1
    4298:	7405b703          	ld	a4,1856(a1) # 1740 <.LBB46_5+0x24>
    429c:	00e50533          	add	a0,a0,a4
    42a0:	00d50533          	add	a0,a0,a3
    42a4:	0805051b          	addiw	a0,a0,128
    42a8:	40000737          	lui	a4,0x40000
    42ac:	000015b7          	lui	a1,0x1
    42b0:	40b405b3          	sub	a1,s0,a1
    42b4:	7ca5b823          	sd	a0,2000(a1) # 17d0 <.LBB46_5+0xb4>
    42b8:	f9043583          	ld	a1,-112(s0)
    42bc:	00055463          	bgez	a0,42c4 <.LBB46_112>
    42c0:	c0000737          	lui	a4,0xc0000

00000000000042c4 <.LBB46_112>:
    42c4:	f8b43823          	sd	a1,-112(s0)
    42c8:	00001537          	lui	a0,0x1
    42cc:	40a40533          	sub	a0,s0,a0
    42d0:	0ae53823          	sd	a4,176(a0) # 10b0 <.LBB46_3+0xe7c>
    42d4:	f3843503          	ld	a0,-200(s0)
    42d8:	84043703          	ld	a4,-1984(s0)
    42dc:	00a70533          	add	a0,a4,a0
    42e0:	000015b7          	lui	a1,0x1
    42e4:	40b405b3          	sub	a1,s0,a1
    42e8:	7485b703          	ld	a4,1864(a1) # 1748 <.LBB46_5+0x2c>
    42ec:	00e50533          	add	a0,a0,a4
    42f0:	00d50533          	add	a0,a0,a3
    42f4:	0805051b          	addiw	a0,a0,128
    42f8:	40000737          	lui	a4,0x40000
    42fc:	000015b7          	lui	a1,0x1
    4300:	40b405b3          	sub	a1,s0,a1
    4304:	0ca5b023          	sd	a0,192(a1) # 10c0 <.LBB46_3+0xe8c>
    4308:	f9043583          	ld	a1,-112(s0)
    430c:	00055463          	bgez	a0,4314 <.LBB46_114>
    4310:	c0000737          	lui	a4,0xc0000

0000000000004314 <.LBB46_114>:
    4314:	f8b43823          	sd	a1,-112(s0)
    4318:	00001537          	lui	a0,0x1
    431c:	40a40533          	sub	a0,s0,a0
    4320:	0ae53c23          	sd	a4,184(a0) # 10b8 <.LBB46_3+0xe84>
    4324:	f4043503          	ld	a0,-192(s0)
    4328:	84843703          	ld	a4,-1976(s0)
    432c:	00a70533          	add	a0,a4,a0
    4330:	000015b7          	lui	a1,0x1
    4334:	40b405b3          	sub	a1,s0,a1
    4338:	7505b703          	ld	a4,1872(a1) # 1750 <.LBB46_5+0x34>
    433c:	00e50533          	add	a0,a0,a4
    4340:	00d50533          	add	a0,a0,a3
    4344:	0805051b          	addiw	a0,a0,128
    4348:	40000737          	lui	a4,0x40000
    434c:	000015b7          	lui	a1,0x1
    4350:	40b405b3          	sub	a1,s0,a1
    4354:	0ca5b823          	sd	a0,208(a1) # 10d0 <.LBB46_3+0xe9c>
    4358:	f9043583          	ld	a1,-112(s0)
    435c:	00055463          	bgez	a0,4364 <.LBB46_116>
    4360:	c0000737          	lui	a4,0xc0000

0000000000004364 <.LBB46_116>:
    4364:	f8b43823          	sd	a1,-112(s0)
    4368:	00001537          	lui	a0,0x1
    436c:	40a40533          	sub	a0,s0,a0
    4370:	0ce53423          	sd	a4,200(a0) # 10c8 <.LBB46_3+0xe94>
    4374:	f4843503          	ld	a0,-184(s0)
    4378:	85043703          	ld	a4,-1968(s0)
    437c:	00a70533          	add	a0,a4,a0
    4380:	000015b7          	lui	a1,0x1
    4384:	40b405b3          	sub	a1,s0,a1
    4388:	7585b703          	ld	a4,1880(a1) # 1758 <.LBB46_5+0x3c>
    438c:	00e50533          	add	a0,a0,a4
    4390:	00d50533          	add	a0,a0,a3
    4394:	0805051b          	addiw	a0,a0,128
    4398:	40000737          	lui	a4,0x40000
    439c:	000015b7          	lui	a1,0x1
    43a0:	40b405b3          	sub	a1,s0,a1
    43a4:	0ea5b023          	sd	a0,224(a1) # 10e0 <.LBB46_3+0xeac>
    43a8:	f9043583          	ld	a1,-112(s0)
    43ac:	00055463          	bgez	a0,43b4 <.LBB46_118>
    43b0:	c0000737          	lui	a4,0xc0000

00000000000043b4 <.LBB46_118>:
    43b4:	f8b43823          	sd	a1,-112(s0)
    43b8:	00001537          	lui	a0,0x1
    43bc:	40a40533          	sub	a0,s0,a0
    43c0:	0ce53c23          	sd	a4,216(a0) # 10d8 <.LBB46_3+0xea4>
    43c4:	f5043503          	ld	a0,-176(s0)
    43c8:	85843703          	ld	a4,-1960(s0)
    43cc:	00a70533          	add	a0,a4,a0
    43d0:	000015b7          	lui	a1,0x1
    43d4:	40b405b3          	sub	a1,s0,a1
    43d8:	7605b703          	ld	a4,1888(a1) # 1760 <.LBB46_5+0x44>
    43dc:	00e50533          	add	a0,a0,a4
    43e0:	00d50533          	add	a0,a0,a3
    43e4:	0805051b          	addiw	a0,a0,128
    43e8:	40000737          	lui	a4,0x40000
    43ec:	000015b7          	lui	a1,0x1
    43f0:	40b405b3          	sub	a1,s0,a1
    43f4:	0ea5b823          	sd	a0,240(a1) # 10f0 <.LBB46_3+0xebc>
    43f8:	f9043583          	ld	a1,-112(s0)
    43fc:	00055463          	bgez	a0,4404 <.LBB46_120>
    4400:	c0000737          	lui	a4,0xc0000

0000000000004404 <.LBB46_120>:
    4404:	f8b43823          	sd	a1,-112(s0)
    4408:	00001537          	lui	a0,0x1
    440c:	40a40533          	sub	a0,s0,a0
    4410:	0ee53423          	sd	a4,232(a0) # 10e8 <.LBB46_3+0xeb4>
    4414:	f5843503          	ld	a0,-168(s0)
    4418:	86043703          	ld	a4,-1952(s0)
    441c:	00a70533          	add	a0,a4,a0
    4420:	000015b7          	lui	a1,0x1
    4424:	40b405b3          	sub	a1,s0,a1
    4428:	7685b703          	ld	a4,1896(a1) # 1768 <.LBB46_5+0x4c>
    442c:	00e50533          	add	a0,a0,a4
    4430:	00d50533          	add	a0,a0,a3
    4434:	0805051b          	addiw	a0,a0,128
    4438:	40000737          	lui	a4,0x40000
    443c:	000015b7          	lui	a1,0x1
    4440:	40b405b3          	sub	a1,s0,a1
    4444:	10a5b023          	sd	a0,256(a1) # 1100 <.LBB46_3+0xecc>
    4448:	f9043583          	ld	a1,-112(s0)
    444c:	00055463          	bgez	a0,4454 <.LBB46_122>
    4450:	c0000737          	lui	a4,0xc0000

0000000000004454 <.LBB46_122>:
    4454:	f8b43823          	sd	a1,-112(s0)
    4458:	00001537          	lui	a0,0x1
    445c:	40a40533          	sub	a0,s0,a0
    4460:	0ee53c23          	sd	a4,248(a0) # 10f8 <.LBB46_3+0xec4>
    4464:	f6043503          	ld	a0,-160(s0)
    4468:	86843703          	ld	a4,-1944(s0)
    446c:	00a70533          	add	a0,a4,a0
    4470:	000015b7          	lui	a1,0x1
    4474:	40b405b3          	sub	a1,s0,a1
    4478:	7705b703          	ld	a4,1904(a1) # 1770 <.LBB46_5+0x54>
    447c:	00e50533          	add	a0,a0,a4
    4480:	00d50533          	add	a0,a0,a3
    4484:	0805051b          	addiw	a0,a0,128
    4488:	40000737          	lui	a4,0x40000
    448c:	000015b7          	lui	a1,0x1
    4490:	40b405b3          	sub	a1,s0,a1
    4494:	10a5b823          	sd	a0,272(a1) # 1110 <.LBB46_3+0xedc>
    4498:	f9043583          	ld	a1,-112(s0)
    449c:	00055463          	bgez	a0,44a4 <.LBB46_124>
    44a0:	c0000737          	lui	a4,0xc0000

00000000000044a4 <.LBB46_124>:
    44a4:	f8b43823          	sd	a1,-112(s0)
    44a8:	00001537          	lui	a0,0x1
    44ac:	40a40533          	sub	a0,s0,a0
    44b0:	10e53423          	sd	a4,264(a0) # 1108 <.LBB46_3+0xed4>
    44b4:	f6843503          	ld	a0,-152(s0)
    44b8:	87043703          	ld	a4,-1936(s0)
    44bc:	00a70533          	add	a0,a4,a0
    44c0:	000015b7          	lui	a1,0x1
    44c4:	40b405b3          	sub	a1,s0,a1
    44c8:	7785b703          	ld	a4,1912(a1) # 1778 <.LBB46_5+0x5c>
    44cc:	00e50533          	add	a0,a0,a4
    44d0:	00d50533          	add	a0,a0,a3
    44d4:	0805051b          	addiw	a0,a0,128
    44d8:	40000737          	lui	a4,0x40000
    44dc:	000015b7          	lui	a1,0x1
    44e0:	40b405b3          	sub	a1,s0,a1
    44e4:	12a5b023          	sd	a0,288(a1) # 1120 <.LBB46_3+0xeec>
    44e8:	f9043583          	ld	a1,-112(s0)
    44ec:	00055463          	bgez	a0,44f4 <.LBB46_126>
    44f0:	c0000737          	lui	a4,0xc0000

00000000000044f4 <.LBB46_126>:
    44f4:	f8b43823          	sd	a1,-112(s0)
    44f8:	00001537          	lui	a0,0x1
    44fc:	40a40533          	sub	a0,s0,a0
    4500:	10e53c23          	sd	a4,280(a0) # 1118 <.LBB46_3+0xee4>
    4504:	f7043503          	ld	a0,-144(s0)
    4508:	87843703          	ld	a4,-1928(s0)
    450c:	00a70533          	add	a0,a4,a0
    4510:	000015b7          	lui	a1,0x1
    4514:	40b405b3          	sub	a1,s0,a1
    4518:	7085b703          	ld	a4,1800(a1) # 1708 <.LBB46_4+0x580>
    451c:	00e50533          	add	a0,a0,a4
    4520:	00d50533          	add	a0,a0,a3
    4524:	0805051b          	addiw	a0,a0,128
    4528:	40000737          	lui	a4,0x40000
    452c:	000015b7          	lui	a1,0x1
    4530:	40b405b3          	sub	a1,s0,a1
    4534:	12a5b823          	sd	a0,304(a1) # 1130 <.LBB46_3+0xefc>
    4538:	f9043583          	ld	a1,-112(s0)
    453c:	00055463          	bgez	a0,4544 <.LBB46_128>
    4540:	c0000737          	lui	a4,0xc0000

0000000000004544 <.LBB46_128>:
    4544:	f8b43823          	sd	a1,-112(s0)
    4548:	00001537          	lui	a0,0x1
    454c:	40a40533          	sub	a0,s0,a0
    4550:	12e53423          	sd	a4,296(a0) # 1128 <.LBB46_3+0xef4>
    4554:	f7843503          	ld	a0,-136(s0)
    4558:	88043703          	ld	a4,-1920(s0)
    455c:	00a70533          	add	a0,a4,a0
    4560:	000015b7          	lui	a1,0x1
    4564:	40b405b3          	sub	a1,s0,a1
    4568:	7805b703          	ld	a4,1920(a1) # 1780 <.LBB46_5+0x64>
    456c:	00e50533          	add	a0,a0,a4
    4570:	00d50533          	add	a0,a0,a3
    4574:	0805051b          	addiw	a0,a0,128
    4578:	40000737          	lui	a4,0x40000
    457c:	000015b7          	lui	a1,0x1
    4580:	40b405b3          	sub	a1,s0,a1
    4584:	14a5b023          	sd	a0,320(a1) # 1140 <.LBB46_3+0xf0c>
    4588:	f9043583          	ld	a1,-112(s0)
    458c:	00055463          	bgez	a0,4594 <.LBB46_130>
    4590:	c0000737          	lui	a4,0xc0000

0000000000004594 <.LBB46_130>:
    4594:	00001537          	lui	a0,0x1
    4598:	40a40533          	sub	a0,s0,a0
    459c:	12e53c23          	sd	a4,312(a0) # 1138 <.LBB46_3+0xf04>
    45a0:	f8043503          	ld	a0,-128(s0)
    45a4:	00a88533          	add	a0,a7,a0
    45a8:	00001737          	lui	a4,0x1
    45ac:	40e40733          	sub	a4,s0,a4
    45b0:	78873703          	ld	a4,1928(a4) # 1788 <.LBB46_5+0x6c>
    45b4:	00e50533          	add	a0,a0,a4
    45b8:	00d50533          	add	a0,a0,a3
    45bc:	0805051b          	addiw	a0,a0,128
    45c0:	40000737          	lui	a4,0x40000
    45c4:	000018b7          	lui	a7,0x1
    45c8:	411408b3          	sub	a7,s0,a7
    45cc:	14a8b823          	sd	a0,336(a7) # 1150 <.LBB46_3+0xf1c>
    45d0:	00055463          	bgez	a0,45d8 <.LBB46_132>
    45d4:	c0000737          	lui	a4,0xc0000

00000000000045d8 <.LBB46_132>:
    45d8:	000a8893          	mv	a7,s5
    45dc:	00001537          	lui	a0,0x1
    45e0:	40a40533          	sub	a0,s0,a0
    45e4:	14e53423          	sd	a4,328(a0) # 1148 <.LBB46_3+0xf14>
    45e8:	f8843503          	ld	a0,-120(s0)
    45ec:	89043703          	ld	a4,-1904(s0)
    45f0:	00a70533          	add	a0,a4,a0
    45f4:	00001737          	lui	a4,0x1
    45f8:	40e40733          	sub	a4,s0,a4
    45fc:	79073703          	ld	a4,1936(a4) # 1790 <.LBB46_5+0x74>
    4600:	00e50533          	add	a0,a0,a4
    4604:	00d50533          	add	a0,a0,a3
    4608:	0805051b          	addiw	a0,a0,128
    460c:	40000737          	lui	a4,0x40000
    4610:	000016b7          	lui	a3,0x1
    4614:	40d406b3          	sub	a3,s0,a3
    4618:	14a6bc23          	sd	a0,344(a3) # 1158 <.LBB46_3+0xf24>
    461c:	00055463          	bgez	a0,4624 <.LBB46_134>
    4620:	c0000737          	lui	a4,0xc0000

0000000000004624 <.LBB46_134>:
    4624:	e8843503          	ld	a0,-376(s0)
    4628:	89843683          	ld	a3,-1896(s0)
    462c:	00a68533          	add	a0,a3,a0
    4630:	e8043683          	ld	a3,-384(s0)
    4634:	00d50533          	add	a0,a0,a3
    4638:	00c50533          	add	a0,a0,a2
    463c:	0805051b          	addiw	a0,a0,128
    4640:	40000ab7          	lui	s5,0x40000
    4644:	e3043683          	ld	a3,-464(s0)
    4648:	f8b43823          	sd	a1,-112(s0)
    464c:	000015b7          	lui	a1,0x1
    4650:	40b405b3          	sub	a1,s0,a1
    4654:	16a5b423          	sd	a0,360(a1) # 1168 <.LBB46_3+0xf34>
    4658:	f9043583          	ld	a1,-112(s0)
    465c:	00055463          	bgez	a0,4664 <.LBB46_136>
    4660:	c0000ab7          	lui	s5,0xc0000

0000000000004664 <.LBB46_136>:
    4664:	f8b43823          	sd	a1,-112(s0)
    4668:	00001537          	lui	a0,0x1
    466c:	40a40533          	sub	a0,s0,a0
    4670:	17553023          	sd	s5,352(a0) # 1160 <.LBB46_3+0xf2c>
    4674:	e7843503          	ld	a0,-392(s0)
    4678:	8a043a83          	ld	s5,-1888(s0)
    467c:	00aa8533          	add	a0,s5,a0
    4680:	e7043a83          	ld	s5,-400(s0)
    4684:	01550533          	add	a0,a0,s5
    4688:	00c50533          	add	a0,a0,a2
    468c:	0805051b          	addiw	a0,a0,128
    4690:	40000ab7          	lui	s5,0x40000
    4694:	000015b7          	lui	a1,0x1
    4698:	40b405b3          	sub	a1,s0,a1
    469c:	16a5bc23          	sd	a0,376(a1) # 1178 <.LBB46_3+0xf44>
    46a0:	f9043583          	ld	a1,-112(s0)
    46a4:	00055463          	bgez	a0,46ac <.LBB46_138>
    46a8:	c0000ab7          	lui	s5,0xc0000

00000000000046ac <.LBB46_138>:
    46ac:	f8b43823          	sd	a1,-112(s0)
    46b0:	00001537          	lui	a0,0x1
    46b4:	40a40533          	sub	a0,s0,a0
    46b8:	17553823          	sd	s5,368(a0) # 1170 <.LBB46_3+0xf3c>
    46bc:	e6843503          	ld	a0,-408(s0)
    46c0:	8a843a83          	ld	s5,-1880(s0)
    46c4:	00aa8533          	add	a0,s5,a0
    46c8:	e6043a83          	ld	s5,-416(s0)
    46cc:	01550533          	add	a0,a0,s5
    46d0:	00c50533          	add	a0,a0,a2
    46d4:	0805051b          	addiw	a0,a0,128
    46d8:	40000ab7          	lui	s5,0x40000
    46dc:	000015b7          	lui	a1,0x1
    46e0:	40b405b3          	sub	a1,s0,a1
    46e4:	18a5b423          	sd	a0,392(a1) # 1188 <.LBB46_4>
    46e8:	f9043583          	ld	a1,-112(s0)
    46ec:	00055463          	bgez	a0,46f4 <.LBB46_140>
    46f0:	c0000ab7          	lui	s5,0xc0000

00000000000046f4 <.LBB46_140>:
    46f4:	f8b43823          	sd	a1,-112(s0)
    46f8:	00001537          	lui	a0,0x1
    46fc:	40a40533          	sub	a0,s0,a0
    4700:	19553023          	sd	s5,384(a0) # 1180 <.LBB46_3+0xf4c>
    4704:	e5843503          	ld	a0,-424(s0)
    4708:	8b043a83          	ld	s5,-1872(s0)
    470c:	00aa8533          	add	a0,s5,a0
    4710:	e5043a83          	ld	s5,-432(s0)
    4714:	01550533          	add	a0,a0,s5
    4718:	00c50533          	add	a0,a0,a2
    471c:	0805051b          	addiw	a0,a0,128
    4720:	40000ab7          	lui	s5,0x40000
    4724:	000015b7          	lui	a1,0x1
    4728:	40b405b3          	sub	a1,s0,a1
    472c:	18a5bc23          	sd	a0,408(a1) # 1198 <.LBB46_4+0x10>
    4730:	f9043583          	ld	a1,-112(s0)
    4734:	00055463          	bgez	a0,473c <.LBB46_142>
    4738:	c0000ab7          	lui	s5,0xc0000

000000000000473c <.LBB46_142>:
    473c:	f8b43823          	sd	a1,-112(s0)
    4740:	00001537          	lui	a0,0x1
    4744:	40a40533          	sub	a0,s0,a0
    4748:	19553823          	sd	s5,400(a0) # 1190 <.LBB46_4+0x8>
    474c:	e4843503          	ld	a0,-440(s0)
    4750:	8b843a83          	ld	s5,-1864(s0)
    4754:	00aa8533          	add	a0,s5,a0
    4758:	000015b7          	lui	a1,0x1
    475c:	40b405b3          	sub	a1,s0,a1
    4760:	6e05ba83          	ld	s5,1760(a1) # 16e0 <.LBB46_4+0x558>
    4764:	01550533          	add	a0,a0,s5
    4768:	00c50533          	add	a0,a0,a2
    476c:	0805051b          	addiw	a0,a0,128
    4770:	40000ab7          	lui	s5,0x40000
    4774:	000015b7          	lui	a1,0x1
    4778:	40b405b3          	sub	a1,s0,a1
    477c:	1aa5b423          	sd	a0,424(a1) # 11a8 <.LBB46_4+0x20>
    4780:	f9043583          	ld	a1,-112(s0)
    4784:	00055463          	bgez	a0,478c <.LBB46_144>
    4788:	c0000ab7          	lui	s5,0xc0000

000000000000478c <.LBB46_144>:
    478c:	f8b43823          	sd	a1,-112(s0)
    4790:	00001537          	lui	a0,0x1
    4794:	40a40533          	sub	a0,s0,a0
    4798:	1b553023          	sd	s5,416(a0) # 11a0 <.LBB46_4+0x18>
    479c:	00001537          	lui	a0,0x1
    47a0:	40a40533          	sub	a0,s0,a0
    47a4:	6d853503          	ld	a0,1752(a0) # 16d8 <.LBB46_4+0x550>
    47a8:	8c043a83          	ld	s5,-1856(s0)
    47ac:	00aa8533          	add	a0,s5,a0
    47b0:	000015b7          	lui	a1,0x1
    47b4:	40b405b3          	sub	a1,s0,a1
    47b8:	6d05ba83          	ld	s5,1744(a1) # 16d0 <.LBB46_4+0x548>
    47bc:	01550533          	add	a0,a0,s5
    47c0:	00c50533          	add	a0,a0,a2
    47c4:	0805051b          	addiw	a0,a0,128
    47c8:	40000ab7          	lui	s5,0x40000
    47cc:	000015b7          	lui	a1,0x1
    47d0:	40b405b3          	sub	a1,s0,a1
    47d4:	1aa5bc23          	sd	a0,440(a1) # 11b8 <.LBB46_4+0x30>
    47d8:	f9043583          	ld	a1,-112(s0)
    47dc:	00055463          	bgez	a0,47e4 <.LBB46_146>
    47e0:	c0000ab7          	lui	s5,0xc0000

00000000000047e4 <.LBB46_146>:
    47e4:	f8b43823          	sd	a1,-112(s0)
    47e8:	00001537          	lui	a0,0x1
    47ec:	40a40533          	sub	a0,s0,a0
    47f0:	1b553823          	sd	s5,432(a0) # 11b0 <.LBB46_4+0x28>
    47f4:	00001537          	lui	a0,0x1
    47f8:	40a40533          	sub	a0,s0,a0
    47fc:	6c853503          	ld	a0,1736(a0) # 16c8 <.LBB46_4+0x540>
    4800:	8c843a83          	ld	s5,-1848(s0)
    4804:	00aa8533          	add	a0,s5,a0
    4808:	000015b7          	lui	a1,0x1
    480c:	40b405b3          	sub	a1,s0,a1
    4810:	6c05ba83          	ld	s5,1728(a1) # 16c0 <.LBB46_4+0x538>
    4814:	01550533          	add	a0,a0,s5
    4818:	00c50533          	add	a0,a0,a2
    481c:	0805051b          	addiw	a0,a0,128
    4820:	40000ab7          	lui	s5,0x40000
    4824:	000015b7          	lui	a1,0x1
    4828:	40b405b3          	sub	a1,s0,a1
    482c:	1ca5b423          	sd	a0,456(a1) # 11c8 <.LBB46_4+0x40>
    4830:	f9043583          	ld	a1,-112(s0)
    4834:	00055463          	bgez	a0,483c <.LBB46_148>
    4838:	c0000ab7          	lui	s5,0xc0000

000000000000483c <.LBB46_148>:
    483c:	f8b43823          	sd	a1,-112(s0)
    4840:	00001537          	lui	a0,0x1
    4844:	40a40533          	sub	a0,s0,a0
    4848:	1d553023          	sd	s5,448(a0) # 11c0 <.LBB46_4+0x38>
    484c:	8d043503          	ld	a0,-1840(s0)
    4850:	000015b7          	lui	a1,0x1
    4854:	40b405b3          	sub	a1,s0,a1
    4858:	6b85ba83          	ld	s5,1720(a1) # 16b8 <.LBB46_4+0x530>
    485c:	01550533          	add	a0,a0,s5
    4860:	000015b7          	lui	a1,0x1
    4864:	40b405b3          	sub	a1,s0,a1
    4868:	6b05ba83          	ld	s5,1712(a1) # 16b0 <.LBB46_4+0x528>
    486c:	01550533          	add	a0,a0,s5
    4870:	00c50533          	add	a0,a0,a2
    4874:	0805051b          	addiw	a0,a0,128
    4878:	40000ab7          	lui	s5,0x40000
    487c:	000015b7          	lui	a1,0x1
    4880:	40b405b3          	sub	a1,s0,a1
    4884:	1ca5bc23          	sd	a0,472(a1) # 11d8 <.LBB46_4+0x50>
    4888:	f9043583          	ld	a1,-112(s0)
    488c:	00055463          	bgez	a0,4894 <.LBB46_150>
    4890:	c0000ab7          	lui	s5,0xc0000

0000000000004894 <.LBB46_150>:
    4894:	f8b43823          	sd	a1,-112(s0)
    4898:	00001537          	lui	a0,0x1
    489c:	40a40533          	sub	a0,s0,a0
    48a0:	1d553823          	sd	s5,464(a0) # 11d0 <.LBB46_4+0x48>
    48a4:	8d843503          	ld	a0,-1832(s0)
    48a8:	000015b7          	lui	a1,0x1
    48ac:	40b405b3          	sub	a1,s0,a1
    48b0:	6a85ba83          	ld	s5,1704(a1) # 16a8 <.LBB46_4+0x520>
    48b4:	01550533          	add	a0,a0,s5
    48b8:	000015b7          	lui	a1,0x1
    48bc:	40b405b3          	sub	a1,s0,a1
    48c0:	6a05ba83          	ld	s5,1696(a1) # 16a0 <.LBB46_4+0x518>
    48c4:	01550533          	add	a0,a0,s5
    48c8:	00c50533          	add	a0,a0,a2
    48cc:	0805051b          	addiw	a0,a0,128
    48d0:	40000ab7          	lui	s5,0x40000
    48d4:	000015b7          	lui	a1,0x1
    48d8:	40b405b3          	sub	a1,s0,a1
    48dc:	1ea5b423          	sd	a0,488(a1) # 11e8 <.LBB46_4+0x60>
    48e0:	f9043583          	ld	a1,-112(s0)
    48e4:	00055463          	bgez	a0,48ec <.LBB46_152>
    48e8:	c0000ab7          	lui	s5,0xc0000

00000000000048ec <.LBB46_152>:
    48ec:	f8b43823          	sd	a1,-112(s0)
    48f0:	00001537          	lui	a0,0x1
    48f4:	40a40533          	sub	a0,s0,a0
    48f8:	1f553023          	sd	s5,480(a0) # 11e0 <.LBB46_4+0x58>
    48fc:	8e043503          	ld	a0,-1824(s0)
    4900:	000015b7          	lui	a1,0x1
    4904:	40b405b3          	sub	a1,s0,a1
    4908:	6905ba83          	ld	s5,1680(a1) # 1690 <.LBB46_4+0x508>
    490c:	01550533          	add	a0,a0,s5
    4910:	000015b7          	lui	a1,0x1
    4914:	40b405b3          	sub	a1,s0,a1
    4918:	6e85ba83          	ld	s5,1768(a1) # 16e8 <.LBB46_4+0x560>
    491c:	01550533          	add	a0,a0,s5
    4920:	00c50533          	add	a0,a0,a2
    4924:	0805051b          	addiw	a0,a0,128
    4928:	40000ab7          	lui	s5,0x40000
    492c:	000015b7          	lui	a1,0x1
    4930:	40b405b3          	sub	a1,s0,a1
    4934:	1ea5bc23          	sd	a0,504(a1) # 11f8 <.LBB46_4+0x70>
    4938:	f9043583          	ld	a1,-112(s0)
    493c:	00055463          	bgez	a0,4944 <.LBB46_154>
    4940:	c0000ab7          	lui	s5,0xc0000

0000000000004944 <.LBB46_154>:
    4944:	f8b43823          	sd	a1,-112(s0)
    4948:	00001537          	lui	a0,0x1
    494c:	40a40533          	sub	a0,s0,a0
    4950:	1f553823          	sd	s5,496(a0) # 11f0 <.LBB46_4+0x68>
    4954:	8e843503          	ld	a0,-1816(s0)
    4958:	e9043a83          	ld	s5,-368(s0)
    495c:	01550533          	add	a0,a0,s5
    4960:	000015b7          	lui	a1,0x1
    4964:	40b405b3          	sub	a1,s0,a1
    4968:	6f05ba83          	ld	s5,1776(a1) # 16f0 <.LBB46_4+0x568>
    496c:	01550533          	add	a0,a0,s5
    4970:	00c50533          	add	a0,a0,a2
    4974:	0805051b          	addiw	a0,a0,128
    4978:	40000ab7          	lui	s5,0x40000
    497c:	000015b7          	lui	a1,0x1
    4980:	40b405b3          	sub	a1,s0,a1
    4984:	20a5b423          	sd	a0,520(a1) # 1208 <.LBB46_4+0x80>
    4988:	f9043583          	ld	a1,-112(s0)
    498c:	00055463          	bgez	a0,4994 <.LBB46_156>
    4990:	c0000ab7          	lui	s5,0xc0000

0000000000004994 <.LBB46_156>:
    4994:	f8b43823          	sd	a1,-112(s0)
    4998:	00001537          	lui	a0,0x1
    499c:	40a40533          	sub	a0,s0,a0
    49a0:	21553023          	sd	s5,512(a0) # 1200 <.LBB46_4+0x78>
    49a4:	8f043503          	ld	a0,-1808(s0)
    49a8:	e9843a83          	ld	s5,-360(s0)
    49ac:	01550533          	add	a0,a0,s5
    49b0:	000015b7          	lui	a1,0x1
    49b4:	40b405b3          	sub	a1,s0,a1
    49b8:	6f85ba83          	ld	s5,1784(a1) # 16f8 <.LBB46_4+0x570>
    49bc:	01550533          	add	a0,a0,s5
    49c0:	00c50533          	add	a0,a0,a2
    49c4:	0805051b          	addiw	a0,a0,128
    49c8:	40000ab7          	lui	s5,0x40000
    49cc:	000015b7          	lui	a1,0x1
    49d0:	40b405b3          	sub	a1,s0,a1
    49d4:	20a5bc23          	sd	a0,536(a1) # 1218 <.LBB46_4+0x90>
    49d8:	f9043583          	ld	a1,-112(s0)
    49dc:	00055463          	bgez	a0,49e4 <.LBB46_158>
    49e0:	c0000ab7          	lui	s5,0xc0000

00000000000049e4 <.LBB46_158>:
    49e4:	f8b43823          	sd	a1,-112(s0)
    49e8:	00001537          	lui	a0,0x1
    49ec:	40a40533          	sub	a0,s0,a0
    49f0:	21553823          	sd	s5,528(a0) # 1210 <.LBB46_4+0x88>
    49f4:	8f843503          	ld	a0,-1800(s0)
    49f8:	ea043a83          	ld	s5,-352(s0)
    49fc:	01550533          	add	a0,a0,s5
    4a00:	000015b7          	lui	a1,0x1
    4a04:	40b405b3          	sub	a1,s0,a1
    4a08:	7005ba83          	ld	s5,1792(a1) # 1700 <.LBB46_4+0x578>
    4a0c:	01550533          	add	a0,a0,s5
    4a10:	00c50533          	add	a0,a0,a2
    4a14:	0805051b          	addiw	a0,a0,128
    4a18:	40000ab7          	lui	s5,0x40000
    4a1c:	000015b7          	lui	a1,0x1
    4a20:	40b405b3          	sub	a1,s0,a1
    4a24:	22a5b423          	sd	a0,552(a1) # 1228 <.LBB46_4+0xa0>
    4a28:	f9043583          	ld	a1,-112(s0)
    4a2c:	00055463          	bgez	a0,4a34 <.LBB46_160>
    4a30:	c0000ab7          	lui	s5,0xc0000

0000000000004a34 <.LBB46_160>:
    4a34:	f8b43823          	sd	a1,-112(s0)
    4a38:	00001537          	lui	a0,0x1
    4a3c:	40a40533          	sub	a0,s0,a0
    4a40:	23553023          	sd	s5,544(a0) # 1220 <.LBB46_4+0x98>
    4a44:	90043503          	ld	a0,-1792(s0)
    4a48:	ea843a83          	ld	s5,-344(s0)
    4a4c:	01550533          	add	a0,a0,s5
    4a50:	01a50533          	add	a0,a0,s10
    4a54:	00c50533          	add	a0,a0,a2
    4a58:	0805051b          	addiw	a0,a0,128
    4a5c:	40000ab7          	lui	s5,0x40000
    4a60:	000015b7          	lui	a1,0x1
    4a64:	40b405b3          	sub	a1,s0,a1
    4a68:	22a5bc23          	sd	a0,568(a1) # 1238 <.LBB46_4+0xb0>
    4a6c:	f9043583          	ld	a1,-112(s0)
    4a70:	00055463          	bgez	a0,4a78 <.LBB46_162>
    4a74:	c0000ab7          	lui	s5,0xc0000

0000000000004a78 <.LBB46_162>:
    4a78:	f8b43823          	sd	a1,-112(s0)
    4a7c:	00001537          	lui	a0,0x1
    4a80:	40a40533          	sub	a0,s0,a0
    4a84:	23553823          	sd	s5,560(a0) # 1230 <.LBB46_4+0xa8>
    4a88:	90843503          	ld	a0,-1784(s0)
    4a8c:	eb043a83          	ld	s5,-336(s0)
    4a90:	01550533          	add	a0,a0,s5
    4a94:	000015b7          	lui	a1,0x1
    4a98:	40b405b3          	sub	a1,s0,a1
    4a9c:	7105ba83          	ld	s5,1808(a1) # 1710 <.LBB46_4+0x588>
    4aa0:	01550533          	add	a0,a0,s5
    4aa4:	00c50533          	add	a0,a0,a2
    4aa8:	0805051b          	addiw	a0,a0,128
    4aac:	40000ab7          	lui	s5,0x40000
    4ab0:	000015b7          	lui	a1,0x1
    4ab4:	40b405b3          	sub	a1,s0,a1
    4ab8:	24a5b423          	sd	a0,584(a1) # 1248 <.LBB46_4+0xc0>
    4abc:	f9043583          	ld	a1,-112(s0)
    4ac0:	00055463          	bgez	a0,4ac8 <.LBB46_164>
    4ac4:	c0000ab7          	lui	s5,0xc0000

0000000000004ac8 <.LBB46_164>:
    4ac8:	f8b43823          	sd	a1,-112(s0)
    4acc:	00001537          	lui	a0,0x1
    4ad0:	40a40533          	sub	a0,s0,a0
    4ad4:	25553023          	sd	s5,576(a0) # 1240 <.LBB46_4+0xb8>
    4ad8:	91043503          	ld	a0,-1776(s0)
    4adc:	f0843a83          	ld	s5,-248(s0)
    4ae0:	01550533          	add	a0,a0,s5
    4ae4:	000015b7          	lui	a1,0x1
    4ae8:	40b405b3          	sub	a1,s0,a1
    4aec:	7185ba83          	ld	s5,1816(a1) # 1718 <.LBB46_4+0x590>
    4af0:	01550533          	add	a0,a0,s5
    4af4:	00c50533          	add	a0,a0,a2
    4af8:	0805051b          	addiw	a0,a0,128
    4afc:	40000ab7          	lui	s5,0x40000
    4b00:	000015b7          	lui	a1,0x1
    4b04:	40b405b3          	sub	a1,s0,a1
    4b08:	24a5bc23          	sd	a0,600(a1) # 1258 <.LBB46_4+0xd0>
    4b0c:	f9043583          	ld	a1,-112(s0)
    4b10:	00055463          	bgez	a0,4b18 <.LBB46_166>
    4b14:	c0000ab7          	lui	s5,0xc0000

0000000000004b18 <.LBB46_166>:
    4b18:	f8b43823          	sd	a1,-112(s0)
    4b1c:	00001537          	lui	a0,0x1
    4b20:	40a40533          	sub	a0,s0,a0
    4b24:	25553823          	sd	s5,592(a0) # 1250 <.LBB46_4+0xc8>
    4b28:	91843503          	ld	a0,-1768(s0)
    4b2c:	f1043a83          	ld	s5,-240(s0)
    4b30:	01550533          	add	a0,a0,s5
    4b34:	000015b7          	lui	a1,0x1
    4b38:	40b405b3          	sub	a1,s0,a1
    4b3c:	7205ba83          	ld	s5,1824(a1) # 1720 <.LBB46_5+0x4>
    4b40:	01550533          	add	a0,a0,s5
    4b44:	00c50533          	add	a0,a0,a2
    4b48:	0805051b          	addiw	a0,a0,128
    4b4c:	40000ab7          	lui	s5,0x40000
    4b50:	000015b7          	lui	a1,0x1
    4b54:	40b405b3          	sub	a1,s0,a1
    4b58:	26a5b423          	sd	a0,616(a1) # 1268 <.LBB46_4+0xe0>
    4b5c:	f9043583          	ld	a1,-112(s0)
    4b60:	00055463          	bgez	a0,4b68 <.LBB46_168>
    4b64:	c0000ab7          	lui	s5,0xc0000

0000000000004b68 <.LBB46_168>:
    4b68:	f8b43823          	sd	a1,-112(s0)
    4b6c:	00001537          	lui	a0,0x1
    4b70:	40a40533          	sub	a0,s0,a0
    4b74:	27553023          	sd	s5,608(a0) # 1260 <.LBB46_4+0xd8>
    4b78:	92043503          	ld	a0,-1760(s0)
    4b7c:	f1843a83          	ld	s5,-232(s0)
    4b80:	01550533          	add	a0,a0,s5
    4b84:	000015b7          	lui	a1,0x1
    4b88:	40b405b3          	sub	a1,s0,a1
    4b8c:	7285ba83          	ld	s5,1832(a1) # 1728 <.LBB46_5+0xc>
    4b90:	01550533          	add	a0,a0,s5
    4b94:	00c50533          	add	a0,a0,a2
    4b98:	0805051b          	addiw	a0,a0,128
    4b9c:	40000ab7          	lui	s5,0x40000
    4ba0:	000015b7          	lui	a1,0x1
    4ba4:	40b405b3          	sub	a1,s0,a1
    4ba8:	26a5bc23          	sd	a0,632(a1) # 1278 <.LBB46_4+0xf0>
    4bac:	f9043583          	ld	a1,-112(s0)
    4bb0:	00055463          	bgez	a0,4bb8 <.LBB46_170>
    4bb4:	c0000ab7          	lui	s5,0xc0000

0000000000004bb8 <.LBB46_170>:
    4bb8:	f8b43823          	sd	a1,-112(s0)
    4bbc:	00001537          	lui	a0,0x1
    4bc0:	40a40533          	sub	a0,s0,a0
    4bc4:	27553823          	sd	s5,624(a0) # 1270 <.LBB46_4+0xe8>
    4bc8:	92843503          	ld	a0,-1752(s0)
    4bcc:	f2043a83          	ld	s5,-224(s0)
    4bd0:	01550533          	add	a0,a0,s5
    4bd4:	000015b7          	lui	a1,0x1
    4bd8:	40b405b3          	sub	a1,s0,a1
    4bdc:	7305ba83          	ld	s5,1840(a1) # 1730 <.LBB46_5+0x14>
    4be0:	01550533          	add	a0,a0,s5
    4be4:	00c50533          	add	a0,a0,a2
    4be8:	0805051b          	addiw	a0,a0,128
    4bec:	40000ab7          	lui	s5,0x40000
    4bf0:	000015b7          	lui	a1,0x1
    4bf4:	40b405b3          	sub	a1,s0,a1
    4bf8:	28a5b423          	sd	a0,648(a1) # 1288 <.LBB46_4+0x100>
    4bfc:	f9043583          	ld	a1,-112(s0)
    4c00:	00055463          	bgez	a0,4c08 <.LBB46_172>
    4c04:	c0000ab7          	lui	s5,0xc0000

0000000000004c08 <.LBB46_172>:
    4c08:	f8b43823          	sd	a1,-112(s0)
    4c0c:	00001537          	lui	a0,0x1
    4c10:	40a40533          	sub	a0,s0,a0
    4c14:	29553023          	sd	s5,640(a0) # 1280 <.LBB46_4+0xf8>
    4c18:	93043503          	ld	a0,-1744(s0)
    4c1c:	f2843a83          	ld	s5,-216(s0)
    4c20:	01550533          	add	a0,a0,s5
    4c24:	000015b7          	lui	a1,0x1
    4c28:	40b405b3          	sub	a1,s0,a1
    4c2c:	7385ba83          	ld	s5,1848(a1) # 1738 <.LBB46_5+0x1c>
    4c30:	01550533          	add	a0,a0,s5
    4c34:	00c50533          	add	a0,a0,a2
    4c38:	0805051b          	addiw	a0,a0,128
    4c3c:	40000ab7          	lui	s5,0x40000
    4c40:	000015b7          	lui	a1,0x1
    4c44:	40b405b3          	sub	a1,s0,a1
    4c48:	28a5bc23          	sd	a0,664(a1) # 1298 <.LBB46_4+0x110>
    4c4c:	f9043583          	ld	a1,-112(s0)
    4c50:	00055463          	bgez	a0,4c58 <.LBB46_174>
    4c54:	c0000ab7          	lui	s5,0xc0000

0000000000004c58 <.LBB46_174>:
    4c58:	f8b43823          	sd	a1,-112(s0)
    4c5c:	00001537          	lui	a0,0x1
    4c60:	40a40533          	sub	a0,s0,a0
    4c64:	29553823          	sd	s5,656(a0) # 1290 <.LBB46_4+0x108>
    4c68:	93843503          	ld	a0,-1736(s0)
    4c6c:	f3043a83          	ld	s5,-208(s0)
    4c70:	01550533          	add	a0,a0,s5
    4c74:	000015b7          	lui	a1,0x1
    4c78:	40b405b3          	sub	a1,s0,a1
    4c7c:	7405ba83          	ld	s5,1856(a1) # 1740 <.LBB46_5+0x24>
    4c80:	01550533          	add	a0,a0,s5
    4c84:	00c50533          	add	a0,a0,a2
    4c88:	0805051b          	addiw	a0,a0,128
    4c8c:	40000ab7          	lui	s5,0x40000
    4c90:	000015b7          	lui	a1,0x1
    4c94:	40b405b3          	sub	a1,s0,a1
    4c98:	2aa5b423          	sd	a0,680(a1) # 12a8 <.LBB46_4+0x120>
    4c9c:	f9043583          	ld	a1,-112(s0)
    4ca0:	00055463          	bgez	a0,4ca8 <.LBB46_176>
    4ca4:	c0000ab7          	lui	s5,0xc0000

0000000000004ca8 <.LBB46_176>:
    4ca8:	f8b43823          	sd	a1,-112(s0)
    4cac:	00001537          	lui	a0,0x1
    4cb0:	40a40533          	sub	a0,s0,a0
    4cb4:	2b553023          	sd	s5,672(a0) # 12a0 <.LBB46_4+0x118>
    4cb8:	94043503          	ld	a0,-1728(s0)
    4cbc:	f3843a83          	ld	s5,-200(s0)
    4cc0:	01550533          	add	a0,a0,s5
    4cc4:	000015b7          	lui	a1,0x1
    4cc8:	40b405b3          	sub	a1,s0,a1
    4ccc:	7485ba83          	ld	s5,1864(a1) # 1748 <.LBB46_5+0x2c>
    4cd0:	01550533          	add	a0,a0,s5
    4cd4:	00c50533          	add	a0,a0,a2
    4cd8:	0805051b          	addiw	a0,a0,128
    4cdc:	40000ab7          	lui	s5,0x40000
    4ce0:	000015b7          	lui	a1,0x1
    4ce4:	40b405b3          	sub	a1,s0,a1
    4ce8:	2aa5bc23          	sd	a0,696(a1) # 12b8 <.LBB46_4+0x130>
    4cec:	f9043583          	ld	a1,-112(s0)
    4cf0:	00055463          	bgez	a0,4cf8 <.LBB46_178>
    4cf4:	c0000ab7          	lui	s5,0xc0000

0000000000004cf8 <.LBB46_178>:
    4cf8:	f8b43823          	sd	a1,-112(s0)
    4cfc:	00001537          	lui	a0,0x1
    4d00:	40a40533          	sub	a0,s0,a0
    4d04:	2b553823          	sd	s5,688(a0) # 12b0 <.LBB46_4+0x128>
    4d08:	94843503          	ld	a0,-1720(s0)
    4d0c:	f4043a83          	ld	s5,-192(s0)
    4d10:	01550533          	add	a0,a0,s5
    4d14:	000015b7          	lui	a1,0x1
    4d18:	40b405b3          	sub	a1,s0,a1
    4d1c:	7505ba83          	ld	s5,1872(a1) # 1750 <.LBB46_5+0x34>
    4d20:	01550533          	add	a0,a0,s5
    4d24:	00c50533          	add	a0,a0,a2
    4d28:	0805051b          	addiw	a0,a0,128
    4d2c:	40000ab7          	lui	s5,0x40000
    4d30:	000015b7          	lui	a1,0x1
    4d34:	40b405b3          	sub	a1,s0,a1
    4d38:	2ca5b423          	sd	a0,712(a1) # 12c8 <.LBB46_4+0x140>
    4d3c:	f9043583          	ld	a1,-112(s0)
    4d40:	00055463          	bgez	a0,4d48 <.LBB46_180>
    4d44:	c0000ab7          	lui	s5,0xc0000

0000000000004d48 <.LBB46_180>:
    4d48:	f8b43823          	sd	a1,-112(s0)
    4d4c:	00001537          	lui	a0,0x1
    4d50:	40a40533          	sub	a0,s0,a0
    4d54:	2d553023          	sd	s5,704(a0) # 12c0 <.LBB46_4+0x138>
    4d58:	95043503          	ld	a0,-1712(s0)
    4d5c:	f4843a83          	ld	s5,-184(s0)
    4d60:	01550533          	add	a0,a0,s5
    4d64:	000015b7          	lui	a1,0x1
    4d68:	40b405b3          	sub	a1,s0,a1
    4d6c:	7585ba83          	ld	s5,1880(a1) # 1758 <.LBB46_5+0x3c>
    4d70:	01550533          	add	a0,a0,s5
    4d74:	00c50533          	add	a0,a0,a2
    4d78:	0805051b          	addiw	a0,a0,128
    4d7c:	40000ab7          	lui	s5,0x40000
    4d80:	000015b7          	lui	a1,0x1
    4d84:	40b405b3          	sub	a1,s0,a1
    4d88:	2ca5bc23          	sd	a0,728(a1) # 12d8 <.LBB46_4+0x150>
    4d8c:	f9043583          	ld	a1,-112(s0)
    4d90:	00055463          	bgez	a0,4d98 <.LBB46_182>
    4d94:	c0000ab7          	lui	s5,0xc0000

0000000000004d98 <.LBB46_182>:
    4d98:	f8b43823          	sd	a1,-112(s0)
    4d9c:	00001537          	lui	a0,0x1
    4da0:	40a40533          	sub	a0,s0,a0
    4da4:	2d553823          	sd	s5,720(a0) # 12d0 <.LBB46_4+0x148>
    4da8:	95843503          	ld	a0,-1704(s0)
    4dac:	f5043a83          	ld	s5,-176(s0)
    4db0:	01550533          	add	a0,a0,s5
    4db4:	000015b7          	lui	a1,0x1
    4db8:	40b405b3          	sub	a1,s0,a1
    4dbc:	7605ba83          	ld	s5,1888(a1) # 1760 <.LBB46_5+0x44>
    4dc0:	01550533          	add	a0,a0,s5
    4dc4:	00c50533          	add	a0,a0,a2
    4dc8:	0805051b          	addiw	a0,a0,128
    4dcc:	40000ab7          	lui	s5,0x40000
    4dd0:	000015b7          	lui	a1,0x1
    4dd4:	40b405b3          	sub	a1,s0,a1
    4dd8:	2ea5b423          	sd	a0,744(a1) # 12e8 <.LBB46_4+0x160>
    4ddc:	f9043583          	ld	a1,-112(s0)
    4de0:	00055463          	bgez	a0,4de8 <.LBB46_184>
    4de4:	c0000ab7          	lui	s5,0xc0000

0000000000004de8 <.LBB46_184>:
    4de8:	f8b43823          	sd	a1,-112(s0)
    4dec:	00001537          	lui	a0,0x1
    4df0:	40a40533          	sub	a0,s0,a0
    4df4:	2f553023          	sd	s5,736(a0) # 12e0 <.LBB46_4+0x158>
    4df8:	96043503          	ld	a0,-1696(s0)
    4dfc:	f5843a83          	ld	s5,-168(s0)
    4e00:	01550533          	add	a0,a0,s5
    4e04:	000015b7          	lui	a1,0x1
    4e08:	40b405b3          	sub	a1,s0,a1
    4e0c:	7685ba83          	ld	s5,1896(a1) # 1768 <.LBB46_5+0x4c>
    4e10:	01550533          	add	a0,a0,s5
    4e14:	00c50533          	add	a0,a0,a2
    4e18:	0805051b          	addiw	a0,a0,128
    4e1c:	40000ab7          	lui	s5,0x40000
    4e20:	000015b7          	lui	a1,0x1
    4e24:	40b405b3          	sub	a1,s0,a1
    4e28:	2ea5bc23          	sd	a0,760(a1) # 12f8 <.LBB46_4+0x170>
    4e2c:	f9043583          	ld	a1,-112(s0)
    4e30:	00055463          	bgez	a0,4e38 <.LBB46_186>
    4e34:	c0000ab7          	lui	s5,0xc0000

0000000000004e38 <.LBB46_186>:
    4e38:	f8b43823          	sd	a1,-112(s0)
    4e3c:	00001537          	lui	a0,0x1
    4e40:	40a40533          	sub	a0,s0,a0
    4e44:	2f553823          	sd	s5,752(a0) # 12f0 <.LBB46_4+0x168>
    4e48:	96843503          	ld	a0,-1688(s0)
    4e4c:	f6043a83          	ld	s5,-160(s0)
    4e50:	01550533          	add	a0,a0,s5
    4e54:	000015b7          	lui	a1,0x1
    4e58:	40b405b3          	sub	a1,s0,a1
    4e5c:	7705ba83          	ld	s5,1904(a1) # 1770 <.LBB46_5+0x54>
    4e60:	01550533          	add	a0,a0,s5
    4e64:	00c50533          	add	a0,a0,a2
    4e68:	0805051b          	addiw	a0,a0,128
    4e6c:	40000ab7          	lui	s5,0x40000
    4e70:	000015b7          	lui	a1,0x1
    4e74:	40b405b3          	sub	a1,s0,a1
    4e78:	30a5b423          	sd	a0,776(a1) # 1308 <.LBB46_4+0x180>
    4e7c:	f9043583          	ld	a1,-112(s0)
    4e80:	00055463          	bgez	a0,4e88 <.LBB46_188>
    4e84:	c0000ab7          	lui	s5,0xc0000

0000000000004e88 <.LBB46_188>:
    4e88:	f8b43823          	sd	a1,-112(s0)
    4e8c:	00001537          	lui	a0,0x1
    4e90:	40a40533          	sub	a0,s0,a0
    4e94:	31553023          	sd	s5,768(a0) # 1300 <.LBB46_4+0x178>
    4e98:	97043503          	ld	a0,-1680(s0)
    4e9c:	f6843a83          	ld	s5,-152(s0)
    4ea0:	01550533          	add	a0,a0,s5
    4ea4:	000015b7          	lui	a1,0x1
    4ea8:	40b405b3          	sub	a1,s0,a1
    4eac:	7785ba83          	ld	s5,1912(a1) # 1778 <.LBB46_5+0x5c>
    4eb0:	01550533          	add	a0,a0,s5
    4eb4:	00c50533          	add	a0,a0,a2
    4eb8:	0805051b          	addiw	a0,a0,128
    4ebc:	40000ab7          	lui	s5,0x40000
    4ec0:	000015b7          	lui	a1,0x1
    4ec4:	40b405b3          	sub	a1,s0,a1
    4ec8:	30a5bc23          	sd	a0,792(a1) # 1318 <.LBB46_4+0x190>
    4ecc:	f9043583          	ld	a1,-112(s0)
    4ed0:	00055463          	bgez	a0,4ed8 <.LBB46_190>
    4ed4:	c0000ab7          	lui	s5,0xc0000

0000000000004ed8 <.LBB46_190>:
    4ed8:	f8b43823          	sd	a1,-112(s0)
    4edc:	00001537          	lui	a0,0x1
    4ee0:	40a40533          	sub	a0,s0,a0
    4ee4:	31553823          	sd	s5,784(a0) # 1310 <.LBB46_4+0x188>
    4ee8:	97843503          	ld	a0,-1672(s0)
    4eec:	f7043a83          	ld	s5,-144(s0)
    4ef0:	01550533          	add	a0,a0,s5
    4ef4:	000015b7          	lui	a1,0x1
    4ef8:	40b405b3          	sub	a1,s0,a1
    4efc:	7085ba83          	ld	s5,1800(a1) # 1708 <.LBB46_4+0x580>
    4f00:	01550533          	add	a0,a0,s5
    4f04:	00c50533          	add	a0,a0,a2
    4f08:	0805051b          	addiw	a0,a0,128
    4f0c:	40000ab7          	lui	s5,0x40000
    4f10:	000015b7          	lui	a1,0x1
    4f14:	40b405b3          	sub	a1,s0,a1
    4f18:	32a5b423          	sd	a0,808(a1) # 1328 <.LBB46_4+0x1a0>
    4f1c:	f9043583          	ld	a1,-112(s0)
    4f20:	00055463          	bgez	a0,4f28 <.LBB46_192>
    4f24:	c0000ab7          	lui	s5,0xc0000

0000000000004f28 <.LBB46_192>:
    4f28:	f8b43823          	sd	a1,-112(s0)
    4f2c:	00001537          	lui	a0,0x1
    4f30:	40a40533          	sub	a0,s0,a0
    4f34:	33553023          	sd	s5,800(a0) # 1320 <.LBB46_4+0x198>
    4f38:	98043503          	ld	a0,-1664(s0)
    4f3c:	f7843a83          	ld	s5,-136(s0)
    4f40:	01550533          	add	a0,a0,s5
    4f44:	000015b7          	lui	a1,0x1
    4f48:	40b405b3          	sub	a1,s0,a1
    4f4c:	7805ba83          	ld	s5,1920(a1) # 1780 <.LBB46_5+0x64>
    4f50:	01550533          	add	a0,a0,s5
    4f54:	00c50533          	add	a0,a0,a2
    4f58:	0805051b          	addiw	a0,a0,128
    4f5c:	40000ab7          	lui	s5,0x40000
    4f60:	000015b7          	lui	a1,0x1
    4f64:	40b405b3          	sub	a1,s0,a1
    4f68:	32a5bc23          	sd	a0,824(a1) # 1338 <.LBB46_4+0x1b0>
    4f6c:	f9043583          	ld	a1,-112(s0)
    4f70:	00055463          	bgez	a0,4f78 <.LBB46_194>
    4f74:	c0000ab7          	lui	s5,0xc0000

0000000000004f78 <.LBB46_194>:
    4f78:	f8b43823          	sd	a1,-112(s0)
    4f7c:	00001537          	lui	a0,0x1
    4f80:	40a40533          	sub	a0,s0,a0
    4f84:	33553823          	sd	s5,816(a0) # 1330 <.LBB46_4+0x1a8>
    4f88:	98843503          	ld	a0,-1656(s0)
    4f8c:	f8043a83          	ld	s5,-128(s0)
    4f90:	01550533          	add	a0,a0,s5
    4f94:	000015b7          	lui	a1,0x1
    4f98:	40b405b3          	sub	a1,s0,a1
    4f9c:	7885ba83          	ld	s5,1928(a1) # 1788 <.LBB46_5+0x6c>
    4fa0:	01550533          	add	a0,a0,s5
    4fa4:	00c50533          	add	a0,a0,a2
    4fa8:	0805051b          	addiw	a0,a0,128
    4fac:	40000ab7          	lui	s5,0x40000
    4fb0:	000015b7          	lui	a1,0x1
    4fb4:	40b405b3          	sub	a1,s0,a1
    4fb8:	34a5b423          	sd	a0,840(a1) # 1348 <.LBB46_4+0x1c0>
    4fbc:	f9043583          	ld	a1,-112(s0)
    4fc0:	00055463          	bgez	a0,4fc8 <.LBB46_196>
    4fc4:	c0000ab7          	lui	s5,0xc0000

0000000000004fc8 <.LBB46_196>:
    4fc8:	00001537          	lui	a0,0x1
    4fcc:	40a40533          	sub	a0,s0,a0
    4fd0:	35553023          	sd	s5,832(a0) # 1340 <.LBB46_4+0x1b8>
    4fd4:	99043503          	ld	a0,-1648(s0)
    4fd8:	f8843a83          	ld	s5,-120(s0)
    4fdc:	01550533          	add	a0,a0,s5
    4fe0:	00001ab7          	lui	s5,0x1
    4fe4:	41540ab3          	sub	s5,s0,s5
    4fe8:	790aba83          	ld	s5,1936(s5) # 1790 <.LBB46_5+0x74>
    4fec:	01550533          	add	a0,a0,s5
    4ff0:	00c50533          	add	a0,a0,a2
    4ff4:	0805051b          	addiw	a0,a0,128
    4ff8:	40000637          	lui	a2,0x40000
    4ffc:	00001ab7          	lui	s5,0x1
    5000:	41540ab3          	sub	s5,s0,s5
    5004:	34aabc23          	sd	a0,856(s5) # 1358 <.LBB46_4+0x1d0>
    5008:	00055463          	bgez	a0,5010 <.LBB46_198>
    500c:	c0000637          	lui	a2,0xc0000

0000000000005010 <.LBB46_198>:
    5010:	f8d43823          	sd	a3,-112(s0)
    5014:	00001537          	lui	a0,0x1
    5018:	40a40533          	sub	a0,s0,a0
    501c:	34c53823          	sd	a2,848(a0) # 1350 <.LBB46_4+0x1c8>
    5020:	99843503          	ld	a0,-1640(s0)
    5024:	e8843603          	ld	a2,-376(s0)
    5028:	00c50533          	add	a0,a0,a2
    502c:	e8043603          	ld	a2,-384(s0)
    5030:	00c50533          	add	a0,a0,a2
    5034:	00b50533          	add	a0,a0,a1
    5038:	0805051b          	addiw	a0,a0,128
    503c:	40000ab7          	lui	s5,0x40000
    5040:	e3843603          	ld	a2,-456(s0)
    5044:	000016b7          	lui	a3,0x1
    5048:	40d406b3          	sub	a3,s0,a3
    504c:	36a6b423          	sd	a0,872(a3) # 1368 <.LBB46_4+0x1e0>
    5050:	f9043683          	ld	a3,-112(s0)
    5054:	00055463          	bgez	a0,505c <.LBB46_200>
    5058:	c0000ab7          	lui	s5,0xc0000

000000000000505c <.LBB46_200>:
    505c:	f8c43823          	sd	a2,-112(s0)
    5060:	00001537          	lui	a0,0x1
    5064:	40a40533          	sub	a0,s0,a0
    5068:	37553023          	sd	s5,864(a0) # 1360 <.LBB46_4+0x1d8>
    506c:	9a043503          	ld	a0,-1632(s0)
    5070:	e7843a83          	ld	s5,-392(s0)
    5074:	01550533          	add	a0,a0,s5
    5078:	e7043a83          	ld	s5,-400(s0)
    507c:	01550533          	add	a0,a0,s5
    5080:	00b50533          	add	a0,a0,a1
    5084:	0805051b          	addiw	a0,a0,128
    5088:	40000ab7          	lui	s5,0x40000
    508c:	00001637          	lui	a2,0x1
    5090:	40c40633          	sub	a2,s0,a2
    5094:	36a63c23          	sd	a0,888(a2) # 1378 <.LBB46_4+0x1f0>
    5098:	f9043603          	ld	a2,-112(s0)
    509c:	00055463          	bgez	a0,50a4 <.LBB46_202>
    50a0:	c0000ab7          	lui	s5,0xc0000

00000000000050a4 <.LBB46_202>:
    50a4:	f8c43823          	sd	a2,-112(s0)
    50a8:	00001537          	lui	a0,0x1
    50ac:	40a40533          	sub	a0,s0,a0
    50b0:	37553823          	sd	s5,880(a0) # 1370 <.LBB46_4+0x1e8>
    50b4:	9a843503          	ld	a0,-1624(s0)
    50b8:	e6843a83          	ld	s5,-408(s0)
    50bc:	01550533          	add	a0,a0,s5
    50c0:	e6043a83          	ld	s5,-416(s0)
    50c4:	01550533          	add	a0,a0,s5
    50c8:	00b50533          	add	a0,a0,a1
    50cc:	0805051b          	addiw	a0,a0,128
    50d0:	40000ab7          	lui	s5,0x40000
    50d4:	00001637          	lui	a2,0x1
    50d8:	40c40633          	sub	a2,s0,a2
    50dc:	38a63423          	sd	a0,904(a2) # 1388 <.LBB46_4+0x200>
    50e0:	f9043603          	ld	a2,-112(s0)
    50e4:	00055463          	bgez	a0,50ec <.LBB46_204>
    50e8:	c0000ab7          	lui	s5,0xc0000

00000000000050ec <.LBB46_204>:
    50ec:	f8c43823          	sd	a2,-112(s0)
    50f0:	00001537          	lui	a0,0x1
    50f4:	40a40533          	sub	a0,s0,a0
    50f8:	39553023          	sd	s5,896(a0) # 1380 <.LBB46_4+0x1f8>
    50fc:	9b043503          	ld	a0,-1616(s0)
    5100:	e5843a83          	ld	s5,-424(s0)
    5104:	01550533          	add	a0,a0,s5
    5108:	e5043a83          	ld	s5,-432(s0)
    510c:	01550533          	add	a0,a0,s5
    5110:	00b50533          	add	a0,a0,a1
    5114:	0805051b          	addiw	a0,a0,128
    5118:	40000ab7          	lui	s5,0x40000
    511c:	00001637          	lui	a2,0x1
    5120:	40c40633          	sub	a2,s0,a2
    5124:	38a63c23          	sd	a0,920(a2) # 1398 <.LBB46_4+0x210>
    5128:	f9043603          	ld	a2,-112(s0)
    512c:	00055463          	bgez	a0,5134 <.LBB46_206>
    5130:	c0000ab7          	lui	s5,0xc0000

0000000000005134 <.LBB46_206>:
    5134:	f8c43823          	sd	a2,-112(s0)
    5138:	00001537          	lui	a0,0x1
    513c:	40a40533          	sub	a0,s0,a0
    5140:	39553823          	sd	s5,912(a0) # 1390 <.LBB46_4+0x208>
    5144:	9b843503          	ld	a0,-1608(s0)
    5148:	e4843a83          	ld	s5,-440(s0)
    514c:	01550533          	add	a0,a0,s5
    5150:	00001637          	lui	a2,0x1
    5154:	40c40633          	sub	a2,s0,a2
    5158:	6e063a83          	ld	s5,1760(a2) # 16e0 <.LBB46_4+0x558>
    515c:	01550533          	add	a0,a0,s5
    5160:	00b50533          	add	a0,a0,a1
    5164:	0805051b          	addiw	a0,a0,128
    5168:	40000ab7          	lui	s5,0x40000
    516c:	00001637          	lui	a2,0x1
    5170:	40c40633          	sub	a2,s0,a2
    5174:	3aa63423          	sd	a0,936(a2) # 13a8 <.LBB46_4+0x220>
    5178:	f9043603          	ld	a2,-112(s0)
    517c:	00055463          	bgez	a0,5184 <.LBB46_208>
    5180:	c0000ab7          	lui	s5,0xc0000

0000000000005184 <.LBB46_208>:
    5184:	f8c43823          	sd	a2,-112(s0)
    5188:	00001537          	lui	a0,0x1
    518c:	40a40533          	sub	a0,s0,a0
    5190:	3b553023          	sd	s5,928(a0) # 13a0 <.LBB46_4+0x218>
    5194:	9c043503          	ld	a0,-1600(s0)
    5198:	00001637          	lui	a2,0x1
    519c:	40c40633          	sub	a2,s0,a2
    51a0:	6d863a83          	ld	s5,1752(a2) # 16d8 <.LBB46_4+0x550>
    51a4:	01550533          	add	a0,a0,s5
    51a8:	00001637          	lui	a2,0x1
    51ac:	40c40633          	sub	a2,s0,a2
    51b0:	6d063a83          	ld	s5,1744(a2) # 16d0 <.LBB46_4+0x548>
    51b4:	01550533          	add	a0,a0,s5
    51b8:	00b50533          	add	a0,a0,a1
    51bc:	0805051b          	addiw	a0,a0,128
    51c0:	40000ab7          	lui	s5,0x40000
    51c4:	00001637          	lui	a2,0x1
    51c8:	40c40633          	sub	a2,s0,a2
    51cc:	3aa63c23          	sd	a0,952(a2) # 13b8 <.LBB46_4+0x230>
    51d0:	f9043603          	ld	a2,-112(s0)
    51d4:	00055463          	bgez	a0,51dc <.LBB46_210>
    51d8:	c0000ab7          	lui	s5,0xc0000

00000000000051dc <.LBB46_210>:
    51dc:	f8c43823          	sd	a2,-112(s0)
    51e0:	00001537          	lui	a0,0x1
    51e4:	40a40533          	sub	a0,s0,a0
    51e8:	3b553823          	sd	s5,944(a0) # 13b0 <.LBB46_4+0x228>
    51ec:	9c843503          	ld	a0,-1592(s0)
    51f0:	00001637          	lui	a2,0x1
    51f4:	40c40633          	sub	a2,s0,a2
    51f8:	6c863a83          	ld	s5,1736(a2) # 16c8 <.LBB46_4+0x540>
    51fc:	01550533          	add	a0,a0,s5
    5200:	00001637          	lui	a2,0x1
    5204:	40c40633          	sub	a2,s0,a2
    5208:	6c063a83          	ld	s5,1728(a2) # 16c0 <.LBB46_4+0x538>
    520c:	01550533          	add	a0,a0,s5
    5210:	00b50533          	add	a0,a0,a1
    5214:	0805051b          	addiw	a0,a0,128
    5218:	40000ab7          	lui	s5,0x40000
    521c:	00001637          	lui	a2,0x1
    5220:	40c40633          	sub	a2,s0,a2
    5224:	3ca63423          	sd	a0,968(a2) # 13c8 <.LBB46_4+0x240>
    5228:	f9043603          	ld	a2,-112(s0)
    522c:	00055463          	bgez	a0,5234 <.LBB46_212>
    5230:	c0000ab7          	lui	s5,0xc0000

0000000000005234 <.LBB46_212>:
    5234:	f8c43823          	sd	a2,-112(s0)
    5238:	00001537          	lui	a0,0x1
    523c:	40a40533          	sub	a0,s0,a0
    5240:	3d553023          	sd	s5,960(a0) # 13c0 <.LBB46_4+0x238>
    5244:	9d043503          	ld	a0,-1584(s0)
    5248:	00001637          	lui	a2,0x1
    524c:	40c40633          	sub	a2,s0,a2
    5250:	6b863a83          	ld	s5,1720(a2) # 16b8 <.LBB46_4+0x530>
    5254:	01550533          	add	a0,a0,s5
    5258:	00001637          	lui	a2,0x1
    525c:	40c40633          	sub	a2,s0,a2
    5260:	6b063a83          	ld	s5,1712(a2) # 16b0 <.LBB46_4+0x528>
    5264:	01550533          	add	a0,a0,s5
    5268:	00b50533          	add	a0,a0,a1
    526c:	0805051b          	addiw	a0,a0,128
    5270:	40000ab7          	lui	s5,0x40000
    5274:	00001637          	lui	a2,0x1
    5278:	40c40633          	sub	a2,s0,a2
    527c:	3ca63c23          	sd	a0,984(a2) # 13d8 <.LBB46_4+0x250>
    5280:	f9043603          	ld	a2,-112(s0)
    5284:	00055463          	bgez	a0,528c <.LBB46_214>
    5288:	c0000ab7          	lui	s5,0xc0000

000000000000528c <.LBB46_214>:
    528c:	f8c43823          	sd	a2,-112(s0)
    5290:	00001537          	lui	a0,0x1
    5294:	40a40533          	sub	a0,s0,a0
    5298:	3d553823          	sd	s5,976(a0) # 13d0 <.LBB46_4+0x248>
    529c:	9d843503          	ld	a0,-1576(s0)
    52a0:	00001637          	lui	a2,0x1
    52a4:	40c40633          	sub	a2,s0,a2
    52a8:	6a863a83          	ld	s5,1704(a2) # 16a8 <.LBB46_4+0x520>
    52ac:	01550533          	add	a0,a0,s5
    52b0:	00001637          	lui	a2,0x1
    52b4:	40c40633          	sub	a2,s0,a2
    52b8:	6a063a83          	ld	s5,1696(a2) # 16a0 <.LBB46_4+0x518>
    52bc:	01550533          	add	a0,a0,s5
    52c0:	00b50533          	add	a0,a0,a1
    52c4:	0805051b          	addiw	a0,a0,128
    52c8:	40000ab7          	lui	s5,0x40000
    52cc:	00001637          	lui	a2,0x1
    52d0:	40c40633          	sub	a2,s0,a2
    52d4:	3ea63423          	sd	a0,1000(a2) # 13e8 <.LBB46_4+0x260>
    52d8:	f9043603          	ld	a2,-112(s0)
    52dc:	00055463          	bgez	a0,52e4 <.LBB46_216>
    52e0:	c0000ab7          	lui	s5,0xc0000

00000000000052e4 <.LBB46_216>:
    52e4:	f8c43823          	sd	a2,-112(s0)
    52e8:	00001537          	lui	a0,0x1
    52ec:	40a40533          	sub	a0,s0,a0
    52f0:	3f553023          	sd	s5,992(a0) # 13e0 <.LBB46_4+0x258>
    52f4:	9e043503          	ld	a0,-1568(s0)
    52f8:	00001637          	lui	a2,0x1
    52fc:	40c40633          	sub	a2,s0,a2
    5300:	69063a83          	ld	s5,1680(a2) # 1690 <.LBB46_4+0x508>
    5304:	01550533          	add	a0,a0,s5
    5308:	00001637          	lui	a2,0x1
    530c:	40c40633          	sub	a2,s0,a2
    5310:	6e863a83          	ld	s5,1768(a2) # 16e8 <.LBB46_4+0x560>
    5314:	01550533          	add	a0,a0,s5
    5318:	00b50533          	add	a0,a0,a1
    531c:	0805051b          	addiw	a0,a0,128
    5320:	40000ab7          	lui	s5,0x40000
    5324:	00001637          	lui	a2,0x1
    5328:	40c40633          	sub	a2,s0,a2
    532c:	3ea63c23          	sd	a0,1016(a2) # 13f8 <.LBB46_4+0x270>
    5330:	f9043603          	ld	a2,-112(s0)
    5334:	00055463          	bgez	a0,533c <.LBB46_218>
    5338:	c0000ab7          	lui	s5,0xc0000

000000000000533c <.LBB46_218>:
    533c:	f8c43823          	sd	a2,-112(s0)
    5340:	00001537          	lui	a0,0x1
    5344:	40a40533          	sub	a0,s0,a0
    5348:	3f553823          	sd	s5,1008(a0) # 13f0 <.LBB46_4+0x268>
    534c:	9e843503          	ld	a0,-1560(s0)
    5350:	e9043a83          	ld	s5,-368(s0)
    5354:	01550533          	add	a0,a0,s5
    5358:	00001637          	lui	a2,0x1
    535c:	40c40633          	sub	a2,s0,a2
    5360:	6f063a83          	ld	s5,1776(a2) # 16f0 <.LBB46_4+0x568>
    5364:	01550533          	add	a0,a0,s5
    5368:	00b50533          	add	a0,a0,a1
    536c:	0805051b          	addiw	a0,a0,128
    5370:	40000ab7          	lui	s5,0x40000
    5374:	00001637          	lui	a2,0x1
    5378:	40c40633          	sub	a2,s0,a2
    537c:	40a63423          	sd	a0,1032(a2) # 1408 <.LBB46_4+0x280>
    5380:	f9043603          	ld	a2,-112(s0)
    5384:	00055463          	bgez	a0,538c <.LBB46_220>
    5388:	c0000ab7          	lui	s5,0xc0000

000000000000538c <.LBB46_220>:
    538c:	f8c43823          	sd	a2,-112(s0)
    5390:	00001537          	lui	a0,0x1
    5394:	40a40533          	sub	a0,s0,a0
    5398:	41553023          	sd	s5,1024(a0) # 1400 <.LBB46_4+0x278>
    539c:	9f043503          	ld	a0,-1552(s0)
    53a0:	e9843a83          	ld	s5,-360(s0)
    53a4:	01550533          	add	a0,a0,s5
    53a8:	00001637          	lui	a2,0x1
    53ac:	40c40633          	sub	a2,s0,a2
    53b0:	6f863a83          	ld	s5,1784(a2) # 16f8 <.LBB46_4+0x570>
    53b4:	01550533          	add	a0,a0,s5
    53b8:	00b50533          	add	a0,a0,a1
    53bc:	0805051b          	addiw	a0,a0,128
    53c0:	40000ab7          	lui	s5,0x40000
    53c4:	00001637          	lui	a2,0x1
    53c8:	40c40633          	sub	a2,s0,a2
    53cc:	40a63c23          	sd	a0,1048(a2) # 1418 <.LBB46_4+0x290>
    53d0:	f9043603          	ld	a2,-112(s0)
    53d4:	00055463          	bgez	a0,53dc <.LBB46_222>
    53d8:	c0000ab7          	lui	s5,0xc0000

00000000000053dc <.LBB46_222>:
    53dc:	f8c43823          	sd	a2,-112(s0)
    53e0:	00001537          	lui	a0,0x1
    53e4:	40a40533          	sub	a0,s0,a0
    53e8:	41553823          	sd	s5,1040(a0) # 1410 <.LBB46_4+0x288>
    53ec:	9f843503          	ld	a0,-1544(s0)
    53f0:	ea043a83          	ld	s5,-352(s0)
    53f4:	01550533          	add	a0,a0,s5
    53f8:	00001637          	lui	a2,0x1
    53fc:	40c40633          	sub	a2,s0,a2
    5400:	70063a83          	ld	s5,1792(a2) # 1700 <.LBB46_4+0x578>
    5404:	01550533          	add	a0,a0,s5
    5408:	00b50533          	add	a0,a0,a1
    540c:	0805051b          	addiw	a0,a0,128
    5410:	40000ab7          	lui	s5,0x40000
    5414:	00001637          	lui	a2,0x1
    5418:	40c40633          	sub	a2,s0,a2
    541c:	42a63423          	sd	a0,1064(a2) # 1428 <.LBB46_4+0x2a0>
    5420:	f9043603          	ld	a2,-112(s0)
    5424:	00055463          	bgez	a0,542c <.LBB46_224>
    5428:	c0000ab7          	lui	s5,0xc0000

000000000000542c <.LBB46_224>:
    542c:	f8c43823          	sd	a2,-112(s0)
    5430:	00001537          	lui	a0,0x1
    5434:	40a40533          	sub	a0,s0,a0
    5438:	43553023          	sd	s5,1056(a0) # 1420 <.LBB46_4+0x298>
    543c:	a0043503          	ld	a0,-1536(s0)
    5440:	ea843a83          	ld	s5,-344(s0)
    5444:	01550533          	add	a0,a0,s5
    5448:	01a50533          	add	a0,a0,s10
    544c:	00b50533          	add	a0,a0,a1
    5450:	0805051b          	addiw	a0,a0,128
    5454:	40000ab7          	lui	s5,0x40000
    5458:	00001637          	lui	a2,0x1
    545c:	40c40633          	sub	a2,s0,a2
    5460:	42a63c23          	sd	a0,1080(a2) # 1438 <.LBB46_4+0x2b0>
    5464:	f9043603          	ld	a2,-112(s0)
    5468:	00055463          	bgez	a0,5470 <.LBB46_226>
    546c:	c0000ab7          	lui	s5,0xc0000

0000000000005470 <.LBB46_226>:
    5470:	f8c43823          	sd	a2,-112(s0)
    5474:	00001537          	lui	a0,0x1
    5478:	40a40533          	sub	a0,s0,a0
    547c:	43553823          	sd	s5,1072(a0) # 1430 <.LBB46_4+0x2a8>
    5480:	a0843503          	ld	a0,-1528(s0)
    5484:	eb043a83          	ld	s5,-336(s0)
    5488:	01550533          	add	a0,a0,s5
    548c:	00001637          	lui	a2,0x1
    5490:	40c40633          	sub	a2,s0,a2
    5494:	71063a83          	ld	s5,1808(a2) # 1710 <.LBB46_4+0x588>
    5498:	01550533          	add	a0,a0,s5
    549c:	00b50533          	add	a0,a0,a1
    54a0:	0805051b          	addiw	a0,a0,128
    54a4:	40000ab7          	lui	s5,0x40000
    54a8:	00001637          	lui	a2,0x1
    54ac:	40c40633          	sub	a2,s0,a2
    54b0:	44a63423          	sd	a0,1096(a2) # 1448 <.LBB46_4+0x2c0>
    54b4:	f9043603          	ld	a2,-112(s0)
    54b8:	00055463          	bgez	a0,54c0 <.LBB46_228>
    54bc:	c0000ab7          	lui	s5,0xc0000

00000000000054c0 <.LBB46_228>:
    54c0:	f8c43823          	sd	a2,-112(s0)
    54c4:	00001537          	lui	a0,0x1
    54c8:	40a40533          	sub	a0,s0,a0
    54cc:	45553023          	sd	s5,1088(a0) # 1440 <.LBB46_4+0x2b8>
    54d0:	a1043503          	ld	a0,-1520(s0)
    54d4:	f0843a83          	ld	s5,-248(s0)
    54d8:	01550533          	add	a0,a0,s5
    54dc:	00001637          	lui	a2,0x1
    54e0:	40c40633          	sub	a2,s0,a2
    54e4:	71863a83          	ld	s5,1816(a2) # 1718 <.LBB46_4+0x590>
    54e8:	01550533          	add	a0,a0,s5
    54ec:	00b50533          	add	a0,a0,a1
    54f0:	0805051b          	addiw	a0,a0,128
    54f4:	40000ab7          	lui	s5,0x40000
    54f8:	00001637          	lui	a2,0x1
    54fc:	40c40633          	sub	a2,s0,a2
    5500:	44a63c23          	sd	a0,1112(a2) # 1458 <.LBB46_4+0x2d0>
    5504:	f9043603          	ld	a2,-112(s0)
    5508:	00055463          	bgez	a0,5510 <.LBB46_230>
    550c:	c0000ab7          	lui	s5,0xc0000

0000000000005510 <.LBB46_230>:
    5510:	f8c43823          	sd	a2,-112(s0)
    5514:	00001537          	lui	a0,0x1
    5518:	40a40533          	sub	a0,s0,a0
    551c:	45553823          	sd	s5,1104(a0) # 1450 <.LBB46_4+0x2c8>
    5520:	a1843503          	ld	a0,-1512(s0)
    5524:	f1043a83          	ld	s5,-240(s0)
    5528:	01550533          	add	a0,a0,s5
    552c:	00001637          	lui	a2,0x1
    5530:	40c40633          	sub	a2,s0,a2
    5534:	72063a83          	ld	s5,1824(a2) # 1720 <.LBB46_5+0x4>
    5538:	01550533          	add	a0,a0,s5
    553c:	00b50533          	add	a0,a0,a1
    5540:	0805051b          	addiw	a0,a0,128
    5544:	40000ab7          	lui	s5,0x40000
    5548:	00001637          	lui	a2,0x1
    554c:	40c40633          	sub	a2,s0,a2
    5550:	46a63423          	sd	a0,1128(a2) # 1468 <.LBB46_4+0x2e0>
    5554:	f9043603          	ld	a2,-112(s0)
    5558:	00055463          	bgez	a0,5560 <.LBB46_232>
    555c:	c0000ab7          	lui	s5,0xc0000

0000000000005560 <.LBB46_232>:
    5560:	f8c43823          	sd	a2,-112(s0)
    5564:	00001537          	lui	a0,0x1
    5568:	40a40533          	sub	a0,s0,a0
    556c:	47553023          	sd	s5,1120(a0) # 1460 <.LBB46_4+0x2d8>
    5570:	a2043503          	ld	a0,-1504(s0)
    5574:	f1843a83          	ld	s5,-232(s0)
    5578:	01550533          	add	a0,a0,s5
    557c:	00001637          	lui	a2,0x1
    5580:	40c40633          	sub	a2,s0,a2
    5584:	72863a83          	ld	s5,1832(a2) # 1728 <.LBB46_5+0xc>
    5588:	01550533          	add	a0,a0,s5
    558c:	00b50533          	add	a0,a0,a1
    5590:	0805051b          	addiw	a0,a0,128
    5594:	40000ab7          	lui	s5,0x40000
    5598:	00001637          	lui	a2,0x1
    559c:	40c40633          	sub	a2,s0,a2
    55a0:	46a63c23          	sd	a0,1144(a2) # 1478 <.LBB46_4+0x2f0>
    55a4:	f9043603          	ld	a2,-112(s0)
    55a8:	00055463          	bgez	a0,55b0 <.LBB46_234>
    55ac:	c0000ab7          	lui	s5,0xc0000

00000000000055b0 <.LBB46_234>:
    55b0:	f8c43823          	sd	a2,-112(s0)
    55b4:	00001537          	lui	a0,0x1
    55b8:	40a40533          	sub	a0,s0,a0
    55bc:	47553823          	sd	s5,1136(a0) # 1470 <.LBB46_4+0x2e8>
    55c0:	a2843503          	ld	a0,-1496(s0)
    55c4:	f2043a83          	ld	s5,-224(s0)
    55c8:	01550533          	add	a0,a0,s5
    55cc:	00001637          	lui	a2,0x1
    55d0:	40c40633          	sub	a2,s0,a2
    55d4:	73063a83          	ld	s5,1840(a2) # 1730 <.LBB46_5+0x14>
    55d8:	01550533          	add	a0,a0,s5
    55dc:	00b50533          	add	a0,a0,a1
    55e0:	0805051b          	addiw	a0,a0,128
    55e4:	40000ab7          	lui	s5,0x40000
    55e8:	00001637          	lui	a2,0x1
    55ec:	40c40633          	sub	a2,s0,a2
    55f0:	48a63423          	sd	a0,1160(a2) # 1488 <.LBB46_4+0x300>
    55f4:	f9043603          	ld	a2,-112(s0)
    55f8:	00055463          	bgez	a0,5600 <.LBB46_236>
    55fc:	c0000ab7          	lui	s5,0xc0000

0000000000005600 <.LBB46_236>:
    5600:	f8c43823          	sd	a2,-112(s0)
    5604:	00001537          	lui	a0,0x1
    5608:	40a40533          	sub	a0,s0,a0
    560c:	49553023          	sd	s5,1152(a0) # 1480 <.LBB46_4+0x2f8>
    5610:	a3043503          	ld	a0,-1488(s0)
    5614:	f2843a83          	ld	s5,-216(s0)
    5618:	01550533          	add	a0,a0,s5
    561c:	00001637          	lui	a2,0x1
    5620:	40c40633          	sub	a2,s0,a2
    5624:	73863a83          	ld	s5,1848(a2) # 1738 <.LBB46_5+0x1c>
    5628:	01550533          	add	a0,a0,s5
    562c:	00b50533          	add	a0,a0,a1
    5630:	0805051b          	addiw	a0,a0,128
    5634:	40000ab7          	lui	s5,0x40000
    5638:	00001637          	lui	a2,0x1
    563c:	40c40633          	sub	a2,s0,a2
    5640:	48a63c23          	sd	a0,1176(a2) # 1498 <.LBB46_4+0x310>
    5644:	f9043603          	ld	a2,-112(s0)
    5648:	00055463          	bgez	a0,5650 <.LBB46_238>
    564c:	c0000ab7          	lui	s5,0xc0000

0000000000005650 <.LBB46_238>:
    5650:	f8c43823          	sd	a2,-112(s0)
    5654:	00001537          	lui	a0,0x1
    5658:	40a40533          	sub	a0,s0,a0
    565c:	49553823          	sd	s5,1168(a0) # 1490 <.LBB46_4+0x308>
    5660:	a3843503          	ld	a0,-1480(s0)
    5664:	f3043a83          	ld	s5,-208(s0)
    5668:	01550533          	add	a0,a0,s5
    566c:	00001637          	lui	a2,0x1
    5670:	40c40633          	sub	a2,s0,a2
    5674:	74063a83          	ld	s5,1856(a2) # 1740 <.LBB46_5+0x24>
    5678:	01550533          	add	a0,a0,s5
    567c:	00b50533          	add	a0,a0,a1
    5680:	0805051b          	addiw	a0,a0,128
    5684:	40000ab7          	lui	s5,0x40000
    5688:	00001637          	lui	a2,0x1
    568c:	40c40633          	sub	a2,s0,a2
    5690:	4aa63423          	sd	a0,1192(a2) # 14a8 <.LBB46_4+0x320>
    5694:	f9043603          	ld	a2,-112(s0)
    5698:	00055463          	bgez	a0,56a0 <.LBB46_240>
    569c:	c0000ab7          	lui	s5,0xc0000

00000000000056a0 <.LBB46_240>:
    56a0:	f8c43823          	sd	a2,-112(s0)
    56a4:	00001537          	lui	a0,0x1
    56a8:	40a40533          	sub	a0,s0,a0
    56ac:	4b553023          	sd	s5,1184(a0) # 14a0 <.LBB46_4+0x318>
    56b0:	a4043503          	ld	a0,-1472(s0)
    56b4:	f3843a83          	ld	s5,-200(s0)
    56b8:	01550533          	add	a0,a0,s5
    56bc:	00001637          	lui	a2,0x1
    56c0:	40c40633          	sub	a2,s0,a2
    56c4:	74863a83          	ld	s5,1864(a2) # 1748 <.LBB46_5+0x2c>
    56c8:	01550533          	add	a0,a0,s5
    56cc:	00b50533          	add	a0,a0,a1
    56d0:	0805051b          	addiw	a0,a0,128
    56d4:	40000ab7          	lui	s5,0x40000
    56d8:	00001637          	lui	a2,0x1
    56dc:	40c40633          	sub	a2,s0,a2
    56e0:	4aa63c23          	sd	a0,1208(a2) # 14b8 <.LBB46_4+0x330>
    56e4:	f9043603          	ld	a2,-112(s0)
    56e8:	00055463          	bgez	a0,56f0 <.LBB46_242>
    56ec:	c0000ab7          	lui	s5,0xc0000

00000000000056f0 <.LBB46_242>:
    56f0:	f8c43823          	sd	a2,-112(s0)
    56f4:	00001537          	lui	a0,0x1
    56f8:	40a40533          	sub	a0,s0,a0
    56fc:	4b553823          	sd	s5,1200(a0) # 14b0 <.LBB46_4+0x328>
    5700:	a4843503          	ld	a0,-1464(s0)
    5704:	f4043a83          	ld	s5,-192(s0)
    5708:	01550533          	add	a0,a0,s5
    570c:	00001637          	lui	a2,0x1
    5710:	40c40633          	sub	a2,s0,a2
    5714:	75063a83          	ld	s5,1872(a2) # 1750 <.LBB46_5+0x34>
    5718:	01550533          	add	a0,a0,s5
    571c:	00b50533          	add	a0,a0,a1
    5720:	0805051b          	addiw	a0,a0,128
    5724:	40000ab7          	lui	s5,0x40000
    5728:	00001637          	lui	a2,0x1
    572c:	40c40633          	sub	a2,s0,a2
    5730:	4ca63423          	sd	a0,1224(a2) # 14c8 <.LBB46_4+0x340>
    5734:	f9043603          	ld	a2,-112(s0)
    5738:	00055463          	bgez	a0,5740 <.LBB46_244>
    573c:	c0000ab7          	lui	s5,0xc0000

0000000000005740 <.LBB46_244>:
    5740:	f8c43823          	sd	a2,-112(s0)
    5744:	00001537          	lui	a0,0x1
    5748:	40a40533          	sub	a0,s0,a0
    574c:	4d553023          	sd	s5,1216(a0) # 14c0 <.LBB46_4+0x338>
    5750:	a5043503          	ld	a0,-1456(s0)
    5754:	f4843a83          	ld	s5,-184(s0)
    5758:	01550533          	add	a0,a0,s5
    575c:	00001637          	lui	a2,0x1
    5760:	40c40633          	sub	a2,s0,a2
    5764:	75863a83          	ld	s5,1880(a2) # 1758 <.LBB46_5+0x3c>
    5768:	01550533          	add	a0,a0,s5
    576c:	00b50533          	add	a0,a0,a1
    5770:	0805051b          	addiw	a0,a0,128
    5774:	40000ab7          	lui	s5,0x40000
    5778:	00001637          	lui	a2,0x1
    577c:	40c40633          	sub	a2,s0,a2
    5780:	4ca63c23          	sd	a0,1240(a2) # 14d8 <.LBB46_4+0x350>
    5784:	f9043603          	ld	a2,-112(s0)
    5788:	00055463          	bgez	a0,5790 <.LBB46_246>
    578c:	c0000ab7          	lui	s5,0xc0000

0000000000005790 <.LBB46_246>:
    5790:	f8c43823          	sd	a2,-112(s0)
    5794:	00001537          	lui	a0,0x1
    5798:	40a40533          	sub	a0,s0,a0
    579c:	4d553823          	sd	s5,1232(a0) # 14d0 <.LBB46_4+0x348>
    57a0:	a5843503          	ld	a0,-1448(s0)
    57a4:	f5043a83          	ld	s5,-176(s0)
    57a8:	01550533          	add	a0,a0,s5
    57ac:	00001637          	lui	a2,0x1
    57b0:	40c40633          	sub	a2,s0,a2
    57b4:	76063a83          	ld	s5,1888(a2) # 1760 <.LBB46_5+0x44>
    57b8:	01550533          	add	a0,a0,s5
    57bc:	00b50533          	add	a0,a0,a1
    57c0:	0805051b          	addiw	a0,a0,128
    57c4:	40000ab7          	lui	s5,0x40000
    57c8:	00001637          	lui	a2,0x1
    57cc:	40c40633          	sub	a2,s0,a2
    57d0:	4ea63423          	sd	a0,1256(a2) # 14e8 <.LBB46_4+0x360>
    57d4:	f9043603          	ld	a2,-112(s0)
    57d8:	00055463          	bgez	a0,57e0 <.LBB46_248>
    57dc:	c0000ab7          	lui	s5,0xc0000

00000000000057e0 <.LBB46_248>:
    57e0:	f8c43823          	sd	a2,-112(s0)
    57e4:	00001537          	lui	a0,0x1
    57e8:	40a40533          	sub	a0,s0,a0
    57ec:	4f553023          	sd	s5,1248(a0) # 14e0 <.LBB46_4+0x358>
    57f0:	a6043503          	ld	a0,-1440(s0)
    57f4:	f5843a83          	ld	s5,-168(s0)
    57f8:	01550533          	add	a0,a0,s5
    57fc:	00001637          	lui	a2,0x1
    5800:	40c40633          	sub	a2,s0,a2
    5804:	76863a83          	ld	s5,1896(a2) # 1768 <.LBB46_5+0x4c>
    5808:	01550533          	add	a0,a0,s5
    580c:	00b50533          	add	a0,a0,a1
    5810:	0805051b          	addiw	a0,a0,128
    5814:	40000ab7          	lui	s5,0x40000
    5818:	00001637          	lui	a2,0x1
    581c:	40c40633          	sub	a2,s0,a2
    5820:	4ea63c23          	sd	a0,1272(a2) # 14f8 <.LBB46_4+0x370>
    5824:	f9043603          	ld	a2,-112(s0)
    5828:	00055463          	bgez	a0,5830 <.LBB46_250>
    582c:	c0000ab7          	lui	s5,0xc0000

0000000000005830 <.LBB46_250>:
    5830:	f8c43823          	sd	a2,-112(s0)
    5834:	00001537          	lui	a0,0x1
    5838:	40a40533          	sub	a0,s0,a0
    583c:	4f553823          	sd	s5,1264(a0) # 14f0 <.LBB46_4+0x368>
    5840:	a6843503          	ld	a0,-1432(s0)
    5844:	f6043a83          	ld	s5,-160(s0)
    5848:	01550533          	add	a0,a0,s5
    584c:	00001637          	lui	a2,0x1
    5850:	40c40633          	sub	a2,s0,a2
    5854:	77063a83          	ld	s5,1904(a2) # 1770 <.LBB46_5+0x54>
    5858:	01550533          	add	a0,a0,s5
    585c:	00b50533          	add	a0,a0,a1
    5860:	0805051b          	addiw	a0,a0,128
    5864:	40000ab7          	lui	s5,0x40000
    5868:	00001637          	lui	a2,0x1
    586c:	40c40633          	sub	a2,s0,a2
    5870:	50a63423          	sd	a0,1288(a2) # 1508 <.LBB46_4+0x380>
    5874:	f9043603          	ld	a2,-112(s0)
    5878:	00055463          	bgez	a0,5880 <.LBB46_252>
    587c:	c0000ab7          	lui	s5,0xc0000

0000000000005880 <.LBB46_252>:
    5880:	f8c43823          	sd	a2,-112(s0)
    5884:	00001537          	lui	a0,0x1
    5888:	40a40533          	sub	a0,s0,a0
    588c:	51553023          	sd	s5,1280(a0) # 1500 <.LBB46_4+0x378>
    5890:	a7043503          	ld	a0,-1424(s0)
    5894:	f6843a83          	ld	s5,-152(s0)
    5898:	01550533          	add	a0,a0,s5
    589c:	00001637          	lui	a2,0x1
    58a0:	40c40633          	sub	a2,s0,a2
    58a4:	77863a83          	ld	s5,1912(a2) # 1778 <.LBB46_5+0x5c>
    58a8:	01550533          	add	a0,a0,s5
    58ac:	00b50533          	add	a0,a0,a1
    58b0:	0805051b          	addiw	a0,a0,128
    58b4:	40000ab7          	lui	s5,0x40000
    58b8:	00001637          	lui	a2,0x1
    58bc:	40c40633          	sub	a2,s0,a2
    58c0:	50a63c23          	sd	a0,1304(a2) # 1518 <.LBB46_4+0x390>
    58c4:	f9043603          	ld	a2,-112(s0)
    58c8:	00055463          	bgez	a0,58d0 <.LBB46_254>
    58cc:	c0000ab7          	lui	s5,0xc0000

00000000000058d0 <.LBB46_254>:
    58d0:	f8c43823          	sd	a2,-112(s0)
    58d4:	00001537          	lui	a0,0x1
    58d8:	40a40533          	sub	a0,s0,a0
    58dc:	51553823          	sd	s5,1296(a0) # 1510 <.LBB46_4+0x388>
    58e0:	a7843503          	ld	a0,-1416(s0)
    58e4:	f7043a83          	ld	s5,-144(s0)
    58e8:	01550533          	add	a0,a0,s5
    58ec:	00001637          	lui	a2,0x1
    58f0:	40c40633          	sub	a2,s0,a2
    58f4:	70863a83          	ld	s5,1800(a2) # 1708 <.LBB46_4+0x580>
    58f8:	01550533          	add	a0,a0,s5
    58fc:	00b50533          	add	a0,a0,a1
    5900:	0805051b          	addiw	a0,a0,128
    5904:	40000ab7          	lui	s5,0x40000
    5908:	00001637          	lui	a2,0x1
    590c:	40c40633          	sub	a2,s0,a2
    5910:	52a63423          	sd	a0,1320(a2) # 1528 <.LBB46_4+0x3a0>
    5914:	f9043603          	ld	a2,-112(s0)
    5918:	00055463          	bgez	a0,5920 <.LBB46_256>
    591c:	c0000ab7          	lui	s5,0xc0000

0000000000005920 <.LBB46_256>:
    5920:	f8c43823          	sd	a2,-112(s0)
    5924:	00001537          	lui	a0,0x1
    5928:	40a40533          	sub	a0,s0,a0
    592c:	53553023          	sd	s5,1312(a0) # 1520 <.LBB46_4+0x398>
    5930:	a8043503          	ld	a0,-1408(s0)
    5934:	f7843a83          	ld	s5,-136(s0)
    5938:	01550533          	add	a0,a0,s5
    593c:	00001637          	lui	a2,0x1
    5940:	40c40633          	sub	a2,s0,a2
    5944:	78063a83          	ld	s5,1920(a2) # 1780 <.LBB46_5+0x64>
    5948:	01550533          	add	a0,a0,s5
    594c:	00b50533          	add	a0,a0,a1
    5950:	0805051b          	addiw	a0,a0,128
    5954:	40000ab7          	lui	s5,0x40000
    5958:	00001637          	lui	a2,0x1
    595c:	40c40633          	sub	a2,s0,a2
    5960:	52a63c23          	sd	a0,1336(a2) # 1538 <.LBB46_4+0x3b0>
    5964:	f9043603          	ld	a2,-112(s0)
    5968:	00055463          	bgez	a0,5970 <.LBB46_258>
    596c:	c0000ab7          	lui	s5,0xc0000

0000000000005970 <.LBB46_258>:
    5970:	f8c43823          	sd	a2,-112(s0)
    5974:	00001537          	lui	a0,0x1
    5978:	40a40533          	sub	a0,s0,a0
    597c:	53553823          	sd	s5,1328(a0) # 1530 <.LBB46_4+0x3a8>
    5980:	a8843503          	ld	a0,-1400(s0)
    5984:	f8043a83          	ld	s5,-128(s0)
    5988:	01550533          	add	a0,a0,s5
    598c:	00001637          	lui	a2,0x1
    5990:	40c40633          	sub	a2,s0,a2
    5994:	78863a83          	ld	s5,1928(a2) # 1788 <.LBB46_5+0x6c>
    5998:	01550533          	add	a0,a0,s5
    599c:	00b50533          	add	a0,a0,a1
    59a0:	0805051b          	addiw	a0,a0,128
    59a4:	40000ab7          	lui	s5,0x40000
    59a8:	00001637          	lui	a2,0x1
    59ac:	40c40633          	sub	a2,s0,a2
    59b0:	54a63423          	sd	a0,1352(a2) # 1548 <.LBB46_4+0x3c0>
    59b4:	f9043603          	ld	a2,-112(s0)
    59b8:	00055463          	bgez	a0,59c0 <.LBB46_260>
    59bc:	c0000ab7          	lui	s5,0xc0000

00000000000059c0 <.LBB46_260>:
    59c0:	00001537          	lui	a0,0x1
    59c4:	40a40533          	sub	a0,s0,a0
    59c8:	55553023          	sd	s5,1344(a0) # 1540 <.LBB46_4+0x3b8>
    59cc:	a9043503          	ld	a0,-1392(s0)
    59d0:	f8843a83          	ld	s5,-120(s0)
    59d4:	01550533          	add	a0,a0,s5
    59d8:	00001ab7          	lui	s5,0x1
    59dc:	41540ab3          	sub	s5,s0,s5
    59e0:	790aba83          	ld	s5,1936(s5) # 1790 <.LBB46_5+0x74>
    59e4:	01550533          	add	a0,a0,s5
    59e8:	00b50533          	add	a0,a0,a1
    59ec:	0805051b          	addiw	a0,a0,128
    59f0:	400005b7          	lui	a1,0x40000
    59f4:	00001ab7          	lui	s5,0x1
    59f8:	41540ab3          	sub	s5,s0,s5
    59fc:	54aabc23          	sd	a0,1368(s5) # 1558 <.LBB46_4+0x3d0>
    5a00:	00055463          	bgez	a0,5a08 <.LBB46_262>
    5a04:	c00005b7          	lui	a1,0xc0000

0000000000005a08 <.LBB46_262>:
    5a08:	f8c43823          	sd	a2,-112(s0)
    5a0c:	00001537          	lui	a0,0x1
    5a10:	40a40533          	sub	a0,s0,a0
    5a14:	54b53823          	sd	a1,1360(a0) # 1550 <.LBB46_4+0x3c8>
    5a18:	a9843503          	ld	a0,-1384(s0)
    5a1c:	e8843583          	ld	a1,-376(s0)
    5a20:	00b50533          	add	a0,a0,a1
    5a24:	e8043583          	ld	a1,-384(s0)
    5a28:	00b50533          	add	a0,a0,a1
    5a2c:	00f50533          	add	a0,a0,a5
    5a30:	0805051b          	addiw	a0,a0,128
    5a34:	40000ab7          	lui	s5,0x40000
    5a38:	e4043583          	ld	a1,-448(s0)
    5a3c:	00001637          	lui	a2,0x1
    5a40:	40c40633          	sub	a2,s0,a2
    5a44:	56a63423          	sd	a0,1384(a2) # 1568 <.LBB46_4+0x3e0>
    5a48:	f9043603          	ld	a2,-112(s0)
    5a4c:	00055463          	bgez	a0,5a54 <.LBB46_264>
    5a50:	c0000ab7          	lui	s5,0xc0000

0000000000005a54 <.LBB46_264>:
    5a54:	f8b43823          	sd	a1,-112(s0)
    5a58:	00001537          	lui	a0,0x1
    5a5c:	40a40533          	sub	a0,s0,a0
    5a60:	57553023          	sd	s5,1376(a0) # 1560 <.LBB46_4+0x3d8>
    5a64:	aa043503          	ld	a0,-1376(s0)
    5a68:	e7843a83          	ld	s5,-392(s0)
    5a6c:	01550533          	add	a0,a0,s5
    5a70:	e7043a83          	ld	s5,-400(s0)
    5a74:	01550533          	add	a0,a0,s5
    5a78:	00f50533          	add	a0,a0,a5
    5a7c:	0805051b          	addiw	a0,a0,128
    5a80:	40000ab7          	lui	s5,0x40000
    5a84:	000015b7          	lui	a1,0x1
    5a88:	40b405b3          	sub	a1,s0,a1
    5a8c:	56a5bc23          	sd	a0,1400(a1) # 1578 <.LBB46_4+0x3f0>
    5a90:	f9043583          	ld	a1,-112(s0)
    5a94:	00055463          	bgez	a0,5a9c <.LBB46_266>
    5a98:	c0000ab7          	lui	s5,0xc0000

0000000000005a9c <.LBB46_266>:
    5a9c:	f8b43823          	sd	a1,-112(s0)
    5aa0:	00001537          	lui	a0,0x1
    5aa4:	40a40533          	sub	a0,s0,a0
    5aa8:	57553823          	sd	s5,1392(a0) # 1570 <.LBB46_4+0x3e8>
    5aac:	aa843503          	ld	a0,-1368(s0)
    5ab0:	e6843a83          	ld	s5,-408(s0)
    5ab4:	01550533          	add	a0,a0,s5
    5ab8:	e6043a83          	ld	s5,-416(s0)
    5abc:	01550533          	add	a0,a0,s5
    5ac0:	00f50533          	add	a0,a0,a5
    5ac4:	0805051b          	addiw	a0,a0,128
    5ac8:	40000ab7          	lui	s5,0x40000
    5acc:	000015b7          	lui	a1,0x1
    5ad0:	40b405b3          	sub	a1,s0,a1
    5ad4:	58a5b423          	sd	a0,1416(a1) # 1588 <.LBB46_4+0x400>
    5ad8:	f9043583          	ld	a1,-112(s0)
    5adc:	00055463          	bgez	a0,5ae4 <.LBB46_268>
    5ae0:	c0000ab7          	lui	s5,0xc0000

0000000000005ae4 <.LBB46_268>:
    5ae4:	f8b43823          	sd	a1,-112(s0)
    5ae8:	00001537          	lui	a0,0x1
    5aec:	40a40533          	sub	a0,s0,a0
    5af0:	59553023          	sd	s5,1408(a0) # 1580 <.LBB46_4+0x3f8>
    5af4:	ab043503          	ld	a0,-1360(s0)
    5af8:	e5843a83          	ld	s5,-424(s0)
    5afc:	01550533          	add	a0,a0,s5
    5b00:	e5043a83          	ld	s5,-432(s0)
    5b04:	01550533          	add	a0,a0,s5
    5b08:	00f50533          	add	a0,a0,a5
    5b0c:	0805051b          	addiw	a0,a0,128
    5b10:	40000ab7          	lui	s5,0x40000
    5b14:	000015b7          	lui	a1,0x1
    5b18:	40b405b3          	sub	a1,s0,a1
    5b1c:	58a5bc23          	sd	a0,1432(a1) # 1598 <.LBB46_4+0x410>
    5b20:	f9043583          	ld	a1,-112(s0)
    5b24:	00055463          	bgez	a0,5b2c <.LBB46_270>
    5b28:	c0000ab7          	lui	s5,0xc0000

0000000000005b2c <.LBB46_270>:
    5b2c:	f8b43823          	sd	a1,-112(s0)
    5b30:	00001537          	lui	a0,0x1
    5b34:	40a40533          	sub	a0,s0,a0
    5b38:	59553823          	sd	s5,1424(a0) # 1590 <.LBB46_4+0x408>
    5b3c:	ab843503          	ld	a0,-1352(s0)
    5b40:	e4843a83          	ld	s5,-440(s0)
    5b44:	01550533          	add	a0,a0,s5
    5b48:	000015b7          	lui	a1,0x1
    5b4c:	40b405b3          	sub	a1,s0,a1
    5b50:	6e05ba83          	ld	s5,1760(a1) # 16e0 <.LBB46_4+0x558>
    5b54:	01550533          	add	a0,a0,s5
    5b58:	00f50533          	add	a0,a0,a5
    5b5c:	0805051b          	addiw	a0,a0,128
    5b60:	40000ab7          	lui	s5,0x40000
    5b64:	000015b7          	lui	a1,0x1
    5b68:	40b405b3          	sub	a1,s0,a1
    5b6c:	5aa5b423          	sd	a0,1448(a1) # 15a8 <.LBB46_4+0x420>
    5b70:	f9043583          	ld	a1,-112(s0)
    5b74:	00055463          	bgez	a0,5b7c <.LBB46_272>
    5b78:	c0000ab7          	lui	s5,0xc0000

0000000000005b7c <.LBB46_272>:
    5b7c:	f8b43823          	sd	a1,-112(s0)
    5b80:	00001537          	lui	a0,0x1
    5b84:	40a40533          	sub	a0,s0,a0
    5b88:	5b553023          	sd	s5,1440(a0) # 15a0 <.LBB46_4+0x418>
    5b8c:	ac043503          	ld	a0,-1344(s0)
    5b90:	000015b7          	lui	a1,0x1
    5b94:	40b405b3          	sub	a1,s0,a1
    5b98:	6d85ba83          	ld	s5,1752(a1) # 16d8 <.LBB46_4+0x550>
    5b9c:	01550533          	add	a0,a0,s5
    5ba0:	000015b7          	lui	a1,0x1
    5ba4:	40b405b3          	sub	a1,s0,a1
    5ba8:	6d05ba83          	ld	s5,1744(a1) # 16d0 <.LBB46_4+0x548>
    5bac:	01550533          	add	a0,a0,s5
    5bb0:	00f50533          	add	a0,a0,a5
    5bb4:	0805051b          	addiw	a0,a0,128
    5bb8:	40000ab7          	lui	s5,0x40000
    5bbc:	000015b7          	lui	a1,0x1
    5bc0:	40b405b3          	sub	a1,s0,a1
    5bc4:	5aa5bc23          	sd	a0,1464(a1) # 15b8 <.LBB46_4+0x430>
    5bc8:	f9043583          	ld	a1,-112(s0)
    5bcc:	00055463          	bgez	a0,5bd4 <.LBB46_274>
    5bd0:	c0000ab7          	lui	s5,0xc0000

0000000000005bd4 <.LBB46_274>:
    5bd4:	f8b43823          	sd	a1,-112(s0)
    5bd8:	00001537          	lui	a0,0x1
    5bdc:	40a40533          	sub	a0,s0,a0
    5be0:	5b553823          	sd	s5,1456(a0) # 15b0 <.LBB46_4+0x428>
    5be4:	ac843503          	ld	a0,-1336(s0)
    5be8:	000015b7          	lui	a1,0x1
    5bec:	40b405b3          	sub	a1,s0,a1
    5bf0:	6c85ba83          	ld	s5,1736(a1) # 16c8 <.LBB46_4+0x540>
    5bf4:	01550533          	add	a0,a0,s5
    5bf8:	000015b7          	lui	a1,0x1
    5bfc:	40b405b3          	sub	a1,s0,a1
    5c00:	6c05ba83          	ld	s5,1728(a1) # 16c0 <.LBB46_4+0x538>
    5c04:	01550533          	add	a0,a0,s5
    5c08:	00f50533          	add	a0,a0,a5
    5c0c:	0805051b          	addiw	a0,a0,128
    5c10:	40000ab7          	lui	s5,0x40000
    5c14:	000015b7          	lui	a1,0x1
    5c18:	40b405b3          	sub	a1,s0,a1
    5c1c:	5ca5b423          	sd	a0,1480(a1) # 15c8 <.LBB46_4+0x440>
    5c20:	f9043583          	ld	a1,-112(s0)
    5c24:	00055463          	bgez	a0,5c2c <.LBB46_276>
    5c28:	c0000ab7          	lui	s5,0xc0000

0000000000005c2c <.LBB46_276>:
    5c2c:	f8b43823          	sd	a1,-112(s0)
    5c30:	00001537          	lui	a0,0x1
    5c34:	40a40533          	sub	a0,s0,a0
    5c38:	5d553023          	sd	s5,1472(a0) # 15c0 <.LBB46_4+0x438>
    5c3c:	ad043503          	ld	a0,-1328(s0)
    5c40:	000015b7          	lui	a1,0x1
    5c44:	40b405b3          	sub	a1,s0,a1
    5c48:	6b85ba83          	ld	s5,1720(a1) # 16b8 <.LBB46_4+0x530>
    5c4c:	01550533          	add	a0,a0,s5
    5c50:	000015b7          	lui	a1,0x1
    5c54:	40b405b3          	sub	a1,s0,a1
    5c58:	6b05ba83          	ld	s5,1712(a1) # 16b0 <.LBB46_4+0x528>
    5c5c:	01550533          	add	a0,a0,s5
    5c60:	00f50533          	add	a0,a0,a5
    5c64:	0805051b          	addiw	a0,a0,128
    5c68:	40000ab7          	lui	s5,0x40000
    5c6c:	000015b7          	lui	a1,0x1
    5c70:	40b405b3          	sub	a1,s0,a1
    5c74:	5ca5bc23          	sd	a0,1496(a1) # 15d8 <.LBB46_4+0x450>
    5c78:	f9043583          	ld	a1,-112(s0)
    5c7c:	00055463          	bgez	a0,5c84 <.LBB46_278>
    5c80:	c0000ab7          	lui	s5,0xc0000

0000000000005c84 <.LBB46_278>:
    5c84:	f8b43823          	sd	a1,-112(s0)
    5c88:	00001537          	lui	a0,0x1
    5c8c:	40a40533          	sub	a0,s0,a0
    5c90:	5d553823          	sd	s5,1488(a0) # 15d0 <.LBB46_4+0x448>
    5c94:	ad843503          	ld	a0,-1320(s0)
    5c98:	000015b7          	lui	a1,0x1
    5c9c:	40b405b3          	sub	a1,s0,a1
    5ca0:	6a85ba83          	ld	s5,1704(a1) # 16a8 <.LBB46_4+0x520>
    5ca4:	01550533          	add	a0,a0,s5
    5ca8:	000015b7          	lui	a1,0x1
    5cac:	40b405b3          	sub	a1,s0,a1
    5cb0:	6a05ba83          	ld	s5,1696(a1) # 16a0 <.LBB46_4+0x518>
    5cb4:	01550533          	add	a0,a0,s5
    5cb8:	00f50533          	add	a0,a0,a5
    5cbc:	0805051b          	addiw	a0,a0,128
    5cc0:	40000ab7          	lui	s5,0x40000
    5cc4:	000015b7          	lui	a1,0x1
    5cc8:	40b405b3          	sub	a1,s0,a1
    5ccc:	5ea5b423          	sd	a0,1512(a1) # 15e8 <.LBB46_4+0x460>
    5cd0:	f9043583          	ld	a1,-112(s0)
    5cd4:	00055463          	bgez	a0,5cdc <.LBB46_280>
    5cd8:	c0000ab7          	lui	s5,0xc0000

0000000000005cdc <.LBB46_280>:
    5cdc:	f8b43823          	sd	a1,-112(s0)
    5ce0:	00001537          	lui	a0,0x1
    5ce4:	40a40533          	sub	a0,s0,a0
    5ce8:	5f553023          	sd	s5,1504(a0) # 15e0 <.LBB46_4+0x458>
    5cec:	ae043503          	ld	a0,-1312(s0)
    5cf0:	000015b7          	lui	a1,0x1
    5cf4:	40b405b3          	sub	a1,s0,a1
    5cf8:	6905ba83          	ld	s5,1680(a1) # 1690 <.LBB46_4+0x508>
    5cfc:	01550533          	add	a0,a0,s5
    5d00:	000015b7          	lui	a1,0x1
    5d04:	40b405b3          	sub	a1,s0,a1
    5d08:	6e85ba83          	ld	s5,1768(a1) # 16e8 <.LBB46_4+0x560>
    5d0c:	01550533          	add	a0,a0,s5
    5d10:	00f50533          	add	a0,a0,a5
    5d14:	0805051b          	addiw	a0,a0,128
    5d18:	40000ab7          	lui	s5,0x40000
    5d1c:	000015b7          	lui	a1,0x1
    5d20:	40b405b3          	sub	a1,s0,a1
    5d24:	5ea5bc23          	sd	a0,1528(a1) # 15f8 <.LBB46_4+0x470>
    5d28:	f9043583          	ld	a1,-112(s0)
    5d2c:	00055463          	bgez	a0,5d34 <.LBB46_282>
    5d30:	c0000ab7          	lui	s5,0xc0000

0000000000005d34 <.LBB46_282>:
    5d34:	f8b43823          	sd	a1,-112(s0)
    5d38:	00001537          	lui	a0,0x1
    5d3c:	40a40533          	sub	a0,s0,a0
    5d40:	5f553823          	sd	s5,1520(a0) # 15f0 <.LBB46_4+0x468>
    5d44:	ae843503          	ld	a0,-1304(s0)
    5d48:	e9043a83          	ld	s5,-368(s0)
    5d4c:	01550533          	add	a0,a0,s5
    5d50:	000015b7          	lui	a1,0x1
    5d54:	40b405b3          	sub	a1,s0,a1
    5d58:	6f05ba83          	ld	s5,1776(a1) # 16f0 <.LBB46_4+0x568>
    5d5c:	01550533          	add	a0,a0,s5
    5d60:	00f50533          	add	a0,a0,a5
    5d64:	0805051b          	addiw	a0,a0,128
    5d68:	40000ab7          	lui	s5,0x40000
    5d6c:	000015b7          	lui	a1,0x1
    5d70:	40b405b3          	sub	a1,s0,a1
    5d74:	60a5b423          	sd	a0,1544(a1) # 1608 <.LBB46_4+0x480>
    5d78:	f9043583          	ld	a1,-112(s0)
    5d7c:	00055463          	bgez	a0,5d84 <.LBB46_284>
    5d80:	c0000ab7          	lui	s5,0xc0000

0000000000005d84 <.LBB46_284>:
    5d84:	f8b43823          	sd	a1,-112(s0)
    5d88:	00001537          	lui	a0,0x1
    5d8c:	40a40533          	sub	a0,s0,a0
    5d90:	61553023          	sd	s5,1536(a0) # 1600 <.LBB46_4+0x478>
    5d94:	af043503          	ld	a0,-1296(s0)
    5d98:	e9843a83          	ld	s5,-360(s0)
    5d9c:	01550533          	add	a0,a0,s5
    5da0:	000015b7          	lui	a1,0x1
    5da4:	40b405b3          	sub	a1,s0,a1
    5da8:	6f85ba83          	ld	s5,1784(a1) # 16f8 <.LBB46_4+0x570>
    5dac:	01550533          	add	a0,a0,s5
    5db0:	00f50533          	add	a0,a0,a5
    5db4:	0805051b          	addiw	a0,a0,128
    5db8:	40000ab7          	lui	s5,0x40000
    5dbc:	000015b7          	lui	a1,0x1
    5dc0:	40b405b3          	sub	a1,s0,a1
    5dc4:	60a5bc23          	sd	a0,1560(a1) # 1618 <.LBB46_4+0x490>
    5dc8:	f9043583          	ld	a1,-112(s0)
    5dcc:	00055463          	bgez	a0,5dd4 <.LBB46_286>
    5dd0:	c0000ab7          	lui	s5,0xc0000

0000000000005dd4 <.LBB46_286>:
    5dd4:	f8b43823          	sd	a1,-112(s0)
    5dd8:	00001537          	lui	a0,0x1
    5ddc:	40a40533          	sub	a0,s0,a0
    5de0:	61553823          	sd	s5,1552(a0) # 1610 <.LBB46_4+0x488>
    5de4:	af843503          	ld	a0,-1288(s0)
    5de8:	ea043a83          	ld	s5,-352(s0)
    5dec:	01550533          	add	a0,a0,s5
    5df0:	000015b7          	lui	a1,0x1
    5df4:	40b405b3          	sub	a1,s0,a1
    5df8:	7005ba83          	ld	s5,1792(a1) # 1700 <.LBB46_4+0x578>
    5dfc:	01550533          	add	a0,a0,s5
    5e00:	00f50533          	add	a0,a0,a5
    5e04:	0805051b          	addiw	a0,a0,128
    5e08:	40000ab7          	lui	s5,0x40000
    5e0c:	000015b7          	lui	a1,0x1
    5e10:	40b405b3          	sub	a1,s0,a1
    5e14:	62a5b423          	sd	a0,1576(a1) # 1628 <.LBB46_4+0x4a0>
    5e18:	f9043583          	ld	a1,-112(s0)
    5e1c:	00055463          	bgez	a0,5e24 <.LBB46_288>
    5e20:	c0000ab7          	lui	s5,0xc0000

0000000000005e24 <.LBB46_288>:
    5e24:	f8b43823          	sd	a1,-112(s0)
    5e28:	00001537          	lui	a0,0x1
    5e2c:	40a40533          	sub	a0,s0,a0
    5e30:	63553023          	sd	s5,1568(a0) # 1620 <.LBB46_4+0x498>
    5e34:	b0043503          	ld	a0,-1280(s0)
    5e38:	ea843a83          	ld	s5,-344(s0)
    5e3c:	01550533          	add	a0,a0,s5
    5e40:	01a50533          	add	a0,a0,s10
    5e44:	00f50533          	add	a0,a0,a5
    5e48:	0805051b          	addiw	a0,a0,128
    5e4c:	40000ab7          	lui	s5,0x40000
    5e50:	000015b7          	lui	a1,0x1
    5e54:	40b405b3          	sub	a1,s0,a1
    5e58:	62a5bc23          	sd	a0,1592(a1) # 1638 <.LBB46_4+0x4b0>
    5e5c:	f9043583          	ld	a1,-112(s0)
    5e60:	00055463          	bgez	a0,5e68 <.LBB46_290>
    5e64:	c0000ab7          	lui	s5,0xc0000

0000000000005e68 <.LBB46_290>:
    5e68:	f8b43823          	sd	a1,-112(s0)
    5e6c:	00001537          	lui	a0,0x1
    5e70:	40a40533          	sub	a0,s0,a0
    5e74:	63553823          	sd	s5,1584(a0) # 1630 <.LBB46_4+0x4a8>
    5e78:	b0843503          	ld	a0,-1272(s0)
    5e7c:	eb043a83          	ld	s5,-336(s0)
    5e80:	01550533          	add	a0,a0,s5
    5e84:	000015b7          	lui	a1,0x1
    5e88:	40b405b3          	sub	a1,s0,a1
    5e8c:	7105ba83          	ld	s5,1808(a1) # 1710 <.LBB46_4+0x588>
    5e90:	01550533          	add	a0,a0,s5
    5e94:	00f50533          	add	a0,a0,a5
    5e98:	0805051b          	addiw	a0,a0,128
    5e9c:	40000ab7          	lui	s5,0x40000
    5ea0:	000015b7          	lui	a1,0x1
    5ea4:	40b405b3          	sub	a1,s0,a1
    5ea8:	64a5b423          	sd	a0,1608(a1) # 1648 <.LBB46_4+0x4c0>
    5eac:	f9043583          	ld	a1,-112(s0)
    5eb0:	00055463          	bgez	a0,5eb8 <.LBB46_292>
    5eb4:	c0000ab7          	lui	s5,0xc0000

0000000000005eb8 <.LBB46_292>:
    5eb8:	00001537          	lui	a0,0x1
    5ebc:	40a40533          	sub	a0,s0,a0
    5ec0:	65553023          	sd	s5,1600(a0) # 1640 <.LBB46_4+0x4b8>
    5ec4:	b1043503          	ld	a0,-1264(s0)
    5ec8:	f0843a83          	ld	s5,-248(s0)
    5ecc:	01550533          	add	a0,a0,s5
    5ed0:	00001ab7          	lui	s5,0x1
    5ed4:	41540ab3          	sub	s5,s0,s5
    5ed8:	718aba83          	ld	s5,1816(s5) # 1718 <.LBB46_4+0x590>
    5edc:	01550533          	add	a0,a0,s5
    5ee0:	00f50533          	add	a0,a0,a5
    5ee4:	0805051b          	addiw	a0,a0,128
    5ee8:	40000ab7          	lui	s5,0x40000
    5eec:	b1543823          	sd	s5,-1264(s0)
    5ef0:	00001ab7          	lui	s5,0x1
    5ef4:	41540ab3          	sub	s5,s0,s5
    5ef8:	66aab823          	sd	a0,1648(s5) # 1670 <.LBB46_4+0x4e8>
    5efc:	00055663          	bgez	a0,5f08 <.LBB46_294>
    5f00:	c0000537          	lui	a0,0xc0000
    5f04:	b0a43823          	sd	a0,-1264(s0)

0000000000005f08 <.LBB46_294>:
    5f08:	f1043503          	ld	a0,-240(s0)
    5f0c:	00ad8533          	add	a0,s11,a0
    5f10:	00001ab7          	lui	s5,0x1
    5f14:	41540ab3          	sub	s5,s0,s5
    5f18:	720aba83          	ld	s5,1824(s5) # 1720 <.LBB46_5+0x4>
    5f1c:	01550533          	add	a0,a0,s5
    5f20:	00f50533          	add	a0,a0,a5
    5f24:	0805051b          	addiw	a0,a0,128 # ffffffffc0000080 <.Lfunc_end80+0xffffffffbffd76b4>
    5f28:	40000db7          	lui	s11,0x40000
    5f2c:	00001ab7          	lui	s5,0x1
    5f30:	41540ab3          	sub	s5,s0,s5
    5f34:	68aab023          	sd	a0,1664(s5) # 1680 <.LBB46_4+0x4f8>
    5f38:	00055463          	bgez	a0,5f40 <.LBB46_296>
    5f3c:	c0000db7          	lui	s11,0xc0000

0000000000005f40 <.LBB46_296>:
    5f40:	00001537          	lui	a0,0x1
    5f44:	40a40533          	sub	a0,s0,a0
    5f48:	67b53c23          	sd	s11,1656(a0) # 1678 <.LBB46_4+0x4f0>
    5f4c:	b2043503          	ld	a0,-1248(s0)
    5f50:	f1843a83          	ld	s5,-232(s0)
    5f54:	01550533          	add	a0,a0,s5
    5f58:	00001ab7          	lui	s5,0x1
    5f5c:	41540ab3          	sub	s5,s0,s5
    5f60:	728aba83          	ld	s5,1832(s5) # 1728 <.LBB46_5+0xc>
    5f64:	01550533          	add	a0,a0,s5
    5f68:	00f50533          	add	a0,a0,a5
    5f6c:	0805051b          	addiw	a0,a0,128
    5f70:	40000db7          	lui	s11,0x40000
    5f74:	b3b43023          	sd	s11,-1248(s0)
    5f78:	00001ab7          	lui	s5,0x1
    5f7c:	41540ab3          	sub	s5,s0,s5
    5f80:	68aabc23          	sd	a0,1688(s5) # 1698 <.LBB46_4+0x510>
    5f84:	00055663          	bgez	a0,5f90 <.LBB46_298>
    5f88:	c0000537          	lui	a0,0xc0000
    5f8c:	b2a43023          	sd	a0,-1248(s0)

0000000000005f90 <.LBB46_298>:
    5f90:	f2043503          	ld	a0,-224(s0)
    5f94:	00a08533          	add	a0,ra,a0
    5f98:	00001ab7          	lui	s5,0x1
    5f9c:	41540ab3          	sub	s5,s0,s5
    5fa0:	730aba83          	ld	s5,1840(s5) # 1730 <.LBB46_5+0x14>
    5fa4:	01550533          	add	a0,a0,s5
    5fa8:	00f50533          	add	a0,a0,a5
    5fac:	0805051b          	addiw	a0,a0,128 # ffffffffc0000080 <.Lfunc_end80+0xffffffffbffd76b4>
    5fb0:	400000b7          	lui	ra,0x40000
    5fb4:	00001ab7          	lui	s5,0x1
    5fb8:	41540ab3          	sub	s5,s0,s5
    5fbc:	7aaab023          	sd	a0,1952(s5) # 17a0 <.LBB46_5+0x84>
    5fc0:	00055463          	bgez	a0,5fc8 <.LBB46_300>
    5fc4:	c00000b7          	lui	ra,0xc0000

0000000000005fc8 <.LBB46_300>:
    5fc8:	00001537          	lui	a0,0x1
    5fcc:	40a40533          	sub	a0,s0,a0
    5fd0:	78153c23          	sd	ra,1944(a0) # 1798 <.LBB46_5+0x7c>
    5fd4:	b3043503          	ld	a0,-1232(s0)
    5fd8:	f2843a83          	ld	s5,-216(s0)
    5fdc:	01550533          	add	a0,a0,s5
    5fe0:	00001ab7          	lui	s5,0x1
    5fe4:	41540ab3          	sub	s5,s0,s5
    5fe8:	738aba83          	ld	s5,1848(s5) # 1738 <.LBB46_5+0x1c>
    5fec:	01550533          	add	a0,a0,s5
    5ff0:	00f50533          	add	a0,a0,a5
    5ff4:	0805051b          	addiw	a0,a0,128
    5ff8:	400000b7          	lui	ra,0x40000
    5ffc:	00001ab7          	lui	s5,0x1
    6000:	41540ab3          	sub	s5,s0,s5
    6004:	7aaab823          	sd	a0,1968(s5) # 17b0 <.LBB46_5+0x94>
    6008:	00055463          	bgez	a0,6010 <.LBB46_302>
    600c:	c00000b7          	lui	ra,0xc0000

0000000000006010 <.LBB46_302>:
    6010:	00001537          	lui	a0,0x1
    6014:	40a40533          	sub	a0,s0,a0
    6018:	7a153423          	sd	ra,1960(a0) # 17a8 <.LBB46_5+0x8c>
    601c:	b3843503          	ld	a0,-1224(s0)
    6020:	f3043a83          	ld	s5,-208(s0)
    6024:	01550533          	add	a0,a0,s5
    6028:	00001ab7          	lui	s5,0x1
    602c:	41540ab3          	sub	s5,s0,s5
    6030:	740aba83          	ld	s5,1856(s5) # 1740 <.LBB46_5+0x24>
    6034:	01550533          	add	a0,a0,s5
    6038:	00f50533          	add	a0,a0,a5
    603c:	0805051b          	addiw	a0,a0,128
    6040:	400000b7          	lui	ra,0x40000
    6044:	00001ab7          	lui	s5,0x1
    6048:	41540ab3          	sub	s5,s0,s5
    604c:	7caab023          	sd	a0,1984(s5) # 17c0 <.LBB46_5+0xa4>
    6050:	00055463          	bgez	a0,6058 <.LBB46_304>
    6054:	c00000b7          	lui	ra,0xc0000

0000000000006058 <.LBB46_304>:
    6058:	00001537          	lui	a0,0x1
    605c:	40a40533          	sub	a0,s0,a0
    6060:	7a153c23          	sd	ra,1976(a0) # 17b8 <.LBB46_5+0x9c>
    6064:	b4043503          	ld	a0,-1216(s0)
    6068:	f3843a83          	ld	s5,-200(s0)
    606c:	01550533          	add	a0,a0,s5
    6070:	00001ab7          	lui	s5,0x1
    6074:	41540ab3          	sub	s5,s0,s5
    6078:	748aba83          	ld	s5,1864(s5) # 1748 <.LBB46_5+0x2c>
    607c:	01550533          	add	a0,a0,s5
    6080:	00f50533          	add	a0,a0,a5
    6084:	0805051b          	addiw	a0,a0,128
    6088:	400000b7          	lui	ra,0x40000
    608c:	00001ab7          	lui	s5,0x1
    6090:	41540ab3          	sub	s5,s0,s5
    6094:	7caabc23          	sd	a0,2008(s5) # 17d8 <.LBB46_5+0xbc>
    6098:	00055463          	bgez	a0,60a0 <.LBB46_306>
    609c:	c00000b7          	lui	ra,0xc0000

00000000000060a0 <.LBB46_306>:
    60a0:	00001537          	lui	a0,0x1
    60a4:	40a40533          	sub	a0,s0,a0
    60a8:	7c153423          	sd	ra,1992(a0) # 17c8 <.LBB46_5+0xac>
    60ac:	b4843503          	ld	a0,-1208(s0)
    60b0:	f4043a83          	ld	s5,-192(s0)
    60b4:	01550533          	add	a0,a0,s5
    60b8:	00001ab7          	lui	s5,0x1
    60bc:	41540ab3          	sub	s5,s0,s5
    60c0:	750aba83          	ld	s5,1872(s5) # 1750 <.LBB46_5+0x34>
    60c4:	01550533          	add	a0,a0,s5
    60c8:	00f50533          	add	a0,a0,a5
    60cc:	0805051b          	addiw	a0,a0,128
    60d0:	400000b7          	lui	ra,0x40000
    60d4:	00001ab7          	lui	s5,0x1
    60d8:	41540ab3          	sub	s5,s0,s5
    60dc:	7eaab423          	sd	a0,2024(s5) # 17e8 <.LBB46_5+0xcc>
    60e0:	00055463          	bgez	a0,60e8 <.LBB46_308>
    60e4:	c00000b7          	lui	ra,0xc0000

00000000000060e8 <.LBB46_308>:
    60e8:	00001537          	lui	a0,0x1
    60ec:	40a40533          	sub	a0,s0,a0
    60f0:	7e153023          	sd	ra,2016(a0) # 17e0 <.LBB46_5+0xc4>
    60f4:	b5043503          	ld	a0,-1200(s0)
    60f8:	f4843a83          	ld	s5,-184(s0)
    60fc:	01550533          	add	a0,a0,s5
    6100:	00001ab7          	lui	s5,0x1
    6104:	41540ab3          	sub	s5,s0,s5
    6108:	758aba83          	ld	s5,1880(s5) # 1758 <.LBB46_5+0x3c>
    610c:	01550533          	add	a0,a0,s5
    6110:	00f50533          	add	a0,a0,a5
    6114:	0805051b          	addiw	a0,a0,128
    6118:	400000b7          	lui	ra,0x40000
    611c:	b4143823          	sd	ra,-1200(s0)
    6120:	00001ab7          	lui	s5,0x1
    6124:	41540ab3          	sub	s5,s0,s5
    6128:	7eaab823          	sd	a0,2032(s5) # 17f0 <.LBB46_5+0xd4>
    612c:	00055663          	bgez	a0,6138 <.LBB46_310>
    6130:	c0000537          	lui	a0,0xc0000
    6134:	b4a43823          	sd	a0,-1200(s0)

0000000000006138 <.LBB46_310>:
    6138:	f5043503          	ld	a0,-176(s0)
    613c:	00ac8533          	add	a0,s9,a0
    6140:	00001ab7          	lui	s5,0x1
    6144:	41540ab3          	sub	s5,s0,s5
    6148:	760aba83          	ld	s5,1888(s5) # 1760 <.LBB46_5+0x44>
    614c:	01550533          	add	a0,a0,s5
    6150:	00f50533          	add	a0,a0,a5
    6154:	0805051b          	addiw	a0,a0,128 # ffffffffc0000080 <.Lfunc_end80+0xffffffffbffd76b4>
    6158:	40000cb7          	lui	s9,0x40000
    615c:	80a43023          	sd	a0,-2048(s0)
    6160:	00055463          	bgez	a0,6168 <.LBB46_312>
    6164:	c0000cb7          	lui	s9,0xc0000

0000000000006168 <.LBB46_312>:
    6168:	00001537          	lui	a0,0x1
    616c:	40a40533          	sub	a0,s0,a0
    6170:	7f953c23          	sd	s9,2040(a0) # 17f8 <.LBB46_5+0xdc>
    6174:	b6043503          	ld	a0,-1184(s0)
    6178:	f5843a83          	ld	s5,-168(s0)
    617c:	01550533          	add	a0,a0,s5
    6180:	00001ab7          	lui	s5,0x1
    6184:	41540ab3          	sub	s5,s0,s5
    6188:	768aba83          	ld	s5,1896(s5) # 1768 <.LBB46_5+0x4c>
    618c:	01550533          	add	a0,a0,s5
    6190:	00f50533          	add	a0,a0,a5
    6194:	0805051b          	addiw	a0,a0,128
    6198:	40000cb7          	lui	s9,0x40000
    619c:	80a43c23          	sd	a0,-2024(s0)
    61a0:	00055463          	bgez	a0,61a8 <.LBB46_314>
    61a4:	c0000cb7          	lui	s9,0xc0000

00000000000061a8 <.LBB46_314>:
    61a8:	81943823          	sd	s9,-2032(s0)
    61ac:	b6843503          	ld	a0,-1176(s0)
    61b0:	f6043a83          	ld	s5,-160(s0)
    61b4:	01550533          	add	a0,a0,s5
    61b8:	00001ab7          	lui	s5,0x1
    61bc:	41540ab3          	sub	s5,s0,s5
    61c0:	770aba83          	ld	s5,1904(s5) # 1770 <.LBB46_5+0x54>
    61c4:	01550533          	add	a0,a0,s5
    61c8:	00f50533          	add	a0,a0,a5
    61cc:	0805051b          	addiw	a0,a0,128
    61d0:	40000cb7          	lui	s9,0x40000
    61d4:	82a43423          	sd	a0,-2008(s0)
    61d8:	00055463          	bgez	a0,61e0 <.LBB46_316>
    61dc:	c0000cb7          	lui	s9,0xc0000

00000000000061e0 <.LBB46_316>:
    61e0:	83943023          	sd	s9,-2016(s0)
    61e4:	b7043503          	ld	a0,-1168(s0)
    61e8:	f6843a83          	ld	s5,-152(s0)
    61ec:	01550533          	add	a0,a0,s5
    61f0:	00001ab7          	lui	s5,0x1
    61f4:	41540ab3          	sub	s5,s0,s5
    61f8:	778aba83          	ld	s5,1912(s5) # 1778 <.LBB46_5+0x5c>
    61fc:	01550533          	add	a0,a0,s5
    6200:	00f50533          	add	a0,a0,a5
    6204:	0805051b          	addiw	a0,a0,128
    6208:	40000cb7          	lui	s9,0x40000
    620c:	82a43c23          	sd	a0,-1992(s0)
    6210:	00055463          	bgez	a0,6218 <.LBB46_318>
    6214:	c0000cb7          	lui	s9,0xc0000

0000000000006218 <.LBB46_318>:
    6218:	83943823          	sd	s9,-2000(s0)
    621c:	b7843503          	ld	a0,-1160(s0)
    6220:	f7043a83          	ld	s5,-144(s0)
    6224:	01550533          	add	a0,a0,s5
    6228:	00001ab7          	lui	s5,0x1
    622c:	41540ab3          	sub	s5,s0,s5
    6230:	708aba83          	ld	s5,1800(s5) # 1708 <.LBB46_4+0x580>
    6234:	01550533          	add	a0,a0,s5
    6238:	00f50533          	add	a0,a0,a5
    623c:	0805051b          	addiw	a0,a0,128
    6240:	40000cb7          	lui	s9,0x40000
    6244:	84a43423          	sd	a0,-1976(s0)
    6248:	00055463          	bgez	a0,6250 <.LBB46_320>
    624c:	c0000cb7          	lui	s9,0xc0000

0000000000006250 <.LBB46_320>:
    6250:	85943023          	sd	s9,-1984(s0)
    6254:	b8043503          	ld	a0,-1152(s0)
    6258:	f7843a83          	ld	s5,-136(s0)
    625c:	01550533          	add	a0,a0,s5
    6260:	00001ab7          	lui	s5,0x1
    6264:	41540ab3          	sub	s5,s0,s5
    6268:	780aba83          	ld	s5,1920(s5) # 1780 <.LBB46_5+0x64>
    626c:	01550533          	add	a0,a0,s5
    6270:	00f50533          	add	a0,a0,a5
    6274:	0805051b          	addiw	a0,a0,128
    6278:	40000cb7          	lui	s9,0x40000
    627c:	86a43023          	sd	a0,-1952(s0)
    6280:	00055463          	bgez	a0,6288 <.LBB46_322>
    6284:	c0000cb7          	lui	s9,0xc0000

0000000000006288 <.LBB46_322>:
    6288:	85943c23          	sd	s9,-1960(s0)
    628c:	b8843503          	ld	a0,-1144(s0)
    6290:	f8043a83          	ld	s5,-128(s0)
    6294:	01550533          	add	a0,a0,s5
    6298:	00001ab7          	lui	s5,0x1
    629c:	41540ab3          	sub	s5,s0,s5
    62a0:	788aba83          	ld	s5,1928(s5) # 1788 <.LBB46_5+0x6c>
    62a4:	01550533          	add	a0,a0,s5
    62a8:	00f50533          	add	a0,a0,a5
    62ac:	0805051b          	addiw	a0,a0,128
    62b0:	40000cb7          	lui	s9,0x40000
    62b4:	86a43823          	sd	a0,-1936(s0)
    62b8:	00055463          	bgez	a0,62c0 <.LBB46_324>
    62bc:	c0000cb7          	lui	s9,0xc0000

00000000000062c0 <.LBB46_324>:
    62c0:	87943423          	sd	s9,-1944(s0)
    62c4:	b9043503          	ld	a0,-1136(s0)
    62c8:	f8843a83          	ld	s5,-120(s0)
    62cc:	01550533          	add	a0,a0,s5
    62d0:	00001ab7          	lui	s5,0x1
    62d4:	41540ab3          	sub	s5,s0,s5
    62d8:	790aba83          	ld	s5,1936(s5) # 1790 <.LBB46_5+0x74>
    62dc:	01550533          	add	a0,a0,s5
    62e0:	00f50533          	add	a0,a0,a5
    62e4:	0805051b          	addiw	a0,a0,128
    62e8:	400007b7          	lui	a5,0x40000
    62ec:	88a43023          	sd	a0,-1920(s0)
    62f0:	00055463          	bgez	a0,62f8 <.LBB46_326>
    62f4:	c00007b7          	lui	a5,0xc0000

00000000000062f8 <.LBB46_326>:
    62f8:	86f43c23          	sd	a5,-1928(s0)
    62fc:	b9843503          	ld	a0,-1128(s0)
    6300:	e8843783          	ld	a5,-376(s0)
    6304:	00f50533          	add	a0,a0,a5
    6308:	e8043783          	ld	a5,-384(s0)
    630c:	00f50533          	add	a0,a0,a5
    6310:	01450533          	add	a0,a0,s4
    6314:	0805051b          	addiw	a0,a0,128
    6318:	40000cb7          	lui	s9,0x40000
    631c:	e2043783          	ld	a5,-480(s0)
    6320:	88a43c23          	sd	a0,-1896(s0)
    6324:	00055463          	bgez	a0,632c <.LBB46_328>
    6328:	c0000cb7          	lui	s9,0xc0000

000000000000632c <.LBB46_328>:
    632c:	89943423          	sd	s9,-1912(s0)
    6330:	ba043503          	ld	a0,-1120(s0)
    6334:	e7843a83          	ld	s5,-392(s0)
    6338:	01550533          	add	a0,a0,s5
    633c:	e7043a83          	ld	s5,-400(s0)
    6340:	01550533          	add	a0,a0,s5
    6344:	01450533          	add	a0,a0,s4
    6348:	0805051b          	addiw	a0,a0,128
    634c:	40000cb7          	lui	s9,0x40000
    6350:	8aa43423          	sd	a0,-1880(s0)
    6354:	00055463          	bgez	a0,635c <.LBB46_330>
    6358:	c0000cb7          	lui	s9,0xc0000

000000000000635c <.LBB46_330>:
    635c:	8b943023          	sd	s9,-1888(s0)
    6360:	ba843503          	ld	a0,-1112(s0)
    6364:	e6843a83          	ld	s5,-408(s0)
    6368:	01550533          	add	a0,a0,s5
    636c:	e6043a83          	ld	s5,-416(s0)
    6370:	01550533          	add	a0,a0,s5
    6374:	01450533          	add	a0,a0,s4
    6378:	0805051b          	addiw	a0,a0,128
    637c:	40000cb7          	lui	s9,0x40000
    6380:	8aa43c23          	sd	a0,-1864(s0)
    6384:	00055463          	bgez	a0,638c <.LBB46_332>
    6388:	c0000cb7          	lui	s9,0xc0000

000000000000638c <.LBB46_332>:
    638c:	8b943823          	sd	s9,-1872(s0)
    6390:	bb043503          	ld	a0,-1104(s0)
    6394:	e5843a83          	ld	s5,-424(s0)
    6398:	01550533          	add	a0,a0,s5
    639c:	e5043a83          	ld	s5,-432(s0)
    63a0:	01550533          	add	a0,a0,s5
    63a4:	01450533          	add	a0,a0,s4
    63a8:	0805051b          	addiw	a0,a0,128
    63ac:	40000cb7          	lui	s9,0x40000
    63b0:	8ca43423          	sd	a0,-1848(s0)
    63b4:	00055463          	bgez	a0,63bc <.LBB46_334>
    63b8:	c0000cb7          	lui	s9,0xc0000

00000000000063bc <.LBB46_334>:
    63bc:	8d943023          	sd	s9,-1856(s0)
    63c0:	bb843503          	ld	a0,-1096(s0)
    63c4:	e4843a83          	ld	s5,-440(s0)
    63c8:	01550533          	add	a0,a0,s5
    63cc:	00001ab7          	lui	s5,0x1
    63d0:	41540ab3          	sub	s5,s0,s5
    63d4:	6e0aba83          	ld	s5,1760(s5) # 16e0 <.LBB46_4+0x558>
    63d8:	01550533          	add	a0,a0,s5
    63dc:	01450533          	add	a0,a0,s4
    63e0:	0805051b          	addiw	a0,a0,128
    63e4:	40000cb7          	lui	s9,0x40000
    63e8:	8ea43023          	sd	a0,-1824(s0)
    63ec:	00055463          	bgez	a0,63f4 <.LBB46_336>
    63f0:	c0000cb7          	lui	s9,0xc0000

00000000000063f4 <.LBB46_336>:
    63f4:	8d943c23          	sd	s9,-1832(s0)
    63f8:	bc043503          	ld	a0,-1088(s0)
    63fc:	00001ab7          	lui	s5,0x1
    6400:	41540ab3          	sub	s5,s0,s5
    6404:	6d8aba83          	ld	s5,1752(s5) # 16d8 <.LBB46_4+0x550>
    6408:	01550533          	add	a0,a0,s5
    640c:	00001ab7          	lui	s5,0x1
    6410:	41540ab3          	sub	s5,s0,s5
    6414:	6d0aba83          	ld	s5,1744(s5) # 16d0 <.LBB46_4+0x548>
    6418:	01550533          	add	a0,a0,s5
    641c:	01450533          	add	a0,a0,s4
    6420:	0805051b          	addiw	a0,a0,128
    6424:	40000cb7          	lui	s9,0x40000
    6428:	8ea43823          	sd	a0,-1808(s0)
    642c:	00055463          	bgez	a0,6434 <.LBB46_338>
    6430:	c0000cb7          	lui	s9,0xc0000

0000000000006434 <.LBB46_338>:
    6434:	8f943423          	sd	s9,-1816(s0)
    6438:	bc843503          	ld	a0,-1080(s0)
    643c:	00001ab7          	lui	s5,0x1
    6440:	41540ab3          	sub	s5,s0,s5
    6444:	6c8aba83          	ld	s5,1736(s5) # 16c8 <.LBB46_4+0x540>
    6448:	01550533          	add	a0,a0,s5
    644c:	00001ab7          	lui	s5,0x1
    6450:	41540ab3          	sub	s5,s0,s5
    6454:	6c0aba83          	ld	s5,1728(s5) # 16c0 <.LBB46_4+0x538>
    6458:	01550533          	add	a0,a0,s5
    645c:	01450533          	add	a0,a0,s4
    6460:	0805051b          	addiw	a0,a0,128
    6464:	40000cb7          	lui	s9,0x40000
    6468:	90a43023          	sd	a0,-1792(s0)
    646c:	00055463          	bgez	a0,6474 <.LBB46_340>
    6470:	c0000cb7          	lui	s9,0xc0000

0000000000006474 <.LBB46_340>:
    6474:	8f943c23          	sd	s9,-1800(s0)
    6478:	bd043503          	ld	a0,-1072(s0)
    647c:	00001ab7          	lui	s5,0x1
    6480:	41540ab3          	sub	s5,s0,s5
    6484:	6b8aba83          	ld	s5,1720(s5) # 16b8 <.LBB46_4+0x530>
    6488:	01550533          	add	a0,a0,s5
    648c:	00001ab7          	lui	s5,0x1
    6490:	41540ab3          	sub	s5,s0,s5
    6494:	6b0aba83          	ld	s5,1712(s5) # 16b0 <.LBB46_4+0x528>
    6498:	01550533          	add	a0,a0,s5
    649c:	01450533          	add	a0,a0,s4
    64a0:	0805051b          	addiw	a0,a0,128
    64a4:	40000cb7          	lui	s9,0x40000
    64a8:	90a43823          	sd	a0,-1776(s0)
    64ac:	00055463          	bgez	a0,64b4 <.LBB46_342>
    64b0:	c0000cb7          	lui	s9,0xc0000

00000000000064b4 <.LBB46_342>:
    64b4:	91943423          	sd	s9,-1784(s0)
    64b8:	bd843503          	ld	a0,-1064(s0)
    64bc:	00001ab7          	lui	s5,0x1
    64c0:	41540ab3          	sub	s5,s0,s5
    64c4:	6a8aba83          	ld	s5,1704(s5) # 16a8 <.LBB46_4+0x520>
    64c8:	01550533          	add	a0,a0,s5
    64cc:	00001ab7          	lui	s5,0x1
    64d0:	41540ab3          	sub	s5,s0,s5
    64d4:	6a0aba83          	ld	s5,1696(s5) # 16a0 <.LBB46_4+0x518>
    64d8:	01550533          	add	a0,a0,s5
    64dc:	01450533          	add	a0,a0,s4
    64e0:	0805051b          	addiw	a0,a0,128
    64e4:	40000cb7          	lui	s9,0x40000
    64e8:	92a43423          	sd	a0,-1752(s0)
    64ec:	00055463          	bgez	a0,64f4 <.LBB46_344>
    64f0:	c0000cb7          	lui	s9,0xc0000

00000000000064f4 <.LBB46_344>:
    64f4:	93943023          	sd	s9,-1760(s0)
    64f8:	be043503          	ld	a0,-1056(s0)
    64fc:	00001ab7          	lui	s5,0x1
    6500:	41540ab3          	sub	s5,s0,s5
    6504:	690aba83          	ld	s5,1680(s5) # 1690 <.LBB46_4+0x508>
    6508:	01550533          	add	a0,a0,s5
    650c:	00001ab7          	lui	s5,0x1
    6510:	41540ab3          	sub	s5,s0,s5
    6514:	6e8aba83          	ld	s5,1768(s5) # 16e8 <.LBB46_4+0x560>
    6518:	01550533          	add	a0,a0,s5
    651c:	01450533          	add	a0,a0,s4
    6520:	0805051b          	addiw	a0,a0,128
    6524:	40000cb7          	lui	s9,0x40000
    6528:	92a43c23          	sd	a0,-1736(s0)
    652c:	00055463          	bgez	a0,6534 <.LBB46_346>
    6530:	c0000cb7          	lui	s9,0xc0000

0000000000006534 <.LBB46_346>:
    6534:	93943823          	sd	s9,-1744(s0)
    6538:	be843503          	ld	a0,-1048(s0)
    653c:	e9043a83          	ld	s5,-368(s0)
    6540:	01550533          	add	a0,a0,s5
    6544:	00001ab7          	lui	s5,0x1
    6548:	41540ab3          	sub	s5,s0,s5
    654c:	6f0aba83          	ld	s5,1776(s5) # 16f0 <.LBB46_4+0x568>
    6550:	01550533          	add	a0,a0,s5
    6554:	01450533          	add	a0,a0,s4
    6558:	0805051b          	addiw	a0,a0,128
    655c:	40000cb7          	lui	s9,0x40000
    6560:	94a43423          	sd	a0,-1720(s0)
    6564:	00055463          	bgez	a0,656c <.LBB46_348>
    6568:	c0000cb7          	lui	s9,0xc0000

000000000000656c <.LBB46_348>:
    656c:	95943023          	sd	s9,-1728(s0)
    6570:	bf043503          	ld	a0,-1040(s0)
    6574:	e9843a83          	ld	s5,-360(s0)
    6578:	01550533          	add	a0,a0,s5
    657c:	00001ab7          	lui	s5,0x1
    6580:	41540ab3          	sub	s5,s0,s5
    6584:	6f8aba83          	ld	s5,1784(s5) # 16f8 <.LBB46_4+0x570>
    6588:	01550533          	add	a0,a0,s5
    658c:	01450533          	add	a0,a0,s4
    6590:	0805051b          	addiw	a0,a0,128
    6594:	40000cb7          	lui	s9,0x40000
    6598:	bf943823          	sd	s9,-1040(s0)
    659c:	94a43c23          	sd	a0,-1704(s0)
    65a0:	00055663          	bgez	a0,65ac <.LBB46_350>
    65a4:	c0000537          	lui	a0,0xc0000
    65a8:	bea43823          	sd	a0,-1040(s0)

00000000000065ac <.LBB46_350>:
    65ac:	ea043503          	ld	a0,-352(s0)
    65b0:	00a48533          	add	a0,s1,a0
    65b4:	000014b7          	lui	s1,0x1
    65b8:	409404b3          	sub	s1,s0,s1
    65bc:	7004b483          	ld	s1,1792(s1) # 1700 <.LBB46_4+0x578>
    65c0:	00950533          	add	a0,a0,s1
    65c4:	01450533          	add	a0,a0,s4
    65c8:	0805051b          	addiw	a0,a0,128 # ffffffffc0000080 <.Lfunc_end80+0xffffffffbffd76b4>
    65cc:	400004b7          	lui	s1,0x40000
    65d0:	96a43423          	sd	a0,-1688(s0)
    65d4:	00001ab7          	lui	s5,0x1
    65d8:	41540ab3          	sub	s5,s0,s5
    65dc:	d78abc83          	ld	s9,-648(s5) # d78 <.LBB46_3+0xb44>
    65e0:	00001ab7          	lui	s5,0x1
    65e4:	41540ab3          	sub	s5,s0,s5
    65e8:	e08aba83          	ld	s5,-504(s5) # e08 <.LBB46_3+0xbd4>
    65ec:	00055463          	bgez	a0,65f4 <.LBB46_352>
    65f0:	c00004b7          	lui	s1,0xc0000

00000000000065f4 <.LBB46_352>:
    65f4:	96943023          	sd	s1,-1696(s0)
    65f8:	c0043503          	ld	a0,-1024(s0)
    65fc:	ea843483          	ld	s1,-344(s0)
    6600:	00950533          	add	a0,a0,s1
    6604:	01a50533          	add	a0,a0,s10
    6608:	01450533          	add	a0,a0,s4
    660c:	0805051b          	addiw	a0,a0,128
    6610:	400004b7          	lui	s1,0x40000
    6614:	96a43c23          	sd	a0,-1672(s0)
    6618:	00055463          	bgez	a0,6620 <.LBB46_354>
    661c:	c00004b7          	lui	s1,0xc0000

0000000000006620 <.LBB46_354>:
    6620:	96943823          	sd	s1,-1680(s0)
    6624:	c0843503          	ld	a0,-1016(s0)
    6628:	eb043483          	ld	s1,-336(s0)
    662c:	00950533          	add	a0,a0,s1
    6630:	000014b7          	lui	s1,0x1
    6634:	409404b3          	sub	s1,s0,s1
    6638:	7104b483          	ld	s1,1808(s1) # 1710 <.LBB46_4+0x588>
    663c:	00950533          	add	a0,a0,s1
    6640:	01450533          	add	a0,a0,s4
    6644:	0805051b          	addiw	a0,a0,128
    6648:	400004b7          	lui	s1,0x40000
    664c:	98a43423          	sd	a0,-1656(s0)
    6650:	00055463          	bgez	a0,6658 <.LBB46_356>
    6654:	c00004b7          	lui	s1,0xc0000

0000000000006658 <.LBB46_356>:
    6658:	98943023          	sd	s1,-1664(s0)
    665c:	c1043503          	ld	a0,-1008(s0)
    6660:	f0843483          	ld	s1,-248(s0)
    6664:	00950533          	add	a0,a0,s1
    6668:	000014b7          	lui	s1,0x1
    666c:	409404b3          	sub	s1,s0,s1
    6670:	7184b483          	ld	s1,1816(s1) # 1718 <.LBB46_4+0x590>
    6674:	00950533          	add	a0,a0,s1
    6678:	01450533          	add	a0,a0,s4
    667c:	0805051b          	addiw	a0,a0,128
    6680:	400004b7          	lui	s1,0x40000
    6684:	9aa43023          	sd	a0,-1632(s0)
    6688:	00055463          	bgez	a0,6690 <.LBB46_358>
    668c:	c00004b7          	lui	s1,0xc0000

0000000000006690 <.LBB46_358>:
    6690:	98943c23          	sd	s1,-1640(s0)
    6694:	c1843503          	ld	a0,-1000(s0)
    6698:	f1043483          	ld	s1,-240(s0)
    669c:	00950533          	add	a0,a0,s1
    66a0:	000014b7          	lui	s1,0x1
    66a4:	409404b3          	sub	s1,s0,s1
    66a8:	7204b483          	ld	s1,1824(s1) # 1720 <.LBB46_5+0x4>
    66ac:	00950533          	add	a0,a0,s1
    66b0:	01450533          	add	a0,a0,s4
    66b4:	0805051b          	addiw	a0,a0,128
    66b8:	400004b7          	lui	s1,0x40000
    66bc:	9aa43823          	sd	a0,-1616(s0)
    66c0:	00055463          	bgez	a0,66c8 <.LBB46_360>
    66c4:	c00004b7          	lui	s1,0xc0000

00000000000066c8 <.LBB46_360>:
    66c8:	9a943423          	sd	s1,-1624(s0)
    66cc:	c2043503          	ld	a0,-992(s0)
    66d0:	f1843483          	ld	s1,-232(s0)
    66d4:	00950533          	add	a0,a0,s1
    66d8:	000014b7          	lui	s1,0x1
    66dc:	409404b3          	sub	s1,s0,s1
    66e0:	7284b483          	ld	s1,1832(s1) # 1728 <.LBB46_5+0xc>
    66e4:	00950533          	add	a0,a0,s1
    66e8:	01450533          	add	a0,a0,s4
    66ec:	0805051b          	addiw	a0,a0,128
    66f0:	400004b7          	lui	s1,0x40000
    66f4:	9ca43023          	sd	a0,-1600(s0)
    66f8:	00055463          	bgez	a0,6700 <.LBB46_362>
    66fc:	c00004b7          	lui	s1,0xc0000

0000000000006700 <.LBB46_362>:
    6700:	9a943c23          	sd	s1,-1608(s0)
    6704:	c2843503          	ld	a0,-984(s0)
    6708:	f2043483          	ld	s1,-224(s0)
    670c:	00950533          	add	a0,a0,s1
    6710:	000014b7          	lui	s1,0x1
    6714:	409404b3          	sub	s1,s0,s1
    6718:	7304b483          	ld	s1,1840(s1) # 1730 <.LBB46_5+0x14>
    671c:	00950533          	add	a0,a0,s1
    6720:	01450533          	add	a0,a0,s4
    6724:	0805051b          	addiw	a0,a0,128
    6728:	400004b7          	lui	s1,0x40000
    672c:	9ca43823          	sd	a0,-1584(s0)
    6730:	00055463          	bgez	a0,6738 <.LBB46_364>
    6734:	c00004b7          	lui	s1,0xc0000

0000000000006738 <.LBB46_364>:
    6738:	9c943423          	sd	s1,-1592(s0)
    673c:	c3043503          	ld	a0,-976(s0)
    6740:	f2843483          	ld	s1,-216(s0)
    6744:	00950533          	add	a0,a0,s1
    6748:	000014b7          	lui	s1,0x1
    674c:	409404b3          	sub	s1,s0,s1
    6750:	7384b483          	ld	s1,1848(s1) # 1738 <.LBB46_5+0x1c>
    6754:	00950533          	add	a0,a0,s1
    6758:	01450533          	add	a0,a0,s4
    675c:	0805051b          	addiw	a0,a0,128
    6760:	400004b7          	lui	s1,0x40000
    6764:	9ea43423          	sd	a0,-1560(s0)
    6768:	00055463          	bgez	a0,6770 <.LBB46_366>
    676c:	c00004b7          	lui	s1,0xc0000

0000000000006770 <.LBB46_366>:
    6770:	9e943023          	sd	s1,-1568(s0)
    6774:	c3843503          	ld	a0,-968(s0)
    6778:	f3043483          	ld	s1,-208(s0)
    677c:	00950533          	add	a0,a0,s1
    6780:	000014b7          	lui	s1,0x1
    6784:	409404b3          	sub	s1,s0,s1
    6788:	7404b483          	ld	s1,1856(s1) # 1740 <.LBB46_5+0x24>
    678c:	00950533          	add	a0,a0,s1
    6790:	01450533          	add	a0,a0,s4
    6794:	0805051b          	addiw	a0,a0,128
    6798:	400004b7          	lui	s1,0x40000
    679c:	9ea43c23          	sd	a0,-1544(s0)
    67a0:	00055463          	bgez	a0,67a8 <.LBB46_368>
    67a4:	c00004b7          	lui	s1,0xc0000

00000000000067a8 <.LBB46_368>:
    67a8:	9e943823          	sd	s1,-1552(s0)
    67ac:	c4043503          	ld	a0,-960(s0)
    67b0:	f3843483          	ld	s1,-200(s0)
    67b4:	00950533          	add	a0,a0,s1
    67b8:	000014b7          	lui	s1,0x1
    67bc:	409404b3          	sub	s1,s0,s1
    67c0:	7484b483          	ld	s1,1864(s1) # 1748 <.LBB46_5+0x2c>
    67c4:	00950533          	add	a0,a0,s1
    67c8:	01450533          	add	a0,a0,s4
    67cc:	0805051b          	addiw	a0,a0,128
    67d0:	400004b7          	lui	s1,0x40000
    67d4:	a0a43423          	sd	a0,-1528(s0)
    67d8:	00055463          	bgez	a0,67e0 <.LBB46_370>
    67dc:	c00004b7          	lui	s1,0xc0000

00000000000067e0 <.LBB46_370>:
    67e0:	a0943023          	sd	s1,-1536(s0)
    67e4:	c4843503          	ld	a0,-952(s0)
    67e8:	f4043483          	ld	s1,-192(s0)
    67ec:	00950533          	add	a0,a0,s1
    67f0:	000014b7          	lui	s1,0x1
    67f4:	409404b3          	sub	s1,s0,s1
    67f8:	7504b483          	ld	s1,1872(s1) # 1750 <.LBB46_5+0x34>
    67fc:	00950533          	add	a0,a0,s1
    6800:	01450533          	add	a0,a0,s4
    6804:	0805051b          	addiw	a0,a0,128
    6808:	400004b7          	lui	s1,0x40000
    680c:	a2a43023          	sd	a0,-1504(s0)
    6810:	00055463          	bgez	a0,6818 <.LBB46_372>
    6814:	c00004b7          	lui	s1,0xc0000

0000000000006818 <.LBB46_372>:
    6818:	a0943823          	sd	s1,-1520(s0)
    681c:	c5043503          	ld	a0,-944(s0)
    6820:	f4843483          	ld	s1,-184(s0)
    6824:	00950533          	add	a0,a0,s1
    6828:	000014b7          	lui	s1,0x1
    682c:	409404b3          	sub	s1,s0,s1
    6830:	7584b483          	ld	s1,1880(s1) # 1758 <.LBB46_5+0x3c>
    6834:	00950533          	add	a0,a0,s1
    6838:	01450533          	add	a0,a0,s4
    683c:	0805051b          	addiw	a0,a0,128
    6840:	400004b7          	lui	s1,0x40000
    6844:	a2a43823          	sd	a0,-1488(s0)
    6848:	00055463          	bgez	a0,6850 <.LBB46_374>
    684c:	c00004b7          	lui	s1,0xc0000

0000000000006850 <.LBB46_374>:
    6850:	a2943423          	sd	s1,-1496(s0)
    6854:	c5843503          	ld	a0,-936(s0)
    6858:	f5043483          	ld	s1,-176(s0)
    685c:	00950533          	add	a0,a0,s1
    6860:	000014b7          	lui	s1,0x1
    6864:	409404b3          	sub	s1,s0,s1
    6868:	7604b483          	ld	s1,1888(s1) # 1760 <.LBB46_5+0x44>
    686c:	00950533          	add	a0,a0,s1
    6870:	01450533          	add	a0,a0,s4
    6874:	0805051b          	addiw	a0,a0,128
    6878:	400004b7          	lui	s1,0x40000
    687c:	a4a43023          	sd	a0,-1472(s0)
    6880:	00055463          	bgez	a0,6888 <.LBB46_376>
    6884:	c00004b7          	lui	s1,0xc0000

0000000000006888 <.LBB46_376>:
    6888:	a2943c23          	sd	s1,-1480(s0)
    688c:	c6043503          	ld	a0,-928(s0)
    6890:	f5843483          	ld	s1,-168(s0)
    6894:	00950533          	add	a0,a0,s1
    6898:	000014b7          	lui	s1,0x1
    689c:	409404b3          	sub	s1,s0,s1
    68a0:	7684b483          	ld	s1,1896(s1) # 1768 <.LBB46_5+0x4c>
    68a4:	00950533          	add	a0,a0,s1
    68a8:	01450533          	add	a0,a0,s4
    68ac:	0805051b          	addiw	a0,a0,128
    68b0:	400004b7          	lui	s1,0x40000
    68b4:	a4a43823          	sd	a0,-1456(s0)
    68b8:	00055463          	bgez	a0,68c0 <.LBB46_378>
    68bc:	c00004b7          	lui	s1,0xc0000

00000000000068c0 <.LBB46_378>:
    68c0:	a4943423          	sd	s1,-1464(s0)
    68c4:	c6843503          	ld	a0,-920(s0)
    68c8:	f6043483          	ld	s1,-160(s0)
    68cc:	00950533          	add	a0,a0,s1
    68d0:	000014b7          	lui	s1,0x1
    68d4:	409404b3          	sub	s1,s0,s1
    68d8:	7704b483          	ld	s1,1904(s1) # 1770 <.LBB46_5+0x54>
    68dc:	00950533          	add	a0,a0,s1
    68e0:	01450533          	add	a0,a0,s4
    68e4:	0805051b          	addiw	a0,a0,128
    68e8:	400004b7          	lui	s1,0x40000
    68ec:	a6a43423          	sd	a0,-1432(s0)
    68f0:	00055463          	bgez	a0,68f8 <.LBB46_380>
    68f4:	c00004b7          	lui	s1,0xc0000

00000000000068f8 <.LBB46_380>:
    68f8:	a6943023          	sd	s1,-1440(s0)
    68fc:	c7043503          	ld	a0,-912(s0)
    6900:	f6843483          	ld	s1,-152(s0)
    6904:	00950533          	add	a0,a0,s1
    6908:	000014b7          	lui	s1,0x1
    690c:	409404b3          	sub	s1,s0,s1
    6910:	7784b483          	ld	s1,1912(s1) # 1778 <.LBB46_5+0x5c>
    6914:	00950533          	add	a0,a0,s1
    6918:	01450533          	add	a0,a0,s4
    691c:	0805051b          	addiw	a0,a0,128
    6920:	400004b7          	lui	s1,0x40000
    6924:	a6a43c23          	sd	a0,-1416(s0)
    6928:	00055463          	bgez	a0,6930 <.LBB46_382>
    692c:	c00004b7          	lui	s1,0xc0000

0000000000006930 <.LBB46_382>:
    6930:	a6943823          	sd	s1,-1424(s0)
    6934:	c7843503          	ld	a0,-904(s0)
    6938:	f7043483          	ld	s1,-144(s0)
    693c:	00950533          	add	a0,a0,s1
    6940:	000014b7          	lui	s1,0x1
    6944:	409404b3          	sub	s1,s0,s1
    6948:	7084b483          	ld	s1,1800(s1) # 1708 <.LBB46_4+0x580>
    694c:	00950533          	add	a0,a0,s1
    6950:	01450533          	add	a0,a0,s4
    6954:	0805051b          	addiw	a0,a0,128
    6958:	400004b7          	lui	s1,0x40000
    695c:	a8a43423          	sd	a0,-1400(s0)
    6960:	00055463          	bgez	a0,6968 <.LBB46_384>
    6964:	c00004b7          	lui	s1,0xc0000

0000000000006968 <.LBB46_384>:
    6968:	a8943023          	sd	s1,-1408(s0)
    696c:	c8043503          	ld	a0,-896(s0)
    6970:	f7843483          	ld	s1,-136(s0)
    6974:	00950533          	add	a0,a0,s1
    6978:	000014b7          	lui	s1,0x1
    697c:	409404b3          	sub	s1,s0,s1
    6980:	7804b483          	ld	s1,1920(s1) # 1780 <.LBB46_5+0x64>
    6984:	00950533          	add	a0,a0,s1
    6988:	01450533          	add	a0,a0,s4
    698c:	0805051b          	addiw	a0,a0,128
    6990:	400004b7          	lui	s1,0x40000
    6994:	a8a43c23          	sd	a0,-1384(s0)
    6998:	00055463          	bgez	a0,69a0 <.LBB46_386>
    699c:	c00004b7          	lui	s1,0xc0000

00000000000069a0 <.LBB46_386>:
    69a0:	a8943823          	sd	s1,-1392(s0)
    69a4:	c8843503          	ld	a0,-888(s0)
    69a8:	f8043483          	ld	s1,-128(s0)
    69ac:	00950533          	add	a0,a0,s1
    69b0:	000014b7          	lui	s1,0x1
    69b4:	409404b3          	sub	s1,s0,s1
    69b8:	7884b483          	ld	s1,1928(s1) # 1788 <.LBB46_5+0x6c>
    69bc:	00950533          	add	a0,a0,s1
    69c0:	01450533          	add	a0,a0,s4
    69c4:	0805051b          	addiw	a0,a0,128
    69c8:	400004b7          	lui	s1,0x40000
    69cc:	aaa43823          	sd	a0,-1360(s0)
    69d0:	00055463          	bgez	a0,69d8 <.LBB46_388>
    69d4:	c00004b7          	lui	s1,0xc0000

00000000000069d8 <.LBB46_388>:
    69d8:	aa943423          	sd	s1,-1368(s0)
    69dc:	c9043503          	ld	a0,-880(s0)
    69e0:	f8843483          	ld	s1,-120(s0)
    69e4:	00950533          	add	a0,a0,s1
    69e8:	000014b7          	lui	s1,0x1
    69ec:	409404b3          	sub	s1,s0,s1
    69f0:	7904b483          	ld	s1,1936(s1) # 1790 <.LBB46_5+0x74>
    69f4:	00950533          	add	a0,a0,s1
    69f8:	01450533          	add	a0,a0,s4
    69fc:	0805051b          	addiw	a0,a0,128
    6a00:	400004b7          	lui	s1,0x40000
    6a04:	aca43023          	sd	a0,-1344(s0)
    6a08:	00055463          	bgez	a0,6a10 <.LBB46_390>
    6a0c:	c00004b7          	lui	s1,0xc0000

0000000000006a10 <.LBB46_390>:
    6a10:	aa943c23          	sd	s1,-1352(s0)
    6a14:	c9843503          	ld	a0,-872(s0)
    6a18:	e8843483          	ld	s1,-376(s0)
    6a1c:	00950533          	add	a0,a0,s1
    6a20:	e8043483          	ld	s1,-384(s0)
    6a24:	00950533          	add	a0,a0,s1
    6a28:	01550533          	add	a0,a0,s5
    6a2c:	0805051b          	addiw	a0,a0,128
    6a30:	400004b7          	lui	s1,0x40000
    6a34:	aca43823          	sd	a0,-1328(s0)
    6a38:	00055463          	bgez	a0,6a40 <.LBB46_392>
    6a3c:	c00004b7          	lui	s1,0xc0000

0000000000006a40 <.LBB46_392>:
    6a40:	ac943423          	sd	s1,-1336(s0)
    6a44:	ca043503          	ld	a0,-864(s0)
    6a48:	e7843483          	ld	s1,-392(s0)
    6a4c:	00950533          	add	a0,a0,s1
    6a50:	e7043483          	ld	s1,-400(s0)
    6a54:	00950533          	add	a0,a0,s1
    6a58:	01550533          	add	a0,a0,s5
    6a5c:	0805051b          	addiw	a0,a0,128
    6a60:	400004b7          	lui	s1,0x40000
    6a64:	aea43423          	sd	a0,-1304(s0)
    6a68:	00055463          	bgez	a0,6a70 <.LBB46_394>
    6a6c:	c00004b7          	lui	s1,0xc0000

0000000000006a70 <.LBB46_394>:
    6a70:	ac943c23          	sd	s1,-1320(s0)
    6a74:	ca843503          	ld	a0,-856(s0)
    6a78:	e6843483          	ld	s1,-408(s0)
    6a7c:	00950533          	add	a0,a0,s1
    6a80:	e6043483          	ld	s1,-416(s0)
    6a84:	00950533          	add	a0,a0,s1
    6a88:	01550533          	add	a0,a0,s5
    6a8c:	0805051b          	addiw	a0,a0,128
    6a90:	400004b7          	lui	s1,0x40000
    6a94:	aea43c23          	sd	a0,-1288(s0)
    6a98:	00055463          	bgez	a0,6aa0 <.LBB46_396>
    6a9c:	c00004b7          	lui	s1,0xc0000

0000000000006aa0 <.LBB46_396>:
    6aa0:	ae943823          	sd	s1,-1296(s0)
    6aa4:	cb043503          	ld	a0,-848(s0)
    6aa8:	e5843483          	ld	s1,-424(s0)
    6aac:	00950533          	add	a0,a0,s1
    6ab0:	e5043483          	ld	s1,-432(s0)
    6ab4:	00950533          	add	a0,a0,s1
    6ab8:	01550533          	add	a0,a0,s5
    6abc:	0805051b          	addiw	a0,a0,128
    6ac0:	400004b7          	lui	s1,0x40000
    6ac4:	b0a43423          	sd	a0,-1272(s0)
    6ac8:	00055463          	bgez	a0,6ad0 <.LBB46_398>
    6acc:	c00004b7          	lui	s1,0xc0000

0000000000006ad0 <.LBB46_398>:
    6ad0:	b0943023          	sd	s1,-1280(s0)
    6ad4:	cb843503          	ld	a0,-840(s0)
    6ad8:	e4843483          	ld	s1,-440(s0)
    6adc:	00950533          	add	a0,a0,s1
    6ae0:	000014b7          	lui	s1,0x1
    6ae4:	409404b3          	sub	s1,s0,s1
    6ae8:	6e04b483          	ld	s1,1760(s1) # 16e0 <.LBB46_4+0x558>
    6aec:	00950533          	add	a0,a0,s1
    6af0:	01550533          	add	a0,a0,s5
    6af4:	0805051b          	addiw	a0,a0,128
    6af8:	400004b7          	lui	s1,0x40000
    6afc:	b2a43423          	sd	a0,-1240(s0)
    6b00:	00055463          	bgez	a0,6b08 <.LBB46_400>
    6b04:	c00004b7          	lui	s1,0xc0000

0000000000006b08 <.LBB46_400>:
    6b08:	b0943c23          	sd	s1,-1256(s0)
    6b0c:	cc043503          	ld	a0,-832(s0)
    6b10:	000014b7          	lui	s1,0x1
    6b14:	409404b3          	sub	s1,s0,s1
    6b18:	6d84b483          	ld	s1,1752(s1) # 16d8 <.LBB46_4+0x550>
    6b1c:	00950533          	add	a0,a0,s1
    6b20:	000014b7          	lui	s1,0x1
    6b24:	409404b3          	sub	s1,s0,s1
    6b28:	6d04b483          	ld	s1,1744(s1) # 16d0 <.LBB46_4+0x548>
    6b2c:	00950533          	add	a0,a0,s1
    6b30:	01550533          	add	a0,a0,s5
    6b34:	0805051b          	addiw	a0,a0,128
    6b38:	400004b7          	lui	s1,0x40000
    6b3c:	b4a43023          	sd	a0,-1216(s0)
    6b40:	00055463          	bgez	a0,6b48 <.LBB46_402>
    6b44:	c00004b7          	lui	s1,0xc0000

0000000000006b48 <.LBB46_402>:
    6b48:	b2943c23          	sd	s1,-1224(s0)
    6b4c:	cc843503          	ld	a0,-824(s0)
    6b50:	000014b7          	lui	s1,0x1
    6b54:	409404b3          	sub	s1,s0,s1
    6b58:	6c84b483          	ld	s1,1736(s1) # 16c8 <.LBB46_4+0x540>
    6b5c:	00950533          	add	a0,a0,s1
    6b60:	000014b7          	lui	s1,0x1
    6b64:	409404b3          	sub	s1,s0,s1
    6b68:	6c04b483          	ld	s1,1728(s1) # 16c0 <.LBB46_4+0x538>
    6b6c:	00950533          	add	a0,a0,s1
    6b70:	01550533          	add	a0,a0,s5
    6b74:	0805051b          	addiw	a0,a0,128
    6b78:	400004b7          	lui	s1,0x40000
    6b7c:	b4a43c23          	sd	a0,-1192(s0)
    6b80:	00055463          	bgez	a0,6b88 <.LBB46_404>
    6b84:	c00004b7          	lui	s1,0xc0000

0000000000006b88 <.LBB46_404>:
    6b88:	b4943423          	sd	s1,-1208(s0)
    6b8c:	cd043503          	ld	a0,-816(s0)
    6b90:	000014b7          	lui	s1,0x1
    6b94:	409404b3          	sub	s1,s0,s1
    6b98:	6b84b483          	ld	s1,1720(s1) # 16b8 <.LBB46_4+0x530>
    6b9c:	00950533          	add	a0,a0,s1
    6ba0:	000014b7          	lui	s1,0x1
    6ba4:	409404b3          	sub	s1,s0,s1
    6ba8:	6b04b483          	ld	s1,1712(s1) # 16b0 <.LBB46_4+0x528>
    6bac:	00950533          	add	a0,a0,s1
    6bb0:	01550533          	add	a0,a0,s5
    6bb4:	0805051b          	addiw	a0,a0,128
    6bb8:	400004b7          	lui	s1,0x40000
    6bbc:	b6a43423          	sd	a0,-1176(s0)
    6bc0:	00055463          	bgez	a0,6bc8 <.LBB46_406>
    6bc4:	c00004b7          	lui	s1,0xc0000

0000000000006bc8 <.LBB46_406>:
    6bc8:	b6943023          	sd	s1,-1184(s0)
    6bcc:	cd843503          	ld	a0,-808(s0)
    6bd0:	000014b7          	lui	s1,0x1
    6bd4:	409404b3          	sub	s1,s0,s1
    6bd8:	6a84b483          	ld	s1,1704(s1) # 16a8 <.LBB46_4+0x520>
    6bdc:	00950533          	add	a0,a0,s1
    6be0:	000014b7          	lui	s1,0x1
    6be4:	409404b3          	sub	s1,s0,s1
    6be8:	6a04b483          	ld	s1,1696(s1) # 16a0 <.LBB46_4+0x518>
    6bec:	00950533          	add	a0,a0,s1
    6bf0:	01550533          	add	a0,a0,s5
    6bf4:	0805051b          	addiw	a0,a0,128
    6bf8:	400004b7          	lui	s1,0x40000
    6bfc:	b6a43c23          	sd	a0,-1160(s0)
    6c00:	00055463          	bgez	a0,6c08 <.LBB46_408>
    6c04:	c00004b7          	lui	s1,0xc0000

0000000000006c08 <.LBB46_408>:
    6c08:	b6943823          	sd	s1,-1168(s0)
    6c0c:	ce043503          	ld	a0,-800(s0)
    6c10:	000014b7          	lui	s1,0x1
    6c14:	409404b3          	sub	s1,s0,s1
    6c18:	6904b483          	ld	s1,1680(s1) # 1690 <.LBB46_4+0x508>
    6c1c:	00950533          	add	a0,a0,s1
    6c20:	000014b7          	lui	s1,0x1
    6c24:	409404b3          	sub	s1,s0,s1
    6c28:	6e84b483          	ld	s1,1768(s1) # 16e8 <.LBB46_4+0x560>
    6c2c:	00950533          	add	a0,a0,s1
    6c30:	01550533          	add	a0,a0,s5
    6c34:	0805051b          	addiw	a0,a0,128
    6c38:	400004b7          	lui	s1,0x40000
    6c3c:	b8a43823          	sd	a0,-1136(s0)
    6c40:	00055463          	bgez	a0,6c48 <.LBB46_410>
    6c44:	c00004b7          	lui	s1,0xc0000

0000000000006c48 <.LBB46_410>:
    6c48:	b8943423          	sd	s1,-1144(s0)
    6c4c:	ce843503          	ld	a0,-792(s0)
    6c50:	e9043483          	ld	s1,-368(s0)
    6c54:	00950533          	add	a0,a0,s1
    6c58:	000014b7          	lui	s1,0x1
    6c5c:	409404b3          	sub	s1,s0,s1
    6c60:	6f04b483          	ld	s1,1776(s1) # 16f0 <.LBB46_4+0x568>
    6c64:	00950533          	add	a0,a0,s1
    6c68:	01550533          	add	a0,a0,s5
    6c6c:	0805051b          	addiw	a0,a0,128
    6c70:	400004b7          	lui	s1,0x40000
    6c74:	baa43023          	sd	a0,-1120(s0)
    6c78:	00055463          	bgez	a0,6c80 <.LBB46_412>
    6c7c:	c00004b7          	lui	s1,0xc0000

0000000000006c80 <.LBB46_412>:
    6c80:	b8943c23          	sd	s1,-1128(s0)
    6c84:	cf043503          	ld	a0,-784(s0)
    6c88:	e9843483          	ld	s1,-360(s0)
    6c8c:	00950533          	add	a0,a0,s1
    6c90:	000014b7          	lui	s1,0x1
    6c94:	409404b3          	sub	s1,s0,s1
    6c98:	6f84b483          	ld	s1,1784(s1) # 16f8 <.LBB46_4+0x570>
    6c9c:	00950533          	add	a0,a0,s1
    6ca0:	01550533          	add	a0,a0,s5
    6ca4:	0805051b          	addiw	a0,a0,128
    6ca8:	400004b7          	lui	s1,0x40000
    6cac:	baa43823          	sd	a0,-1104(s0)
    6cb0:	00055463          	bgez	a0,6cb8 <.LBB46_414>
    6cb4:	c00004b7          	lui	s1,0xc0000

0000000000006cb8 <.LBB46_414>:
    6cb8:	ba943423          	sd	s1,-1112(s0)
    6cbc:	cf843503          	ld	a0,-776(s0)
    6cc0:	ea043483          	ld	s1,-352(s0)
    6cc4:	00950533          	add	a0,a0,s1
    6cc8:	000014b7          	lui	s1,0x1
    6ccc:	409404b3          	sub	s1,s0,s1
    6cd0:	7004b483          	ld	s1,1792(s1) # 1700 <.LBB46_4+0x578>
    6cd4:	00950533          	add	a0,a0,s1
    6cd8:	01550533          	add	a0,a0,s5
    6cdc:	0805051b          	addiw	a0,a0,128
    6ce0:	400004b7          	lui	s1,0x40000
    6ce4:	bca43423          	sd	a0,-1080(s0)
    6ce8:	00055463          	bgez	a0,6cf0 <.LBB46_416>
    6cec:	c00004b7          	lui	s1,0xc0000

0000000000006cf0 <.LBB46_416>:
    6cf0:	ba943c23          	sd	s1,-1096(s0)
    6cf4:	d0043503          	ld	a0,-768(s0)
    6cf8:	ea843483          	ld	s1,-344(s0)
    6cfc:	00950533          	add	a0,a0,s1
    6d00:	01a50533          	add	a0,a0,s10
    6d04:	01550533          	add	a0,a0,s5
    6d08:	0805051b          	addiw	a0,a0,128
    6d0c:	400004b7          	lui	s1,0x40000
    6d10:	bca43c23          	sd	a0,-1064(s0)
    6d14:	00055463          	bgez	a0,6d1c <.LBB46_418>
    6d18:	c00004b7          	lui	s1,0xc0000

0000000000006d1c <.LBB46_418>:
    6d1c:	bc943823          	sd	s1,-1072(s0)
    6d20:	d0843503          	ld	a0,-760(s0)
    6d24:	eb043483          	ld	s1,-336(s0)
    6d28:	00950533          	add	a0,a0,s1
    6d2c:	000014b7          	lui	s1,0x1
    6d30:	409404b3          	sub	s1,s0,s1
    6d34:	7104b483          	ld	s1,1808(s1) # 1710 <.LBB46_4+0x588>
    6d38:	00950533          	add	a0,a0,s1
    6d3c:	01550533          	add	a0,a0,s5
    6d40:	0805051b          	addiw	a0,a0,128
    6d44:	400004b7          	lui	s1,0x40000
    6d48:	bea43423          	sd	a0,-1048(s0)
    6d4c:	00055463          	bgez	a0,6d54 <.LBB46_420>
    6d50:	c00004b7          	lui	s1,0xc0000

0000000000006d54 <.LBB46_420>:
    6d54:	be943023          	sd	s1,-1056(s0)
    6d58:	d1043503          	ld	a0,-752(s0)
    6d5c:	f0843483          	ld	s1,-248(s0)
    6d60:	00950533          	add	a0,a0,s1
    6d64:	000014b7          	lui	s1,0x1
    6d68:	409404b3          	sub	s1,s0,s1
    6d6c:	7184b483          	ld	s1,1816(s1) # 1718 <.LBB46_4+0x590>
    6d70:	00950533          	add	a0,a0,s1
    6d74:	01550533          	add	a0,a0,s5
    6d78:	0805051b          	addiw	a0,a0,128
    6d7c:	400004b7          	lui	s1,0x40000
    6d80:	c0a43023          	sd	a0,-1024(s0)
    6d84:	00055463          	bgez	a0,6d8c <.LBB46_422>
    6d88:	c00004b7          	lui	s1,0xc0000

0000000000006d8c <.LBB46_422>:
    6d8c:	be943c23          	sd	s1,-1032(s0)
    6d90:	d1843503          	ld	a0,-744(s0)
    6d94:	f1043483          	ld	s1,-240(s0)
    6d98:	00950533          	add	a0,a0,s1
    6d9c:	000014b7          	lui	s1,0x1
    6da0:	409404b3          	sub	s1,s0,s1
    6da4:	7204b483          	ld	s1,1824(s1) # 1720 <.LBB46_5+0x4>
    6da8:	00950533          	add	a0,a0,s1
    6dac:	01550533          	add	a0,a0,s5
    6db0:	0805051b          	addiw	a0,a0,128
    6db4:	400004b7          	lui	s1,0x40000
    6db8:	c0a43c23          	sd	a0,-1000(s0)
    6dbc:	00055463          	bgez	a0,6dc4 <.LBB46_424>
    6dc0:	c00004b7          	lui	s1,0xc0000

0000000000006dc4 <.LBB46_424>:
    6dc4:	c0943823          	sd	s1,-1008(s0)
    6dc8:	d2043503          	ld	a0,-736(s0)
    6dcc:	f1843483          	ld	s1,-232(s0)
    6dd0:	00950533          	add	a0,a0,s1
    6dd4:	000014b7          	lui	s1,0x1
    6dd8:	409404b3          	sub	s1,s0,s1
    6ddc:	7284b483          	ld	s1,1832(s1) # 1728 <.LBB46_5+0xc>
    6de0:	00950533          	add	a0,a0,s1
    6de4:	01550533          	add	a0,a0,s5
    6de8:	0805051b          	addiw	a0,a0,128
    6dec:	400004b7          	lui	s1,0x40000
    6df0:	c2a43423          	sd	a0,-984(s0)
    6df4:	00055463          	bgez	a0,6dfc <.LBB46_426>
    6df8:	c00004b7          	lui	s1,0xc0000

0000000000006dfc <.LBB46_426>:
    6dfc:	c2943023          	sd	s1,-992(s0)
    6e00:	d2843503          	ld	a0,-728(s0)
    6e04:	f2043483          	ld	s1,-224(s0)
    6e08:	00950533          	add	a0,a0,s1
    6e0c:	000014b7          	lui	s1,0x1
    6e10:	409404b3          	sub	s1,s0,s1
    6e14:	7304b483          	ld	s1,1840(s1) # 1730 <.LBB46_5+0x14>
    6e18:	00950533          	add	a0,a0,s1
    6e1c:	01550533          	add	a0,a0,s5
    6e20:	0805051b          	addiw	a0,a0,128
    6e24:	400004b7          	lui	s1,0x40000
    6e28:	c2a43c23          	sd	a0,-968(s0)
    6e2c:	00055463          	bgez	a0,6e34 <.LBB46_428>
    6e30:	c00004b7          	lui	s1,0xc0000

0000000000006e34 <.LBB46_428>:
    6e34:	c2943823          	sd	s1,-976(s0)
    6e38:	d3043503          	ld	a0,-720(s0)
    6e3c:	f2843483          	ld	s1,-216(s0)
    6e40:	00950533          	add	a0,a0,s1
    6e44:	000014b7          	lui	s1,0x1
    6e48:	409404b3          	sub	s1,s0,s1
    6e4c:	7384b483          	ld	s1,1848(s1) # 1738 <.LBB46_5+0x1c>
    6e50:	00950533          	add	a0,a0,s1
    6e54:	01550533          	add	a0,a0,s5
    6e58:	0805051b          	addiw	a0,a0,128
    6e5c:	400004b7          	lui	s1,0x40000
    6e60:	c4a43423          	sd	a0,-952(s0)
    6e64:	00055463          	bgez	a0,6e6c <.LBB46_430>
    6e68:	c00004b7          	lui	s1,0xc0000

0000000000006e6c <.LBB46_430>:
    6e6c:	c4943023          	sd	s1,-960(s0)
    6e70:	d3843503          	ld	a0,-712(s0)
    6e74:	f3043483          	ld	s1,-208(s0)
    6e78:	00950533          	add	a0,a0,s1
    6e7c:	000014b7          	lui	s1,0x1
    6e80:	409404b3          	sub	s1,s0,s1
    6e84:	7404b483          	ld	s1,1856(s1) # 1740 <.LBB46_5+0x24>
    6e88:	00950533          	add	a0,a0,s1
    6e8c:	01550533          	add	a0,a0,s5
    6e90:	0805051b          	addiw	a0,a0,128
    6e94:	400004b7          	lui	s1,0x40000
    6e98:	c4a43c23          	sd	a0,-936(s0)
    6e9c:	00055463          	bgez	a0,6ea4 <.LBB46_432>
    6ea0:	c00004b7          	lui	s1,0xc0000

0000000000006ea4 <.LBB46_432>:
    6ea4:	c4943823          	sd	s1,-944(s0)
    6ea8:	d4043503          	ld	a0,-704(s0)
    6eac:	f3843483          	ld	s1,-200(s0)
    6eb0:	00950533          	add	a0,a0,s1
    6eb4:	000014b7          	lui	s1,0x1
    6eb8:	409404b3          	sub	s1,s0,s1
    6ebc:	7484b483          	ld	s1,1864(s1) # 1748 <.LBB46_5+0x2c>
    6ec0:	00950533          	add	a0,a0,s1
    6ec4:	01550533          	add	a0,a0,s5
    6ec8:	0805051b          	addiw	a0,a0,128
    6ecc:	400004b7          	lui	s1,0x40000
    6ed0:	c6a43423          	sd	a0,-920(s0)
    6ed4:	00055463          	bgez	a0,6edc <.LBB46_434>
    6ed8:	c00004b7          	lui	s1,0xc0000

0000000000006edc <.LBB46_434>:
    6edc:	c6943023          	sd	s1,-928(s0)
    6ee0:	d4843503          	ld	a0,-696(s0)
    6ee4:	f4043483          	ld	s1,-192(s0)
    6ee8:	00950533          	add	a0,a0,s1
    6eec:	000014b7          	lui	s1,0x1
    6ef0:	409404b3          	sub	s1,s0,s1
    6ef4:	7504b483          	ld	s1,1872(s1) # 1750 <.LBB46_5+0x34>
    6ef8:	00950533          	add	a0,a0,s1
    6efc:	01550533          	add	a0,a0,s5
    6f00:	0805051b          	addiw	a0,a0,128
    6f04:	400004b7          	lui	s1,0x40000
    6f08:	c6a43c23          	sd	a0,-904(s0)
    6f0c:	00055463          	bgez	a0,6f14 <.LBB46_436>
    6f10:	c00004b7          	lui	s1,0xc0000

0000000000006f14 <.LBB46_436>:
    6f14:	c6943823          	sd	s1,-912(s0)
    6f18:	d5043503          	ld	a0,-688(s0)
    6f1c:	f4843483          	ld	s1,-184(s0)
    6f20:	00950533          	add	a0,a0,s1
    6f24:	000014b7          	lui	s1,0x1
    6f28:	409404b3          	sub	s1,s0,s1
    6f2c:	7584b483          	ld	s1,1880(s1) # 1758 <.LBB46_5+0x3c>
    6f30:	00950533          	add	a0,a0,s1
    6f34:	01550533          	add	a0,a0,s5
    6f38:	0805051b          	addiw	a0,a0,128
    6f3c:	400004b7          	lui	s1,0x40000
    6f40:	c8a43423          	sd	a0,-888(s0)
    6f44:	00055463          	bgez	a0,6f4c <.LBB46_438>
    6f48:	c00004b7          	lui	s1,0xc0000

0000000000006f4c <.LBB46_438>:
    6f4c:	c8943023          	sd	s1,-896(s0)
    6f50:	d5843503          	ld	a0,-680(s0)
    6f54:	f5043483          	ld	s1,-176(s0)
    6f58:	00950533          	add	a0,a0,s1
    6f5c:	000014b7          	lui	s1,0x1
    6f60:	409404b3          	sub	s1,s0,s1
    6f64:	7604b483          	ld	s1,1888(s1) # 1760 <.LBB46_5+0x44>
    6f68:	00950533          	add	a0,a0,s1
    6f6c:	01550533          	add	a0,a0,s5
    6f70:	0805051b          	addiw	a0,a0,128
    6f74:	400004b7          	lui	s1,0x40000
    6f78:	c8a43c23          	sd	a0,-872(s0)
    6f7c:	00055463          	bgez	a0,6f84 <.LBB46_440>
    6f80:	c00004b7          	lui	s1,0xc0000

0000000000006f84 <.LBB46_440>:
    6f84:	c8943823          	sd	s1,-880(s0)
    6f88:	d6043503          	ld	a0,-672(s0)
    6f8c:	f5843483          	ld	s1,-168(s0)
    6f90:	00950533          	add	a0,a0,s1
    6f94:	000014b7          	lui	s1,0x1
    6f98:	409404b3          	sub	s1,s0,s1
    6f9c:	7684b483          	ld	s1,1896(s1) # 1768 <.LBB46_5+0x4c>
    6fa0:	00950533          	add	a0,a0,s1
    6fa4:	01550533          	add	a0,a0,s5
    6fa8:	0805051b          	addiw	a0,a0,128
    6fac:	400004b7          	lui	s1,0x40000
    6fb0:	caa43423          	sd	a0,-856(s0)
    6fb4:	00055463          	bgez	a0,6fbc <.LBB46_442>
    6fb8:	c00004b7          	lui	s1,0xc0000

0000000000006fbc <.LBB46_442>:
    6fbc:	ca943023          	sd	s1,-864(s0)
    6fc0:	d6843503          	ld	a0,-664(s0)
    6fc4:	f6043483          	ld	s1,-160(s0)
    6fc8:	00950533          	add	a0,a0,s1
    6fcc:	000014b7          	lui	s1,0x1
    6fd0:	409404b3          	sub	s1,s0,s1
    6fd4:	7704b483          	ld	s1,1904(s1) # 1770 <.LBB46_5+0x54>
    6fd8:	00950533          	add	a0,a0,s1
    6fdc:	01550533          	add	a0,a0,s5
    6fe0:	0805051b          	addiw	a0,a0,128
    6fe4:	400004b7          	lui	s1,0x40000
    6fe8:	caa43c23          	sd	a0,-840(s0)
    6fec:	00055463          	bgez	a0,6ff4 <.LBB46_444>
    6ff0:	c00004b7          	lui	s1,0xc0000

0000000000006ff4 <.LBB46_444>:
    6ff4:	ca943823          	sd	s1,-848(s0)
    6ff8:	d7043503          	ld	a0,-656(s0)
    6ffc:	f6843483          	ld	s1,-152(s0)
    7000:	00950533          	add	a0,a0,s1
    7004:	000014b7          	lui	s1,0x1
    7008:	409404b3          	sub	s1,s0,s1
    700c:	7784b483          	ld	s1,1912(s1) # 1778 <.LBB46_5+0x5c>
    7010:	00950533          	add	a0,a0,s1
    7014:	01550533          	add	a0,a0,s5
    7018:	0805051b          	addiw	a0,a0,128
    701c:	400004b7          	lui	s1,0x40000
    7020:	cca43423          	sd	a0,-824(s0)
    7024:	00055463          	bgez	a0,702c <.LBB46_446>
    7028:	c00004b7          	lui	s1,0xc0000

000000000000702c <.LBB46_446>:
    702c:	cc943023          	sd	s1,-832(s0)
    7030:	d7843503          	ld	a0,-648(s0)
    7034:	f7043483          	ld	s1,-144(s0)
    7038:	00950533          	add	a0,a0,s1
    703c:	000014b7          	lui	s1,0x1
    7040:	409404b3          	sub	s1,s0,s1
    7044:	7084b483          	ld	s1,1800(s1) # 1708 <.LBB46_4+0x580>
    7048:	00950533          	add	a0,a0,s1
    704c:	01550533          	add	a0,a0,s5
    7050:	0805051b          	addiw	a0,a0,128
    7054:	400004b7          	lui	s1,0x40000
    7058:	cca43c23          	sd	a0,-808(s0)
    705c:	00055463          	bgez	a0,7064 <.LBB46_448>
    7060:	c00004b7          	lui	s1,0xc0000

0000000000007064 <.LBB46_448>:
    7064:	cc943823          	sd	s1,-816(s0)
    7068:	d8043503          	ld	a0,-640(s0)
    706c:	f7843483          	ld	s1,-136(s0)
    7070:	00950533          	add	a0,a0,s1
    7074:	000014b7          	lui	s1,0x1
    7078:	409404b3          	sub	s1,s0,s1
    707c:	7804b483          	ld	s1,1920(s1) # 1780 <.LBB46_5+0x64>
    7080:	00950533          	add	a0,a0,s1
    7084:	01550533          	add	a0,a0,s5
    7088:	0805051b          	addiw	a0,a0,128
    708c:	400004b7          	lui	s1,0x40000
    7090:	cea43423          	sd	a0,-792(s0)
    7094:	00055463          	bgez	a0,709c <.LBB46_450>
    7098:	c00004b7          	lui	s1,0xc0000

000000000000709c <.LBB46_450>:
    709c:	ce943023          	sd	s1,-800(s0)
    70a0:	d8843503          	ld	a0,-632(s0)
    70a4:	f8043483          	ld	s1,-128(s0)
    70a8:	00950533          	add	a0,a0,s1
    70ac:	000014b7          	lui	s1,0x1
    70b0:	409404b3          	sub	s1,s0,s1
    70b4:	7884b483          	ld	s1,1928(s1) # 1788 <.LBB46_5+0x6c>
    70b8:	00950533          	add	a0,a0,s1
    70bc:	01550533          	add	a0,a0,s5
    70c0:	0805051b          	addiw	a0,a0,128
    70c4:	400004b7          	lui	s1,0x40000
    70c8:	cea43c23          	sd	a0,-776(s0)
    70cc:	00055463          	bgez	a0,70d4 <.LBB46_452>
    70d0:	c00004b7          	lui	s1,0xc0000

00000000000070d4 <.LBB46_452>:
    70d4:	ce943823          	sd	s1,-784(s0)
    70d8:	d9043503          	ld	a0,-624(s0)
    70dc:	f8843483          	ld	s1,-120(s0)
    70e0:	00950533          	add	a0,a0,s1
    70e4:	000014b7          	lui	s1,0x1
    70e8:	409404b3          	sub	s1,s0,s1
    70ec:	7904b483          	ld	s1,1936(s1) # 1790 <.LBB46_5+0x74>
    70f0:	00950533          	add	a0,a0,s1
    70f4:	01550533          	add	a0,a0,s5
    70f8:	0805051b          	addiw	a0,a0,128
    70fc:	400004b7          	lui	s1,0x40000
    7100:	d0a43423          	sd	a0,-760(s0)
    7104:	00055463          	bgez	a0,710c <.LBB46_454>
    7108:	c00004b7          	lui	s1,0xc0000

000000000000710c <.LBB46_454>:
    710c:	d0943023          	sd	s1,-768(s0)
    7110:	d9843503          	ld	a0,-616(s0)
    7114:	e8843483          	ld	s1,-376(s0)
    7118:	00950533          	add	a0,a0,s1
    711c:	e8043483          	ld	s1,-384(s0)
    7120:	00950533          	add	a0,a0,s1
    7124:	01950533          	add	a0,a0,s9
    7128:	0805051b          	addiw	a0,a0,128
    712c:	400004b7          	lui	s1,0x40000
    7130:	d0a43c23          	sd	a0,-744(s0)
    7134:	00055463          	bgez	a0,713c <.LBB46_456>
    7138:	c00004b7          	lui	s1,0xc0000

000000000000713c <.LBB46_456>:
    713c:	d0943823          	sd	s1,-752(s0)
    7140:	da043503          	ld	a0,-608(s0)
    7144:	e7843483          	ld	s1,-392(s0)
    7148:	00950533          	add	a0,a0,s1
    714c:	e7043483          	ld	s1,-400(s0)
    7150:	00950533          	add	a0,a0,s1
    7154:	01950533          	add	a0,a0,s9
    7158:	0805051b          	addiw	a0,a0,128
    715c:	400004b7          	lui	s1,0x40000
    7160:	d2a43423          	sd	a0,-728(s0)
    7164:	00055463          	bgez	a0,716c <.LBB46_458>
    7168:	c00004b7          	lui	s1,0xc0000

000000000000716c <.LBB46_458>:
    716c:	d2943023          	sd	s1,-736(s0)
    7170:	da843503          	ld	a0,-600(s0)
    7174:	e6843483          	ld	s1,-408(s0)
    7178:	00950533          	add	a0,a0,s1
    717c:	e6043483          	ld	s1,-416(s0)
    7180:	00950533          	add	a0,a0,s1
    7184:	01950533          	add	a0,a0,s9
    7188:	0805051b          	addiw	a0,a0,128
    718c:	400004b7          	lui	s1,0x40000
    7190:	d2a43c23          	sd	a0,-712(s0)
    7194:	00055463          	bgez	a0,719c <.LBB46_460>
    7198:	c00004b7          	lui	s1,0xc0000

000000000000719c <.LBB46_460>:
    719c:	d2943823          	sd	s1,-720(s0)
    71a0:	db043503          	ld	a0,-592(s0)
    71a4:	e5843483          	ld	s1,-424(s0)
    71a8:	00950533          	add	a0,a0,s1
    71ac:	e5043483          	ld	s1,-432(s0)
    71b0:	00950533          	add	a0,a0,s1
    71b4:	01950533          	add	a0,a0,s9
    71b8:	0805051b          	addiw	a0,a0,128
    71bc:	400004b7          	lui	s1,0x40000
    71c0:	d4a43423          	sd	a0,-696(s0)
    71c4:	00055463          	bgez	a0,71cc <.LBB46_462>
    71c8:	c00004b7          	lui	s1,0xc0000

00000000000071cc <.LBB46_462>:
    71cc:	d4943023          	sd	s1,-704(s0)
    71d0:	db843503          	ld	a0,-584(s0)
    71d4:	e4843483          	ld	s1,-440(s0)
    71d8:	00950533          	add	a0,a0,s1
    71dc:	000014b7          	lui	s1,0x1
    71e0:	409404b3          	sub	s1,s0,s1
    71e4:	6e04b483          	ld	s1,1760(s1) # 16e0 <.LBB46_4+0x558>
    71e8:	00950533          	add	a0,a0,s1
    71ec:	01950533          	add	a0,a0,s9
    71f0:	0805051b          	addiw	a0,a0,128
    71f4:	400004b7          	lui	s1,0x40000
    71f8:	d4a43c23          	sd	a0,-680(s0)
    71fc:	00055463          	bgez	a0,7204 <.LBB46_464>
    7200:	c00004b7          	lui	s1,0xc0000

0000000000007204 <.LBB46_464>:
    7204:	d4943823          	sd	s1,-688(s0)
    7208:	dc043503          	ld	a0,-576(s0)
    720c:	000014b7          	lui	s1,0x1
    7210:	409404b3          	sub	s1,s0,s1
    7214:	6d84b483          	ld	s1,1752(s1) # 16d8 <.LBB46_4+0x550>
    7218:	00950533          	add	a0,a0,s1
    721c:	000014b7          	lui	s1,0x1
    7220:	409404b3          	sub	s1,s0,s1
    7224:	6d04b483          	ld	s1,1744(s1) # 16d0 <.LBB46_4+0x548>
    7228:	00950533          	add	a0,a0,s1
    722c:	01950533          	add	a0,a0,s9
    7230:	0805051b          	addiw	a0,a0,128
    7234:	400004b7          	lui	s1,0x40000
    7238:	d6a43423          	sd	a0,-664(s0)
    723c:	00055463          	bgez	a0,7244 <.LBB46_466>
    7240:	c00004b7          	lui	s1,0xc0000

0000000000007244 <.LBB46_466>:
    7244:	d6943023          	sd	s1,-672(s0)
    7248:	dc843503          	ld	a0,-568(s0)
    724c:	000014b7          	lui	s1,0x1
    7250:	409404b3          	sub	s1,s0,s1
    7254:	6c84b483          	ld	s1,1736(s1) # 16c8 <.LBB46_4+0x540>
    7258:	00950533          	add	a0,a0,s1
    725c:	000014b7          	lui	s1,0x1
    7260:	409404b3          	sub	s1,s0,s1
    7264:	6c04b483          	ld	s1,1728(s1) # 16c0 <.LBB46_4+0x538>
    7268:	00950533          	add	a0,a0,s1
    726c:	01950533          	add	a0,a0,s9
    7270:	0805051b          	addiw	a0,a0,128
    7274:	400004b7          	lui	s1,0x40000
    7278:	e8943423          	sd	s1,-376(s0)
    727c:	d6a43823          	sd	a0,-656(s0)
    7280:	00055663          	bgez	a0,728c <.LBB46_468>
    7284:	c0000537          	lui	a0,0xc0000
    7288:	e8a43423          	sd	a0,-376(s0)

000000000000728c <.LBB46_468>:
    728c:	00001537          	lui	a0,0x1
    7290:	40a40533          	sub	a0,s0,a0
    7294:	6b853503          	ld	a0,1720(a0) # 16b8 <.LBB46_4+0x530>
    7298:	eb843483          	ld	s1,-328(s0)
    729c:	00a48533          	add	a0,s1,a0
    72a0:	000014b7          	lui	s1,0x1
    72a4:	409404b3          	sub	s1,s0,s1
    72a8:	6b04b483          	ld	s1,1712(s1) # 16b0 <.LBB46_4+0x528>
    72ac:	00950533          	add	a0,a0,s1
    72b0:	01950533          	add	a0,a0,s9
    72b4:	0805051b          	addiw	a0,a0,128
    72b8:	d8a43023          	sd	a0,-640(s0)
    72bc:	00055463          	bgez	a0,72c4 <.LBB46_470>
    72c0:	c00000b7          	lui	ra,0xc0000

00000000000072c4 <.LBB46_470>:
    72c4:	d6143c23          	sd	ra,-648(s0)
    72c8:	00001537          	lui	a0,0x1
    72cc:	40a40533          	sub	a0,s0,a0
    72d0:	6a853503          	ld	a0,1704(a0) # 16a8 <.LBB46_4+0x520>
    72d4:	ec043483          	ld	s1,-320(s0)
    72d8:	00a48533          	add	a0,s1,a0
    72dc:	000014b7          	lui	s1,0x1
    72e0:	409404b3          	sub	s1,s0,s1
    72e4:	6a04b483          	ld	s1,1696(s1) # 16a0 <.LBB46_4+0x518>
    72e8:	00950533          	add	a0,a0,s1
    72ec:	01950533          	add	a0,a0,s9
    72f0:	0805051b          	addiw	a0,a0,128
    72f4:	d8a43823          	sd	a0,-624(s0)
    72f8:	00055463          	bgez	a0,7300 <.LBB46_472>
    72fc:	c0000db7          	lui	s11,0xc0000

0000000000007300 <.LBB46_472>:
    7300:	d9b43423          	sd	s11,-632(s0)
    7304:	ec843503          	ld	a0,-312(s0)
    7308:	000014b7          	lui	s1,0x1
    730c:	409404b3          	sub	s1,s0,s1
    7310:	6904b483          	ld	s1,1680(s1) # 1690 <.LBB46_4+0x508>
    7314:	00950533          	add	a0,a0,s1
    7318:	000014b7          	lui	s1,0x1
    731c:	409404b3          	sub	s1,s0,s1
    7320:	6e84b483          	ld	s1,1768(s1) # 16e8 <.LBB46_4+0x560>
    7324:	00950533          	add	a0,a0,s1
    7328:	01950533          	add	a0,a0,s9
    732c:	08050d9b          	addiw	s11,a0,128
    7330:	400000b7          	lui	ra,0x40000
    7334:	000dd463          	bgez	s11,733c <.LBB46_474>
    7338:	c00000b7          	lui	ra,0xc0000

000000000000733c <.LBB46_474>:
    733c:	e9043503          	ld	a0,-368(s0)
    7340:	00ab0533          	add	a0,s6,a0
    7344:	000014b7          	lui	s1,0x1
    7348:	409404b3          	sub	s1,s0,s1
    734c:	6f04b483          	ld	s1,1776(s1) # 16f0 <.LBB46_4+0x568>
    7350:	00950533          	add	a0,a0,s1
    7354:	01950533          	add	a0,a0,s9
    7358:	0805051b          	addiw	a0,a0,128
    735c:	40000b37          	lui	s6,0x40000
    7360:	daa43023          	sd	a0,-608(s0)
    7364:	00055463          	bgez	a0,736c <.LBB46_476>
    7368:	c0000b37          	lui	s6,0xc0000

000000000000736c <.LBB46_476>:
    736c:	d9643c23          	sd	s6,-616(s0)
    7370:	e9843503          	ld	a0,-360(s0)
    7374:	ed043483          	ld	s1,-304(s0)
    7378:	00a48533          	add	a0,s1,a0
    737c:	000014b7          	lui	s1,0x1
    7380:	409404b3          	sub	s1,s0,s1
    7384:	6f84b483          	ld	s1,1784(s1) # 16f8 <.LBB46_4+0x570>
    7388:	00950533          	add	a0,a0,s1
    738c:	01950533          	add	a0,a0,s9
    7390:	0805051b          	addiw	a0,a0,128
    7394:	40000b37          	lui	s6,0x40000
    7398:	daa43423          	sd	a0,-600(s0)
    739c:	00055463          	bgez	a0,73a4 <.LBB46_478>
    73a0:	c0000b37          	lui	s6,0xc0000

00000000000073a4 <.LBB46_478>:
    73a4:	ea043503          	ld	a0,-352(s0)
    73a8:	ed843483          	ld	s1,-296(s0)
    73ac:	00a48533          	add	a0,s1,a0
    73b0:	000014b7          	lui	s1,0x1
    73b4:	409404b3          	sub	s1,s0,s1
    73b8:	7004b483          	ld	s1,1792(s1) # 1700 <.LBB46_4+0x578>
    73bc:	00950533          	add	a0,a0,s1
    73c0:	01950533          	add	a0,a0,s9
    73c4:	0805051b          	addiw	a0,a0,128
    73c8:	40000ab7          	lui	s5,0x40000
    73cc:	daa43823          	sd	a0,-592(s0)
    73d0:	00055463          	bgez	a0,73d8 <.LBB46_480>
    73d4:	c0000ab7          	lui	s5,0xc0000

00000000000073d8 <.LBB46_480>:
    73d8:	ea843503          	ld	a0,-344(s0)
    73dc:	ee043483          	ld	s1,-288(s0)
    73e0:	00a48533          	add	a0,s1,a0
    73e4:	01a50533          	add	a0,a0,s10
    73e8:	01950533          	add	a0,a0,s9
    73ec:	0805051b          	addiw	a0,a0,128
    73f0:	40000a37          	lui	s4,0x40000
    73f4:	daa43c23          	sd	a0,-584(s0)
    73f8:	00055463          	bgez	a0,7400 <.LBB46_482>
    73fc:	c0000a37          	lui	s4,0xc0000

0000000000007400 <.LBB46_482>:
    7400:	eb043503          	ld	a0,-336(s0)
    7404:	00a98533          	add	a0,s3,a0
    7408:	000014b7          	lui	s1,0x1
    740c:	409404b3          	sub	s1,s0,s1
    7410:	7104b483          	ld	s1,1808(s1) # 1710 <.LBB46_4+0x588>
    7414:	00950533          	add	a0,a0,s1
    7418:	01950533          	add	a0,a0,s9
    741c:	0805051b          	addiw	a0,a0,128
    7420:	400009b7          	lui	s3,0x40000
    7424:	dca43023          	sd	a0,-576(s0)
    7428:	00055463          	bgez	a0,7430 <.LBB46_484>
    742c:	c00009b7          	lui	s3,0xc0000

0000000000007430 <.LBB46_484>:
    7430:	f0843503          	ld	a0,-248(s0)
    7434:	00a90533          	add	a0,s2,a0
    7438:	000014b7          	lui	s1,0x1
    743c:	409404b3          	sub	s1,s0,s1
    7440:	7184b483          	ld	s1,1816(s1) # 1718 <.LBB46_4+0x590>
    7444:	00950533          	add	a0,a0,s1
    7448:	01950533          	add	a0,a0,s9
    744c:	0805051b          	addiw	a0,a0,128
    7450:	40000937          	lui	s2,0x40000
    7454:	dca43423          	sd	a0,-568(s0)
    7458:	00055463          	bgez	a0,7460 <.LBB46_486>
    745c:	c0000937          	lui	s2,0xc0000

0000000000007460 <.LBB46_486>:
    7460:	f1043503          	ld	a0,-240(s0)
    7464:	00af8533          	add	a0,t6,a0
    7468:	00001fb7          	lui	t6,0x1
    746c:	41f40fb3          	sub	t6,s0,t6
    7470:	720fbf83          	ld	t6,1824(t6) # 1720 <.LBB46_5+0x4>
    7474:	01f50533          	add	a0,a0,t6
    7478:	01950533          	add	a0,a0,s9
    747c:	0805051b          	addiw	a0,a0,128
    7480:	40000fb7          	lui	t6,0x40000
    7484:	dca43823          	sd	a0,-560(s0)
    7488:	00055463          	bgez	a0,7490 <.LBB46_488>
    748c:	c0000fb7          	lui	t6,0xc0000

0000000000007490 <.LBB46_488>:
    7490:	f1843503          	ld	a0,-232(s0)
    7494:	00af0533          	add	a0,t5,a0
    7498:	00001f37          	lui	t5,0x1
    749c:	41e40f33          	sub	t5,s0,t5
    74a0:	728f3f03          	ld	t5,1832(t5) # 1728 <.LBB46_5+0xc>
    74a4:	01e50533          	add	a0,a0,t5
    74a8:	01950533          	add	a0,a0,s9
    74ac:	0805051b          	addiw	a0,a0,128
    74b0:	40000f37          	lui	t5,0x40000
    74b4:	dca43c23          	sd	a0,-552(s0)
    74b8:	00055463          	bgez	a0,74c0 <.LBB46_490>
    74bc:	c0000f37          	lui	t5,0xc0000

00000000000074c0 <.LBB46_490>:
    74c0:	f2043503          	ld	a0,-224(s0)
    74c4:	00ae8533          	add	a0,t4,a0
    74c8:	00001eb7          	lui	t4,0x1
    74cc:	41d40eb3          	sub	t4,s0,t4
    74d0:	730ebe83          	ld	t4,1840(t4) # 1730 <.LBB46_5+0x14>
    74d4:	01d50533          	add	a0,a0,t4
    74d8:	01950533          	add	a0,a0,s9
    74dc:	0805051b          	addiw	a0,a0,128
    74e0:	40000eb7          	lui	t4,0x40000
    74e4:	dea43423          	sd	a0,-536(s0)
    74e8:	00055463          	bgez	a0,74f0 <.LBB46_492>
    74ec:	c0000eb7          	lui	t4,0xc0000

00000000000074f0 <.LBB46_492>:
    74f0:	f2843503          	ld	a0,-216(s0)
    74f4:	00ae0533          	add	a0,t3,a0
    74f8:	00001e37          	lui	t3,0x1
    74fc:	41c40e33          	sub	t3,s0,t3
    7500:	738e3e03          	ld	t3,1848(t3) # 1738 <.LBB46_5+0x1c>
    7504:	01c50533          	add	a0,a0,t3
    7508:	01950533          	add	a0,a0,s9
    750c:	0805051b          	addiw	a0,a0,128
    7510:	40000e37          	lui	t3,0x40000
    7514:	e4a43423          	sd	a0,-440(s0)
    7518:	00055463          	bgez	a0,7520 <.LBB46_494>
    751c:	c0000e37          	lui	t3,0xc0000

0000000000007520 <.LBB46_494>:
    7520:	dfd43023          	sd	t4,-544(s0)
    7524:	dfc43823          	sd	t3,-528(s0)
    7528:	f3043503          	ld	a0,-208(s0)
    752c:	00a38533          	add	a0,t2,a0
    7530:	000013b7          	lui	t2,0x1
    7534:	407403b3          	sub	t2,s0,t2
    7538:	7403b383          	ld	t2,1856(t2) # 1740 <.LBB46_5+0x24>
    753c:	00750533          	add	a0,a0,t2
    7540:	01950533          	add	a0,a0,s9
    7544:	08050e1b          	addiw	t3,a0,128
    7548:	40000537          	lui	a0,0x40000
    754c:	000e5463          	bgez	t3,7554 <.LBB46_496>
    7550:	c0000537          	lui	a0,0xc0000

0000000000007554 <.LBB46_496>:
    7554:	dfe43c23          	sd	t5,-520(s0)
    7558:	e4a43823          	sd	a0,-432(s0)
    755c:	f3843503          	ld	a0,-200(s0)
    7560:	00a30533          	add	a0,t1,a0
    7564:	00001337          	lui	t1,0x1
    7568:	40640333          	sub	t1,s0,t1
    756c:	74833303          	ld	t1,1864(t1) # 1748 <.LBB46_5+0x2c>
    7570:	00650533          	add	a0,a0,t1
    7574:	01950533          	add	a0,a0,s9
    7578:	08050e9b          	addiw	t4,a0,128 # ffffffffc0000080 <.Lfunc_end80+0xffffffffbffd76b4>
    757c:	40000537          	lui	a0,0x40000
    7580:	000ed463          	bgez	t4,7588 <.LBB46_498>
    7584:	c0000537          	lui	a0,0xc0000

0000000000007588 <.LBB46_498>:
    7588:	00001337          	lui	t1,0x1
    758c:	40640333          	sub	t1,s0,t1
    7590:	e1f33423          	sd	t6,-504(t1) # e08 <.LBB46_3+0xbd4>
    7594:	e6a43023          	sd	a0,-416(s0)
    7598:	f4043503          	ld	a0,-192(s0)
    759c:	00a28533          	add	a0,t0,a0
    75a0:	000012b7          	lui	t0,0x1
    75a4:	405402b3          	sub	t0,s0,t0
    75a8:	7502b283          	ld	t0,1872(t0) # 1750 <.LBB46_5+0x34>
    75ac:	00550533          	add	a0,a0,t0
    75b0:	01950533          	add	a0,a0,s9
    75b4:	08050f1b          	addiw	t5,a0,128 # ffffffffc0000080 <.Lfunc_end80+0xffffffffbffd76b4>
    75b8:	40000537          	lui	a0,0x40000
    75bc:	000f5463          	bgez	t5,75c4 <.LBB46_500>
    75c0:	c0000537          	lui	a0,0xc0000

00000000000075c4 <.LBB46_500>:
    75c4:	e6a43423          	sd	a0,-408(s0)
    75c8:	ef843503          	ld	a0,-264(s0)
    75cc:	f4843283          	ld	t0,-184(s0)
    75d0:	00550533          	add	a0,a0,t0
    75d4:	000012b7          	lui	t0,0x1
    75d8:	405402b3          	sub	t0,s0,t0
    75dc:	7582b283          	ld	t0,1880(t0) # 1758 <.LBB46_5+0x3c>
    75e0:	00550533          	add	a0,a0,t0
    75e4:	01950533          	add	a0,a0,s9
    75e8:	08050f9b          	addiw	t6,a0,128 # ffffffffc0000080 <.Lfunc_end80+0xffffffffbffd76b4>
    75ec:	40000537          	lui	a0,0x40000
    75f0:	000fd463          	bgez	t6,75f8 <.LBB46_502>
    75f4:	c0000537          	lui	a0,0xc0000

00000000000075f8 <.LBB46_502>:
    75f8:	00090293          	mv	t0,s2
    75fc:	e6a43823          	sd	a0,-400(s0)
    7600:	f5043503          	ld	a0,-176(s0)
    7604:	f0043303          	ld	t1,-256(s0)
    7608:	00a30533          	add	a0,t1,a0
    760c:	00001337          	lui	t1,0x1
    7610:	40640333          	sub	t1,s0,t1
    7614:	76033303          	ld	t1,1888(t1) # 1760 <.LBB46_5+0x44>
    7618:	00650533          	add	a0,a0,t1
    761c:	01950533          	add	a0,a0,s9
    7620:	0805049b          	addiw	s1,a0,128 # ffffffffc0000080 <.Lfunc_end80+0xffffffffbffd76b4>
    7624:	40000537          	lui	a0,0x40000
    7628:	0004d463          	bgez	s1,7630 <.LBB46_504>
    762c:	c0000537          	lui	a0,0xc0000

0000000000007630 <.LBB46_504>:
    7630:	00098393          	mv	t2,s3
    7634:	e8a43023          	sd	a0,-384(s0)
    7638:	f5843503          	ld	a0,-168(s0)
    763c:	e1043303          	ld	t1,-496(s0)
    7640:	00a30533          	add	a0,t1,a0
    7644:	00001337          	lui	t1,0x1
    7648:	40640333          	sub	t1,s0,t1
    764c:	76833303          	ld	t1,1896(t1) # 1768 <.LBB46_5+0x4c>
    7650:	00650533          	add	a0,a0,t1
    7654:	01950533          	add	a0,a0,s9
    7658:	0805091b          	addiw	s2,a0,128 # ffffffffc0000080 <.Lfunc_end80+0xffffffffbffd76b4>
    765c:	40000537          	lui	a0,0x40000
    7660:	00095463          	bgez	s2,7668 <.LBB46_506>
    7664:	c0000537          	lui	a0,0xc0000

0000000000007668 <.LBB46_506>:
    7668:	000a0313          	mv	t1,s4
    766c:	e8a43823          	sd	a0,-368(s0)
    7670:	f6043503          	ld	a0,-160(s0)
    7674:	00a80533          	add	a0,a6,a0
    7678:	00001837          	lui	a6,0x1
    767c:	41040833          	sub	a6,s0,a6
    7680:	77083803          	ld	a6,1904(a6) # 1770 <.LBB46_5+0x54>
    7684:	01050533          	add	a0,a0,a6
    7688:	01950533          	add	a0,a0,s9
    768c:	0805099b          	addiw	s3,a0,128 # ffffffffc0000080 <.Lfunc_end80+0xffffffffbffd76b4>
    7690:	40000537          	lui	a0,0x40000
    7694:	0009d463          	bgez	s3,769c <.LBB46_508>
    7698:	c0000537          	lui	a0,0xc0000

000000000000769c <.LBB46_508>:
    769c:	000a8813          	mv	a6,s5
    76a0:	e8a43c23          	sd	a0,-360(s0)
    76a4:	f6843503          	ld	a0,-152(s0)
    76a8:	00a78533          	add	a0,a5,a0
    76ac:	000017b7          	lui	a5,0x1
    76b0:	40f407b3          	sub	a5,s0,a5
    76b4:	7787b783          	ld	a5,1912(a5) # 1778 <.LBB46_5+0x5c>
    76b8:	00f50533          	add	a0,a0,a5
    76bc:	01950533          	add	a0,a0,s9
    76c0:	08050a1b          	addiw	s4,a0,128 # ffffffffc0000080 <.Lfunc_end80+0xffffffffbffd76b4>
    76c4:	40000537          	lui	a0,0x40000
    76c8:	000a5463          	bgez	s4,76d0 <.LBB46_510>
    76cc:	c0000537          	lui	a0,0xc0000

00000000000076d0 <.LBB46_510>:
    76d0:	000b0793          	mv	a5,s6
    76d4:	eaa43023          	sd	a0,-352(s0)
    76d8:	f7043503          	ld	a0,-144(s0)
    76dc:	e2843a83          	ld	s5,-472(s0)
    76e0:	00aa8533          	add	a0,s5,a0
    76e4:	00001ab7          	lui	s5,0x1
    76e8:	41540ab3          	sub	s5,s0,s5
    76ec:	708aba83          	ld	s5,1800(s5) # 1708 <.LBB46_4+0x580>
    76f0:	01550533          	add	a0,a0,s5
    76f4:	01950533          	add	a0,a0,s9
    76f8:	08050a9b          	addiw	s5,a0,128 # ffffffffc0000080 <.Lfunc_end80+0xffffffffbffd76b4>
    76fc:	40000537          	lui	a0,0x40000
    7700:	000ad463          	bgez	s5,7708 <.LBB46_512>
    7704:	c0000537          	lui	a0,0xc0000

0000000000007708 <.LBB46_512>:
    7708:	eaa43823          	sd	a0,-336(s0)
    770c:	f7843503          	ld	a0,-136(s0)
    7710:	00a68533          	add	a0,a3,a0
    7714:	000016b7          	lui	a3,0x1
    7718:	40d406b3          	sub	a3,s0,a3
    771c:	7806b683          	ld	a3,1920(a3) # 1780 <.LBB46_5+0x64>
    7720:	00d50533          	add	a0,a0,a3
    7724:	01950533          	add	a0,a0,s9
    7728:	08050b1b          	addiw	s6,a0,128 # ffffffffc0000080 <.Lfunc_end80+0xffffffffbffd76b4>
    772c:	40000537          	lui	a0,0x40000
    7730:	000b5463          	bgez	s6,7738 <.LBB46_514>
    7734:	c0000537          	lui	a0,0xc0000

0000000000007738 <.LBB46_514>:
    7738:	eaa43c23          	sd	a0,-328(s0)
    773c:	f8043503          	ld	a0,-128(s0)
    7740:	00a60533          	add	a0,a2,a0
    7744:	00001637          	lui	a2,0x1
    7748:	40c40633          	sub	a2,s0,a2
    774c:	78863603          	ld	a2,1928(a2) # 1788 <.LBB46_5+0x6c>
    7750:	00c50533          	add	a0,a0,a2
    7754:	01950533          	add	a0,a0,s9
    7758:	0805051b          	addiw	a0,a0,128 # ffffffffc0000080 <.Lfunc_end80+0xffffffffbffd76b4>
    775c:	40000637          	lui	a2,0x40000
    7760:	eca43423          	sd	a0,-312(s0)
    7764:	000016b7          	lui	a3,0x1
    7768:	40d406b3          	sub	a3,s0,a3
    776c:	fd06b683          	ld	a3,-48(a3) # fd0 <.LBB46_3+0xd9c>
    7770:	00055463          	bgez	a0,7778 <.LBB46_516>
    7774:	c0000637          	lui	a2,0xc0000

0000000000007778 <.LBB46_516>:
    7778:	f8843503          	ld	a0,-120(s0)
    777c:	00a58533          	add	a0,a1,a0
    7780:	000015b7          	lui	a1,0x1
    7784:	40b405b3          	sub	a1,s0,a1
    7788:	7905b583          	ld	a1,1936(a1) # 1790 <.LBB46_5+0x74>
    778c:	00b50533          	add	a0,a0,a1
    7790:	01950533          	add	a0,a0,s9
    7794:	0805051b          	addiw	a0,a0,128
    7798:	eca43023          	sd	a0,-320(s0)
    779c:	400005b7          	lui	a1,0x40000
    77a0:	00055463          	bgez	a0,77a8 <.LBB46_518>
    77a4:	c00005b7          	lui	a1,0xc0000

00000000000077a8 <.LBB46_518>:
    77a8:	eeb43423          	sd	a1,-280(s0)
    77ac:	00001537          	lui	a0,0x1
    77b0:	40a40533          	sub	a0,s0,a0
    77b4:	ff053503          	ld	a0,-16(a0) # ff0 <.LBB46_3+0xdbc>
    77b8:	03850533          	mul	a0,a0,s8
    77bc:	000015b7          	lui	a1,0x1
    77c0:	40b405b3          	sub	a1,s0,a1
    77c4:	fb85b583          	ld	a1,-72(a1) # fb8 <.LBB46_3+0xd84>
    77c8:	017585b3          	add	a1,a1,s7
    77cc:	00b50533          	add	a0,a0,a1
    77d0:	42455513          	srai	a0,a0,0x24
    77d4:	00a025b3          	sgtz	a1,a0
    77d8:	40b005b3          	neg	a1,a1
    77dc:	00a5fd33          	and	s10,a1,a0
    77e0:	0ff00c93          	li	s9,255
    77e4:	019d4463          	blt	s10,s9,77ec <.LBB46_520>
    77e8:	0ff00d13          	li	s10,255

00000000000077ec <.LBB46_520>:
    77ec:	00001537          	lui	a0,0x1
    77f0:	40a40533          	sub	a0,s0,a0
    77f4:	fe853503          	ld	a0,-24(a0) # fe8 <.LBB46_3+0xdb4>
    77f8:	03850533          	mul	a0,a0,s8
    77fc:	017685b3          	add	a1,a3,s7
    7800:	00b50533          	add	a0,a0,a1
    7804:	42455513          	srai	a0,a0,0x24
    7808:	00a025b3          	sgtz	a1,a0
    780c:	40b005b3          	neg	a1,a1
    7810:	00a5f533          	and	a0,a1,a0
    7814:	01954463          	blt	a0,s9,781c <.LBB46_522>
    7818:	0ff00513          	li	a0,255

000000000000781c <.LBB46_522>:
    781c:	f8a43423          	sd	a0,-120(s0)
    7820:	00001537          	lui	a0,0x1
    7824:	40a40533          	sub	a0,s0,a0
    7828:	fd853503          	ld	a0,-40(a0) # fd8 <.LBB46_3+0xda4>
    782c:	03850533          	mul	a0,a0,s8
    7830:	000015b7          	lui	a1,0x1
    7834:	40b405b3          	sub	a1,s0,a1
    7838:	fb05b583          	ld	a1,-80(a1) # fb0 <.LBB46_3+0xd7c>
    783c:	017585b3          	add	a1,a1,s7
    7840:	00b50533          	add	a0,a0,a1
    7844:	42455513          	srai	a0,a0,0x24
    7848:	00a025b3          	sgtz	a1,a0
    784c:	40b005b3          	neg	a1,a1
    7850:	00a5f533          	and	a0,a1,a0
    7854:	000015b7          	lui	a1,0x1
    7858:	40b405b3          	sub	a1,s0,a1
    785c:	f385b683          	ld	a3,-200(a1) # f38 <.LBB46_3+0xd04>
    7860:	01954463          	blt	a0,s9,7868 <.LBB46_524>
    7864:	0ff00513          	li	a0,255

0000000000007868 <.LBB46_524>:
    7868:	f8a43023          	sd	a0,-128(s0)
    786c:	00001537          	lui	a0,0x1
    7870:	40a40533          	sub	a0,s0,a0
    7874:	fc053503          	ld	a0,-64(a0) # fc0 <.LBB46_3+0xd8c>
    7878:	03850533          	mul	a0,a0,s8
    787c:	000015b7          	lui	a1,0x1
    7880:	40b405b3          	sub	a1,s0,a1
    7884:	f985b583          	ld	a1,-104(a1) # f98 <.LBB46_3+0xd64>
    7888:	017585b3          	add	a1,a1,s7
    788c:	00b50533          	add	a0,a0,a1
    7890:	42455513          	srai	a0,a0,0x24
    7894:	00a025b3          	sgtz	a1,a0
    7898:	40b005b3          	neg	a1,a1
    789c:	00a5f533          	and	a0,a1,a0
    78a0:	01954463          	blt	a0,s9,78a8 <.LBB46_526>
    78a4:	0ff00513          	li	a0,255

00000000000078a8 <.LBB46_526>:
    78a8:	f6a43c23          	sd	a0,-136(s0)
    78ac:	00001537          	lui	a0,0x1
    78b0:	40a40533          	sub	a0,s0,a0
    78b4:	fa853503          	ld	a0,-88(a0) # fa8 <.LBB46_3+0xd74>
    78b8:	03850533          	mul	a0,a0,s8
    78bc:	000015b7          	lui	a1,0x1
    78c0:	40b405b3          	sub	a1,s0,a1
    78c4:	f885b583          	ld	a1,-120(a1) # f88 <.LBB46_3+0xd54>
    78c8:	017585b3          	add	a1,a1,s7
    78cc:	00b50533          	add	a0,a0,a1
    78d0:	42455513          	srai	a0,a0,0x24
    78d4:	00a025b3          	sgtz	a1,a0
    78d8:	40b005b3          	neg	a1,a1
    78dc:	00a5f533          	and	a0,a1,a0
    78e0:	01954463          	blt	a0,s9,78e8 <.LBB46_528>
    78e4:	0ff00513          	li	a0,255

00000000000078e8 <.LBB46_528>:
    78e8:	f6a43823          	sd	a0,-144(s0)
    78ec:	00001537          	lui	a0,0x1
    78f0:	40a40533          	sub	a0,s0,a0
    78f4:	f9053503          	ld	a0,-112(a0) # f90 <.LBB46_3+0xd5c>
    78f8:	03850533          	mul	a0,a0,s8
    78fc:	000015b7          	lui	a1,0x1
    7900:	40b405b3          	sub	a1,s0,a1
    7904:	f705b583          	ld	a1,-144(a1) # f70 <.LBB46_3+0xd3c>
    7908:	017585b3          	add	a1,a1,s7
    790c:	00b50533          	add	a0,a0,a1
    7910:	42455513          	srai	a0,a0,0x24
    7914:	00a025b3          	sgtz	a1,a0
    7918:	40b005b3          	neg	a1,a1
    791c:	00a5f533          	and	a0,a1,a0
    7920:	01954463          	blt	a0,s9,7928 <.LBB46_530>
    7924:	0ff00513          	li	a0,255

0000000000007928 <.LBB46_530>:
    7928:	f6a43423          	sd	a0,-152(s0)
    792c:	00001537          	lui	a0,0x1
    7930:	40a40533          	sub	a0,s0,a0
    7934:	f7853503          	ld	a0,-136(a0) # f78 <.LBB46_3+0xd44>
    7938:	03850533          	mul	a0,a0,s8
    793c:	000015b7          	lui	a1,0x1
    7940:	40b405b3          	sub	a1,s0,a1
    7944:	f585b583          	ld	a1,-168(a1) # f58 <.LBB46_3+0xd24>
    7948:	017585b3          	add	a1,a1,s7
    794c:	00b50533          	add	a0,a0,a1
    7950:	42455513          	srai	a0,a0,0x24
    7954:	00a025b3          	sgtz	a1,a0
    7958:	40b005b3          	neg	a1,a1
    795c:	00a5f533          	and	a0,a1,a0
    7960:	01954463          	blt	a0,s9,7968 <.LBB46_532>
    7964:	0ff00513          	li	a0,255

0000000000007968 <.LBB46_532>:
    7968:	f6a43023          	sd	a0,-160(s0)
    796c:	00001537          	lui	a0,0x1
    7970:	40a40533          	sub	a0,s0,a0
    7974:	f6853503          	ld	a0,-152(a0) # f68 <.LBB46_3+0xd34>
    7978:	03850533          	mul	a0,a0,s8
    797c:	000015b7          	lui	a1,0x1
    7980:	40b405b3          	sub	a1,s0,a1
    7984:	f485b583          	ld	a1,-184(a1) # f48 <.LBB46_3+0xd14>
    7988:	017585b3          	add	a1,a1,s7
    798c:	00b50533          	add	a0,a0,a1
    7990:	42455513          	srai	a0,a0,0x24
    7994:	00a025b3          	sgtz	a1,a0
    7998:	40b005b3          	neg	a1,a1
    799c:	00a5f533          	and	a0,a1,a0
    79a0:	01954463          	blt	a0,s9,79a8 <.LBB46_534>
    79a4:	0ff00513          	li	a0,255

00000000000079a8 <.LBB46_534>:
    79a8:	f4a43c23          	sd	a0,-168(s0)
    79ac:	00001537          	lui	a0,0x1
    79b0:	40a40533          	sub	a0,s0,a0
    79b4:	f5053503          	ld	a0,-176(a0) # f50 <.LBB46_3+0xd1c>
    79b8:	03850533          	mul	a0,a0,s8
    79bc:	017685b3          	add	a1,a3,s7
    79c0:	00b50533          	add	a0,a0,a1
    79c4:	42455513          	srai	a0,a0,0x24
    79c8:	00a025b3          	sgtz	a1,a0
    79cc:	40b005b3          	neg	a1,a1
    79d0:	00a5f533          	and	a0,a1,a0
    79d4:	01954463          	blt	a0,s9,79dc <.LBB46_536>
    79d8:	0ff00513          	li	a0,255

00000000000079dc <.LBB46_536>:
    79dc:	f4a43823          	sd	a0,-176(s0)
    79e0:	00001537          	lui	a0,0x1
    79e4:	40a40533          	sub	a0,s0,a0
    79e8:	d8053503          	ld	a0,-640(a0) # d80 <.LBB46_3+0xb4c>
    79ec:	03850533          	mul	a0,a0,s8
    79f0:	000015b7          	lui	a1,0x1
    79f4:	40b405b3          	sub	a1,s0,a1
    79f8:	6885b583          	ld	a1,1672(a1) # 1688 <.LBB46_4+0x500>
    79fc:	017585b3          	add	a1,a1,s7
    7a00:	00b50533          	add	a0,a0,a1
    7a04:	42455513          	srai	a0,a0,0x24
    7a08:	00a025b3          	sgtz	a1,a0
    7a0c:	40b005b3          	neg	a1,a1
    7a10:	00a5f533          	and	a0,a1,a0
    7a14:	01954463          	blt	a0,s9,7a1c <.LBB46_538>
    7a18:	0ff00513          	li	a0,255

0000000000007a1c <.LBB46_538>:
    7a1c:	f4a43423          	sd	a0,-184(s0)
    7a20:	00001537          	lui	a0,0x1
    7a24:	40a40533          	sub	a0,s0,a0
    7a28:	d9053503          	ld	a0,-624(a0) # d90 <.LBB46_3+0xb5c>
    7a2c:	03850533          	mul	a0,a0,s8
    7a30:	000015b7          	lui	a1,0x1
    7a34:	40b405b3          	sub	a1,s0,a1
    7a38:	d885b583          	ld	a1,-632(a1) # d88 <.LBB46_3+0xb54>
    7a3c:	017585b3          	add	a1,a1,s7
    7a40:	00b50533          	add	a0,a0,a1
    7a44:	42455513          	srai	a0,a0,0x24
    7a48:	00a025b3          	sgtz	a1,a0
    7a4c:	40b005b3          	neg	a1,a1
    7a50:	00a5f533          	and	a0,a1,a0
    7a54:	01954463          	blt	a0,s9,7a5c <.LBB46_540>
    7a58:	0ff00513          	li	a0,255

0000000000007a5c <.LBB46_540>:
    7a5c:	f4a43023          	sd	a0,-192(s0)
    7a60:	00001537          	lui	a0,0x1
    7a64:	40a40533          	sub	a0,s0,a0
    7a68:	da053503          	ld	a0,-608(a0) # da0 <.LBB46_3+0xb6c>
    7a6c:	03850533          	mul	a0,a0,s8
    7a70:	000015b7          	lui	a1,0x1
    7a74:	40b405b3          	sub	a1,s0,a1
    7a78:	d985b583          	ld	a1,-616(a1) # d98 <.LBB46_3+0xb64>
    7a7c:	017585b3          	add	a1,a1,s7
    7a80:	00b50533          	add	a0,a0,a1
    7a84:	42455513          	srai	a0,a0,0x24
    7a88:	00a025b3          	sgtz	a1,a0
    7a8c:	40b005b3          	neg	a1,a1
    7a90:	00a5f533          	and	a0,a1,a0
    7a94:	01954463          	blt	a0,s9,7a9c <.LBB46_542>
    7a98:	0ff00513          	li	a0,255

0000000000007a9c <.LBB46_542>:
    7a9c:	f2a43c23          	sd	a0,-200(s0)
    7aa0:	00001537          	lui	a0,0x1
    7aa4:	40a40533          	sub	a0,s0,a0
    7aa8:	db053503          	ld	a0,-592(a0) # db0 <.LBB46_3+0xb7c>
    7aac:	03850533          	mul	a0,a0,s8
    7ab0:	000015b7          	lui	a1,0x1
    7ab4:	40b405b3          	sub	a1,s0,a1
    7ab8:	da85b583          	ld	a1,-600(a1) # da8 <.LBB46_3+0xb74>
    7abc:	017585b3          	add	a1,a1,s7
    7ac0:	00b50533          	add	a0,a0,a1
    7ac4:	42455513          	srai	a0,a0,0x24
    7ac8:	00a025b3          	sgtz	a1,a0
    7acc:	40b005b3          	neg	a1,a1
    7ad0:	00a5f533          	and	a0,a1,a0
    7ad4:	01954463          	blt	a0,s9,7adc <.LBB46_544>
    7ad8:	0ff00513          	li	a0,255

0000000000007adc <.LBB46_544>:
    7adc:	f2a43823          	sd	a0,-208(s0)
    7ae0:	00001537          	lui	a0,0x1
    7ae4:	40a40533          	sub	a0,s0,a0
    7ae8:	dc053503          	ld	a0,-576(a0) # dc0 <.LBB46_3+0xb8c>
    7aec:	03850533          	mul	a0,a0,s8
    7af0:	000015b7          	lui	a1,0x1
    7af4:	40b405b3          	sub	a1,s0,a1
    7af8:	db85b583          	ld	a1,-584(a1) # db8 <.LBB46_3+0xb84>
    7afc:	017585b3          	add	a1,a1,s7
    7b00:	00b50533          	add	a0,a0,a1
    7b04:	42455513          	srai	a0,a0,0x24
    7b08:	00a025b3          	sgtz	a1,a0
    7b0c:	40b005b3          	neg	a1,a1
    7b10:	00a5f533          	and	a0,a1,a0
    7b14:	01954463          	blt	a0,s9,7b1c <.LBB46_546>
    7b18:	0ff00513          	li	a0,255

0000000000007b1c <.LBB46_546>:
    7b1c:	f2a43423          	sd	a0,-216(s0)
    7b20:	00001537          	lui	a0,0x1
    7b24:	40a40533          	sub	a0,s0,a0
    7b28:	dd053503          	ld	a0,-560(a0) # dd0 <.LBB46_3+0xb9c>
    7b2c:	03850533          	mul	a0,a0,s8
    7b30:	000015b7          	lui	a1,0x1
    7b34:	40b405b3          	sub	a1,s0,a1
    7b38:	dc85b583          	ld	a1,-568(a1) # dc8 <.LBB46_3+0xb94>
    7b3c:	017585b3          	add	a1,a1,s7
    7b40:	00b50533          	add	a0,a0,a1
    7b44:	42455513          	srai	a0,a0,0x24
    7b48:	00a025b3          	sgtz	a1,a0
    7b4c:	40b005b3          	neg	a1,a1
    7b50:	00a5f533          	and	a0,a1,a0
    7b54:	01954463          	blt	a0,s9,7b5c <.LBB46_548>
    7b58:	0ff00513          	li	a0,255

0000000000007b5c <.LBB46_548>:
    7b5c:	f2a43023          	sd	a0,-224(s0)
    7b60:	00001537          	lui	a0,0x1
    7b64:	40a40533          	sub	a0,s0,a0
    7b68:	de053503          	ld	a0,-544(a0) # de0 <.LBB46_3+0xbac>
    7b6c:	03850533          	mul	a0,a0,s8
    7b70:	000015b7          	lui	a1,0x1
    7b74:	40b405b3          	sub	a1,s0,a1
    7b78:	dd85b583          	ld	a1,-552(a1) # dd8 <.LBB46_3+0xba4>
    7b7c:	017585b3          	add	a1,a1,s7
    7b80:	00b50533          	add	a0,a0,a1
    7b84:	42455513          	srai	a0,a0,0x24
    7b88:	00a025b3          	sgtz	a1,a0
    7b8c:	40b005b3          	neg	a1,a1
    7b90:	00a5f533          	and	a0,a1,a0
    7b94:	01954463          	blt	a0,s9,7b9c <.LBB46_550>
    7b98:	0ff00513          	li	a0,255

0000000000007b9c <.LBB46_550>:
    7b9c:	f0a43c23          	sd	a0,-232(s0)
    7ba0:	00001537          	lui	a0,0x1
    7ba4:	40a40533          	sub	a0,s0,a0
    7ba8:	df053503          	ld	a0,-528(a0) # df0 <.LBB46_3+0xbbc>
    7bac:	03850533          	mul	a0,a0,s8
    7bb0:	000015b7          	lui	a1,0x1
    7bb4:	40b405b3          	sub	a1,s0,a1
    7bb8:	de85b583          	ld	a1,-536(a1) # de8 <.LBB46_3+0xbb4>
    7bbc:	017585b3          	add	a1,a1,s7
    7bc0:	00b50533          	add	a0,a0,a1
    7bc4:	42455513          	srai	a0,a0,0x24
    7bc8:	00a025b3          	sgtz	a1,a0
    7bcc:	40b005b3          	neg	a1,a1
    7bd0:	00a5f533          	and	a0,a1,a0
    7bd4:	01954463          	blt	a0,s9,7bdc <.LBB46_552>
    7bd8:	0ff00513          	li	a0,255

0000000000007bdc <.LBB46_552>:
    7bdc:	f0a43823          	sd	a0,-240(s0)
    7be0:	00001537          	lui	a0,0x1
    7be4:	40a40533          	sub	a0,s0,a0
    7be8:	e0053503          	ld	a0,-512(a0) # e00 <.LBB46_3+0xbcc>
    7bec:	03850533          	mul	a0,a0,s8
    7bf0:	000015b7          	lui	a1,0x1
    7bf4:	40b405b3          	sub	a1,s0,a1
    7bf8:	df85b583          	ld	a1,-520(a1) # df8 <.LBB46_3+0xbc4>
    7bfc:	017585b3          	add	a1,a1,s7
    7c00:	00b50533          	add	a0,a0,a1
    7c04:	42455513          	srai	a0,a0,0x24
    7c08:	00a025b3          	sgtz	a1,a0
    7c0c:	40b005b3          	neg	a1,a1
    7c10:	00a5f533          	and	a0,a1,a0
    7c14:	01954463          	blt	a0,s9,7c1c <.LBB46_554>
    7c18:	0ff00513          	li	a0,255

0000000000007c1c <.LBB46_554>:
    7c1c:	f0a43423          	sd	a0,-248(s0)
    7c20:	00001537          	lui	a0,0x1
    7c24:	40a40533          	sub	a0,s0,a0
    7c28:	e1053503          	ld	a0,-496(a0) # e10 <.LBB46_3+0xbdc>
    7c2c:	03850533          	mul	a0,a0,s8
    7c30:	017885b3          	add	a1,a7,s7
    7c34:	00b50533          	add	a0,a0,a1
    7c38:	42455513          	srai	a0,a0,0x24
    7c3c:	00a025b3          	sgtz	a1,a0
    7c40:	40b005b3          	neg	a1,a1
    7c44:	00a5f533          	and	a0,a1,a0
    7c48:	01954463          	blt	a0,s9,7c50 <.LBB46_556>
    7c4c:	0ff00513          	li	a0,255

0000000000007c50 <.LBB46_556>:
    7c50:	f0a43023          	sd	a0,-256(s0)
    7c54:	00001537          	lui	a0,0x1
    7c58:	40a40533          	sub	a0,s0,a0
    7c5c:	e2053503          	ld	a0,-480(a0) # e20 <.LBB46_3+0xbec>
    7c60:	03850533          	mul	a0,a0,s8
    7c64:	000015b7          	lui	a1,0x1
    7c68:	40b405b3          	sub	a1,s0,a1
    7c6c:	e185b583          	ld	a1,-488(a1) # e18 <.LBB46_3+0xbe4>
    7c70:	017585b3          	add	a1,a1,s7
    7c74:	00b50533          	add	a0,a0,a1
    7c78:	42455513          	srai	a0,a0,0x24
    7c7c:	00a025b3          	sgtz	a1,a0
    7c80:	40b005b3          	neg	a1,a1
    7c84:	00a5f533          	and	a0,a1,a0
    7c88:	01954463          	blt	a0,s9,7c90 <.LBB46_558>
    7c8c:	0ff00513          	li	a0,255

0000000000007c90 <.LBB46_558>:
    7c90:	eea43c23          	sd	a0,-264(s0)
    7c94:	00001537          	lui	a0,0x1
    7c98:	40a40533          	sub	a0,s0,a0
    7c9c:	e3053503          	ld	a0,-464(a0) # e30 <.LBB46_3+0xbfc>
    7ca0:	03850533          	mul	a0,a0,s8
    7ca4:	000015b7          	lui	a1,0x1
    7ca8:	40b405b3          	sub	a1,s0,a1
    7cac:	e285b583          	ld	a1,-472(a1) # e28 <.LBB46_3+0xbf4>
    7cb0:	017585b3          	add	a1,a1,s7
    7cb4:	00b50533          	add	a0,a0,a1
    7cb8:	42455513          	srai	a0,a0,0x24
    7cbc:	00a025b3          	sgtz	a1,a0
    7cc0:	40b005b3          	neg	a1,a1
    7cc4:	00a5f533          	and	a0,a1,a0
    7cc8:	01954463          	blt	a0,s9,7cd0 <.LBB46_560>
    7ccc:	0ff00513          	li	a0,255

0000000000007cd0 <.LBB46_560>:
    7cd0:	eea43823          	sd	a0,-272(s0)
    7cd4:	00001537          	lui	a0,0x1
    7cd8:	40a40533          	sub	a0,s0,a0
    7cdc:	e4053503          	ld	a0,-448(a0) # e40 <.LBB46_3+0xc0c>
    7ce0:	03850533          	mul	a0,a0,s8
    7ce4:	000015b7          	lui	a1,0x1
    7ce8:	40b405b3          	sub	a1,s0,a1
    7cec:	e385b583          	ld	a1,-456(a1) # e38 <.LBB46_3+0xc04>
    7cf0:	017585b3          	add	a1,a1,s7
    7cf4:	00b50533          	add	a0,a0,a1
    7cf8:	42455513          	srai	a0,a0,0x24
    7cfc:	00a025b3          	sgtz	a1,a0
    7d00:	40b005b3          	neg	a1,a1
    7d04:	00a5f533          	and	a0,a1,a0
    7d08:	01954463          	blt	a0,s9,7d10 <.LBB46_562>
    7d0c:	0ff00513          	li	a0,255

0000000000007d10 <.LBB46_562>:
    7d10:	eea43023          	sd	a0,-288(s0)
    7d14:	00001537          	lui	a0,0x1
    7d18:	40a40533          	sub	a0,s0,a0
    7d1c:	e5053503          	ld	a0,-432(a0) # e50 <.LBB46_3+0xc1c>
    7d20:	03850533          	mul	a0,a0,s8
    7d24:	000015b7          	lui	a1,0x1
    7d28:	40b405b3          	sub	a1,s0,a1
    7d2c:	e485b583          	ld	a1,-440(a1) # e48 <.LBB46_3+0xc14>
    7d30:	017585b3          	add	a1,a1,s7
    7d34:	00b50533          	add	a0,a0,a1
    7d38:	42455513          	srai	a0,a0,0x24
    7d3c:	00a025b3          	sgtz	a1,a0
    7d40:	40b005b3          	neg	a1,a1
    7d44:	00a5f533          	and	a0,a1,a0
    7d48:	01954463          	blt	a0,s9,7d50 <.LBB46_564>
    7d4c:	0ff00513          	li	a0,255

0000000000007d50 <.LBB46_564>:
    7d50:	eca43c23          	sd	a0,-296(s0)
    7d54:	00001537          	lui	a0,0x1
    7d58:	40a40533          	sub	a0,s0,a0
    7d5c:	e6053503          	ld	a0,-416(a0) # e60 <.LBB46_3+0xc2c>
    7d60:	03850533          	mul	a0,a0,s8
    7d64:	000015b7          	lui	a1,0x1
    7d68:	40b405b3          	sub	a1,s0,a1
    7d6c:	e585b583          	ld	a1,-424(a1) # e58 <.LBB46_3+0xc24>
    7d70:	017585b3          	add	a1,a1,s7
    7d74:	00b50533          	add	a0,a0,a1
    7d78:	42455513          	srai	a0,a0,0x24
    7d7c:	00a025b3          	sgtz	a1,a0
    7d80:	40b005b3          	neg	a1,a1
    7d84:	00a5f533          	and	a0,a1,a0
    7d88:	01954463          	blt	a0,s9,7d90 <.LBB46_566>
    7d8c:	0ff00513          	li	a0,255

0000000000007d90 <.LBB46_566>:
    7d90:	eca43823          	sd	a0,-304(s0)
    7d94:	00001537          	lui	a0,0x1
    7d98:	40a40533          	sub	a0,s0,a0
    7d9c:	e7053503          	ld	a0,-400(a0) # e70 <.LBB46_3+0xc3c>
    7da0:	03850533          	mul	a0,a0,s8
    7da4:	000015b7          	lui	a1,0x1
    7da8:	40b405b3          	sub	a1,s0,a1
    7dac:	e685b583          	ld	a1,-408(a1) # e68 <.LBB46_3+0xc34>
    7db0:	017585b3          	add	a1,a1,s7
    7db4:	00b50533          	add	a0,a0,a1
    7db8:	42455513          	srai	a0,a0,0x24
    7dbc:	00a025b3          	sgtz	a1,a0
    7dc0:	40b005b3          	neg	a1,a1
    7dc4:	00a5f533          	and	a0,a1,a0
    7dc8:	01954463          	blt	a0,s9,7dd0 <.LBB46_568>
    7dcc:	0ff00513          	li	a0,255

0000000000007dd0 <.LBB46_568>:
    7dd0:	eaa43423          	sd	a0,-344(s0)
    7dd4:	00001537          	lui	a0,0x1
    7dd8:	40a40533          	sub	a0,s0,a0
    7ddc:	e8053503          	ld	a0,-384(a0) # e80 <.LBB46_3+0xc4c>
    7de0:	03850533          	mul	a0,a0,s8
    7de4:	000015b7          	lui	a1,0x1
    7de8:	40b405b3          	sub	a1,s0,a1
    7dec:	e785b583          	ld	a1,-392(a1) # e78 <.LBB46_3+0xc44>
    7df0:	017585b3          	add	a1,a1,s7
    7df4:	00b50533          	add	a0,a0,a1
    7df8:	42455513          	srai	a0,a0,0x24
    7dfc:	00a025b3          	sgtz	a1,a0
    7e00:	40b005b3          	neg	a1,a1
    7e04:	00a5f533          	and	a0,a1,a0
    7e08:	01954463          	blt	a0,s9,7e10 <.LBB46_570>
    7e0c:	0ff00513          	li	a0,255

0000000000007e10 <.LBB46_570>:
    7e10:	e6a43c23          	sd	a0,-392(s0)
    7e14:	00001537          	lui	a0,0x1
    7e18:	40a40533          	sub	a0,s0,a0
    7e1c:	e9053503          	ld	a0,-368(a0) # e90 <.LBB46_3+0xc5c>
    7e20:	03850533          	mul	a0,a0,s8
    7e24:	000015b7          	lui	a1,0x1
    7e28:	40b405b3          	sub	a1,s0,a1
    7e2c:	e885b583          	ld	a1,-376(a1) # e88 <.LBB46_3+0xc54>
    7e30:	017585b3          	add	a1,a1,s7
    7e34:	00b50533          	add	a0,a0,a1
    7e38:	42455513          	srai	a0,a0,0x24
    7e3c:	00a025b3          	sgtz	a1,a0
    7e40:	40b005b3          	neg	a1,a1
    7e44:	00a5f533          	and	a0,a1,a0
    7e48:	01954463          	blt	a0,s9,7e50 <.LBB46_572>
    7e4c:	0ff00513          	li	a0,255

0000000000007e50 <.LBB46_572>:
    7e50:	e4a43c23          	sd	a0,-424(s0)
    7e54:	00001537          	lui	a0,0x1
    7e58:	40a40533          	sub	a0,s0,a0
    7e5c:	ea053503          	ld	a0,-352(a0) # ea0 <.LBB46_3+0xc6c>
    7e60:	03850533          	mul	a0,a0,s8
    7e64:	000015b7          	lui	a1,0x1
    7e68:	40b405b3          	sub	a1,s0,a1
    7e6c:	e985b583          	ld	a1,-360(a1) # e98 <.LBB46_3+0xc64>
    7e70:	017585b3          	add	a1,a1,s7
    7e74:	00b50533          	add	a0,a0,a1
    7e78:	42455513          	srai	a0,a0,0x24
    7e7c:	00a025b3          	sgtz	a1,a0
    7e80:	40b005b3          	neg	a1,a1
    7e84:	00a5f533          	and	a0,a1,a0
    7e88:	01954463          	blt	a0,s9,7e90 <.LBB46_574>
    7e8c:	0ff00513          	li	a0,255

0000000000007e90 <.LBB46_574>:
    7e90:	e4a43023          	sd	a0,-448(s0)
    7e94:	00001537          	lui	a0,0x1
    7e98:	40a40533          	sub	a0,s0,a0
    7e9c:	eb053503          	ld	a0,-336(a0) # eb0 <.LBB46_3+0xc7c>
    7ea0:	03850533          	mul	a0,a0,s8
    7ea4:	000015b7          	lui	a1,0x1
    7ea8:	40b405b3          	sub	a1,s0,a1
    7eac:	ea85b583          	ld	a1,-344(a1) # ea8 <.LBB46_3+0xc74>
    7eb0:	017585b3          	add	a1,a1,s7
    7eb4:	00b50533          	add	a0,a0,a1
    7eb8:	42455513          	srai	a0,a0,0x24
    7ebc:	00a025b3          	sgtz	a1,a0
    7ec0:	40b005b3          	neg	a1,a1
    7ec4:	00a5f533          	and	a0,a1,a0
    7ec8:	01954463          	blt	a0,s9,7ed0 <.LBB46_576>
    7ecc:	0ff00513          	li	a0,255

0000000000007ed0 <.LBB46_576>:
    7ed0:	e2a43c23          	sd	a0,-456(s0)
    7ed4:	00001537          	lui	a0,0x1
    7ed8:	40a40533          	sub	a0,s0,a0
    7edc:	ec053503          	ld	a0,-320(a0) # ec0 <.LBB46_3+0xc8c>
    7ee0:	03850533          	mul	a0,a0,s8
    7ee4:	000015b7          	lui	a1,0x1
    7ee8:	40b405b3          	sub	a1,s0,a1
    7eec:	eb85b583          	ld	a1,-328(a1) # eb8 <.LBB46_3+0xc84>
    7ef0:	017585b3          	add	a1,a1,s7
    7ef4:	00b50533          	add	a0,a0,a1
    7ef8:	42455513          	srai	a0,a0,0x24
    7efc:	00a025b3          	sgtz	a1,a0
    7f00:	40b005b3          	neg	a1,a1
    7f04:	00a5f533          	and	a0,a1,a0
    7f08:	01954463          	blt	a0,s9,7f10 <.LBB46_578>
    7f0c:	0ff00513          	li	a0,255

0000000000007f10 <.LBB46_578>:
    7f10:	e2a43823          	sd	a0,-464(s0)
    7f14:	00001537          	lui	a0,0x1
    7f18:	40a40533          	sub	a0,s0,a0
    7f1c:	ed053503          	ld	a0,-304(a0) # ed0 <.LBB46_3+0xc9c>
    7f20:	03850533          	mul	a0,a0,s8
    7f24:	000015b7          	lui	a1,0x1
    7f28:	40b405b3          	sub	a1,s0,a1
    7f2c:	ec85b583          	ld	a1,-312(a1) # ec8 <.LBB46_3+0xc94>
    7f30:	017585b3          	add	a1,a1,s7
    7f34:	00b50533          	add	a0,a0,a1
    7f38:	42455513          	srai	a0,a0,0x24
    7f3c:	00a025b3          	sgtz	a1,a0
    7f40:	40b005b3          	neg	a1,a1
    7f44:	00a5f533          	and	a0,a1,a0
    7f48:	01954463          	blt	a0,s9,7f50 <.LBB46_580>
    7f4c:	0ff00513          	li	a0,255

0000000000007f50 <.LBB46_580>:
    7f50:	e2a43423          	sd	a0,-472(s0)
    7f54:	00001537          	lui	a0,0x1
    7f58:	40a40533          	sub	a0,s0,a0
    7f5c:	ee053503          	ld	a0,-288(a0) # ee0 <.LBB46_3+0xcac>
    7f60:	03850533          	mul	a0,a0,s8
    7f64:	000015b7          	lui	a1,0x1
    7f68:	40b405b3          	sub	a1,s0,a1
    7f6c:	ed85b583          	ld	a1,-296(a1) # ed8 <.LBB46_3+0xca4>
    7f70:	017585b3          	add	a1,a1,s7
    7f74:	00b50533          	add	a0,a0,a1
    7f78:	42455513          	srai	a0,a0,0x24
    7f7c:	00a025b3          	sgtz	a1,a0
    7f80:	40b005b3          	neg	a1,a1
    7f84:	00a5f533          	and	a0,a1,a0
    7f88:	01954463          	blt	a0,s9,7f90 <.LBB46_582>
    7f8c:	0ff00513          	li	a0,255

0000000000007f90 <.LBB46_582>:
    7f90:	e2a43023          	sd	a0,-480(s0)
    7f94:	00001537          	lui	a0,0x1
    7f98:	40a40533          	sub	a0,s0,a0
    7f9c:	ef053503          	ld	a0,-272(a0) # ef0 <.LBB46_3+0xcbc>
    7fa0:	03850533          	mul	a0,a0,s8
    7fa4:	000015b7          	lui	a1,0x1
    7fa8:	40b405b3          	sub	a1,s0,a1
    7fac:	ee85b583          	ld	a1,-280(a1) # ee8 <.LBB46_3+0xcb4>
    7fb0:	017585b3          	add	a1,a1,s7
    7fb4:	00b50533          	add	a0,a0,a1
    7fb8:	42455513          	srai	a0,a0,0x24
    7fbc:	00a025b3          	sgtz	a1,a0
    7fc0:	40b005b3          	neg	a1,a1
    7fc4:	00a5f533          	and	a0,a1,a0
    7fc8:	01954463          	blt	a0,s9,7fd0 <.LBB46_584>
    7fcc:	0ff00513          	li	a0,255

0000000000007fd0 <.LBB46_584>:
    7fd0:	e0a43c23          	sd	a0,-488(s0)
    7fd4:	00001537          	lui	a0,0x1
    7fd8:	40a40533          	sub	a0,s0,a0
    7fdc:	f0053503          	ld	a0,-256(a0) # f00 <.LBB46_3+0xccc>
    7fe0:	03850533          	mul	a0,a0,s8
    7fe4:	000015b7          	lui	a1,0x1
    7fe8:	40b405b3          	sub	a1,s0,a1
    7fec:	ef85b583          	ld	a1,-264(a1) # ef8 <.LBB46_3+0xcc4>
    7ff0:	017585b3          	add	a1,a1,s7
    7ff4:	00b50533          	add	a0,a0,a1
    7ff8:	42455513          	srai	a0,a0,0x24
    7ffc:	00a025b3          	sgtz	a1,a0
    8000:	40b005b3          	neg	a1,a1
    8004:	00a5f533          	and	a0,a1,a0
    8008:	01954463          	blt	a0,s9,8010 <.LBB46_586>
    800c:	0ff00513          	li	a0,255

0000000000008010 <.LBB46_586>:
    8010:	e0a43823          	sd	a0,-496(s0)
    8014:	00001537          	lui	a0,0x1
    8018:	40a40533          	sub	a0,s0,a0
    801c:	f1053503          	ld	a0,-240(a0) # f10 <.LBB46_3+0xcdc>
    8020:	03850533          	mul	a0,a0,s8
    8024:	000015b7          	lui	a1,0x1
    8028:	40b405b3          	sub	a1,s0,a1
    802c:	f085b583          	ld	a1,-248(a1) # f08 <.LBB46_3+0xcd4>
    8030:	017585b3          	add	a1,a1,s7
    8034:	00b50533          	add	a0,a0,a1
    8038:	42455513          	srai	a0,a0,0x24
    803c:	00a025b3          	sgtz	a1,a0
    8040:	40b005b3          	neg	a1,a1
    8044:	00a5f533          	and	a0,a1,a0
    8048:	01954463          	blt	a0,s9,8050 <.LBB46_588>
    804c:	0ff00513          	li	a0,255

0000000000008050 <.LBB46_588>:
    8050:	e0a43423          	sd	a0,-504(s0)
    8054:	00001537          	lui	a0,0x1
    8058:	40a40533          	sub	a0,s0,a0
    805c:	f2053503          	ld	a0,-224(a0) # f20 <.LBB46_3+0xcec>
    8060:	03850533          	mul	a0,a0,s8
    8064:	000015b7          	lui	a1,0x1
    8068:	40b405b3          	sub	a1,s0,a1
    806c:	f185b583          	ld	a1,-232(a1) # f18 <.LBB46_3+0xce4>
    8070:	017585b3          	add	a1,a1,s7
    8074:	00b50533          	add	a0,a0,a1
    8078:	42455513          	srai	a0,a0,0x24
    807c:	00a025b3          	sgtz	a1,a0
    8080:	40b005b3          	neg	a1,a1
    8084:	00a5f533          	and	a0,a1,a0
    8088:	01954463          	blt	a0,s9,8090 <.LBB46_590>
    808c:	0ff00513          	li	a0,255

0000000000008090 <.LBB46_590>:
    8090:	e0a43023          	sd	a0,-512(s0)
    8094:	00001537          	lui	a0,0x1
    8098:	40a40533          	sub	a0,s0,a0
    809c:	f3053503          	ld	a0,-208(a0) # f30 <.LBB46_3+0xcfc>
    80a0:	03850533          	mul	a0,a0,s8
    80a4:	000015b7          	lui	a1,0x1
    80a8:	40b405b3          	sub	a1,s0,a1
    80ac:	f285b583          	ld	a1,-216(a1) # f28 <.LBB46_3+0xcf4>
    80b0:	017585b3          	add	a1,a1,s7
    80b4:	00b50533          	add	a0,a0,a1
    80b8:	42455513          	srai	a0,a0,0x24
    80bc:	00a025b3          	sgtz	a1,a0
    80c0:	40b005b3          	neg	a1,a1
    80c4:	00a5f533          	and	a0,a1,a0
    80c8:	01954463          	blt	a0,s9,80d0 <.LBB46_592>
    80cc:	0ff00513          	li	a0,255

00000000000080d0 <.LBB46_592>:
    80d0:	c0a43423          	sd	a0,-1016(s0)
    80d4:	00001537          	lui	a0,0x1
    80d8:	40a40533          	sub	a0,s0,a0
    80dc:	f6053503          	ld	a0,-160(a0) # f60 <.LBB46_3+0xd2c>
    80e0:	03850533          	mul	a0,a0,s8
    80e4:	000015b7          	lui	a1,0x1
    80e8:	40b405b3          	sub	a1,s0,a1
    80ec:	f405b583          	ld	a1,-192(a1) # f40 <.LBB46_3+0xd0c>
    80f0:	017585b3          	add	a1,a1,s7
    80f4:	00b50533          	add	a0,a0,a1
    80f8:	42455513          	srai	a0,a0,0x24
    80fc:	00a025b3          	sgtz	a1,a0
    8100:	40b005b3          	neg	a1,a1
    8104:	00a5f533          	and	a0,a1,a0
    8108:	01954463          	blt	a0,s9,8110 <.LBB46_594>
    810c:	0ff00513          	li	a0,255

0000000000008110 <.LBB46_594>:
    8110:	bca43023          	sd	a0,-1088(s0)
    8114:	00001537          	lui	a0,0x1
    8118:	40a40533          	sub	a0,s0,a0
    811c:	fa053503          	ld	a0,-96(a0) # fa0 <.LBB46_3+0xd6c>
    8120:	03850533          	mul	a0,a0,s8
    8124:	000015b7          	lui	a1,0x1
    8128:	40b405b3          	sub	a1,s0,a1
    812c:	f805b583          	ld	a1,-128(a1) # f80 <.LBB46_3+0xd4c>
    8130:	017585b3          	add	a1,a1,s7
    8134:	00b50533          	add	a0,a0,a1
    8138:	42455513          	srai	a0,a0,0x24
    813c:	00a025b3          	sgtz	a1,a0
    8140:	40b005b3          	neg	a1,a1
    8144:	00a5f533          	and	a0,a1,a0
    8148:	01954463          	blt	a0,s9,8150 <.LBB46_596>
    814c:	0ff00513          	li	a0,255

0000000000008150 <.LBB46_596>:
    8150:	b8a43023          	sd	a0,-1152(s0)
    8154:	00001537          	lui	a0,0x1
    8158:	40a40533          	sub	a0,s0,a0
    815c:	fe053503          	ld	a0,-32(a0) # fe0 <.LBB46_3+0xdac>
    8160:	03850533          	mul	a0,a0,s8
    8164:	000015b7          	lui	a1,0x1
    8168:	40b405b3          	sub	a1,s0,a1
    816c:	fc85b583          	ld	a1,-56(a1) # fc8 <.LBB46_3+0xd94>
    8170:	017585b3          	add	a1,a1,s7
    8174:	00b50533          	add	a0,a0,a1
    8178:	42455513          	srai	a0,a0,0x24
    817c:	00a025b3          	sgtz	a1,a0
    8180:	40b005b3          	neg	a1,a1
    8184:	00a5f533          	and	a0,a1,a0
    8188:	01954463          	blt	a0,s9,8190 <.LBB46_598>
    818c:	0ff00513          	li	a0,255

0000000000008190 <.LBB46_598>:
    8190:	b2a43823          	sd	a0,-1232(s0)
    8194:	00001537          	lui	a0,0x1
    8198:	40a40533          	sub	a0,s0,a0
    819c:	00053503          	ld	a0,0(a0) # 1000 <.LBB46_3+0xdcc>
    81a0:	03850533          	mul	a0,a0,s8
    81a4:	000015b7          	lui	a1,0x1
    81a8:	40b405b3          	sub	a1,s0,a1
    81ac:	ff85b583          	ld	a1,-8(a1) # ff8 <.LBB46_3+0xdc4>
    81b0:	017585b3          	add	a1,a1,s7
    81b4:	00b50533          	add	a0,a0,a1
    81b8:	42455513          	srai	a0,a0,0x24
    81bc:	00a025b3          	sgtz	a1,a0
    81c0:	40b005b3          	neg	a1,a1
    81c4:	00a5f533          	and	a0,a1,a0
    81c8:	01954463          	blt	a0,s9,81d0 <.LBB46_600>
    81cc:	0ff00513          	li	a0,255

00000000000081d0 <.LBB46_600>:
    81d0:	aea43023          	sd	a0,-1312(s0)
    81d4:	00001537          	lui	a0,0x1
    81d8:	40a40533          	sub	a0,s0,a0
    81dc:	01053503          	ld	a0,16(a0) # 1010 <.LBB46_3+0xddc>
    81e0:	03850533          	mul	a0,a0,s8
    81e4:	000015b7          	lui	a1,0x1
    81e8:	40b405b3          	sub	a1,s0,a1
    81ec:	0085b583          	ld	a1,8(a1) # 1008 <.LBB46_3+0xdd4>
    81f0:	017585b3          	add	a1,a1,s7
    81f4:	00b50533          	add	a0,a0,a1
    81f8:	42455513          	srai	a0,a0,0x24
    81fc:	00a025b3          	sgtz	a1,a0
    8200:	40b005b3          	neg	a1,a1
    8204:	00a5f533          	and	a0,a1,a0
    8208:	01954463          	blt	a0,s9,8210 <.LBB46_602>
    820c:	0ff00513          	li	a0,255

0000000000008210 <.LBB46_602>:
    8210:	aaa43023          	sd	a0,-1376(s0)
    8214:	00001537          	lui	a0,0x1
    8218:	40a40533          	sub	a0,s0,a0
    821c:	02053503          	ld	a0,32(a0) # 1020 <.LBB46_3+0xdec>
    8220:	03850533          	mul	a0,a0,s8
    8224:	000015b7          	lui	a1,0x1
    8228:	40b405b3          	sub	a1,s0,a1
    822c:	0185b583          	ld	a1,24(a1) # 1018 <.LBB46_3+0xde4>
    8230:	017585b3          	add	a1,a1,s7
    8234:	00b50533          	add	a0,a0,a1
    8238:	42455513          	srai	a0,a0,0x24
    823c:	00a025b3          	sgtz	a1,a0
    8240:	40b005b3          	neg	a1,a1
    8244:	00a5f533          	and	a0,a1,a0
    8248:	01954463          	blt	a0,s9,8250 <.LBB46_604>
    824c:	0ff00513          	li	a0,255

0000000000008250 <.LBB46_604>:
    8250:	a4a43c23          	sd	a0,-1448(s0)
    8254:	00001537          	lui	a0,0x1
    8258:	40a40533          	sub	a0,s0,a0
    825c:	03053503          	ld	a0,48(a0) # 1030 <.LBB46_3+0xdfc>
    8260:	03850533          	mul	a0,a0,s8
    8264:	000015b7          	lui	a1,0x1
    8268:	40b405b3          	sub	a1,s0,a1
    826c:	0285b583          	ld	a1,40(a1) # 1028 <.LBB46_3+0xdf4>
    8270:	017585b3          	add	a1,a1,s7
    8274:	00b50533          	add	a0,a0,a1
    8278:	42455513          	srai	a0,a0,0x24
    827c:	00a025b3          	sgtz	a1,a0
    8280:	40b005b3          	neg	a1,a1
    8284:	00a5f533          	and	a0,a1,a0
    8288:	01954463          	blt	a0,s9,8290 <.LBB46_606>
    828c:	0ff00513          	li	a0,255

0000000000008290 <.LBB46_606>:
    8290:	a0a43c23          	sd	a0,-1512(s0)
    8294:	00001537          	lui	a0,0x1
    8298:	40a40533          	sub	a0,s0,a0
    829c:	04053503          	ld	a0,64(a0) # 1040 <.LBB46_3+0xe0c>
    82a0:	03850533          	mul	a0,a0,s8
    82a4:	000015b7          	lui	a1,0x1
    82a8:	40b405b3          	sub	a1,s0,a1
    82ac:	0385b583          	ld	a1,56(a1) # 1038 <.LBB46_3+0xe04>
    82b0:	017585b3          	add	a1,a1,s7
    82b4:	00b50533          	add	a0,a0,a1
    82b8:	42455513          	srai	a0,a0,0x24
    82bc:	00a025b3          	sgtz	a1,a0
    82c0:	40b005b3          	neg	a1,a1
    82c4:	00a5f533          	and	a0,a1,a0
    82c8:	01954463          	blt	a0,s9,82d0 <.LBB46_608>
    82cc:	0ff00513          	li	a0,255

00000000000082d0 <.LBB46_608>:
    82d0:	9ca43c23          	sd	a0,-1576(s0)
    82d4:	00001537          	lui	a0,0x1
    82d8:	40a40533          	sub	a0,s0,a0
    82dc:	05053503          	ld	a0,80(a0) # 1050 <.LBB46_3+0xe1c>
    82e0:	03850533          	mul	a0,a0,s8
    82e4:	000015b7          	lui	a1,0x1
    82e8:	40b405b3          	sub	a1,s0,a1
    82ec:	0485b583          	ld	a1,72(a1) # 1048 <.LBB46_3+0xe14>
    82f0:	017585b3          	add	a1,a1,s7
    82f4:	00b50533          	add	a0,a0,a1
    82f8:	42455513          	srai	a0,a0,0x24
    82fc:	00a025b3          	sgtz	a1,a0
    8300:	40b005b3          	neg	a1,a1
    8304:	00a5f533          	and	a0,a1,a0
    8308:	01954463          	blt	a0,s9,8310 <.LBB46_610>
    830c:	0ff00513          	li	a0,255

0000000000008310 <.LBB46_610>:
    8310:	98a43823          	sd	a0,-1648(s0)
    8314:	00001537          	lui	a0,0x1
    8318:	40a40533          	sub	a0,s0,a0
    831c:	06053503          	ld	a0,96(a0) # 1060 <.LBB46_3+0xe2c>
    8320:	03850533          	mul	a0,a0,s8
    8324:	000015b7          	lui	a1,0x1
    8328:	40b405b3          	sub	a1,s0,a1
    832c:	0585b583          	ld	a1,88(a1) # 1058 <.LBB46_3+0xe24>
    8330:	017585b3          	add	a1,a1,s7
    8334:	00b50533          	add	a0,a0,a1
    8338:	42455513          	srai	a0,a0,0x24
    833c:	00a025b3          	sgtz	a1,a0
    8340:	40b005b3          	neg	a1,a1
    8344:	00a5f533          	and	a0,a1,a0
    8348:	01954463          	blt	a0,s9,8350 <.LBB46_612>
    834c:	0ff00513          	li	a0,255

0000000000008350 <.LBB46_612>:
    8350:	94a43823          	sd	a0,-1712(s0)
    8354:	00001537          	lui	a0,0x1
    8358:	40a40533          	sub	a0,s0,a0
    835c:	07053503          	ld	a0,112(a0) # 1070 <.LBB46_3+0xe3c>
    8360:	03850533          	mul	a0,a0,s8
    8364:	000015b7          	lui	a1,0x1
    8368:	40b405b3          	sub	a1,s0,a1
    836c:	0685b583          	ld	a1,104(a1) # 1068 <.LBB46_3+0xe34>
    8370:	017585b3          	add	a1,a1,s7
    8374:	00b50533          	add	a0,a0,a1
    8378:	42455513          	srai	a0,a0,0x24
    837c:	00a025b3          	sgtz	a1,a0
    8380:	40b005b3          	neg	a1,a1
    8384:	00a5f533          	and	a0,a1,a0
    8388:	01954463          	blt	a0,s9,8390 <.LBB46_614>
    838c:	0ff00513          	li	a0,255

0000000000008390 <.LBB46_614>:
    8390:	90a43c23          	sd	a0,-1768(s0)
    8394:	00001537          	lui	a0,0x1
    8398:	40a40533          	sub	a0,s0,a0
    839c:	08053503          	ld	a0,128(a0) # 1080 <.LBB46_3+0xe4c>
    83a0:	03850533          	mul	a0,a0,s8
    83a4:	000015b7          	lui	a1,0x1
    83a8:	40b405b3          	sub	a1,s0,a1
    83ac:	0785b583          	ld	a1,120(a1) # 1078 <.LBB46_3+0xe44>
    83b0:	017585b3          	add	a1,a1,s7
    83b4:	00b50533          	add	a0,a0,a1
    83b8:	42455513          	srai	a0,a0,0x24
    83bc:	00a025b3          	sgtz	a1,a0
    83c0:	40b005b3          	neg	a1,a1
    83c4:	00a5f533          	and	a0,a1,a0
    83c8:	01954463          	blt	a0,s9,83d0 <.LBB46_616>
    83cc:	0ff00513          	li	a0,255

00000000000083d0 <.LBB46_616>:
    83d0:	8ca43823          	sd	a0,-1840(s0)
    83d4:	00001537          	lui	a0,0x1
    83d8:	40a40533          	sub	a0,s0,a0
    83dc:	09053503          	ld	a0,144(a0) # 1090 <.LBB46_3+0xe5c>
    83e0:	03850533          	mul	a0,a0,s8
    83e4:	000015b7          	lui	a1,0x1
    83e8:	40b405b3          	sub	a1,s0,a1
    83ec:	0885b583          	ld	a1,136(a1) # 1088 <.LBB46_3+0xe54>
    83f0:	017585b3          	add	a1,a1,s7
    83f4:	00b50533          	add	a0,a0,a1
    83f8:	42455513          	srai	a0,a0,0x24
    83fc:	00a025b3          	sgtz	a1,a0
    8400:	40b005b3          	neg	a1,a1
    8404:	00a5f533          	and	a0,a1,a0
    8408:	01954463          	blt	a0,s9,8410 <.LBB46_618>
    840c:	0ff00513          	li	a0,255

0000000000008410 <.LBB46_618>:
    8410:	88a43823          	sd	a0,-1904(s0)
    8414:	00001537          	lui	a0,0x1
    8418:	40a40533          	sub	a0,s0,a0
    841c:	0a053503          	ld	a0,160(a0) # 10a0 <.LBB46_3+0xe6c>
    8420:	03850533          	mul	a0,a0,s8
    8424:	000015b7          	lui	a1,0x1
    8428:	40b405b3          	sub	a1,s0,a1
    842c:	0985b583          	ld	a1,152(a1) # 1098 <.LBB46_3+0xe64>
    8430:	017585b3          	add	a1,a1,s7
    8434:	00b50533          	add	a0,a0,a1
    8438:	42455513          	srai	a0,a0,0x24
    843c:	00a025b3          	sgtz	a1,a0
    8440:	40b005b3          	neg	a1,a1
    8444:	00a5f533          	and	a0,a1,a0
    8448:	01954463          	blt	a0,s9,8450 <.LBB46_620>
    844c:	0ff00513          	li	a0,255

0000000000008450 <.LBB46_620>:
    8450:	84a43823          	sd	a0,-1968(s0)
    8454:	80843503          	ld	a0,-2040(s0)
    8458:	03850533          	mul	a0,a0,s8
    845c:	000015b7          	lui	a1,0x1
    8460:	40b405b3          	sub	a1,s0,a1
    8464:	0a85b583          	ld	a1,168(a1) # 10a8 <.LBB46_3+0xe74>
    8468:	017585b3          	add	a1,a1,s7
    846c:	00b50533          	add	a0,a0,a1
    8470:	42455513          	srai	a0,a0,0x24
    8474:	00a025b3          	sgtz	a1,a0
    8478:	40b005b3          	neg	a1,a1
    847c:	00a5f533          	and	a0,a1,a0
    8480:	01954463          	blt	a0,s9,8488 <.LBB46_622>
    8484:	0ff00513          	li	a0,255

0000000000008488 <.LBB46_622>:
    8488:	80a43423          	sd	a0,-2040(s0)
    848c:	00001537          	lui	a0,0x1
    8490:	40a40533          	sub	a0,s0,a0
    8494:	7d053503          	ld	a0,2000(a0) # 17d0 <.LBB46_5+0xb4>
    8498:	03850533          	mul	a0,a0,s8
    849c:	000015b7          	lui	a1,0x1
    84a0:	40b405b3          	sub	a1,s0,a1
    84a4:	0b05b583          	ld	a1,176(a1) # 10b0 <.LBB46_3+0xe7c>
    84a8:	017585b3          	add	a1,a1,s7
    84ac:	00b50533          	add	a0,a0,a1
    84b0:	42455513          	srai	a0,a0,0x24
    84b4:	00a025b3          	sgtz	a1,a0
    84b8:	40b005b3          	neg	a1,a1
    84bc:	00a5f533          	and	a0,a1,a0
    84c0:	01954463          	blt	a0,s9,84c8 <.LBB46_624>
    84c4:	0ff00513          	li	a0,255

00000000000084c8 <.LBB46_624>:
    84c8:	000015b7          	lui	a1,0x1
    84cc:	40b405b3          	sub	a1,s0,a1
    84d0:	7ca5b823          	sd	a0,2000(a1) # 17d0 <.LBB46_5+0xb4>
    84d4:	00001537          	lui	a0,0x1
    84d8:	40a40533          	sub	a0,s0,a0
    84dc:	0c053503          	ld	a0,192(a0) # 10c0 <.LBB46_3+0xe8c>
    84e0:	03850533          	mul	a0,a0,s8
    84e4:	000015b7          	lui	a1,0x1
    84e8:	40b405b3          	sub	a1,s0,a1
    84ec:	0b85b583          	ld	a1,184(a1) # 10b8 <.LBB46_3+0xe84>
    84f0:	017585b3          	add	a1,a1,s7
    84f4:	00b50533          	add	a0,a0,a1
    84f8:	42455513          	srai	a0,a0,0x24
    84fc:	00a025b3          	sgtz	a1,a0
    8500:	40b005b3          	neg	a1,a1
    8504:	00a5f533          	and	a0,a1,a0
    8508:	01954463          	blt	a0,s9,8510 <.LBB46_626>
    850c:	0ff00513          	li	a0,255

0000000000008510 <.LBB46_626>:
    8510:	000015b7          	lui	a1,0x1
    8514:	40b405b3          	sub	a1,s0,a1
    8518:	78a5b823          	sd	a0,1936(a1) # 1790 <.LBB46_5+0x74>
    851c:	00001537          	lui	a0,0x1
    8520:	40a40533          	sub	a0,s0,a0
    8524:	0d053503          	ld	a0,208(a0) # 10d0 <.LBB46_3+0xe9c>
    8528:	03850533          	mul	a0,a0,s8
    852c:	000015b7          	lui	a1,0x1
    8530:	40b405b3          	sub	a1,s0,a1
    8534:	0c85b583          	ld	a1,200(a1) # 10c8 <.LBB46_3+0xe94>
    8538:	017585b3          	add	a1,a1,s7
    853c:	00b50533          	add	a0,a0,a1
    8540:	42455513          	srai	a0,a0,0x24
    8544:	00a025b3          	sgtz	a1,a0
    8548:	40b005b3          	neg	a1,a1
    854c:	00a5f533          	and	a0,a1,a0
    8550:	01954463          	blt	a0,s9,8558 <.LBB46_628>
    8554:	0ff00513          	li	a0,255

0000000000008558 <.LBB46_628>:
    8558:	000015b7          	lui	a1,0x1
    855c:	40b405b3          	sub	a1,s0,a1
    8560:	78a5b423          	sd	a0,1928(a1) # 1788 <.LBB46_5+0x6c>
    8564:	00001537          	lui	a0,0x1
    8568:	40a40533          	sub	a0,s0,a0
    856c:	0e053503          	ld	a0,224(a0) # 10e0 <.LBB46_3+0xeac>
    8570:	03850533          	mul	a0,a0,s8
    8574:	000015b7          	lui	a1,0x1
    8578:	40b405b3          	sub	a1,s0,a1
    857c:	0d85b583          	ld	a1,216(a1) # 10d8 <.LBB46_3+0xea4>
    8580:	017585b3          	add	a1,a1,s7
    8584:	00b50533          	add	a0,a0,a1
    8588:	42455513          	srai	a0,a0,0x24
    858c:	00a025b3          	sgtz	a1,a0
    8590:	40b005b3          	neg	a1,a1
    8594:	00a5f533          	and	a0,a1,a0
    8598:	01954463          	blt	a0,s9,85a0 <.LBB46_630>
    859c:	0ff00513          	li	a0,255

00000000000085a0 <.LBB46_630>:
    85a0:	000015b7          	lui	a1,0x1
    85a4:	40b405b3          	sub	a1,s0,a1
    85a8:	78a5b023          	sd	a0,1920(a1) # 1780 <.LBB46_5+0x64>
    85ac:	00001537          	lui	a0,0x1
    85b0:	40a40533          	sub	a0,s0,a0
    85b4:	0f053503          	ld	a0,240(a0) # 10f0 <.LBB46_3+0xebc>
    85b8:	03850533          	mul	a0,a0,s8
    85bc:	000015b7          	lui	a1,0x1
    85c0:	40b405b3          	sub	a1,s0,a1
    85c4:	0e85b583          	ld	a1,232(a1) # 10e8 <.LBB46_3+0xeb4>
    85c8:	017585b3          	add	a1,a1,s7
    85cc:	00b50533          	add	a0,a0,a1
    85d0:	42455513          	srai	a0,a0,0x24
    85d4:	00a025b3          	sgtz	a1,a0
    85d8:	40b005b3          	neg	a1,a1
    85dc:	00a5f533          	and	a0,a1,a0
    85e0:	01954463          	blt	a0,s9,85e8 <.LBB46_632>
    85e4:	0ff00513          	li	a0,255

00000000000085e8 <.LBB46_632>:
    85e8:	000015b7          	lui	a1,0x1
    85ec:	40b405b3          	sub	a1,s0,a1
    85f0:	76a5bc23          	sd	a0,1912(a1) # 1778 <.LBB46_5+0x5c>
    85f4:	00001537          	lui	a0,0x1
    85f8:	40a40533          	sub	a0,s0,a0
    85fc:	10053503          	ld	a0,256(a0) # 1100 <.LBB46_3+0xecc>
    8600:	03850533          	mul	a0,a0,s8
    8604:	000015b7          	lui	a1,0x1
    8608:	40b405b3          	sub	a1,s0,a1
    860c:	0f85b583          	ld	a1,248(a1) # 10f8 <.LBB46_3+0xec4>
    8610:	017585b3          	add	a1,a1,s7
    8614:	00b50533          	add	a0,a0,a1
    8618:	42455513          	srai	a0,a0,0x24
    861c:	00a025b3          	sgtz	a1,a0
    8620:	40b005b3          	neg	a1,a1
    8624:	00a5f533          	and	a0,a1,a0
    8628:	01954463          	blt	a0,s9,8630 <.LBB46_634>
    862c:	0ff00513          	li	a0,255

0000000000008630 <.LBB46_634>:
    8630:	000015b7          	lui	a1,0x1
    8634:	40b405b3          	sub	a1,s0,a1
    8638:	76a5b823          	sd	a0,1904(a1) # 1770 <.LBB46_5+0x54>
    863c:	00001537          	lui	a0,0x1
    8640:	40a40533          	sub	a0,s0,a0
    8644:	11053503          	ld	a0,272(a0) # 1110 <.LBB46_3+0xedc>
    8648:	03850533          	mul	a0,a0,s8
    864c:	000015b7          	lui	a1,0x1
    8650:	40b405b3          	sub	a1,s0,a1
    8654:	1085b583          	ld	a1,264(a1) # 1108 <.LBB46_3+0xed4>
    8658:	017585b3          	add	a1,a1,s7
    865c:	00b50533          	add	a0,a0,a1
    8660:	42455513          	srai	a0,a0,0x24
    8664:	00a025b3          	sgtz	a1,a0
    8668:	40b005b3          	neg	a1,a1
    866c:	00a5f533          	and	a0,a1,a0
    8670:	01954463          	blt	a0,s9,8678 <.LBB46_636>
    8674:	0ff00513          	li	a0,255

0000000000008678 <.LBB46_636>:
    8678:	000015b7          	lui	a1,0x1
    867c:	40b405b3          	sub	a1,s0,a1
    8680:	76a5b423          	sd	a0,1896(a1) # 1768 <.LBB46_5+0x4c>
    8684:	00001537          	lui	a0,0x1
    8688:	40a40533          	sub	a0,s0,a0
    868c:	12053503          	ld	a0,288(a0) # 1120 <.LBB46_3+0xeec>
    8690:	03850533          	mul	a0,a0,s8
    8694:	000015b7          	lui	a1,0x1
    8698:	40b405b3          	sub	a1,s0,a1
    869c:	1185b583          	ld	a1,280(a1) # 1118 <.LBB46_3+0xee4>
    86a0:	017585b3          	add	a1,a1,s7
    86a4:	00b50533          	add	a0,a0,a1
    86a8:	42455513          	srai	a0,a0,0x24
    86ac:	00a025b3          	sgtz	a1,a0
    86b0:	40b005b3          	neg	a1,a1
    86b4:	00a5f533          	and	a0,a1,a0
    86b8:	01954463          	blt	a0,s9,86c0 <.LBB46_638>
    86bc:	0ff00513          	li	a0,255

00000000000086c0 <.LBB46_638>:
    86c0:	000015b7          	lui	a1,0x1
    86c4:	40b405b3          	sub	a1,s0,a1
    86c8:	76a5b023          	sd	a0,1888(a1) # 1760 <.LBB46_5+0x44>
    86cc:	00001537          	lui	a0,0x1
    86d0:	40a40533          	sub	a0,s0,a0
    86d4:	13053503          	ld	a0,304(a0) # 1130 <.LBB46_3+0xefc>
    86d8:	03850533          	mul	a0,a0,s8
    86dc:	000015b7          	lui	a1,0x1
    86e0:	40b405b3          	sub	a1,s0,a1
    86e4:	1285b583          	ld	a1,296(a1) # 1128 <.LBB46_3+0xef4>
    86e8:	017585b3          	add	a1,a1,s7
    86ec:	00b50533          	add	a0,a0,a1
    86f0:	42455513          	srai	a0,a0,0x24
    86f4:	00a025b3          	sgtz	a1,a0
    86f8:	40b005b3          	neg	a1,a1
    86fc:	00a5f533          	and	a0,a1,a0
    8700:	01954463          	blt	a0,s9,8708 <.LBB46_640>
    8704:	0ff00513          	li	a0,255

0000000000008708 <.LBB46_640>:
    8708:	000015b7          	lui	a1,0x1
    870c:	40b405b3          	sub	a1,s0,a1
    8710:	74a5bc23          	sd	a0,1880(a1) # 1758 <.LBB46_5+0x3c>
    8714:	00001537          	lui	a0,0x1
    8718:	40a40533          	sub	a0,s0,a0
    871c:	14053503          	ld	a0,320(a0) # 1140 <.LBB46_3+0xf0c>
    8720:	03850533          	mul	a0,a0,s8
    8724:	000015b7          	lui	a1,0x1
    8728:	40b405b3          	sub	a1,s0,a1
    872c:	1385b583          	ld	a1,312(a1) # 1138 <.LBB46_3+0xf04>
    8730:	017585b3          	add	a1,a1,s7
    8734:	00b50533          	add	a0,a0,a1
    8738:	42455513          	srai	a0,a0,0x24
    873c:	00a025b3          	sgtz	a1,a0
    8740:	40b005b3          	neg	a1,a1
    8744:	00a5f533          	and	a0,a1,a0
    8748:	01954463          	blt	a0,s9,8750 <.LBB46_642>
    874c:	0ff00513          	li	a0,255

0000000000008750 <.LBB46_642>:
    8750:	000015b7          	lui	a1,0x1
    8754:	40b405b3          	sub	a1,s0,a1
    8758:	74a5b823          	sd	a0,1872(a1) # 1750 <.LBB46_5+0x34>
    875c:	00001537          	lui	a0,0x1
    8760:	40a40533          	sub	a0,s0,a0
    8764:	15053503          	ld	a0,336(a0) # 1150 <.LBB46_3+0xf1c>
    8768:	03850533          	mul	a0,a0,s8
    876c:	000015b7          	lui	a1,0x1
    8770:	40b405b3          	sub	a1,s0,a1
    8774:	1485b583          	ld	a1,328(a1) # 1148 <.LBB46_3+0xf14>
    8778:	017585b3          	add	a1,a1,s7
    877c:	00b50533          	add	a0,a0,a1
    8780:	42455513          	srai	a0,a0,0x24
    8784:	00a025b3          	sgtz	a1,a0
    8788:	40b005b3          	neg	a1,a1
    878c:	00a5f533          	and	a0,a1,a0
    8790:	01954463          	blt	a0,s9,8798 <.LBB46_644>
    8794:	0ff00513          	li	a0,255

0000000000008798 <.LBB46_644>:
    8798:	000015b7          	lui	a1,0x1
    879c:	40b405b3          	sub	a1,s0,a1
    87a0:	74a5b423          	sd	a0,1864(a1) # 1748 <.LBB46_5+0x2c>
    87a4:	00001537          	lui	a0,0x1
    87a8:	40a40533          	sub	a0,s0,a0
    87ac:	15853503          	ld	a0,344(a0) # 1158 <.LBB46_3+0xf24>
    87b0:	03850533          	mul	a0,a0,s8
    87b4:	017705b3          	add	a1,a4,s7
    87b8:	00b50533          	add	a0,a0,a1
    87bc:	42455513          	srai	a0,a0,0x24
    87c0:	00a025b3          	sgtz	a1,a0
    87c4:	40b005b3          	neg	a1,a1
    87c8:	00a5f533          	and	a0,a1,a0
    87cc:	01954463          	blt	a0,s9,87d4 <.LBB46_646>
    87d0:	0ff00513          	li	a0,255

00000000000087d4 <.LBB46_646>:
    87d4:	000015b7          	lui	a1,0x1
    87d8:	40b405b3          	sub	a1,s0,a1
    87dc:	74a5b023          	sd	a0,1856(a1) # 1740 <.LBB46_5+0x24>
    87e0:	00001537          	lui	a0,0x1
    87e4:	40a40533          	sub	a0,s0,a0
    87e8:	16853503          	ld	a0,360(a0) # 1168 <.LBB46_3+0xf34>
    87ec:	03850533          	mul	a0,a0,s8
    87f0:	000015b7          	lui	a1,0x1
    87f4:	40b405b3          	sub	a1,s0,a1
    87f8:	1605b583          	ld	a1,352(a1) # 1160 <.LBB46_3+0xf2c>
    87fc:	017585b3          	add	a1,a1,s7
    8800:	00b50533          	add	a0,a0,a1
    8804:	42455513          	srai	a0,a0,0x24
    8808:	00a025b3          	sgtz	a1,a0
    880c:	40b005b3          	neg	a1,a1
    8810:	00a5f533          	and	a0,a1,a0
    8814:	01954463          	blt	a0,s9,881c <.LBB46_648>
    8818:	0ff00513          	li	a0,255

000000000000881c <.LBB46_648>:
    881c:	000015b7          	lui	a1,0x1
    8820:	40b405b3          	sub	a1,s0,a1
    8824:	72a5bc23          	sd	a0,1848(a1) # 1738 <.LBB46_5+0x1c>
    8828:	00001537          	lui	a0,0x1
    882c:	40a40533          	sub	a0,s0,a0
    8830:	17853503          	ld	a0,376(a0) # 1178 <.LBB46_3+0xf44>
    8834:	03850533          	mul	a0,a0,s8
    8838:	000015b7          	lui	a1,0x1
    883c:	40b405b3          	sub	a1,s0,a1
    8840:	1705b583          	ld	a1,368(a1) # 1170 <.LBB46_3+0xf3c>
    8844:	017585b3          	add	a1,a1,s7
    8848:	00b50533          	add	a0,a0,a1
    884c:	42455513          	srai	a0,a0,0x24
    8850:	00a025b3          	sgtz	a1,a0
    8854:	40b005b3          	neg	a1,a1
    8858:	00a5f533          	and	a0,a1,a0
    885c:	01954463          	blt	a0,s9,8864 <.LBB46_650>
    8860:	0ff00513          	li	a0,255

0000000000008864 <.LBB46_650>:
    8864:	000015b7          	lui	a1,0x1
    8868:	40b405b3          	sub	a1,s0,a1
    886c:	72a5b823          	sd	a0,1840(a1) # 1730 <.LBB46_5+0x14>
    8870:	00001537          	lui	a0,0x1
    8874:	40a40533          	sub	a0,s0,a0
    8878:	18853503          	ld	a0,392(a0) # 1188 <.LBB46_4>
    887c:	03850533          	mul	a0,a0,s8
    8880:	000015b7          	lui	a1,0x1
    8884:	40b405b3          	sub	a1,s0,a1
    8888:	1805b583          	ld	a1,384(a1) # 1180 <.LBB46_3+0xf4c>
    888c:	017585b3          	add	a1,a1,s7
    8890:	00b50533          	add	a0,a0,a1
    8894:	42455513          	srai	a0,a0,0x24
    8898:	00a025b3          	sgtz	a1,a0
    889c:	40b005b3          	neg	a1,a1
    88a0:	00a5f533          	and	a0,a1,a0
    88a4:	01954463          	blt	a0,s9,88ac <.LBB46_652>
    88a8:	0ff00513          	li	a0,255

00000000000088ac <.LBB46_652>:
    88ac:	000015b7          	lui	a1,0x1
    88b0:	40b405b3          	sub	a1,s0,a1
    88b4:	72a5b423          	sd	a0,1832(a1) # 1728 <.LBB46_5+0xc>
    88b8:	00001537          	lui	a0,0x1
    88bc:	40a40533          	sub	a0,s0,a0
    88c0:	19853503          	ld	a0,408(a0) # 1198 <.LBB46_4+0x10>
    88c4:	03850533          	mul	a0,a0,s8
    88c8:	000015b7          	lui	a1,0x1
    88cc:	40b405b3          	sub	a1,s0,a1
    88d0:	1905b583          	ld	a1,400(a1) # 1190 <.LBB46_4+0x8>
    88d4:	017585b3          	add	a1,a1,s7
    88d8:	00b50533          	add	a0,a0,a1
    88dc:	42455513          	srai	a0,a0,0x24
    88e0:	00a025b3          	sgtz	a1,a0
    88e4:	40b005b3          	neg	a1,a1
    88e8:	00a5f533          	and	a0,a1,a0
    88ec:	01954463          	blt	a0,s9,88f4 <.LBB46_654>
    88f0:	0ff00513          	li	a0,255

00000000000088f4 <.LBB46_654>:
    88f4:	000015b7          	lui	a1,0x1
    88f8:	40b405b3          	sub	a1,s0,a1
    88fc:	72a5b023          	sd	a0,1824(a1) # 1720 <.LBB46_5+0x4>
    8900:	00001537          	lui	a0,0x1
    8904:	40a40533          	sub	a0,s0,a0
    8908:	1a853503          	ld	a0,424(a0) # 11a8 <.LBB46_4+0x20>
    890c:	03850533          	mul	a0,a0,s8
    8910:	000015b7          	lui	a1,0x1
    8914:	40b405b3          	sub	a1,s0,a1
    8918:	1a05b583          	ld	a1,416(a1) # 11a0 <.LBB46_4+0x18>
    891c:	017585b3          	add	a1,a1,s7
    8920:	00b50533          	add	a0,a0,a1
    8924:	42455513          	srai	a0,a0,0x24
    8928:	00a025b3          	sgtz	a1,a0
    892c:	40b005b3          	neg	a1,a1
    8930:	00a5f533          	and	a0,a1,a0
    8934:	01954463          	blt	a0,s9,893c <.LBB46_656>
    8938:	0ff00513          	li	a0,255

000000000000893c <.LBB46_656>:
    893c:	000015b7          	lui	a1,0x1
    8940:	40b405b3          	sub	a1,s0,a1
    8944:	70a5bc23          	sd	a0,1816(a1) # 1718 <.LBB46_4+0x590>
    8948:	00001537          	lui	a0,0x1
    894c:	40a40533          	sub	a0,s0,a0
    8950:	1b853503          	ld	a0,440(a0) # 11b8 <.LBB46_4+0x30>
    8954:	03850533          	mul	a0,a0,s8
    8958:	000015b7          	lui	a1,0x1
    895c:	40b405b3          	sub	a1,s0,a1
    8960:	1b05b583          	ld	a1,432(a1) # 11b0 <.LBB46_4+0x28>
    8964:	017585b3          	add	a1,a1,s7
    8968:	00b50533          	add	a0,a0,a1
    896c:	42455513          	srai	a0,a0,0x24
    8970:	00a025b3          	sgtz	a1,a0
    8974:	40b005b3          	neg	a1,a1
    8978:	00a5f533          	and	a0,a1,a0
    897c:	01954463          	blt	a0,s9,8984 <.LBB46_658>
    8980:	0ff00513          	li	a0,255

0000000000008984 <.LBB46_658>:
    8984:	000015b7          	lui	a1,0x1
    8988:	40b405b3          	sub	a1,s0,a1
    898c:	70a5b823          	sd	a0,1808(a1) # 1710 <.LBB46_4+0x588>
    8990:	00001537          	lui	a0,0x1
    8994:	40a40533          	sub	a0,s0,a0
    8998:	1c853503          	ld	a0,456(a0) # 11c8 <.LBB46_4+0x40>
    899c:	03850533          	mul	a0,a0,s8
    89a0:	000015b7          	lui	a1,0x1
    89a4:	40b405b3          	sub	a1,s0,a1
    89a8:	1c05b583          	ld	a1,448(a1) # 11c0 <.LBB46_4+0x38>
    89ac:	017585b3          	add	a1,a1,s7
    89b0:	00b50533          	add	a0,a0,a1
    89b4:	42455513          	srai	a0,a0,0x24
    89b8:	00a025b3          	sgtz	a1,a0
    89bc:	40b005b3          	neg	a1,a1
    89c0:	00a5f533          	and	a0,a1,a0
    89c4:	01954463          	blt	a0,s9,89cc <.LBB46_660>
    89c8:	0ff00513          	li	a0,255

00000000000089cc <.LBB46_660>:
    89cc:	000015b7          	lui	a1,0x1
    89d0:	40b405b3          	sub	a1,s0,a1
    89d4:	70a5b423          	sd	a0,1800(a1) # 1708 <.LBB46_4+0x580>
    89d8:	00001537          	lui	a0,0x1
    89dc:	40a40533          	sub	a0,s0,a0
    89e0:	1d853503          	ld	a0,472(a0) # 11d8 <.LBB46_4+0x50>
    89e4:	03850533          	mul	a0,a0,s8
    89e8:	000015b7          	lui	a1,0x1
    89ec:	40b405b3          	sub	a1,s0,a1
    89f0:	1d05b583          	ld	a1,464(a1) # 11d0 <.LBB46_4+0x48>
    89f4:	017585b3          	add	a1,a1,s7
    89f8:	00b50533          	add	a0,a0,a1
    89fc:	42455513          	srai	a0,a0,0x24
    8a00:	00a025b3          	sgtz	a1,a0
    8a04:	40b005b3          	neg	a1,a1
    8a08:	00a5f533          	and	a0,a1,a0
    8a0c:	01954463          	blt	a0,s9,8a14 <.LBB46_662>
    8a10:	0ff00513          	li	a0,255

0000000000008a14 <.LBB46_662>:
    8a14:	000015b7          	lui	a1,0x1
    8a18:	40b405b3          	sub	a1,s0,a1
    8a1c:	70a5b023          	sd	a0,1792(a1) # 1700 <.LBB46_4+0x578>
    8a20:	00001537          	lui	a0,0x1
    8a24:	40a40533          	sub	a0,s0,a0
    8a28:	1e853503          	ld	a0,488(a0) # 11e8 <.LBB46_4+0x60>
    8a2c:	03850533          	mul	a0,a0,s8
    8a30:	000015b7          	lui	a1,0x1
    8a34:	40b405b3          	sub	a1,s0,a1
    8a38:	1e05b583          	ld	a1,480(a1) # 11e0 <.LBB46_4+0x58>
    8a3c:	017585b3          	add	a1,a1,s7
    8a40:	00b50533          	add	a0,a0,a1
    8a44:	42455513          	srai	a0,a0,0x24
    8a48:	00a025b3          	sgtz	a1,a0
    8a4c:	40b005b3          	neg	a1,a1
    8a50:	00a5f533          	and	a0,a1,a0
    8a54:	01954463          	blt	a0,s9,8a5c <.LBB46_664>
    8a58:	0ff00513          	li	a0,255

0000000000008a5c <.LBB46_664>:
    8a5c:	000015b7          	lui	a1,0x1
    8a60:	40b405b3          	sub	a1,s0,a1
    8a64:	6ea5bc23          	sd	a0,1784(a1) # 16f8 <.LBB46_4+0x570>
    8a68:	00001537          	lui	a0,0x1
    8a6c:	40a40533          	sub	a0,s0,a0
    8a70:	1f853503          	ld	a0,504(a0) # 11f8 <.LBB46_4+0x70>
    8a74:	03850533          	mul	a0,a0,s8
    8a78:	000015b7          	lui	a1,0x1
    8a7c:	40b405b3          	sub	a1,s0,a1
    8a80:	1f05b583          	ld	a1,496(a1) # 11f0 <.LBB46_4+0x68>
    8a84:	017585b3          	add	a1,a1,s7
    8a88:	00b50533          	add	a0,a0,a1
    8a8c:	42455513          	srai	a0,a0,0x24
    8a90:	00a025b3          	sgtz	a1,a0
    8a94:	40b005b3          	neg	a1,a1
    8a98:	00a5f533          	and	a0,a1,a0
    8a9c:	01954463          	blt	a0,s9,8aa4 <.LBB46_666>
    8aa0:	0ff00513          	li	a0,255

0000000000008aa4 <.LBB46_666>:
    8aa4:	000015b7          	lui	a1,0x1
    8aa8:	40b405b3          	sub	a1,s0,a1
    8aac:	6ea5b823          	sd	a0,1776(a1) # 16f0 <.LBB46_4+0x568>
    8ab0:	00001537          	lui	a0,0x1
    8ab4:	40a40533          	sub	a0,s0,a0
    8ab8:	20853503          	ld	a0,520(a0) # 1208 <.LBB46_4+0x80>
    8abc:	03850533          	mul	a0,a0,s8
    8ac0:	000015b7          	lui	a1,0x1
    8ac4:	40b405b3          	sub	a1,s0,a1
    8ac8:	2005b583          	ld	a1,512(a1) # 1200 <.LBB46_4+0x78>
    8acc:	017585b3          	add	a1,a1,s7
    8ad0:	00b50533          	add	a0,a0,a1
    8ad4:	42455513          	srai	a0,a0,0x24
    8ad8:	00a025b3          	sgtz	a1,a0
    8adc:	40b005b3          	neg	a1,a1
    8ae0:	00a5f533          	and	a0,a1,a0
    8ae4:	01954463          	blt	a0,s9,8aec <.LBB46_668>
    8ae8:	0ff00513          	li	a0,255

0000000000008aec <.LBB46_668>:
    8aec:	000015b7          	lui	a1,0x1
    8af0:	40b405b3          	sub	a1,s0,a1
    8af4:	6ea5b423          	sd	a0,1768(a1) # 16e8 <.LBB46_4+0x560>
    8af8:	00001537          	lui	a0,0x1
    8afc:	40a40533          	sub	a0,s0,a0
    8b00:	21853503          	ld	a0,536(a0) # 1218 <.LBB46_4+0x90>
    8b04:	03850533          	mul	a0,a0,s8
    8b08:	000015b7          	lui	a1,0x1
    8b0c:	40b405b3          	sub	a1,s0,a1
    8b10:	2105b583          	ld	a1,528(a1) # 1210 <.LBB46_4+0x88>
    8b14:	017585b3          	add	a1,a1,s7
    8b18:	00b50533          	add	a0,a0,a1
    8b1c:	42455513          	srai	a0,a0,0x24
    8b20:	00a025b3          	sgtz	a1,a0
    8b24:	40b005b3          	neg	a1,a1
    8b28:	00a5f533          	and	a0,a1,a0
    8b2c:	01954463          	blt	a0,s9,8b34 <.LBB46_670>
    8b30:	0ff00513          	li	a0,255

0000000000008b34 <.LBB46_670>:
    8b34:	000015b7          	lui	a1,0x1
    8b38:	40b405b3          	sub	a1,s0,a1
    8b3c:	6ea5b023          	sd	a0,1760(a1) # 16e0 <.LBB46_4+0x558>
    8b40:	00001537          	lui	a0,0x1
    8b44:	40a40533          	sub	a0,s0,a0
    8b48:	22853503          	ld	a0,552(a0) # 1228 <.LBB46_4+0xa0>
    8b4c:	03850533          	mul	a0,a0,s8
    8b50:	000015b7          	lui	a1,0x1
    8b54:	40b405b3          	sub	a1,s0,a1
    8b58:	2205b583          	ld	a1,544(a1) # 1220 <.LBB46_4+0x98>
    8b5c:	017585b3          	add	a1,a1,s7
    8b60:	00b50533          	add	a0,a0,a1
    8b64:	42455513          	srai	a0,a0,0x24
    8b68:	00a025b3          	sgtz	a1,a0
    8b6c:	40b005b3          	neg	a1,a1
    8b70:	00a5f533          	and	a0,a1,a0
    8b74:	01954463          	blt	a0,s9,8b7c <.LBB46_672>
    8b78:	0ff00513          	li	a0,255

0000000000008b7c <.LBB46_672>:
    8b7c:	000015b7          	lui	a1,0x1
    8b80:	40b405b3          	sub	a1,s0,a1
    8b84:	6ca5bc23          	sd	a0,1752(a1) # 16d8 <.LBB46_4+0x550>
    8b88:	00001537          	lui	a0,0x1
    8b8c:	40a40533          	sub	a0,s0,a0
    8b90:	23853503          	ld	a0,568(a0) # 1238 <.LBB46_4+0xb0>
    8b94:	03850533          	mul	a0,a0,s8
    8b98:	000015b7          	lui	a1,0x1
    8b9c:	40b405b3          	sub	a1,s0,a1
    8ba0:	2305b583          	ld	a1,560(a1) # 1230 <.LBB46_4+0xa8>
    8ba4:	017585b3          	add	a1,a1,s7
    8ba8:	00b50533          	add	a0,a0,a1
    8bac:	42455513          	srai	a0,a0,0x24
    8bb0:	00a025b3          	sgtz	a1,a0
    8bb4:	40b005b3          	neg	a1,a1
    8bb8:	00a5f533          	and	a0,a1,a0
    8bbc:	01954463          	blt	a0,s9,8bc4 <.LBB46_674>
    8bc0:	0ff00513          	li	a0,255

0000000000008bc4 <.LBB46_674>:
    8bc4:	000015b7          	lui	a1,0x1
    8bc8:	40b405b3          	sub	a1,s0,a1
    8bcc:	6ca5b823          	sd	a0,1744(a1) # 16d0 <.LBB46_4+0x548>
    8bd0:	00001537          	lui	a0,0x1
    8bd4:	40a40533          	sub	a0,s0,a0
    8bd8:	24853503          	ld	a0,584(a0) # 1248 <.LBB46_4+0xc0>
    8bdc:	03850533          	mul	a0,a0,s8
    8be0:	000015b7          	lui	a1,0x1
    8be4:	40b405b3          	sub	a1,s0,a1
    8be8:	2405b583          	ld	a1,576(a1) # 1240 <.LBB46_4+0xb8>
    8bec:	017585b3          	add	a1,a1,s7
    8bf0:	00b50533          	add	a0,a0,a1
    8bf4:	42455513          	srai	a0,a0,0x24
    8bf8:	00a025b3          	sgtz	a1,a0
    8bfc:	40b005b3          	neg	a1,a1
    8c00:	00a5f533          	and	a0,a1,a0
    8c04:	01954463          	blt	a0,s9,8c0c <.LBB46_676>
    8c08:	0ff00513          	li	a0,255

0000000000008c0c <.LBB46_676>:
    8c0c:	000015b7          	lui	a1,0x1
    8c10:	40b405b3          	sub	a1,s0,a1
    8c14:	6ca5b423          	sd	a0,1736(a1) # 16c8 <.LBB46_4+0x540>
    8c18:	00001537          	lui	a0,0x1
    8c1c:	40a40533          	sub	a0,s0,a0
    8c20:	25853503          	ld	a0,600(a0) # 1258 <.LBB46_4+0xd0>
    8c24:	03850533          	mul	a0,a0,s8
    8c28:	000015b7          	lui	a1,0x1
    8c2c:	40b405b3          	sub	a1,s0,a1
    8c30:	2505b583          	ld	a1,592(a1) # 1250 <.LBB46_4+0xc8>
    8c34:	017585b3          	add	a1,a1,s7
    8c38:	00b50533          	add	a0,a0,a1
    8c3c:	42455513          	srai	a0,a0,0x24
    8c40:	00a025b3          	sgtz	a1,a0
    8c44:	40b005b3          	neg	a1,a1
    8c48:	00a5f533          	and	a0,a1,a0
    8c4c:	01954463          	blt	a0,s9,8c54 <.LBB46_678>
    8c50:	0ff00513          	li	a0,255

0000000000008c54 <.LBB46_678>:
    8c54:	000015b7          	lui	a1,0x1
    8c58:	40b405b3          	sub	a1,s0,a1
    8c5c:	6ca5b023          	sd	a0,1728(a1) # 16c0 <.LBB46_4+0x538>
    8c60:	00001537          	lui	a0,0x1
    8c64:	40a40533          	sub	a0,s0,a0
    8c68:	26853503          	ld	a0,616(a0) # 1268 <.LBB46_4+0xe0>
    8c6c:	03850533          	mul	a0,a0,s8
    8c70:	000015b7          	lui	a1,0x1
    8c74:	40b405b3          	sub	a1,s0,a1
    8c78:	2605b583          	ld	a1,608(a1) # 1260 <.LBB46_4+0xd8>
    8c7c:	017585b3          	add	a1,a1,s7
    8c80:	00b50533          	add	a0,a0,a1
    8c84:	42455513          	srai	a0,a0,0x24
    8c88:	00a025b3          	sgtz	a1,a0
    8c8c:	40b005b3          	neg	a1,a1
    8c90:	00a5f533          	and	a0,a1,a0
    8c94:	01954463          	blt	a0,s9,8c9c <.LBB46_680>
    8c98:	0ff00513          	li	a0,255

0000000000008c9c <.LBB46_680>:
    8c9c:	000015b7          	lui	a1,0x1
    8ca0:	40b405b3          	sub	a1,s0,a1
    8ca4:	6aa5bc23          	sd	a0,1720(a1) # 16b8 <.LBB46_4+0x530>
    8ca8:	00001537          	lui	a0,0x1
    8cac:	40a40533          	sub	a0,s0,a0
    8cb0:	27853503          	ld	a0,632(a0) # 1278 <.LBB46_4+0xf0>
    8cb4:	03850533          	mul	a0,a0,s8
    8cb8:	000015b7          	lui	a1,0x1
    8cbc:	40b405b3          	sub	a1,s0,a1
    8cc0:	2705b583          	ld	a1,624(a1) # 1270 <.LBB46_4+0xe8>
    8cc4:	017585b3          	add	a1,a1,s7
    8cc8:	00b50533          	add	a0,a0,a1
    8ccc:	42455513          	srai	a0,a0,0x24
    8cd0:	00a025b3          	sgtz	a1,a0
    8cd4:	40b005b3          	neg	a1,a1
    8cd8:	00a5f533          	and	a0,a1,a0
    8cdc:	01954463          	blt	a0,s9,8ce4 <.LBB46_682>
    8ce0:	0ff00513          	li	a0,255

0000000000008ce4 <.LBB46_682>:
    8ce4:	000015b7          	lui	a1,0x1
    8ce8:	40b405b3          	sub	a1,s0,a1
    8cec:	6aa5b823          	sd	a0,1712(a1) # 16b0 <.LBB46_4+0x528>
    8cf0:	00001537          	lui	a0,0x1
    8cf4:	40a40533          	sub	a0,s0,a0
    8cf8:	28853503          	ld	a0,648(a0) # 1288 <.LBB46_4+0x100>
    8cfc:	03850533          	mul	a0,a0,s8
    8d00:	000015b7          	lui	a1,0x1
    8d04:	40b405b3          	sub	a1,s0,a1
    8d08:	2805b583          	ld	a1,640(a1) # 1280 <.LBB46_4+0xf8>
    8d0c:	017585b3          	add	a1,a1,s7
    8d10:	00b50533          	add	a0,a0,a1
    8d14:	42455513          	srai	a0,a0,0x24
    8d18:	00a025b3          	sgtz	a1,a0
    8d1c:	40b005b3          	neg	a1,a1
    8d20:	00a5f533          	and	a0,a1,a0
    8d24:	01954463          	blt	a0,s9,8d2c <.LBB46_684>
    8d28:	0ff00513          	li	a0,255

0000000000008d2c <.LBB46_684>:
    8d2c:	000015b7          	lui	a1,0x1
    8d30:	40b405b3          	sub	a1,s0,a1
    8d34:	6aa5b423          	sd	a0,1704(a1) # 16a8 <.LBB46_4+0x520>
    8d38:	00001537          	lui	a0,0x1
    8d3c:	40a40533          	sub	a0,s0,a0
    8d40:	29853503          	ld	a0,664(a0) # 1298 <.LBB46_4+0x110>
    8d44:	03850533          	mul	a0,a0,s8
    8d48:	000015b7          	lui	a1,0x1
    8d4c:	40b405b3          	sub	a1,s0,a1
    8d50:	2905b583          	ld	a1,656(a1) # 1290 <.LBB46_4+0x108>
    8d54:	017585b3          	add	a1,a1,s7
    8d58:	00b50533          	add	a0,a0,a1
    8d5c:	42455513          	srai	a0,a0,0x24
    8d60:	00a025b3          	sgtz	a1,a0
    8d64:	40b005b3          	neg	a1,a1
    8d68:	00a5f533          	and	a0,a1,a0
    8d6c:	01954463          	blt	a0,s9,8d74 <.LBB46_686>
    8d70:	0ff00513          	li	a0,255

0000000000008d74 <.LBB46_686>:
    8d74:	000015b7          	lui	a1,0x1
    8d78:	40b405b3          	sub	a1,s0,a1
    8d7c:	6aa5b023          	sd	a0,1696(a1) # 16a0 <.LBB46_4+0x518>
    8d80:	00001537          	lui	a0,0x1
    8d84:	40a40533          	sub	a0,s0,a0
    8d88:	2a853503          	ld	a0,680(a0) # 12a8 <.LBB46_4+0x120>
    8d8c:	03850533          	mul	a0,a0,s8
    8d90:	000015b7          	lui	a1,0x1
    8d94:	40b405b3          	sub	a1,s0,a1
    8d98:	2a05b583          	ld	a1,672(a1) # 12a0 <.LBB46_4+0x118>
    8d9c:	017585b3          	add	a1,a1,s7
    8da0:	00b50533          	add	a0,a0,a1
    8da4:	42455513          	srai	a0,a0,0x24
    8da8:	00a025b3          	sgtz	a1,a0
    8dac:	40b005b3          	neg	a1,a1
    8db0:	00a5f533          	and	a0,a1,a0
    8db4:	01954463          	blt	a0,s9,8dbc <.LBB46_688>
    8db8:	0ff00513          	li	a0,255

0000000000008dbc <.LBB46_688>:
    8dbc:	000015b7          	lui	a1,0x1
    8dc0:	40b405b3          	sub	a1,s0,a1
    8dc4:	68a5b823          	sd	a0,1680(a1) # 1690 <.LBB46_4+0x508>
    8dc8:	00001537          	lui	a0,0x1
    8dcc:	40a40533          	sub	a0,s0,a0
    8dd0:	2b853503          	ld	a0,696(a0) # 12b8 <.LBB46_4+0x130>
    8dd4:	03850533          	mul	a0,a0,s8
    8dd8:	000015b7          	lui	a1,0x1
    8ddc:	40b405b3          	sub	a1,s0,a1
    8de0:	2b05b583          	ld	a1,688(a1) # 12b0 <.LBB46_4+0x128>
    8de4:	017585b3          	add	a1,a1,s7
    8de8:	00b50533          	add	a0,a0,a1
    8dec:	42455513          	srai	a0,a0,0x24
    8df0:	00a025b3          	sgtz	a1,a0
    8df4:	40b005b3          	neg	a1,a1
    8df8:	00a5f533          	and	a0,a1,a0
    8dfc:	01954463          	blt	a0,s9,8e04 <.LBB46_690>
    8e00:	0ff00513          	li	a0,255

0000000000008e04 <.LBB46_690>:
    8e04:	000015b7          	lui	a1,0x1
    8e08:	40b405b3          	sub	a1,s0,a1
    8e0c:	68a5b423          	sd	a0,1672(a1) # 1688 <.LBB46_4+0x500>
    8e10:	00001537          	lui	a0,0x1
    8e14:	40a40533          	sub	a0,s0,a0
    8e18:	2c853503          	ld	a0,712(a0) # 12c8 <.LBB46_4+0x140>
    8e1c:	03850533          	mul	a0,a0,s8
    8e20:	000015b7          	lui	a1,0x1
    8e24:	40b405b3          	sub	a1,s0,a1
    8e28:	2c05b583          	ld	a1,704(a1) # 12c0 <.LBB46_4+0x138>
    8e2c:	017585b3          	add	a1,a1,s7
    8e30:	00b50533          	add	a0,a0,a1
    8e34:	42455513          	srai	a0,a0,0x24
    8e38:	00a025b3          	sgtz	a1,a0
    8e3c:	40b005b3          	neg	a1,a1
    8e40:	00a5f533          	and	a0,a1,a0
    8e44:	01954463          	blt	a0,s9,8e4c <.LBB46_692>
    8e48:	0ff00513          	li	a0,255

0000000000008e4c <.LBB46_692>:
    8e4c:	000015b7          	lui	a1,0x1
    8e50:	40b405b3          	sub	a1,s0,a1
    8e54:	2ca5b423          	sd	a0,712(a1) # 12c8 <.LBB46_4+0x140>
    8e58:	00001537          	lui	a0,0x1
    8e5c:	40a40533          	sub	a0,s0,a0
    8e60:	2d853503          	ld	a0,728(a0) # 12d8 <.LBB46_4+0x150>
    8e64:	03850533          	mul	a0,a0,s8
    8e68:	000015b7          	lui	a1,0x1
    8e6c:	40b405b3          	sub	a1,s0,a1
    8e70:	2d05b583          	ld	a1,720(a1) # 12d0 <.LBB46_4+0x148>
    8e74:	017585b3          	add	a1,a1,s7
    8e78:	00b50533          	add	a0,a0,a1
    8e7c:	42455513          	srai	a0,a0,0x24
    8e80:	00a025b3          	sgtz	a1,a0
    8e84:	40b005b3          	neg	a1,a1
    8e88:	00a5f533          	and	a0,a1,a0
    8e8c:	01954463          	blt	a0,s9,8e94 <.LBB46_694>
    8e90:	0ff00513          	li	a0,255

0000000000008e94 <.LBB46_694>:
    8e94:	000015b7          	lui	a1,0x1
    8e98:	40b405b3          	sub	a1,s0,a1
    8e9c:	2ca5bc23          	sd	a0,728(a1) # 12d8 <.LBB46_4+0x150>
    8ea0:	00001537          	lui	a0,0x1
    8ea4:	40a40533          	sub	a0,s0,a0
    8ea8:	2e853503          	ld	a0,744(a0) # 12e8 <.LBB46_4+0x160>
    8eac:	03850533          	mul	a0,a0,s8
    8eb0:	000015b7          	lui	a1,0x1
    8eb4:	40b405b3          	sub	a1,s0,a1
    8eb8:	2e05b583          	ld	a1,736(a1) # 12e0 <.LBB46_4+0x158>
    8ebc:	017585b3          	add	a1,a1,s7
    8ec0:	00b50533          	add	a0,a0,a1
    8ec4:	42455513          	srai	a0,a0,0x24
    8ec8:	00a025b3          	sgtz	a1,a0
    8ecc:	40b005b3          	neg	a1,a1
    8ed0:	00a5f533          	and	a0,a1,a0
    8ed4:	01954463          	blt	a0,s9,8edc <.LBB46_696>
    8ed8:	0ff00513          	li	a0,255

0000000000008edc <.LBB46_696>:
    8edc:	000015b7          	lui	a1,0x1
    8ee0:	40b405b3          	sub	a1,s0,a1
    8ee4:	2ea5b423          	sd	a0,744(a1) # 12e8 <.LBB46_4+0x160>
    8ee8:	00001537          	lui	a0,0x1
    8eec:	40a40533          	sub	a0,s0,a0
    8ef0:	2f853503          	ld	a0,760(a0) # 12f8 <.LBB46_4+0x170>
    8ef4:	03850533          	mul	a0,a0,s8
    8ef8:	000015b7          	lui	a1,0x1
    8efc:	40b405b3          	sub	a1,s0,a1
    8f00:	2f05b583          	ld	a1,752(a1) # 12f0 <.LBB46_4+0x168>
    8f04:	017585b3          	add	a1,a1,s7
    8f08:	00b50533          	add	a0,a0,a1
    8f0c:	42455513          	srai	a0,a0,0x24
    8f10:	00a025b3          	sgtz	a1,a0
    8f14:	40b005b3          	neg	a1,a1
    8f18:	00a5f533          	and	a0,a1,a0
    8f1c:	01954463          	blt	a0,s9,8f24 <.LBB46_698>
    8f20:	0ff00513          	li	a0,255

0000000000008f24 <.LBB46_698>:
    8f24:	000015b7          	lui	a1,0x1
    8f28:	40b405b3          	sub	a1,s0,a1
    8f2c:	2ea5bc23          	sd	a0,760(a1) # 12f8 <.LBB46_4+0x170>
    8f30:	00001537          	lui	a0,0x1
    8f34:	40a40533          	sub	a0,s0,a0
    8f38:	30853503          	ld	a0,776(a0) # 1308 <.LBB46_4+0x180>
    8f3c:	03850533          	mul	a0,a0,s8
    8f40:	000015b7          	lui	a1,0x1
    8f44:	40b405b3          	sub	a1,s0,a1
    8f48:	3005b583          	ld	a1,768(a1) # 1300 <.LBB46_4+0x178>
    8f4c:	017585b3          	add	a1,a1,s7
    8f50:	00b50533          	add	a0,a0,a1
    8f54:	42455513          	srai	a0,a0,0x24
    8f58:	00a025b3          	sgtz	a1,a0
    8f5c:	40b005b3          	neg	a1,a1
    8f60:	00a5f533          	and	a0,a1,a0
    8f64:	01954463          	blt	a0,s9,8f6c <.LBB46_700>
    8f68:	0ff00513          	li	a0,255

0000000000008f6c <.LBB46_700>:
    8f6c:	000015b7          	lui	a1,0x1
    8f70:	40b405b3          	sub	a1,s0,a1
    8f74:	30a5b423          	sd	a0,776(a1) # 1308 <.LBB46_4+0x180>
    8f78:	00001537          	lui	a0,0x1
    8f7c:	40a40533          	sub	a0,s0,a0
    8f80:	31853503          	ld	a0,792(a0) # 1318 <.LBB46_4+0x190>
    8f84:	03850533          	mul	a0,a0,s8
    8f88:	000015b7          	lui	a1,0x1
    8f8c:	40b405b3          	sub	a1,s0,a1
    8f90:	3105b583          	ld	a1,784(a1) # 1310 <.LBB46_4+0x188>
    8f94:	017585b3          	add	a1,a1,s7
    8f98:	00b50533          	add	a0,a0,a1
    8f9c:	42455513          	srai	a0,a0,0x24
    8fa0:	00a025b3          	sgtz	a1,a0
    8fa4:	40b005b3          	neg	a1,a1
    8fa8:	00a5f533          	and	a0,a1,a0
    8fac:	01954463          	blt	a0,s9,8fb4 <.LBB46_702>
    8fb0:	0ff00513          	li	a0,255

0000000000008fb4 <.LBB46_702>:
    8fb4:	000015b7          	lui	a1,0x1
    8fb8:	40b405b3          	sub	a1,s0,a1
    8fbc:	30a5bc23          	sd	a0,792(a1) # 1318 <.LBB46_4+0x190>
    8fc0:	00001537          	lui	a0,0x1
    8fc4:	40a40533          	sub	a0,s0,a0
    8fc8:	32853503          	ld	a0,808(a0) # 1328 <.LBB46_4+0x1a0>
    8fcc:	03850533          	mul	a0,a0,s8
    8fd0:	000015b7          	lui	a1,0x1
    8fd4:	40b405b3          	sub	a1,s0,a1
    8fd8:	3205b583          	ld	a1,800(a1) # 1320 <.LBB46_4+0x198>
    8fdc:	017585b3          	add	a1,a1,s7
    8fe0:	00b50533          	add	a0,a0,a1
    8fe4:	42455513          	srai	a0,a0,0x24
    8fe8:	00a025b3          	sgtz	a1,a0
    8fec:	40b005b3          	neg	a1,a1
    8ff0:	00a5f533          	and	a0,a1,a0
    8ff4:	01954463          	blt	a0,s9,8ffc <.LBB46_704>
    8ff8:	0ff00513          	li	a0,255

0000000000008ffc <.LBB46_704>:
    8ffc:	000015b7          	lui	a1,0x1
    9000:	40b405b3          	sub	a1,s0,a1
    9004:	32a5b423          	sd	a0,808(a1) # 1328 <.LBB46_4+0x1a0>
    9008:	00001537          	lui	a0,0x1
    900c:	40a40533          	sub	a0,s0,a0
    9010:	33853503          	ld	a0,824(a0) # 1338 <.LBB46_4+0x1b0>
    9014:	03850533          	mul	a0,a0,s8
    9018:	000015b7          	lui	a1,0x1
    901c:	40b405b3          	sub	a1,s0,a1
    9020:	3305b583          	ld	a1,816(a1) # 1330 <.LBB46_4+0x1a8>
    9024:	017585b3          	add	a1,a1,s7
    9028:	00b50533          	add	a0,a0,a1
    902c:	42455513          	srai	a0,a0,0x24
    9030:	00a025b3          	sgtz	a1,a0
    9034:	40b005b3          	neg	a1,a1
    9038:	00a5f533          	and	a0,a1,a0
    903c:	01954463          	blt	a0,s9,9044 <.LBB46_706>
    9040:	0ff00513          	li	a0,255

0000000000009044 <.LBB46_706>:
    9044:	000015b7          	lui	a1,0x1
    9048:	40b405b3          	sub	a1,s0,a1
    904c:	32a5bc23          	sd	a0,824(a1) # 1338 <.LBB46_4+0x1b0>
    9050:	00001537          	lui	a0,0x1
    9054:	40a40533          	sub	a0,s0,a0
    9058:	34853503          	ld	a0,840(a0) # 1348 <.LBB46_4+0x1c0>
    905c:	03850533          	mul	a0,a0,s8
    9060:	000015b7          	lui	a1,0x1
    9064:	40b405b3          	sub	a1,s0,a1
    9068:	3405b583          	ld	a1,832(a1) # 1340 <.LBB46_4+0x1b8>
    906c:	017585b3          	add	a1,a1,s7
    9070:	00b50533          	add	a0,a0,a1
    9074:	42455513          	srai	a0,a0,0x24
    9078:	00a025b3          	sgtz	a1,a0
    907c:	40b005b3          	neg	a1,a1
    9080:	00a5f533          	and	a0,a1,a0
    9084:	01954463          	blt	a0,s9,908c <.LBB46_708>
    9088:	0ff00513          	li	a0,255

000000000000908c <.LBB46_708>:
    908c:	000015b7          	lui	a1,0x1
    9090:	40b405b3          	sub	a1,s0,a1
    9094:	34a5b423          	sd	a0,840(a1) # 1348 <.LBB46_4+0x1c0>
    9098:	00001537          	lui	a0,0x1
    909c:	40a40533          	sub	a0,s0,a0
    90a0:	35853503          	ld	a0,856(a0) # 1358 <.LBB46_4+0x1d0>
    90a4:	03850533          	mul	a0,a0,s8
    90a8:	000015b7          	lui	a1,0x1
    90ac:	40b405b3          	sub	a1,s0,a1
    90b0:	3505b583          	ld	a1,848(a1) # 1350 <.LBB46_4+0x1c8>
    90b4:	017585b3          	add	a1,a1,s7
    90b8:	00b50533          	add	a0,a0,a1
    90bc:	42455513          	srai	a0,a0,0x24
    90c0:	00a025b3          	sgtz	a1,a0
    90c4:	40b005b3          	neg	a1,a1
    90c8:	00a5f533          	and	a0,a1,a0
    90cc:	01954463          	blt	a0,s9,90d4 <.LBB46_710>
    90d0:	0ff00513          	li	a0,255

00000000000090d4 <.LBB46_710>:
    90d4:	000015b7          	lui	a1,0x1
    90d8:	40b405b3          	sub	a1,s0,a1
    90dc:	34a5bc23          	sd	a0,856(a1) # 1358 <.LBB46_4+0x1d0>
    90e0:	00001537          	lui	a0,0x1
    90e4:	40a40533          	sub	a0,s0,a0
    90e8:	36853503          	ld	a0,872(a0) # 1368 <.LBB46_4+0x1e0>
    90ec:	03850533          	mul	a0,a0,s8
    90f0:	000015b7          	lui	a1,0x1
    90f4:	40b405b3          	sub	a1,s0,a1
    90f8:	3605b583          	ld	a1,864(a1) # 1360 <.LBB46_4+0x1d8>
    90fc:	017585b3          	add	a1,a1,s7
    9100:	00b50533          	add	a0,a0,a1
    9104:	42455513          	srai	a0,a0,0x24
    9108:	00a025b3          	sgtz	a1,a0
    910c:	40b005b3          	neg	a1,a1
    9110:	00a5f533          	and	a0,a1,a0
    9114:	01954463          	blt	a0,s9,911c <.LBB46_712>
    9118:	0ff00513          	li	a0,255

000000000000911c <.LBB46_712>:
    911c:	000015b7          	lui	a1,0x1
    9120:	40b405b3          	sub	a1,s0,a1
    9124:	36a5b423          	sd	a0,872(a1) # 1368 <.LBB46_4+0x1e0>
    9128:	00001537          	lui	a0,0x1
    912c:	40a40533          	sub	a0,s0,a0
    9130:	37853503          	ld	a0,888(a0) # 1378 <.LBB46_4+0x1f0>
    9134:	03850533          	mul	a0,a0,s8
    9138:	000015b7          	lui	a1,0x1
    913c:	40b405b3          	sub	a1,s0,a1
    9140:	3705b583          	ld	a1,880(a1) # 1370 <.LBB46_4+0x1e8>
    9144:	017585b3          	add	a1,a1,s7
    9148:	00b50533          	add	a0,a0,a1
    914c:	42455513          	srai	a0,a0,0x24
    9150:	00a025b3          	sgtz	a1,a0
    9154:	40b005b3          	neg	a1,a1
    9158:	00a5f533          	and	a0,a1,a0
    915c:	01954463          	blt	a0,s9,9164 <.LBB46_714>
    9160:	0ff00513          	li	a0,255

0000000000009164 <.LBB46_714>:
    9164:	000015b7          	lui	a1,0x1
    9168:	40b405b3          	sub	a1,s0,a1
    916c:	36a5bc23          	sd	a0,888(a1) # 1378 <.LBB46_4+0x1f0>
    9170:	00001537          	lui	a0,0x1
    9174:	40a40533          	sub	a0,s0,a0
    9178:	38853503          	ld	a0,904(a0) # 1388 <.LBB46_4+0x200>
    917c:	03850533          	mul	a0,a0,s8
    9180:	000015b7          	lui	a1,0x1
    9184:	40b405b3          	sub	a1,s0,a1
    9188:	3805b583          	ld	a1,896(a1) # 1380 <.LBB46_4+0x1f8>
    918c:	017585b3          	add	a1,a1,s7
    9190:	00b50533          	add	a0,a0,a1
    9194:	42455513          	srai	a0,a0,0x24
    9198:	00a025b3          	sgtz	a1,a0
    919c:	40b005b3          	neg	a1,a1
    91a0:	00a5f533          	and	a0,a1,a0
    91a4:	01954463          	blt	a0,s9,91ac <.LBB46_716>
    91a8:	0ff00513          	li	a0,255

00000000000091ac <.LBB46_716>:
    91ac:	000015b7          	lui	a1,0x1
    91b0:	40b405b3          	sub	a1,s0,a1
    91b4:	38a5b423          	sd	a0,904(a1) # 1388 <.LBB46_4+0x200>
    91b8:	00001537          	lui	a0,0x1
    91bc:	40a40533          	sub	a0,s0,a0
    91c0:	39853503          	ld	a0,920(a0) # 1398 <.LBB46_4+0x210>
    91c4:	03850533          	mul	a0,a0,s8
    91c8:	000015b7          	lui	a1,0x1
    91cc:	40b405b3          	sub	a1,s0,a1
    91d0:	3905b583          	ld	a1,912(a1) # 1390 <.LBB46_4+0x208>
    91d4:	017585b3          	add	a1,a1,s7
    91d8:	00b50533          	add	a0,a0,a1
    91dc:	42455513          	srai	a0,a0,0x24
    91e0:	00a025b3          	sgtz	a1,a0
    91e4:	40b005b3          	neg	a1,a1
    91e8:	00a5f533          	and	a0,a1,a0
    91ec:	01954463          	blt	a0,s9,91f4 <.LBB46_718>
    91f0:	0ff00513          	li	a0,255

00000000000091f4 <.LBB46_718>:
    91f4:	000015b7          	lui	a1,0x1
    91f8:	40b405b3          	sub	a1,s0,a1
    91fc:	38a5bc23          	sd	a0,920(a1) # 1398 <.LBB46_4+0x210>
    9200:	00001537          	lui	a0,0x1
    9204:	40a40533          	sub	a0,s0,a0
    9208:	3a853503          	ld	a0,936(a0) # 13a8 <.LBB46_4+0x220>
    920c:	03850533          	mul	a0,a0,s8
    9210:	000015b7          	lui	a1,0x1
    9214:	40b405b3          	sub	a1,s0,a1
    9218:	3a05b583          	ld	a1,928(a1) # 13a0 <.LBB46_4+0x218>
    921c:	017585b3          	add	a1,a1,s7
    9220:	00b50533          	add	a0,a0,a1
    9224:	42455513          	srai	a0,a0,0x24
    9228:	00a025b3          	sgtz	a1,a0
    922c:	40b005b3          	neg	a1,a1
    9230:	00a5f533          	and	a0,a1,a0
    9234:	01954463          	blt	a0,s9,923c <.LBB46_720>
    9238:	0ff00513          	li	a0,255

000000000000923c <.LBB46_720>:
    923c:	000015b7          	lui	a1,0x1
    9240:	40b405b3          	sub	a1,s0,a1
    9244:	3aa5b423          	sd	a0,936(a1) # 13a8 <.LBB46_4+0x220>
    9248:	00001537          	lui	a0,0x1
    924c:	40a40533          	sub	a0,s0,a0
    9250:	3b853503          	ld	a0,952(a0) # 13b8 <.LBB46_4+0x230>
    9254:	03850533          	mul	a0,a0,s8
    9258:	000015b7          	lui	a1,0x1
    925c:	40b405b3          	sub	a1,s0,a1
    9260:	3b05b583          	ld	a1,944(a1) # 13b0 <.LBB46_4+0x228>
    9264:	017585b3          	add	a1,a1,s7
    9268:	00b50533          	add	a0,a0,a1
    926c:	42455513          	srai	a0,a0,0x24
    9270:	00a025b3          	sgtz	a1,a0
    9274:	40b005b3          	neg	a1,a1
    9278:	00a5f533          	and	a0,a1,a0
    927c:	01954463          	blt	a0,s9,9284 <.LBB46_722>
    9280:	0ff00513          	li	a0,255

0000000000009284 <.LBB46_722>:
    9284:	000015b7          	lui	a1,0x1
    9288:	40b405b3          	sub	a1,s0,a1
    928c:	3aa5bc23          	sd	a0,952(a1) # 13b8 <.LBB46_4+0x230>
    9290:	00001537          	lui	a0,0x1
    9294:	40a40533          	sub	a0,s0,a0
    9298:	3c853503          	ld	a0,968(a0) # 13c8 <.LBB46_4+0x240>
    929c:	03850533          	mul	a0,a0,s8
    92a0:	000015b7          	lui	a1,0x1
    92a4:	40b405b3          	sub	a1,s0,a1
    92a8:	3c05b583          	ld	a1,960(a1) # 13c0 <.LBB46_4+0x238>
    92ac:	017585b3          	add	a1,a1,s7
    92b0:	00b50533          	add	a0,a0,a1
    92b4:	42455513          	srai	a0,a0,0x24
    92b8:	00a025b3          	sgtz	a1,a0
    92bc:	40b005b3          	neg	a1,a1
    92c0:	00a5f533          	and	a0,a1,a0
    92c4:	01954463          	blt	a0,s9,92cc <.LBB46_724>
    92c8:	0ff00513          	li	a0,255

00000000000092cc <.LBB46_724>:
    92cc:	000015b7          	lui	a1,0x1
    92d0:	40b405b3          	sub	a1,s0,a1
    92d4:	3ca5b423          	sd	a0,968(a1) # 13c8 <.LBB46_4+0x240>
    92d8:	00001537          	lui	a0,0x1
    92dc:	40a40533          	sub	a0,s0,a0
    92e0:	3d853503          	ld	a0,984(a0) # 13d8 <.LBB46_4+0x250>
    92e4:	03850533          	mul	a0,a0,s8
    92e8:	000015b7          	lui	a1,0x1
    92ec:	40b405b3          	sub	a1,s0,a1
    92f0:	3d05b583          	ld	a1,976(a1) # 13d0 <.LBB46_4+0x248>
    92f4:	017585b3          	add	a1,a1,s7
    92f8:	00b50533          	add	a0,a0,a1
    92fc:	42455513          	srai	a0,a0,0x24
    9300:	00a025b3          	sgtz	a1,a0
    9304:	40b005b3          	neg	a1,a1
    9308:	00a5f533          	and	a0,a1,a0
    930c:	01954463          	blt	a0,s9,9314 <.LBB46_726>
    9310:	0ff00513          	li	a0,255

0000000000009314 <.LBB46_726>:
    9314:	000015b7          	lui	a1,0x1
    9318:	40b405b3          	sub	a1,s0,a1
    931c:	3ca5bc23          	sd	a0,984(a1) # 13d8 <.LBB46_4+0x250>
    9320:	00001537          	lui	a0,0x1
    9324:	40a40533          	sub	a0,s0,a0
    9328:	3e853503          	ld	a0,1000(a0) # 13e8 <.LBB46_4+0x260>
    932c:	03850533          	mul	a0,a0,s8
    9330:	000015b7          	lui	a1,0x1
    9334:	40b405b3          	sub	a1,s0,a1
    9338:	3e05b583          	ld	a1,992(a1) # 13e0 <.LBB46_4+0x258>
    933c:	017585b3          	add	a1,a1,s7
    9340:	00b50533          	add	a0,a0,a1
    9344:	42455513          	srai	a0,a0,0x24
    9348:	00a025b3          	sgtz	a1,a0
    934c:	40b005b3          	neg	a1,a1
    9350:	00a5f533          	and	a0,a1,a0
    9354:	01954463          	blt	a0,s9,935c <.LBB46_728>
    9358:	0ff00513          	li	a0,255

000000000000935c <.LBB46_728>:
    935c:	000015b7          	lui	a1,0x1
    9360:	40b405b3          	sub	a1,s0,a1
    9364:	3ea5b423          	sd	a0,1000(a1) # 13e8 <.LBB46_4+0x260>
    9368:	00001537          	lui	a0,0x1
    936c:	40a40533          	sub	a0,s0,a0
    9370:	3f853503          	ld	a0,1016(a0) # 13f8 <.LBB46_4+0x270>
    9374:	03850533          	mul	a0,a0,s8
    9378:	000015b7          	lui	a1,0x1
    937c:	40b405b3          	sub	a1,s0,a1
    9380:	3f05b583          	ld	a1,1008(a1) # 13f0 <.LBB46_4+0x268>
    9384:	017585b3          	add	a1,a1,s7
    9388:	00b50533          	add	a0,a0,a1
    938c:	42455513          	srai	a0,a0,0x24
    9390:	00a025b3          	sgtz	a1,a0
    9394:	40b005b3          	neg	a1,a1
    9398:	00a5f533          	and	a0,a1,a0
    939c:	01954463          	blt	a0,s9,93a4 <.LBB46_730>
    93a0:	0ff00513          	li	a0,255

00000000000093a4 <.LBB46_730>:
    93a4:	000015b7          	lui	a1,0x1
    93a8:	40b405b3          	sub	a1,s0,a1
    93ac:	3ea5bc23          	sd	a0,1016(a1) # 13f8 <.LBB46_4+0x270>
    93b0:	00001537          	lui	a0,0x1
    93b4:	40a40533          	sub	a0,s0,a0
    93b8:	40853503          	ld	a0,1032(a0) # 1408 <.LBB46_4+0x280>
    93bc:	03850533          	mul	a0,a0,s8
    93c0:	000015b7          	lui	a1,0x1
    93c4:	40b405b3          	sub	a1,s0,a1
    93c8:	4005b583          	ld	a1,1024(a1) # 1400 <.LBB46_4+0x278>
    93cc:	017585b3          	add	a1,a1,s7
    93d0:	00b50533          	add	a0,a0,a1
    93d4:	42455513          	srai	a0,a0,0x24
    93d8:	00a025b3          	sgtz	a1,a0
    93dc:	40b005b3          	neg	a1,a1
    93e0:	00a5f533          	and	a0,a1,a0
    93e4:	01954463          	blt	a0,s9,93ec <.LBB46_732>
    93e8:	0ff00513          	li	a0,255

00000000000093ec <.LBB46_732>:
    93ec:	000015b7          	lui	a1,0x1
    93f0:	40b405b3          	sub	a1,s0,a1
    93f4:	40a5b423          	sd	a0,1032(a1) # 1408 <.LBB46_4+0x280>
    93f8:	00001537          	lui	a0,0x1
    93fc:	40a40533          	sub	a0,s0,a0
    9400:	41853503          	ld	a0,1048(a0) # 1418 <.LBB46_4+0x290>
    9404:	03850533          	mul	a0,a0,s8
    9408:	000015b7          	lui	a1,0x1
    940c:	40b405b3          	sub	a1,s0,a1
    9410:	4105b583          	ld	a1,1040(a1) # 1410 <.LBB46_4+0x288>
    9414:	017585b3          	add	a1,a1,s7
    9418:	00b50533          	add	a0,a0,a1
    941c:	42455513          	srai	a0,a0,0x24
    9420:	00a025b3          	sgtz	a1,a0
    9424:	40b005b3          	neg	a1,a1
    9428:	00a5f533          	and	a0,a1,a0
    942c:	01954463          	blt	a0,s9,9434 <.LBB46_734>
    9430:	0ff00513          	li	a0,255

0000000000009434 <.LBB46_734>:
    9434:	000015b7          	lui	a1,0x1
    9438:	40b405b3          	sub	a1,s0,a1
    943c:	40a5bc23          	sd	a0,1048(a1) # 1418 <.LBB46_4+0x290>
    9440:	00001537          	lui	a0,0x1
    9444:	40a40533          	sub	a0,s0,a0
    9448:	42853503          	ld	a0,1064(a0) # 1428 <.LBB46_4+0x2a0>
    944c:	03850533          	mul	a0,a0,s8
    9450:	000015b7          	lui	a1,0x1
    9454:	40b405b3          	sub	a1,s0,a1
    9458:	4205b583          	ld	a1,1056(a1) # 1420 <.LBB46_4+0x298>
    945c:	017585b3          	add	a1,a1,s7
    9460:	00b50533          	add	a0,a0,a1
    9464:	42455513          	srai	a0,a0,0x24
    9468:	00a025b3          	sgtz	a1,a0
    946c:	40b005b3          	neg	a1,a1
    9470:	00a5f533          	and	a0,a1,a0
    9474:	01954463          	blt	a0,s9,947c <.LBB46_736>
    9478:	0ff00513          	li	a0,255

000000000000947c <.LBB46_736>:
    947c:	000015b7          	lui	a1,0x1
    9480:	40b405b3          	sub	a1,s0,a1
    9484:	42a5b423          	sd	a0,1064(a1) # 1428 <.LBB46_4+0x2a0>
    9488:	00001537          	lui	a0,0x1
    948c:	40a40533          	sub	a0,s0,a0
    9490:	43853503          	ld	a0,1080(a0) # 1438 <.LBB46_4+0x2b0>
    9494:	03850533          	mul	a0,a0,s8
    9498:	000015b7          	lui	a1,0x1
    949c:	40b405b3          	sub	a1,s0,a1
    94a0:	4305b583          	ld	a1,1072(a1) # 1430 <.LBB46_4+0x2a8>
    94a4:	017585b3          	add	a1,a1,s7
    94a8:	00b50533          	add	a0,a0,a1
    94ac:	42455513          	srai	a0,a0,0x24
    94b0:	00a025b3          	sgtz	a1,a0
    94b4:	40b005b3          	neg	a1,a1
    94b8:	00a5f533          	and	a0,a1,a0
    94bc:	01954463          	blt	a0,s9,94c4 <.LBB46_738>
    94c0:	0ff00513          	li	a0,255

00000000000094c4 <.LBB46_738>:
    94c4:	000015b7          	lui	a1,0x1
    94c8:	40b405b3          	sub	a1,s0,a1
    94cc:	42a5bc23          	sd	a0,1080(a1) # 1438 <.LBB46_4+0x2b0>
    94d0:	00001537          	lui	a0,0x1
    94d4:	40a40533          	sub	a0,s0,a0
    94d8:	44853503          	ld	a0,1096(a0) # 1448 <.LBB46_4+0x2c0>
    94dc:	03850533          	mul	a0,a0,s8
    94e0:	000015b7          	lui	a1,0x1
    94e4:	40b405b3          	sub	a1,s0,a1
    94e8:	4405b583          	ld	a1,1088(a1) # 1440 <.LBB46_4+0x2b8>
    94ec:	017585b3          	add	a1,a1,s7
    94f0:	00b50533          	add	a0,a0,a1
    94f4:	42455513          	srai	a0,a0,0x24
    94f8:	00a025b3          	sgtz	a1,a0
    94fc:	40b005b3          	neg	a1,a1
    9500:	00a5f533          	and	a0,a1,a0
    9504:	01954463          	blt	a0,s9,950c <.LBB46_740>
    9508:	0ff00513          	li	a0,255

000000000000950c <.LBB46_740>:
    950c:	000015b7          	lui	a1,0x1
    9510:	40b405b3          	sub	a1,s0,a1
    9514:	44a5b423          	sd	a0,1096(a1) # 1448 <.LBB46_4+0x2c0>
    9518:	00001537          	lui	a0,0x1
    951c:	40a40533          	sub	a0,s0,a0
    9520:	45853503          	ld	a0,1112(a0) # 1458 <.LBB46_4+0x2d0>
    9524:	03850533          	mul	a0,a0,s8
    9528:	000015b7          	lui	a1,0x1
    952c:	40b405b3          	sub	a1,s0,a1
    9530:	4505b583          	ld	a1,1104(a1) # 1450 <.LBB46_4+0x2c8>
    9534:	017585b3          	add	a1,a1,s7
    9538:	00b50533          	add	a0,a0,a1
    953c:	42455513          	srai	a0,a0,0x24
    9540:	00a025b3          	sgtz	a1,a0
    9544:	40b005b3          	neg	a1,a1
    9548:	00a5f533          	and	a0,a1,a0
    954c:	01954463          	blt	a0,s9,9554 <.LBB46_742>
    9550:	0ff00513          	li	a0,255

0000000000009554 <.LBB46_742>:
    9554:	000015b7          	lui	a1,0x1
    9558:	40b405b3          	sub	a1,s0,a1
    955c:	44a5bc23          	sd	a0,1112(a1) # 1458 <.LBB46_4+0x2d0>
    9560:	00001537          	lui	a0,0x1
    9564:	40a40533          	sub	a0,s0,a0
    9568:	46853503          	ld	a0,1128(a0) # 1468 <.LBB46_4+0x2e0>
    956c:	03850533          	mul	a0,a0,s8
    9570:	000015b7          	lui	a1,0x1
    9574:	40b405b3          	sub	a1,s0,a1
    9578:	4605b583          	ld	a1,1120(a1) # 1460 <.LBB46_4+0x2d8>
    957c:	017585b3          	add	a1,a1,s7
    9580:	00b50533          	add	a0,a0,a1
    9584:	42455513          	srai	a0,a0,0x24
    9588:	00a025b3          	sgtz	a1,a0
    958c:	40b005b3          	neg	a1,a1
    9590:	00a5f533          	and	a0,a1,a0
    9594:	01954463          	blt	a0,s9,959c <.LBB46_744>
    9598:	0ff00513          	li	a0,255

000000000000959c <.LBB46_744>:
    959c:	000015b7          	lui	a1,0x1
    95a0:	40b405b3          	sub	a1,s0,a1
    95a4:	46a5b423          	sd	a0,1128(a1) # 1468 <.LBB46_4+0x2e0>
    95a8:	00001537          	lui	a0,0x1
    95ac:	40a40533          	sub	a0,s0,a0
    95b0:	47853503          	ld	a0,1144(a0) # 1478 <.LBB46_4+0x2f0>
    95b4:	03850533          	mul	a0,a0,s8
    95b8:	000015b7          	lui	a1,0x1
    95bc:	40b405b3          	sub	a1,s0,a1
    95c0:	4705b583          	ld	a1,1136(a1) # 1470 <.LBB46_4+0x2e8>
    95c4:	017585b3          	add	a1,a1,s7
    95c8:	00b50533          	add	a0,a0,a1
    95cc:	42455513          	srai	a0,a0,0x24
    95d0:	00a025b3          	sgtz	a1,a0
    95d4:	40b005b3          	neg	a1,a1
    95d8:	00a5f533          	and	a0,a1,a0
    95dc:	01954463          	blt	a0,s9,95e4 <.LBB46_746>
    95e0:	0ff00513          	li	a0,255

00000000000095e4 <.LBB46_746>:
    95e4:	000015b7          	lui	a1,0x1
    95e8:	40b405b3          	sub	a1,s0,a1
    95ec:	46a5bc23          	sd	a0,1144(a1) # 1478 <.LBB46_4+0x2f0>
    95f0:	00001537          	lui	a0,0x1
    95f4:	40a40533          	sub	a0,s0,a0
    95f8:	48853503          	ld	a0,1160(a0) # 1488 <.LBB46_4+0x300>
    95fc:	03850533          	mul	a0,a0,s8
    9600:	000015b7          	lui	a1,0x1
    9604:	40b405b3          	sub	a1,s0,a1
    9608:	4805b583          	ld	a1,1152(a1) # 1480 <.LBB46_4+0x2f8>
    960c:	017585b3          	add	a1,a1,s7
    9610:	00b50533          	add	a0,a0,a1
    9614:	42455513          	srai	a0,a0,0x24
    9618:	00a025b3          	sgtz	a1,a0
    961c:	40b005b3          	neg	a1,a1
    9620:	00a5f533          	and	a0,a1,a0
    9624:	01954463          	blt	a0,s9,962c <.LBB46_748>
    9628:	0ff00513          	li	a0,255

000000000000962c <.LBB46_748>:
    962c:	000015b7          	lui	a1,0x1
    9630:	40b405b3          	sub	a1,s0,a1
    9634:	48a5b423          	sd	a0,1160(a1) # 1488 <.LBB46_4+0x300>
    9638:	00001537          	lui	a0,0x1
    963c:	40a40533          	sub	a0,s0,a0
    9640:	49853503          	ld	a0,1176(a0) # 1498 <.LBB46_4+0x310>
    9644:	03850533          	mul	a0,a0,s8
    9648:	000015b7          	lui	a1,0x1
    964c:	40b405b3          	sub	a1,s0,a1
    9650:	4905b583          	ld	a1,1168(a1) # 1490 <.LBB46_4+0x308>
    9654:	017585b3          	add	a1,a1,s7
    9658:	00b50533          	add	a0,a0,a1
    965c:	42455513          	srai	a0,a0,0x24
    9660:	00a025b3          	sgtz	a1,a0
    9664:	40b005b3          	neg	a1,a1
    9668:	00a5f533          	and	a0,a1,a0
    966c:	01954463          	blt	a0,s9,9674 <.LBB46_750>
    9670:	0ff00513          	li	a0,255

0000000000009674 <.LBB46_750>:
    9674:	000015b7          	lui	a1,0x1
    9678:	40b405b3          	sub	a1,s0,a1
    967c:	48a5bc23          	sd	a0,1176(a1) # 1498 <.LBB46_4+0x310>
    9680:	00001537          	lui	a0,0x1
    9684:	40a40533          	sub	a0,s0,a0
    9688:	4a853503          	ld	a0,1192(a0) # 14a8 <.LBB46_4+0x320>
    968c:	03850533          	mul	a0,a0,s8
    9690:	000015b7          	lui	a1,0x1
    9694:	40b405b3          	sub	a1,s0,a1
    9698:	4a05b583          	ld	a1,1184(a1) # 14a0 <.LBB46_4+0x318>
    969c:	017585b3          	add	a1,a1,s7
    96a0:	00b50533          	add	a0,a0,a1
    96a4:	42455513          	srai	a0,a0,0x24
    96a8:	00a025b3          	sgtz	a1,a0
    96ac:	40b005b3          	neg	a1,a1
    96b0:	00a5f533          	and	a0,a1,a0
    96b4:	01954463          	blt	a0,s9,96bc <.LBB46_752>
    96b8:	0ff00513          	li	a0,255

00000000000096bc <.LBB46_752>:
    96bc:	000015b7          	lui	a1,0x1
    96c0:	40b405b3          	sub	a1,s0,a1
    96c4:	4aa5b423          	sd	a0,1192(a1) # 14a8 <.LBB46_4+0x320>
    96c8:	00001537          	lui	a0,0x1
    96cc:	40a40533          	sub	a0,s0,a0
    96d0:	4b853503          	ld	a0,1208(a0) # 14b8 <.LBB46_4+0x330>
    96d4:	03850533          	mul	a0,a0,s8
    96d8:	000015b7          	lui	a1,0x1
    96dc:	40b405b3          	sub	a1,s0,a1
    96e0:	4b05b583          	ld	a1,1200(a1) # 14b0 <.LBB46_4+0x328>
    96e4:	017585b3          	add	a1,a1,s7
    96e8:	00b50533          	add	a0,a0,a1
    96ec:	42455513          	srai	a0,a0,0x24
    96f0:	00a025b3          	sgtz	a1,a0
    96f4:	40b005b3          	neg	a1,a1
    96f8:	00a5f533          	and	a0,a1,a0
    96fc:	01954463          	blt	a0,s9,9704 <.LBB46_754>
    9700:	0ff00513          	li	a0,255

0000000000009704 <.LBB46_754>:
    9704:	000015b7          	lui	a1,0x1
    9708:	40b405b3          	sub	a1,s0,a1
    970c:	4aa5bc23          	sd	a0,1208(a1) # 14b8 <.LBB46_4+0x330>
    9710:	00001537          	lui	a0,0x1
    9714:	40a40533          	sub	a0,s0,a0
    9718:	4c853503          	ld	a0,1224(a0) # 14c8 <.LBB46_4+0x340>
    971c:	03850533          	mul	a0,a0,s8
    9720:	000015b7          	lui	a1,0x1
    9724:	40b405b3          	sub	a1,s0,a1
    9728:	4c05b583          	ld	a1,1216(a1) # 14c0 <.LBB46_4+0x338>
    972c:	017585b3          	add	a1,a1,s7
    9730:	00b50533          	add	a0,a0,a1
    9734:	42455513          	srai	a0,a0,0x24
    9738:	00a025b3          	sgtz	a1,a0
    973c:	40b005b3          	neg	a1,a1
    9740:	00a5f533          	and	a0,a1,a0
    9744:	01954463          	blt	a0,s9,974c <.LBB46_756>
    9748:	0ff00513          	li	a0,255

000000000000974c <.LBB46_756>:
    974c:	000015b7          	lui	a1,0x1
    9750:	40b405b3          	sub	a1,s0,a1
    9754:	4ca5b423          	sd	a0,1224(a1) # 14c8 <.LBB46_4+0x340>
    9758:	00001537          	lui	a0,0x1
    975c:	40a40533          	sub	a0,s0,a0
    9760:	4d853503          	ld	a0,1240(a0) # 14d8 <.LBB46_4+0x350>
    9764:	03850533          	mul	a0,a0,s8
    9768:	000015b7          	lui	a1,0x1
    976c:	40b405b3          	sub	a1,s0,a1
    9770:	4d05b583          	ld	a1,1232(a1) # 14d0 <.LBB46_4+0x348>
    9774:	017585b3          	add	a1,a1,s7
    9778:	00b50533          	add	a0,a0,a1
    977c:	42455513          	srai	a0,a0,0x24
    9780:	00a025b3          	sgtz	a1,a0
    9784:	40b005b3          	neg	a1,a1
    9788:	00a5f533          	and	a0,a1,a0
    978c:	01954463          	blt	a0,s9,9794 <.LBB46_758>
    9790:	0ff00513          	li	a0,255

0000000000009794 <.LBB46_758>:
    9794:	000015b7          	lui	a1,0x1
    9798:	40b405b3          	sub	a1,s0,a1
    979c:	4ca5bc23          	sd	a0,1240(a1) # 14d8 <.LBB46_4+0x350>
    97a0:	00001537          	lui	a0,0x1
    97a4:	40a40533          	sub	a0,s0,a0
    97a8:	4e853503          	ld	a0,1256(a0) # 14e8 <.LBB46_4+0x360>
    97ac:	03850533          	mul	a0,a0,s8
    97b0:	000015b7          	lui	a1,0x1
    97b4:	40b405b3          	sub	a1,s0,a1
    97b8:	4e05b583          	ld	a1,1248(a1) # 14e0 <.LBB46_4+0x358>
    97bc:	017585b3          	add	a1,a1,s7
    97c0:	00b50533          	add	a0,a0,a1
    97c4:	42455513          	srai	a0,a0,0x24
    97c8:	00a025b3          	sgtz	a1,a0
    97cc:	40b005b3          	neg	a1,a1
    97d0:	00a5f533          	and	a0,a1,a0
    97d4:	01954463          	blt	a0,s9,97dc <.LBB46_760>
    97d8:	0ff00513          	li	a0,255

00000000000097dc <.LBB46_760>:
    97dc:	000015b7          	lui	a1,0x1
    97e0:	40b405b3          	sub	a1,s0,a1
    97e4:	4ea5b423          	sd	a0,1256(a1) # 14e8 <.LBB46_4+0x360>
    97e8:	00001537          	lui	a0,0x1
    97ec:	40a40533          	sub	a0,s0,a0
    97f0:	4f853503          	ld	a0,1272(a0) # 14f8 <.LBB46_4+0x370>
    97f4:	03850533          	mul	a0,a0,s8
    97f8:	000015b7          	lui	a1,0x1
    97fc:	40b405b3          	sub	a1,s0,a1
    9800:	4f05b583          	ld	a1,1264(a1) # 14f0 <.LBB46_4+0x368>
    9804:	017585b3          	add	a1,a1,s7
    9808:	00b50533          	add	a0,a0,a1
    980c:	42455513          	srai	a0,a0,0x24
    9810:	00a025b3          	sgtz	a1,a0
    9814:	40b005b3          	neg	a1,a1
    9818:	00a5f533          	and	a0,a1,a0
    981c:	01954463          	blt	a0,s9,9824 <.LBB46_762>
    9820:	0ff00513          	li	a0,255

0000000000009824 <.LBB46_762>:
    9824:	000015b7          	lui	a1,0x1
    9828:	40b405b3          	sub	a1,s0,a1
    982c:	4ea5bc23          	sd	a0,1272(a1) # 14f8 <.LBB46_4+0x370>
    9830:	00001537          	lui	a0,0x1
    9834:	40a40533          	sub	a0,s0,a0
    9838:	50853503          	ld	a0,1288(a0) # 1508 <.LBB46_4+0x380>
    983c:	03850533          	mul	a0,a0,s8
    9840:	000015b7          	lui	a1,0x1
    9844:	40b405b3          	sub	a1,s0,a1
    9848:	5005b583          	ld	a1,1280(a1) # 1500 <.LBB46_4+0x378>
    984c:	017585b3          	add	a1,a1,s7
    9850:	00b50533          	add	a0,a0,a1
    9854:	42455513          	srai	a0,a0,0x24
    9858:	00a025b3          	sgtz	a1,a0
    985c:	40b005b3          	neg	a1,a1
    9860:	00a5f533          	and	a0,a1,a0
    9864:	01954463          	blt	a0,s9,986c <.LBB46_764>
    9868:	0ff00513          	li	a0,255

000000000000986c <.LBB46_764>:
    986c:	000015b7          	lui	a1,0x1
    9870:	40b405b3          	sub	a1,s0,a1
    9874:	50a5b423          	sd	a0,1288(a1) # 1508 <.LBB46_4+0x380>
    9878:	00001537          	lui	a0,0x1
    987c:	40a40533          	sub	a0,s0,a0
    9880:	51853503          	ld	a0,1304(a0) # 1518 <.LBB46_4+0x390>
    9884:	03850533          	mul	a0,a0,s8
    9888:	000015b7          	lui	a1,0x1
    988c:	40b405b3          	sub	a1,s0,a1
    9890:	5105b583          	ld	a1,1296(a1) # 1510 <.LBB46_4+0x388>
    9894:	017585b3          	add	a1,a1,s7
    9898:	00b50533          	add	a0,a0,a1
    989c:	42455513          	srai	a0,a0,0x24
    98a0:	00a025b3          	sgtz	a1,a0
    98a4:	40b005b3          	neg	a1,a1
    98a8:	00a5f533          	and	a0,a1,a0
    98ac:	01954463          	blt	a0,s9,98b4 <.LBB46_766>
    98b0:	0ff00513          	li	a0,255

00000000000098b4 <.LBB46_766>:
    98b4:	000015b7          	lui	a1,0x1
    98b8:	40b405b3          	sub	a1,s0,a1
    98bc:	50a5bc23          	sd	a0,1304(a1) # 1518 <.LBB46_4+0x390>
    98c0:	00001537          	lui	a0,0x1
    98c4:	40a40533          	sub	a0,s0,a0
    98c8:	52853503          	ld	a0,1320(a0) # 1528 <.LBB46_4+0x3a0>
    98cc:	03850533          	mul	a0,a0,s8
    98d0:	000015b7          	lui	a1,0x1
    98d4:	40b405b3          	sub	a1,s0,a1
    98d8:	5205b583          	ld	a1,1312(a1) # 1520 <.LBB46_4+0x398>
    98dc:	017585b3          	add	a1,a1,s7
    98e0:	00b50533          	add	a0,a0,a1
    98e4:	42455513          	srai	a0,a0,0x24
    98e8:	00a025b3          	sgtz	a1,a0
    98ec:	40b005b3          	neg	a1,a1
    98f0:	00a5f533          	and	a0,a1,a0
    98f4:	01954463          	blt	a0,s9,98fc <.LBB46_768>
    98f8:	0ff00513          	li	a0,255

00000000000098fc <.LBB46_768>:
    98fc:	000015b7          	lui	a1,0x1
    9900:	40b405b3          	sub	a1,s0,a1
    9904:	52a5b423          	sd	a0,1320(a1) # 1528 <.LBB46_4+0x3a0>
    9908:	00001537          	lui	a0,0x1
    990c:	40a40533          	sub	a0,s0,a0
    9910:	53853503          	ld	a0,1336(a0) # 1538 <.LBB46_4+0x3b0>
    9914:	03850533          	mul	a0,a0,s8
    9918:	000015b7          	lui	a1,0x1
    991c:	40b405b3          	sub	a1,s0,a1
    9920:	5305b583          	ld	a1,1328(a1) # 1530 <.LBB46_4+0x3a8>
    9924:	017585b3          	add	a1,a1,s7
    9928:	00b50533          	add	a0,a0,a1
    992c:	42455513          	srai	a0,a0,0x24
    9930:	00a025b3          	sgtz	a1,a0
    9934:	40b005b3          	neg	a1,a1
    9938:	00a5f533          	and	a0,a1,a0
    993c:	01954463          	blt	a0,s9,9944 <.LBB46_770>
    9940:	0ff00513          	li	a0,255

0000000000009944 <.LBB46_770>:
    9944:	000015b7          	lui	a1,0x1
    9948:	40b405b3          	sub	a1,s0,a1
    994c:	52a5bc23          	sd	a0,1336(a1) # 1538 <.LBB46_4+0x3b0>
    9950:	00001537          	lui	a0,0x1
    9954:	40a40533          	sub	a0,s0,a0
    9958:	54853503          	ld	a0,1352(a0) # 1548 <.LBB46_4+0x3c0>
    995c:	03850533          	mul	a0,a0,s8
    9960:	000015b7          	lui	a1,0x1
    9964:	40b405b3          	sub	a1,s0,a1
    9968:	5405b583          	ld	a1,1344(a1) # 1540 <.LBB46_4+0x3b8>
    996c:	017585b3          	add	a1,a1,s7
    9970:	00b50533          	add	a0,a0,a1
    9974:	42455513          	srai	a0,a0,0x24
    9978:	00a025b3          	sgtz	a1,a0
    997c:	40b005b3          	neg	a1,a1
    9980:	00a5f533          	and	a0,a1,a0
    9984:	01954463          	blt	a0,s9,998c <.LBB46_772>
    9988:	0ff00513          	li	a0,255

000000000000998c <.LBB46_772>:
    998c:	000015b7          	lui	a1,0x1
    9990:	40b405b3          	sub	a1,s0,a1
    9994:	54a5b423          	sd	a0,1352(a1) # 1548 <.LBB46_4+0x3c0>
    9998:	00001537          	lui	a0,0x1
    999c:	40a40533          	sub	a0,s0,a0
    99a0:	55853503          	ld	a0,1368(a0) # 1558 <.LBB46_4+0x3d0>
    99a4:	03850533          	mul	a0,a0,s8
    99a8:	000015b7          	lui	a1,0x1
    99ac:	40b405b3          	sub	a1,s0,a1
    99b0:	5505b583          	ld	a1,1360(a1) # 1550 <.LBB46_4+0x3c8>
    99b4:	017585b3          	add	a1,a1,s7
    99b8:	00b50533          	add	a0,a0,a1
    99bc:	42455513          	srai	a0,a0,0x24
    99c0:	00a025b3          	sgtz	a1,a0
    99c4:	40b005b3          	neg	a1,a1
    99c8:	00a5f533          	and	a0,a1,a0
    99cc:	01954463          	blt	a0,s9,99d4 <.LBB46_774>
    99d0:	0ff00513          	li	a0,255

00000000000099d4 <.LBB46_774>:
    99d4:	000015b7          	lui	a1,0x1
    99d8:	40b405b3          	sub	a1,s0,a1
    99dc:	54a5bc23          	sd	a0,1368(a1) # 1558 <.LBB46_4+0x3d0>
    99e0:	00001537          	lui	a0,0x1
    99e4:	40a40533          	sub	a0,s0,a0
    99e8:	56853503          	ld	a0,1384(a0) # 1568 <.LBB46_4+0x3e0>
    99ec:	03850533          	mul	a0,a0,s8
    99f0:	000015b7          	lui	a1,0x1
    99f4:	40b405b3          	sub	a1,s0,a1
    99f8:	5605b583          	ld	a1,1376(a1) # 1560 <.LBB46_4+0x3d8>
    99fc:	017585b3          	add	a1,a1,s7
    9a00:	00b50533          	add	a0,a0,a1
    9a04:	42455513          	srai	a0,a0,0x24
    9a08:	00a025b3          	sgtz	a1,a0
    9a0c:	40b005b3          	neg	a1,a1
    9a10:	00a5f533          	and	a0,a1,a0
    9a14:	01954463          	blt	a0,s9,9a1c <.LBB46_776>
    9a18:	0ff00513          	li	a0,255

0000000000009a1c <.LBB46_776>:
    9a1c:	000015b7          	lui	a1,0x1
    9a20:	40b405b3          	sub	a1,s0,a1
    9a24:	56a5b423          	sd	a0,1384(a1) # 1568 <.LBB46_4+0x3e0>
    9a28:	00001537          	lui	a0,0x1
    9a2c:	40a40533          	sub	a0,s0,a0
    9a30:	57853503          	ld	a0,1400(a0) # 1578 <.LBB46_4+0x3f0>
    9a34:	03850533          	mul	a0,a0,s8
    9a38:	000015b7          	lui	a1,0x1
    9a3c:	40b405b3          	sub	a1,s0,a1
    9a40:	5705b583          	ld	a1,1392(a1) # 1570 <.LBB46_4+0x3e8>
    9a44:	017585b3          	add	a1,a1,s7
    9a48:	00b50533          	add	a0,a0,a1
    9a4c:	42455513          	srai	a0,a0,0x24
    9a50:	00a025b3          	sgtz	a1,a0
    9a54:	40b005b3          	neg	a1,a1
    9a58:	00a5f533          	and	a0,a1,a0
    9a5c:	01954463          	blt	a0,s9,9a64 <.LBB46_778>
    9a60:	0ff00513          	li	a0,255

0000000000009a64 <.LBB46_778>:
    9a64:	000015b7          	lui	a1,0x1
    9a68:	40b405b3          	sub	a1,s0,a1
    9a6c:	56a5bc23          	sd	a0,1400(a1) # 1578 <.LBB46_4+0x3f0>
    9a70:	00001537          	lui	a0,0x1
    9a74:	40a40533          	sub	a0,s0,a0
    9a78:	58853503          	ld	a0,1416(a0) # 1588 <.LBB46_4+0x400>
    9a7c:	03850533          	mul	a0,a0,s8
    9a80:	000015b7          	lui	a1,0x1
    9a84:	40b405b3          	sub	a1,s0,a1
    9a88:	5805b583          	ld	a1,1408(a1) # 1580 <.LBB46_4+0x3f8>
    9a8c:	017585b3          	add	a1,a1,s7
    9a90:	00b50533          	add	a0,a0,a1
    9a94:	42455513          	srai	a0,a0,0x24
    9a98:	00a025b3          	sgtz	a1,a0
    9a9c:	40b005b3          	neg	a1,a1
    9aa0:	00a5f533          	and	a0,a1,a0
    9aa4:	01954463          	blt	a0,s9,9aac <.LBB46_780>
    9aa8:	0ff00513          	li	a0,255

0000000000009aac <.LBB46_780>:
    9aac:	000015b7          	lui	a1,0x1
    9ab0:	40b405b3          	sub	a1,s0,a1
    9ab4:	58a5b423          	sd	a0,1416(a1) # 1588 <.LBB46_4+0x400>
    9ab8:	00001537          	lui	a0,0x1
    9abc:	40a40533          	sub	a0,s0,a0
    9ac0:	59853503          	ld	a0,1432(a0) # 1598 <.LBB46_4+0x410>
    9ac4:	03850533          	mul	a0,a0,s8
    9ac8:	000015b7          	lui	a1,0x1
    9acc:	40b405b3          	sub	a1,s0,a1
    9ad0:	5905b583          	ld	a1,1424(a1) # 1590 <.LBB46_4+0x408>
    9ad4:	017585b3          	add	a1,a1,s7
    9ad8:	00b50533          	add	a0,a0,a1
    9adc:	42455513          	srai	a0,a0,0x24
    9ae0:	00a025b3          	sgtz	a1,a0
    9ae4:	40b005b3          	neg	a1,a1
    9ae8:	00a5f533          	and	a0,a1,a0
    9aec:	01954463          	blt	a0,s9,9af4 <.LBB46_782>
    9af0:	0ff00513          	li	a0,255

0000000000009af4 <.LBB46_782>:
    9af4:	000015b7          	lui	a1,0x1
    9af8:	40b405b3          	sub	a1,s0,a1
    9afc:	58a5bc23          	sd	a0,1432(a1) # 1598 <.LBB46_4+0x410>
    9b00:	00001537          	lui	a0,0x1
    9b04:	40a40533          	sub	a0,s0,a0
    9b08:	5a853503          	ld	a0,1448(a0) # 15a8 <.LBB46_4+0x420>
    9b0c:	03850533          	mul	a0,a0,s8
    9b10:	000015b7          	lui	a1,0x1
    9b14:	40b405b3          	sub	a1,s0,a1
    9b18:	5a05b583          	ld	a1,1440(a1) # 15a0 <.LBB46_4+0x418>
    9b1c:	017585b3          	add	a1,a1,s7
    9b20:	00b50533          	add	a0,a0,a1
    9b24:	42455513          	srai	a0,a0,0x24
    9b28:	00a025b3          	sgtz	a1,a0
    9b2c:	40b005b3          	neg	a1,a1
    9b30:	00a5f533          	and	a0,a1,a0
    9b34:	01954463          	blt	a0,s9,9b3c <.LBB46_784>
    9b38:	0ff00513          	li	a0,255

0000000000009b3c <.LBB46_784>:
    9b3c:	000015b7          	lui	a1,0x1
    9b40:	40b405b3          	sub	a1,s0,a1
    9b44:	5aa5b423          	sd	a0,1448(a1) # 15a8 <.LBB46_4+0x420>
    9b48:	00001537          	lui	a0,0x1
    9b4c:	40a40533          	sub	a0,s0,a0
    9b50:	5b853503          	ld	a0,1464(a0) # 15b8 <.LBB46_4+0x430>
    9b54:	03850533          	mul	a0,a0,s8
    9b58:	000015b7          	lui	a1,0x1
    9b5c:	40b405b3          	sub	a1,s0,a1
    9b60:	5b05b583          	ld	a1,1456(a1) # 15b0 <.LBB46_4+0x428>
    9b64:	017585b3          	add	a1,a1,s7
    9b68:	00b50533          	add	a0,a0,a1
    9b6c:	42455513          	srai	a0,a0,0x24
    9b70:	00a025b3          	sgtz	a1,a0
    9b74:	40b005b3          	neg	a1,a1
    9b78:	00a5f533          	and	a0,a1,a0
    9b7c:	01954463          	blt	a0,s9,9b84 <.LBB46_786>
    9b80:	0ff00513          	li	a0,255

0000000000009b84 <.LBB46_786>:
    9b84:	000015b7          	lui	a1,0x1
    9b88:	40b405b3          	sub	a1,s0,a1
    9b8c:	5aa5bc23          	sd	a0,1464(a1) # 15b8 <.LBB46_4+0x430>
    9b90:	00001537          	lui	a0,0x1
    9b94:	40a40533          	sub	a0,s0,a0
    9b98:	5c853503          	ld	a0,1480(a0) # 15c8 <.LBB46_4+0x440>
    9b9c:	03850533          	mul	a0,a0,s8
    9ba0:	000015b7          	lui	a1,0x1
    9ba4:	40b405b3          	sub	a1,s0,a1
    9ba8:	5c05b583          	ld	a1,1472(a1) # 15c0 <.LBB46_4+0x438>
    9bac:	017585b3          	add	a1,a1,s7
    9bb0:	00b50533          	add	a0,a0,a1
    9bb4:	42455513          	srai	a0,a0,0x24
    9bb8:	00a025b3          	sgtz	a1,a0
    9bbc:	40b005b3          	neg	a1,a1
    9bc0:	00a5f533          	and	a0,a1,a0
    9bc4:	01954463          	blt	a0,s9,9bcc <.LBB46_788>
    9bc8:	0ff00513          	li	a0,255

0000000000009bcc <.LBB46_788>:
    9bcc:	000015b7          	lui	a1,0x1
    9bd0:	40b405b3          	sub	a1,s0,a1
    9bd4:	5ca5b423          	sd	a0,1480(a1) # 15c8 <.LBB46_4+0x440>
    9bd8:	00001537          	lui	a0,0x1
    9bdc:	40a40533          	sub	a0,s0,a0
    9be0:	5d853503          	ld	a0,1496(a0) # 15d8 <.LBB46_4+0x450>
    9be4:	03850533          	mul	a0,a0,s8
    9be8:	000015b7          	lui	a1,0x1
    9bec:	40b405b3          	sub	a1,s0,a1
    9bf0:	5d05b583          	ld	a1,1488(a1) # 15d0 <.LBB46_4+0x448>
    9bf4:	017585b3          	add	a1,a1,s7
    9bf8:	00b50533          	add	a0,a0,a1
    9bfc:	42455513          	srai	a0,a0,0x24
    9c00:	00a025b3          	sgtz	a1,a0
    9c04:	40b005b3          	neg	a1,a1
    9c08:	00a5f533          	and	a0,a1,a0
    9c0c:	01954463          	blt	a0,s9,9c14 <.LBB46_790>
    9c10:	0ff00513          	li	a0,255

0000000000009c14 <.LBB46_790>:
    9c14:	000015b7          	lui	a1,0x1
    9c18:	40b405b3          	sub	a1,s0,a1
    9c1c:	5ca5bc23          	sd	a0,1496(a1) # 15d8 <.LBB46_4+0x450>
    9c20:	00001537          	lui	a0,0x1
    9c24:	40a40533          	sub	a0,s0,a0
    9c28:	5e853503          	ld	a0,1512(a0) # 15e8 <.LBB46_4+0x460>
    9c2c:	03850533          	mul	a0,a0,s8
    9c30:	000015b7          	lui	a1,0x1
    9c34:	40b405b3          	sub	a1,s0,a1
    9c38:	5e05b583          	ld	a1,1504(a1) # 15e0 <.LBB46_4+0x458>
    9c3c:	017585b3          	add	a1,a1,s7
    9c40:	00b50533          	add	a0,a0,a1
    9c44:	42455513          	srai	a0,a0,0x24
    9c48:	00a025b3          	sgtz	a1,a0
    9c4c:	40b005b3          	neg	a1,a1
    9c50:	00a5f533          	and	a0,a1,a0
    9c54:	01954463          	blt	a0,s9,9c5c <.LBB46_792>
    9c58:	0ff00513          	li	a0,255

0000000000009c5c <.LBB46_792>:
    9c5c:	000015b7          	lui	a1,0x1
    9c60:	40b405b3          	sub	a1,s0,a1
    9c64:	5ea5b423          	sd	a0,1512(a1) # 15e8 <.LBB46_4+0x460>
    9c68:	00001537          	lui	a0,0x1
    9c6c:	40a40533          	sub	a0,s0,a0
    9c70:	5f853503          	ld	a0,1528(a0) # 15f8 <.LBB46_4+0x470>
    9c74:	03850533          	mul	a0,a0,s8
    9c78:	000015b7          	lui	a1,0x1
    9c7c:	40b405b3          	sub	a1,s0,a1
    9c80:	5f05b583          	ld	a1,1520(a1) # 15f0 <.LBB46_4+0x468>
    9c84:	017585b3          	add	a1,a1,s7
    9c88:	00b50533          	add	a0,a0,a1
    9c8c:	42455513          	srai	a0,a0,0x24
    9c90:	00a025b3          	sgtz	a1,a0
    9c94:	40b005b3          	neg	a1,a1
    9c98:	00a5f533          	and	a0,a1,a0
    9c9c:	01954463          	blt	a0,s9,9ca4 <.LBB46_794>
    9ca0:	0ff00513          	li	a0,255

0000000000009ca4 <.LBB46_794>:
    9ca4:	000015b7          	lui	a1,0x1
    9ca8:	40b405b3          	sub	a1,s0,a1
    9cac:	5ea5bc23          	sd	a0,1528(a1) # 15f8 <.LBB46_4+0x470>
    9cb0:	00001537          	lui	a0,0x1
    9cb4:	40a40533          	sub	a0,s0,a0
    9cb8:	60853503          	ld	a0,1544(a0) # 1608 <.LBB46_4+0x480>
    9cbc:	03850533          	mul	a0,a0,s8
    9cc0:	000015b7          	lui	a1,0x1
    9cc4:	40b405b3          	sub	a1,s0,a1
    9cc8:	6005b583          	ld	a1,1536(a1) # 1600 <.LBB46_4+0x478>
    9ccc:	017585b3          	add	a1,a1,s7
    9cd0:	00b50533          	add	a0,a0,a1
    9cd4:	42455513          	srai	a0,a0,0x24
    9cd8:	00a025b3          	sgtz	a1,a0
    9cdc:	40b005b3          	neg	a1,a1
    9ce0:	00a5f533          	and	a0,a1,a0
    9ce4:	01954463          	blt	a0,s9,9cec <.LBB46_796>
    9ce8:	0ff00513          	li	a0,255

0000000000009cec <.LBB46_796>:
    9cec:	000015b7          	lui	a1,0x1
    9cf0:	40b405b3          	sub	a1,s0,a1
    9cf4:	60a5b423          	sd	a0,1544(a1) # 1608 <.LBB46_4+0x480>
    9cf8:	00001537          	lui	a0,0x1
    9cfc:	40a40533          	sub	a0,s0,a0
    9d00:	61853503          	ld	a0,1560(a0) # 1618 <.LBB46_4+0x490>
    9d04:	03850533          	mul	a0,a0,s8
    9d08:	000015b7          	lui	a1,0x1
    9d0c:	40b405b3          	sub	a1,s0,a1
    9d10:	6105b583          	ld	a1,1552(a1) # 1610 <.LBB46_4+0x488>
    9d14:	017585b3          	add	a1,a1,s7
    9d18:	00b50533          	add	a0,a0,a1
    9d1c:	42455513          	srai	a0,a0,0x24
    9d20:	00a025b3          	sgtz	a1,a0
    9d24:	40b005b3          	neg	a1,a1
    9d28:	00a5f533          	and	a0,a1,a0
    9d2c:	01954463          	blt	a0,s9,9d34 <.LBB46_798>
    9d30:	0ff00513          	li	a0,255

0000000000009d34 <.LBB46_798>:
    9d34:	000015b7          	lui	a1,0x1
    9d38:	40b405b3          	sub	a1,s0,a1
    9d3c:	60a5bc23          	sd	a0,1560(a1) # 1618 <.LBB46_4+0x490>
    9d40:	00001537          	lui	a0,0x1
    9d44:	40a40533          	sub	a0,s0,a0
    9d48:	62853503          	ld	a0,1576(a0) # 1628 <.LBB46_4+0x4a0>
    9d4c:	03850533          	mul	a0,a0,s8
    9d50:	000015b7          	lui	a1,0x1
    9d54:	40b405b3          	sub	a1,s0,a1
    9d58:	6205b583          	ld	a1,1568(a1) # 1620 <.LBB46_4+0x498>
    9d5c:	017585b3          	add	a1,a1,s7
    9d60:	00b50533          	add	a0,a0,a1
    9d64:	42455513          	srai	a0,a0,0x24
    9d68:	00a025b3          	sgtz	a1,a0
    9d6c:	40b005b3          	neg	a1,a1
    9d70:	00a5f533          	and	a0,a1,a0
    9d74:	01954463          	blt	a0,s9,9d7c <.LBB46_800>
    9d78:	0ff00513          	li	a0,255

0000000000009d7c <.LBB46_800>:
    9d7c:	000015b7          	lui	a1,0x1
    9d80:	40b405b3          	sub	a1,s0,a1
    9d84:	62a5b423          	sd	a0,1576(a1) # 1628 <.LBB46_4+0x4a0>
    9d88:	00001537          	lui	a0,0x1
    9d8c:	40a40533          	sub	a0,s0,a0
    9d90:	63853503          	ld	a0,1592(a0) # 1638 <.LBB46_4+0x4b0>
    9d94:	03850533          	mul	a0,a0,s8
    9d98:	000015b7          	lui	a1,0x1
    9d9c:	40b405b3          	sub	a1,s0,a1
    9da0:	6305b583          	ld	a1,1584(a1) # 1630 <.LBB46_4+0x4a8>
    9da4:	017585b3          	add	a1,a1,s7
    9da8:	00b50533          	add	a0,a0,a1
    9dac:	42455513          	srai	a0,a0,0x24
    9db0:	00a025b3          	sgtz	a1,a0
    9db4:	40b005b3          	neg	a1,a1
    9db8:	00a5f533          	and	a0,a1,a0
    9dbc:	01954463          	blt	a0,s9,9dc4 <.LBB46_802>
    9dc0:	0ff00513          	li	a0,255

0000000000009dc4 <.LBB46_802>:
    9dc4:	000015b7          	lui	a1,0x1
    9dc8:	40b405b3          	sub	a1,s0,a1
    9dcc:	62a5bc23          	sd	a0,1592(a1) # 1638 <.LBB46_4+0x4b0>
    9dd0:	00001537          	lui	a0,0x1
    9dd4:	40a40533          	sub	a0,s0,a0
    9dd8:	64853503          	ld	a0,1608(a0) # 1648 <.LBB46_4+0x4c0>
    9ddc:	03850533          	mul	a0,a0,s8
    9de0:	000015b7          	lui	a1,0x1
    9de4:	40b405b3          	sub	a1,s0,a1
    9de8:	6405b583          	ld	a1,1600(a1) # 1640 <.LBB46_4+0x4b8>
    9dec:	017585b3          	add	a1,a1,s7
    9df0:	00b50533          	add	a0,a0,a1
    9df4:	42455513          	srai	a0,a0,0x24
    9df8:	00a025b3          	sgtz	a1,a0
    9dfc:	40b005b3          	neg	a1,a1
    9e00:	00a5f533          	and	a0,a1,a0
    9e04:	01954463          	blt	a0,s9,9e0c <.LBB46_804>
    9e08:	0ff00513          	li	a0,255

0000000000009e0c <.LBB46_804>:
    9e0c:	000015b7          	lui	a1,0x1
    9e10:	40b405b3          	sub	a1,s0,a1
    9e14:	64a5b423          	sd	a0,1608(a1) # 1648 <.LBB46_4+0x4c0>
    9e18:	00001537          	lui	a0,0x1
    9e1c:	40a40533          	sub	a0,s0,a0
    9e20:	67053503          	ld	a0,1648(a0) # 1670 <.LBB46_4+0x4e8>
    9e24:	03850533          	mul	a0,a0,s8
    9e28:	b1043583          	ld	a1,-1264(s0)
    9e2c:	017585b3          	add	a1,a1,s7
    9e30:	00b50533          	add	a0,a0,a1
    9e34:	42455513          	srai	a0,a0,0x24
    9e38:	00a025b3          	sgtz	a1,a0
    9e3c:	40b005b3          	neg	a1,a1
    9e40:	00a5f533          	and	a0,a1,a0
    9e44:	01954463          	blt	a0,s9,9e4c <.LBB46_806>
    9e48:	0ff00513          	li	a0,255

0000000000009e4c <.LBB46_806>:
    9e4c:	b0a43823          	sd	a0,-1264(s0)
    9e50:	00001537          	lui	a0,0x1
    9e54:	40a40533          	sub	a0,s0,a0
    9e58:	68053503          	ld	a0,1664(a0) # 1680 <.LBB46_4+0x4f8>
    9e5c:	03850533          	mul	a0,a0,s8
    9e60:	000015b7          	lui	a1,0x1
    9e64:	40b405b3          	sub	a1,s0,a1
    9e68:	6785b583          	ld	a1,1656(a1) # 1678 <.LBB46_4+0x4f0>
    9e6c:	017585b3          	add	a1,a1,s7
    9e70:	00b50533          	add	a0,a0,a1
    9e74:	42455513          	srai	a0,a0,0x24
    9e78:	00a025b3          	sgtz	a1,a0
    9e7c:	40b005b3          	neg	a1,a1
    9e80:	00a5f533          	and	a0,a1,a0
    9e84:	01954463          	blt	a0,s9,9e8c <.LBB46_808>
    9e88:	0ff00513          	li	a0,255

0000000000009e8c <.LBB46_808>:
    9e8c:	000015b7          	lui	a1,0x1
    9e90:	40b405b3          	sub	a1,s0,a1
    9e94:	68a5b023          	sd	a0,1664(a1) # 1680 <.LBB46_4+0x4f8>
    9e98:	00001537          	lui	a0,0x1
    9e9c:	40a40533          	sub	a0,s0,a0
    9ea0:	69853503          	ld	a0,1688(a0) # 1698 <.LBB46_4+0x510>
    9ea4:	03850533          	mul	a0,a0,s8
    9ea8:	b2043583          	ld	a1,-1248(s0)
    9eac:	017585b3          	add	a1,a1,s7
    9eb0:	00b50533          	add	a0,a0,a1
    9eb4:	42455513          	srai	a0,a0,0x24
    9eb8:	00a025b3          	sgtz	a1,a0
    9ebc:	40b005b3          	neg	a1,a1
    9ec0:	00a5f533          	and	a0,a1,a0
    9ec4:	01954463          	blt	a0,s9,9ecc <.LBB46_810>
    9ec8:	0ff00513          	li	a0,255

0000000000009ecc <.LBB46_810>:
    9ecc:	b2a43023          	sd	a0,-1248(s0)
    9ed0:	00001537          	lui	a0,0x1
    9ed4:	40a40533          	sub	a0,s0,a0
    9ed8:	7a053503          	ld	a0,1952(a0) # 17a0 <.LBB46_5+0x84>
    9edc:	03850533          	mul	a0,a0,s8
    9ee0:	000015b7          	lui	a1,0x1
    9ee4:	40b405b3          	sub	a1,s0,a1
    9ee8:	7985b583          	ld	a1,1944(a1) # 1798 <.LBB46_5+0x7c>
    9eec:	017585b3          	add	a1,a1,s7
    9ef0:	00b50533          	add	a0,a0,a1
    9ef4:	42455513          	srai	a0,a0,0x24
    9ef8:	00a025b3          	sgtz	a1,a0
    9efc:	40b005b3          	neg	a1,a1
    9f00:	00a5f533          	and	a0,a1,a0
    9f04:	01954463          	blt	a0,s9,9f0c <.LBB46_812>
    9f08:	0ff00513          	li	a0,255

0000000000009f0c <.LBB46_812>:
    9f0c:	000015b7          	lui	a1,0x1
    9f10:	40b405b3          	sub	a1,s0,a1
    9f14:	7aa5b023          	sd	a0,1952(a1) # 17a0 <.LBB46_5+0x84>
    9f18:	00001537          	lui	a0,0x1
    9f1c:	40a40533          	sub	a0,s0,a0
    9f20:	7b053503          	ld	a0,1968(a0) # 17b0 <.LBB46_5+0x94>
    9f24:	03850533          	mul	a0,a0,s8
    9f28:	000015b7          	lui	a1,0x1
    9f2c:	40b405b3          	sub	a1,s0,a1
    9f30:	7a85b583          	ld	a1,1960(a1) # 17a8 <.LBB46_5+0x8c>
    9f34:	017585b3          	add	a1,a1,s7
    9f38:	00b50533          	add	a0,a0,a1
    9f3c:	42455513          	srai	a0,a0,0x24
    9f40:	00a025b3          	sgtz	a1,a0
    9f44:	40b005b3          	neg	a1,a1
    9f48:	00a5f533          	and	a0,a1,a0
    9f4c:	01954463          	blt	a0,s9,9f54 <.LBB46_814>
    9f50:	0ff00513          	li	a0,255

0000000000009f54 <.LBB46_814>:
    9f54:	000015b7          	lui	a1,0x1
    9f58:	40b405b3          	sub	a1,s0,a1
    9f5c:	7aa5b823          	sd	a0,1968(a1) # 17b0 <.LBB46_5+0x94>
    9f60:	00001537          	lui	a0,0x1
    9f64:	40a40533          	sub	a0,s0,a0
    9f68:	7c053503          	ld	a0,1984(a0) # 17c0 <.LBB46_5+0xa4>
    9f6c:	03850533          	mul	a0,a0,s8
    9f70:	000015b7          	lui	a1,0x1
    9f74:	40b405b3          	sub	a1,s0,a1
    9f78:	7b85b583          	ld	a1,1976(a1) # 17b8 <.LBB46_5+0x9c>
    9f7c:	017585b3          	add	a1,a1,s7
    9f80:	00b50533          	add	a0,a0,a1
    9f84:	42455513          	srai	a0,a0,0x24
    9f88:	00a025b3          	sgtz	a1,a0
    9f8c:	40b005b3          	neg	a1,a1
    9f90:	00a5f533          	and	a0,a1,a0
    9f94:	01954463          	blt	a0,s9,9f9c <.LBB46_816>
    9f98:	0ff00513          	li	a0,255

0000000000009f9c <.LBB46_816>:
    9f9c:	000015b7          	lui	a1,0x1
    9fa0:	40b405b3          	sub	a1,s0,a1
    9fa4:	7ca5b023          	sd	a0,1984(a1) # 17c0 <.LBB46_5+0xa4>
    9fa8:	00001537          	lui	a0,0x1
    9fac:	40a40533          	sub	a0,s0,a0
    9fb0:	7d853503          	ld	a0,2008(a0) # 17d8 <.LBB46_5+0xbc>
    9fb4:	03850533          	mul	a0,a0,s8
    9fb8:	000015b7          	lui	a1,0x1
    9fbc:	40b405b3          	sub	a1,s0,a1
    9fc0:	7c85b583          	ld	a1,1992(a1) # 17c8 <.LBB46_5+0xac>
    9fc4:	017585b3          	add	a1,a1,s7
    9fc8:	00b50533          	add	a0,a0,a1
    9fcc:	42455513          	srai	a0,a0,0x24
    9fd0:	00a025b3          	sgtz	a1,a0
    9fd4:	40b005b3          	neg	a1,a1
    9fd8:	00a5f533          	and	a0,a1,a0
    9fdc:	01954463          	blt	a0,s9,9fe4 <.LBB46_818>
    9fe0:	0ff00513          	li	a0,255

0000000000009fe4 <.LBB46_818>:
    9fe4:	000015b7          	lui	a1,0x1
    9fe8:	40b405b3          	sub	a1,s0,a1
    9fec:	7ca5bc23          	sd	a0,2008(a1) # 17d8 <.LBB46_5+0xbc>
    9ff0:	00001537          	lui	a0,0x1
    9ff4:	40a40533          	sub	a0,s0,a0
    9ff8:	7e853503          	ld	a0,2024(a0) # 17e8 <.LBB46_5+0xcc>
    9ffc:	03850533          	mul	a0,a0,s8
    a000:	000015b7          	lui	a1,0x1
    a004:	40b405b3          	sub	a1,s0,a1
    a008:	7e05b583          	ld	a1,2016(a1) # 17e0 <.LBB46_5+0xc4>
    a00c:	017585b3          	add	a1,a1,s7
    a010:	00b50533          	add	a0,a0,a1
    a014:	42455513          	srai	a0,a0,0x24
    a018:	00a025b3          	sgtz	a1,a0
    a01c:	40b005b3          	neg	a1,a1
    a020:	00a5f533          	and	a0,a1,a0
    a024:	01954463          	blt	a0,s9,a02c <.LBB46_820>
    a028:	0ff00513          	li	a0,255

000000000000a02c <.LBB46_820>:
    a02c:	000015b7          	lui	a1,0x1
    a030:	40b405b3          	sub	a1,s0,a1
    a034:	7ea5b423          	sd	a0,2024(a1) # 17e8 <.LBB46_5+0xcc>
    a038:	00001537          	lui	a0,0x1
    a03c:	40a40533          	sub	a0,s0,a0
    a040:	7f053503          	ld	a0,2032(a0) # 17f0 <.LBB46_5+0xd4>
    a044:	03850533          	mul	a0,a0,s8
    a048:	b5043583          	ld	a1,-1200(s0)
    a04c:	017585b3          	add	a1,a1,s7
    a050:	00b50533          	add	a0,a0,a1
    a054:	42455513          	srai	a0,a0,0x24
    a058:	00a025b3          	sgtz	a1,a0
    a05c:	40b005b3          	neg	a1,a1
    a060:	00a5f533          	and	a0,a1,a0
    a064:	01954463          	blt	a0,s9,a06c <.LBB46_822>
    a068:	0ff00513          	li	a0,255

000000000000a06c <.LBB46_822>:
    a06c:	b4a43823          	sd	a0,-1200(s0)
    a070:	80043503          	ld	a0,-2048(s0)
    a074:	03850533          	mul	a0,a0,s8
    a078:	000015b7          	lui	a1,0x1
    a07c:	40b405b3          	sub	a1,s0,a1
    a080:	7f85b583          	ld	a1,2040(a1) # 17f8 <.LBB46_5+0xdc>
    a084:	017585b3          	add	a1,a1,s7
    a088:	00b50533          	add	a0,a0,a1
    a08c:	42455513          	srai	a0,a0,0x24
    a090:	00a025b3          	sgtz	a1,a0
    a094:	40b005b3          	neg	a1,a1
    a098:	00a5f533          	and	a0,a1,a0
    a09c:	01954463          	blt	a0,s9,a0a4 <.LBB46_824>
    a0a0:	0ff00513          	li	a0,255

000000000000a0a4 <.LBB46_824>:
    a0a4:	80a43023          	sd	a0,-2048(s0)
    a0a8:	81843503          	ld	a0,-2024(s0)
    a0ac:	03850533          	mul	a0,a0,s8
    a0b0:	81043583          	ld	a1,-2032(s0)
    a0b4:	017585b3          	add	a1,a1,s7
    a0b8:	00b50533          	add	a0,a0,a1
    a0bc:	42455513          	srai	a0,a0,0x24
    a0c0:	00a025b3          	sgtz	a1,a0
    a0c4:	40b005b3          	neg	a1,a1
    a0c8:	00a5f533          	and	a0,a1,a0
    a0cc:	01954463          	blt	a0,s9,a0d4 <.LBB46_826>
    a0d0:	0ff00513          	li	a0,255

000000000000a0d4 <.LBB46_826>:
    a0d4:	80a43c23          	sd	a0,-2024(s0)
    a0d8:	82843503          	ld	a0,-2008(s0)
    a0dc:	03850533          	mul	a0,a0,s8
    a0e0:	82043583          	ld	a1,-2016(s0)
    a0e4:	017585b3          	add	a1,a1,s7
    a0e8:	00b50533          	add	a0,a0,a1
    a0ec:	42455513          	srai	a0,a0,0x24
    a0f0:	00a025b3          	sgtz	a1,a0
    a0f4:	40b005b3          	neg	a1,a1
    a0f8:	00a5f533          	and	a0,a1,a0
    a0fc:	01954463          	blt	a0,s9,a104 <.LBB46_828>
    a100:	0ff00513          	li	a0,255

000000000000a104 <.LBB46_828>:
    a104:	82a43423          	sd	a0,-2008(s0)
    a108:	83843503          	ld	a0,-1992(s0)
    a10c:	03850533          	mul	a0,a0,s8
    a110:	83043583          	ld	a1,-2000(s0)
    a114:	017585b3          	add	a1,a1,s7
    a118:	00b50533          	add	a0,a0,a1
    a11c:	42455513          	srai	a0,a0,0x24
    a120:	00a025b3          	sgtz	a1,a0
    a124:	40b005b3          	neg	a1,a1
    a128:	00a5f533          	and	a0,a1,a0
    a12c:	01954463          	blt	a0,s9,a134 <.LBB46_830>
    a130:	0ff00513          	li	a0,255

000000000000a134 <.LBB46_830>:
    a134:	82a43c23          	sd	a0,-1992(s0)
    a138:	84843503          	ld	a0,-1976(s0)
    a13c:	03850533          	mul	a0,a0,s8
    a140:	84043583          	ld	a1,-1984(s0)
    a144:	017585b3          	add	a1,a1,s7
    a148:	00b50533          	add	a0,a0,a1
    a14c:	42455513          	srai	a0,a0,0x24
    a150:	00a025b3          	sgtz	a1,a0
    a154:	40b005b3          	neg	a1,a1
    a158:	00a5f533          	and	a0,a1,a0
    a15c:	01954463          	blt	a0,s9,a164 <.LBB46_832>
    a160:	0ff00513          	li	a0,255

000000000000a164 <.LBB46_832>:
    a164:	84a43423          	sd	a0,-1976(s0)
    a168:	86043503          	ld	a0,-1952(s0)
    a16c:	03850533          	mul	a0,a0,s8
    a170:	85843583          	ld	a1,-1960(s0)
    a174:	017585b3          	add	a1,a1,s7
    a178:	00b50533          	add	a0,a0,a1
    a17c:	42455513          	srai	a0,a0,0x24
    a180:	00a025b3          	sgtz	a1,a0
    a184:	40b005b3          	neg	a1,a1
    a188:	00a5f533          	and	a0,a1,a0
    a18c:	01954463          	blt	a0,s9,a194 <.LBB46_834>
    a190:	0ff00513          	li	a0,255

000000000000a194 <.LBB46_834>:
    a194:	86a43023          	sd	a0,-1952(s0)
    a198:	87043503          	ld	a0,-1936(s0)
    a19c:	03850533          	mul	a0,a0,s8
    a1a0:	86843583          	ld	a1,-1944(s0)
    a1a4:	017585b3          	add	a1,a1,s7
    a1a8:	00b50533          	add	a0,a0,a1
    a1ac:	42455513          	srai	a0,a0,0x24
    a1b0:	00a025b3          	sgtz	a1,a0
    a1b4:	40b005b3          	neg	a1,a1
    a1b8:	00a5f533          	and	a0,a1,a0
    a1bc:	01954463          	blt	a0,s9,a1c4 <.LBB46_836>
    a1c0:	0ff00513          	li	a0,255

000000000000a1c4 <.LBB46_836>:
    a1c4:	86a43823          	sd	a0,-1936(s0)
    a1c8:	88043503          	ld	a0,-1920(s0)
    a1cc:	03850533          	mul	a0,a0,s8
    a1d0:	87843583          	ld	a1,-1928(s0)
    a1d4:	017585b3          	add	a1,a1,s7
    a1d8:	00b50533          	add	a0,a0,a1
    a1dc:	42455513          	srai	a0,a0,0x24
    a1e0:	00a025b3          	sgtz	a1,a0
    a1e4:	40b005b3          	neg	a1,a1
    a1e8:	00a5f533          	and	a0,a1,a0
    a1ec:	01954463          	blt	a0,s9,a1f4 <.LBB46_838>
    a1f0:	0ff00513          	li	a0,255

000000000000a1f4 <.LBB46_838>:
    a1f4:	88a43023          	sd	a0,-1920(s0)
    a1f8:	89843503          	ld	a0,-1896(s0)
    a1fc:	03850533          	mul	a0,a0,s8
    a200:	88843583          	ld	a1,-1912(s0)
    a204:	017585b3          	add	a1,a1,s7
    a208:	00b50533          	add	a0,a0,a1
    a20c:	42455513          	srai	a0,a0,0x24
    a210:	00a025b3          	sgtz	a1,a0
    a214:	40b005b3          	neg	a1,a1
    a218:	00a5f533          	and	a0,a1,a0
    a21c:	01954463          	blt	a0,s9,a224 <.LBB46_840>
    a220:	0ff00513          	li	a0,255

000000000000a224 <.LBB46_840>:
    a224:	88a43c23          	sd	a0,-1896(s0)
    a228:	8a843503          	ld	a0,-1880(s0)
    a22c:	03850533          	mul	a0,a0,s8
    a230:	8a043583          	ld	a1,-1888(s0)
    a234:	017585b3          	add	a1,a1,s7
    a238:	00b50533          	add	a0,a0,a1
    a23c:	42455513          	srai	a0,a0,0x24
    a240:	00a025b3          	sgtz	a1,a0
    a244:	40b005b3          	neg	a1,a1
    a248:	00a5f533          	and	a0,a1,a0
    a24c:	01954463          	blt	a0,s9,a254 <.LBB46_842>
    a250:	0ff00513          	li	a0,255

000000000000a254 <.LBB46_842>:
    a254:	8aa43423          	sd	a0,-1880(s0)
    a258:	8b843503          	ld	a0,-1864(s0)
    a25c:	03850533          	mul	a0,a0,s8
    a260:	8b043583          	ld	a1,-1872(s0)
    a264:	017585b3          	add	a1,a1,s7
    a268:	00b50533          	add	a0,a0,a1
    a26c:	42455513          	srai	a0,a0,0x24
    a270:	00a025b3          	sgtz	a1,a0
    a274:	40b005b3          	neg	a1,a1
    a278:	00a5f533          	and	a0,a1,a0
    a27c:	01954463          	blt	a0,s9,a284 <.LBB46_844>
    a280:	0ff00513          	li	a0,255

000000000000a284 <.LBB46_844>:
    a284:	8aa43c23          	sd	a0,-1864(s0)
    a288:	8c843503          	ld	a0,-1848(s0)
    a28c:	03850533          	mul	a0,a0,s8
    a290:	8c043583          	ld	a1,-1856(s0)
    a294:	017585b3          	add	a1,a1,s7
    a298:	00b50533          	add	a0,a0,a1
    a29c:	42455513          	srai	a0,a0,0x24
    a2a0:	00a025b3          	sgtz	a1,a0
    a2a4:	40b005b3          	neg	a1,a1
    a2a8:	00a5f533          	and	a0,a1,a0
    a2ac:	01954463          	blt	a0,s9,a2b4 <.LBB46_846>
    a2b0:	0ff00513          	li	a0,255

000000000000a2b4 <.LBB46_846>:
    a2b4:	8ca43423          	sd	a0,-1848(s0)
    a2b8:	8e043503          	ld	a0,-1824(s0)
    a2bc:	03850533          	mul	a0,a0,s8
    a2c0:	8d843583          	ld	a1,-1832(s0)
    a2c4:	017585b3          	add	a1,a1,s7
    a2c8:	00b50533          	add	a0,a0,a1
    a2cc:	42455513          	srai	a0,a0,0x24
    a2d0:	00a025b3          	sgtz	a1,a0
    a2d4:	40b005b3          	neg	a1,a1
    a2d8:	00a5f533          	and	a0,a1,a0
    a2dc:	01954463          	blt	a0,s9,a2e4 <.LBB46_848>
    a2e0:	0ff00513          	li	a0,255

000000000000a2e4 <.LBB46_848>:
    a2e4:	8ea43023          	sd	a0,-1824(s0)
    a2e8:	8f043503          	ld	a0,-1808(s0)
    a2ec:	03850533          	mul	a0,a0,s8
    a2f0:	8e843583          	ld	a1,-1816(s0)
    a2f4:	017585b3          	add	a1,a1,s7
    a2f8:	00b50533          	add	a0,a0,a1
    a2fc:	42455513          	srai	a0,a0,0x24
    a300:	00a025b3          	sgtz	a1,a0
    a304:	40b005b3          	neg	a1,a1
    a308:	00a5f533          	and	a0,a1,a0
    a30c:	01954463          	blt	a0,s9,a314 <.LBB46_850>
    a310:	0ff00513          	li	a0,255

000000000000a314 <.LBB46_850>:
    a314:	8ea43823          	sd	a0,-1808(s0)
    a318:	90043503          	ld	a0,-1792(s0)
    a31c:	03850533          	mul	a0,a0,s8
    a320:	8f843583          	ld	a1,-1800(s0)
    a324:	017585b3          	add	a1,a1,s7
    a328:	00b50533          	add	a0,a0,a1
    a32c:	42455513          	srai	a0,a0,0x24
    a330:	00a025b3          	sgtz	a1,a0
    a334:	40b005b3          	neg	a1,a1
    a338:	00a5f533          	and	a0,a1,a0
    a33c:	01954463          	blt	a0,s9,a344 <.LBB46_852>
    a340:	0ff00513          	li	a0,255

000000000000a344 <.LBB46_852>:
    a344:	90a43023          	sd	a0,-1792(s0)
    a348:	91043503          	ld	a0,-1776(s0)
    a34c:	03850533          	mul	a0,a0,s8
    a350:	90843583          	ld	a1,-1784(s0)
    a354:	017585b3          	add	a1,a1,s7
    a358:	00b50533          	add	a0,a0,a1
    a35c:	42455513          	srai	a0,a0,0x24
    a360:	00a025b3          	sgtz	a1,a0
    a364:	40b005b3          	neg	a1,a1
    a368:	00a5f533          	and	a0,a1,a0
    a36c:	01954463          	blt	a0,s9,a374 <.LBB46_854>
    a370:	0ff00513          	li	a0,255

000000000000a374 <.LBB46_854>:
    a374:	90a43823          	sd	a0,-1776(s0)
    a378:	92843503          	ld	a0,-1752(s0)
    a37c:	03850533          	mul	a0,a0,s8
    a380:	92043583          	ld	a1,-1760(s0)
    a384:	017585b3          	add	a1,a1,s7
    a388:	00b50533          	add	a0,a0,a1
    a38c:	42455513          	srai	a0,a0,0x24
    a390:	00a025b3          	sgtz	a1,a0
    a394:	40b005b3          	neg	a1,a1
    a398:	00a5f533          	and	a0,a1,a0
    a39c:	01954463          	blt	a0,s9,a3a4 <.LBB46_856>
    a3a0:	0ff00513          	li	a0,255

000000000000a3a4 <.LBB46_856>:
    a3a4:	92a43423          	sd	a0,-1752(s0)
    a3a8:	93843503          	ld	a0,-1736(s0)
    a3ac:	03850533          	mul	a0,a0,s8
    a3b0:	93043583          	ld	a1,-1744(s0)
    a3b4:	017585b3          	add	a1,a1,s7
    a3b8:	00b50533          	add	a0,a0,a1
    a3bc:	42455513          	srai	a0,a0,0x24
    a3c0:	00a025b3          	sgtz	a1,a0
    a3c4:	40b005b3          	neg	a1,a1
    a3c8:	00a5f533          	and	a0,a1,a0
    a3cc:	01954463          	blt	a0,s9,a3d4 <.LBB46_858>
    a3d0:	0ff00513          	li	a0,255

000000000000a3d4 <.LBB46_858>:
    a3d4:	92a43c23          	sd	a0,-1736(s0)
    a3d8:	94843503          	ld	a0,-1720(s0)
    a3dc:	03850533          	mul	a0,a0,s8
    a3e0:	94043583          	ld	a1,-1728(s0)
    a3e4:	017585b3          	add	a1,a1,s7
    a3e8:	00b50533          	add	a0,a0,a1
    a3ec:	42455513          	srai	a0,a0,0x24
    a3f0:	00a025b3          	sgtz	a1,a0
    a3f4:	40b005b3          	neg	a1,a1
    a3f8:	00a5f533          	and	a0,a1,a0
    a3fc:	01954463          	blt	a0,s9,a404 <.LBB46_860>
    a400:	0ff00513          	li	a0,255

000000000000a404 <.LBB46_860>:
    a404:	94a43423          	sd	a0,-1720(s0)
    a408:	95843503          	ld	a0,-1704(s0)
    a40c:	03850533          	mul	a0,a0,s8
    a410:	bf043583          	ld	a1,-1040(s0)
    a414:	017585b3          	add	a1,a1,s7
    a418:	00b50533          	add	a0,a0,a1
    a41c:	42455513          	srai	a0,a0,0x24
    a420:	00a025b3          	sgtz	a1,a0
    a424:	40b005b3          	neg	a1,a1
    a428:	00a5f533          	and	a0,a1,a0
    a42c:	01954463          	blt	a0,s9,a434 <.LBB46_862>
    a430:	0ff00513          	li	a0,255

000000000000a434 <.LBB46_862>:
    a434:	bea43823          	sd	a0,-1040(s0)
    a438:	96843503          	ld	a0,-1688(s0)
    a43c:	03850533          	mul	a0,a0,s8
    a440:	96043583          	ld	a1,-1696(s0)
    a444:	017585b3          	add	a1,a1,s7
    a448:	00b50533          	add	a0,a0,a1
    a44c:	42455513          	srai	a0,a0,0x24
    a450:	00a025b3          	sgtz	a1,a0
    a454:	40b005b3          	neg	a1,a1
    a458:	00a5f533          	and	a0,a1,a0
    a45c:	01954463          	blt	a0,s9,a464 <.LBB46_864>
    a460:	0ff00513          	li	a0,255

000000000000a464 <.LBB46_864>:
    a464:	96a43423          	sd	a0,-1688(s0)
    a468:	97843503          	ld	a0,-1672(s0)
    a46c:	03850533          	mul	a0,a0,s8
    a470:	97043583          	ld	a1,-1680(s0)
    a474:	017585b3          	add	a1,a1,s7
    a478:	00b50533          	add	a0,a0,a1
    a47c:	42455513          	srai	a0,a0,0x24
    a480:	00a025b3          	sgtz	a1,a0
    a484:	40b005b3          	neg	a1,a1
    a488:	00a5f533          	and	a0,a1,a0
    a48c:	01954463          	blt	a0,s9,a494 <.LBB46_866>
    a490:	0ff00513          	li	a0,255

000000000000a494 <.LBB46_866>:
    a494:	96a43c23          	sd	a0,-1672(s0)
    a498:	98843503          	ld	a0,-1656(s0)
    a49c:	03850533          	mul	a0,a0,s8
    a4a0:	98043583          	ld	a1,-1664(s0)
    a4a4:	017585b3          	add	a1,a1,s7
    a4a8:	00b50533          	add	a0,a0,a1
    a4ac:	42455513          	srai	a0,a0,0x24
    a4b0:	00a025b3          	sgtz	a1,a0
    a4b4:	40b005b3          	neg	a1,a1
    a4b8:	00a5f533          	and	a0,a1,a0
    a4bc:	01954463          	blt	a0,s9,a4c4 <.LBB46_868>
    a4c0:	0ff00513          	li	a0,255

000000000000a4c4 <.LBB46_868>:
    a4c4:	98a43423          	sd	a0,-1656(s0)
    a4c8:	9a043503          	ld	a0,-1632(s0)
    a4cc:	03850533          	mul	a0,a0,s8
    a4d0:	99843583          	ld	a1,-1640(s0)
    a4d4:	017585b3          	add	a1,a1,s7
    a4d8:	00b50533          	add	a0,a0,a1
    a4dc:	42455513          	srai	a0,a0,0x24
    a4e0:	00a025b3          	sgtz	a1,a0
    a4e4:	40b005b3          	neg	a1,a1
    a4e8:	00a5f533          	and	a0,a1,a0
    a4ec:	01954463          	blt	a0,s9,a4f4 <.LBB46_870>
    a4f0:	0ff00513          	li	a0,255

000000000000a4f4 <.LBB46_870>:
    a4f4:	9aa43023          	sd	a0,-1632(s0)
    a4f8:	9b043503          	ld	a0,-1616(s0)
    a4fc:	03850533          	mul	a0,a0,s8
    a500:	9a843583          	ld	a1,-1624(s0)
    a504:	017585b3          	add	a1,a1,s7
    a508:	00b50533          	add	a0,a0,a1
    a50c:	42455513          	srai	a0,a0,0x24
    a510:	00a025b3          	sgtz	a1,a0
    a514:	40b005b3          	neg	a1,a1
    a518:	00a5f533          	and	a0,a1,a0
    a51c:	01954463          	blt	a0,s9,a524 <.LBB46_872>
    a520:	0ff00513          	li	a0,255

000000000000a524 <.LBB46_872>:
    a524:	9aa43823          	sd	a0,-1616(s0)
    a528:	9c043503          	ld	a0,-1600(s0)
    a52c:	03850533          	mul	a0,a0,s8
    a530:	9b843583          	ld	a1,-1608(s0)
    a534:	017585b3          	add	a1,a1,s7
    a538:	00b50533          	add	a0,a0,a1
    a53c:	42455513          	srai	a0,a0,0x24
    a540:	00a025b3          	sgtz	a1,a0
    a544:	40b005b3          	neg	a1,a1
    a548:	00a5f533          	and	a0,a1,a0
    a54c:	01954463          	blt	a0,s9,a554 <.LBB46_874>
    a550:	0ff00513          	li	a0,255

000000000000a554 <.LBB46_874>:
    a554:	9ca43023          	sd	a0,-1600(s0)
    a558:	9d043503          	ld	a0,-1584(s0)
    a55c:	03850533          	mul	a0,a0,s8
    a560:	9c843583          	ld	a1,-1592(s0)
    a564:	017585b3          	add	a1,a1,s7
    a568:	00b50533          	add	a0,a0,a1
    a56c:	42455513          	srai	a0,a0,0x24
    a570:	00a025b3          	sgtz	a1,a0
    a574:	40b005b3          	neg	a1,a1
    a578:	00a5f533          	and	a0,a1,a0
    a57c:	01954463          	blt	a0,s9,a584 <.LBB46_876>
    a580:	0ff00513          	li	a0,255

000000000000a584 <.LBB46_876>:
    a584:	9ca43823          	sd	a0,-1584(s0)
    a588:	9e843503          	ld	a0,-1560(s0)
    a58c:	03850533          	mul	a0,a0,s8
    a590:	9e043583          	ld	a1,-1568(s0)
    a594:	017585b3          	add	a1,a1,s7
    a598:	00b50533          	add	a0,a0,a1
    a59c:	42455513          	srai	a0,a0,0x24
    a5a0:	00a025b3          	sgtz	a1,a0
    a5a4:	40b005b3          	neg	a1,a1
    a5a8:	00a5f533          	and	a0,a1,a0
    a5ac:	01954463          	blt	a0,s9,a5b4 <.LBB46_878>
    a5b0:	0ff00513          	li	a0,255

000000000000a5b4 <.LBB46_878>:
    a5b4:	9ea43423          	sd	a0,-1560(s0)
    a5b8:	9f843503          	ld	a0,-1544(s0)
    a5bc:	03850533          	mul	a0,a0,s8
    a5c0:	9f043583          	ld	a1,-1552(s0)
    a5c4:	017585b3          	add	a1,a1,s7
    a5c8:	00b50533          	add	a0,a0,a1
    a5cc:	42455513          	srai	a0,a0,0x24
    a5d0:	00a025b3          	sgtz	a1,a0
    a5d4:	40b005b3          	neg	a1,a1
    a5d8:	00a5f533          	and	a0,a1,a0
    a5dc:	01954463          	blt	a0,s9,a5e4 <.LBB46_880>
    a5e0:	0ff00513          	li	a0,255

000000000000a5e4 <.LBB46_880>:
    a5e4:	9ea43c23          	sd	a0,-1544(s0)
    a5e8:	a0843503          	ld	a0,-1528(s0)
    a5ec:	03850533          	mul	a0,a0,s8
    a5f0:	a0043583          	ld	a1,-1536(s0)
    a5f4:	017585b3          	add	a1,a1,s7
    a5f8:	00b50533          	add	a0,a0,a1
    a5fc:	42455513          	srai	a0,a0,0x24
    a600:	00a025b3          	sgtz	a1,a0
    a604:	40b005b3          	neg	a1,a1
    a608:	00a5f533          	and	a0,a1,a0
    a60c:	01954463          	blt	a0,s9,a614 <.LBB46_882>
    a610:	0ff00513          	li	a0,255

000000000000a614 <.LBB46_882>:
    a614:	a0a43423          	sd	a0,-1528(s0)
    a618:	a2043503          	ld	a0,-1504(s0)
    a61c:	03850533          	mul	a0,a0,s8
    a620:	a1043583          	ld	a1,-1520(s0)
    a624:	017585b3          	add	a1,a1,s7
    a628:	00b50533          	add	a0,a0,a1
    a62c:	42455513          	srai	a0,a0,0x24
    a630:	00a025b3          	sgtz	a1,a0
    a634:	40b005b3          	neg	a1,a1
    a638:	00a5f533          	and	a0,a1,a0
    a63c:	01954463          	blt	a0,s9,a644 <.LBB46_884>
    a640:	0ff00513          	li	a0,255

000000000000a644 <.LBB46_884>:
    a644:	a2a43023          	sd	a0,-1504(s0)
    a648:	a3043503          	ld	a0,-1488(s0)
    a64c:	03850533          	mul	a0,a0,s8
    a650:	a2843583          	ld	a1,-1496(s0)
    a654:	017585b3          	add	a1,a1,s7
    a658:	00b50533          	add	a0,a0,a1
    a65c:	42455513          	srai	a0,a0,0x24
    a660:	00a025b3          	sgtz	a1,a0
    a664:	40b005b3          	neg	a1,a1
    a668:	00a5f533          	and	a0,a1,a0
    a66c:	01954463          	blt	a0,s9,a674 <.LBB46_886>
    a670:	0ff00513          	li	a0,255

000000000000a674 <.LBB46_886>:
    a674:	a2a43823          	sd	a0,-1488(s0)
    a678:	a4043503          	ld	a0,-1472(s0)
    a67c:	03850533          	mul	a0,a0,s8
    a680:	a3843583          	ld	a1,-1480(s0)
    a684:	017585b3          	add	a1,a1,s7
    a688:	00b50533          	add	a0,a0,a1
    a68c:	42455513          	srai	a0,a0,0x24
    a690:	00a025b3          	sgtz	a1,a0
    a694:	40b005b3          	neg	a1,a1
    a698:	00a5f533          	and	a0,a1,a0
    a69c:	01954463          	blt	a0,s9,a6a4 <.LBB46_888>
    a6a0:	0ff00513          	li	a0,255

000000000000a6a4 <.LBB46_888>:
    a6a4:	a4a43023          	sd	a0,-1472(s0)
    a6a8:	a5043503          	ld	a0,-1456(s0)
    a6ac:	03850533          	mul	a0,a0,s8
    a6b0:	a4843583          	ld	a1,-1464(s0)
    a6b4:	017585b3          	add	a1,a1,s7
    a6b8:	00b50533          	add	a0,a0,a1
    a6bc:	42455513          	srai	a0,a0,0x24
    a6c0:	00a025b3          	sgtz	a1,a0
    a6c4:	40b005b3          	neg	a1,a1
    a6c8:	00a5f533          	and	a0,a1,a0
    a6cc:	01954463          	blt	a0,s9,a6d4 <.LBB46_890>
    a6d0:	0ff00513          	li	a0,255

000000000000a6d4 <.LBB46_890>:
    a6d4:	a4a43823          	sd	a0,-1456(s0)
    a6d8:	a6843503          	ld	a0,-1432(s0)
    a6dc:	03850533          	mul	a0,a0,s8
    a6e0:	a6043583          	ld	a1,-1440(s0)
    a6e4:	017585b3          	add	a1,a1,s7
    a6e8:	00b50533          	add	a0,a0,a1
    a6ec:	42455513          	srai	a0,a0,0x24
    a6f0:	00a025b3          	sgtz	a1,a0
    a6f4:	40b005b3          	neg	a1,a1
    a6f8:	00a5f533          	and	a0,a1,a0
    a6fc:	01954463          	blt	a0,s9,a704 <.LBB46_892>
    a700:	0ff00513          	li	a0,255

000000000000a704 <.LBB46_892>:
    a704:	a6a43423          	sd	a0,-1432(s0)
    a708:	a7843503          	ld	a0,-1416(s0)
    a70c:	03850533          	mul	a0,a0,s8
    a710:	a7043583          	ld	a1,-1424(s0)
    a714:	017585b3          	add	a1,a1,s7
    a718:	00b50533          	add	a0,a0,a1
    a71c:	42455513          	srai	a0,a0,0x24
    a720:	00a025b3          	sgtz	a1,a0
    a724:	40b005b3          	neg	a1,a1
    a728:	00a5f533          	and	a0,a1,a0
    a72c:	01954463          	blt	a0,s9,a734 <.LBB46_894>
    a730:	0ff00513          	li	a0,255

000000000000a734 <.LBB46_894>:
    a734:	a6a43c23          	sd	a0,-1416(s0)
    a738:	a8843503          	ld	a0,-1400(s0)
    a73c:	03850533          	mul	a0,a0,s8
    a740:	a8043583          	ld	a1,-1408(s0)
    a744:	017585b3          	add	a1,a1,s7
    a748:	00b50533          	add	a0,a0,a1
    a74c:	42455513          	srai	a0,a0,0x24
    a750:	00a025b3          	sgtz	a1,a0
    a754:	40b005b3          	neg	a1,a1
    a758:	00a5f533          	and	a0,a1,a0
    a75c:	01954463          	blt	a0,s9,a764 <.LBB46_896>
    a760:	0ff00513          	li	a0,255

000000000000a764 <.LBB46_896>:
    a764:	a8a43423          	sd	a0,-1400(s0)
    a768:	a9843503          	ld	a0,-1384(s0)
    a76c:	03850533          	mul	a0,a0,s8
    a770:	a9043583          	ld	a1,-1392(s0)
    a774:	017585b3          	add	a1,a1,s7
    a778:	00b50533          	add	a0,a0,a1
    a77c:	42455513          	srai	a0,a0,0x24
    a780:	00a025b3          	sgtz	a1,a0
    a784:	40b005b3          	neg	a1,a1
    a788:	00a5f533          	and	a0,a1,a0
    a78c:	01954463          	blt	a0,s9,a794 <.LBB46_898>
    a790:	0ff00513          	li	a0,255

000000000000a794 <.LBB46_898>:
    a794:	a8a43c23          	sd	a0,-1384(s0)
    a798:	ab043503          	ld	a0,-1360(s0)
    a79c:	03850533          	mul	a0,a0,s8
    a7a0:	aa843583          	ld	a1,-1368(s0)
    a7a4:	017585b3          	add	a1,a1,s7
    a7a8:	00b50533          	add	a0,a0,a1
    a7ac:	42455513          	srai	a0,a0,0x24
    a7b0:	00a025b3          	sgtz	a1,a0
    a7b4:	40b005b3          	neg	a1,a1
    a7b8:	00a5f533          	and	a0,a1,a0
    a7bc:	01954463          	blt	a0,s9,a7c4 <.LBB46_900>
    a7c0:	0ff00513          	li	a0,255

000000000000a7c4 <.LBB46_900>:
    a7c4:	aaa43823          	sd	a0,-1360(s0)
    a7c8:	ac043503          	ld	a0,-1344(s0)
    a7cc:	03850533          	mul	a0,a0,s8
    a7d0:	ab843583          	ld	a1,-1352(s0)
    a7d4:	017585b3          	add	a1,a1,s7
    a7d8:	00b50533          	add	a0,a0,a1
    a7dc:	42455513          	srai	a0,a0,0x24
    a7e0:	00a025b3          	sgtz	a1,a0
    a7e4:	40b005b3          	neg	a1,a1
    a7e8:	00a5f533          	and	a0,a1,a0
    a7ec:	01954463          	blt	a0,s9,a7f4 <.LBB46_902>
    a7f0:	0ff00513          	li	a0,255

000000000000a7f4 <.LBB46_902>:
    a7f4:	aca43023          	sd	a0,-1344(s0)
    a7f8:	ad043503          	ld	a0,-1328(s0)
    a7fc:	03850533          	mul	a0,a0,s8
    a800:	ac843583          	ld	a1,-1336(s0)
    a804:	017585b3          	add	a1,a1,s7
    a808:	00b50533          	add	a0,a0,a1
    a80c:	42455513          	srai	a0,a0,0x24
    a810:	00a025b3          	sgtz	a1,a0
    a814:	40b005b3          	neg	a1,a1
    a818:	00a5f533          	and	a0,a1,a0
    a81c:	01954463          	blt	a0,s9,a824 <.LBB46_904>
    a820:	0ff00513          	li	a0,255

000000000000a824 <.LBB46_904>:
    a824:	aca43823          	sd	a0,-1328(s0)
    a828:	ae843503          	ld	a0,-1304(s0)
    a82c:	03850533          	mul	a0,a0,s8
    a830:	ad843583          	ld	a1,-1320(s0)
    a834:	017585b3          	add	a1,a1,s7
    a838:	00b50533          	add	a0,a0,a1
    a83c:	42455513          	srai	a0,a0,0x24
    a840:	00a025b3          	sgtz	a1,a0
    a844:	40b005b3          	neg	a1,a1
    a848:	00a5f533          	and	a0,a1,a0
    a84c:	01954463          	blt	a0,s9,a854 <.LBB46_906>
    a850:	0ff00513          	li	a0,255

000000000000a854 <.LBB46_906>:
    a854:	aea43423          	sd	a0,-1304(s0)
    a858:	af843503          	ld	a0,-1288(s0)
    a85c:	03850533          	mul	a0,a0,s8
    a860:	af043583          	ld	a1,-1296(s0)
    a864:	017585b3          	add	a1,a1,s7
    a868:	00b50533          	add	a0,a0,a1
    a86c:	42455513          	srai	a0,a0,0x24
    a870:	00a025b3          	sgtz	a1,a0
    a874:	40b005b3          	neg	a1,a1
    a878:	00a5f533          	and	a0,a1,a0
    a87c:	01954463          	blt	a0,s9,a884 <.LBB46_908>
    a880:	0ff00513          	li	a0,255

000000000000a884 <.LBB46_908>:
    a884:	aea43c23          	sd	a0,-1288(s0)
    a888:	b0843503          	ld	a0,-1272(s0)
    a88c:	03850533          	mul	a0,a0,s8
    a890:	b0043583          	ld	a1,-1280(s0)
    a894:	017585b3          	add	a1,a1,s7
    a898:	00b50533          	add	a0,a0,a1
    a89c:	42455513          	srai	a0,a0,0x24
    a8a0:	00a025b3          	sgtz	a1,a0
    a8a4:	40b005b3          	neg	a1,a1
    a8a8:	00a5f533          	and	a0,a1,a0
    a8ac:	01954463          	blt	a0,s9,a8b4 <.LBB46_910>
    a8b0:	0ff00513          	li	a0,255

000000000000a8b4 <.LBB46_910>:
    a8b4:	b0a43423          	sd	a0,-1272(s0)
    a8b8:	b2843503          	ld	a0,-1240(s0)
    a8bc:	03850533          	mul	a0,a0,s8
    a8c0:	b1843583          	ld	a1,-1256(s0)
    a8c4:	017585b3          	add	a1,a1,s7
    a8c8:	00b50533          	add	a0,a0,a1
    a8cc:	42455513          	srai	a0,a0,0x24
    a8d0:	00a025b3          	sgtz	a1,a0
    a8d4:	40b005b3          	neg	a1,a1
    a8d8:	00a5f533          	and	a0,a1,a0
    a8dc:	01954463          	blt	a0,s9,a8e4 <.LBB46_912>
    a8e0:	0ff00513          	li	a0,255

000000000000a8e4 <.LBB46_912>:
    a8e4:	b2a43423          	sd	a0,-1240(s0)
    a8e8:	b4043503          	ld	a0,-1216(s0)
    a8ec:	03850533          	mul	a0,a0,s8
    a8f0:	b3843583          	ld	a1,-1224(s0)
    a8f4:	017585b3          	add	a1,a1,s7
    a8f8:	00b50533          	add	a0,a0,a1
    a8fc:	42455513          	srai	a0,a0,0x24
    a900:	00a025b3          	sgtz	a1,a0
    a904:	40b005b3          	neg	a1,a1
    a908:	00a5f533          	and	a0,a1,a0
    a90c:	01954463          	blt	a0,s9,a914 <.LBB46_914>
    a910:	0ff00513          	li	a0,255

000000000000a914 <.LBB46_914>:
    a914:	b4a43023          	sd	a0,-1216(s0)
    a918:	b5843503          	ld	a0,-1192(s0)
    a91c:	03850533          	mul	a0,a0,s8
    a920:	b4843583          	ld	a1,-1208(s0)
    a924:	017585b3          	add	a1,a1,s7
    a928:	00b50533          	add	a0,a0,a1
    a92c:	42455513          	srai	a0,a0,0x24
    a930:	00a025b3          	sgtz	a1,a0
    a934:	40b005b3          	neg	a1,a1
    a938:	00a5f533          	and	a0,a1,a0
    a93c:	01954463          	blt	a0,s9,a944 <.LBB46_916>
    a940:	0ff00513          	li	a0,255

000000000000a944 <.LBB46_916>:
    a944:	b4a43c23          	sd	a0,-1192(s0)
    a948:	b6843503          	ld	a0,-1176(s0)
    a94c:	03850533          	mul	a0,a0,s8
    a950:	b6043583          	ld	a1,-1184(s0)
    a954:	017585b3          	add	a1,a1,s7
    a958:	00b50533          	add	a0,a0,a1
    a95c:	42455513          	srai	a0,a0,0x24
    a960:	00a025b3          	sgtz	a1,a0
    a964:	40b005b3          	neg	a1,a1
    a968:	00a5f533          	and	a0,a1,a0
    a96c:	01954463          	blt	a0,s9,a974 <.LBB46_918>
    a970:	0ff00513          	li	a0,255

000000000000a974 <.LBB46_918>:
    a974:	b6a43423          	sd	a0,-1176(s0)
    a978:	b7843503          	ld	a0,-1160(s0)
    a97c:	03850533          	mul	a0,a0,s8
    a980:	b7043583          	ld	a1,-1168(s0)
    a984:	017585b3          	add	a1,a1,s7
    a988:	00b50533          	add	a0,a0,a1
    a98c:	42455513          	srai	a0,a0,0x24
    a990:	00a025b3          	sgtz	a1,a0
    a994:	40b005b3          	neg	a1,a1
    a998:	00a5f533          	and	a0,a1,a0
    a99c:	01954463          	blt	a0,s9,a9a4 <.LBB46_920>
    a9a0:	0ff00513          	li	a0,255

000000000000a9a4 <.LBB46_920>:
    a9a4:	b6a43c23          	sd	a0,-1160(s0)
    a9a8:	b9043503          	ld	a0,-1136(s0)
    a9ac:	03850533          	mul	a0,a0,s8
    a9b0:	b8843583          	ld	a1,-1144(s0)
    a9b4:	017585b3          	add	a1,a1,s7
    a9b8:	00b50533          	add	a0,a0,a1
    a9bc:	42455513          	srai	a0,a0,0x24
    a9c0:	00a025b3          	sgtz	a1,a0
    a9c4:	40b005b3          	neg	a1,a1
    a9c8:	00a5f533          	and	a0,a1,a0
    a9cc:	01954463          	blt	a0,s9,a9d4 <.LBB46_922>
    a9d0:	0ff00513          	li	a0,255

000000000000a9d4 <.LBB46_922>:
    a9d4:	b8a43823          	sd	a0,-1136(s0)
    a9d8:	ba043503          	ld	a0,-1120(s0)
    a9dc:	03850533          	mul	a0,a0,s8
    a9e0:	b9843583          	ld	a1,-1128(s0)
    a9e4:	017585b3          	add	a1,a1,s7
    a9e8:	00b50533          	add	a0,a0,a1
    a9ec:	42455513          	srai	a0,a0,0x24
    a9f0:	00a025b3          	sgtz	a1,a0
    a9f4:	40b005b3          	neg	a1,a1
    a9f8:	00a5f533          	and	a0,a1,a0
    a9fc:	01954463          	blt	a0,s9,aa04 <.LBB46_924>
    aa00:	0ff00513          	li	a0,255

000000000000aa04 <.LBB46_924>:
    aa04:	baa43023          	sd	a0,-1120(s0)
    aa08:	bb043503          	ld	a0,-1104(s0)
    aa0c:	03850533          	mul	a0,a0,s8
    aa10:	ba843583          	ld	a1,-1112(s0)
    aa14:	017585b3          	add	a1,a1,s7
    aa18:	00b50533          	add	a0,a0,a1
    aa1c:	42455513          	srai	a0,a0,0x24
    aa20:	00a025b3          	sgtz	a1,a0
    aa24:	40b005b3          	neg	a1,a1
    aa28:	00a5f533          	and	a0,a1,a0
    aa2c:	01954463          	blt	a0,s9,aa34 <.LBB46_926>
    aa30:	0ff00513          	li	a0,255

000000000000aa34 <.LBB46_926>:
    aa34:	baa43823          	sd	a0,-1104(s0)
    aa38:	bc843503          	ld	a0,-1080(s0)
    aa3c:	03850533          	mul	a0,a0,s8
    aa40:	bb843583          	ld	a1,-1096(s0)
    aa44:	017585b3          	add	a1,a1,s7
    aa48:	00b50533          	add	a0,a0,a1
    aa4c:	42455513          	srai	a0,a0,0x24
    aa50:	00a025b3          	sgtz	a1,a0
    aa54:	40b005b3          	neg	a1,a1
    aa58:	00a5f533          	and	a0,a1,a0
    aa5c:	01954463          	blt	a0,s9,aa64 <.LBB46_928>
    aa60:	0ff00513          	li	a0,255

000000000000aa64 <.LBB46_928>:
    aa64:	bca43423          	sd	a0,-1080(s0)
    aa68:	bd843503          	ld	a0,-1064(s0)
    aa6c:	03850533          	mul	a0,a0,s8
    aa70:	bd043583          	ld	a1,-1072(s0)
    aa74:	017585b3          	add	a1,a1,s7
    aa78:	00b50533          	add	a0,a0,a1
    aa7c:	42455513          	srai	a0,a0,0x24
    aa80:	00a025b3          	sgtz	a1,a0
    aa84:	40b005b3          	neg	a1,a1
    aa88:	00a5f533          	and	a0,a1,a0
    aa8c:	01954463          	blt	a0,s9,aa94 <.LBB46_930>
    aa90:	0ff00513          	li	a0,255

000000000000aa94 <.LBB46_930>:
    aa94:	bca43c23          	sd	a0,-1064(s0)
    aa98:	be843503          	ld	a0,-1048(s0)
    aa9c:	03850533          	mul	a0,a0,s8
    aaa0:	be043583          	ld	a1,-1056(s0)
    aaa4:	017585b3          	add	a1,a1,s7
    aaa8:	00b50533          	add	a0,a0,a1
    aaac:	42455513          	srai	a0,a0,0x24
    aab0:	00a025b3          	sgtz	a1,a0
    aab4:	40b005b3          	neg	a1,a1
    aab8:	00a5f533          	and	a0,a1,a0
    aabc:	01954463          	blt	a0,s9,aac4 <.LBB46_932>
    aac0:	0ff00513          	li	a0,255

000000000000aac4 <.LBB46_932>:
    aac4:	bea43423          	sd	a0,-1048(s0)
    aac8:	c0043503          	ld	a0,-1024(s0)
    aacc:	03850533          	mul	a0,a0,s8
    aad0:	bf843583          	ld	a1,-1032(s0)
    aad4:	017585b3          	add	a1,a1,s7
    aad8:	00b50533          	add	a0,a0,a1
    aadc:	42455513          	srai	a0,a0,0x24
    aae0:	00a025b3          	sgtz	a1,a0
    aae4:	40b005b3          	neg	a1,a1
    aae8:	00a5f533          	and	a0,a1,a0
    aaec:	01954463          	blt	a0,s9,aaf4 <.LBB46_934>
    aaf0:	0ff00513          	li	a0,255

000000000000aaf4 <.LBB46_934>:
    aaf4:	c0a43023          	sd	a0,-1024(s0)
    aaf8:	c1843503          	ld	a0,-1000(s0)
    aafc:	03850533          	mul	a0,a0,s8
    ab00:	c1043583          	ld	a1,-1008(s0)
    ab04:	017585b3          	add	a1,a1,s7
    ab08:	00b50533          	add	a0,a0,a1
    ab0c:	42455513          	srai	a0,a0,0x24
    ab10:	00a025b3          	sgtz	a1,a0
    ab14:	40b005b3          	neg	a1,a1
    ab18:	00a5f533          	and	a0,a1,a0
    ab1c:	01954463          	blt	a0,s9,ab24 <.LBB46_936>
    ab20:	0ff00513          	li	a0,255

000000000000ab24 <.LBB46_936>:
    ab24:	c0a43c23          	sd	a0,-1000(s0)
    ab28:	c2843503          	ld	a0,-984(s0)
    ab2c:	03850533          	mul	a0,a0,s8
    ab30:	c2043583          	ld	a1,-992(s0)
    ab34:	017585b3          	add	a1,a1,s7
    ab38:	00b50533          	add	a0,a0,a1
    ab3c:	42455513          	srai	a0,a0,0x24
    ab40:	00a025b3          	sgtz	a1,a0
    ab44:	40b005b3          	neg	a1,a1
    ab48:	00a5f533          	and	a0,a1,a0
    ab4c:	01954463          	blt	a0,s9,ab54 <.LBB46_938>
    ab50:	0ff00513          	li	a0,255

000000000000ab54 <.LBB46_938>:
    ab54:	c2a43423          	sd	a0,-984(s0)
    ab58:	c3843503          	ld	a0,-968(s0)
    ab5c:	03850533          	mul	a0,a0,s8
    ab60:	c3043583          	ld	a1,-976(s0)
    ab64:	017585b3          	add	a1,a1,s7
    ab68:	00b50533          	add	a0,a0,a1
    ab6c:	42455513          	srai	a0,a0,0x24
    ab70:	00a025b3          	sgtz	a1,a0
    ab74:	40b005b3          	neg	a1,a1
    ab78:	00a5f533          	and	a0,a1,a0
    ab7c:	01954463          	blt	a0,s9,ab84 <.LBB46_940>
    ab80:	0ff00513          	li	a0,255

000000000000ab84 <.LBB46_940>:
    ab84:	c2a43c23          	sd	a0,-968(s0)
    ab88:	c4843503          	ld	a0,-952(s0)
    ab8c:	03850533          	mul	a0,a0,s8
    ab90:	c4043583          	ld	a1,-960(s0)
    ab94:	017585b3          	add	a1,a1,s7
    ab98:	00b50533          	add	a0,a0,a1
    ab9c:	42455513          	srai	a0,a0,0x24
    aba0:	00a025b3          	sgtz	a1,a0
    aba4:	40b005b3          	neg	a1,a1
    aba8:	00a5f533          	and	a0,a1,a0
    abac:	01954463          	blt	a0,s9,abb4 <.LBB46_942>
    abb0:	0ff00513          	li	a0,255

000000000000abb4 <.LBB46_942>:
    abb4:	c4a43423          	sd	a0,-952(s0)
    abb8:	c5843503          	ld	a0,-936(s0)
    abbc:	03850533          	mul	a0,a0,s8
    abc0:	c5043583          	ld	a1,-944(s0)
    abc4:	017585b3          	add	a1,a1,s7
    abc8:	00b50533          	add	a0,a0,a1
    abcc:	42455513          	srai	a0,a0,0x24
    abd0:	00a025b3          	sgtz	a1,a0
    abd4:	40b005b3          	neg	a1,a1
    abd8:	00a5f533          	and	a0,a1,a0
    abdc:	01954463          	blt	a0,s9,abe4 <.LBB46_944>
    abe0:	0ff00513          	li	a0,255

000000000000abe4 <.LBB46_944>:
    abe4:	c4a43c23          	sd	a0,-936(s0)
    abe8:	c6843503          	ld	a0,-920(s0)
    abec:	03850533          	mul	a0,a0,s8
    abf0:	c6043583          	ld	a1,-928(s0)
    abf4:	017585b3          	add	a1,a1,s7
    abf8:	00b50533          	add	a0,a0,a1
    abfc:	42455513          	srai	a0,a0,0x24
    ac00:	00a025b3          	sgtz	a1,a0
    ac04:	40b005b3          	neg	a1,a1
    ac08:	00a5f533          	and	a0,a1,a0
    ac0c:	01954463          	blt	a0,s9,ac14 <.LBB46_946>
    ac10:	0ff00513          	li	a0,255

000000000000ac14 <.LBB46_946>:
    ac14:	c6a43423          	sd	a0,-920(s0)
    ac18:	c7843503          	ld	a0,-904(s0)
    ac1c:	03850533          	mul	a0,a0,s8
    ac20:	c7043583          	ld	a1,-912(s0)
    ac24:	017585b3          	add	a1,a1,s7
    ac28:	00b50533          	add	a0,a0,a1
    ac2c:	42455513          	srai	a0,a0,0x24
    ac30:	00a025b3          	sgtz	a1,a0
    ac34:	40b005b3          	neg	a1,a1
    ac38:	00a5f533          	and	a0,a1,a0
    ac3c:	01954463          	blt	a0,s9,ac44 <.LBB46_948>
    ac40:	0ff00513          	li	a0,255

000000000000ac44 <.LBB46_948>:
    ac44:	c6a43c23          	sd	a0,-904(s0)
    ac48:	c8843503          	ld	a0,-888(s0)
    ac4c:	03850533          	mul	a0,a0,s8
    ac50:	c8043583          	ld	a1,-896(s0)
    ac54:	017585b3          	add	a1,a1,s7
    ac58:	00b50533          	add	a0,a0,a1
    ac5c:	42455513          	srai	a0,a0,0x24
    ac60:	00a025b3          	sgtz	a1,a0
    ac64:	40b005b3          	neg	a1,a1
    ac68:	00a5f533          	and	a0,a1,a0
    ac6c:	01954463          	blt	a0,s9,ac74 <.LBB46_950>
    ac70:	0ff00513          	li	a0,255

000000000000ac74 <.LBB46_950>:
    ac74:	c8a43423          	sd	a0,-888(s0)
    ac78:	c9843503          	ld	a0,-872(s0)
    ac7c:	03850533          	mul	a0,a0,s8
    ac80:	c9043583          	ld	a1,-880(s0)
    ac84:	017585b3          	add	a1,a1,s7
    ac88:	00b50533          	add	a0,a0,a1
    ac8c:	42455513          	srai	a0,a0,0x24
    ac90:	00a025b3          	sgtz	a1,a0
    ac94:	40b005b3          	neg	a1,a1
    ac98:	00a5f533          	and	a0,a1,a0
    ac9c:	01954463          	blt	a0,s9,aca4 <.LBB46_952>
    aca0:	0ff00513          	li	a0,255

000000000000aca4 <.LBB46_952>:
    aca4:	c8a43c23          	sd	a0,-872(s0)
    aca8:	ca843503          	ld	a0,-856(s0)
    acac:	03850533          	mul	a0,a0,s8
    acb0:	ca043583          	ld	a1,-864(s0)
    acb4:	017585b3          	add	a1,a1,s7
    acb8:	00b50533          	add	a0,a0,a1
    acbc:	42455513          	srai	a0,a0,0x24
    acc0:	00a025b3          	sgtz	a1,a0
    acc4:	40b005b3          	neg	a1,a1
    acc8:	00a5f533          	and	a0,a1,a0
    accc:	01954463          	blt	a0,s9,acd4 <.LBB46_954>
    acd0:	0ff00513          	li	a0,255

000000000000acd4 <.LBB46_954>:
    acd4:	caa43423          	sd	a0,-856(s0)
    acd8:	cb843503          	ld	a0,-840(s0)
    acdc:	03850533          	mul	a0,a0,s8
    ace0:	cb043583          	ld	a1,-848(s0)
    ace4:	017585b3          	add	a1,a1,s7
    ace8:	00b50533          	add	a0,a0,a1
    acec:	42455513          	srai	a0,a0,0x24
    acf0:	00a025b3          	sgtz	a1,a0
    acf4:	40b005b3          	neg	a1,a1
    acf8:	00a5f533          	and	a0,a1,a0
    acfc:	01954463          	blt	a0,s9,ad04 <.LBB46_956>
    ad00:	0ff00513          	li	a0,255

000000000000ad04 <.LBB46_956>:
    ad04:	caa43c23          	sd	a0,-840(s0)
    ad08:	cc843503          	ld	a0,-824(s0)
    ad0c:	03850533          	mul	a0,a0,s8
    ad10:	cc043583          	ld	a1,-832(s0)
    ad14:	017585b3          	add	a1,a1,s7
    ad18:	00b50533          	add	a0,a0,a1
    ad1c:	42455513          	srai	a0,a0,0x24
    ad20:	00a025b3          	sgtz	a1,a0
    ad24:	40b005b3          	neg	a1,a1
    ad28:	00a5f533          	and	a0,a1,a0
    ad2c:	01954463          	blt	a0,s9,ad34 <.LBB46_958>
    ad30:	0ff00513          	li	a0,255

000000000000ad34 <.LBB46_958>:
    ad34:	cca43423          	sd	a0,-824(s0)
    ad38:	cd843503          	ld	a0,-808(s0)
    ad3c:	03850533          	mul	a0,a0,s8
    ad40:	cd043583          	ld	a1,-816(s0)
    ad44:	017585b3          	add	a1,a1,s7
    ad48:	00b50533          	add	a0,a0,a1
    ad4c:	42455513          	srai	a0,a0,0x24
    ad50:	00a025b3          	sgtz	a1,a0
    ad54:	40b005b3          	neg	a1,a1
    ad58:	00a5f533          	and	a0,a1,a0
    ad5c:	01954463          	blt	a0,s9,ad64 <.LBB46_960>
    ad60:	0ff00513          	li	a0,255

000000000000ad64 <.LBB46_960>:
    ad64:	cca43c23          	sd	a0,-808(s0)
    ad68:	ce843503          	ld	a0,-792(s0)
    ad6c:	03850533          	mul	a0,a0,s8
    ad70:	ce043583          	ld	a1,-800(s0)
    ad74:	017585b3          	add	a1,a1,s7
    ad78:	00b50533          	add	a0,a0,a1
    ad7c:	42455513          	srai	a0,a0,0x24
    ad80:	00a025b3          	sgtz	a1,a0
    ad84:	40b005b3          	neg	a1,a1
    ad88:	00a5f533          	and	a0,a1,a0
    ad8c:	01954463          	blt	a0,s9,ad94 <.LBB46_962>
    ad90:	0ff00513          	li	a0,255

000000000000ad94 <.LBB46_962>:
    ad94:	cea43423          	sd	a0,-792(s0)
    ad98:	cf843503          	ld	a0,-776(s0)
    ad9c:	03850533          	mul	a0,a0,s8
    ada0:	cf043583          	ld	a1,-784(s0)
    ada4:	017585b3          	add	a1,a1,s7
    ada8:	00b50533          	add	a0,a0,a1
    adac:	42455513          	srai	a0,a0,0x24
    adb0:	00a025b3          	sgtz	a1,a0
    adb4:	40b005b3          	neg	a1,a1
    adb8:	00a5f533          	and	a0,a1,a0
    adbc:	01954463          	blt	a0,s9,adc4 <.LBB46_964>
    adc0:	0ff00513          	li	a0,255

000000000000adc4 <.LBB46_964>:
    adc4:	cea43c23          	sd	a0,-776(s0)
    adc8:	d0843503          	ld	a0,-760(s0)
    adcc:	03850533          	mul	a0,a0,s8
    add0:	d0043583          	ld	a1,-768(s0)
    add4:	017585b3          	add	a1,a1,s7
    add8:	00b50533          	add	a0,a0,a1
    addc:	42455513          	srai	a0,a0,0x24
    ade0:	00a025b3          	sgtz	a1,a0
    ade4:	40b005b3          	neg	a1,a1
    ade8:	00a5f533          	and	a0,a1,a0
    adec:	01954463          	blt	a0,s9,adf4 <.LBB46_966>
    adf0:	0ff00513          	li	a0,255

000000000000adf4 <.LBB46_966>:
    adf4:	d0a43423          	sd	a0,-760(s0)
    adf8:	d1843503          	ld	a0,-744(s0)
    adfc:	03850533          	mul	a0,a0,s8
    ae00:	d1043583          	ld	a1,-752(s0)
    ae04:	017585b3          	add	a1,a1,s7
    ae08:	00b50533          	add	a0,a0,a1
    ae0c:	42455513          	srai	a0,a0,0x24
    ae10:	00a025b3          	sgtz	a1,a0
    ae14:	40b005b3          	neg	a1,a1
    ae18:	00a5f533          	and	a0,a1,a0
    ae1c:	01954463          	blt	a0,s9,ae24 <.LBB46_968>
    ae20:	0ff00513          	li	a0,255

000000000000ae24 <.LBB46_968>:
    ae24:	d0a43c23          	sd	a0,-744(s0)
    ae28:	d2843503          	ld	a0,-728(s0)
    ae2c:	03850533          	mul	a0,a0,s8
    ae30:	d2043583          	ld	a1,-736(s0)
    ae34:	017585b3          	add	a1,a1,s7
    ae38:	00b50533          	add	a0,a0,a1
    ae3c:	42455513          	srai	a0,a0,0x24
    ae40:	00a025b3          	sgtz	a1,a0
    ae44:	40b005b3          	neg	a1,a1
    ae48:	00a5f533          	and	a0,a1,a0
    ae4c:	01954463          	blt	a0,s9,ae54 <.LBB46_970>
    ae50:	0ff00513          	li	a0,255

000000000000ae54 <.LBB46_970>:
    ae54:	d2a43423          	sd	a0,-728(s0)
    ae58:	d3843503          	ld	a0,-712(s0)
    ae5c:	03850533          	mul	a0,a0,s8
    ae60:	d3043583          	ld	a1,-720(s0)
    ae64:	017585b3          	add	a1,a1,s7
    ae68:	00b50533          	add	a0,a0,a1
    ae6c:	42455513          	srai	a0,a0,0x24
    ae70:	00a025b3          	sgtz	a1,a0
    ae74:	40b005b3          	neg	a1,a1
    ae78:	00a5f533          	and	a0,a1,a0
    ae7c:	01954463          	blt	a0,s9,ae84 <.LBB46_972>
    ae80:	0ff00513          	li	a0,255

000000000000ae84 <.LBB46_972>:
    ae84:	d2a43c23          	sd	a0,-712(s0)
    ae88:	d4843503          	ld	a0,-696(s0)
    ae8c:	03850533          	mul	a0,a0,s8
    ae90:	d4043583          	ld	a1,-704(s0)
    ae94:	017585b3          	add	a1,a1,s7
    ae98:	00b50533          	add	a0,a0,a1
    ae9c:	42455513          	srai	a0,a0,0x24
    aea0:	00a025b3          	sgtz	a1,a0
    aea4:	40b005b3          	neg	a1,a1
    aea8:	00a5f533          	and	a0,a1,a0
    aeac:	01954463          	blt	a0,s9,aeb4 <.LBB46_974>
    aeb0:	0ff00513          	li	a0,255

000000000000aeb4 <.LBB46_974>:
    aeb4:	d4a43423          	sd	a0,-696(s0)
    aeb8:	d5843503          	ld	a0,-680(s0)
    aebc:	03850533          	mul	a0,a0,s8
    aec0:	d5043583          	ld	a1,-688(s0)
    aec4:	017585b3          	add	a1,a1,s7
    aec8:	00b50533          	add	a0,a0,a1
    aecc:	42455513          	srai	a0,a0,0x24
    aed0:	00a025b3          	sgtz	a1,a0
    aed4:	40b005b3          	neg	a1,a1
    aed8:	00a5f533          	and	a0,a1,a0
    aedc:	01954463          	blt	a0,s9,aee4 <.LBB46_976>
    aee0:	0ff00513          	li	a0,255

000000000000aee4 <.LBB46_976>:
    aee4:	d4a43c23          	sd	a0,-680(s0)
    aee8:	d6843503          	ld	a0,-664(s0)
    aeec:	03850533          	mul	a0,a0,s8
    aef0:	d6043583          	ld	a1,-672(s0)
    aef4:	017585b3          	add	a1,a1,s7
    aef8:	00b50533          	add	a0,a0,a1
    aefc:	42455513          	srai	a0,a0,0x24
    af00:	00a025b3          	sgtz	a1,a0
    af04:	40b005b3          	neg	a1,a1
    af08:	00a5f533          	and	a0,a1,a0
    af0c:	01954463          	blt	a0,s9,af14 <.LBB46_978>
    af10:	0ff00513          	li	a0,255

000000000000af14 <.LBB46_978>:
    af14:	d6a43423          	sd	a0,-664(s0)
    af18:	d7043503          	ld	a0,-656(s0)
    af1c:	03850533          	mul	a0,a0,s8
    af20:	e8843583          	ld	a1,-376(s0)
    af24:	017585b3          	add	a1,a1,s7
    af28:	00b50533          	add	a0,a0,a1
    af2c:	42455513          	srai	a0,a0,0x24
    af30:	00a025b3          	sgtz	a1,a0
    af34:	40b005b3          	neg	a1,a1
    af38:	00a5f533          	and	a0,a1,a0
    af3c:	01954463          	blt	a0,s9,af44 <.LBB46_980>
    af40:	0ff00513          	li	a0,255

000000000000af44 <.LBB46_980>:
    af44:	e8a43423          	sd	a0,-376(s0)
    af48:	d8043503          	ld	a0,-640(s0)
    af4c:	03850533          	mul	a0,a0,s8
    af50:	d7843583          	ld	a1,-648(s0)
    af54:	017585b3          	add	a1,a1,s7
    af58:	00b50533          	add	a0,a0,a1
    af5c:	42455513          	srai	a0,a0,0x24
    af60:	00a025b3          	sgtz	a1,a0
    af64:	40b005b3          	neg	a1,a1
    af68:	00a5f533          	and	a0,a1,a0
    af6c:	01954463          	blt	a0,s9,af74 <.LBB46_982>
    af70:	0ff00513          	li	a0,255

000000000000af74 <.LBB46_982>:
    af74:	d8a43023          	sd	a0,-640(s0)
    af78:	d9043503          	ld	a0,-624(s0)
    af7c:	03850533          	mul	a0,a0,s8
    af80:	d8843583          	ld	a1,-632(s0)
    af84:	017585b3          	add	a1,a1,s7
    af88:	00b50533          	add	a0,a0,a1
    af8c:	42455513          	srai	a0,a0,0x24
    af90:	00a025b3          	sgtz	a1,a0
    af94:	40b005b3          	neg	a1,a1
    af98:	00a5f533          	and	a0,a1,a0
    af9c:	01954463          	blt	a0,s9,afa4 <.LBB46_984>
    afa0:	0ff00513          	li	a0,255

000000000000afa4 <.LBB46_984>:
    afa4:	d8a43823          	sd	a0,-624(s0)
    afa8:	038d8533          	mul	a0,s11,s8
    afac:	017085b3          	add	a1,ra,s7
    afb0:	00b50533          	add	a0,a0,a1
    afb4:	42455513          	srai	a0,a0,0x24
    afb8:	00a025b3          	sgtz	a1,a0
    afbc:	40b005b3          	neg	a1,a1
    afc0:	00a5fdb3          	and	s11,a1,a0
    afc4:	019dc463          	blt	s11,s9,afcc <.LBB46_986>
    afc8:	0ff00d93          	li	s11,255

000000000000afcc <.LBB46_986>:
    afcc:	00060093          	mv	ra,a2
    afd0:	da043503          	ld	a0,-608(s0)
    afd4:	03850533          	mul	a0,a0,s8
    afd8:	d9843583          	ld	a1,-616(s0)
    afdc:	017585b3          	add	a1,a1,s7
    afe0:	00b50533          	add	a0,a0,a1
    afe4:	42455513          	srai	a0,a0,0x24
    afe8:	00a025b3          	sgtz	a1,a0
    afec:	40b005b3          	neg	a1,a1
    aff0:	00a5f533          	and	a0,a1,a0
    aff4:	01954463          	blt	a0,s9,affc <.LBB46_988>
    aff8:	0ff00513          	li	a0,255

000000000000affc <.LBB46_988>:
    affc:	da843583          	ld	a1,-600(s0)
    b000:	038585b3          	mul	a1,a1,s8
    b004:	01778633          	add	a2,a5,s7
    b008:	00c585b3          	add	a1,a1,a2
    b00c:	4245d593          	srai	a1,a1,0x24
    b010:	00b02633          	sgtz	a2,a1
    b014:	40c00633          	neg	a2,a2
    b018:	00b675b3          	and	a1,a2,a1
    b01c:	0195c463          	blt	a1,s9,b024 <.LBB46_990>
    b020:	0ff00593          	li	a1,255

000000000000b024 <.LBB46_990>:
    b024:	db043603          	ld	a2,-592(s0)
    b028:	03860633          	mul	a2,a2,s8
    b02c:	017806b3          	add	a3,a6,s7
    b030:	00d60633          	add	a2,a2,a3
    b034:	42465613          	srai	a2,a2,0x24
    b038:	00c026b3          	sgtz	a3,a2
    b03c:	40d006b3          	neg	a3,a3
    b040:	00c6f633          	and	a2,a3,a2
    b044:	01964463          	blt	a2,s9,b04c <.LBB46_992>
    b048:	0ff00613          	li	a2,255

000000000000b04c <.LBB46_992>:
    b04c:	db843683          	ld	a3,-584(s0)
    b050:	038686b3          	mul	a3,a3,s8
    b054:	01730733          	add	a4,t1,s7
    b058:	00e686b3          	add	a3,a3,a4
    b05c:	4246d693          	srai	a3,a3,0x24
    b060:	00d02733          	sgtz	a4,a3
    b064:	40e00733          	neg	a4,a4
    b068:	00d776b3          	and	a3,a4,a3
    b06c:	0196c463          	blt	a3,s9,b074 <.LBB46_994>
    b070:	0ff00693          	li	a3,255

000000000000b074 <.LBB46_994>:
    b074:	dc043703          	ld	a4,-576(s0)
    b078:	03870733          	mul	a4,a4,s8
    b07c:	017387b3          	add	a5,t2,s7
    b080:	00f70733          	add	a4,a4,a5
    b084:	42475713          	srai	a4,a4,0x24
    b088:	00e027b3          	sgtz	a5,a4
    b08c:	40f007b3          	neg	a5,a5
    b090:	00e7f733          	and	a4,a5,a4
    b094:	01974463          	blt	a4,s9,b09c <.LBB46_996>
    b098:	0ff00713          	li	a4,255

000000000000b09c <.LBB46_996>:
    b09c:	dc843783          	ld	a5,-568(s0)
    b0a0:	038787b3          	mul	a5,a5,s8
    b0a4:	01728833          	add	a6,t0,s7
    b0a8:	010787b3          	add	a5,a5,a6
    b0ac:	4247d793          	srai	a5,a5,0x24
    b0b0:	00f02833          	sgtz	a6,a5
    b0b4:	41000833          	neg	a6,a6
    b0b8:	00f877b3          	and	a5,a6,a5
    b0bc:	0197c463          	blt	a5,s9,b0c4 <.LBB46_998>
    b0c0:	0ff00793          	li	a5,255

000000000000b0c4 <.LBB46_998>:
    b0c4:	dd043803          	ld	a6,-560(s0)
    b0c8:	03880833          	mul	a6,a6,s8
    b0cc:	000018b7          	lui	a7,0x1
    b0d0:	411408b3          	sub	a7,s0,a7
    b0d4:	e088b883          	ld	a7,-504(a7) # e08 <.LBB46_3+0xbd4>
    b0d8:	017888b3          	add	a7,a7,s7
    b0dc:	01180833          	add	a6,a6,a7
    b0e0:	42485813          	srai	a6,a6,0x24
    b0e4:	010028b3          	sgtz	a7,a6
    b0e8:	411008b3          	neg	a7,a7
    b0ec:	0108f833          	and	a6,a7,a6
    b0f0:	01984463          	blt	a6,s9,b0f8 <.LBB46_1000>
    b0f4:	0ff00813          	li	a6,255

000000000000b0f8 <.LBB46_1000>:
    b0f8:	dd843883          	ld	a7,-552(s0)
    b0fc:	038888b3          	mul	a7,a7,s8
    b100:	df843283          	ld	t0,-520(s0)
    b104:	017282b3          	add	t0,t0,s7
    b108:	005888b3          	add	a7,a7,t0
    b10c:	4248d893          	srai	a7,a7,0x24
    b110:	011022b3          	sgtz	t0,a7
    b114:	405002b3          	neg	t0,t0
    b118:	0112f8b3          	and	a7,t0,a7
    b11c:	0198c463          	blt	a7,s9,b124 <.LBB46_1002>
    b120:	0ff00893          	li	a7,255

000000000000b124 <.LBB46_1002>:
    b124:	de843283          	ld	t0,-536(s0)
    b128:	038282b3          	mul	t0,t0,s8
    b12c:	de043303          	ld	t1,-544(s0)
    b130:	01730333          	add	t1,t1,s7
    b134:	006282b3          	add	t0,t0,t1
    b138:	4242d293          	srai	t0,t0,0x24
    b13c:	00502333          	sgtz	t1,t0
    b140:	40600333          	neg	t1,t1
    b144:	005372b3          	and	t0,t1,t0
    b148:	0192c463          	blt	t0,s9,b150 <.LBB46_1004>
    b14c:	0ff00293          	li	t0,255

000000000000b150 <.LBB46_1004>:
    b150:	e4843303          	ld	t1,-440(s0)
    b154:	03830333          	mul	t1,t1,s8
    b158:	df043383          	ld	t2,-528(s0)
    b15c:	017383b3          	add	t2,t2,s7
    b160:	00730333          	add	t1,t1,t2
    b164:	42435313          	srai	t1,t1,0x24
    b168:	006023b3          	sgtz	t2,t1
    b16c:	407003b3          	neg	t2,t2
    b170:	0063f333          	and	t1,t2,t1
    b174:	01934463          	blt	t1,s9,b17c <.LBB46_1006>
    b178:	0ff00313          	li	t1,255

000000000000b17c <.LBB46_1006>:
    b17c:	038e03b3          	mul	t2,t3,s8
    b180:	e5043e03          	ld	t3,-432(s0)
    b184:	017e0e33          	add	t3,t3,s7
    b188:	01c383b3          	add	t2,t2,t3
    b18c:	4243d393          	srai	t2,t2,0x24
    b190:	00702e33          	sgtz	t3,t2
    b194:	41c00e33          	neg	t3,t3
    b198:	007e73b3          	and	t2,t3,t2
    b19c:	0193c463          	blt	t2,s9,b1a4 <.LBB46_1008>
    b1a0:	0ff00393          	li	t2,255

000000000000b1a4 <.LBB46_1008>:
    b1a4:	038e8e33          	mul	t3,t4,s8
    b1a8:	e6043e83          	ld	t4,-416(s0)
    b1ac:	017e8eb3          	add	t4,t4,s7
    b1b0:	01de0e33          	add	t3,t3,t4
    b1b4:	424e5e13          	srai	t3,t3,0x24
    b1b8:	01c02eb3          	sgtz	t4,t3
    b1bc:	41d00eb3          	neg	t4,t4
    b1c0:	01cefe33          	and	t3,t4,t3
    b1c4:	019e4463          	blt	t3,s9,b1cc <.LBB46_1010>
    b1c8:	0ff00e13          	li	t3,255

000000000000b1cc <.LBB46_1010>:
    b1cc:	038f0eb3          	mul	t4,t5,s8
    b1d0:	e6843f03          	ld	t5,-408(s0)
    b1d4:	017f0f33          	add	t5,t5,s7
    b1d8:	01ee8eb3          	add	t4,t4,t5
    b1dc:	424ede93          	srai	t4,t4,0x24
    b1e0:	01d02f33          	sgtz	t5,t4
    b1e4:	41e00f33          	neg	t5,t5
    b1e8:	01df7eb3          	and	t4,t5,t4
    b1ec:	019ec463          	blt	t4,s9,b1f4 <.LBB46_1012>
    b1f0:	0ff00e93          	li	t4,255

000000000000b1f4 <.LBB46_1012>:
    b1f4:	038f8f33          	mul	t5,t6,s8
    b1f8:	e7043f83          	ld	t6,-400(s0)
    b1fc:	017f8fb3          	add	t6,t6,s7
    b200:	01ff0f33          	add	t5,t5,t6
    b204:	424f5f13          	srai	t5,t5,0x24
    b208:	01e02fb3          	sgtz	t6,t5
    b20c:	41f00fb3          	neg	t6,t6
    b210:	01efff33          	and	t5,t6,t5
    b214:	019f4463          	blt	t5,s9,b21c <.LBB46_1014>
    b218:	0ff00f13          	li	t5,255

000000000000b21c <.LBB46_1014>:
    b21c:	03848fb3          	mul	t6,s1,s8
    b220:	e8043483          	ld	s1,-384(s0)
    b224:	017484b3          	add	s1,s1,s7
    b228:	009f8fb3          	add	t6,t6,s1
    b22c:	424fdf93          	srai	t6,t6,0x24
    b230:	01f024b3          	sgtz	s1,t6
    b234:	409004b3          	neg	s1,s1
    b238:	01f4ffb3          	and	t6,s1,t6
    b23c:	019fc463          	blt	t6,s9,b244 <.LBB46_1016>
    b240:	0ff00f93          	li	t6,255

000000000000b244 <.LBB46_1016>:
    b244:	038904b3          	mul	s1,s2,s8
    b248:	e9043903          	ld	s2,-368(s0)
    b24c:	01790933          	add	s2,s2,s7
    b250:	012484b3          	add	s1,s1,s2
    b254:	4244d493          	srai	s1,s1,0x24
    b258:	00902933          	sgtz	s2,s1
    b25c:	41200933          	neg	s2,s2
    b260:	009974b3          	and	s1,s2,s1
    b264:	0194c463          	blt	s1,s9,b26c <.LBB46_1018>
    b268:	0ff00493          	li	s1,255

000000000000b26c <.LBB46_1018>:
    b26c:	03898933          	mul	s2,s3,s8
    b270:	e9843983          	ld	s3,-360(s0)
    b274:	017989b3          	add	s3,s3,s7
    b278:	01390933          	add	s2,s2,s3
    b27c:	42495913          	srai	s2,s2,0x24
    b280:	012029b3          	sgtz	s3,s2
    b284:	413009b3          	neg	s3,s3
    b288:	0129f933          	and	s2,s3,s2
    b28c:	01994463          	blt	s2,s9,b294 <.LBB46_1020>
    b290:	0ff00913          	li	s2,255

000000000000b294 <.LBB46_1020>:
    b294:	038a09b3          	mul	s3,s4,s8
    b298:	ea043a03          	ld	s4,-352(s0)
    b29c:	017a0a33          	add	s4,s4,s7
    b2a0:	014989b3          	add	s3,s3,s4
    b2a4:	4249d993          	srai	s3,s3,0x24
    b2a8:	01302a33          	sgtz	s4,s3
    b2ac:	41400a33          	neg	s4,s4
    b2b0:	013a79b3          	and	s3,s4,s3
    b2b4:	0199c463          	blt	s3,s9,b2bc <.LBB46_1022>
    b2b8:	0ff00993          	li	s3,255

000000000000b2bc <.LBB46_1022>:
    b2bc:	038a8a33          	mul	s4,s5,s8
    b2c0:	eb043a83          	ld	s5,-336(s0)
    b2c4:	017a8ab3          	add	s5,s5,s7
    b2c8:	015a0a33          	add	s4,s4,s5
    b2cc:	424a5a13          	srai	s4,s4,0x24
    b2d0:	01402ab3          	sgtz	s5,s4
    b2d4:	41500ab3          	neg	s5,s5
    b2d8:	014afa33          	and	s4,s5,s4
    b2dc:	019a4463          	blt	s4,s9,b2e4 <.LBB46_1024>
    b2e0:	0ff00a13          	li	s4,255

000000000000b2e4 <.LBB46_1024>:
    b2e4:	038b0ab3          	mul	s5,s6,s8
    b2e8:	eb843b03          	ld	s6,-328(s0)
    b2ec:	017b0b33          	add	s6,s6,s7
    b2f0:	016a8ab3          	add	s5,s5,s6
    b2f4:	424ada93          	srai	s5,s5,0x24
    b2f8:	01502b33          	sgtz	s6,s5
    b2fc:	41600b33          	neg	s6,s6
    b300:	015b7ab3          	and	s5,s6,s5
    b304:	019ac463          	blt	s5,s9,b30c <.LBB46_1026>
    b308:	0ff00a93          	li	s5,255

000000000000b30c <.LBB46_1026>:
    b30c:	ec843b03          	ld	s6,-312(s0)
    b310:	038b0b33          	mul	s6,s6,s8
    b314:	01708bb3          	add	s7,ra,s7
    b318:	017b0b33          	add	s6,s6,s7
    b31c:	424b5b13          	srai	s6,s6,0x24
    b320:	01602bb3          	sgtz	s7,s6
    b324:	41700bb3          	neg	s7,s7
    b328:	016bfb33          	and	s6,s7,s6
    b32c:	019b4463          	blt	s6,s9,b334 <.LBB46_1028>
    b330:	0ff00b13          	li	s6,255

000000000000b334 <.LBB46_1028>:
    b334:	ec043b83          	ld	s7,-320(s0)
    b338:	038b8bb3          	mul	s7,s7,s8
    b33c:	00001c37          	lui	s8,0x1
    b340:	41840c33          	sub	s8,s0,s8
    b344:	658c3c03          	ld	s8,1624(s8) # 1658 <.LBB46_4+0x4d0>
    b348:	ee843083          	ld	ra,-280(s0)
    b34c:	01808c33          	add	s8,ra,s8
    b350:	018b8bb3          	add	s7,s7,s8
    b354:	424bdb93          	srai	s7,s7,0x24
    b358:	01702c33          	sgtz	s8,s7
    b35c:	41800c33          	neg	s8,s8
    b360:	017c7bb3          	and	s7,s8,s7
    b364:	019bd463          	bge	s7,s9,b36c <.LBB46_1029>
    b368:	ecdf406f          	j	234 <.LBB46_3>

000000000000b36c <.LBB46_1029>:
    b36c:	0ff00b93          	li	s7,255
    b370:	ec5f406f          	j	234 <.LBB46_3>

000000000000b374 <.LBB46_1030>:
    b374:	00000513          	li	a0,0
    b378:	7f010113          	addi	sp,sp,2032
    b37c:	33010113          	addi	sp,sp,816
    b380:	7e813083          	ld	ra,2024(sp)
    b384:	7e013403          	ld	s0,2016(sp)
    b388:	7d813483          	ld	s1,2008(sp)
    b38c:	7d013903          	ld	s2,2000(sp)
    b390:	7c813983          	ld	s3,1992(sp)
    b394:	7c013a03          	ld	s4,1984(sp)
    b398:	7b813a83          	ld	s5,1976(sp)
    b39c:	7b013b03          	ld	s6,1968(sp)
    b3a0:	7a813b83          	ld	s7,1960(sp)
    b3a4:	7a013c03          	ld	s8,1952(sp)
    b3a8:	79813c83          	ld	s9,1944(sp)
    b3ac:	79013d03          	ld	s10,1936(sp)
    b3b0:	78813d83          	ld	s11,1928(sp)
    b3b4:	7f010113          	addi	sp,sp,2032
    b3b8:	00008067          	ret
