
code.o:     file format elf64-littleriscv


Disassembly of section .text.main_dispatch_67_matmul_196x384x64_i8xi8xi32:

0000000000000000 <main_dispatch_67_matmul_196x384x64_i8xi8xi32>:
       0:	81010113          	addi	sp,sp,-2032
       4:	7e113423          	sd	ra,2024(sp)
       8:	7e813023          	sd	s0,2016(sp)
       c:	7c913c23          	sd	s1,2008(sp)
      10:	7d213823          	sd	s2,2000(sp)
      14:	7d313423          	sd	s3,1992(sp)
      18:	7d413023          	sd	s4,1984(sp)
      1c:	7b513c23          	sd	s5,1976(sp)
      20:	7b613823          	sd	s6,1968(sp)
      24:	7b713423          	sd	s7,1960(sp)
      28:	7b813023          	sd	s8,1952(sp)
      2c:	79913c23          	sd	s9,1944(sp)
      30:	79a13823          	sd	s10,1936(sp)
      34:	79b13423          	sd	s11,1928(sp)
      38:	7f010413          	addi	s0,sp,2032
      3c:	80010113          	addi	sp,sp,-2048
      40:	d0010113          	addi	sp,sp,-768
      44:	0205b583          	ld	a1,32(a1)
      48:	00000513          	li	a0,0
      4c:	0085b603          	ld	a2,8(a1)
      50:	0005b703          	ld	a4,0(a1)
      54:	0003f6b7          	lui	a3,0x3f
      58:	4806869b          	addiw	a3,a3,1152 # 3f480 <.Lfunc_end80+0x16ab8>
      5c:	00d60a33          	add	s4,a2,a3
      60:	0001d6b7          	lui	a3,0x1d
      64:	e806869b          	addiw	a3,a3,-384 # 1ce80 <.LBB66_3598>
      68:	00d606b3          	add	a3,a2,a3
      6c:	000017b7          	lui	a5,0x1
      70:	40f407b3          	sub	a5,s0,a5
      74:	d8d7b423          	sd	a3,-632(a5) # d88 <.LBB61_3+0xb60>
      78:	0105b583          	ld	a1,16(a1)
      7c:	000456b7          	lui	a3,0x45
      80:	4806869b          	addiw	a3,a3,1152 # 45480 <.Lfunc_end80+0x1cab8>
      84:	00d60633          	add	a2,a2,a3
      88:	000016b7          	lui	a3,0x1
      8c:	40d406b3          	sub	a3,s0,a3
      90:	d8c6b023          	sd	a2,-640(a3) # d80 <.LBB61_3+0xb58>
      94:	34058593          	addi	a1,a1,832
      98:	00001637          	lui	a2,0x1
      9c:	40c40633          	sub	a2,s0,a2
      a0:	d2b63023          	sd	a1,-736(a2) # d20 <.LBB61_3+0xaf8>
      a4:	000165b7          	lui	a1,0x16
      a8:	c005859b          	addiw	a1,a1,-1024 # 15c00 <.LBB63_2411+0x4>
      ac:	00001637          	lui	a2,0x1
      b0:	40c40633          	sub	a2,s0,a2
      b4:	d2e63823          	sd	a4,-720(a2) # d30 <.LBB61_3+0xb08>
      b8:	00b705b3          	add	a1,a4,a1
      bc:	00001637          	lui	a2,0x1
      c0:	40c40633          	sub	a2,s0,a2
      c4:	d8b63823          	sd	a1,-624(a2) # d90 <.LBB61_3+0xb68>
      c8:	ff700593          	li	a1,-9
      cc:	00859593          	slli	a1,a1,0x8
      d0:	00001637          	lui	a2,0x1
      d4:	40c40633          	sub	a2,s0,a2
      d8:	66b63823          	sd	a1,1648(a2) # 1670 <.LBB61_4+0x4cc>
      dc:	60cf25b7          	lui	a1,0x60cf2
      e0:	6d55859b          	addiw	a1,a1,1749 # 60cf26d5 <.Lfunc_end80+0x60cc9d0d>
      e4:	00001637          	lui	a2,0x1
      e8:	40c40633          	sub	a2,s0,a2
      ec:	d2b63c23          	sd	a1,-712(a2) # d38 <.LBB61_3+0xb10>
      f0:	00100593          	li	a1,1
      f4:	02459593          	slli	a1,a1,0x24
      f8:	00001637          	lui	a2,0x1
      fc:	40c40633          	sub	a2,s0,a2
     100:	64b63c23          	sd	a1,1624(a2) # 1658 <.LBB61_4+0x4b4>
     104:	000015b7          	lui	a1,0x1
     108:	40b405b3          	sub	a1,s0,a1
     10c:	d345b423          	sd	s4,-728(a1) # d28 <.LBB61_3+0xb00>
     110:	0480006f          	j	158 <.LBB61_2>

0000000000000114 <.LBB61_1>:
     114:	00001537          	lui	a0,0x1
     118:	40a40533          	sub	a0,s0,a0
     11c:	d1853603          	ld	a2,-744(a0) # d18 <.LBB61_3+0xaf0>
     120:	00860513          	addi	a0,a2,8
     124:	000015b7          	lui	a1,0x1
     128:	40b405b3          	sub	a1,s0,a1
     12c:	d905b583          	ld	a1,-624(a1) # d90 <.LBB61_3+0xb68>
     130:	20058593          	addi	a1,a1,512
     134:	000016b7          	lui	a3,0x1
     138:	40d406b3          	sub	a3,s0,a3
     13c:	d8b6b823          	sd	a1,-624(a3) # d90 <.LBB61_3+0xb68>
     140:	000015b7          	lui	a1,0x1
     144:	40b405b3          	sub	a1,s0,a1
     148:	d285ba03          	ld	s4,-728(a1) # d28 <.LBB61_3+0xb00>
     14c:	0b800593          	li	a1,184
     150:	00b66463          	bltu	a2,a1,158 <.LBB61_2>
     154:	5310a06f          	j	ae84 <.LBB61_1030>

0000000000000158 <.LBB61_2>:
     158:	00000593          	li	a1,0
     15c:	00050693          	mv	a3,a0
     160:	00251513          	slli	a0,a0,0x2
     164:	00001637          	lui	a2,0x1
     168:	40c40633          	sub	a2,s0,a2
     16c:	d3063603          	ld	a2,-720(a2) # d30 <.LBB61_3+0xb08>
     170:	00a60533          	add	a0,a2,a0
     174:	00001637          	lui	a2,0x1
     178:	40c40633          	sub	a2,s0,a2
     17c:	66a63023          	sd	a0,1632(a2) # 1660 <.LBB61_4+0x4bc>
     180:	18000513          	li	a0,384
     184:	00001637          	lui	a2,0x1
     188:	40c40633          	sub	a2,s0,a2
     18c:	d0d63c23          	sd	a3,-744(a2) # d18 <.LBB61_3+0xaf0>
     190:	02a68533          	mul	a0,a3,a0
     194:	00001637          	lui	a2,0x1
     198:	40c40633          	sub	a2,s0,a2
     19c:	d2063603          	ld	a2,-736(a2) # d20 <.LBB61_3+0xaf8>
     1a0:	00a60533          	add	a0,a2,a0
     1a4:	18050613          	addi	a2,a0,384
     1a8:	000016b7          	lui	a3,0x1
     1ac:	40d406b3          	sub	a3,s0,a3
     1b0:	d6c6b823          	sd	a2,-656(a3) # d70 <.LBB61_3+0xb48>
     1b4:	30050613          	addi	a2,a0,768
     1b8:	000016b7          	lui	a3,0x1
     1bc:	40d406b3          	sub	a3,s0,a3
     1c0:	d6c6b423          	sd	a2,-664(a3) # d68 <.LBB61_3+0xb40>
     1c4:	48050613          	addi	a2,a0,1152
     1c8:	000016b7          	lui	a3,0x1
     1cc:	40d406b3          	sub	a3,s0,a3
     1d0:	d6c6b023          	sd	a2,-672(a3) # d60 <.LBB61_3+0xb38>
     1d4:	60050613          	addi	a2,a0,1536
     1d8:	000016b7          	lui	a3,0x1
     1dc:	40d406b3          	sub	a3,s0,a3
     1e0:	d4c6bc23          	sd	a2,-680(a3) # d58 <.LBB61_3+0xb30>
     1e4:	78050613          	addi	a2,a0,1920
     1e8:	000016b7          	lui	a3,0x1
     1ec:	40d406b3          	sub	a3,s0,a3
     1f0:	d4c6b823          	sd	a2,-688(a3) # d50 <.LBB61_3+0xb28>
     1f4:	00001637          	lui	a2,0x1
     1f8:	40c40633          	sub	a2,s0,a2
     1fc:	d6a63c23          	sd	a0,-648(a2) # d78 <.LBB61_3+0xb50>
     200:	7ff50513          	addi	a0,a0,2047
     204:	10150613          	addi	a2,a0,257
     208:	000016b7          	lui	a3,0x1
     20c:	40d406b3          	sub	a3,s0,a3
     210:	d4c6b423          	sd	a2,-696(a3) # d48 <.LBB61_3+0xb20>
     214:	28150513          	addi	a0,a0,641
     218:	00001637          	lui	a2,0x1
     21c:	40c40633          	sub	a2,s0,a2
     220:	d4a63023          	sd	a0,-704(a2) # d40 <.LBB61_3+0xb18>
     224:	7810006f          	j	11a4 <.LBB61_4>

0000000000000228 <.LBB61_3>:
     228:	080d4c93          	xori	s9,s10,128
     22c:	00001c37          	lui	s8,0x1
     230:	41840c33          	sub	s8,s0,s8
     234:	d78c3c03          	ld	s8,-648(s8) # d78 <.LBB61_3+0xb50>
     238:	00001d37          	lui	s10,0x1
     23c:	41a40d33          	sub	s10,s0,s10
     240:	668d3d03          	ld	s10,1640(s10) # 1668 <.LBB61_4+0x4c4>
     244:	01ac0c33          	add	s8,s8,s10
     248:	019c01a3          	sb	s9,3(s8)
     24c:	f8843c83          	ld	s9,-120(s0)
     250:	080ccc93          	xori	s9,s9,128
     254:	019c0123          	sb	s9,2(s8)
     258:	f8043c83          	ld	s9,-128(s0)
     25c:	080ccc93          	xori	s9,s9,128
     260:	019c00a3          	sb	s9,1(s8)
     264:	f7843c83          	ld	s9,-136(s0)
     268:	080ccc93          	xori	s9,s9,128
     26c:	019c0023          	sb	s9,0(s8)
     270:	f7043c83          	ld	s9,-144(s0)
     274:	080ccc93          	xori	s9,s9,128
     278:	019c0223          	sb	s9,4(s8)
     27c:	f6843c83          	ld	s9,-152(s0)
     280:	080ccc93          	xori	s9,s9,128
     284:	019c02a3          	sb	s9,5(s8)
     288:	f6043c83          	ld	s9,-160(s0)
     28c:	080ccc93          	xori	s9,s9,128
     290:	019c0323          	sb	s9,6(s8)
     294:	f5843c83          	ld	s9,-168(s0)
     298:	080ccc93          	xori	s9,s9,128
     29c:	019c03a3          	sb	s9,7(s8)
     2a0:	f5043c83          	ld	s9,-176(s0)
     2a4:	080ccc93          	xori	s9,s9,128
     2a8:	019c0423          	sb	s9,8(s8)
     2ac:	f4843c83          	ld	s9,-184(s0)
     2b0:	080ccc93          	xori	s9,s9,128
     2b4:	019c04a3          	sb	s9,9(s8)
     2b8:	f4043c83          	ld	s9,-192(s0)
     2bc:	080ccc93          	xori	s9,s9,128
     2c0:	019c0523          	sb	s9,10(s8)
     2c4:	f3843c83          	ld	s9,-200(s0)
     2c8:	080ccc93          	xori	s9,s9,128
     2cc:	019c05a3          	sb	s9,11(s8)
     2d0:	f3043c83          	ld	s9,-208(s0)
     2d4:	080ccc93          	xori	s9,s9,128
     2d8:	019c0623          	sb	s9,12(s8)
     2dc:	f2843c83          	ld	s9,-216(s0)
     2e0:	080ccc93          	xori	s9,s9,128
     2e4:	019c06a3          	sb	s9,13(s8)
     2e8:	f2043c83          	ld	s9,-224(s0)
     2ec:	080ccc93          	xori	s9,s9,128
     2f0:	019c0723          	sb	s9,14(s8)
     2f4:	f1843c83          	ld	s9,-232(s0)
     2f8:	080ccc93          	xori	s9,s9,128
     2fc:	019c07a3          	sb	s9,15(s8)
     300:	f1043c83          	ld	s9,-240(s0)
     304:	080ccc93          	xori	s9,s9,128
     308:	019c0823          	sb	s9,16(s8)
     30c:	f0843c83          	ld	s9,-248(s0)
     310:	080ccc93          	xori	s9,s9,128
     314:	019c08a3          	sb	s9,17(s8)
     318:	f0043c83          	ld	s9,-256(s0)
     31c:	080ccc93          	xori	s9,s9,128
     320:	019c0923          	sb	s9,18(s8)
     324:	ef843c83          	ld	s9,-264(s0)
     328:	080ccc93          	xori	s9,s9,128
     32c:	019c09a3          	sb	s9,19(s8)
     330:	ef043c83          	ld	s9,-272(s0)
     334:	080ccc93          	xori	s9,s9,128
     338:	019c0a23          	sb	s9,20(s8)
     33c:	ee043c83          	ld	s9,-288(s0)
     340:	080ccc93          	xori	s9,s9,128
     344:	019c0aa3          	sb	s9,21(s8)
     348:	ed843c83          	ld	s9,-296(s0)
     34c:	080ccc93          	xori	s9,s9,128
     350:	019c0b23          	sb	s9,22(s8)
     354:	ed043c83          	ld	s9,-304(s0)
     358:	080ccc93          	xori	s9,s9,128
     35c:	019c0ba3          	sb	s9,23(s8)
     360:	ea843c83          	ld	s9,-344(s0)
     364:	080ccc93          	xori	s9,s9,128
     368:	019c0c23          	sb	s9,24(s8)
     36c:	e8043c83          	ld	s9,-384(s0)
     370:	080ccc93          	xori	s9,s9,128
     374:	019c0ca3          	sb	s9,25(s8)
     378:	e6043c83          	ld	s9,-416(s0)
     37c:	080ccc93          	xori	s9,s9,128
     380:	019c0d23          	sb	s9,26(s8)
     384:	e5843c83          	ld	s9,-424(s0)
     388:	080ccc93          	xori	s9,s9,128
     38c:	019c0da3          	sb	s9,27(s8)
     390:	e5043c83          	ld	s9,-432(s0)
     394:	080ccc93          	xori	s9,s9,128
     398:	019c0e23          	sb	s9,28(s8)
     39c:	e4843c83          	ld	s9,-440(s0)
     3a0:	080ccc93          	xori	s9,s9,128
     3a4:	019c0ea3          	sb	s9,29(s8)
     3a8:	e4043c83          	ld	s9,-448(s0)
     3ac:	080ccc93          	xori	s9,s9,128
     3b0:	019c0f23          	sb	s9,30(s8)
     3b4:	e3843c83          	ld	s9,-456(s0)
     3b8:	080ccc93          	xori	s9,s9,128
     3bc:	019c0fa3          	sb	s9,31(s8)
     3c0:	e3043c03          	ld	s8,-464(s0)
     3c4:	080c4c93          	xori	s9,s8,128
     3c8:	00001c37          	lui	s8,0x1
     3cc:	41840c33          	sub	s8,s0,s8
     3d0:	d70c3c03          	ld	s8,-656(s8) # d70 <.LBB61_3+0xb48>
     3d4:	01ac0c33          	add	s8,s8,s10
     3d8:	019c01a3          	sb	s9,3(s8)
     3dc:	ca043c83          	ld	s9,-864(s0)
     3e0:	080ccc93          	xori	s9,s9,128
     3e4:	019c0123          	sb	s9,2(s8)
     3e8:	c5843c83          	ld	s9,-936(s0)
     3ec:	080ccc93          	xori	s9,s9,128
     3f0:	019c00a3          	sb	s9,1(s8)
     3f4:	c1843c83          	ld	s9,-1000(s0)
     3f8:	080ccc93          	xori	s9,s9,128
     3fc:	019c0023          	sb	s9,0(s8)
     400:	bd843c83          	ld	s9,-1064(s0)
     404:	080ccc93          	xori	s9,s9,128
     408:	019c0223          	sb	s9,4(s8)
     40c:	b9043c83          	ld	s9,-1136(s0)
     410:	080ccc93          	xori	s9,s9,128
     414:	019c02a3          	sb	s9,5(s8)
     418:	b5043c83          	ld	s9,-1200(s0)
     41c:	080ccc93          	xori	s9,s9,128
     420:	019c0323          	sb	s9,6(s8)
     424:	b1043c83          	ld	s9,-1264(s0)
     428:	080ccc93          	xori	s9,s9,128
     42c:	019c03a3          	sb	s9,7(s8)
     430:	ac843c83          	ld	s9,-1336(s0)
     434:	080ccc93          	xori	s9,s9,128
     438:	019c0423          	sb	s9,8(s8)
     43c:	a8043c83          	ld	s9,-1408(s0)
     440:	080ccc93          	xori	s9,s9,128
     444:	019c04a3          	sb	s9,9(s8)
     448:	a4043c83          	ld	s9,-1472(s0)
     44c:	080ccc93          	xori	s9,s9,128
     450:	019c0523          	sb	s9,10(s8)
     454:	a0043c83          	ld	s9,-1536(s0)
     458:	080ccc93          	xori	s9,s9,128
     45c:	019c05a3          	sb	s9,11(s8)
     460:	9b843c83          	ld	s9,-1608(s0)
     464:	080ccc93          	xori	s9,s9,128
     468:	019c0623          	sb	s9,12(s8)
     46c:	97843c83          	ld	s9,-1672(s0)
     470:	080ccc93          	xori	s9,s9,128
     474:	019c06a3          	sb	s9,13(s8)
     478:	93843c83          	ld	s9,-1736(s0)
     47c:	080ccc93          	xori	s9,s9,128
     480:	019c0723          	sb	s9,14(s8)
     484:	8f043c83          	ld	s9,-1808(s0)
     488:	080ccc93          	xori	s9,s9,128
     48c:	019c07a3          	sb	s9,15(s8)
     490:	8b043c83          	ld	s9,-1872(s0)
     494:	080ccc93          	xori	s9,s9,128
     498:	019c0823          	sb	s9,16(s8)
     49c:	86843c83          	ld	s9,-1944(s0)
     4a0:	080ccc93          	xori	s9,s9,128
     4a4:	019c08a3          	sb	s9,17(s8)
     4a8:	82843c83          	ld	s9,-2008(s0)
     4ac:	080ccc93          	xori	s9,s9,128
     4b0:	019c0923          	sb	s9,18(s8)
     4b4:	00001cb7          	lui	s9,0x1
     4b8:	41940cb3          	sub	s9,s0,s9
     4bc:	7e0cbc83          	ld	s9,2016(s9) # 17e0 <.LBB61_5+0xa0>
     4c0:	080ccc93          	xori	s9,s9,128
     4c4:	019c09a3          	sb	s9,19(s8)
     4c8:	00001cb7          	lui	s9,0x1
     4cc:	41940cb3          	sub	s9,s0,s9
     4d0:	7a0cbc83          	ld	s9,1952(s9) # 17a0 <.LBB61_5+0x60>
     4d4:	080ccc93          	xori	s9,s9,128
     4d8:	019c0a23          	sb	s9,20(s8)
     4dc:	00001cb7          	lui	s9,0x1
     4e0:	41940cb3          	sub	s9,s0,s9
     4e4:	760cbc83          	ld	s9,1888(s9) # 1760 <.LBB61_5+0x20>
     4e8:	080ccc93          	xori	s9,s9,128
     4ec:	019c0aa3          	sb	s9,21(s8)
     4f0:	00001cb7          	lui	s9,0x1
     4f4:	41940cb3          	sub	s9,s0,s9
     4f8:	748cbc83          	ld	s9,1864(s9) # 1748 <.LBB61_5+0x8>
     4fc:	080ccc93          	xori	s9,s9,128
     500:	019c0b23          	sb	s9,22(s8)
     504:	00001cb7          	lui	s9,0x1
     508:	41940cb3          	sub	s9,s0,s9
     50c:	740cbc83          	ld	s9,1856(s9) # 1740 <.LBB61_5>
     510:	080ccc93          	xori	s9,s9,128
     514:	019c0ba3          	sb	s9,23(s8)
     518:	00001cb7          	lui	s9,0x1
     51c:	41940cb3          	sub	s9,s0,s9
     520:	738cbc83          	ld	s9,1848(s9) # 1738 <.LBB61_4+0x594>
     524:	080ccc93          	xori	s9,s9,128
     528:	019c0c23          	sb	s9,24(s8)
     52c:	00001cb7          	lui	s9,0x1
     530:	41940cb3          	sub	s9,s0,s9
     534:	710cbc83          	ld	s9,1808(s9) # 1710 <.LBB61_4+0x56c>
     538:	080ccc93          	xori	s9,s9,128
     53c:	019c0ca3          	sb	s9,25(s8)
     540:	00001cb7          	lui	s9,0x1
     544:	41940cb3          	sub	s9,s0,s9
     548:	6e8cbc83          	ld	s9,1768(s9) # 16e8 <.LBB61_4+0x544>
     54c:	080ccc93          	xori	s9,s9,128
     550:	019c0d23          	sb	s9,26(s8)
     554:	00001cb7          	lui	s9,0x1
     558:	41940cb3          	sub	s9,s0,s9
     55c:	6e0cbc83          	ld	s9,1760(s9) # 16e0 <.LBB61_4+0x53c>
     560:	080ccc93          	xori	s9,s9,128
     564:	019c0da3          	sb	s9,27(s8)
     568:	00001cb7          	lui	s9,0x1
     56c:	41940cb3          	sub	s9,s0,s9
     570:	6d8cbc83          	ld	s9,1752(s9) # 16d8 <.LBB61_4+0x534>
     574:	080ccc93          	xori	s9,s9,128
     578:	019c0e23          	sb	s9,28(s8)
     57c:	00001cb7          	lui	s9,0x1
     580:	41940cb3          	sub	s9,s0,s9
     584:	6d0cbc83          	ld	s9,1744(s9) # 16d0 <.LBB61_4+0x52c>
     588:	080ccc93          	xori	s9,s9,128
     58c:	019c0ea3          	sb	s9,29(s8)
     590:	00001cb7          	lui	s9,0x1
     594:	41940cb3          	sub	s9,s0,s9
     598:	6c8cbc83          	ld	s9,1736(s9) # 16c8 <.LBB61_4+0x524>
     59c:	080ccc93          	xori	s9,s9,128
     5a0:	019c0f23          	sb	s9,30(s8)
     5a4:	00001cb7          	lui	s9,0x1
     5a8:	41940cb3          	sub	s9,s0,s9
     5ac:	6c0cbc83          	ld	s9,1728(s9) # 16c0 <.LBB61_4+0x51c>
     5b0:	080ccc93          	xori	s9,s9,128
     5b4:	019c0fa3          	sb	s9,31(s8)
     5b8:	00001c37          	lui	s8,0x1
     5bc:	41840c33          	sub	s8,s0,s8
     5c0:	6b8c3c03          	ld	s8,1720(s8) # 16b8 <.LBB61_4+0x514>
     5c4:	080c4c93          	xori	s9,s8,128
     5c8:	00001c37          	lui	s8,0x1
     5cc:	41840c33          	sub	s8,s0,s8
     5d0:	d68c3c03          	ld	s8,-664(s8) # d68 <.LBB61_3+0xb40>
     5d4:	01ac0c33          	add	s8,s8,s10
     5d8:	019c01a3          	sb	s9,3(s8)
     5dc:	00001cb7          	lui	s9,0x1
     5e0:	41940cb3          	sub	s9,s0,s9
     5e4:	6b0cbc83          	ld	s9,1712(s9) # 16b0 <.LBB61_4+0x50c>
     5e8:	080ccc93          	xori	s9,s9,128
     5ec:	019c0123          	sb	s9,2(s8)
     5f0:	00001cb7          	lui	s9,0x1
     5f4:	41940cb3          	sub	s9,s0,s9
     5f8:	6a8cbc83          	ld	s9,1704(s9) # 16a8 <.LBB61_4+0x504>
     5fc:	080ccc93          	xori	s9,s9,128
     600:	019c00a3          	sb	s9,1(s8)
     604:	00001cb7          	lui	s9,0x1
     608:	41940cb3          	sub	s9,s0,s9
     60c:	6a0cbc83          	ld	s9,1696(s9) # 16a0 <.LBB61_4+0x4fc>
     610:	080ccc93          	xori	s9,s9,128
     614:	019c0023          	sb	s9,0(s8)
     618:	00001cb7          	lui	s9,0x1
     61c:	41940cb3          	sub	s9,s0,s9
     620:	698cbc83          	ld	s9,1688(s9) # 1698 <.LBB61_4+0x4f4>
     624:	080ccc93          	xori	s9,s9,128
     628:	019c0223          	sb	s9,4(s8)
     62c:	00001cb7          	lui	s9,0x1
     630:	41940cb3          	sub	s9,s0,s9
     634:	690cbc83          	ld	s9,1680(s9) # 1690 <.LBB61_4+0x4ec>
     638:	080ccc93          	xori	s9,s9,128
     63c:	019c02a3          	sb	s9,5(s8)
     640:	00001cb7          	lui	s9,0x1
     644:	41940cb3          	sub	s9,s0,s9
     648:	2c0cbc83          	ld	s9,704(s9) # 12c0 <.LBB61_4+0x11c>
     64c:	080ccc93          	xori	s9,s9,128
     650:	019c0323          	sb	s9,6(s8)
     654:	00001cb7          	lui	s9,0x1
     658:	41940cb3          	sub	s9,s0,s9
     65c:	280cbc83          	ld	s9,640(s9) # 1280 <.LBB61_4+0xdc>
     660:	080ccc93          	xori	s9,s9,128
     664:	019c03a3          	sb	s9,7(s8)
     668:	00001cb7          	lui	s9,0x1
     66c:	41940cb3          	sub	s9,s0,s9
     670:	240cbc83          	ld	s9,576(s9) # 1240 <.LBB61_4+0x9c>
     674:	080ccc93          	xori	s9,s9,128
     678:	019c0423          	sb	s9,8(s8)
     67c:	00001cb7          	lui	s9,0x1
     680:	41940cb3          	sub	s9,s0,s9
     684:	228cbc83          	ld	s9,552(s9) # 1228 <.LBB61_4+0x84>
     688:	080ccc93          	xori	s9,s9,128
     68c:	019c04a3          	sb	s9,9(s8)
     690:	00001cb7          	lui	s9,0x1
     694:	41940cb3          	sub	s9,s0,s9
     698:	238cbc83          	ld	s9,568(s9) # 1238 <.LBB61_4+0x94>
     69c:	080ccc93          	xori	s9,s9,128
     6a0:	019c0523          	sb	s9,10(s8)
     6a4:	00001cb7          	lui	s9,0x1
     6a8:	41940cb3          	sub	s9,s0,s9
     6ac:	250cbc83          	ld	s9,592(s9) # 1250 <.LBB61_4+0xac>
     6b0:	080ccc93          	xori	s9,s9,128
     6b4:	019c05a3          	sb	s9,11(s8)
     6b8:	00001cb7          	lui	s9,0x1
     6bc:	41940cb3          	sub	s9,s0,s9
     6c0:	260cbc83          	ld	s9,608(s9) # 1260 <.LBB61_4+0xbc>
     6c4:	080ccc93          	xori	s9,s9,128
     6c8:	019c0623          	sb	s9,12(s8)
     6cc:	00001cb7          	lui	s9,0x1
     6d0:	41940cb3          	sub	s9,s0,s9
     6d4:	270cbc83          	ld	s9,624(s9) # 1270 <.LBB61_4+0xcc>
     6d8:	080ccc93          	xori	s9,s9,128
     6dc:	019c06a3          	sb	s9,13(s8)
     6e0:	00001cb7          	lui	s9,0x1
     6e4:	41940cb3          	sub	s9,s0,s9
     6e8:	288cbc83          	ld	s9,648(s9) # 1288 <.LBB61_4+0xe4>
     6ec:	080ccc93          	xori	s9,s9,128
     6f0:	019c0723          	sb	s9,14(s8)
     6f4:	00001cb7          	lui	s9,0x1
     6f8:	41940cb3          	sub	s9,s0,s9
     6fc:	298cbc83          	ld	s9,664(s9) # 1298 <.LBB61_4+0xf4>
     700:	080ccc93          	xori	s9,s9,128
     704:	019c07a3          	sb	s9,15(s8)
     708:	00001cb7          	lui	s9,0x1
     70c:	41940cb3          	sub	s9,s0,s9
     710:	2a8cbc83          	ld	s9,680(s9) # 12a8 <.LBB61_4+0x104>
     714:	080ccc93          	xori	s9,s9,128
     718:	019c0823          	sb	s9,16(s8)
     71c:	00001cb7          	lui	s9,0x1
     720:	41940cb3          	sub	s9,s0,s9
     724:	2b8cbc83          	ld	s9,696(s9) # 12b8 <.LBB61_4+0x114>
     728:	080ccc93          	xori	s9,s9,128
     72c:	019c08a3          	sb	s9,17(s8)
     730:	00001cb7          	lui	s9,0x1
     734:	41940cb3          	sub	s9,s0,s9
     738:	2d0cbc83          	ld	s9,720(s9) # 12d0 <.LBB61_4+0x12c>
     73c:	080ccc93          	xori	s9,s9,128
     740:	019c0923          	sb	s9,18(s8)
     744:	00001cb7          	lui	s9,0x1
     748:	41940cb3          	sub	s9,s0,s9
     74c:	2e0cbc83          	ld	s9,736(s9) # 12e0 <.LBB61_4+0x13c>
     750:	080ccc93          	xori	s9,s9,128
     754:	019c09a3          	sb	s9,19(s8)
     758:	00001cb7          	lui	s9,0x1
     75c:	41940cb3          	sub	s9,s0,s9
     760:	2f0cbc83          	ld	s9,752(s9) # 12f0 <.LBB61_4+0x14c>
     764:	080ccc93          	xori	s9,s9,128
     768:	019c0a23          	sb	s9,20(s8)
     76c:	00001cb7          	lui	s9,0x1
     770:	41940cb3          	sub	s9,s0,s9
     774:	300cbc83          	ld	s9,768(s9) # 1300 <.LBB61_4+0x15c>
     778:	080ccc93          	xori	s9,s9,128
     77c:	019c0aa3          	sb	s9,21(s8)
     780:	00001cb7          	lui	s9,0x1
     784:	41940cb3          	sub	s9,s0,s9
     788:	310cbc83          	ld	s9,784(s9) # 1310 <.LBB61_4+0x16c>
     78c:	080ccc93          	xori	s9,s9,128
     790:	019c0b23          	sb	s9,22(s8)
     794:	00001cb7          	lui	s9,0x1
     798:	41940cb3          	sub	s9,s0,s9
     79c:	320cbc83          	ld	s9,800(s9) # 1320 <.LBB61_4+0x17c>
     7a0:	080ccc93          	xori	s9,s9,128
     7a4:	019c0ba3          	sb	s9,23(s8)
     7a8:	00001cb7          	lui	s9,0x1
     7ac:	41940cb3          	sub	s9,s0,s9
     7b0:	330cbc83          	ld	s9,816(s9) # 1330 <.LBB61_4+0x18c>
     7b4:	080ccc93          	xori	s9,s9,128
     7b8:	019c0c23          	sb	s9,24(s8)
     7bc:	00001cb7          	lui	s9,0x1
     7c0:	41940cb3          	sub	s9,s0,s9
     7c4:	340cbc83          	ld	s9,832(s9) # 1340 <.LBB61_4+0x19c>
     7c8:	080ccc93          	xori	s9,s9,128
     7cc:	019c0ca3          	sb	s9,25(s8)
     7d0:	00001cb7          	lui	s9,0x1
     7d4:	41940cb3          	sub	s9,s0,s9
     7d8:	350cbc83          	ld	s9,848(s9) # 1350 <.LBB61_4+0x1ac>
     7dc:	080ccc93          	xori	s9,s9,128
     7e0:	019c0d23          	sb	s9,26(s8)
     7e4:	00001cb7          	lui	s9,0x1
     7e8:	41940cb3          	sub	s9,s0,s9
     7ec:	360cbc83          	ld	s9,864(s9) # 1360 <.LBB61_4+0x1bc>
     7f0:	080ccc93          	xori	s9,s9,128
     7f4:	019c0da3          	sb	s9,27(s8)
     7f8:	00001cb7          	lui	s9,0x1
     7fc:	41940cb3          	sub	s9,s0,s9
     800:	370cbc83          	ld	s9,880(s9) # 1370 <.LBB61_4+0x1cc>
     804:	080ccc93          	xori	s9,s9,128
     808:	019c0e23          	sb	s9,28(s8)
     80c:	00001cb7          	lui	s9,0x1
     810:	41940cb3          	sub	s9,s0,s9
     814:	380cbc83          	ld	s9,896(s9) # 1380 <.LBB61_4+0x1dc>
     818:	080ccc93          	xori	s9,s9,128
     81c:	019c0ea3          	sb	s9,29(s8)
     820:	00001cb7          	lui	s9,0x1
     824:	41940cb3          	sub	s9,s0,s9
     828:	390cbc83          	ld	s9,912(s9) # 1390 <.LBB61_4+0x1ec>
     82c:	080ccc93          	xori	s9,s9,128
     830:	019c0f23          	sb	s9,30(s8)
     834:	00001cb7          	lui	s9,0x1
     838:	41940cb3          	sub	s9,s0,s9
     83c:	3a0cbc83          	ld	s9,928(s9) # 13a0 <.LBB61_4+0x1fc>
     840:	080ccc93          	xori	s9,s9,128
     844:	019c0fa3          	sb	s9,31(s8)
     848:	00001c37          	lui	s8,0x1
     84c:	41840c33          	sub	s8,s0,s8
     850:	3b0c3c03          	ld	s8,944(s8) # 13b0 <.LBB61_4+0x20c>
     854:	080c4c93          	xori	s9,s8,128
     858:	00001c37          	lui	s8,0x1
     85c:	41840c33          	sub	s8,s0,s8
     860:	d60c3c03          	ld	s8,-672(s8) # d60 <.LBB61_3+0xb38>
     864:	01ac0c33          	add	s8,s8,s10
     868:	019c01a3          	sb	s9,3(s8)
     86c:	00001cb7          	lui	s9,0x1
     870:	41940cb3          	sub	s9,s0,s9
     874:	3c0cbc83          	ld	s9,960(s9) # 13c0 <.LBB61_4+0x21c>
     878:	080ccc93          	xori	s9,s9,128
     87c:	019c0123          	sb	s9,2(s8)
     880:	00001cb7          	lui	s9,0x1
     884:	41940cb3          	sub	s9,s0,s9
     888:	3d0cbc83          	ld	s9,976(s9) # 13d0 <.LBB61_4+0x22c>
     88c:	080ccc93          	xori	s9,s9,128
     890:	019c00a3          	sb	s9,1(s8)
     894:	00001cb7          	lui	s9,0x1
     898:	41940cb3          	sub	s9,s0,s9
     89c:	3e0cbc83          	ld	s9,992(s9) # 13e0 <.LBB61_4+0x23c>
     8a0:	080ccc93          	xori	s9,s9,128
     8a4:	019c0023          	sb	s9,0(s8)
     8a8:	00001cb7          	lui	s9,0x1
     8ac:	41940cb3          	sub	s9,s0,s9
     8b0:	3f0cbc83          	ld	s9,1008(s9) # 13f0 <.LBB61_4+0x24c>
     8b4:	080ccc93          	xori	s9,s9,128
     8b8:	019c0223          	sb	s9,4(s8)
     8bc:	00001cb7          	lui	s9,0x1
     8c0:	41940cb3          	sub	s9,s0,s9
     8c4:	400cbc83          	ld	s9,1024(s9) # 1400 <.LBB61_4+0x25c>
     8c8:	080ccc93          	xori	s9,s9,128
     8cc:	019c02a3          	sb	s9,5(s8)
     8d0:	00001cb7          	lui	s9,0x1
     8d4:	41940cb3          	sub	s9,s0,s9
     8d8:	410cbc83          	ld	s9,1040(s9) # 1410 <.LBB61_4+0x26c>
     8dc:	080ccc93          	xori	s9,s9,128
     8e0:	019c0323          	sb	s9,6(s8)
     8e4:	00001cb7          	lui	s9,0x1
     8e8:	41940cb3          	sub	s9,s0,s9
     8ec:	420cbc83          	ld	s9,1056(s9) # 1420 <.LBB61_4+0x27c>
     8f0:	080ccc93          	xori	s9,s9,128
     8f4:	019c03a3          	sb	s9,7(s8)
     8f8:	00001cb7          	lui	s9,0x1
     8fc:	41940cb3          	sub	s9,s0,s9
     900:	430cbc83          	ld	s9,1072(s9) # 1430 <.LBB61_4+0x28c>
     904:	080ccc93          	xori	s9,s9,128
     908:	019c0423          	sb	s9,8(s8)
     90c:	00001cb7          	lui	s9,0x1
     910:	41940cb3          	sub	s9,s0,s9
     914:	440cbc83          	ld	s9,1088(s9) # 1440 <.LBB61_4+0x29c>
     918:	080ccc93          	xori	s9,s9,128
     91c:	019c04a3          	sb	s9,9(s8)
     920:	00001cb7          	lui	s9,0x1
     924:	41940cb3          	sub	s9,s0,s9
     928:	450cbc83          	ld	s9,1104(s9) # 1450 <.LBB61_4+0x2ac>
     92c:	080ccc93          	xori	s9,s9,128
     930:	019c0523          	sb	s9,10(s8)
     934:	00001cb7          	lui	s9,0x1
     938:	41940cb3          	sub	s9,s0,s9
     93c:	460cbc83          	ld	s9,1120(s9) # 1460 <.LBB61_4+0x2bc>
     940:	080ccc93          	xori	s9,s9,128
     944:	019c05a3          	sb	s9,11(s8)
     948:	00001cb7          	lui	s9,0x1
     94c:	41940cb3          	sub	s9,s0,s9
     950:	470cbc83          	ld	s9,1136(s9) # 1470 <.LBB61_4+0x2cc>
     954:	080ccc93          	xori	s9,s9,128
     958:	019c0623          	sb	s9,12(s8)
     95c:	00001cb7          	lui	s9,0x1
     960:	41940cb3          	sub	s9,s0,s9
     964:	480cbc83          	ld	s9,1152(s9) # 1480 <.LBB61_4+0x2dc>
     968:	080ccc93          	xori	s9,s9,128
     96c:	019c06a3          	sb	s9,13(s8)
     970:	00001cb7          	lui	s9,0x1
     974:	41940cb3          	sub	s9,s0,s9
     978:	490cbc83          	ld	s9,1168(s9) # 1490 <.LBB61_4+0x2ec>
     97c:	080ccc93          	xori	s9,s9,128
     980:	019c0723          	sb	s9,14(s8)
     984:	00001cb7          	lui	s9,0x1
     988:	41940cb3          	sub	s9,s0,s9
     98c:	4a0cbc83          	ld	s9,1184(s9) # 14a0 <.LBB61_4+0x2fc>
     990:	080ccc93          	xori	s9,s9,128
     994:	019c07a3          	sb	s9,15(s8)
     998:	00001cb7          	lui	s9,0x1
     99c:	41940cb3          	sub	s9,s0,s9
     9a0:	4b0cbc83          	ld	s9,1200(s9) # 14b0 <.LBB61_4+0x30c>
     9a4:	080ccc93          	xori	s9,s9,128
     9a8:	019c0823          	sb	s9,16(s8)
     9ac:	00001cb7          	lui	s9,0x1
     9b0:	41940cb3          	sub	s9,s0,s9
     9b4:	4c0cbc83          	ld	s9,1216(s9) # 14c0 <.LBB61_4+0x31c>
     9b8:	080ccc93          	xori	s9,s9,128
     9bc:	019c08a3          	sb	s9,17(s8)
     9c0:	00001cb7          	lui	s9,0x1
     9c4:	41940cb3          	sub	s9,s0,s9
     9c8:	4d0cbc83          	ld	s9,1232(s9) # 14d0 <.LBB61_4+0x32c>
     9cc:	080ccc93          	xori	s9,s9,128
     9d0:	019c0923          	sb	s9,18(s8)
     9d4:	00001cb7          	lui	s9,0x1
     9d8:	41940cb3          	sub	s9,s0,s9
     9dc:	4e0cbc83          	ld	s9,1248(s9) # 14e0 <.LBB61_4+0x33c>
     9e0:	080ccc93          	xori	s9,s9,128
     9e4:	019c09a3          	sb	s9,19(s8)
     9e8:	00001cb7          	lui	s9,0x1
     9ec:	41940cb3          	sub	s9,s0,s9
     9f0:	4f0cbc83          	ld	s9,1264(s9) # 14f0 <.LBB61_4+0x34c>
     9f4:	080ccc93          	xori	s9,s9,128
     9f8:	019c0a23          	sb	s9,20(s8)
     9fc:	00001cb7          	lui	s9,0x1
     a00:	41940cb3          	sub	s9,s0,s9
     a04:	500cbc83          	ld	s9,1280(s9) # 1500 <.LBB61_4+0x35c>
     a08:	080ccc93          	xori	s9,s9,128
     a0c:	019c0aa3          	sb	s9,21(s8)
     a10:	00001cb7          	lui	s9,0x1
     a14:	41940cb3          	sub	s9,s0,s9
     a18:	510cbc83          	ld	s9,1296(s9) # 1510 <.LBB61_4+0x36c>
     a1c:	080ccc93          	xori	s9,s9,128
     a20:	019c0b23          	sb	s9,22(s8)
     a24:	00001cb7          	lui	s9,0x1
     a28:	41940cb3          	sub	s9,s0,s9
     a2c:	520cbc83          	ld	s9,1312(s9) # 1520 <.LBB61_4+0x37c>
     a30:	080ccc93          	xori	s9,s9,128
     a34:	019c0ba3          	sb	s9,23(s8)
     a38:	00001cb7          	lui	s9,0x1
     a3c:	41940cb3          	sub	s9,s0,s9
     a40:	530cbc83          	ld	s9,1328(s9) # 1530 <.LBB61_4+0x38c>
     a44:	080ccc93          	xori	s9,s9,128
     a48:	019c0c23          	sb	s9,24(s8)
     a4c:	00001cb7          	lui	s9,0x1
     a50:	41940cb3          	sub	s9,s0,s9
     a54:	540cbc83          	ld	s9,1344(s9) # 1540 <.LBB61_4+0x39c>
     a58:	080ccc93          	xori	s9,s9,128
     a5c:	019c0ca3          	sb	s9,25(s8)
     a60:	00001cb7          	lui	s9,0x1
     a64:	41940cb3          	sub	s9,s0,s9
     a68:	550cbc83          	ld	s9,1360(s9) # 1550 <.LBB61_4+0x3ac>
     a6c:	080ccc93          	xori	s9,s9,128
     a70:	019c0d23          	sb	s9,26(s8)
     a74:	00001cb7          	lui	s9,0x1
     a78:	41940cb3          	sub	s9,s0,s9
     a7c:	560cbc83          	ld	s9,1376(s9) # 1560 <.LBB61_4+0x3bc>
     a80:	080ccc93          	xori	s9,s9,128
     a84:	019c0da3          	sb	s9,27(s8)
     a88:	00001cb7          	lui	s9,0x1
     a8c:	41940cb3          	sub	s9,s0,s9
     a90:	570cbc83          	ld	s9,1392(s9) # 1570 <.LBB61_4+0x3cc>
     a94:	080ccc93          	xori	s9,s9,128
     a98:	019c0e23          	sb	s9,28(s8)
     a9c:	00001cb7          	lui	s9,0x1
     aa0:	41940cb3          	sub	s9,s0,s9
     aa4:	580cbc83          	ld	s9,1408(s9) # 1580 <.LBB61_4+0x3dc>
     aa8:	080ccc93          	xori	s9,s9,128
     aac:	019c0ea3          	sb	s9,29(s8)
     ab0:	00001cb7          	lui	s9,0x1
     ab4:	41940cb3          	sub	s9,s0,s9
     ab8:	590cbc83          	ld	s9,1424(s9) # 1590 <.LBB61_4+0x3ec>
     abc:	080ccc93          	xori	s9,s9,128
     ac0:	019c0f23          	sb	s9,30(s8)
     ac4:	00001cb7          	lui	s9,0x1
     ac8:	41940cb3          	sub	s9,s0,s9
     acc:	5a0cbc83          	ld	s9,1440(s9) # 15a0 <.LBB61_4+0x3fc>
     ad0:	080ccc93          	xori	s9,s9,128
     ad4:	019c0fa3          	sb	s9,31(s8)
     ad8:	00001c37          	lui	s8,0x1
     adc:	41840c33          	sub	s8,s0,s8
     ae0:	5b0c3c03          	ld	s8,1456(s8) # 15b0 <.LBB61_4+0x40c>
     ae4:	080c4c93          	xori	s9,s8,128
     ae8:	00001c37          	lui	s8,0x1
     aec:	41840c33          	sub	s8,s0,s8
     af0:	d58c3c03          	ld	s8,-680(s8) # d58 <.LBB61_3+0xb30>
     af4:	01ac0c33          	add	s8,s8,s10
     af8:	019c01a3          	sb	s9,3(s8)
     afc:	00001cb7          	lui	s9,0x1
     b00:	41940cb3          	sub	s9,s0,s9
     b04:	5c0cbc83          	ld	s9,1472(s9) # 15c0 <.LBB61_4+0x41c>
     b08:	080ccc93          	xori	s9,s9,128
     b0c:	019c0123          	sb	s9,2(s8)
     b10:	00001cb7          	lui	s9,0x1
     b14:	41940cb3          	sub	s9,s0,s9
     b18:	5d0cbc83          	ld	s9,1488(s9) # 15d0 <.LBB61_4+0x42c>
     b1c:	080ccc93          	xori	s9,s9,128
     b20:	019c00a3          	sb	s9,1(s8)
     b24:	00001cb7          	lui	s9,0x1
     b28:	41940cb3          	sub	s9,s0,s9
     b2c:	5e0cbc83          	ld	s9,1504(s9) # 15e0 <.LBB61_4+0x43c>
     b30:	080ccc93          	xori	s9,s9,128
     b34:	019c0023          	sb	s9,0(s8)
     b38:	00001cb7          	lui	s9,0x1
     b3c:	41940cb3          	sub	s9,s0,s9
     b40:	5f0cbc83          	ld	s9,1520(s9) # 15f0 <.LBB61_4+0x44c>
     b44:	080ccc93          	xori	s9,s9,128
     b48:	019c0223          	sb	s9,4(s8)
     b4c:	00001cb7          	lui	s9,0x1
     b50:	41940cb3          	sub	s9,s0,s9
     b54:	600cbc83          	ld	s9,1536(s9) # 1600 <.LBB61_4+0x45c>
     b58:	080ccc93          	xori	s9,s9,128
     b5c:	019c02a3          	sb	s9,5(s8)
     b60:	00001cb7          	lui	s9,0x1
     b64:	41940cb3          	sub	s9,s0,s9
     b68:	610cbc83          	ld	s9,1552(s9) # 1610 <.LBB61_4+0x46c>
     b6c:	080ccc93          	xori	s9,s9,128
     b70:	019c0323          	sb	s9,6(s8)
     b74:	00001cb7          	lui	s9,0x1
     b78:	41940cb3          	sub	s9,s0,s9
     b7c:	620cbc83          	ld	s9,1568(s9) # 1620 <.LBB61_4+0x47c>
     b80:	080ccc93          	xori	s9,s9,128
     b84:	019c03a3          	sb	s9,7(s8)
     b88:	00001cb7          	lui	s9,0x1
     b8c:	41940cb3          	sub	s9,s0,s9
     b90:	630cbc83          	ld	s9,1584(s9) # 1630 <.LBB61_4+0x48c>
     b94:	080ccc93          	xori	s9,s9,128
     b98:	019c0423          	sb	s9,8(s8)
     b9c:	00001cb7          	lui	s9,0x1
     ba0:	41940cb3          	sub	s9,s0,s9
     ba4:	640cbc83          	ld	s9,1600(s9) # 1640 <.LBB61_4+0x49c>
     ba8:	080ccc93          	xori	s9,s9,128
     bac:	019c04a3          	sb	s9,9(s8)
     bb0:	00001cb7          	lui	s9,0x1
     bb4:	41940cb3          	sub	s9,s0,s9
     bb8:	678cbc83          	ld	s9,1656(s9) # 1678 <.LBB61_4+0x4d4>
     bbc:	080ccc93          	xori	s9,s9,128
     bc0:	019c0523          	sb	s9,10(s8)
     bc4:	00001cb7          	lui	s9,0x1
     bc8:	41940cb3          	sub	s9,s0,s9
     bcc:	688cbc83          	ld	s9,1672(s9) # 1688 <.LBB61_4+0x4e4>
     bd0:	080ccc93          	xori	s9,s9,128
     bd4:	019c05a3          	sb	s9,11(s8)
     bd8:	00001cb7          	lui	s9,0x1
     bdc:	41940cb3          	sub	s9,s0,s9
     be0:	6f8cbc83          	ld	s9,1784(s9) # 16f8 <.LBB61_4+0x554>
     be4:	080ccc93          	xori	s9,s9,128
     be8:	019c0623          	sb	s9,12(s8)
     bec:	00001cb7          	lui	s9,0x1
     bf0:	41940cb3          	sub	s9,s0,s9
     bf4:	708cbc83          	ld	s9,1800(s9) # 1708 <.LBB61_4+0x564>
     bf8:	080ccc93          	xori	s9,s9,128
     bfc:	019c06a3          	sb	s9,13(s8)
     c00:	00001cb7          	lui	s9,0x1
     c04:	41940cb3          	sub	s9,s0,s9
     c08:	720cbc83          	ld	s9,1824(s9) # 1720 <.LBB61_4+0x57c>
     c0c:	080ccc93          	xori	s9,s9,128
     c10:	019c0723          	sb	s9,14(s8)
     c14:	00001cb7          	lui	s9,0x1
     c18:	41940cb3          	sub	s9,s0,s9
     c1c:	730cbc83          	ld	s9,1840(s9) # 1730 <.LBB61_4+0x58c>
     c20:	080ccc93          	xori	s9,s9,128
     c24:	019c07a3          	sb	s9,15(s8)
     c28:	00001cb7          	lui	s9,0x1
     c2c:	41940cb3          	sub	s9,s0,s9
     c30:	758cbc83          	ld	s9,1880(s9) # 1758 <.LBB61_5+0x18>
     c34:	080ccc93          	xori	s9,s9,128
     c38:	019c0823          	sb	s9,16(s8)
     c3c:	00001cb7          	lui	s9,0x1
     c40:	41940cb3          	sub	s9,s0,s9
     c44:	770cbc83          	ld	s9,1904(s9) # 1770 <.LBB61_5+0x30>
     c48:	080ccc93          	xori	s9,s9,128
     c4c:	019c08a3          	sb	s9,17(s8)
     c50:	00001cb7          	lui	s9,0x1
     c54:	41940cb3          	sub	s9,s0,s9
     c58:	780cbc83          	ld	s9,1920(s9) # 1780 <.LBB61_5+0x40>
     c5c:	080ccc93          	xori	s9,s9,128
     c60:	019c0923          	sb	s9,18(s8)
     c64:	00001cb7          	lui	s9,0x1
     c68:	41940cb3          	sub	s9,s0,s9
     c6c:	790cbc83          	ld	s9,1936(s9) # 1790 <.LBB61_5+0x50>
     c70:	080ccc93          	xori	s9,s9,128
     c74:	019c09a3          	sb	s9,19(s8)
     c78:	00001cb7          	lui	s9,0x1
     c7c:	41940cb3          	sub	s9,s0,s9
     c80:	7a8cbc83          	ld	s9,1960(s9) # 17a8 <.LBB61_5+0x68>
     c84:	080ccc93          	xori	s9,s9,128
     c88:	019c0a23          	sb	s9,20(s8)
     c8c:	00001cb7          	lui	s9,0x1
     c90:	41940cb3          	sub	s9,s0,s9
     c94:	7b8cbc83          	ld	s9,1976(s9) # 17b8 <.LBB61_5+0x78>
     c98:	080ccc93          	xori	s9,s9,128
     c9c:	019c0aa3          	sb	s9,21(s8)
     ca0:	00001cb7          	lui	s9,0x1
     ca4:	41940cb3          	sub	s9,s0,s9
     ca8:	7c8cbc83          	ld	s9,1992(s9) # 17c8 <.LBB61_5+0x88>
     cac:	080ccc93          	xori	s9,s9,128
     cb0:	019c0b23          	sb	s9,22(s8)
     cb4:	00001cb7          	lui	s9,0x1
     cb8:	41940cb3          	sub	s9,s0,s9
     cbc:	7d8cbc83          	ld	s9,2008(s9) # 17d8 <.LBB61_5+0x98>
     cc0:	080ccc93          	xori	s9,s9,128
     cc4:	019c0ba3          	sb	s9,23(s8)
     cc8:	00001cb7          	lui	s9,0x1
     ccc:	41940cb3          	sub	s9,s0,s9
     cd0:	7f0cbc83          	ld	s9,2032(s9) # 17f0 <.LBB61_5+0xb0>
     cd4:	080ccc93          	xori	s9,s9,128
     cd8:	019c0c23          	sb	s9,24(s8)
     cdc:	80043c83          	ld	s9,-2048(s0)
     ce0:	080ccc93          	xori	s9,s9,128
     ce4:	019c0ca3          	sb	s9,25(s8)
     ce8:	81043c83          	ld	s9,-2032(s0)
     cec:	080ccc93          	xori	s9,s9,128
     cf0:	019c0d23          	sb	s9,26(s8)
     cf4:	82043c83          	ld	s9,-2016(s0)
     cf8:	080ccc93          	xori	s9,s9,128
     cfc:	019c0da3          	sb	s9,27(s8)
     d00:	83843c83          	ld	s9,-1992(s0)
     d04:	080ccc93          	xori	s9,s9,128
     d08:	019c0e23          	sb	s9,28(s8)
     d0c:	84843c83          	ld	s9,-1976(s0)
     d10:	080ccc93          	xori	s9,s9,128
     d14:	019c0ea3          	sb	s9,29(s8)
     d18:	85843c83          	ld	s9,-1960(s0)
     d1c:	080ccc93          	xori	s9,s9,128
     d20:	019c0f23          	sb	s9,30(s8)
     d24:	87043c83          	ld	s9,-1936(s0)
     d28:	080ccc93          	xori	s9,s9,128
     d2c:	019c0fa3          	sb	s9,31(s8)
     d30:	88043c03          	ld	s8,-1920(s0)
     d34:	080c4c93          	xori	s9,s8,128
     d38:	00001c37          	lui	s8,0x1
     d3c:	41840c33          	sub	s8,s0,s8
     d40:	d50c3c03          	ld	s8,-688(s8) # d50 <.LBB61_3+0xb28>
     d44:	01ac0c33          	add	s8,s8,s10
     d48:	019c01a3          	sb	s9,3(s8)
     d4c:	89043c83          	ld	s9,-1904(s0)
     d50:	080ccc93          	xori	s9,s9,128
     d54:	019c0123          	sb	s9,2(s8)
     d58:	8a043c83          	ld	s9,-1888(s0)
     d5c:	080ccc93          	xori	s9,s9,128
     d60:	019c00a3          	sb	s9,1(s8)
     d64:	8b843c83          	ld	s9,-1864(s0)
     d68:	080ccc93          	xori	s9,s9,128
     d6c:	019c0023          	sb	s9,0(s8)
     d70:	8c843c83          	ld	s9,-1848(s0)
     d74:	080ccc93          	xori	s9,s9,128
     d78:	019c0223          	sb	s9,4(s8)
     d7c:	8d843c83          	ld	s9,-1832(s0)
     d80:	080ccc93          	xori	s9,s9,128
     d84:	019c02a3          	sb	s9,5(s8)
     d88:	8e843c83          	ld	s9,-1816(s0)
     d8c:	080ccc93          	xori	s9,s9,128
     d90:	019c0323          	sb	s9,6(s8)
     d94:	90043c83          	ld	s9,-1792(s0)
     d98:	080ccc93          	xori	s9,s9,128
     d9c:	019c03a3          	sb	s9,7(s8)
     da0:	91043c83          	ld	s9,-1776(s0)
     da4:	080ccc93          	xori	s9,s9,128
     da8:	019c0423          	sb	s9,8(s8)
     dac:	92043c83          	ld	s9,-1760(s0)
     db0:	080ccc93          	xori	s9,s9,128
     db4:	019c04a3          	sb	s9,9(s8)
     db8:	93043c83          	ld	s9,-1744(s0)
     dbc:	080ccc93          	xori	s9,s9,128
     dc0:	019c0523          	sb	s9,10(s8)
     dc4:	94843c83          	ld	s9,-1720(s0)
     dc8:	080ccc93          	xori	s9,s9,128
     dcc:	019c05a3          	sb	s9,11(s8)
     dd0:	95843c83          	ld	s9,-1704(s0)
     dd4:	080ccc93          	xori	s9,s9,128
     dd8:	019c0623          	sb	s9,12(s8)
     ddc:	96843c83          	ld	s9,-1688(s0)
     de0:	080ccc93          	xori	s9,s9,128
     de4:	019c06a3          	sb	s9,13(s8)
     de8:	98043c83          	ld	s9,-1664(s0)
     dec:	080ccc93          	xori	s9,s9,128
     df0:	019c0723          	sb	s9,14(s8)
     df4:	99043c83          	ld	s9,-1648(s0)
     df8:	080ccc93          	xori	s9,s9,128
     dfc:	019c07a3          	sb	s9,15(s8)
     e00:	9a043c83          	ld	s9,-1632(s0)
     e04:	080ccc93          	xori	s9,s9,128
     e08:	019c0823          	sb	s9,16(s8)
     e0c:	9b043c83          	ld	s9,-1616(s0)
     e10:	080ccc93          	xori	s9,s9,128
     e14:	019c08a3          	sb	s9,17(s8)
     e18:	9c843c83          	ld	s9,-1592(s0)
     e1c:	080ccc93          	xori	s9,s9,128
     e20:	019c0923          	sb	s9,18(s8)
     e24:	9d843c83          	ld	s9,-1576(s0)
     e28:	080ccc93          	xori	s9,s9,128
     e2c:	019c09a3          	sb	s9,19(s8)
     e30:	9e843c83          	ld	s9,-1560(s0)
     e34:	080ccc93          	xori	s9,s9,128
     e38:	019c0a23          	sb	s9,20(s8)
     e3c:	9f843c83          	ld	s9,-1544(s0)
     e40:	080ccc93          	xori	s9,s9,128
     e44:	019c0aa3          	sb	s9,21(s8)
     e48:	a1043c83          	ld	s9,-1520(s0)
     e4c:	080ccc93          	xori	s9,s9,128
     e50:	019c0b23          	sb	s9,22(s8)
     e54:	a2043c83          	ld	s9,-1504(s0)
     e58:	080ccc93          	xori	s9,s9,128
     e5c:	019c0ba3          	sb	s9,23(s8)
     e60:	a3043c83          	ld	s9,-1488(s0)
     e64:	080ccc93          	xori	s9,s9,128
     e68:	019c0c23          	sb	s9,24(s8)
     e6c:	a4843c83          	ld	s9,-1464(s0)
     e70:	080ccc93          	xori	s9,s9,128
     e74:	019c0ca3          	sb	s9,25(s8)
     e78:	a5843c83          	ld	s9,-1448(s0)
     e7c:	080ccc93          	xori	s9,s9,128
     e80:	019c0d23          	sb	s9,26(s8)
     e84:	a6843c83          	ld	s9,-1432(s0)
     e88:	080ccc93          	xori	s9,s9,128
     e8c:	019c0da3          	sb	s9,27(s8)
     e90:	a7843c83          	ld	s9,-1416(s0)
     e94:	080ccc93          	xori	s9,s9,128
     e98:	019c0e23          	sb	s9,28(s8)
     e9c:	a9043c83          	ld	s9,-1392(s0)
     ea0:	080ccc93          	xori	s9,s9,128
     ea4:	019c0ea3          	sb	s9,29(s8)
     ea8:	aa043c83          	ld	s9,-1376(s0)
     eac:	080ccc93          	xori	s9,s9,128
     eb0:	019c0f23          	sb	s9,30(s8)
     eb4:	ab043c83          	ld	s9,-1360(s0)
     eb8:	080ccc93          	xori	s9,s9,128
     ebc:	019c0fa3          	sb	s9,31(s8)
     ec0:	ac043c03          	ld	s8,-1344(s0)
     ec4:	080c4c93          	xori	s9,s8,128
     ec8:	00001c37          	lui	s8,0x1
     ecc:	41840c33          	sub	s8,s0,s8
     ed0:	d48c3c03          	ld	s8,-696(s8) # d48 <.LBB61_3+0xb20>
     ed4:	01ac0c33          	add	s8,s8,s10
     ed8:	019c01a3          	sb	s9,3(s8)
     edc:	ad843c83          	ld	s9,-1320(s0)
     ee0:	080ccc93          	xori	s9,s9,128
     ee4:	019c0123          	sb	s9,2(s8)
     ee8:	ae843c83          	ld	s9,-1304(s0)
     eec:	080ccc93          	xori	s9,s9,128
     ef0:	019c00a3          	sb	s9,1(s8)
     ef4:	af843c83          	ld	s9,-1288(s0)
     ef8:	080ccc93          	xori	s9,s9,128
     efc:	019c0023          	sb	s9,0(s8)
     f00:	b0843c83          	ld	s9,-1272(s0)
     f04:	080ccc93          	xori	s9,s9,128
     f08:	019c0223          	sb	s9,4(s8)
     f0c:	b2043c83          	ld	s9,-1248(s0)
     f10:	080ccc93          	xori	s9,s9,128
     f14:	019c02a3          	sb	s9,5(s8)
     f18:	b3043c83          	ld	s9,-1232(s0)
     f1c:	080ccc93          	xori	s9,s9,128
     f20:	019c0323          	sb	s9,6(s8)
     f24:	b4043c83          	ld	s9,-1216(s0)
     f28:	080ccc93          	xori	s9,s9,128
     f2c:	019c03a3          	sb	s9,7(s8)
     f30:	b5843c83          	ld	s9,-1192(s0)
     f34:	080ccc93          	xori	s9,s9,128
     f38:	019c0423          	sb	s9,8(s8)
     f3c:	b6843c83          	ld	s9,-1176(s0)
     f40:	080ccc93          	xori	s9,s9,128
     f44:	019c04a3          	sb	s9,9(s8)
     f48:	b7843c83          	ld	s9,-1160(s0)
     f4c:	080ccc93          	xori	s9,s9,128
     f50:	019c0523          	sb	s9,10(s8)
     f54:	b8843c83          	ld	s9,-1144(s0)
     f58:	080ccc93          	xori	s9,s9,128
     f5c:	019c05a3          	sb	s9,11(s8)
     f60:	ba043c83          	ld	s9,-1120(s0)
     f64:	080ccc93          	xori	s9,s9,128
     f68:	019c0623          	sb	s9,12(s8)
     f6c:	bb043c83          	ld	s9,-1104(s0)
     f70:	080ccc93          	xori	s9,s9,128
     f74:	019c06a3          	sb	s9,13(s8)
     f78:	bc043c83          	ld	s9,-1088(s0)
     f7c:	080ccc93          	xori	s9,s9,128
     f80:	019c0723          	sb	s9,14(s8)
     f84:	bd043c83          	ld	s9,-1072(s0)
     f88:	080ccc93          	xori	s9,s9,128
     f8c:	019c07a3          	sb	s9,15(s8)
     f90:	be843c83          	ld	s9,-1048(s0)
     f94:	080ccc93          	xori	s9,s9,128
     f98:	019c0823          	sb	s9,16(s8)
     f9c:	bf843c83          	ld	s9,-1032(s0)
     fa0:	080ccc93          	xori	s9,s9,128
     fa4:	019c08a3          	sb	s9,17(s8)
     fa8:	c0843c83          	ld	s9,-1016(s0)
     fac:	080ccc93          	xori	s9,s9,128
     fb0:	019c0923          	sb	s9,18(s8)
     fb4:	c2043c83          	ld	s9,-992(s0)
     fb8:	080ccc93          	xori	s9,s9,128
     fbc:	019c09a3          	sb	s9,19(s8)
     fc0:	c3043c83          	ld	s9,-976(s0)
     fc4:	080ccc93          	xori	s9,s9,128
     fc8:	019c0a23          	sb	s9,20(s8)
     fcc:	c4043c83          	ld	s9,-960(s0)
     fd0:	080ccc93          	xori	s9,s9,128
     fd4:	019c0aa3          	sb	s9,21(s8)
     fd8:	c5043c83          	ld	s9,-944(s0)
     fdc:	080ccc93          	xori	s9,s9,128
     fe0:	019c0b23          	sb	s9,22(s8)
     fe4:	c6843c83          	ld	s9,-920(s0)
     fe8:	080ccc93          	xori	s9,s9,128
     fec:	019c0ba3          	sb	s9,23(s8)
     ff0:	c7843c83          	ld	s9,-904(s0)
     ff4:	080ccc93          	xori	s9,s9,128
     ff8:	019c0c23          	sb	s9,24(s8)
     ffc:	c8843c83          	ld	s9,-888(s0)
    1000:	080ccc93          	xori	s9,s9,128
    1004:	019c0ca3          	sb	s9,25(s8)
    1008:	c9843c83          	ld	s9,-872(s0)
    100c:	080ccc93          	xori	s9,s9,128
    1010:	019c0d23          	sb	s9,26(s8)
    1014:	cb043c83          	ld	s9,-848(s0)
    1018:	080ccc93          	xori	s9,s9,128
    101c:	019c0da3          	sb	s9,27(s8)
    1020:	cc043c83          	ld	s9,-832(s0)
    1024:	080ccc93          	xori	s9,s9,128
    1028:	019c0e23          	sb	s9,28(s8)
    102c:	cd043c83          	ld	s9,-816(s0)
    1030:	080ccc93          	xori	s9,s9,128
    1034:	019c0ea3          	sb	s9,29(s8)
    1038:	ce043c83          	ld	s9,-800(s0)
    103c:	080ccc93          	xori	s9,s9,128
    1040:	019c0f23          	sb	s9,30(s8)
    1044:	cf043c83          	ld	s9,-784(s0)
    1048:	080ccc93          	xori	s9,s9,128
    104c:	019c0fa3          	sb	s9,31(s8)
    1050:	d0043c03          	ld	s8,-768(s0)
    1054:	080c4c93          	xori	s9,s8,128
    1058:	00001c37          	lui	s8,0x1
    105c:	41840c33          	sub	s8,s0,s8
    1060:	d40c3c03          	ld	s8,-704(s8) # d40 <.LBB61_3+0xb18>
    1064:	01ac0c33          	add	s8,s8,s10
    1068:	019c01a3          	sb	s9,3(s8)
    106c:	d1043c83          	ld	s9,-752(s0)
    1070:	080ccc93          	xori	s9,s9,128
    1074:	019c0123          	sb	s9,2(s8)
    1078:	d2043c83          	ld	s9,-736(s0)
    107c:	080ccc93          	xori	s9,s9,128
    1080:	019c00a3          	sb	s9,1(s8)
    1084:	d3043c83          	ld	s9,-720(s0)
    1088:	080ccc93          	xori	s9,s9,128
    108c:	019c0023          	sb	s9,0(s8)
    1090:	d4043c83          	ld	s9,-704(s0)
    1094:	080ccc93          	xori	s9,s9,128
    1098:	019c0223          	sb	s9,4(s8)
    109c:	d5043c83          	ld	s9,-688(s0)
    10a0:	080ccc93          	xori	s9,s9,128
    10a4:	019c02a3          	sb	s9,5(s8)
    10a8:	d6043c83          	ld	s9,-672(s0)
    10ac:	080ccc93          	xori	s9,s9,128
    10b0:	019c0323          	sb	s9,6(s8)
    10b4:	d7043c83          	ld	s9,-656(s0)
    10b8:	080ccc93          	xori	s9,s9,128
    10bc:	019c03a3          	sb	s9,7(s8)
    10c0:	d8043c83          	ld	s9,-640(s0)
    10c4:	080ccc93          	xori	s9,s9,128
    10c8:	019c0423          	sb	s9,8(s8)
    10cc:	080dcc93          	xori	s9,s11,128
    10d0:	019c04a3          	sb	s9,9(s8)
    10d4:	08054513          	xori	a0,a0,128
    10d8:	00ac0523          	sb	a0,10(s8)
    10dc:	0805c513          	xori	a0,a1,128
    10e0:	00ac05a3          	sb	a0,11(s8)
    10e4:	08064513          	xori	a0,a2,128
    10e8:	00ac0623          	sb	a0,12(s8)
    10ec:	0806c513          	xori	a0,a3,128
    10f0:	00ac06a3          	sb	a0,13(s8)
    10f4:	08074513          	xori	a0,a4,128
    10f8:	00ac0723          	sb	a0,14(s8)
    10fc:	0807c513          	xori	a0,a5,128
    1100:	00ac07a3          	sb	a0,15(s8)
    1104:	08084513          	xori	a0,a6,128
    1108:	00ac0823          	sb	a0,16(s8)
    110c:	0808c513          	xori	a0,a7,128
    1110:	00ac08a3          	sb	a0,17(s8)
    1114:	0802c513          	xori	a0,t0,128
    1118:	00ac0923          	sb	a0,18(s8)
    111c:	08034513          	xori	a0,t1,128
    1120:	00ac09a3          	sb	a0,19(s8)
    1124:	0803c513          	xori	a0,t2,128
    1128:	00ac0a23          	sb	a0,20(s8)
    112c:	080e4513          	xori	a0,t3,128
    1130:	00ac0aa3          	sb	a0,21(s8)
    1134:	080ec513          	xori	a0,t4,128
    1138:	00ac0b23          	sb	a0,22(s8)
    113c:	080f4513          	xori	a0,t5,128
    1140:	00ac0ba3          	sb	a0,23(s8)
    1144:	080fc513          	xori	a0,t6,128
    1148:	00ac0c23          	sb	a0,24(s8)
    114c:	0804c513          	xori	a0,s1,128
    1150:	00ac0ca3          	sb	a0,25(s8)
    1154:	08094513          	xori	a0,s2,128
    1158:	00ac0d23          	sb	a0,26(s8)
    115c:	0809c513          	xori	a0,s3,128
    1160:	00ac0da3          	sb	a0,27(s8)
    1164:	080a4513          	xori	a0,s4,128
    1168:	00ac0e23          	sb	a0,28(s8)
    116c:	080ac513          	xori	a0,s5,128
    1170:	00ac0ea3          	sb	a0,29(s8)
    1174:	080b4513          	xori	a0,s6,128
    1178:	00ac0f23          	sb	a0,30(s8)
    117c:	080bc513          	xori	a0,s7,128
    1180:	00ac0fa3          	sb	a0,31(s8)
    1184:	020d0593          	addi	a1,s10,32
    1188:	00001537          	lui	a0,0x1
    118c:	40a40533          	sub	a0,s0,a0
    1190:	65053a03          	ld	s4,1616(a0) # 1650 <.LBB61_4+0x4ac>
    1194:	020a0a13          	addi	s4,s4,32
    1198:	16000513          	li	a0,352
    119c:	00ad6463          	bltu	s10,a0,11a4 <.LBB61_4>
    11a0:	f75fe06f          	j	114 <.LBB61_1>

00000000000011a4 <.LBB61_4>:
    11a4:	00001537          	lui	a0,0x1
    11a8:	40a40533          	sub	a0,s0,a0
    11ac:	66b53423          	sd	a1,1640(a0) # 1668 <.LBB61_4+0x4c4>
    11b0:	000067b7          	lui	a5,0x6
    11b4:	00001537          	lui	a0,0x1
    11b8:	40a40533          	sub	a0,s0,a0
    11bc:	d9053803          	ld	a6,-624(a0) # d90 <.LBB61_3+0xb68>
    11c0:	00001537          	lui	a0,0x1
    11c4:	40a40533          	sub	a0,s0,a0
    11c8:	65453823          	sd	s4,1616(a0) # 1650 <.LBB61_4+0x4ac>
    11cc:	000a0913          	mv	s2,s4
    11d0:	00001537          	lui	a0,0x1
    11d4:	40a40533          	sub	a0,s0,a0
    11d8:	6c053423          	sd	zero,1736(a0) # 16c8 <.LBB61_4+0x524>
    11dc:	00001537          	lui	a0,0x1
    11e0:	40a40533          	sub	a0,s0,a0
    11e4:	6c053023          	sd	zero,1728(a0) # 16c0 <.LBB61_4+0x51c>
    11e8:	00001537          	lui	a0,0x1
    11ec:	40a40533          	sub	a0,s0,a0
    11f0:	6a053423          	sd	zero,1704(a0) # 16a8 <.LBB61_4+0x504>
    11f4:	00001537          	lui	a0,0x1
    11f8:	40a40533          	sub	a0,s0,a0
    11fc:	6a053823          	sd	zero,1712(a0) # 16b0 <.LBB61_4+0x50c>
    1200:	00001537          	lui	a0,0x1
    1204:	40a40533          	sub	a0,s0,a0
    1208:	6c053823          	sd	zero,1744(a0) # 16d0 <.LBB61_4+0x52c>
    120c:	00001537          	lui	a0,0x1
    1210:	40a40533          	sub	a0,s0,a0
    1214:	6a053c23          	sd	zero,1720(a0) # 16b8 <.LBB61_4+0x514>
    1218:	00001537          	lui	a0,0x1
    121c:	40a40533          	sub	a0,s0,a0
    1220:	6a053023          	sd	zero,1696(a0) # 16a0 <.LBB61_4+0x4fc>
    1224:	00001537          	lui	a0,0x1
    1228:	40a40533          	sub	a0,s0,a0
    122c:	68053c23          	sd	zero,1688(a0) # 1698 <.LBB61_4+0x4f4>
    1230:	00001537          	lui	a0,0x1
    1234:	40a40533          	sub	a0,s0,a0
    1238:	68053823          	sd	zero,1680(a0) # 1690 <.LBB61_4+0x4ec>
    123c:	00001537          	lui	a0,0x1
    1240:	40a40533          	sub	a0,s0,a0
    1244:	6c053c23          	sd	zero,1752(a0) # 16d8 <.LBB61_4+0x534>
    1248:	00001537          	lui	a0,0x1
    124c:	40a40533          	sub	a0,s0,a0
    1250:	6e053023          	sd	zero,1760(a0) # 16e0 <.LBB61_4+0x53c>
    1254:	00001537          	lui	a0,0x1
    1258:	40a40533          	sub	a0,s0,a0
    125c:	6e053423          	sd	zero,1768(a0) # 16e8 <.LBB61_4+0x544>
    1260:	00001537          	lui	a0,0x1
    1264:	40a40533          	sub	a0,s0,a0
    1268:	6e053823          	sd	zero,1776(a0) # 16f0 <.LBB61_4+0x54c>
    126c:	00001537          	lui	a0,0x1
    1270:	40a40533          	sub	a0,s0,a0
    1274:	6e053c23          	sd	zero,1784(a0) # 16f8 <.LBB61_4+0x554>
    1278:	00001537          	lui	a0,0x1
    127c:	40a40533          	sub	a0,s0,a0
    1280:	70053023          	sd	zero,1792(a0) # 1700 <.LBB61_4+0x55c>
    1284:	00001537          	lui	a0,0x1
    1288:	40a40533          	sub	a0,s0,a0
    128c:	70053423          	sd	zero,1800(a0) # 1708 <.LBB61_4+0x564>
    1290:	00001537          	lui	a0,0x1
    1294:	40a40533          	sub	a0,s0,a0
    1298:	70053823          	sd	zero,1808(a0) # 1710 <.LBB61_4+0x56c>
    129c:	00001537          	lui	a0,0x1
    12a0:	40a40533          	sub	a0,s0,a0
    12a4:	70053c23          	sd	zero,1816(a0) # 1718 <.LBB61_4+0x574>
    12a8:	00001537          	lui	a0,0x1
    12ac:	40a40533          	sub	a0,s0,a0
    12b0:	72053023          	sd	zero,1824(a0) # 1720 <.LBB61_4+0x57c>
    12b4:	00001537          	lui	a0,0x1
    12b8:	40a40533          	sub	a0,s0,a0
    12bc:	72053423          	sd	zero,1832(a0) # 1728 <.LBB61_4+0x584>
    12c0:	00001537          	lui	a0,0x1
    12c4:	40a40533          	sub	a0,s0,a0
    12c8:	72053823          	sd	zero,1840(a0) # 1730 <.LBB61_4+0x58c>
    12cc:	00001537          	lui	a0,0x1
    12d0:	40a40533          	sub	a0,s0,a0
    12d4:	72053c23          	sd	zero,1848(a0) # 1738 <.LBB61_4+0x594>
    12d8:	00001537          	lui	a0,0x1
    12dc:	40a40533          	sub	a0,s0,a0
    12e0:	74053023          	sd	zero,1856(a0) # 1740 <.LBB61_5>
    12e4:	00001537          	lui	a0,0x1
    12e8:	40a40533          	sub	a0,s0,a0
    12ec:	74053423          	sd	zero,1864(a0) # 1748 <.LBB61_5+0x8>
    12f0:	00001537          	lui	a0,0x1
    12f4:	40a40533          	sub	a0,s0,a0
    12f8:	74053823          	sd	zero,1872(a0) # 1750 <.LBB61_5+0x10>
    12fc:	00001537          	lui	a0,0x1
    1300:	40a40533          	sub	a0,s0,a0
    1304:	74053c23          	sd	zero,1880(a0) # 1758 <.LBB61_5+0x18>
    1308:	00001537          	lui	a0,0x1
    130c:	40a40533          	sub	a0,s0,a0
    1310:	76053023          	sd	zero,1888(a0) # 1760 <.LBB61_5+0x20>
    1314:	00001537          	lui	a0,0x1
    1318:	40a40533          	sub	a0,s0,a0
    131c:	76053423          	sd	zero,1896(a0) # 1768 <.LBB61_5+0x28>
    1320:	00001537          	lui	a0,0x1
    1324:	40a40533          	sub	a0,s0,a0
    1328:	76053823          	sd	zero,1904(a0) # 1770 <.LBB61_5+0x30>
    132c:	00001537          	lui	a0,0x1
    1330:	40a40533          	sub	a0,s0,a0
    1334:	76053c23          	sd	zero,1912(a0) # 1778 <.LBB61_5+0x38>
    1338:	00001537          	lui	a0,0x1
    133c:	40a40533          	sub	a0,s0,a0
    1340:	78053023          	sd	zero,1920(a0) # 1780 <.LBB61_5+0x40>
    1344:	00001537          	lui	a0,0x1
    1348:	40a40533          	sub	a0,s0,a0
    134c:	78053423          	sd	zero,1928(a0) # 1788 <.LBB61_5+0x48>
    1350:	00001537          	lui	a0,0x1
    1354:	40a40533          	sub	a0,s0,a0
    1358:	7a053423          	sd	zero,1960(a0) # 17a8 <.LBB61_5+0x68>
    135c:	00001537          	lui	a0,0x1
    1360:	40a40533          	sub	a0,s0,a0
    1364:	7a053023          	sd	zero,1952(a0) # 17a0 <.LBB61_5+0x60>
    1368:	00001537          	lui	a0,0x1
    136c:	40a40533          	sub	a0,s0,a0
    1370:	78053c23          	sd	zero,1944(a0) # 1798 <.LBB61_5+0x58>
    1374:	00001537          	lui	a0,0x1
    1378:	40a40533          	sub	a0,s0,a0
    137c:	78053823          	sd	zero,1936(a0) # 1790 <.LBB61_5+0x50>
    1380:	00001537          	lui	a0,0x1
    1384:	40a40533          	sub	a0,s0,a0
    1388:	7a053823          	sd	zero,1968(a0) # 17b0 <.LBB61_5+0x70>
    138c:	00001537          	lui	a0,0x1
    1390:	40a40533          	sub	a0,s0,a0
    1394:	7a053c23          	sd	zero,1976(a0) # 17b8 <.LBB61_5+0x78>
    1398:	00001537          	lui	a0,0x1
    139c:	40a40533          	sub	a0,s0,a0
    13a0:	7c053023          	sd	zero,1984(a0) # 17c0 <.LBB61_5+0x80>
    13a4:	00001537          	lui	a0,0x1
    13a8:	40a40533          	sub	a0,s0,a0
    13ac:	7c053423          	sd	zero,1992(a0) # 17c8 <.LBB61_5+0x88>
    13b0:	00001537          	lui	a0,0x1
    13b4:	40a40533          	sub	a0,s0,a0
    13b8:	7c053823          	sd	zero,2000(a0) # 17d0 <.LBB61_5+0x90>
    13bc:	00001537          	lui	a0,0x1
    13c0:	40a40533          	sub	a0,s0,a0
    13c4:	7c053c23          	sd	zero,2008(a0) # 17d8 <.LBB61_5+0x98>
    13c8:	00001537          	lui	a0,0x1
    13cc:	40a40533          	sub	a0,s0,a0
    13d0:	7e053023          	sd	zero,2016(a0) # 17e0 <.LBB61_5+0xa0>
    13d4:	00001537          	lui	a0,0x1
    13d8:	40a40533          	sub	a0,s0,a0
    13dc:	7e053423          	sd	zero,2024(a0) # 17e8 <.LBB61_5+0xa8>
    13e0:	00001537          	lui	a0,0x1
    13e4:	40a40533          	sub	a0,s0,a0
    13e8:	7e053823          	sd	zero,2032(a0) # 17f0 <.LBB61_5+0xb0>
    13ec:	00001537          	lui	a0,0x1
    13f0:	40a40533          	sub	a0,s0,a0
    13f4:	7e053c23          	sd	zero,2040(a0) # 17f8 <.LBB61_5+0xb8>
    13f8:	80043023          	sd	zero,-2048(s0)
    13fc:	80043423          	sd	zero,-2040(s0)
    1400:	80043823          	sd	zero,-2032(s0)
    1404:	80043c23          	sd	zero,-2024(s0)
    1408:	82043023          	sd	zero,-2016(s0)
    140c:	82043423          	sd	zero,-2008(s0)
    1410:	82043823          	sd	zero,-2000(s0)
    1414:	82043c23          	sd	zero,-1992(s0)
    1418:	84043023          	sd	zero,-1984(s0)
    141c:	84043423          	sd	zero,-1976(s0)
    1420:	84043823          	sd	zero,-1968(s0)
    1424:	84043c23          	sd	zero,-1960(s0)
    1428:	86043023          	sd	zero,-1952(s0)
    142c:	86043423          	sd	zero,-1944(s0)
    1430:	86043823          	sd	zero,-1936(s0)
    1434:	86043c23          	sd	zero,-1928(s0)
    1438:	88043023          	sd	zero,-1920(s0)
    143c:	88043423          	sd	zero,-1912(s0)
    1440:	8a043423          	sd	zero,-1880(s0)
    1444:	8a043023          	sd	zero,-1888(s0)
    1448:	88043c23          	sd	zero,-1896(s0)
    144c:	88043823          	sd	zero,-1904(s0)
    1450:	8a043823          	sd	zero,-1872(s0)
    1454:	8a043c23          	sd	zero,-1864(s0)
    1458:	8c043023          	sd	zero,-1856(s0)
    145c:	8c043423          	sd	zero,-1848(s0)
    1460:	8c043823          	sd	zero,-1840(s0)
    1464:	8c043c23          	sd	zero,-1832(s0)
    1468:	8e043023          	sd	zero,-1824(s0)
    146c:	8e043423          	sd	zero,-1816(s0)
    1470:	8e043823          	sd	zero,-1808(s0)
    1474:	8e043c23          	sd	zero,-1800(s0)
    1478:	90043023          	sd	zero,-1792(s0)
    147c:	90043423          	sd	zero,-1784(s0)
    1480:	90043823          	sd	zero,-1776(s0)
    1484:	90043c23          	sd	zero,-1768(s0)
    1488:	92043023          	sd	zero,-1760(s0)
    148c:	92043423          	sd	zero,-1752(s0)
    1490:	92043823          	sd	zero,-1744(s0)
    1494:	92043c23          	sd	zero,-1736(s0)
    1498:	94043023          	sd	zero,-1728(s0)
    149c:	94043423          	sd	zero,-1720(s0)
    14a0:	94043823          	sd	zero,-1712(s0)
    14a4:	94043c23          	sd	zero,-1704(s0)
    14a8:	96043023          	sd	zero,-1696(s0)
    14ac:	96043423          	sd	zero,-1688(s0)
    14b0:	96043823          	sd	zero,-1680(s0)
    14b4:	96043c23          	sd	zero,-1672(s0)
    14b8:	98043023          	sd	zero,-1664(s0)
    14bc:	98043423          	sd	zero,-1656(s0)
    14c0:	9a043423          	sd	zero,-1624(s0)
    14c4:	9a043023          	sd	zero,-1632(s0)
    14c8:	98043c23          	sd	zero,-1640(s0)
    14cc:	98043823          	sd	zero,-1648(s0)
    14d0:	9a043823          	sd	zero,-1616(s0)
    14d4:	9a043c23          	sd	zero,-1608(s0)
    14d8:	9c043023          	sd	zero,-1600(s0)
    14dc:	9c043423          	sd	zero,-1592(s0)
    14e0:	9c043823          	sd	zero,-1584(s0)
    14e4:	9c043c23          	sd	zero,-1576(s0)
    14e8:	9e043023          	sd	zero,-1568(s0)
    14ec:	9e043423          	sd	zero,-1560(s0)
    14f0:	9e043823          	sd	zero,-1552(s0)
    14f4:	9e043c23          	sd	zero,-1544(s0)
    14f8:	a0043023          	sd	zero,-1536(s0)
    14fc:	a0043423          	sd	zero,-1528(s0)
    1500:	a0043823          	sd	zero,-1520(s0)
    1504:	a0043c23          	sd	zero,-1512(s0)
    1508:	a2043023          	sd	zero,-1504(s0)
    150c:	a2043423          	sd	zero,-1496(s0)
    1510:	a2043823          	sd	zero,-1488(s0)
    1514:	a2043c23          	sd	zero,-1480(s0)
    1518:	a4043023          	sd	zero,-1472(s0)
    151c:	a4043423          	sd	zero,-1464(s0)
    1520:	a4043823          	sd	zero,-1456(s0)
    1524:	a4043c23          	sd	zero,-1448(s0)
    1528:	a6043023          	sd	zero,-1440(s0)
    152c:	a6043423          	sd	zero,-1432(s0)
    1530:	a6043823          	sd	zero,-1424(s0)
    1534:	a6043c23          	sd	zero,-1416(s0)
    1538:	a8043023          	sd	zero,-1408(s0)
    153c:	a8043423          	sd	zero,-1400(s0)
    1540:	aa043423          	sd	zero,-1368(s0)
    1544:	aa043023          	sd	zero,-1376(s0)
    1548:	a8043c23          	sd	zero,-1384(s0)
    154c:	a8043823          	sd	zero,-1392(s0)
    1550:	aa043823          	sd	zero,-1360(s0)
    1554:	aa043c23          	sd	zero,-1352(s0)
    1558:	ac043023          	sd	zero,-1344(s0)
    155c:	ac043423          	sd	zero,-1336(s0)
    1560:	ac043823          	sd	zero,-1328(s0)
    1564:	ac043c23          	sd	zero,-1320(s0)
    1568:	ae043023          	sd	zero,-1312(s0)
    156c:	ae043423          	sd	zero,-1304(s0)
    1570:	ae043823          	sd	zero,-1296(s0)
    1574:	ae043c23          	sd	zero,-1288(s0)
    1578:	b0043023          	sd	zero,-1280(s0)
    157c:	b0043423          	sd	zero,-1272(s0)
    1580:	b0043823          	sd	zero,-1264(s0)
    1584:	b0043c23          	sd	zero,-1256(s0)
    1588:	b2043023          	sd	zero,-1248(s0)
    158c:	b2043423          	sd	zero,-1240(s0)
    1590:	b2043823          	sd	zero,-1232(s0)
    1594:	b2043c23          	sd	zero,-1224(s0)
    1598:	b4043023          	sd	zero,-1216(s0)
    159c:	b4043423          	sd	zero,-1208(s0)
    15a0:	b4043823          	sd	zero,-1200(s0)
    15a4:	b4043c23          	sd	zero,-1192(s0)
    15a8:	b6043023          	sd	zero,-1184(s0)
    15ac:	b6043423          	sd	zero,-1176(s0)
    15b0:	b6043823          	sd	zero,-1168(s0)
    15b4:	b6043c23          	sd	zero,-1160(s0)
    15b8:	b8043023          	sd	zero,-1152(s0)
    15bc:	b8043423          	sd	zero,-1144(s0)
    15c0:	ba043423          	sd	zero,-1112(s0)
    15c4:	ba043023          	sd	zero,-1120(s0)
    15c8:	b8043c23          	sd	zero,-1128(s0)
    15cc:	b8043823          	sd	zero,-1136(s0)
    15d0:	ba043823          	sd	zero,-1104(s0)
    15d4:	ba043c23          	sd	zero,-1096(s0)
    15d8:	bc043023          	sd	zero,-1088(s0)
    15dc:	bc043423          	sd	zero,-1080(s0)
    15e0:	bc043823          	sd	zero,-1072(s0)
    15e4:	bc043c23          	sd	zero,-1064(s0)
    15e8:	be043023          	sd	zero,-1056(s0)
    15ec:	be043423          	sd	zero,-1048(s0)
    15f0:	be043823          	sd	zero,-1040(s0)
    15f4:	be043c23          	sd	zero,-1032(s0)
    15f8:	c0043023          	sd	zero,-1024(s0)
    15fc:	c0043423          	sd	zero,-1016(s0)
    1600:	c0043823          	sd	zero,-1008(s0)
    1604:	c0043c23          	sd	zero,-1000(s0)
    1608:	c2043023          	sd	zero,-992(s0)
    160c:	c2043423          	sd	zero,-984(s0)
    1610:	c2043823          	sd	zero,-976(s0)
    1614:	c2043c23          	sd	zero,-968(s0)
    1618:	c4043023          	sd	zero,-960(s0)
    161c:	c4043423          	sd	zero,-952(s0)
    1620:	c4043823          	sd	zero,-944(s0)
    1624:	c4043c23          	sd	zero,-936(s0)
    1628:	c6043023          	sd	zero,-928(s0)
    162c:	c6043423          	sd	zero,-920(s0)
    1630:	c6043823          	sd	zero,-912(s0)
    1634:	c6043c23          	sd	zero,-904(s0)
    1638:	c8043023          	sd	zero,-896(s0)
    163c:	c8043423          	sd	zero,-888(s0)
    1640:	ca043423          	sd	zero,-856(s0)
    1644:	ca043023          	sd	zero,-864(s0)
    1648:	c8043c23          	sd	zero,-872(s0)
    164c:	c8043823          	sd	zero,-880(s0)
    1650:	ca043823          	sd	zero,-848(s0)
    1654:	ca043c23          	sd	zero,-840(s0)
    1658:	cc043023          	sd	zero,-832(s0)
    165c:	cc043423          	sd	zero,-824(s0)
    1660:	cc043823          	sd	zero,-816(s0)
    1664:	cc043c23          	sd	zero,-808(s0)
    1668:	ce043023          	sd	zero,-800(s0)
    166c:	ce043423          	sd	zero,-792(s0)
    1670:	ce043823          	sd	zero,-784(s0)
    1674:	ce043c23          	sd	zero,-776(s0)
    1678:	d0043023          	sd	zero,-768(s0)
    167c:	d0043423          	sd	zero,-760(s0)
    1680:	d0043823          	sd	zero,-752(s0)
    1684:	d0043c23          	sd	zero,-744(s0)
    1688:	d2043023          	sd	zero,-736(s0)
    168c:	d2043423          	sd	zero,-728(s0)
    1690:	d2043823          	sd	zero,-720(s0)
    1694:	d2043c23          	sd	zero,-712(s0)
    1698:	d4043023          	sd	zero,-704(s0)
    169c:	d4043423          	sd	zero,-696(s0)
    16a0:	d4043823          	sd	zero,-688(s0)
    16a4:	d4043c23          	sd	zero,-680(s0)
    16a8:	d6043023          	sd	zero,-672(s0)
    16ac:	d6043423          	sd	zero,-664(s0)
    16b0:	d6043823          	sd	zero,-656(s0)
    16b4:	d6043c23          	sd	zero,-648(s0)
    16b8:	d8043023          	sd	zero,-640(s0)
    16bc:	d8043423          	sd	zero,-632(s0)
    16c0:	da043423          	sd	zero,-600(s0)
    16c4:	da043023          	sd	zero,-608(s0)
    16c8:	d8043c23          	sd	zero,-616(s0)
    16cc:	d8043823          	sd	zero,-624(s0)
    16d0:	da043823          	sd	zero,-592(s0)
    16d4:	da043c23          	sd	zero,-584(s0)
    16d8:	dc043023          	sd	zero,-576(s0)
    16dc:	00000713          	li	a4,0
    16e0:	00000d93          	li	s11,0
    16e4:	00000d13          	li	s10,0
    16e8:	00000c93          	li	s9,0
    16ec:	00000c13          	li	s8,0
    16f0:	00000b93          	li	s7,0
    16f4:	00000b13          	li	s6,0
    16f8:	de043c23          	sd	zero,-520(s0)
    16fc:	e0043023          	sd	zero,-512(s0)
    1700:	00000493          	li	s1,0
    1704:	00000f93          	li	t6,0
    1708:	00000f13          	li	t5,0
    170c:	00000e93          	li	t4,0
    1710:	00000e13          	li	t3,0
    1714:	00000693          	li	a3,0
    1718:	00000613          	li	a2,0
    171c:	00000593          	li	a1,0
    1720:	00000513          	li	a0,0
    1724:	00000393          	li	t2,0
    1728:	00000313          	li	t1,0
    172c:	00000293          	li	t0,0
    1730:	00000893          	li	a7,0
    1734:	e4043823          	sd	zero,-432(s0)
    1738:	e4043c23          	sd	zero,-424(s0)
    173c:	e6043023          	sd	zero,-416(s0)

0000000000001740 <.LBB61_5>:
    1740:	f9243423          	sd	s2,-120(s0)
    1744:	f9043023          	sd	a6,-128(s0)
    1748:	000019b7          	lui	s3,0x1
    174c:	413409b3          	sub	s3,s0,s3
    1750:	68f9b423          	sd	a5,1672(s3) # 1688 <.LBB61_4+0x4e4>
    1754:	f2e43023          	sd	a4,-224(s0)
    1758:	ddb43423          	sd	s11,-568(s0)
    175c:	dda43823          	sd	s10,-560(s0)
    1760:	dd943c23          	sd	s9,-552(s0)
    1764:	df843023          	sd	s8,-544(s0)
    1768:	df743423          	sd	s7,-536(s0)
    176c:	df643823          	sd	s6,-528(s0)
    1770:	e0943423          	sd	s1,-504(s0)
    1774:	e1f43823          	sd	t6,-496(s0)
    1778:	e1e43c23          	sd	t5,-488(s0)
    177c:	e3d43023          	sd	t4,-480(s0)
    1780:	e3c43423          	sd	t3,-472(s0)
    1784:	f2d43423          	sd	a3,-216(s0)
    1788:	f2c43823          	sd	a2,-208(s0)
    178c:	f2b43c23          	sd	a1,-200(s0)
    1790:	f4a43023          	sd	a0,-192(s0)
    1794:	e2743823          	sd	t2,-464(s0)
    1798:	e2643c23          	sd	t1,-456(s0)
    179c:	e4543023          	sd	t0,-448(s0)
    17a0:	e5143423          	sd	a7,-440(s0)
    17a4:	e4080503          	lb	a0,-448(a6)
    17a8:	00290603          	lb	a2,2(s2)
    17ac:	f4c43823          	sd	a2,-176(s0)
    17b0:	00190683          	lb	a3,1(s2)
    17b4:	00090703          	lb	a4,0(s2)
    17b8:	00390783          	lb	a5,3(s2)
    17bc:	00490803          	lb	a6,4(s2)
    17c0:	00590b03          	lb	s6,5(s2)
    17c4:	00690b83          	lb	s7,6(s2)
    17c8:	f7743c23          	sd	s7,-136(s0)
    17cc:	00790d03          	lb	s10,7(s2)
    17d0:	f7a43023          	sd	s10,-160(s0)
    17d4:	00890d83          	lb	s11,8(s2)
    17d8:	00990c83          	lb	s9,9(s2)
    17dc:	00a90383          	lb	t2,10(s2)
    17e0:	00b90e03          	lb	t3,11(s2)
    17e4:	00c90a83          	lb	s5,12(s2)
    17e8:	ed543823          	sd	s5,-304(s0)
    17ec:	00d90083          	lb	ra,13(s2)
    17f0:	00e90a03          	lb	s4,14(s2)
    17f4:	eb443023          	sd	s4,-352(s0)
    17f8:	00f90303          	lb	t1,15(s2)
    17fc:	01090283          	lb	t0,16(s2)
    1800:	ee543823          	sd	t0,-272(s0)
    1804:	01190483          	lb	s1,17(s2)
    1808:	01290983          	lb	s3,18(s2)
    180c:	01390e83          	lb	t4,19(s2)
    1810:	edd43c23          	sd	t4,-296(s0)
    1814:	01490883          	lb	a7,20(s2)
    1818:	eb143423          	sd	a7,-344(s0)
    181c:	f8843583          	ld	a1,-120(s0)
    1820:	01558c03          	lb	s8,21(a1)
    1824:	f8843583          	ld	a1,-120(s0)
    1828:	01658f03          	lb	t5,22(a1)
    182c:	efe43023          	sd	t5,-288(s0)
    1830:	f8843583          	ld	a1,-120(s0)
    1834:	01758903          	lb	s2,23(a1)
    1838:	ed243423          	sd	s2,-312(s0)
    183c:	f8843583          	ld	a1,-120(s0)
    1840:	01858f83          	lb	t6,24(a1)
    1844:	e9f43c23          	sd	t6,-360(s0)
    1848:	02c505b3          	mul	a1,a0,a2
    184c:	00001637          	lui	a2,0x1
    1850:	40c40633          	sub	a2,s0,a2
    1854:	6a863603          	ld	a2,1704(a2) # 16a8 <.LBB61_4+0x504>
    1858:	00c58633          	add	a2,a1,a2
    185c:	000015b7          	lui	a1,0x1
    1860:	40b405b3          	sub	a1,s0,a1
    1864:	6ac5b423          	sd	a2,1704(a1) # 16a8 <.LBB61_4+0x504>
    1868:	02d505b3          	mul	a1,a0,a3
    186c:	00001637          	lui	a2,0x1
    1870:	40c40633          	sub	a2,s0,a2
    1874:	6c063603          	ld	a2,1728(a2) # 16c0 <.LBB61_4+0x51c>
    1878:	00c58633          	add	a2,a1,a2
    187c:	000015b7          	lui	a1,0x1
    1880:	40b405b3          	sub	a1,s0,a1
    1884:	6cc5b023          	sd	a2,1728(a1) # 16c0 <.LBB61_4+0x51c>
    1888:	02e505b3          	mul	a1,a0,a4
    188c:	00001637          	lui	a2,0x1
    1890:	40c40633          	sub	a2,s0,a2
    1894:	6c863603          	ld	a2,1736(a2) # 16c8 <.LBB61_4+0x524>
    1898:	00c58633          	add	a2,a1,a2
    189c:	000015b7          	lui	a1,0x1
    18a0:	40b405b3          	sub	a1,s0,a1
    18a4:	6cc5b423          	sd	a2,1736(a1) # 16c8 <.LBB61_4+0x524>
    18a8:	02f505b3          	mul	a1,a0,a5
    18ac:	00001637          	lui	a2,0x1
    18b0:	40c40633          	sub	a2,s0,a2
    18b4:	6b063603          	ld	a2,1712(a2) # 16b0 <.LBB61_4+0x50c>
    18b8:	00c58633          	add	a2,a1,a2
    18bc:	000015b7          	lui	a1,0x1
    18c0:	40b405b3          	sub	a1,s0,a1
    18c4:	6ac5b823          	sd	a2,1712(a1) # 16b0 <.LBB61_4+0x50c>
    18c8:	030505b3          	mul	a1,a0,a6
    18cc:	00001637          	lui	a2,0x1
    18d0:	40c40633          	sub	a2,s0,a2
    18d4:	6d063603          	ld	a2,1744(a2) # 16d0 <.LBB61_4+0x52c>
    18d8:	00c58633          	add	a2,a1,a2
    18dc:	000015b7          	lui	a1,0x1
    18e0:	40b405b3          	sub	a1,s0,a1
    18e4:	6cc5b823          	sd	a2,1744(a1) # 16d0 <.LBB61_4+0x52c>
    18e8:	036505b3          	mul	a1,a0,s6
    18ec:	f5643423          	sd	s6,-184(s0)
    18f0:	00001637          	lui	a2,0x1
    18f4:	40c40633          	sub	a2,s0,a2
    18f8:	6b863603          	ld	a2,1720(a2) # 16b8 <.LBB61_4+0x514>
    18fc:	00c58633          	add	a2,a1,a2
    1900:	000015b7          	lui	a1,0x1
    1904:	40b405b3          	sub	a1,s0,a1
    1908:	6ac5bc23          	sd	a2,1720(a1) # 16b8 <.LBB61_4+0x514>
    190c:	037505b3          	mul	a1,a0,s7
    1910:	00001637          	lui	a2,0x1
    1914:	40c40633          	sub	a2,s0,a2
    1918:	6a063603          	ld	a2,1696(a2) # 16a0 <.LBB61_4+0x4fc>
    191c:	00c58633          	add	a2,a1,a2
    1920:	000015b7          	lui	a1,0x1
    1924:	40b405b3          	sub	a1,s0,a1
    1928:	6ac5b023          	sd	a2,1696(a1) # 16a0 <.LBB61_4+0x4fc>
    192c:	03a505b3          	mul	a1,a0,s10
    1930:	00001637          	lui	a2,0x1
    1934:	40c40633          	sub	a2,s0,a2
    1938:	69863603          	ld	a2,1688(a2) # 1698 <.LBB61_4+0x4f4>
    193c:	00c58633          	add	a2,a1,a2
    1940:	000015b7          	lui	a1,0x1
    1944:	40b405b3          	sub	a1,s0,a1
    1948:	68c5bc23          	sd	a2,1688(a1) # 1698 <.LBB61_4+0x4f4>
    194c:	03b505b3          	mul	a1,a0,s11
    1950:	00001637          	lui	a2,0x1
    1954:	40c40633          	sub	a2,s0,a2
    1958:	69063603          	ld	a2,1680(a2) # 1690 <.LBB61_4+0x4ec>
    195c:	00c58633          	add	a2,a1,a2
    1960:	000015b7          	lui	a1,0x1
    1964:	40b405b3          	sub	a1,s0,a1
    1968:	68c5b823          	sd	a2,1680(a1) # 1690 <.LBB61_4+0x4ec>
    196c:	039505b3          	mul	a1,a0,s9
    1970:	00001637          	lui	a2,0x1
    1974:	40c40633          	sub	a2,s0,a2
    1978:	6d863603          	ld	a2,1752(a2) # 16d8 <.LBB61_4+0x534>
    197c:	00c58633          	add	a2,a1,a2
    1980:	000015b7          	lui	a1,0x1
    1984:	40b405b3          	sub	a1,s0,a1
    1988:	6cc5bc23          	sd	a2,1752(a1) # 16d8 <.LBB61_4+0x534>
    198c:	f4743c23          	sd	t2,-168(s0)
    1990:	027505b3          	mul	a1,a0,t2
    1994:	00001637          	lui	a2,0x1
    1998:	40c40633          	sub	a2,s0,a2
    199c:	6e063603          	ld	a2,1760(a2) # 16e0 <.LBB61_4+0x53c>
    19a0:	00c58633          	add	a2,a1,a2
    19a4:	000015b7          	lui	a1,0x1
    19a8:	40b405b3          	sub	a1,s0,a1
    19ac:	6ec5b023          	sd	a2,1760(a1) # 16e0 <.LBB61_4+0x53c>
    19b0:	f1c43823          	sd	t3,-240(s0)
    19b4:	03c505b3          	mul	a1,a0,t3
    19b8:	00001637          	lui	a2,0x1
    19bc:	40c40633          	sub	a2,s0,a2
    19c0:	6e863603          	ld	a2,1768(a2) # 16e8 <.LBB61_4+0x544>
    19c4:	00c58633          	add	a2,a1,a2
    19c8:	000015b7          	lui	a1,0x1
    19cc:	40b405b3          	sub	a1,s0,a1
    19d0:	6ec5b423          	sd	a2,1768(a1) # 16e8 <.LBB61_4+0x544>
    19d4:	035505b3          	mul	a1,a0,s5
    19d8:	00001637          	lui	a2,0x1
    19dc:	40c40633          	sub	a2,s0,a2
    19e0:	6f063603          	ld	a2,1776(a2) # 16f0 <.LBB61_4+0x54c>
    19e4:	00c58633          	add	a2,a1,a2
    19e8:	000015b7          	lui	a1,0x1
    19ec:	40b405b3          	sub	a1,s0,a1
    19f0:	6ec5b823          	sd	a2,1776(a1) # 16f0 <.LBB61_4+0x54c>
    19f4:	021505b3          	mul	a1,a0,ra
    19f8:	00008a93          	mv	s5,ra
    19fc:	00001637          	lui	a2,0x1
    1a00:	40c40633          	sub	a2,s0,a2
    1a04:	6f863603          	ld	a2,1784(a2) # 16f8 <.LBB61_4+0x554>
    1a08:	00c58633          	add	a2,a1,a2
    1a0c:	000015b7          	lui	a1,0x1
    1a10:	40b405b3          	sub	a1,s0,a1
    1a14:	6ec5bc23          	sd	a2,1784(a1) # 16f8 <.LBB61_4+0x554>
    1a18:	034505b3          	mul	a1,a0,s4
    1a1c:	00001637          	lui	a2,0x1
    1a20:	40c40633          	sub	a2,s0,a2
    1a24:	70063603          	ld	a2,1792(a2) # 1700 <.LBB61_4+0x55c>
    1a28:	00c58633          	add	a2,a1,a2
    1a2c:	000015b7          	lui	a1,0x1
    1a30:	40b405b3          	sub	a1,s0,a1
    1a34:	70c5b023          	sd	a2,1792(a1) # 1700 <.LBB61_4+0x55c>
    1a38:	026505b3          	mul	a1,a0,t1
    1a3c:	00030093          	mv	ra,t1
    1a40:	e6643823          	sd	t1,-400(s0)
    1a44:	00001637          	lui	a2,0x1
    1a48:	40c40633          	sub	a2,s0,a2
    1a4c:	70863603          	ld	a2,1800(a2) # 1708 <.LBB61_4+0x564>
    1a50:	00c58633          	add	a2,a1,a2
    1a54:	000015b7          	lui	a1,0x1
    1a58:	40b405b3          	sub	a1,s0,a1
    1a5c:	70c5b423          	sd	a2,1800(a1) # 1708 <.LBB61_4+0x564>
    1a60:	025505b3          	mul	a1,a0,t0
    1a64:	00001637          	lui	a2,0x1
    1a68:	40c40633          	sub	a2,s0,a2
    1a6c:	71063603          	ld	a2,1808(a2) # 1710 <.LBB61_4+0x56c>
    1a70:	00c58633          	add	a2,a1,a2
    1a74:	000015b7          	lui	a1,0x1
    1a78:	40b405b3          	sub	a1,s0,a1
    1a7c:	70c5b823          	sd	a2,1808(a1) # 1710 <.LBB61_4+0x56c>
    1a80:	029505b3          	mul	a1,a0,s1
    1a84:	00048a13          	mv	s4,s1
    1a88:	00001637          	lui	a2,0x1
    1a8c:	40c40633          	sub	a2,s0,a2
    1a90:	71863603          	ld	a2,1816(a2) # 1718 <.LBB61_4+0x574>
    1a94:	00c58633          	add	a2,a1,a2
    1a98:	000015b7          	lui	a1,0x1
    1a9c:	40b405b3          	sub	a1,s0,a1
    1aa0:	70c5bc23          	sd	a2,1816(a1) # 1718 <.LBB61_4+0x574>
    1aa4:	033505b3          	mul	a1,a0,s3
    1aa8:	00098293          	mv	t0,s3
    1aac:	ef343423          	sd	s3,-280(s0)
    1ab0:	00001637          	lui	a2,0x1
    1ab4:	40c40633          	sub	a2,s0,a2
    1ab8:	72063603          	ld	a2,1824(a2) # 1720 <.LBB61_4+0x57c>
    1abc:	00c58633          	add	a2,a1,a2
    1ac0:	000015b7          	lui	a1,0x1
    1ac4:	40b405b3          	sub	a1,s0,a1
    1ac8:	72c5b023          	sd	a2,1824(a1) # 1720 <.LBB61_4+0x57c>
    1acc:	03d505b3          	mul	a1,a0,t4
    1ad0:	00001637          	lui	a2,0x1
    1ad4:	40c40633          	sub	a2,s0,a2
    1ad8:	72863603          	ld	a2,1832(a2) # 1728 <.LBB61_4+0x584>
    1adc:	00c58633          	add	a2,a1,a2
    1ae0:	000015b7          	lui	a1,0x1
    1ae4:	40b405b3          	sub	a1,s0,a1
    1ae8:	72c5b423          	sd	a2,1832(a1) # 1728 <.LBB61_4+0x584>
    1aec:	031505b3          	mul	a1,a0,a7
    1af0:	00001637          	lui	a2,0x1
    1af4:	40c40633          	sub	a2,s0,a2
    1af8:	73063603          	ld	a2,1840(a2) # 1730 <.LBB61_4+0x58c>
    1afc:	00c58633          	add	a2,a1,a2
    1b00:	000015b7          	lui	a1,0x1
    1b04:	40b405b3          	sub	a1,s0,a1
    1b08:	72c5b823          	sd	a2,1840(a1) # 1730 <.LBB61_4+0x58c>
    1b0c:	038505b3          	mul	a1,a0,s8
    1b10:	ed843023          	sd	s8,-320(s0)
    1b14:	00001637          	lui	a2,0x1
    1b18:	40c40633          	sub	a2,s0,a2
    1b1c:	73863603          	ld	a2,1848(a2) # 1738 <.LBB61_4+0x594>
    1b20:	00c58633          	add	a2,a1,a2
    1b24:	000015b7          	lui	a1,0x1
    1b28:	40b405b3          	sub	a1,s0,a1
    1b2c:	72c5bc23          	sd	a2,1848(a1) # 1738 <.LBB61_4+0x594>
    1b30:	03e505b3          	mul	a1,a0,t5
    1b34:	00001637          	lui	a2,0x1
    1b38:	40c40633          	sub	a2,s0,a2
    1b3c:	74063603          	ld	a2,1856(a2) # 1740 <.LBB61_5>
    1b40:	00c58633          	add	a2,a1,a2
    1b44:	000015b7          	lui	a1,0x1
    1b48:	40b405b3          	sub	a1,s0,a1
    1b4c:	74c5b023          	sd	a2,1856(a1) # 1740 <.LBB61_5>
    1b50:	032505b3          	mul	a1,a0,s2
    1b54:	00001637          	lui	a2,0x1
    1b58:	40c40633          	sub	a2,s0,a2
    1b5c:	74863603          	ld	a2,1864(a2) # 1748 <.LBB61_5+0x8>
    1b60:	00c58633          	add	a2,a1,a2
    1b64:	000015b7          	lui	a1,0x1
    1b68:	40b405b3          	sub	a1,s0,a1
    1b6c:	74c5b423          	sd	a2,1864(a1) # 1748 <.LBB61_5+0x8>
    1b70:	f8843583          	ld	a1,-120(s0)
    1b74:	01958303          	lb	t1,25(a1)
    1b78:	03f505b3          	mul	a1,a0,t6
    1b7c:	00001637          	lui	a2,0x1
    1b80:	40c40633          	sub	a2,s0,a2
    1b84:	75063603          	ld	a2,1872(a2) # 1750 <.LBB61_5+0x10>
    1b88:	00c58633          	add	a2,a1,a2
    1b8c:	000015b7          	lui	a1,0x1
    1b90:	40b405b3          	sub	a1,s0,a1
    1b94:	74c5b823          	sd	a2,1872(a1) # 1750 <.LBB61_5+0x10>
    1b98:	f8843583          	ld	a1,-120(s0)
    1b9c:	01a58883          	lb	a7,26(a1)
    1ba0:	eb143c23          	sd	a7,-328(s0)
    1ba4:	026505b3          	mul	a1,a0,t1
    1ba8:	e6643423          	sd	t1,-408(s0)
    1bac:	00001637          	lui	a2,0x1
    1bb0:	40c40633          	sub	a2,s0,a2
    1bb4:	75863603          	ld	a2,1880(a2) # 1758 <.LBB61_5+0x18>
    1bb8:	00c58633          	add	a2,a1,a2
    1bbc:	000015b7          	lui	a1,0x1
    1bc0:	40b405b3          	sub	a1,s0,a1
    1bc4:	74c5bc23          	sd	a2,1880(a1) # 1758 <.LBB61_5+0x18>
    1bc8:	f8843583          	ld	a1,-120(s0)
    1bcc:	01b58e83          	lb	t4,27(a1)
    1bd0:	031505b3          	mul	a1,a0,a7
    1bd4:	00001637          	lui	a2,0x1
    1bd8:	40c40633          	sub	a2,s0,a2
    1bdc:	76063603          	ld	a2,1888(a2) # 1760 <.LBB61_5+0x20>
    1be0:	00c58633          	add	a2,a1,a2
    1be4:	000015b7          	lui	a1,0x1
    1be8:	40b405b3          	sub	a1,s0,a1
    1bec:	76c5b023          	sd	a2,1888(a1) # 1760 <.LBB61_5+0x20>
    1bf0:	f8843583          	ld	a1,-120(s0)
    1bf4:	01c58483          	lb	s1,28(a1)
    1bf8:	03d505b3          	mul	a1,a0,t4
    1bfc:	ebd43823          	sd	t4,-336(s0)
    1c00:	00001637          	lui	a2,0x1
    1c04:	40c40633          	sub	a2,s0,a2
    1c08:	76863603          	ld	a2,1896(a2) # 1768 <.LBB61_5+0x28>
    1c0c:	00c58633          	add	a2,a1,a2
    1c10:	000015b7          	lui	a1,0x1
    1c14:	40b405b3          	sub	a1,s0,a1
    1c18:	76c5b423          	sd	a2,1896(a1) # 1768 <.LBB61_5+0x28>
    1c1c:	f8843583          	ld	a1,-120(s0)
    1c20:	01d58903          	lb	s2,29(a1)
    1c24:	029505b3          	mul	a1,a0,s1
    1c28:	00001637          	lui	a2,0x1
    1c2c:	40c40633          	sub	a2,s0,a2
    1c30:	77063603          	ld	a2,1904(a2) # 1770 <.LBB61_5+0x30>
    1c34:	00c58633          	add	a2,a1,a2
    1c38:	000015b7          	lui	a1,0x1
    1c3c:	40b405b3          	sub	a1,s0,a1
    1c40:	76c5b823          	sd	a2,1904(a1) # 1770 <.LBB61_5+0x30>
    1c44:	f8843583          	ld	a1,-120(s0)
    1c48:	01e58983          	lb	s3,30(a1)
    1c4c:	032505b3          	mul	a1,a0,s2
    1c50:	e9243023          	sd	s2,-384(s0)
    1c54:	00001637          	lui	a2,0x1
    1c58:	40c40633          	sub	a2,s0,a2
    1c5c:	77863603          	ld	a2,1912(a2) # 1778 <.LBB61_5+0x38>
    1c60:	00c58633          	add	a2,a1,a2
    1c64:	000015b7          	lui	a1,0x1
    1c68:	40b405b3          	sub	a1,s0,a1
    1c6c:	76c5bc23          	sd	a2,1912(a1) # 1778 <.LBB61_5+0x38>
    1c70:	f8843583          	ld	a1,-120(s0)
    1c74:	01f58583          	lb	a1,31(a1)
    1c78:	e6b43c23          	sd	a1,-392(s0)
    1c7c:	f8043603          	ld	a2,-128(s0)
    1c80:	e8060b83          	lb	s7,-384(a2)
    1c84:	03350d33          	mul	s10,a0,s3
    1c88:	00001637          	lui	a2,0x1
    1c8c:	40c40633          	sub	a2,s0,a2
    1c90:	78063603          	ld	a2,1920(a2) # 1780 <.LBB61_5+0x40>
    1c94:	00cd0633          	add	a2,s10,a2
    1c98:	000018b7          	lui	a7,0x1
    1c9c:	411408b3          	sub	a7,s0,a7
    1ca0:	78c8b023          	sd	a2,1920(a7) # 1780 <.LBB61_5+0x40>
    1ca4:	02b50533          	mul	a0,a0,a1
    1ca8:	000015b7          	lui	a1,0x1
    1cac:	40b405b3          	sub	a1,s0,a1
    1cb0:	7885b603          	ld	a2,1928(a1) # 1788 <.LBB61_5+0x48>
    1cb4:	00c50633          	add	a2,a0,a2
    1cb8:	00001537          	lui	a0,0x1
    1cbc:	40a40533          	sub	a0,s0,a0
    1cc0:	78c53423          	sd	a2,1928(a0) # 1788 <.LBB61_5+0x48>
    1cc4:	00070593          	mv	a1,a4
    1cc8:	f0e43023          	sd	a4,-256(s0)
    1ccc:	02eb8533          	mul	a0,s7,a4
    1cd0:	00001637          	lui	a2,0x1
    1cd4:	40c40633          	sub	a2,s0,a2
    1cd8:	7a863603          	ld	a2,1960(a2) # 17a8 <.LBB61_5+0x68>
    1cdc:	00c50633          	add	a2,a0,a2
    1ce0:	00001537          	lui	a0,0x1
    1ce4:	40a40533          	sub	a0,s0,a0
    1ce8:	7ac53423          	sd	a2,1960(a0) # 17a8 <.LBB61_5+0x68>
    1cec:	f6d43823          	sd	a3,-144(s0)
    1cf0:	02db8533          	mul	a0,s7,a3
    1cf4:	00001637          	lui	a2,0x1
    1cf8:	40c40633          	sub	a2,s0,a2
    1cfc:	7a063603          	ld	a2,1952(a2) # 17a0 <.LBB61_5+0x60>
    1d00:	00c50633          	add	a2,a0,a2
    1d04:	00001537          	lui	a0,0x1
    1d08:	40a40533          	sub	a0,s0,a0
    1d0c:	7ac53023          	sd	a2,1952(a0) # 17a0 <.LBB61_5+0x60>
    1d10:	f5043883          	ld	a7,-176(s0)
    1d14:	031b8533          	mul	a0,s7,a7
    1d18:	00001637          	lui	a2,0x1
    1d1c:	40c40633          	sub	a2,s0,a2
    1d20:	79863603          	ld	a2,1944(a2) # 1798 <.LBB61_5+0x58>
    1d24:	00c50633          	add	a2,a0,a2
    1d28:	00001537          	lui	a0,0x1
    1d2c:	40a40533          	sub	a0,s0,a0
    1d30:	78c53c23          	sd	a2,1944(a0) # 1798 <.LBB61_5+0x58>
    1d34:	f6f43423          	sd	a5,-152(s0)
    1d38:	02fb8533          	mul	a0,s7,a5
    1d3c:	00001637          	lui	a2,0x1
    1d40:	40c40633          	sub	a2,s0,a2
    1d44:	79063603          	ld	a2,1936(a2) # 1790 <.LBB61_5+0x50>
    1d48:	00c50633          	add	a2,a0,a2
    1d4c:	00001537          	lui	a0,0x1
    1d50:	40a40533          	sub	a0,s0,a0
    1d54:	78c53823          	sd	a2,1936(a0) # 1790 <.LBB61_5+0x50>
    1d58:	f1043423          	sd	a6,-248(s0)
    1d5c:	030b8533          	mul	a0,s7,a6
    1d60:	00001637          	lui	a2,0x1
    1d64:	40c40633          	sub	a2,s0,a2
    1d68:	7b063603          	ld	a2,1968(a2) # 17b0 <.LBB61_5+0x70>
    1d6c:	00c50633          	add	a2,a0,a2
    1d70:	00001537          	lui	a0,0x1
    1d74:	40a40533          	sub	a0,s0,a0
    1d78:	7ac53823          	sd	a2,1968(a0) # 17b0 <.LBB61_5+0x70>
    1d7c:	036b8533          	mul	a0,s7,s6
    1d80:	00001637          	lui	a2,0x1
    1d84:	40c40633          	sub	a2,s0,a2
    1d88:	7b863603          	ld	a2,1976(a2) # 17b8 <.LBB61_5+0x78>
    1d8c:	00c50633          	add	a2,a0,a2
    1d90:	00001537          	lui	a0,0x1
    1d94:	40a40533          	sub	a0,s0,a0
    1d98:	7ac53c23          	sd	a2,1976(a0) # 17b8 <.LBB61_5+0x78>
    1d9c:	f7843703          	ld	a4,-136(s0)
    1da0:	02eb8533          	mul	a0,s7,a4
    1da4:	00001637          	lui	a2,0x1
    1da8:	40c40633          	sub	a2,s0,a2
    1dac:	7c063603          	ld	a2,1984(a2) # 17c0 <.LBB61_5+0x80>
    1db0:	00c50633          	add	a2,a0,a2
    1db4:	00001537          	lui	a0,0x1
    1db8:	40a40533          	sub	a0,s0,a0
    1dbc:	7cc53023          	sd	a2,1984(a0) # 17c0 <.LBB61_5+0x80>
    1dc0:	f6043b03          	ld	s6,-160(s0)
    1dc4:	036b8533          	mul	a0,s7,s6
    1dc8:	00001637          	lui	a2,0x1
    1dcc:	40c40633          	sub	a2,s0,a2
    1dd0:	7c863603          	ld	a2,1992(a2) # 17c8 <.LBB61_5+0x88>
    1dd4:	00c50633          	add	a2,a0,a2
    1dd8:	00001537          	lui	a0,0x1
    1ddc:	40a40533          	sub	a0,s0,a0
    1de0:	7cc53423          	sd	a2,1992(a0) # 17c8 <.LBB61_5+0x88>
    1de4:	03bb8533          	mul	a0,s7,s11
    1de8:	00001637          	lui	a2,0x1
    1dec:	40c40633          	sub	a2,s0,a2
    1df0:	7d063603          	ld	a2,2000(a2) # 17d0 <.LBB61_5+0x90>
    1df4:	00c50633          	add	a2,a0,a2
    1df8:	00001537          	lui	a0,0x1
    1dfc:	40a40533          	sub	a0,s0,a0
    1e00:	7cc53823          	sd	a2,2000(a0) # 17d0 <.LBB61_5+0x90>
    1e04:	039b8533          	mul	a0,s7,s9
    1e08:	00001637          	lui	a2,0x1
    1e0c:	40c40633          	sub	a2,s0,a2
    1e10:	7d863603          	ld	a2,2008(a2) # 17d8 <.LBB61_5+0x98>
    1e14:	00c50633          	add	a2,a0,a2
    1e18:	00001537          	lui	a0,0x1
    1e1c:	40a40533          	sub	a0,s0,a0
    1e20:	7cc53c23          	sd	a2,2008(a0) # 17d8 <.LBB61_5+0x98>
    1e24:	027b8533          	mul	a0,s7,t2
    1e28:	00001637          	lui	a2,0x1
    1e2c:	40c40633          	sub	a2,s0,a2
    1e30:	7e063603          	ld	a2,2016(a2) # 17e0 <.LBB61_5+0xa0>
    1e34:	00c50633          	add	a2,a0,a2
    1e38:	00001537          	lui	a0,0x1
    1e3c:	40a40533          	sub	a0,s0,a0
    1e40:	7ec53023          	sd	a2,2016(a0) # 17e0 <.LBB61_5+0xa0>
    1e44:	03cb8533          	mul	a0,s7,t3
    1e48:	00001637          	lui	a2,0x1
    1e4c:	40c40633          	sub	a2,s0,a2
    1e50:	7e863603          	ld	a2,2024(a2) # 17e8 <.LBB61_5+0xa8>
    1e54:	00c50633          	add	a2,a0,a2
    1e58:	00001537          	lui	a0,0x1
    1e5c:	40a40533          	sub	a0,s0,a0
    1e60:	7ec53423          	sd	a2,2024(a0) # 17e8 <.LBB61_5+0xa8>
    1e64:	ed043383          	ld	t2,-304(s0)
    1e68:	027b8533          	mul	a0,s7,t2
    1e6c:	00001637          	lui	a2,0x1
    1e70:	40c40633          	sub	a2,s0,a2
    1e74:	7f063603          	ld	a2,2032(a2) # 17f0 <.LBB61_5+0xb0>
    1e78:	00c50633          	add	a2,a0,a2
    1e7c:	00001537          	lui	a0,0x1
    1e80:	40a40533          	sub	a0,s0,a0
    1e84:	7ec53823          	sd	a2,2032(a0) # 17f0 <.LBB61_5+0xb0>
    1e88:	000a8f13          	mv	t5,s5
    1e8c:	e9543823          	sd	s5,-368(s0)
    1e90:	035b8533          	mul	a0,s7,s5
    1e94:	00001637          	lui	a2,0x1
    1e98:	40c40633          	sub	a2,s0,a2
    1e9c:	7f863603          	ld	a2,2040(a2) # 17f8 <.LBB61_5+0xb8>
    1ea0:	00c50633          	add	a2,a0,a2
    1ea4:	00001537          	lui	a0,0x1
    1ea8:	40a40533          	sub	a0,s0,a0
    1eac:	7ec53c23          	sd	a2,2040(a0) # 17f8 <.LBB61_5+0xb8>
    1eb0:	ea043a83          	ld	s5,-352(s0)
    1eb4:	035b8533          	mul	a0,s7,s5
    1eb8:	80043603          	ld	a2,-2048(s0)
    1ebc:	00c50633          	add	a2,a0,a2
    1ec0:	80c43023          	sd	a2,-2048(s0)
    1ec4:	021b8533          	mul	a0,s7,ra
    1ec8:	80843603          	ld	a2,-2040(s0)
    1ecc:	00c50633          	add	a2,a0,a2
    1ed0:	80c43423          	sd	a2,-2040(s0)
    1ed4:	ef043503          	ld	a0,-272(s0)
    1ed8:	02ab8533          	mul	a0,s7,a0
    1edc:	81043603          	ld	a2,-2032(s0)
    1ee0:	00c50633          	add	a2,a0,a2
    1ee4:	80c43823          	sd	a2,-2032(s0)
    1ee8:	034b8533          	mul	a0,s7,s4
    1eec:	81843603          	ld	a2,-2024(s0)
    1ef0:	00c50633          	add	a2,a0,a2
    1ef4:	80c43c23          	sd	a2,-2024(s0)
    1ef8:	025b8533          	mul	a0,s7,t0
    1efc:	82043603          	ld	a2,-2016(s0)
    1f00:	00c50633          	add	a2,a0,a2
    1f04:	82c43023          	sd	a2,-2016(s0)
    1f08:	ed843503          	ld	a0,-296(s0)
    1f0c:	02ab8533          	mul	a0,s7,a0
    1f10:	82843603          	ld	a2,-2008(s0)
    1f14:	00c50633          	add	a2,a0,a2
    1f18:	82c43423          	sd	a2,-2008(s0)
    1f1c:	ea843f83          	ld	t6,-344(s0)
    1f20:	03fb8533          	mul	a0,s7,t6
    1f24:	83043603          	ld	a2,-2000(s0)
    1f28:	00c50633          	add	a2,a0,a2
    1f2c:	82c43823          	sd	a2,-2000(s0)
    1f30:	038b8533          	mul	a0,s7,s8
    1f34:	83843603          	ld	a2,-1992(s0)
    1f38:	00c50633          	add	a2,a0,a2
    1f3c:	82c43c23          	sd	a2,-1992(s0)
    1f40:	ee043283          	ld	t0,-288(s0)
    1f44:	025b8533          	mul	a0,s7,t0
    1f48:	84043603          	ld	a2,-1984(s0)
    1f4c:	00c50633          	add	a2,a0,a2
    1f50:	84c43023          	sd	a2,-1984(s0)
    1f54:	ec843e03          	ld	t3,-312(s0)
    1f58:	03cb8533          	mul	a0,s7,t3
    1f5c:	84843603          	ld	a2,-1976(s0)
    1f60:	00c50633          	add	a2,a0,a2
    1f64:	84c43423          	sd	a2,-1976(s0)
    1f68:	e9843083          	ld	ra,-360(s0)
    1f6c:	021b8533          	mul	a0,s7,ra
    1f70:	85043603          	ld	a2,-1968(s0)
    1f74:	00c50633          	add	a2,a0,a2
    1f78:	84c43823          	sd	a2,-1968(s0)
    1f7c:	026b8533          	mul	a0,s7,t1
    1f80:	85843603          	ld	a2,-1960(s0)
    1f84:	00c50633          	add	a2,a0,a2
    1f88:	84c43c23          	sd	a2,-1960(s0)
    1f8c:	eb843303          	ld	t1,-328(s0)
    1f90:	026b8533          	mul	a0,s7,t1
    1f94:	86043603          	ld	a2,-1952(s0)
    1f98:	00c50633          	add	a2,a0,a2
    1f9c:	86c43023          	sd	a2,-1952(s0)
    1fa0:	03db8533          	mul	a0,s7,t4
    1fa4:	86843603          	ld	a2,-1944(s0)
    1fa8:	00c50633          	add	a2,a0,a2
    1fac:	86c43423          	sd	a2,-1944(s0)
    1fb0:	029b8533          	mul	a0,s7,s1
    1fb4:	e8943423          	sd	s1,-376(s0)
    1fb8:	87043603          	ld	a2,-1936(s0)
    1fbc:	00c50633          	add	a2,a0,a2
    1fc0:	86c43823          	sd	a2,-1936(s0)
    1fc4:	032b8533          	mul	a0,s7,s2
    1fc8:	87843603          	ld	a2,-1928(s0)
    1fcc:	00c50633          	add	a2,a0,a2
    1fd0:	86c43c23          	sd	a2,-1928(s0)
    1fd4:	f8043503          	ld	a0,-128(s0)
    1fd8:	ec050503          	lb	a0,-320(a0)
    1fdc:	033b8d33          	mul	s10,s7,s3
    1fe0:	88043603          	ld	a2,-1920(s0)
    1fe4:	00cd0633          	add	a2,s10,a2
    1fe8:	88c43023          	sd	a2,-1920(s0)
    1fec:	e7843e83          	ld	t4,-392(s0)
    1ff0:	03db8bb3          	mul	s7,s7,t4
    1ff4:	88843603          	ld	a2,-1912(s0)
    1ff8:	00cb8633          	add	a2,s7,a2
    1ffc:	88c43423          	sd	a2,-1912(s0)
    2000:	02b50bb3          	mul	s7,a0,a1
    2004:	8a843603          	ld	a2,-1880(s0)
    2008:	00cb8633          	add	a2,s7,a2
    200c:	8ac43423          	sd	a2,-1880(s0)
    2010:	02d50bb3          	mul	s7,a0,a3
    2014:	8a043603          	ld	a2,-1888(s0)
    2018:	00cb8633          	add	a2,s7,a2
    201c:	8ac43023          	sd	a2,-1888(s0)
    2020:	03150bb3          	mul	s7,a0,a7
    2024:	89843603          	ld	a2,-1896(s0)
    2028:	00cb8633          	add	a2,s7,a2
    202c:	88c43c23          	sd	a2,-1896(s0)
    2030:	02f50bb3          	mul	s7,a0,a5
    2034:	89043603          	ld	a2,-1904(s0)
    2038:	00cb8633          	add	a2,s7,a2
    203c:	88c43823          	sd	a2,-1904(s0)
    2040:	03050bb3          	mul	s7,a0,a6
    2044:	8b043603          	ld	a2,-1872(s0)
    2048:	00cb8633          	add	a2,s7,a2
    204c:	8ac43823          	sd	a2,-1872(s0)
    2050:	f4843583          	ld	a1,-184(s0)
    2054:	02b50bb3          	mul	s7,a0,a1
    2058:	8b843603          	ld	a2,-1864(s0)
    205c:	00cb8633          	add	a2,s7,a2
    2060:	8ac43c23          	sd	a2,-1864(s0)
    2064:	02e50bb3          	mul	s7,a0,a4
    2068:	8c043603          	ld	a2,-1856(s0)
    206c:	00cb8633          	add	a2,s7,a2
    2070:	8cc43023          	sd	a2,-1856(s0)
    2074:	03650bb3          	mul	s7,a0,s6
    2078:	000b0913          	mv	s2,s6
    207c:	8c843603          	ld	a2,-1848(s0)
    2080:	00cb8633          	add	a2,s7,a2
    2084:	8cc43423          	sd	a2,-1848(s0)
    2088:	000015b7          	lui	a1,0x1
    208c:	40b405b3          	sub	a1,s0,a1
    2090:	69b5b023          	sd	s11,1664(a1) # 1680 <.LBB61_4+0x4dc>
    2094:	03b50bb3          	mul	s7,a0,s11
    2098:	8d043603          	ld	a2,-1840(s0)
    209c:	00cb8633          	add	a2,s7,a2
    20a0:	8cc43823          	sd	a2,-1840(s0)
    20a4:	f1943c23          	sd	s9,-232(s0)
    20a8:	03950bb3          	mul	s7,a0,s9
    20ac:	8d843603          	ld	a2,-1832(s0)
    20b0:	00cb8633          	add	a2,s7,a2
    20b4:	8cc43c23          	sd	a2,-1832(s0)
    20b8:	f5843c03          	ld	s8,-168(s0)
    20bc:	03850bb3          	mul	s7,a0,s8
    20c0:	8e043603          	ld	a2,-1824(s0)
    20c4:	00cb8633          	add	a2,s7,a2
    20c8:	8ec43023          	sd	a2,-1824(s0)
    20cc:	f1043883          	ld	a7,-240(s0)
    20d0:	03150bb3          	mul	s7,a0,a7
    20d4:	8e843603          	ld	a2,-1816(s0)
    20d8:	00cb8633          	add	a2,s7,a2
    20dc:	8ec43423          	sd	a2,-1816(s0)
    20e0:	02750bb3          	mul	s7,a0,t2
    20e4:	8f043603          	ld	a2,-1808(s0)
    20e8:	00cb8633          	add	a2,s7,a2
    20ec:	8ec43823          	sd	a2,-1808(s0)
    20f0:	03e50bb3          	mul	s7,a0,t5
    20f4:	8f843603          	ld	a2,-1800(s0)
    20f8:	00cb8633          	add	a2,s7,a2
    20fc:	8ec43c23          	sd	a2,-1800(s0)
    2100:	000a8b13          	mv	s6,s5
    2104:	03550bb3          	mul	s7,a0,s5
    2108:	90043603          	ld	a2,-1792(s0)
    210c:	00cb8633          	add	a2,s7,a2
    2110:	90c43023          	sd	a2,-1792(s0)
    2114:	e7043583          	ld	a1,-400(s0)
    2118:	02b50bb3          	mul	s7,a0,a1
    211c:	90843603          	ld	a2,-1784(s0)
    2120:	00cb8633          	add	a2,s7,a2
    2124:	90c43423          	sd	a2,-1784(s0)
    2128:	ef043383          	ld	t2,-272(s0)
    212c:	02750bb3          	mul	s7,a0,t2
    2130:	91043603          	ld	a2,-1776(s0)
    2134:	00cb8633          	add	a2,s7,a2
    2138:	90c43823          	sd	a2,-1776(s0)
    213c:	03450bb3          	mul	s7,a0,s4
    2140:	91843603          	ld	a2,-1768(s0)
    2144:	00cb8633          	add	a2,s7,a2
    2148:	90c43c23          	sd	a2,-1768(s0)
    214c:	ee843783          	ld	a5,-280(s0)
    2150:	02f50bb3          	mul	s7,a0,a5
    2154:	92043603          	ld	a2,-1760(s0)
    2158:	00cb8633          	add	a2,s7,a2
    215c:	92c43023          	sd	a2,-1760(s0)
    2160:	ed843703          	ld	a4,-296(s0)
    2164:	02e50bb3          	mul	s7,a0,a4
    2168:	92843603          	ld	a2,-1752(s0)
    216c:	00cb8633          	add	a2,s7,a2
    2170:	92c43423          	sd	a2,-1752(s0)
    2174:	03f50bb3          	mul	s7,a0,t6
    2178:	000f8a93          	mv	s5,t6
    217c:	93043603          	ld	a2,-1744(s0)
    2180:	00cb8633          	add	a2,s7,a2
    2184:	92c43823          	sd	a2,-1744(s0)
    2188:	ec043803          	ld	a6,-320(s0)
    218c:	03050bb3          	mul	s7,a0,a6
    2190:	93843603          	ld	a2,-1736(s0)
    2194:	00cb8633          	add	a2,s7,a2
    2198:	92c43c23          	sd	a2,-1736(s0)
    219c:	02550bb3          	mul	s7,a0,t0
    21a0:	94043603          	ld	a2,-1728(s0)
    21a4:	00cb8633          	add	a2,s7,a2
    21a8:	94c43023          	sd	a2,-1728(s0)
    21ac:	03c50bb3          	mul	s7,a0,t3
    21b0:	94843603          	ld	a2,-1720(s0)
    21b4:	00cb8633          	add	a2,s7,a2
    21b8:	94c43423          	sd	a2,-1720(s0)
    21bc:	00008f93          	mv	t6,ra
    21c0:	02150bb3          	mul	s7,a0,ra
    21c4:	95043603          	ld	a2,-1712(s0)
    21c8:	00cb8633          	add	a2,s7,a2
    21cc:	94c43823          	sd	a2,-1712(s0)
    21d0:	e6843683          	ld	a3,-408(s0)
    21d4:	02d50bb3          	mul	s7,a0,a3
    21d8:	95843603          	ld	a2,-1704(s0)
    21dc:	00cb8633          	add	a2,s7,a2
    21e0:	94c43c23          	sd	a2,-1704(s0)
    21e4:	02650bb3          	mul	s7,a0,t1
    21e8:	96043603          	ld	a2,-1696(s0)
    21ec:	00cb8633          	add	a2,s7,a2
    21f0:	96c43023          	sd	a2,-1696(s0)
    21f4:	eb043603          	ld	a2,-336(s0)
    21f8:	02c50bb3          	mul	s7,a0,a2
    21fc:	96843603          	ld	a2,-1688(s0)
    2200:	00cb8633          	add	a2,s7,a2
    2204:	96c43423          	sd	a2,-1688(s0)
    2208:	02950bb3          	mul	s7,a0,s1
    220c:	97043603          	ld	a2,-1680(s0)
    2210:	00cb8633          	add	a2,s7,a2
    2214:	96c43823          	sd	a2,-1680(s0)
    2218:	e8043083          	ld	ra,-384(s0)
    221c:	02150bb3          	mul	s7,a0,ra
    2220:	97843603          	ld	a2,-1672(s0)
    2224:	00cb8633          	add	a2,s7,a2
    2228:	96c43c23          	sd	a2,-1672(s0)
    222c:	f8043603          	ld	a2,-128(s0)
    2230:	f0060b83          	lb	s7,-256(a2)
    2234:	03350d33          	mul	s10,a0,s3
    2238:	ef343c23          	sd	s3,-264(s0)
    223c:	98043603          	ld	a2,-1664(s0)
    2240:	00cd0633          	add	a2,s10,a2
    2244:	98c43023          	sd	a2,-1664(s0)
    2248:	03d50533          	mul	a0,a0,t4
    224c:	98843603          	ld	a2,-1656(s0)
    2250:	00c50633          	add	a2,a0,a2
    2254:	98c43423          	sd	a2,-1656(s0)
    2258:	f0043503          	ld	a0,-256(s0)
    225c:	02ab8533          	mul	a0,s7,a0
    2260:	9a843603          	ld	a2,-1624(s0)
    2264:	00c50633          	add	a2,a0,a2
    2268:	9ac43423          	sd	a2,-1624(s0)
    226c:	f7043503          	ld	a0,-144(s0)
    2270:	02ab8533          	mul	a0,s7,a0
    2274:	9a043603          	ld	a2,-1632(s0)
    2278:	00c50633          	add	a2,a0,a2
    227c:	9ac43023          	sd	a2,-1632(s0)
    2280:	f5043f03          	ld	t5,-176(s0)
    2284:	03eb8533          	mul	a0,s7,t5
    2288:	99843603          	ld	a2,-1640(s0)
    228c:	00c50633          	add	a2,a0,a2
    2290:	98c43c23          	sd	a2,-1640(s0)
    2294:	f6843503          	ld	a0,-152(s0)
    2298:	02ab8533          	mul	a0,s7,a0
    229c:	99043603          	ld	a2,-1648(s0)
    22a0:	00c50633          	add	a2,a0,a2
    22a4:	98c43823          	sd	a2,-1648(s0)
    22a8:	f0843503          	ld	a0,-248(s0)
    22ac:	02ab8533          	mul	a0,s7,a0
    22b0:	9b043603          	ld	a2,-1616(s0)
    22b4:	00c50633          	add	a2,a0,a2
    22b8:	9ac43823          	sd	a2,-1616(s0)
    22bc:	f4843283          	ld	t0,-184(s0)
    22c0:	025b8533          	mul	a0,s7,t0
    22c4:	9b843603          	ld	a2,-1608(s0)
    22c8:	00c50633          	add	a2,a0,a2
    22cc:	9ac43c23          	sd	a2,-1608(s0)
    22d0:	f7843503          	ld	a0,-136(s0)
    22d4:	02ab8533          	mul	a0,s7,a0
    22d8:	9c043603          	ld	a2,-1600(s0)
    22dc:	00c50633          	add	a2,a0,a2
    22e0:	9cc43023          	sd	a2,-1600(s0)
    22e4:	032b8533          	mul	a0,s7,s2
    22e8:	9c843603          	ld	a2,-1592(s0)
    22ec:	00c50633          	add	a2,a0,a2
    22f0:	9cc43423          	sd	a2,-1592(s0)
    22f4:	03bb8533          	mul	a0,s7,s11
    22f8:	9d043603          	ld	a2,-1584(s0)
    22fc:	00c50633          	add	a2,a0,a2
    2300:	9cc43823          	sd	a2,-1584(s0)
    2304:	039b8533          	mul	a0,s7,s9
    2308:	9d843603          	ld	a2,-1576(s0)
    230c:	00c50633          	add	a2,a0,a2
    2310:	9cc43c23          	sd	a2,-1576(s0)
    2314:	038b8533          	mul	a0,s7,s8
    2318:	9e043603          	ld	a2,-1568(s0)
    231c:	00c50633          	add	a2,a0,a2
    2320:	9ec43023          	sd	a2,-1568(s0)
    2324:	031b8533          	mul	a0,s7,a7
    2328:	9e843603          	ld	a2,-1560(s0)
    232c:	00c50633          	add	a2,a0,a2
    2330:	9ec43423          	sd	a2,-1560(s0)
    2334:	ed043303          	ld	t1,-304(s0)
    2338:	026b8533          	mul	a0,s7,t1
    233c:	9f043603          	ld	a2,-1552(s0)
    2340:	00c50633          	add	a2,a0,a2
    2344:	9ec43823          	sd	a2,-1552(s0)
    2348:	e9043c83          	ld	s9,-368(s0)
    234c:	039b8533          	mul	a0,s7,s9
    2350:	9f843603          	ld	a2,-1544(s0)
    2354:	00c50633          	add	a2,a0,a2
    2358:	9ec43c23          	sd	a2,-1544(s0)
    235c:	036b8533          	mul	a0,s7,s6
    2360:	000b0c13          	mv	s8,s6
    2364:	a0043603          	ld	a2,-1536(s0)
    2368:	00c50633          	add	a2,a0,a2
    236c:	a0c43023          	sd	a2,-1536(s0)
    2370:	02bb8533          	mul	a0,s7,a1
    2374:	00058b13          	mv	s6,a1
    2378:	a0843603          	ld	a2,-1528(s0)
    237c:	00c50633          	add	a2,a0,a2
    2380:	a0c43423          	sd	a2,-1528(s0)
    2384:	027b8533          	mul	a0,s7,t2
    2388:	00038493          	mv	s1,t2
    238c:	a1043603          	ld	a2,-1520(s0)
    2390:	00c50633          	add	a2,a0,a2
    2394:	a0c43823          	sd	a2,-1520(s0)
    2398:	00001537          	lui	a0,0x1
    239c:	40a40533          	sub	a0,s0,a0
    23a0:	67453c23          	sd	s4,1656(a0) # 1678 <.LBB61_4+0x4d4>
    23a4:	034b8533          	mul	a0,s7,s4
    23a8:	a1843603          	ld	a2,-1512(s0)
    23ac:	00c50633          	add	a2,a0,a2
    23b0:	a0c43c23          	sd	a2,-1512(s0)
    23b4:	02fb8533          	mul	a0,s7,a5
    23b8:	a2043603          	ld	a2,-1504(s0)
    23bc:	00c50633          	add	a2,a0,a2
    23c0:	a2c43023          	sd	a2,-1504(s0)
    23c4:	00070593          	mv	a1,a4
    23c8:	02eb8533          	mul	a0,s7,a4
    23cc:	a2843603          	ld	a2,-1496(s0)
    23d0:	00c50633          	add	a2,a0,a2
    23d4:	a2c43423          	sd	a2,-1496(s0)
    23d8:	035b8533          	mul	a0,s7,s5
    23dc:	a3043603          	ld	a2,-1488(s0)
    23e0:	00c50633          	add	a2,a0,a2
    23e4:	a2c43823          	sd	a2,-1488(s0)
    23e8:	030b8533          	mul	a0,s7,a6
    23ec:	a3843603          	ld	a2,-1480(s0)
    23f0:	00c50633          	add	a2,a0,a2
    23f4:	a2c43c23          	sd	a2,-1480(s0)
    23f8:	ee043703          	ld	a4,-288(s0)
    23fc:	02eb8533          	mul	a0,s7,a4
    2400:	a4043603          	ld	a2,-1472(s0)
    2404:	00c50633          	add	a2,a0,a2
    2408:	a4c43023          	sd	a2,-1472(s0)
    240c:	03cb8533          	mul	a0,s7,t3
    2410:	a4843603          	ld	a2,-1464(s0)
    2414:	00c50633          	add	a2,a0,a2
    2418:	a4c43423          	sd	a2,-1464(s0)
    241c:	03fb8533          	mul	a0,s7,t6
    2420:	000f8e13          	mv	t3,t6
    2424:	a5043603          	ld	a2,-1456(s0)
    2428:	00c50633          	add	a2,a0,a2
    242c:	a4c43823          	sd	a2,-1456(s0)
    2430:	00068813          	mv	a6,a3
    2434:	02db8533          	mul	a0,s7,a3
    2438:	a5843603          	ld	a2,-1448(s0)
    243c:	00c50633          	add	a2,a0,a2
    2440:	a4c43c23          	sd	a2,-1448(s0)
    2444:	eb843f83          	ld	t6,-328(s0)
    2448:	03fb8533          	mul	a0,s7,t6
    244c:	a6043603          	ld	a2,-1440(s0)
    2450:	00c50633          	add	a2,a0,a2
    2454:	a6c43023          	sd	a2,-1440(s0)
    2458:	eb043e83          	ld	t4,-336(s0)
    245c:	03db8533          	mul	a0,s7,t4
    2460:	a6843603          	ld	a2,-1432(s0)
    2464:	00c50633          	add	a2,a0,a2
    2468:	a6c43423          	sd	a2,-1432(s0)
    246c:	e8843903          	ld	s2,-376(s0)
    2470:	032b8533          	mul	a0,s7,s2
    2474:	a7043603          	ld	a2,-1424(s0)
    2478:	00c50633          	add	a2,a0,a2
    247c:	a6c43823          	sd	a2,-1424(s0)
    2480:	021b8533          	mul	a0,s7,ra
    2484:	a7843603          	ld	a2,-1416(s0)
    2488:	00c50633          	add	a2,a0,a2
    248c:	a6c43c23          	sd	a2,-1416(s0)
    2490:	f8043503          	ld	a0,-128(s0)
    2494:	f4050503          	lb	a0,-192(a0)
    2498:	033b8d33          	mul	s10,s7,s3
    249c:	a8043603          	ld	a2,-1408(s0)
    24a0:	00cd0633          	add	a2,s10,a2
    24a4:	a8c43023          	sd	a2,-1408(s0)
    24a8:	e7843a83          	ld	s5,-392(s0)
    24ac:	035b8bb3          	mul	s7,s7,s5
    24b0:	a8843603          	ld	a2,-1400(s0)
    24b4:	00cb8633          	add	a2,s7,a2
    24b8:	a8c43423          	sd	a2,-1400(s0)
    24bc:	f0043383          	ld	t2,-256(s0)
    24c0:	02750bb3          	mul	s7,a0,t2
    24c4:	aa843603          	ld	a2,-1368(s0)
    24c8:	00cb8633          	add	a2,s7,a2
    24cc:	aac43423          	sd	a2,-1368(s0)
    24d0:	f7043683          	ld	a3,-144(s0)
    24d4:	02d50bb3          	mul	s7,a0,a3
    24d8:	aa043603          	ld	a2,-1376(s0)
    24dc:	00cb8633          	add	a2,s7,a2
    24e0:	aac43023          	sd	a2,-1376(s0)
    24e4:	03e50bb3          	mul	s7,a0,t5
    24e8:	a9843603          	ld	a2,-1384(s0)
    24ec:	00cb8633          	add	a2,s7,a2
    24f0:	a8c43c23          	sd	a2,-1384(s0)
    24f4:	f6843883          	ld	a7,-152(s0)
    24f8:	03150bb3          	mul	s7,a0,a7
    24fc:	a9043603          	ld	a2,-1392(s0)
    2500:	00cb8633          	add	a2,s7,a2
    2504:	a8c43823          	sd	a2,-1392(s0)
    2508:	f0843083          	ld	ra,-248(s0)
    250c:	02150bb3          	mul	s7,a0,ra
    2510:	ab043603          	ld	a2,-1360(s0)
    2514:	00cb8633          	add	a2,s7,a2
    2518:	aac43823          	sd	a2,-1360(s0)
    251c:	02550bb3          	mul	s7,a0,t0
    2520:	ab843603          	ld	a2,-1352(s0)
    2524:	00cb8633          	add	a2,s7,a2
    2528:	aac43c23          	sd	a2,-1352(s0)
    252c:	f7843d83          	ld	s11,-136(s0)
    2530:	03b50bb3          	mul	s7,a0,s11
    2534:	ac043603          	ld	a2,-1344(s0)
    2538:	00cb8633          	add	a2,s7,a2
    253c:	acc43023          	sd	a2,-1344(s0)
    2540:	f6043603          	ld	a2,-160(s0)
    2544:	02c50bb3          	mul	s7,a0,a2
    2548:	ac843603          	ld	a2,-1336(s0)
    254c:	00cb8633          	add	a2,s7,a2
    2550:	acc43423          	sd	a2,-1336(s0)
    2554:	00001637          	lui	a2,0x1
    2558:	40c40633          	sub	a2,s0,a2
    255c:	68063983          	ld	s3,1664(a2) # 1680 <.LBB61_4+0x4dc>
    2560:	03350bb3          	mul	s7,a0,s3
    2564:	ad043603          	ld	a2,-1328(s0)
    2568:	00cb8633          	add	a2,s7,a2
    256c:	acc43823          	sd	a2,-1328(s0)
    2570:	f1843603          	ld	a2,-232(s0)
    2574:	02c50bb3          	mul	s7,a0,a2
    2578:	ad843603          	ld	a2,-1320(s0)
    257c:	00cb8633          	add	a2,s7,a2
    2580:	acc43c23          	sd	a2,-1320(s0)
    2584:	f5843603          	ld	a2,-168(s0)
    2588:	02c50bb3          	mul	s7,a0,a2
    258c:	ae043603          	ld	a2,-1312(s0)
    2590:	00cb8633          	add	a2,s7,a2
    2594:	aec43023          	sd	a2,-1312(s0)
    2598:	f1043603          	ld	a2,-240(s0)
    259c:	02c50bb3          	mul	s7,a0,a2
    25a0:	ae843603          	ld	a2,-1304(s0)
    25a4:	00cb8633          	add	a2,s7,a2
    25a8:	aec43423          	sd	a2,-1304(s0)
    25ac:	02650bb3          	mul	s7,a0,t1
    25b0:	af043603          	ld	a2,-1296(s0)
    25b4:	00cb8633          	add	a2,s7,a2
    25b8:	aec43823          	sd	a2,-1296(s0)
    25bc:	000c8f13          	mv	t5,s9
    25c0:	03950bb3          	mul	s7,a0,s9
    25c4:	af843603          	ld	a2,-1288(s0)
    25c8:	00cb8633          	add	a2,s7,a2
    25cc:	aec43c23          	sd	a2,-1288(s0)
    25d0:	03850bb3          	mul	s7,a0,s8
    25d4:	b0043603          	ld	a2,-1280(s0)
    25d8:	00cb8633          	add	a2,s7,a2
    25dc:	b0c43023          	sd	a2,-1280(s0)
    25e0:	03650bb3          	mul	s7,a0,s6
    25e4:	b0843603          	ld	a2,-1272(s0)
    25e8:	00cb8633          	add	a2,s7,a2
    25ec:	b0c43423          	sd	a2,-1272(s0)
    25f0:	02950bb3          	mul	s7,a0,s1
    25f4:	b1043603          	ld	a2,-1264(s0)
    25f8:	00cb8633          	add	a2,s7,a2
    25fc:	b0c43823          	sd	a2,-1264(s0)
    2600:	03450bb3          	mul	s7,a0,s4
    2604:	b1843603          	ld	a2,-1256(s0)
    2608:	00cb8633          	add	a2,s7,a2
    260c:	b0c43c23          	sd	a2,-1256(s0)
    2610:	02f50bb3          	mul	s7,a0,a5
    2614:	b2043603          	ld	a2,-1248(s0)
    2618:	00cb8633          	add	a2,s7,a2
    261c:	b2c43023          	sd	a2,-1248(s0)
    2620:	02b50bb3          	mul	s7,a0,a1
    2624:	b2843603          	ld	a2,-1240(s0)
    2628:	00cb8633          	add	a2,s7,a2
    262c:	b2c43423          	sd	a2,-1240(s0)
    2630:	ea843c03          	ld	s8,-344(s0)
    2634:	03850bb3          	mul	s7,a0,s8
    2638:	b3043603          	ld	a2,-1232(s0)
    263c:	00cb8633          	add	a2,s7,a2
    2640:	b2c43823          	sd	a2,-1232(s0)
    2644:	ec043783          	ld	a5,-320(s0)
    2648:	02f50bb3          	mul	s7,a0,a5
    264c:	b3843603          	ld	a2,-1224(s0)
    2650:	00cb8633          	add	a2,s7,a2
    2654:	b2c43c23          	sd	a2,-1224(s0)
    2658:	02e50bb3          	mul	s7,a0,a4
    265c:	00070493          	mv	s1,a4
    2660:	b4043603          	ld	a2,-1216(s0)
    2664:	00cb8633          	add	a2,s7,a2
    2668:	b4c43023          	sd	a2,-1216(s0)
    266c:	ec843283          	ld	t0,-312(s0)
    2670:	02550bb3          	mul	s7,a0,t0
    2674:	b4843603          	ld	a2,-1208(s0)
    2678:	00cb8633          	add	a2,s7,a2
    267c:	b4c43423          	sd	a2,-1208(s0)
    2680:	03c50bb3          	mul	s7,a0,t3
    2684:	b5043603          	ld	a2,-1200(s0)
    2688:	00cb8633          	add	a2,s7,a2
    268c:	b4c43823          	sd	a2,-1200(s0)
    2690:	03050bb3          	mul	s7,a0,a6
    2694:	b5843603          	ld	a2,-1192(s0)
    2698:	00cb8633          	add	a2,s7,a2
    269c:	b4c43c23          	sd	a2,-1192(s0)
    26a0:	03f50bb3          	mul	s7,a0,t6
    26a4:	000f8a13          	mv	s4,t6
    26a8:	b6043603          	ld	a2,-1184(s0)
    26ac:	00cb8633          	add	a2,s7,a2
    26b0:	b6c43023          	sd	a2,-1184(s0)
    26b4:	03d50bb3          	mul	s7,a0,t4
    26b8:	000e8b13          	mv	s6,t4
    26bc:	b6843603          	ld	a2,-1176(s0)
    26c0:	00cb8633          	add	a2,s7,a2
    26c4:	b6c43423          	sd	a2,-1176(s0)
    26c8:	03250bb3          	mul	s7,a0,s2
    26cc:	b7043603          	ld	a2,-1168(s0)
    26d0:	00cb8633          	add	a2,s7,a2
    26d4:	b6c43823          	sd	a2,-1168(s0)
    26d8:	e8043903          	ld	s2,-384(s0)
    26dc:	03250bb3          	mul	s7,a0,s2
    26e0:	b7843603          	ld	a2,-1160(s0)
    26e4:	00cb8633          	add	a2,s7,a2
    26e8:	b6c43c23          	sd	a2,-1160(s0)
    26ec:	f8043603          	ld	a2,-128(s0)
    26f0:	f8060b83          	lb	s7,-128(a2)
    26f4:	ef843583          	ld	a1,-264(s0)
    26f8:	02b50d33          	mul	s10,a0,a1
    26fc:	b8043603          	ld	a2,-1152(s0)
    2700:	00cd0633          	add	a2,s10,a2
    2704:	b8c43023          	sd	a2,-1152(s0)
    2708:	03550533          	mul	a0,a0,s5
    270c:	b8843603          	ld	a2,-1144(s0)
    2710:	00c50633          	add	a2,a0,a2
    2714:	b8c43423          	sd	a2,-1144(s0)
    2718:	027b8533          	mul	a0,s7,t2
    271c:	00038f93          	mv	t6,t2
    2720:	ba843603          	ld	a2,-1112(s0)
    2724:	00c50633          	add	a2,a0,a2
    2728:	bac43423          	sd	a2,-1112(s0)
    272c:	02db8533          	mul	a0,s7,a3
    2730:	ba043603          	ld	a2,-1120(s0)
    2734:	00c50633          	add	a2,a0,a2
    2738:	bac43023          	sd	a2,-1120(s0)
    273c:	f5043683          	ld	a3,-176(s0)
    2740:	02db8533          	mul	a0,s7,a3
    2744:	b9843603          	ld	a2,-1128(s0)
    2748:	00c50633          	add	a2,a0,a2
    274c:	b8c43c23          	sd	a2,-1128(s0)
    2750:	031b8533          	mul	a0,s7,a7
    2754:	b9043603          	ld	a2,-1136(s0)
    2758:	00c50633          	add	a2,a0,a2
    275c:	b8c43823          	sd	a2,-1136(s0)
    2760:	00008593          	mv	a1,ra
    2764:	021b8533          	mul	a0,s7,ra
    2768:	bb043603          	ld	a2,-1104(s0)
    276c:	00c50633          	add	a2,a0,a2
    2770:	bac43823          	sd	a2,-1104(s0)
    2774:	f4843c83          	ld	s9,-184(s0)
    2778:	039b8533          	mul	a0,s7,s9
    277c:	bb843603          	ld	a2,-1096(s0)
    2780:	00c50633          	add	a2,a0,a2
    2784:	bac43c23          	sd	a2,-1096(s0)
    2788:	03bb8533          	mul	a0,s7,s11
    278c:	bc043603          	ld	a2,-1088(s0)
    2790:	00c50633          	add	a2,a0,a2
    2794:	bcc43023          	sd	a2,-1088(s0)
    2798:	f6043383          	ld	t2,-160(s0)
    279c:	027b8533          	mul	a0,s7,t2
    27a0:	bc843603          	ld	a2,-1080(s0)
    27a4:	00c50633          	add	a2,a0,a2
    27a8:	bcc43423          	sd	a2,-1080(s0)
    27ac:	033b8533          	mul	a0,s7,s3
    27b0:	00098d93          	mv	s11,s3
    27b4:	bd043603          	ld	a2,-1072(s0)
    27b8:	00c50633          	add	a2,a0,a2
    27bc:	bcc43823          	sd	a2,-1072(s0)
    27c0:	f1843983          	ld	s3,-232(s0)
    27c4:	033b8533          	mul	a0,s7,s3
    27c8:	bd843603          	ld	a2,-1064(s0)
    27cc:	00c50633          	add	a2,a0,a2
    27d0:	bcc43c23          	sd	a2,-1064(s0)
    27d4:	f5843703          	ld	a4,-168(s0)
    27d8:	02eb8533          	mul	a0,s7,a4
    27dc:	be043603          	ld	a2,-1056(s0)
    27e0:	00c50633          	add	a2,a0,a2
    27e4:	bec43023          	sd	a2,-1056(s0)
    27e8:	f1043803          	ld	a6,-240(s0)
    27ec:	030b8533          	mul	a0,s7,a6
    27f0:	be843603          	ld	a2,-1048(s0)
    27f4:	00c50633          	add	a2,a0,a2
    27f8:	bec43423          	sd	a2,-1048(s0)
    27fc:	026b8533          	mul	a0,s7,t1
    2800:	bf043603          	ld	a2,-1040(s0)
    2804:	00c50633          	add	a2,a0,a2
    2808:	bec43823          	sd	a2,-1040(s0)
    280c:	03eb8533          	mul	a0,s7,t5
    2810:	bf843603          	ld	a2,-1032(s0)
    2814:	00c50633          	add	a2,a0,a2
    2818:	bec43c23          	sd	a2,-1032(s0)
    281c:	ea043883          	ld	a7,-352(s0)
    2820:	031b8533          	mul	a0,s7,a7
    2824:	c0043603          	ld	a2,-1024(s0)
    2828:	00c50633          	add	a2,a0,a2
    282c:	c0c43023          	sd	a2,-1024(s0)
    2830:	e7043303          	ld	t1,-400(s0)
    2834:	026b8533          	mul	a0,s7,t1
    2838:	c0843603          	ld	a2,-1016(s0)
    283c:	00c50633          	add	a2,a0,a2
    2840:	c0c43423          	sd	a2,-1016(s0)
    2844:	ef043f03          	ld	t5,-272(s0)
    2848:	03eb8533          	mul	a0,s7,t5
    284c:	c1043603          	ld	a2,-1008(s0)
    2850:	00c50633          	add	a2,a0,a2
    2854:	c0c43823          	sd	a2,-1008(s0)
    2858:	00001537          	lui	a0,0x1
    285c:	40a40533          	sub	a0,s0,a0
    2860:	67853e83          	ld	t4,1656(a0) # 1678 <.LBB61_4+0x4d4>
    2864:	03db8533          	mul	a0,s7,t4
    2868:	c1843603          	ld	a2,-1000(s0)
    286c:	00c50633          	add	a2,a0,a2
    2870:	c0c43c23          	sd	a2,-1000(s0)
    2874:	ee843503          	ld	a0,-280(s0)
    2878:	02ab8533          	mul	a0,s7,a0
    287c:	c2043603          	ld	a2,-992(s0)
    2880:	00c50633          	add	a2,a0,a2
    2884:	c2c43023          	sd	a2,-992(s0)
    2888:	ed843083          	ld	ra,-296(s0)
    288c:	021b8533          	mul	a0,s7,ra
    2890:	c2843603          	ld	a2,-984(s0)
    2894:	00c50633          	add	a2,a0,a2
    2898:	c2c43423          	sd	a2,-984(s0)
    289c:	038b8533          	mul	a0,s7,s8
    28a0:	c3043603          	ld	a2,-976(s0)
    28a4:	00c50633          	add	a2,a0,a2
    28a8:	c2c43823          	sd	a2,-976(s0)
    28ac:	02fb8533          	mul	a0,s7,a5
    28b0:	c3843603          	ld	a2,-968(s0)
    28b4:	00c50633          	add	a2,a0,a2
    28b8:	c2c43c23          	sd	a2,-968(s0)
    28bc:	029b8533          	mul	a0,s7,s1
    28c0:	c4043603          	ld	a2,-960(s0)
    28c4:	00c50633          	add	a2,a0,a2
    28c8:	c4c43023          	sd	a2,-960(s0)
    28cc:	025b8533          	mul	a0,s7,t0
    28d0:	c4843603          	ld	a2,-952(s0)
    28d4:	00c50633          	add	a2,a0,a2
    28d8:	c4c43423          	sd	a2,-952(s0)
    28dc:	03cb8533          	mul	a0,s7,t3
    28e0:	c5043603          	ld	a2,-944(s0)
    28e4:	00c50633          	add	a2,a0,a2
    28e8:	c4c43823          	sd	a2,-944(s0)
    28ec:	e6843483          	ld	s1,-408(s0)
    28f0:	029b8533          	mul	a0,s7,s1
    28f4:	c5843603          	ld	a2,-936(s0)
    28f8:	00c50633          	add	a2,a0,a2
    28fc:	c4c43c23          	sd	a2,-936(s0)
    2900:	034b8533          	mul	a0,s7,s4
    2904:	c6043603          	ld	a2,-928(s0)
    2908:	00c50633          	add	a2,a0,a2
    290c:	c6c43023          	sd	a2,-928(s0)
    2910:	036b8533          	mul	a0,s7,s6
    2914:	c6843603          	ld	a2,-920(s0)
    2918:	00c50633          	add	a2,a0,a2
    291c:	c6c43423          	sd	a2,-920(s0)
    2920:	e8843e03          	ld	t3,-376(s0)
    2924:	03cb8533          	mul	a0,s7,t3
    2928:	c7043603          	ld	a2,-912(s0)
    292c:	00c50633          	add	a2,a0,a2
    2930:	c6c43823          	sd	a2,-912(s0)
    2934:	032b8533          	mul	a0,s7,s2
    2938:	c7843603          	ld	a2,-904(s0)
    293c:	00c50633          	add	a2,a0,a2
    2940:	c6c43c23          	sd	a2,-904(s0)
    2944:	f8043503          	ld	a0,-128(s0)
    2948:	fc050503          	lb	a0,-64(a0)
    294c:	ef843603          	ld	a2,-264(s0)
    2950:	02cb8d33          	mul	s10,s7,a2
    2954:	c8043603          	ld	a2,-896(s0)
    2958:	00cd0633          	add	a2,s10,a2
    295c:	c8c43023          	sd	a2,-896(s0)
    2960:	035b8bb3          	mul	s7,s7,s5
    2964:	c8843603          	ld	a2,-888(s0)
    2968:	00cb8633          	add	a2,s7,a2
    296c:	c8c43423          	sd	a2,-888(s0)
    2970:	03f50bb3          	mul	s7,a0,t6
    2974:	ca843603          	ld	a2,-856(s0)
    2978:	00cb8633          	add	a2,s7,a2
    297c:	cac43423          	sd	a2,-856(s0)
    2980:	f7043603          	ld	a2,-144(s0)
    2984:	02c50bb3          	mul	s7,a0,a2
    2988:	ca043603          	ld	a2,-864(s0)
    298c:	00cb8633          	add	a2,s7,a2
    2990:	cac43023          	sd	a2,-864(s0)
    2994:	02d50bb3          	mul	s7,a0,a3
    2998:	c9843603          	ld	a2,-872(s0)
    299c:	00cb8633          	add	a2,s7,a2
    29a0:	c8c43c23          	sd	a2,-872(s0)
    29a4:	f6843603          	ld	a2,-152(s0)
    29a8:	02c50bb3          	mul	s7,a0,a2
    29ac:	c9043603          	ld	a2,-880(s0)
    29b0:	00cb8633          	add	a2,s7,a2
    29b4:	c8c43823          	sd	a2,-880(s0)
    29b8:	02b50bb3          	mul	s7,a0,a1
    29bc:	cb043603          	ld	a2,-848(s0)
    29c0:	00cb8633          	add	a2,s7,a2
    29c4:	cac43823          	sd	a2,-848(s0)
    29c8:	03950bb3          	mul	s7,a0,s9
    29cc:	cb843603          	ld	a2,-840(s0)
    29d0:	00cb8633          	add	a2,s7,a2
    29d4:	cac43c23          	sd	a2,-840(s0)
    29d8:	f7843583          	ld	a1,-136(s0)
    29dc:	02b50bb3          	mul	s7,a0,a1
    29e0:	cc043603          	ld	a2,-832(s0)
    29e4:	00cb8633          	add	a2,s7,a2
    29e8:	ccc43023          	sd	a2,-832(s0)
    29ec:	02750bb3          	mul	s7,a0,t2
    29f0:	cc843603          	ld	a2,-824(s0)
    29f4:	00cb8633          	add	a2,s7,a2
    29f8:	ccc43423          	sd	a2,-824(s0)
    29fc:	03b50bb3          	mul	s7,a0,s11
    2a00:	cd043603          	ld	a2,-816(s0)
    2a04:	00cb8633          	add	a2,s7,a2
    2a08:	ccc43823          	sd	a2,-816(s0)
    2a0c:	03350bb3          	mul	s7,a0,s3
    2a10:	cd843603          	ld	a2,-808(s0)
    2a14:	00cb8633          	add	a2,s7,a2
    2a18:	ccc43c23          	sd	a2,-808(s0)
    2a1c:	02e50bb3          	mul	s7,a0,a4
    2a20:	ce043603          	ld	a2,-800(s0)
    2a24:	00cb8633          	add	a2,s7,a2
    2a28:	cec43023          	sd	a2,-800(s0)
    2a2c:	03050bb3          	mul	s7,a0,a6
    2a30:	00080c93          	mv	s9,a6
    2a34:	ce843603          	ld	a2,-792(s0)
    2a38:	00cb8633          	add	a2,s7,a2
    2a3c:	cec43423          	sd	a2,-792(s0)
    2a40:	ed043283          	ld	t0,-304(s0)
    2a44:	02550bb3          	mul	s7,a0,t0
    2a48:	cf043603          	ld	a2,-784(s0)
    2a4c:	00cb8633          	add	a2,s7,a2
    2a50:	cec43823          	sd	a2,-784(s0)
    2a54:	e9043783          	ld	a5,-368(s0)
    2a58:	02f50bb3          	mul	s7,a0,a5
    2a5c:	cf843603          	ld	a2,-776(s0)
    2a60:	00cb8633          	add	a2,s7,a2
    2a64:	cec43c23          	sd	a2,-776(s0)
    2a68:	03150bb3          	mul	s7,a0,a7
    2a6c:	00088b13          	mv	s6,a7
    2a70:	d0043603          	ld	a2,-768(s0)
    2a74:	00cb8633          	add	a2,s7,a2
    2a78:	d0c43023          	sd	a2,-768(s0)
    2a7c:	02650bb3          	mul	s7,a0,t1
    2a80:	00030f93          	mv	t6,t1
    2a84:	d0843603          	ld	a2,-760(s0)
    2a88:	00cb8633          	add	a2,s7,a2
    2a8c:	d0c43423          	sd	a2,-760(s0)
    2a90:	03e50bb3          	mul	s7,a0,t5
    2a94:	d1043603          	ld	a2,-752(s0)
    2a98:	00cb8633          	add	a2,s7,a2
    2a9c:	d0c43823          	sd	a2,-752(s0)
    2aa0:	000e8313          	mv	t1,t4
    2aa4:	03d50bb3          	mul	s7,a0,t4
    2aa8:	d1843603          	ld	a2,-744(s0)
    2aac:	00cb8633          	add	a2,s7,a2
    2ab0:	d0c43c23          	sd	a2,-744(s0)
    2ab4:	ee843703          	ld	a4,-280(s0)
    2ab8:	02e50bb3          	mul	s7,a0,a4
    2abc:	d2043603          	ld	a2,-736(s0)
    2ac0:	00cb8633          	add	a2,s7,a2
    2ac4:	d2c43023          	sd	a2,-736(s0)
    2ac8:	00008693          	mv	a3,ra
    2acc:	02150bb3          	mul	s7,a0,ra
    2ad0:	d2843603          	ld	a2,-728(s0)
    2ad4:	00cb8633          	add	a2,s7,a2
    2ad8:	d2c43423          	sd	a2,-728(s0)
    2adc:	000c0893          	mv	a7,s8
    2ae0:	03850bb3          	mul	s7,a0,s8
    2ae4:	d3043603          	ld	a2,-720(s0)
    2ae8:	00cb8633          	add	a2,s7,a2
    2aec:	d2c43823          	sd	a2,-720(s0)
    2af0:	ec043083          	ld	ra,-320(s0)
    2af4:	02150bb3          	mul	s7,a0,ra
    2af8:	d3843603          	ld	a2,-712(s0)
    2afc:	00cb8633          	add	a2,s7,a2
    2b00:	d2c43c23          	sd	a2,-712(s0)
    2b04:	ee043c03          	ld	s8,-288(s0)
    2b08:	03850bb3          	mul	s7,a0,s8
    2b0c:	d4043603          	ld	a2,-704(s0)
    2b10:	00cb8633          	add	a2,s7,a2
    2b14:	d4c43023          	sd	a2,-704(s0)
    2b18:	ec843583          	ld	a1,-312(s0)
    2b1c:	02b50bb3          	mul	s7,a0,a1
    2b20:	d4843603          	ld	a2,-696(s0)
    2b24:	00cb8633          	add	a2,s7,a2
    2b28:	d4c43423          	sd	a2,-696(s0)
    2b2c:	e9843a03          	ld	s4,-360(s0)
    2b30:	03450bb3          	mul	s7,a0,s4
    2b34:	d5043603          	ld	a2,-688(s0)
    2b38:	00cb8633          	add	a2,s7,a2
    2b3c:	d4c43823          	sd	a2,-688(s0)
    2b40:	00048813          	mv	a6,s1
    2b44:	02950bb3          	mul	s7,a0,s1
    2b48:	d5843603          	ld	a2,-680(s0)
    2b4c:	00cb8633          	add	a2,s7,a2
    2b50:	d4c43c23          	sd	a2,-680(s0)
    2b54:	eb843383          	ld	t2,-328(s0)
    2b58:	02750bb3          	mul	s7,a0,t2
    2b5c:	d6043603          	ld	a2,-672(s0)
    2b60:	00cb8633          	add	a2,s7,a2
    2b64:	d6c43023          	sd	a2,-672(s0)
    2b68:	eb043e83          	ld	t4,-336(s0)
    2b6c:	03d50bb3          	mul	s7,a0,t4
    2b70:	d6843603          	ld	a2,-664(s0)
    2b74:	00cb8633          	add	a2,s7,a2
    2b78:	d6c43423          	sd	a2,-664(s0)
    2b7c:	03c50bb3          	mul	s7,a0,t3
    2b80:	d7043603          	ld	a2,-656(s0)
    2b84:	00cb8633          	add	a2,s7,a2
    2b88:	d6c43823          	sd	a2,-656(s0)
    2b8c:	03250bb3          	mul	s7,a0,s2
    2b90:	d7843603          	ld	a2,-648(s0)
    2b94:	00cb8633          	add	a2,s7,a2
    2b98:	d6c43c23          	sd	a2,-648(s0)
    2b9c:	f8043603          	ld	a2,-128(s0)
    2ba0:	00060b83          	lb	s7,0(a2)
    2ba4:	ef843983          	ld	s3,-264(s0)
    2ba8:	03350d33          	mul	s10,a0,s3
    2bac:	d8043603          	ld	a2,-640(s0)
    2bb0:	00cd0633          	add	a2,s10,a2
    2bb4:	d8c43023          	sd	a2,-640(s0)
    2bb8:	03550533          	mul	a0,a0,s5
    2bbc:	d8843603          	ld	a2,-632(s0)
    2bc0:	00c50633          	add	a2,a0,a2
    2bc4:	d8c43423          	sd	a2,-632(s0)
    2bc8:	035b8533          	mul	a0,s7,s5
    2bcc:	e6a43c23          	sd	a0,-392(s0)
    2bd0:	033b8533          	mul	a0,s7,s3
    2bd4:	eea43c23          	sd	a0,-264(s0)
    2bd8:	032b8533          	mul	a0,s7,s2
    2bdc:	e8a43023          	sd	a0,-384(s0)
    2be0:	03cb8533          	mul	a0,s7,t3
    2be4:	e8a43423          	sd	a0,-376(s0)
    2be8:	03db8533          	mul	a0,s7,t4
    2bec:	eaa43823          	sd	a0,-336(s0)
    2bf0:	027b8533          	mul	a0,s7,t2
    2bf4:	eaa43c23          	sd	a0,-328(s0)
    2bf8:	029b8533          	mul	a0,s7,s1
    2bfc:	e6a43423          	sd	a0,-408(s0)
    2c00:	034b8ab3          	mul	s5,s7,s4
    2c04:	02bb8a33          	mul	s4,s7,a1
    2c08:	038b89b3          	mul	s3,s7,s8
    2c0c:	021b8933          	mul	s2,s7,ra
    2c10:	031b88b3          	mul	a7,s7,a7
    2c14:	02db8833          	mul	a6,s7,a3
    2c18:	02eb8e33          	mul	t3,s7,a4
    2c1c:	026b8333          	mul	t1,s7,t1
    2c20:	03eb8f33          	mul	t5,s7,t5
    2c24:	03fb83b3          	mul	t2,s7,t6
    2c28:	036b8eb3          	mul	t4,s7,s6
    2c2c:	02fb8fb3          	mul	t6,s7,a5
    2c30:	025b84b3          	mul	s1,s7,t0
    2c34:	039b8b33          	mul	s6,s7,s9
    2c38:	f5843503          	ld	a0,-168(s0)
    2c3c:	02ab8c33          	mul	s8,s7,a0
    2c40:	f1843503          	ld	a0,-232(s0)
    2c44:	02ab8cb3          	mul	s9,s7,a0
    2c48:	03bb8d33          	mul	s10,s7,s11
    2c4c:	f6043503          	ld	a0,-160(s0)
    2c50:	02ab80b3          	mul	ra,s7,a0
    2c54:	f7843503          	ld	a0,-136(s0)
    2c58:	02ab8733          	mul	a4,s7,a0
    2c5c:	f4843503          	ld	a0,-184(s0)
    2c60:	02ab8db3          	mul	s11,s7,a0
    2c64:	f0843503          	ld	a0,-248(s0)
    2c68:	02ab86b3          	mul	a3,s7,a0
    2c6c:	f6843503          	ld	a0,-152(s0)
    2c70:	02ab8633          	mul	a2,s7,a0
    2c74:	f5043503          	ld	a0,-176(s0)
    2c78:	02ab85b3          	mul	a1,s7,a0
    2c7c:	f7043503          	ld	a0,-144(s0)
    2c80:	02ab8533          	mul	a0,s7,a0
    2c84:	f0043783          	ld	a5,-256(s0)
    2c88:	02fb8bb3          	mul	s7,s7,a5
    2c8c:	da843783          	ld	a5,-600(s0)
    2c90:	00fb87b3          	add	a5,s7,a5
    2c94:	daf43423          	sd	a5,-600(s0)
    2c98:	de843b83          	ld	s7,-536(s0)
    2c9c:	da043783          	ld	a5,-608(s0)
    2ca0:	00f507b3          	add	a5,a0,a5
    2ca4:	daf43023          	sd	a5,-608(s0)
    2ca8:	d9843503          	ld	a0,-616(s0)
    2cac:	00a58533          	add	a0,a1,a0
    2cb0:	d8a43c23          	sd	a0,-616(s0)
    2cb4:	d9043503          	ld	a0,-624(s0)
    2cb8:	00a60533          	add	a0,a2,a0
    2cbc:	d8a43823          	sd	a0,-624(s0)
    2cc0:	db043503          	ld	a0,-592(s0)
    2cc4:	00a68533          	add	a0,a3,a0
    2cc8:	daa43823          	sd	a0,-592(s0)
    2ccc:	db843503          	ld	a0,-584(s0)
    2cd0:	00ad8533          	add	a0,s11,a0
    2cd4:	daa43c23          	sd	a0,-584(s0)
    2cd8:	dc843d83          	ld	s11,-568(s0)
    2cdc:	dc043503          	ld	a0,-576(s0)
    2ce0:	00a70533          	add	a0,a4,a0
    2ce4:	dca43023          	sd	a0,-576(s0)
    2ce8:	f2043503          	ld	a0,-224(s0)
    2cec:	00a08533          	add	a0,ra,a0
    2cf0:	f2a43023          	sd	a0,-224(s0)
    2cf4:	f2043703          	ld	a4,-224(s0)
    2cf8:	01bd0db3          	add	s11,s10,s11
    2cfc:	dd043d03          	ld	s10,-560(s0)
    2d00:	01ac8d33          	add	s10,s9,s10
    2d04:	dd843c83          	ld	s9,-552(s0)
    2d08:	019c0cb3          	add	s9,s8,s9
    2d0c:	de043c03          	ld	s8,-544(s0)
    2d10:	018b0c33          	add	s8,s6,s8
    2d14:	df043b03          	ld	s6,-528(s0)
    2d18:	01748bb3          	add	s7,s1,s7
    2d1c:	e0843483          	ld	s1,-504(s0)
    2d20:	016f8b33          	add	s6,t6,s6
    2d24:	e1043f83          	ld	t6,-496(s0)
    2d28:	df843503          	ld	a0,-520(s0)
    2d2c:	00ae8533          	add	a0,t4,a0
    2d30:	dea43c23          	sd	a0,-520(s0)
    2d34:	e2043e83          	ld	t4,-480(s0)
    2d38:	e0043503          	ld	a0,-512(s0)
    2d3c:	00a38533          	add	a0,t2,a0
    2d40:	e0a43023          	sd	a0,-512(s0)
    2d44:	e3043383          	ld	t2,-464(s0)
    2d48:	009f04b3          	add	s1,t5,s1
    2d4c:	e1843f03          	ld	t5,-488(s0)
    2d50:	01f30fb3          	add	t6,t1,t6
    2d54:	e3843303          	ld	t1,-456(s0)
    2d58:	01ee0f33          	add	t5,t3,t5
    2d5c:	e2843e03          	ld	t3,-472(s0)
    2d60:	01d80eb3          	add	t4,a6,t4
    2d64:	e4043283          	ld	t0,-448(s0)
    2d68:	01c88e33          	add	t3,a7,t3
    2d6c:	e4843883          	ld	a7,-440(s0)
    2d70:	f2843503          	ld	a0,-216(s0)
    2d74:	00a90533          	add	a0,s2,a0
    2d78:	f8843903          	ld	s2,-120(s0)
    2d7c:	f2a43423          	sd	a0,-216(s0)
    2d80:	f2843683          	ld	a3,-216(s0)
    2d84:	f3043503          	ld	a0,-208(s0)
    2d88:	00a98533          	add	a0,s3,a0
    2d8c:	f2a43823          	sd	a0,-208(s0)
    2d90:	f3043603          	ld	a2,-208(s0)
    2d94:	f3843503          	ld	a0,-200(s0)
    2d98:	00aa0533          	add	a0,s4,a0
    2d9c:	f2a43c23          	sd	a0,-200(s0)
    2da0:	f3843583          	ld	a1,-200(s0)
    2da4:	f4043503          	ld	a0,-192(s0)
    2da8:	00aa8533          	add	a0,s5,a0
    2dac:	f4a43023          	sd	a0,-192(s0)
    2db0:	f4043503          	ld	a0,-192(s0)
    2db4:	e6843783          	ld	a5,-408(s0)
    2db8:	007783b3          	add	t2,a5,t2
    2dbc:	f8043803          	ld	a6,-128(s0)
    2dc0:	eb843783          	ld	a5,-328(s0)
    2dc4:	00678333          	add	t1,a5,t1
    2dc8:	000017b7          	lui	a5,0x1
    2dcc:	40f407b3          	sub	a5,s0,a5
    2dd0:	6887b783          	ld	a5,1672(a5) # 1688 <.LBB61_4+0x4e4>
    2dd4:	eb043983          	ld	s3,-336(s0)
    2dd8:	005982b3          	add	t0,s3,t0
    2ddc:	e8843983          	ld	s3,-376(s0)
    2de0:	011988b3          	add	a7,s3,a7
    2de4:	e5043983          	ld	s3,-432(s0)
    2de8:	e8043a03          	ld	s4,-384(s0)
    2dec:	013a09b3          	add	s3,s4,s3
    2df0:	e5343823          	sd	s3,-432(s0)
    2df4:	e5843983          	ld	s3,-424(s0)
    2df8:	ef843a03          	ld	s4,-264(s0)
    2dfc:	013a09b3          	add	s3,s4,s3
    2e00:	e5343c23          	sd	s3,-424(s0)
    2e04:	e6043983          	ld	s3,-416(s0)
    2e08:	e7843a03          	ld	s4,-392(s0)
    2e0c:	013a09b3          	add	s3,s4,s3
    2e10:	e7343023          	sd	s3,-416(s0)
    2e14:	e8078793          	addi	a5,a5,-384
    2e18:	18090913          	addi	s2,s2,384
    2e1c:	00180813          	addi	a6,a6,1
    2e20:	00078463          	beqz	a5,2e28 <.LBB61_6>
    2e24:	91dfe06f          	j	1740 <.LBB61_5>

0000000000002e28 <.LBB61_6>:
    2e28:	00001537          	lui	a0,0x1
    2e2c:	40a40533          	sub	a0,s0,a0
    2e30:	6a853083          	ld	ra,1704(a0) # 16a8 <.LBB61_4+0x504>
    2e34:	00001537          	lui	a0,0x1
    2e38:	40a40533          	sub	a0,s0,a0
    2e3c:	6a053a83          	ld	s5,1696(a0) # 16a0 <.LBB61_4+0x4fc>
    2e40:	00001537          	lui	a0,0x1
    2e44:	40a40533          	sub	a0,s0,a0
    2e48:	69853a03          	ld	s4,1688(a0) # 1698 <.LBB61_4+0x4f4>
    2e4c:	00001537          	lui	a0,0x1
    2e50:	40a40533          	sub	a0,s0,a0
    2e54:	69053983          	ld	s3,1680(a0) # 1690 <.LBB61_4+0x4ec>
    2e58:	00001537          	lui	a0,0x1
    2e5c:	40a40533          	sub	a0,s0,a0
    2e60:	66853503          	ld	a0,1640(a0) # 1668 <.LBB61_4+0x4c4>
    2e64:	00251513          	slli	a0,a0,0x2
    2e68:	000015b7          	lui	a1,0x1
    2e6c:	40b405b3          	sub	a1,s0,a1
    2e70:	d885b583          	ld	a1,-632(a1) # d88 <.LBB61_3+0xb60>
    2e74:	00a585b3          	add	a1,a1,a0
    2e78:	00001637          	lui	a2,0x1
    2e7c:	40c40633          	sub	a2,s0,a2
    2e80:	66063603          	ld	a2,1632(a2) # 1660 <.LBB61_4+0x4bc>
    2e84:	00062603          	lw	a2,0(a2)
    2e88:	000016b7          	lui	a3,0x1
    2e8c:	40d406b3          	sub	a3,s0,a3
    2e90:	d806b683          	ld	a3,-640(a3) # d80 <.LBB61_3+0xb58>
    2e94:	00a68533          	add	a0,a3,a0
    2e98:	00c52683          	lw	a3,12(a0)
    2e9c:	00c5a803          	lw	a6,12(a1)
    2ea0:	00600793          	li	a5,6
    2ea4:	02f60733          	mul	a4,a2,a5
    2ea8:	02f686b3          	mul	a3,a3,a5
    2eac:	eb043823          	sd	a6,-336(s0)
    2eb0:	00001637          	lui	a2,0x1
    2eb4:	40c40633          	sub	a2,s0,a2
    2eb8:	6b063603          	ld	a2,1712(a2) # 16b0 <.LBB61_4+0x50c>
    2ebc:	01060633          	add	a2,a2,a6
    2ec0:	ead43423          	sd	a3,-344(s0)
    2ec4:	00d60633          	add	a2,a2,a3
    2ec8:	000016b7          	lui	a3,0x1
    2ecc:	40d406b3          	sub	a3,s0,a3
    2ed0:	6706b803          	ld	a6,1648(a3) # 1670 <.LBB61_4+0x4cc>
    2ed4:	410706bb          	subw	a3,a4,a6
    2ed8:	40d6063b          	subw	a2,a2,a3
    2edc:	400006b7          	lui	a3,0x40000
    2ee0:	00001937          	lui	s2,0x1
    2ee4:	41240933          	sub	s2,s0,s2
    2ee8:	04c93023          	sd	a2,64(s2) # 1040 <.LBB61_3+0xe18>
    2eec:	00065463          	bgez	a2,2ef4 <.LBB61_8>
    2ef0:	c00006b7          	lui	a3,0xc0000

0000000000002ef4 <.LBB61_8>:
    2ef4:	00001637          	lui	a2,0x1
    2ef8:	40c40633          	sub	a2,s0,a2
    2efc:	00d63423          	sd	a3,8(a2) # 1008 <.LBB61_3+0xde0>
    2f00:	00852603          	lw	a2,8(a0)
    2f04:	0085a683          	lw	a3,8(a1)
    2f08:	02f60933          	mul	s2,a2,a5
    2f0c:	ead43023          	sd	a3,-352(s0)
    2f10:	00d08633          	add	a2,ra,a3
    2f14:	e9243c23          	sd	s2,-360(s0)
    2f18:	01260633          	add	a2,a2,s2
    2f1c:	410706bb          	subw	a3,a4,a6
    2f20:	40d6063b          	subw	a2,a2,a3
    2f24:	400006b7          	lui	a3,0x40000
    2f28:	00001937          	lui	s2,0x1
    2f2c:	41240933          	sub	s2,s0,s2
    2f30:	02c93823          	sd	a2,48(s2) # 1030 <.LBB61_3+0xe08>
    2f34:	00001937          	lui	s2,0x1
    2f38:	41240933          	sub	s2,s0,s2
    2f3c:	6b893083          	ld	ra,1720(s2) # 16b8 <.LBB61_4+0x514>
    2f40:	00065463          	bgez	a2,2f48 <.LBB61_10>
    2f44:	c00006b7          	lui	a3,0xc0000

0000000000002f48 <.LBB61_10>:
    2f48:	00001637          	lui	a2,0x1
    2f4c:	40c40633          	sub	a2,s0,a2
    2f50:	00d63c23          	sd	a3,24(a2) # 1018 <.LBB61_3+0xdf0>
    2f54:	00452603          	lw	a2,4(a0)
    2f58:	0045a683          	lw	a3,4(a1)
    2f5c:	02f60933          	mul	s2,a2,a5
    2f60:	e8d43823          	sd	a3,-368(s0)
    2f64:	00001637          	lui	a2,0x1
    2f68:	40c40633          	sub	a2,s0,a2
    2f6c:	6c063603          	ld	a2,1728(a2) # 16c0 <.LBB61_4+0x51c>
    2f70:	00d60633          	add	a2,a2,a3
    2f74:	e9243423          	sd	s2,-376(s0)
    2f78:	01260633          	add	a2,a2,s2
    2f7c:	410706bb          	subw	a3,a4,a6
    2f80:	40d6063b          	subw	a2,a2,a3
    2f84:	400006b7          	lui	a3,0x40000
    2f88:	00001937          	lui	s2,0x1
    2f8c:	41240933          	sub	s2,s0,s2
    2f90:	02c93423          	sd	a2,40(s2) # 1028 <.LBB61_3+0xe00>
    2f94:	00065463          	bgez	a2,2f9c <.LBB61_12>
    2f98:	c00006b7          	lui	a3,0xc0000

0000000000002f9c <.LBB61_12>:
    2f9c:	00001637          	lui	a2,0x1
    2fa0:	40c40633          	sub	a2,s0,a2
    2fa4:	00d63023          	sd	a3,0(a2) # 1000 <.LBB61_3+0xdd8>
    2fa8:	00052603          	lw	a2,0(a0)
    2fac:	0005a683          	lw	a3,0(a1)
    2fb0:	02f60933          	mul	s2,a2,a5
    2fb4:	e8d43023          	sd	a3,-384(s0)
    2fb8:	00001637          	lui	a2,0x1
    2fbc:	40c40633          	sub	a2,s0,a2
    2fc0:	6c863603          	ld	a2,1736(a2) # 16c8 <.LBB61_4+0x524>
    2fc4:	00d60633          	add	a2,a2,a3
    2fc8:	e7243c23          	sd	s2,-392(s0)
    2fcc:	01260633          	add	a2,a2,s2
    2fd0:	410706bb          	subw	a3,a4,a6
    2fd4:	40d6063b          	subw	a2,a2,a3
    2fd8:	400006b7          	lui	a3,0x40000
    2fdc:	00001937          	lui	s2,0x1
    2fe0:	41240933          	sub	s2,s0,s2
    2fe4:	00c93823          	sd	a2,16(s2) # 1010 <.LBB61_3+0xde8>
    2fe8:	00065463          	bgez	a2,2ff0 <.LBB61_14>
    2fec:	c00006b7          	lui	a3,0xc0000

0000000000002ff0 <.LBB61_14>:
    2ff0:	00001637          	lui	a2,0x1
    2ff4:	40c40633          	sub	a2,s0,a2
    2ff8:	fed63423          	sd	a3,-24(a2) # fe8 <.LBB61_3+0xdc0>
    2ffc:	01052603          	lw	a2,16(a0)
    3000:	0105a683          	lw	a3,16(a1)
    3004:	02f60933          	mul	s2,a2,a5
    3008:	e6d43823          	sd	a3,-400(s0)
    300c:	00001637          	lui	a2,0x1
    3010:	40c40633          	sub	a2,s0,a2
    3014:	6d063603          	ld	a2,1744(a2) # 16d0 <.LBB61_4+0x52c>
    3018:	00d60633          	add	a2,a2,a3
    301c:	e7243423          	sd	s2,-408(s0)
    3020:	01260633          	add	a2,a2,s2
    3024:	410706bb          	subw	a3,a4,a6
    3028:	40d6063b          	subw	a2,a2,a3
    302c:	400006b7          	lui	a3,0x40000
    3030:	00001937          	lui	s2,0x1
    3034:	41240933          	sub	s2,s0,s2
    3038:	fec93823          	sd	a2,-16(s2) # ff0 <.LBB61_3+0xdc8>
    303c:	00065463          	bgez	a2,3044 <.LBB61_16>
    3040:	c00006b7          	lui	a3,0xc0000

0000000000003044 <.LBB61_16>:
    3044:	00001637          	lui	a2,0x1
    3048:	40c40633          	sub	a2,s0,a2
    304c:	fcd63823          	sd	a3,-48(a2) # fd0 <.LBB61_3+0xda8>
    3050:	01452603          	lw	a2,20(a0)
    3054:	0145a683          	lw	a3,20(a1)
    3058:	02f60933          	mul	s2,a2,a5
    305c:	00001637          	lui	a2,0x1
    3060:	40c40633          	sub	a2,s0,a2
    3064:	6cd63823          	sd	a3,1744(a2) # 16d0 <.LBB61_4+0x52c>
    3068:	00d08633          	add	a2,ra,a3
    306c:	000016b7          	lui	a3,0x1
    3070:	40d406b3          	sub	a3,s0,a3
    3074:	6d26b423          	sd	s2,1736(a3) # 16c8 <.LBB61_4+0x524>
    3078:	01260633          	add	a2,a2,s2
    307c:	410706bb          	subw	a3,a4,a6
    3080:	40d6063b          	subw	a2,a2,a3
    3084:	400006b7          	lui	a3,0x40000
    3088:	00001937          	lui	s2,0x1
    308c:	41240933          	sub	s2,s0,s2
    3090:	fec93023          	sd	a2,-32(s2) # fe0 <.LBB61_3+0xdb8>
    3094:	00065463          	bgez	a2,309c <.LBB61_18>
    3098:	c00006b7          	lui	a3,0xc0000

000000000000309c <.LBB61_18>:
    309c:	00001637          	lui	a2,0x1
    30a0:	40c40633          	sub	a2,s0,a2
    30a4:	fcd63023          	sd	a3,-64(a2) # fc0 <.LBB61_3+0xd98>
    30a8:	01852603          	lw	a2,24(a0)
    30ac:	0185a683          	lw	a3,24(a1)
    30b0:	02f60933          	mul	s2,a2,a5
    30b4:	00001637          	lui	a2,0x1
    30b8:	40c40633          	sub	a2,s0,a2
    30bc:	6cd63023          	sd	a3,1728(a2) # 16c0 <.LBB61_4+0x51c>
    30c0:	00da8633          	add	a2,s5,a3
    30c4:	000016b7          	lui	a3,0x1
    30c8:	40d406b3          	sub	a3,s0,a3
    30cc:	6b26bc23          	sd	s2,1720(a3) # 16b8 <.LBB61_4+0x514>
    30d0:	01260633          	add	a2,a2,s2
    30d4:	410706bb          	subw	a3,a4,a6
    30d8:	40d6063b          	subw	a2,a2,a3
    30dc:	400006b7          	lui	a3,0x40000
    30e0:	00001937          	lui	s2,0x1
    30e4:	41240933          	sub	s2,s0,s2
    30e8:	fcc93423          	sd	a2,-56(s2) # fc8 <.LBB61_3+0xda0>
    30ec:	00065463          	bgez	a2,30f4 <.LBB61_20>
    30f0:	c00006b7          	lui	a3,0xc0000

00000000000030f4 <.LBB61_20>:
    30f4:	00001637          	lui	a2,0x1
    30f8:	40c40633          	sub	a2,s0,a2
    30fc:	fad63423          	sd	a3,-88(a2) # fa8 <.LBB61_3+0xd80>
    3100:	01c52603          	lw	a2,28(a0)
    3104:	01c5a683          	lw	a3,28(a1)
    3108:	02f60933          	mul	s2,a2,a5
    310c:	00001637          	lui	a2,0x1
    3110:	40c40633          	sub	a2,s0,a2
    3114:	6ad63823          	sd	a3,1712(a2) # 16b0 <.LBB61_4+0x50c>
    3118:	00da0633          	add	a2,s4,a3
    311c:	000016b7          	lui	a3,0x1
    3120:	40d406b3          	sub	a3,s0,a3
    3124:	6b26b423          	sd	s2,1704(a3) # 16a8 <.LBB61_4+0x504>
    3128:	01260633          	add	a2,a2,s2
    312c:	410706bb          	subw	a3,a4,a6
    3130:	40d6063b          	subw	a2,a2,a3
    3134:	400006b7          	lui	a3,0x40000
    3138:	00001837          	lui	a6,0x1
    313c:	41040833          	sub	a6,s0,a6
    3140:	fac83823          	sd	a2,-80(a6) # fb0 <.LBB61_3+0xd88>
    3144:	00065463          	bgez	a2,314c <.LBB61_22>
    3148:	c00006b7          	lui	a3,0xc0000

000000000000314c <.LBB61_22>:
    314c:	00001637          	lui	a2,0x1
    3150:	40c40633          	sub	a2,s0,a2
    3154:	f8d63823          	sd	a3,-112(a2) # f90 <.LBB61_3+0xd68>
    3158:	000d8913          	mv	s2,s11
    315c:	dda43823          	sd	s10,-560(s0)
    3160:	dd943c23          	sd	s9,-552(s0)
    3164:	df843023          	sd	s8,-544(s0)
    3168:	df743423          	sd	s7,-536(s0)
    316c:	df643823          	sd	s6,-528(s0)
    3170:	e0943423          	sd	s1,-504(s0)
    3174:	e1f43823          	sd	t6,-496(s0)
    3178:	e1e43c23          	sd	t5,-488(s0)
    317c:	e3d43023          	sd	t4,-480(s0)
    3180:	e3c43423          	sd	t3,-472(s0)
    3184:	e2743823          	sd	t2,-464(s0)
    3188:	e2643c23          	sd	t1,-456(s0)
    318c:	e4543023          	sd	t0,-448(s0)
    3190:	e5143423          	sd	a7,-440(s0)
    3194:	02052603          	lw	a2,32(a0)
    3198:	0205a683          	lw	a3,32(a1)
    319c:	00600813          	li	a6,6
    31a0:	02f607b3          	mul	a5,a2,a5
    31a4:	00001637          	lui	a2,0x1
    31a8:	40c40633          	sub	a2,s0,a2
    31ac:	6ad63023          	sd	a3,1696(a2) # 16a0 <.LBB61_4+0x4fc>
    31b0:	00d98633          	add	a2,s3,a3
    31b4:	000016b7          	lui	a3,0x1
    31b8:	40d406b3          	sub	a3,s0,a3
    31bc:	68f6bc23          	sd	a5,1688(a3) # 1698 <.LBB61_4+0x4f4>
    31c0:	00f60633          	add	a2,a2,a5
    31c4:	000016b7          	lui	a3,0x1
    31c8:	40d406b3          	sub	a3,s0,a3
    31cc:	6706b683          	ld	a3,1648(a3) # 1670 <.LBB61_4+0x4cc>
    31d0:	40d706bb          	subw	a3,a4,a3
    31d4:	40d6063b          	subw	a2,a2,a3
    31d8:	400006b7          	lui	a3,0x40000
    31dc:	000017b7          	lui	a5,0x1
    31e0:	40f407b3          	sub	a5,s0,a5
    31e4:	fac7b023          	sd	a2,-96(a5) # fa0 <.LBB61_3+0xd78>
    31e8:	00065463          	bgez	a2,31f0 <.LBB61_24>
    31ec:	c00006b7          	lui	a3,0xc0000

00000000000031f0 <.LBB61_24>:
    31f0:	00001637          	lui	a2,0x1
    31f4:	40c40633          	sub	a2,s0,a2
    31f8:	f8d63423          	sd	a3,-120(a2) # f88 <.LBB61_3+0xd60>
    31fc:	07c5a603          	lw	a2,124(a1)
    3200:	f8c43423          	sd	a2,-120(s0)
    3204:	0785a603          	lw	a2,120(a1)
    3208:	f8c43023          	sd	a2,-128(s0)
    320c:	0745a603          	lw	a2,116(a1)
    3210:	f6c43c23          	sd	a2,-136(s0)
    3214:	0705a603          	lw	a2,112(a1)
    3218:	f6c43823          	sd	a2,-144(s0)
    321c:	06c5a603          	lw	a2,108(a1)
    3220:	f6c43423          	sd	a2,-152(s0)
    3224:	0685a603          	lw	a2,104(a1)
    3228:	f6c43023          	sd	a2,-160(s0)
    322c:	0645a603          	lw	a2,100(a1)
    3230:	f4c43c23          	sd	a2,-168(s0)
    3234:	0605a603          	lw	a2,96(a1)
    3238:	f4c43823          	sd	a2,-176(s0)
    323c:	05c5a603          	lw	a2,92(a1)
    3240:	f4c43423          	sd	a2,-184(s0)
    3244:	0585a603          	lw	a2,88(a1)
    3248:	f0c43c23          	sd	a2,-232(s0)
    324c:	0545a603          	lw	a2,84(a1)
    3250:	f0c43823          	sd	a2,-240(s0)
    3254:	0505a603          	lw	a2,80(a1)
    3258:	f0c43423          	sd	a2,-248(s0)
    325c:	04c5a603          	lw	a2,76(a1)
    3260:	f0c43023          	sd	a2,-256(s0)
    3264:	0485a603          	lw	a2,72(a1)
    3268:	eec43c23          	sd	a2,-264(s0)
    326c:	0445a603          	lw	a2,68(a1)
    3270:	eec43823          	sd	a2,-272(s0)
    3274:	0405a603          	lw	a2,64(a1)
    3278:	eec43423          	sd	a2,-280(s0)
    327c:	03c5a603          	lw	a2,60(a1)
    3280:	eec43023          	sd	a2,-288(s0)
    3284:	0385a603          	lw	a2,56(a1)
    3288:	ecc43c23          	sd	a2,-296(s0)
    328c:	0345a603          	lw	a2,52(a1)
    3290:	ecc43823          	sd	a2,-304(s0)
    3294:	0305a603          	lw	a2,48(a1)
    3298:	ecc43423          	sd	a2,-312(s0)
    329c:	02c5a603          	lw	a2,44(a1)
    32a0:	ecc43023          	sd	a2,-320(s0)
    32a4:	0285a603          	lw	a2,40(a1)
    32a8:	eac43c23          	sd	a2,-328(s0)
    32ac:	0245a603          	lw	a2,36(a1)
    32b0:	07c52583          	lw	a1,124(a0)
    32b4:	000016b7          	lui	a3,0x1
    32b8:	40d406b3          	sub	a3,s0,a3
    32bc:	64b6b423          	sd	a1,1608(a3) # 1648 <.LBB61_4+0x4a4>
    32c0:	07852583          	lw	a1,120(a0)
    32c4:	000016b7          	lui	a3,0x1
    32c8:	40d406b3          	sub	a3,s0,a3
    32cc:	62b6bc23          	sd	a1,1592(a3) # 1638 <.LBB61_4+0x494>
    32d0:	07452283          	lw	t0,116(a0)
    32d4:	07052303          	lw	t1,112(a0)
    32d8:	06c52383          	lw	t2,108(a0)
    32dc:	06852e03          	lw	t3,104(a0)
    32e0:	06452e83          	lw	t4,100(a0)
    32e4:	06052f03          	lw	t5,96(a0)
    32e8:	05c52f83          	lw	t6,92(a0)
    32ec:	05852483          	lw	s1,88(a0)
    32f0:	05452783          	lw	a5,84(a0)
    32f4:	05052983          	lw	s3,80(a0)
    32f8:	04c52a03          	lw	s4,76(a0)
    32fc:	04852a83          	lw	s5,72(a0)
    3300:	04452b03          	lw	s6,68(a0)
    3304:	04052b83          	lw	s7,64(a0)
    3308:	03c52c03          	lw	s8,60(a0)
    330c:	03852c83          	lw	s9,56(a0)
    3310:	03452d03          	lw	s10,52(a0)
    3314:	02452583          	lw	a1,36(a0)
    3318:	03052d83          	lw	s11,48(a0)
    331c:	02c52083          	lw	ra,44(a0)
    3320:	02852503          	lw	a0,40(a0)
    3324:	030588b3          	mul	a7,a1,a6
    3328:	000015b7          	lui	a1,0x1
    332c:	40b405b3          	sub	a1,s0,a1
    3330:	68c5b823          	sd	a2,1680(a1) # 1690 <.LBB61_4+0x4ec>
    3334:	000015b7          	lui	a1,0x1
    3338:	40b405b3          	sub	a1,s0,a1
    333c:	6d85b583          	ld	a1,1752(a1) # 16d8 <.LBB61_4+0x534>
    3340:	00c585b3          	add	a1,a1,a2
    3344:	00001637          	lui	a2,0x1
    3348:	40c40633          	sub	a2,s0,a2
    334c:	6d163c23          	sd	a7,1752(a2) # 16d8 <.LBB61_4+0x534>
    3350:	011585b3          	add	a1,a1,a7
    3354:	00001637          	lui	a2,0x1
    3358:	40c40633          	sub	a2,s0,a2
    335c:	66063603          	ld	a2,1632(a2) # 1660 <.LBB61_4+0x4bc>
    3360:	00462683          	lw	a3,4(a2)
    3364:	000018b7          	lui	a7,0x1
    3368:	411408b3          	sub	a7,s0,a7
    336c:	64d8b023          	sd	a3,1600(a7) # 1640 <.LBB61_4+0x49c>
    3370:	00862683          	lw	a3,8(a2)
    3374:	000018b7          	lui	a7,0x1
    3378:	411408b3          	sub	a7,s0,a7
    337c:	66d8bc23          	sd	a3,1656(a7) # 1678 <.LBB61_4+0x4d4>
    3380:	00c62683          	lw	a3,12(a2)
    3384:	000018b7          	lui	a7,0x1
    3388:	411408b3          	sub	a7,s0,a7
    338c:	68d8b023          	sd	a3,1664(a7) # 1680 <.LBB61_4+0x4dc>
    3390:	01062683          	lw	a3,16(a2)
    3394:	000018b7          	lui	a7,0x1
    3398:	411408b3          	sub	a7,s0,a7
    339c:	68d8b423          	sd	a3,1672(a7) # 1688 <.LBB61_4+0x4e4>
    33a0:	01462683          	lw	a3,20(a2)
    33a4:	000018b7          	lui	a7,0x1
    33a8:	411408b3          	sub	a7,s0,a7
    33ac:	dad8b823          	sd	a3,-592(a7) # db0 <.LBB61_3+0xb88>
    33b0:	01862683          	lw	a3,24(a2)
    33b4:	000018b7          	lui	a7,0x1
    33b8:	411408b3          	sub	a7,s0,a7
    33bc:	dad8bc23          	sd	a3,-584(a7) # db8 <.LBB61_3+0xb90>
    33c0:	01c62603          	lw	a2,28(a2)
    33c4:	000016b7          	lui	a3,0x1
    33c8:	40d406b3          	sub	a3,s0,a3
    33cc:	dcc6b023          	sd	a2,-576(a3) # dc0 <.LBB61_3+0xb98>
    33d0:	00001637          	lui	a2,0x1
    33d4:	40c40633          	sub	a2,s0,a2
    33d8:	67063603          	ld	a2,1648(a2) # 1670 <.LBB61_4+0x4cc>
    33dc:	40c7063b          	subw	a2,a4,a2
    33e0:	40c585bb          	subw	a1,a1,a2
    33e4:	400008b7          	lui	a7,0x40000
    33e8:	00001637          	lui	a2,0x1
    33ec:	40c40633          	sub	a2,s0,a2
    33f0:	dcb63423          	sd	a1,-568(a2) # dc8 <.LBB61_3+0xba0>
    33f4:	0005d463          	bgez	a1,33fc <.LBB61_26>
    33f8:	c00008b7          	lui	a7,0xc0000

00000000000033fc <.LBB61_26>:
    33fc:	030505b3          	mul	a1,a0,a6
    3400:	eb843503          	ld	a0,-328(s0)
    3404:	00001637          	lui	a2,0x1
    3408:	40c40633          	sub	a2,s0,a2
    340c:	6e063603          	ld	a2,1760(a2) # 16e0 <.LBB61_4+0x53c>
    3410:	00a60533          	add	a0,a2,a0
    3414:	00001637          	lui	a2,0x1
    3418:	40c40633          	sub	a2,s0,a2
    341c:	6eb63023          	sd	a1,1760(a2) # 16e0 <.LBB61_4+0x53c>
    3420:	00b50533          	add	a0,a0,a1
    3424:	000015b7          	lui	a1,0x1
    3428:	40b405b3          	sub	a1,s0,a1
    342c:	6705b803          	ld	a6,1648(a1) # 1670 <.LBB61_4+0x4cc>
    3430:	410705bb          	subw	a1,a4,a6
    3434:	40b5053b          	subw	a0,a0,a1
    3438:	400005b7          	lui	a1,0x40000
    343c:	00001637          	lui	a2,0x1
    3440:	40c40633          	sub	a2,s0,a2
    3444:	dca63c23          	sd	a0,-552(a2) # dd8 <.LBB61_3+0xbb0>
    3448:	00001637          	lui	a2,0x1
    344c:	40c40633          	sub	a2,s0,a2
    3450:	72863683          	ld	a3,1832(a2) # 1728 <.LBB61_4+0x584>
    3454:	00055463          	bgez	a0,345c <.LBB61_28>
    3458:	c00005b7          	lui	a1,0xc0000

000000000000345c <.LBB61_28>:
    345c:	00001537          	lui	a0,0x1
    3460:	40a40533          	sub	a0,s0,a0
    3464:	dcb53823          	sd	a1,-560(a0) # dd0 <.LBB61_3+0xba8>
    3468:	00600513          	li	a0,6
    346c:	02a085b3          	mul	a1,ra,a0
    3470:	00600093          	li	ra,6
    3474:	ec043503          	ld	a0,-320(s0)
    3478:	00001637          	lui	a2,0x1
    347c:	40c40633          	sub	a2,s0,a2
    3480:	6e863603          	ld	a2,1768(a2) # 16e8 <.LBB61_4+0x544>
    3484:	00a60533          	add	a0,a2,a0
    3488:	00001637          	lui	a2,0x1
    348c:	40c40633          	sub	a2,s0,a2
    3490:	6eb63423          	sd	a1,1768(a2) # 16e8 <.LBB61_4+0x544>
    3494:	00b50533          	add	a0,a0,a1
    3498:	410705bb          	subw	a1,a4,a6
    349c:	40b5053b          	subw	a0,a0,a1
    34a0:	400005b7          	lui	a1,0x40000
    34a4:	00001637          	lui	a2,0x1
    34a8:	40c40633          	sub	a2,s0,a2
    34ac:	dea63423          	sd	a0,-536(a2) # de8 <.LBB61_3+0xbc0>
    34b0:	00055463          	bgez	a0,34b8 <.LBB61_30>
    34b4:	c00005b7          	lui	a1,0xc0000

00000000000034b8 <.LBB61_30>:
    34b8:	00001537          	lui	a0,0x1
    34bc:	40a40533          	sub	a0,s0,a0
    34c0:	deb53023          	sd	a1,-544(a0) # de0 <.LBB61_3+0xbb8>
    34c4:	021d85b3          	mul	a1,s11,ra
    34c8:	ec843503          	ld	a0,-312(s0)
    34cc:	00001637          	lui	a2,0x1
    34d0:	40c40633          	sub	a2,s0,a2
    34d4:	6f063d83          	ld	s11,1776(a2) # 16f0 <.LBB61_4+0x54c>
    34d8:	00ad8533          	add	a0,s11,a0
    34dc:	00058d93          	mv	s11,a1
    34e0:	00b50533          	add	a0,a0,a1
    34e4:	410705bb          	subw	a1,a4,a6
    34e8:	40b5053b          	subw	a0,a0,a1
    34ec:	400005b7          	lui	a1,0x40000
    34f0:	00001637          	lui	a2,0x1
    34f4:	40c40633          	sub	a2,s0,a2
    34f8:	dea63c23          	sd	a0,-520(a2) # df8 <.LBB61_3+0xbd0>
    34fc:	00088613          	mv	a2,a7
    3500:	00055463          	bgez	a0,3508 <.LBB61_32>
    3504:	c00005b7          	lui	a1,0xc0000

0000000000003508 <.LBB61_32>:
    3508:	00001537          	lui	a0,0x1
    350c:	40a40533          	sub	a0,s0,a0
    3510:	deb53823          	sd	a1,-528(a0) # df0 <.LBB61_3+0xbc8>
    3514:	021d05b3          	mul	a1,s10,ra
    3518:	ed043503          	ld	a0,-304(s0)
    351c:	000018b7          	lui	a7,0x1
    3520:	411408b3          	sub	a7,s0,a7
    3524:	6f88bd03          	ld	s10,1784(a7) # 16f8 <.LBB61_4+0x554>
    3528:	00ad0533          	add	a0,s10,a0
    352c:	00058d13          	mv	s10,a1
    3530:	00b50533          	add	a0,a0,a1
    3534:	410705bb          	subw	a1,a4,a6
    3538:	40b5053b          	subw	a0,a0,a1
    353c:	400005b7          	lui	a1,0x40000
    3540:	dd243423          	sd	s2,-568(s0)
    3544:	000018b7          	lui	a7,0x1
    3548:	411408b3          	sub	a7,s0,a7
    354c:	e0a8b423          	sd	a0,-504(a7) # e08 <.LBB61_3+0xbe0>
    3550:	00055463          	bgez	a0,3558 <.LBB61_34>
    3554:	c00005b7          	lui	a1,0xc0000

0000000000003558 <.LBB61_34>:
    3558:	00001537          	lui	a0,0x1
    355c:	40a40533          	sub	a0,s0,a0
    3560:	e0b53023          	sd	a1,-512(a0) # e00 <.LBB61_3+0xbd8>
    3564:	021c85b3          	mul	a1,s9,ra
    3568:	ed843503          	ld	a0,-296(s0)
    356c:	000018b7          	lui	a7,0x1
    3570:	411408b3          	sub	a7,s0,a7
    3574:	7008b903          	ld	s2,1792(a7) # 1700 <.LBB61_4+0x55c>
    3578:	00a90533          	add	a0,s2,a0
    357c:	00058913          	mv	s2,a1
    3580:	00b50533          	add	a0,a0,a1
    3584:	410705bb          	subw	a1,a4,a6
    3588:	40b5053b          	subw	a0,a0,a1
    358c:	400005b7          	lui	a1,0x40000
    3590:	000018b7          	lui	a7,0x1
    3594:	411408b3          	sub	a7,s0,a7
    3598:	e0a8bc23          	sd	a0,-488(a7) # e18 <.LBB61_3+0xbf0>
    359c:	00055463          	bgez	a0,35a4 <.LBB61_36>
    35a0:	c00005b7          	lui	a1,0xc0000

00000000000035a4 <.LBB61_36>:
    35a4:	00001537          	lui	a0,0x1
    35a8:	40a40533          	sub	a0,s0,a0
    35ac:	e0b53823          	sd	a1,-496(a0) # e10 <.LBB61_3+0xbe8>
    35b0:	021c05b3          	mul	a1,s8,ra
    35b4:	ee043503          	ld	a0,-288(s0)
    35b8:	000018b7          	lui	a7,0x1
    35bc:	411408b3          	sub	a7,s0,a7
    35c0:	7088bc03          	ld	s8,1800(a7) # 1708 <.LBB61_4+0x564>
    35c4:	00ac0533          	add	a0,s8,a0
    35c8:	00058c93          	mv	s9,a1
    35cc:	00b50533          	add	a0,a0,a1
    35d0:	410705bb          	subw	a1,a4,a6
    35d4:	40b5053b          	subw	a0,a0,a1
    35d8:	400005b7          	lui	a1,0x40000
    35dc:	000018b7          	lui	a7,0x1
    35e0:	411408b3          	sub	a7,s0,a7
    35e4:	e2a8b423          	sd	a0,-472(a7) # e28 <.LBB61_3+0xc00>
    35e8:	00055463          	bgez	a0,35f0 <.LBB61_38>
    35ec:	c00005b7          	lui	a1,0xc0000

00000000000035f0 <.LBB61_38>:
    35f0:	00001537          	lui	a0,0x1
    35f4:	40a40533          	sub	a0,s0,a0
    35f8:	e2b53023          	sd	a1,-480(a0) # e20 <.LBB61_3+0xbf8>
    35fc:	021b85b3          	mul	a1,s7,ra
    3600:	ee843503          	ld	a0,-280(s0)
    3604:	000018b7          	lui	a7,0x1
    3608:	411408b3          	sub	a7,s0,a7
    360c:	7108bb83          	ld	s7,1808(a7) # 1710 <.LBB61_4+0x56c>
    3610:	00ab8533          	add	a0,s7,a0
    3614:	000018b7          	lui	a7,0x1
    3618:	411408b3          	sub	a7,s0,a7
    361c:	70b8b823          	sd	a1,1808(a7) # 1710 <.LBB61_4+0x56c>
    3620:	00b50533          	add	a0,a0,a1
    3624:	410705bb          	subw	a1,a4,a6
    3628:	40b5053b          	subw	a0,a0,a1
    362c:	400005b7          	lui	a1,0x40000
    3630:	000018b7          	lui	a7,0x1
    3634:	411408b3          	sub	a7,s0,a7
    3638:	d388bc03          	ld	s8,-712(a7) # d38 <.LBB61_3+0xb10>
    363c:	000018b7          	lui	a7,0x1
    3640:	411408b3          	sub	a7,s0,a7
    3644:	e2a8bc23          	sd	a0,-456(a7) # e38 <.LBB61_3+0xc10>
    3648:	00055463          	bgez	a0,3650 <.LBB61_40>
    364c:	c00005b7          	lui	a1,0xc0000

0000000000003650 <.LBB61_40>:
    3650:	00001537          	lui	a0,0x1
    3654:	40a40533          	sub	a0,s0,a0
    3658:	e2b53823          	sd	a1,-464(a0) # e30 <.LBB61_3+0xc08>
    365c:	021b05b3          	mul	a1,s6,ra
    3660:	ef043503          	ld	a0,-272(s0)
    3664:	000018b7          	lui	a7,0x1
    3668:	411408b3          	sub	a7,s0,a7
    366c:	7188bb03          	ld	s6,1816(a7) # 1718 <.LBB61_4+0x574>
    3670:	00ab0533          	add	a0,s6,a0
    3674:	00058b13          	mv	s6,a1
    3678:	00b50533          	add	a0,a0,a1
    367c:	410705bb          	subw	a1,a4,a6
    3680:	40b5053b          	subw	a0,a0,a1
    3684:	400005b7          	lui	a1,0x40000
    3688:	000018b7          	lui	a7,0x1
    368c:	411408b3          	sub	a7,s0,a7
    3690:	6588bb83          	ld	s7,1624(a7) # 1658 <.LBB61_4+0x4b4>
    3694:	000018b7          	lui	a7,0x1
    3698:	411408b3          	sub	a7,s0,a7
    369c:	e4a8b423          	sd	a0,-440(a7) # e48 <.LBB61_3+0xc20>
    36a0:	00055463          	bgez	a0,36a8 <.LBB61_42>
    36a4:	c00005b7          	lui	a1,0xc0000

00000000000036a8 <.LBB61_42>:
    36a8:	00001537          	lui	a0,0x1
    36ac:	40a40533          	sub	a0,s0,a0
    36b0:	e4b53023          	sd	a1,-448(a0) # e40 <.LBB61_3+0xc18>
    36b4:	021a85b3          	mul	a1,s5,ra
    36b8:	ef843503          	ld	a0,-264(s0)
    36bc:	000018b7          	lui	a7,0x1
    36c0:	411408b3          	sub	a7,s0,a7
    36c4:	7208ba83          	ld	s5,1824(a7) # 1720 <.LBB61_4+0x57c>
    36c8:	00aa8533          	add	a0,s5,a0
    36cc:	00058a93          	mv	s5,a1
    36d0:	00b50533          	add	a0,a0,a1
    36d4:	410705bb          	subw	a1,a4,a6
    36d8:	40b5053b          	subw	a0,a0,a1
    36dc:	400005b7          	lui	a1,0x40000
    36e0:	000018b7          	lui	a7,0x1
    36e4:	411408b3          	sub	a7,s0,a7
    36e8:	e4a8bc23          	sd	a0,-424(a7) # e58 <.LBB61_3+0xc30>
    36ec:	00055463          	bgez	a0,36f4 <.LBB61_44>
    36f0:	c00005b7          	lui	a1,0xc0000

00000000000036f4 <.LBB61_44>:
    36f4:	00001537          	lui	a0,0x1
    36f8:	40a40533          	sub	a0,s0,a0
    36fc:	e4b53823          	sd	a1,-432(a0) # e50 <.LBB61_3+0xc28>
    3700:	021a05b3          	mul	a1,s4,ra
    3704:	f0043503          	ld	a0,-256(s0)
    3708:	00a68533          	add	a0,a3,a0
    370c:	00058a13          	mv	s4,a1
    3710:	00b50533          	add	a0,a0,a1
    3714:	410705bb          	subw	a1,a4,a6
    3718:	40b5053b          	subw	a0,a0,a1
    371c:	400005b7          	lui	a1,0x40000
    3720:	000016b7          	lui	a3,0x1
    3724:	40d406b3          	sub	a3,s0,a3
    3728:	e6a6b423          	sd	a0,-408(a3) # e68 <.LBB61_3+0xc40>
    372c:	00055463          	bgez	a0,3734 <.LBB61_46>
    3730:	c00005b7          	lui	a1,0xc0000

0000000000003734 <.LBB61_46>:
    3734:	00001537          	lui	a0,0x1
    3738:	40a40533          	sub	a0,s0,a0
    373c:	e6b53023          	sd	a1,-416(a0) # e60 <.LBB61_3+0xc38>
    3740:	021985b3          	mul	a1,s3,ra
    3744:	f0843503          	ld	a0,-248(s0)
    3748:	000016b7          	lui	a3,0x1
    374c:	40d406b3          	sub	a3,s0,a3
    3750:	7306b983          	ld	s3,1840(a3) # 1730 <.LBB61_4+0x58c>
    3754:	00a98533          	add	a0,s3,a0
    3758:	00058993          	mv	s3,a1
    375c:	00b50533          	add	a0,a0,a1
    3760:	410705bb          	subw	a1,a4,a6
    3764:	40b5053b          	subw	a0,a0,a1
    3768:	400005b7          	lui	a1,0x40000
    376c:	000016b7          	lui	a3,0x1
    3770:	40d406b3          	sub	a3,s0,a3
    3774:	e6a6bc23          	sd	a0,-392(a3) # e78 <.LBB61_3+0xc50>
    3778:	00055463          	bgez	a0,3780 <.LBB61_48>
    377c:	c00005b7          	lui	a1,0xc0000

0000000000003780 <.LBB61_48>:
    3780:	00001537          	lui	a0,0x1
    3784:	40a40533          	sub	a0,s0,a0
    3788:	e6b53823          	sd	a1,-400(a0) # e70 <.LBB61_3+0xc48>
    378c:	021785b3          	mul	a1,a5,ra
    3790:	f1043503          	ld	a0,-240(s0)
    3794:	000016b7          	lui	a3,0x1
    3798:	40d406b3          	sub	a3,s0,a3
    379c:	7386b783          	ld	a5,1848(a3) # 1738 <.LBB61_4+0x594>
    37a0:	00a78533          	add	a0,a5,a0
    37a4:	000016b7          	lui	a3,0x1
    37a8:	40d406b3          	sub	a3,s0,a3
    37ac:	72b6bc23          	sd	a1,1848(a3) # 1738 <.LBB61_4+0x594>
    37b0:	00b50533          	add	a0,a0,a1
    37b4:	410705bb          	subw	a1,a4,a6
    37b8:	40b5053b          	subw	a0,a0,a1
    37bc:	400005b7          	lui	a1,0x40000
    37c0:	000016b7          	lui	a3,0x1
    37c4:	40d406b3          	sub	a3,s0,a3
    37c8:	e8a6b423          	sd	a0,-376(a3) # e88 <.LBB61_3+0xc60>
    37cc:	00055463          	bgez	a0,37d4 <.LBB61_50>
    37d0:	c00005b7          	lui	a1,0xc0000

00000000000037d4 <.LBB61_50>:
    37d4:	00001537          	lui	a0,0x1
    37d8:	40a40533          	sub	a0,s0,a0
    37dc:	e8b53023          	sd	a1,-384(a0) # e80 <.LBB61_3+0xc58>
    37e0:	021485b3          	mul	a1,s1,ra
    37e4:	f1843503          	ld	a0,-232(s0)
    37e8:	000016b7          	lui	a3,0x1
    37ec:	40d406b3          	sub	a3,s0,a3
    37f0:	7406b783          	ld	a5,1856(a3) # 1740 <.LBB61_5>
    37f4:	00a78533          	add	a0,a5,a0
    37f8:	000016b7          	lui	a3,0x1
    37fc:	40d406b3          	sub	a3,s0,a3
    3800:	74b6b023          	sd	a1,1856(a3) # 1740 <.LBB61_5>
    3804:	00b50533          	add	a0,a0,a1
    3808:	410705bb          	subw	a1,a4,a6
    380c:	40b5053b          	subw	a0,a0,a1
    3810:	400005b7          	lui	a1,0x40000
    3814:	000016b7          	lui	a3,0x1
    3818:	40d406b3          	sub	a3,s0,a3
    381c:	e8a6bc23          	sd	a0,-360(a3) # e98 <.LBB61_3+0xc70>
    3820:	000016b7          	lui	a3,0x1
    3824:	40d406b3          	sub	a3,s0,a3
    3828:	7806b783          	ld	a5,1920(a3) # 1780 <.LBB61_5+0x40>
    382c:	00055463          	bgez	a0,3834 <.LBB61_52>
    3830:	c00005b7          	lui	a1,0xc0000

0000000000003834 <.LBB61_52>:
    3834:	00001537          	lui	a0,0x1
    3838:	40a40533          	sub	a0,s0,a0
    383c:	e8b53823          	sd	a1,-368(a0) # e90 <.LBB61_3+0xc68>
    3840:	021f85b3          	mul	a1,t6,ra
    3844:	f4843503          	ld	a0,-184(s0)
    3848:	000016b7          	lui	a3,0x1
    384c:	40d406b3          	sub	a3,s0,a3
    3850:	7486bf83          	ld	t6,1864(a3) # 1748 <.LBB61_5+0x8>
    3854:	00af8533          	add	a0,t6,a0
    3858:	000016b7          	lui	a3,0x1
    385c:	40d406b3          	sub	a3,s0,a3
    3860:	74b6b423          	sd	a1,1864(a3) # 1748 <.LBB61_5+0x8>
    3864:	00b50533          	add	a0,a0,a1
    3868:	410705bb          	subw	a1,a4,a6
    386c:	40b5053b          	subw	a0,a0,a1
    3870:	400005b7          	lui	a1,0x40000
    3874:	000016b7          	lui	a3,0x1
    3878:	40d406b3          	sub	a3,s0,a3
    387c:	eaa6b423          	sd	a0,-344(a3) # ea8 <.LBB61_3+0xc80>
    3880:	000016b7          	lui	a3,0x1
    3884:	40d406b3          	sub	a3,s0,a3
    3888:	7686b483          	ld	s1,1896(a3) # 1768 <.LBB61_5+0x28>
    388c:	00055463          	bgez	a0,3894 <.LBB61_54>
    3890:	c00005b7          	lui	a1,0xc0000

0000000000003894 <.LBB61_54>:
    3894:	00001537          	lui	a0,0x1
    3898:	40a40533          	sub	a0,s0,a0
    389c:	eab53023          	sd	a1,-352(a0) # ea0 <.LBB61_3+0xc78>
    38a0:	021f05b3          	mul	a1,t5,ra
    38a4:	f5043503          	ld	a0,-176(s0)
    38a8:	000016b7          	lui	a3,0x1
    38ac:	40d406b3          	sub	a3,s0,a3
    38b0:	7506bf03          	ld	t5,1872(a3) # 1750 <.LBB61_5+0x10>
    38b4:	00af0533          	add	a0,t5,a0
    38b8:	00058f13          	mv	t5,a1
    38bc:	00b50533          	add	a0,a0,a1
    38c0:	410705bb          	subw	a1,a4,a6
    38c4:	40b5053b          	subw	a0,a0,a1
    38c8:	400005b7          	lui	a1,0x40000
    38cc:	000016b7          	lui	a3,0x1
    38d0:	40d406b3          	sub	a3,s0,a3
    38d4:	eaa6bc23          	sd	a0,-328(a3) # eb8 <.LBB61_3+0xc90>
    38d8:	000016b7          	lui	a3,0x1
    38dc:	40d406b3          	sub	a3,s0,a3
    38e0:	7886bf83          	ld	t6,1928(a3) # 1788 <.LBB61_5+0x48>
    38e4:	00055463          	bgez	a0,38ec <.LBB61_56>
    38e8:	c00005b7          	lui	a1,0xc0000

00000000000038ec <.LBB61_56>:
    38ec:	00001537          	lui	a0,0x1
    38f0:	40a40533          	sub	a0,s0,a0
    38f4:	eab53823          	sd	a1,-336(a0) # eb0 <.LBB61_3+0xc88>
    38f8:	021e85b3          	mul	a1,t4,ra
    38fc:	f5843503          	ld	a0,-168(s0)
    3900:	000016b7          	lui	a3,0x1
    3904:	40d406b3          	sub	a3,s0,a3
    3908:	7586be83          	ld	t4,1880(a3) # 1758 <.LBB61_5+0x18>
    390c:	00ae8533          	add	a0,t4,a0
    3910:	00058e93          	mv	t4,a1
    3914:	00b50533          	add	a0,a0,a1
    3918:	410705bb          	subw	a1,a4,a6
    391c:	40b5053b          	subw	a0,a0,a1
    3920:	400005b7          	lui	a1,0x40000
    3924:	000016b7          	lui	a3,0x1
    3928:	40d406b3          	sub	a3,s0,a3
    392c:	eca6b423          	sd	a0,-312(a3) # ec8 <.LBB61_3+0xca0>
    3930:	00055463          	bgez	a0,3938 <.LBB61_58>
    3934:	c00005b7          	lui	a1,0xc0000

0000000000003938 <.LBB61_58>:
    3938:	00001537          	lui	a0,0x1
    393c:	40a40533          	sub	a0,s0,a0
    3940:	ecb53023          	sd	a1,-320(a0) # ec0 <.LBB61_3+0xc98>
    3944:	021e05b3          	mul	a1,t3,ra
    3948:	f6043503          	ld	a0,-160(s0)
    394c:	000016b7          	lui	a3,0x1
    3950:	40d406b3          	sub	a3,s0,a3
    3954:	7606be03          	ld	t3,1888(a3) # 1760 <.LBB61_5+0x20>
    3958:	00ae0533          	add	a0,t3,a0
    395c:	00058e13          	mv	t3,a1
    3960:	00b50533          	add	a0,a0,a1
    3964:	410705bb          	subw	a1,a4,a6
    3968:	40b5053b          	subw	a0,a0,a1
    396c:	400005b7          	lui	a1,0x40000
    3970:	000016b7          	lui	a3,0x1
    3974:	40d406b3          	sub	a3,s0,a3
    3978:	eca6bc23          	sd	a0,-296(a3) # ed8 <.LBB61_3+0xcb0>
    397c:	00055463          	bgez	a0,3984 <.LBB61_60>
    3980:	c00005b7          	lui	a1,0xc0000

0000000000003984 <.LBB61_60>:
    3984:	00001537          	lui	a0,0x1
    3988:	40a40533          	sub	a0,s0,a0
    398c:	ecb53823          	sd	a1,-304(a0) # ed0 <.LBB61_3+0xca8>
    3990:	021385b3          	mul	a1,t2,ra
    3994:	f6843503          	ld	a0,-152(s0)
    3998:	00a48533          	add	a0,s1,a0
    399c:	00058493          	mv	s1,a1
    39a0:	00b50533          	add	a0,a0,a1
    39a4:	410705bb          	subw	a1,a4,a6
    39a8:	40b5053b          	subw	a0,a0,a1
    39ac:	400005b7          	lui	a1,0x40000
    39b0:	000016b7          	lui	a3,0x1
    39b4:	40d406b3          	sub	a3,s0,a3
    39b8:	eea6b423          	sd	a0,-280(a3) # ee8 <.LBB61_3+0xcc0>
    39bc:	00055463          	bgez	a0,39c4 <.LBB61_62>
    39c0:	c00005b7          	lui	a1,0xc0000

00000000000039c4 <.LBB61_62>:
    39c4:	00001537          	lui	a0,0x1
    39c8:	40a40533          	sub	a0,s0,a0
    39cc:	eeb53023          	sd	a1,-288(a0) # ee0 <.LBB61_3+0xcb8>
    39d0:	021305b3          	mul	a1,t1,ra
    39d4:	f7043503          	ld	a0,-144(s0)
    39d8:	000016b7          	lui	a3,0x1
    39dc:	40d406b3          	sub	a3,s0,a3
    39e0:	7706b303          	ld	t1,1904(a3) # 1770 <.LBB61_5+0x30>
    39e4:	00a30533          	add	a0,t1,a0
    39e8:	00058313          	mv	t1,a1
    39ec:	00b50533          	add	a0,a0,a1
    39f0:	410705bb          	subw	a1,a4,a6
    39f4:	40b5053b          	subw	a0,a0,a1
    39f8:	400005b7          	lui	a1,0x40000
    39fc:	000016b7          	lui	a3,0x1
    3a00:	40d406b3          	sub	a3,s0,a3
    3a04:	eea6bc23          	sd	a0,-264(a3) # ef8 <.LBB61_3+0xcd0>
    3a08:	88043383          	ld	t2,-1920(s0)
    3a0c:	00055463          	bgez	a0,3a14 <.LBB61_64>
    3a10:	c00005b7          	lui	a1,0xc0000

0000000000003a14 <.LBB61_64>:
    3a14:	00001537          	lui	a0,0x1
    3a18:	40a40533          	sub	a0,s0,a0
    3a1c:	eeb53823          	sd	a1,-272(a0) # ef0 <.LBB61_3+0xcc8>
    3a20:	021285b3          	mul	a1,t0,ra
    3a24:	f7843503          	ld	a0,-136(s0)
    3a28:	000016b7          	lui	a3,0x1
    3a2c:	40d406b3          	sub	a3,s0,a3
    3a30:	7786b283          	ld	t0,1912(a3) # 1778 <.LBB61_5+0x38>
    3a34:	00a28533          	add	a0,t0,a0
    3a38:	00058293          	mv	t0,a1
    3a3c:	00b50533          	add	a0,a0,a1
    3a40:	410705bb          	subw	a1,a4,a6
    3a44:	40b5053b          	subw	a0,a0,a1
    3a48:	400005b7          	lui	a1,0x40000
    3a4c:	000016b7          	lui	a3,0x1
    3a50:	40d406b3          	sub	a3,s0,a3
    3a54:	f0a6b423          	sd	a0,-248(a3) # f08 <.LBB61_3+0xce0>
    3a58:	00055463          	bgez	a0,3a60 <.LBB61_66>
    3a5c:	c00005b7          	lui	a1,0xc0000

0000000000003a60 <.LBB61_66>:
    3a60:	00001537          	lui	a0,0x1
    3a64:	40a40533          	sub	a0,s0,a0
    3a68:	f0b53023          	sd	a1,-256(a0) # f00 <.LBB61_3+0xcd8>
    3a6c:	00001537          	lui	a0,0x1
    3a70:	40a40533          	sub	a0,s0,a0
    3a74:	63853503          	ld	a0,1592(a0) # 1638 <.LBB61_4+0x494>
    3a78:	021505b3          	mul	a1,a0,ra
    3a7c:	f8043503          	ld	a0,-128(s0)
    3a80:	00a78533          	add	a0,a5,a0
    3a84:	00058793          	mv	a5,a1
    3a88:	00b50533          	add	a0,a0,a1
    3a8c:	410705bb          	subw	a1,a4,a6
    3a90:	40b5053b          	subw	a0,a0,a1
    3a94:	400005b7          	lui	a1,0x40000
    3a98:	000016b7          	lui	a3,0x1
    3a9c:	40d406b3          	sub	a3,s0,a3
    3aa0:	f0a6bc23          	sd	a0,-232(a3) # f18 <.LBB61_3+0xcf0>
    3aa4:	00055463          	bgez	a0,3aac <.LBB61_68>
    3aa8:	c00005b7          	lui	a1,0xc0000

0000000000003aac <.LBB61_68>:
    3aac:	00001537          	lui	a0,0x1
    3ab0:	40a40533          	sub	a0,s0,a0
    3ab4:	f0b53823          	sd	a1,-240(a0) # f10 <.LBB61_3+0xce8>
    3ab8:	00001537          	lui	a0,0x1
    3abc:	40a40533          	sub	a0,s0,a0
    3ac0:	64853503          	ld	a0,1608(a0) # 1648 <.LBB61_4+0x4a4>
    3ac4:	021505b3          	mul	a1,a0,ra
    3ac8:	f8843503          	ld	a0,-120(s0)
    3acc:	00af8533          	add	a0,t6,a0
    3ad0:	00058f93          	mv	t6,a1
    3ad4:	00b50533          	add	a0,a0,a1
    3ad8:	410705bb          	subw	a1,a4,a6
    3adc:	40b5053b          	subw	a0,a0,a1
    3ae0:	400005b7          	lui	a1,0x40000
    3ae4:	000016b7          	lui	a3,0x1
    3ae8:	40d406b3          	sub	a3,s0,a3
    3aec:	f2a6b423          	sd	a0,-216(a3) # f28 <.LBB61_3+0xd00>
    3af0:	89043683          	ld	a3,-1904(s0)
    3af4:	00055463          	bgez	a0,3afc <.LBB61_70>
    3af8:	c00005b7          	lui	a1,0xc0000

0000000000003afc <.LBB61_70>:
    3afc:	00001537          	lui	a0,0x1
    3b00:	40a40533          	sub	a0,s0,a0
    3b04:	f2b53023          	sd	a1,-224(a0) # f20 <.LBB61_3+0xcf8>
    3b08:	eb043503          	ld	a0,-336(s0)
    3b0c:	000015b7          	lui	a1,0x1
    3b10:	40b405b3          	sub	a1,s0,a1
    3b14:	7905b583          	ld	a1,1936(a1) # 1790 <.LBB61_5+0x50>
    3b18:	00a58533          	add	a0,a1,a0
    3b1c:	000015b7          	lui	a1,0x1
    3b20:	40b405b3          	sub	a1,s0,a1
    3b24:	6405b583          	ld	a1,1600(a1) # 1640 <.LBB61_4+0x49c>
    3b28:	02158733          	mul	a4,a1,ra
    3b2c:	ea843583          	ld	a1,-344(s0)
    3b30:	00b50533          	add	a0,a0,a1
    3b34:	410705bb          	subw	a1,a4,a6
    3b38:	40b5053b          	subw	a0,a0,a1
    3b3c:	400005b7          	lui	a1,0x40000
    3b40:	000018b7          	lui	a7,0x1
    3b44:	411408b3          	sub	a7,s0,a7
    3b48:	f2a8bc23          	sd	a0,-200(a7) # f38 <.LBB61_3+0xd10>
    3b4c:	00055463          	bgez	a0,3b54 <.LBB61_72>
    3b50:	c00005b7          	lui	a1,0xc0000

0000000000003b54 <.LBB61_72>:
    3b54:	f8c43823          	sd	a2,-112(s0)
    3b58:	00001537          	lui	a0,0x1
    3b5c:	40a40533          	sub	a0,s0,a0
    3b60:	f2b53823          	sd	a1,-208(a0) # f30 <.LBB61_3+0xd08>
    3b64:	ea043503          	ld	a0,-352(s0)
    3b68:	000015b7          	lui	a1,0x1
    3b6c:	40b405b3          	sub	a1,s0,a1
    3b70:	7985b583          	ld	a1,1944(a1) # 1798 <.LBB61_5+0x58>
    3b74:	00a58533          	add	a0,a1,a0
    3b78:	e9843583          	ld	a1,-360(s0)
    3b7c:	00b50533          	add	a0,a0,a1
    3b80:	410705bb          	subw	a1,a4,a6
    3b84:	40b5053b          	subw	a0,a0,a1
    3b88:	400005b7          	lui	a1,0x40000
    3b8c:	e4843883          	ld	a7,-440(s0)
    3b90:	00001637          	lui	a2,0x1
    3b94:	40c40633          	sub	a2,s0,a2
    3b98:	f4a63423          	sd	a0,-184(a2) # f48 <.LBB61_3+0xd20>
    3b9c:	f9043603          	ld	a2,-112(s0)
    3ba0:	00055463          	bgez	a0,3ba8 <.LBB61_74>
    3ba4:	c00005b7          	lui	a1,0xc0000

0000000000003ba8 <.LBB61_74>:
    3ba8:	f8c43823          	sd	a2,-112(s0)
    3bac:	00001537          	lui	a0,0x1
    3bb0:	40a40533          	sub	a0,s0,a0
    3bb4:	f4b53023          	sd	a1,-192(a0) # f40 <.LBB61_3+0xd18>
    3bb8:	e9043503          	ld	a0,-368(s0)
    3bbc:	000015b7          	lui	a1,0x1
    3bc0:	40b405b3          	sub	a1,s0,a1
    3bc4:	7a05b583          	ld	a1,1952(a1) # 17a0 <.LBB61_5+0x60>
    3bc8:	00a58533          	add	a0,a1,a0
    3bcc:	e8843583          	ld	a1,-376(s0)
    3bd0:	00b50533          	add	a0,a0,a1
    3bd4:	410705bb          	subw	a1,a4,a6
    3bd8:	40b5053b          	subw	a0,a0,a1
    3bdc:	400005b7          	lui	a1,0x40000
    3be0:	00001637          	lui	a2,0x1
    3be4:	40c40633          	sub	a2,s0,a2
    3be8:	f4a63c23          	sd	a0,-168(a2) # f58 <.LBB61_3+0xd30>
    3bec:	f9043603          	ld	a2,-112(s0)
    3bf0:	00055463          	bgez	a0,3bf8 <.LBB61_76>
    3bf4:	c00005b7          	lui	a1,0xc0000

0000000000003bf8 <.LBB61_76>:
    3bf8:	f8c43823          	sd	a2,-112(s0)
    3bfc:	00001537          	lui	a0,0x1
    3c00:	40a40533          	sub	a0,s0,a0
    3c04:	f4b53823          	sd	a1,-176(a0) # f50 <.LBB61_3+0xd28>
    3c08:	e8043503          	ld	a0,-384(s0)
    3c0c:	000015b7          	lui	a1,0x1
    3c10:	40b405b3          	sub	a1,s0,a1
    3c14:	7a85b583          	ld	a1,1960(a1) # 17a8 <.LBB61_5+0x68>
    3c18:	00a58533          	add	a0,a1,a0
    3c1c:	e7843583          	ld	a1,-392(s0)
    3c20:	00b50533          	add	a0,a0,a1
    3c24:	410705bb          	subw	a1,a4,a6
    3c28:	40b5053b          	subw	a0,a0,a1
    3c2c:	400005b7          	lui	a1,0x40000
    3c30:	00001637          	lui	a2,0x1
    3c34:	40c40633          	sub	a2,s0,a2
    3c38:	f6a63423          	sd	a0,-152(a2) # f68 <.LBB61_3+0xd40>
    3c3c:	f9043603          	ld	a2,-112(s0)
    3c40:	00055463          	bgez	a0,3c48 <.LBB61_78>
    3c44:	c00005b7          	lui	a1,0xc0000

0000000000003c48 <.LBB61_78>:
    3c48:	f8c43823          	sd	a2,-112(s0)
    3c4c:	00001537          	lui	a0,0x1
    3c50:	40a40533          	sub	a0,s0,a0
    3c54:	f6b53023          	sd	a1,-160(a0) # f60 <.LBB61_3+0xd38>
    3c58:	e7043503          	ld	a0,-400(s0)
    3c5c:	000015b7          	lui	a1,0x1
    3c60:	40b405b3          	sub	a1,s0,a1
    3c64:	7b05b583          	ld	a1,1968(a1) # 17b0 <.LBB61_5+0x70>
    3c68:	00a58533          	add	a0,a1,a0
    3c6c:	e6843583          	ld	a1,-408(s0)
    3c70:	00b50533          	add	a0,a0,a1
    3c74:	410705bb          	subw	a1,a4,a6
    3c78:	40b5053b          	subw	a0,a0,a1
    3c7c:	400005b7          	lui	a1,0x40000
    3c80:	00001637          	lui	a2,0x1
    3c84:	40c40633          	sub	a2,s0,a2
    3c88:	f6a63c23          	sd	a0,-136(a2) # f78 <.LBB61_3+0xd50>
    3c8c:	f9043603          	ld	a2,-112(s0)
    3c90:	00055463          	bgez	a0,3c98 <.LBB61_80>
    3c94:	c00005b7          	lui	a1,0xc0000

0000000000003c98 <.LBB61_80>:
    3c98:	f8c43823          	sd	a2,-112(s0)
    3c9c:	00001537          	lui	a0,0x1
    3ca0:	40a40533          	sub	a0,s0,a0
    3ca4:	f6b53823          	sd	a1,-144(a0) # f70 <.LBB61_3+0xd48>
    3ca8:	00001537          	lui	a0,0x1
    3cac:	40a40533          	sub	a0,s0,a0
    3cb0:	6d053503          	ld	a0,1744(a0) # 16d0 <.LBB61_4+0x52c>
    3cb4:	000015b7          	lui	a1,0x1
    3cb8:	40b405b3          	sub	a1,s0,a1
    3cbc:	7b85b583          	ld	a1,1976(a1) # 17b8 <.LBB61_5+0x78>
    3cc0:	00a58533          	add	a0,a1,a0
    3cc4:	000015b7          	lui	a1,0x1
    3cc8:	40b405b3          	sub	a1,s0,a1
    3ccc:	6c85b583          	ld	a1,1736(a1) # 16c8 <.LBB61_4+0x524>
    3cd0:	00b50533          	add	a0,a0,a1
    3cd4:	410705bb          	subw	a1,a4,a6
    3cd8:	40b5053b          	subw	a0,a0,a1
    3cdc:	400005b7          	lui	a1,0x40000
    3ce0:	00001637          	lui	a2,0x1
    3ce4:	40c40633          	sub	a2,s0,a2
    3ce8:	f8a63c23          	sd	a0,-104(a2) # f98 <.LBB61_3+0xd70>
    3cec:	f9043603          	ld	a2,-112(s0)
    3cf0:	00055463          	bgez	a0,3cf8 <.LBB61_82>
    3cf4:	c00005b7          	lui	a1,0xc0000

0000000000003cf8 <.LBB61_82>:
    3cf8:	f8c43823          	sd	a2,-112(s0)
    3cfc:	00001537          	lui	a0,0x1
    3d00:	40a40533          	sub	a0,s0,a0
    3d04:	f8b53023          	sd	a1,-128(a0) # f80 <.LBB61_3+0xd58>
    3d08:	00001537          	lui	a0,0x1
    3d0c:	40a40533          	sub	a0,s0,a0
    3d10:	6c053503          	ld	a0,1728(a0) # 16c0 <.LBB61_4+0x51c>
    3d14:	000015b7          	lui	a1,0x1
    3d18:	40b405b3          	sub	a1,s0,a1
    3d1c:	7c05b583          	ld	a1,1984(a1) # 17c0 <.LBB61_5+0x80>
    3d20:	00a58533          	add	a0,a1,a0
    3d24:	000015b7          	lui	a1,0x1
    3d28:	40b405b3          	sub	a1,s0,a1
    3d2c:	6b85b583          	ld	a1,1720(a1) # 16b8 <.LBB61_4+0x514>
    3d30:	00b50533          	add	a0,a0,a1
    3d34:	410705bb          	subw	a1,a4,a6
    3d38:	40b5053b          	subw	a0,a0,a1
    3d3c:	400005b7          	lui	a1,0x40000
    3d40:	00001637          	lui	a2,0x1
    3d44:	40c40633          	sub	a2,s0,a2
    3d48:	fca63c23          	sd	a0,-40(a2) # fd8 <.LBB61_3+0xdb0>
    3d4c:	f9043603          	ld	a2,-112(s0)
    3d50:	00055463          	bgez	a0,3d58 <.LBB61_84>
    3d54:	c00005b7          	lui	a1,0xc0000

0000000000003d58 <.LBB61_84>:
    3d58:	f8c43823          	sd	a2,-112(s0)
    3d5c:	00001537          	lui	a0,0x1
    3d60:	40a40533          	sub	a0,s0,a0
    3d64:	fab53c23          	sd	a1,-72(a0) # fb8 <.LBB61_3+0xd90>
    3d68:	00001537          	lui	a0,0x1
    3d6c:	40a40533          	sub	a0,s0,a0
    3d70:	6b053503          	ld	a0,1712(a0) # 16b0 <.LBB61_4+0x50c>
    3d74:	000015b7          	lui	a1,0x1
    3d78:	40b405b3          	sub	a1,s0,a1
    3d7c:	7c85b583          	ld	a1,1992(a1) # 17c8 <.LBB61_5+0x88>
    3d80:	00a58533          	add	a0,a1,a0
    3d84:	000015b7          	lui	a1,0x1
    3d88:	40b405b3          	sub	a1,s0,a1
    3d8c:	6a85b583          	ld	a1,1704(a1) # 16a8 <.LBB61_4+0x504>
    3d90:	00b50533          	add	a0,a0,a1
    3d94:	410705bb          	subw	a1,a4,a6
    3d98:	40b5053b          	subw	a0,a0,a1
    3d9c:	400005b7          	lui	a1,0x40000
    3da0:	00001637          	lui	a2,0x1
    3da4:	40c40633          	sub	a2,s0,a2
    3da8:	02a63023          	sd	a0,32(a2) # 1020 <.LBB61_3+0xdf8>
    3dac:	f9043603          	ld	a2,-112(s0)
    3db0:	00055463          	bgez	a0,3db8 <.LBB61_86>
    3db4:	c00005b7          	lui	a1,0xc0000

0000000000003db8 <.LBB61_86>:
    3db8:	f8c43823          	sd	a2,-112(s0)
    3dbc:	00001537          	lui	a0,0x1
    3dc0:	40a40533          	sub	a0,s0,a0
    3dc4:	feb53c23          	sd	a1,-8(a0) # ff8 <.LBB61_3+0xdd0>
    3dc8:	00001537          	lui	a0,0x1
    3dcc:	40a40533          	sub	a0,s0,a0
    3dd0:	6a053503          	ld	a0,1696(a0) # 16a0 <.LBB61_4+0x4fc>
    3dd4:	000015b7          	lui	a1,0x1
    3dd8:	40b405b3          	sub	a1,s0,a1
    3ddc:	7d05b583          	ld	a1,2000(a1) # 17d0 <.LBB61_5+0x90>
    3de0:	00a58533          	add	a0,a1,a0
    3de4:	000015b7          	lui	a1,0x1
    3de8:	40b405b3          	sub	a1,s0,a1
    3dec:	6985b583          	ld	a1,1688(a1) # 1698 <.LBB61_4+0x4f4>
    3df0:	00b50533          	add	a0,a0,a1
    3df4:	410705bb          	subw	a1,a4,a6
    3df8:	40b5053b          	subw	a0,a0,a1
    3dfc:	400005b7          	lui	a1,0x40000
    3e00:	00001637          	lui	a2,0x1
    3e04:	40c40633          	sub	a2,s0,a2
    3e08:	04a63423          	sd	a0,72(a2) # 1048 <.LBB61_3+0xe20>
    3e0c:	f9043603          	ld	a2,-112(s0)
    3e10:	00055463          	bgez	a0,3e18 <.LBB61_88>
    3e14:	c00005b7          	lui	a1,0xc0000

0000000000003e18 <.LBB61_88>:
    3e18:	f8c43823          	sd	a2,-112(s0)
    3e1c:	00001537          	lui	a0,0x1
    3e20:	40a40533          	sub	a0,s0,a0
    3e24:	02b53c23          	sd	a1,56(a0) # 1038 <.LBB61_3+0xe10>
    3e28:	00001537          	lui	a0,0x1
    3e2c:	40a40533          	sub	a0,s0,a0
    3e30:	69053503          	ld	a0,1680(a0) # 1690 <.LBB61_4+0x4ec>
    3e34:	000015b7          	lui	a1,0x1
    3e38:	40b405b3          	sub	a1,s0,a1
    3e3c:	7d85b583          	ld	a1,2008(a1) # 17d8 <.LBB61_5+0x98>
    3e40:	00a58533          	add	a0,a1,a0
    3e44:	000015b7          	lui	a1,0x1
    3e48:	40b405b3          	sub	a1,s0,a1
    3e4c:	6d85b583          	ld	a1,1752(a1) # 16d8 <.LBB61_4+0x534>
    3e50:	00b50533          	add	a0,a0,a1
    3e54:	410705bb          	subw	a1,a4,a6
    3e58:	40b5053b          	subw	a0,a0,a1
    3e5c:	400005b7          	lui	a1,0x40000
    3e60:	00001637          	lui	a2,0x1
    3e64:	40c40633          	sub	a2,s0,a2
    3e68:	04a63c23          	sd	a0,88(a2) # 1058 <.LBB61_3+0xe30>
    3e6c:	f9043603          	ld	a2,-112(s0)
    3e70:	00055463          	bgez	a0,3e78 <.LBB61_90>
    3e74:	c00005b7          	lui	a1,0xc0000

0000000000003e78 <.LBB61_90>:
    3e78:	f8c43823          	sd	a2,-112(s0)
    3e7c:	00001537          	lui	a0,0x1
    3e80:	40a40533          	sub	a0,s0,a0
    3e84:	04b53823          	sd	a1,80(a0) # 1050 <.LBB61_3+0xe28>
    3e88:	eb843503          	ld	a0,-328(s0)
    3e8c:	000015b7          	lui	a1,0x1
    3e90:	40b405b3          	sub	a1,s0,a1
    3e94:	7e05b583          	ld	a1,2016(a1) # 17e0 <.LBB61_5+0xa0>
    3e98:	00a58533          	add	a0,a1,a0
    3e9c:	000015b7          	lui	a1,0x1
    3ea0:	40b405b3          	sub	a1,s0,a1
    3ea4:	6e05b583          	ld	a1,1760(a1) # 16e0 <.LBB61_4+0x53c>
    3ea8:	00b50533          	add	a0,a0,a1
    3eac:	410705bb          	subw	a1,a4,a6
    3eb0:	40b5053b          	subw	a0,a0,a1
    3eb4:	400005b7          	lui	a1,0x40000
    3eb8:	00001637          	lui	a2,0x1
    3ebc:	40c40633          	sub	a2,s0,a2
    3ec0:	06a63423          	sd	a0,104(a2) # 1068 <.LBB61_3+0xe40>
    3ec4:	f9043603          	ld	a2,-112(s0)
    3ec8:	00055463          	bgez	a0,3ed0 <.LBB61_92>
    3ecc:	c00005b7          	lui	a1,0xc0000

0000000000003ed0 <.LBB61_92>:
    3ed0:	f8c43823          	sd	a2,-112(s0)
    3ed4:	00001537          	lui	a0,0x1
    3ed8:	40a40533          	sub	a0,s0,a0
    3edc:	06b53023          	sd	a1,96(a0) # 1060 <.LBB61_3+0xe38>
    3ee0:	ec043503          	ld	a0,-320(s0)
    3ee4:	000015b7          	lui	a1,0x1
    3ee8:	40b405b3          	sub	a1,s0,a1
    3eec:	7e85b583          	ld	a1,2024(a1) # 17e8 <.LBB61_5+0xa8>
    3ef0:	00a58533          	add	a0,a1,a0
    3ef4:	000015b7          	lui	a1,0x1
    3ef8:	40b405b3          	sub	a1,s0,a1
    3efc:	6e85b583          	ld	a1,1768(a1) # 16e8 <.LBB61_4+0x544>
    3f00:	00b50533          	add	a0,a0,a1
    3f04:	410705bb          	subw	a1,a4,a6
    3f08:	40b5053b          	subw	a0,a0,a1
    3f0c:	400005b7          	lui	a1,0x40000
    3f10:	00001637          	lui	a2,0x1
    3f14:	40c40633          	sub	a2,s0,a2
    3f18:	06a63c23          	sd	a0,120(a2) # 1078 <.LBB61_3+0xe50>
    3f1c:	f9043603          	ld	a2,-112(s0)
    3f20:	00055463          	bgez	a0,3f28 <.LBB61_94>
    3f24:	c00005b7          	lui	a1,0xc0000

0000000000003f28 <.LBB61_94>:
    3f28:	f8c43823          	sd	a2,-112(s0)
    3f2c:	00001537          	lui	a0,0x1
    3f30:	40a40533          	sub	a0,s0,a0
    3f34:	06b53823          	sd	a1,112(a0) # 1070 <.LBB61_3+0xe48>
    3f38:	ec843503          	ld	a0,-312(s0)
    3f3c:	000015b7          	lui	a1,0x1
    3f40:	40b405b3          	sub	a1,s0,a1
    3f44:	7f05b583          	ld	a1,2032(a1) # 17f0 <.LBB61_5+0xb0>
    3f48:	00a58533          	add	a0,a1,a0
    3f4c:	01b50533          	add	a0,a0,s11
    3f50:	410705bb          	subw	a1,a4,a6
    3f54:	40b5053b          	subw	a0,a0,a1
    3f58:	400005b7          	lui	a1,0x40000
    3f5c:	00001637          	lui	a2,0x1
    3f60:	40c40633          	sub	a2,s0,a2
    3f64:	08a63423          	sd	a0,136(a2) # 1088 <.LBB61_3+0xe60>
    3f68:	f9043603          	ld	a2,-112(s0)
    3f6c:	00055463          	bgez	a0,3f74 <.LBB61_96>
    3f70:	c00005b7          	lui	a1,0xc0000

0000000000003f74 <.LBB61_96>:
    3f74:	f8c43823          	sd	a2,-112(s0)
    3f78:	00001537          	lui	a0,0x1
    3f7c:	40a40533          	sub	a0,s0,a0
    3f80:	08b53023          	sd	a1,128(a0) # 1080 <.LBB61_3+0xe58>
    3f84:	ed043503          	ld	a0,-304(s0)
    3f88:	000015b7          	lui	a1,0x1
    3f8c:	40b405b3          	sub	a1,s0,a1
    3f90:	7f85b583          	ld	a1,2040(a1) # 17f8 <.LBB61_5+0xb8>
    3f94:	00a58533          	add	a0,a1,a0
    3f98:	01a50533          	add	a0,a0,s10
    3f9c:	410705bb          	subw	a1,a4,a6
    3fa0:	40b5053b          	subw	a0,a0,a1
    3fa4:	400005b7          	lui	a1,0x40000
    3fa8:	00001637          	lui	a2,0x1
    3fac:	40c40633          	sub	a2,s0,a2
    3fb0:	08a63c23          	sd	a0,152(a2) # 1098 <.LBB61_3+0xe70>
    3fb4:	f9043603          	ld	a2,-112(s0)
    3fb8:	00055463          	bgez	a0,3fc0 <.LBB61_98>
    3fbc:	c00005b7          	lui	a1,0xc0000

0000000000003fc0 <.LBB61_98>:
    3fc0:	f8c43823          	sd	a2,-112(s0)
    3fc4:	00001537          	lui	a0,0x1
    3fc8:	40a40533          	sub	a0,s0,a0
    3fcc:	08b53823          	sd	a1,144(a0) # 1090 <.LBB61_3+0xe68>
    3fd0:	ed843503          	ld	a0,-296(s0)
    3fd4:	80043583          	ld	a1,-2048(s0)
    3fd8:	00a58533          	add	a0,a1,a0
    3fdc:	01250533          	add	a0,a0,s2
    3fe0:	410705bb          	subw	a1,a4,a6
    3fe4:	40b5053b          	subw	a0,a0,a1
    3fe8:	400005b7          	lui	a1,0x40000
    3fec:	00001637          	lui	a2,0x1
    3ff0:	40c40633          	sub	a2,s0,a2
    3ff4:	0aa63423          	sd	a0,168(a2) # 10a8 <.LBB61_3+0xe80>
    3ff8:	f9043603          	ld	a2,-112(s0)
    3ffc:	00055463          	bgez	a0,4004 <.LBB61_100>
    4000:	c00005b7          	lui	a1,0xc0000

0000000000004004 <.LBB61_100>:
    4004:	f8c43823          	sd	a2,-112(s0)
    4008:	00001537          	lui	a0,0x1
    400c:	40a40533          	sub	a0,s0,a0
    4010:	0ab53023          	sd	a1,160(a0) # 10a0 <.LBB61_3+0xe78>
    4014:	ee043503          	ld	a0,-288(s0)
    4018:	80843583          	ld	a1,-2040(s0)
    401c:	00a58533          	add	a0,a1,a0
    4020:	01950533          	add	a0,a0,s9
    4024:	410705bb          	subw	a1,a4,a6
    4028:	40b5053b          	subw	a0,a0,a1
    402c:	400005b7          	lui	a1,0x40000
    4030:	00001637          	lui	a2,0x1
    4034:	40c40633          	sub	a2,s0,a2
    4038:	0aa63c23          	sd	a0,184(a2) # 10b8 <.LBB61_3+0xe90>
    403c:	f9043603          	ld	a2,-112(s0)
    4040:	00055463          	bgez	a0,4048 <.LBB61_102>
    4044:	c00005b7          	lui	a1,0xc0000

0000000000004048 <.LBB61_102>:
    4048:	f8c43823          	sd	a2,-112(s0)
    404c:	00001537          	lui	a0,0x1
    4050:	40a40533          	sub	a0,s0,a0
    4054:	0ab53823          	sd	a1,176(a0) # 10b0 <.LBB61_3+0xe88>
    4058:	ee843503          	ld	a0,-280(s0)
    405c:	81043583          	ld	a1,-2032(s0)
    4060:	00a58533          	add	a0,a1,a0
    4064:	000015b7          	lui	a1,0x1
    4068:	40b405b3          	sub	a1,s0,a1
    406c:	7105b583          	ld	a1,1808(a1) # 1710 <.LBB61_4+0x56c>
    4070:	00b50533          	add	a0,a0,a1
    4074:	410705bb          	subw	a1,a4,a6
    4078:	40b5053b          	subw	a0,a0,a1
    407c:	400005b7          	lui	a1,0x40000
    4080:	00001637          	lui	a2,0x1
    4084:	40c40633          	sub	a2,s0,a2
    4088:	0ca63423          	sd	a0,200(a2) # 10c8 <.LBB61_3+0xea0>
    408c:	f9043603          	ld	a2,-112(s0)
    4090:	00055463          	bgez	a0,4098 <.LBB61_104>
    4094:	c00005b7          	lui	a1,0xc0000

0000000000004098 <.LBB61_104>:
    4098:	f8c43823          	sd	a2,-112(s0)
    409c:	00001537          	lui	a0,0x1
    40a0:	40a40533          	sub	a0,s0,a0
    40a4:	0cb53023          	sd	a1,192(a0) # 10c0 <.LBB61_3+0xe98>
    40a8:	ef043503          	ld	a0,-272(s0)
    40ac:	81843583          	ld	a1,-2024(s0)
    40b0:	00a58533          	add	a0,a1,a0
    40b4:	01650533          	add	a0,a0,s6
    40b8:	410705bb          	subw	a1,a4,a6
    40bc:	40b5053b          	subw	a0,a0,a1
    40c0:	400005b7          	lui	a1,0x40000
    40c4:	00001637          	lui	a2,0x1
    40c8:	40c40633          	sub	a2,s0,a2
    40cc:	0ca63c23          	sd	a0,216(a2) # 10d8 <.LBB61_3+0xeb0>
    40d0:	f9043603          	ld	a2,-112(s0)
    40d4:	00055463          	bgez	a0,40dc <.LBB61_106>
    40d8:	c00005b7          	lui	a1,0xc0000

00000000000040dc <.LBB61_106>:
    40dc:	f8c43823          	sd	a2,-112(s0)
    40e0:	00001537          	lui	a0,0x1
    40e4:	40a40533          	sub	a0,s0,a0
    40e8:	0cb53823          	sd	a1,208(a0) # 10d0 <.LBB61_3+0xea8>
    40ec:	ef843503          	ld	a0,-264(s0)
    40f0:	82043583          	ld	a1,-2016(s0)
    40f4:	00a58533          	add	a0,a1,a0
    40f8:	01550533          	add	a0,a0,s5
    40fc:	410705bb          	subw	a1,a4,a6
    4100:	40b5053b          	subw	a0,a0,a1
    4104:	400005b7          	lui	a1,0x40000
    4108:	00001637          	lui	a2,0x1
    410c:	40c40633          	sub	a2,s0,a2
    4110:	0ea63423          	sd	a0,232(a2) # 10e8 <.LBB61_3+0xec0>
    4114:	f9043603          	ld	a2,-112(s0)
    4118:	00055463          	bgez	a0,4120 <.LBB61_108>
    411c:	c00005b7          	lui	a1,0xc0000

0000000000004120 <.LBB61_108>:
    4120:	f8c43823          	sd	a2,-112(s0)
    4124:	00001537          	lui	a0,0x1
    4128:	40a40533          	sub	a0,s0,a0
    412c:	0eb53023          	sd	a1,224(a0) # 10e0 <.LBB61_3+0xeb8>
    4130:	f0043503          	ld	a0,-256(s0)
    4134:	82843583          	ld	a1,-2008(s0)
    4138:	00a58533          	add	a0,a1,a0
    413c:	01450533          	add	a0,a0,s4
    4140:	410705bb          	subw	a1,a4,a6
    4144:	40b5053b          	subw	a0,a0,a1
    4148:	400005b7          	lui	a1,0x40000
    414c:	00001637          	lui	a2,0x1
    4150:	40c40633          	sub	a2,s0,a2
    4154:	7ea63023          	sd	a0,2016(a2) # 17e0 <.LBB61_5+0xa0>
    4158:	f9043603          	ld	a2,-112(s0)
    415c:	00055463          	bgez	a0,4164 <.LBB61_110>
    4160:	c00005b7          	lui	a1,0xc0000

0000000000004164 <.LBB61_110>:
    4164:	f8c43823          	sd	a2,-112(s0)
    4168:	00001537          	lui	a0,0x1
    416c:	40a40533          	sub	a0,s0,a0
    4170:	0eb53823          	sd	a1,240(a0) # 10f0 <.LBB61_3+0xec8>
    4174:	f0843503          	ld	a0,-248(s0)
    4178:	83043583          	ld	a1,-2000(s0)
    417c:	00a58533          	add	a0,a1,a0
    4180:	01350533          	add	a0,a0,s3
    4184:	410705bb          	subw	a1,a4,a6
    4188:	40b5053b          	subw	a0,a0,a1
    418c:	400005b7          	lui	a1,0x40000
    4190:	00001637          	lui	a2,0x1
    4194:	40c40633          	sub	a2,s0,a2
    4198:	7aa63023          	sd	a0,1952(a2) # 17a0 <.LBB61_5+0x60>
    419c:	f9043603          	ld	a2,-112(s0)
    41a0:	00055463          	bgez	a0,41a8 <.LBB61_112>
    41a4:	c00005b7          	lui	a1,0xc0000

00000000000041a8 <.LBB61_112>:
    41a8:	f8c43823          	sd	a2,-112(s0)
    41ac:	00001537          	lui	a0,0x1
    41b0:	40a40533          	sub	a0,s0,a0
    41b4:	0eb53c23          	sd	a1,248(a0) # 10f8 <.LBB61_3+0xed0>
    41b8:	f1043503          	ld	a0,-240(s0)
    41bc:	83843583          	ld	a1,-1992(s0)
    41c0:	00a58533          	add	a0,a1,a0
    41c4:	000015b7          	lui	a1,0x1
    41c8:	40b405b3          	sub	a1,s0,a1
    41cc:	7385b583          	ld	a1,1848(a1) # 1738 <.LBB61_4+0x594>
    41d0:	00b50533          	add	a0,a0,a1
    41d4:	410705bb          	subw	a1,a4,a6
    41d8:	40b5053b          	subw	a0,a0,a1
    41dc:	400005b7          	lui	a1,0x40000
    41e0:	00001637          	lui	a2,0x1
    41e4:	40c40633          	sub	a2,s0,a2
    41e8:	76a63023          	sd	a0,1888(a2) # 1760 <.LBB61_5+0x20>
    41ec:	f9043603          	ld	a2,-112(s0)
    41f0:	00055463          	bgez	a0,41f8 <.LBB61_114>
    41f4:	c00005b7          	lui	a1,0xc0000

00000000000041f8 <.LBB61_114>:
    41f8:	f8c43823          	sd	a2,-112(s0)
    41fc:	00001537          	lui	a0,0x1
    4200:	40a40533          	sub	a0,s0,a0
    4204:	10b53023          	sd	a1,256(a0) # 1100 <.LBB61_3+0xed8>
    4208:	f1843503          	ld	a0,-232(s0)
    420c:	84043583          	ld	a1,-1984(s0)
    4210:	00a58533          	add	a0,a1,a0
    4214:	000015b7          	lui	a1,0x1
    4218:	40b405b3          	sub	a1,s0,a1
    421c:	7405b583          	ld	a1,1856(a1) # 1740 <.LBB61_5>
    4220:	00b50533          	add	a0,a0,a1
    4224:	410705bb          	subw	a1,a4,a6
    4228:	40b5053b          	subw	a0,a0,a1
    422c:	400005b7          	lui	a1,0x40000
    4230:	00001637          	lui	a2,0x1
    4234:	40c40633          	sub	a2,s0,a2
    4238:	10a63823          	sd	a0,272(a2) # 1110 <.LBB61_3+0xee8>
    423c:	f9043603          	ld	a2,-112(s0)
    4240:	00055463          	bgez	a0,4248 <.LBB61_116>
    4244:	c00005b7          	lui	a1,0xc0000

0000000000004248 <.LBB61_116>:
    4248:	f8c43823          	sd	a2,-112(s0)
    424c:	00001537          	lui	a0,0x1
    4250:	40a40533          	sub	a0,s0,a0
    4254:	10b53423          	sd	a1,264(a0) # 1108 <.LBB61_3+0xee0>
    4258:	f4843503          	ld	a0,-184(s0)
    425c:	84843583          	ld	a1,-1976(s0)
    4260:	00a58533          	add	a0,a1,a0
    4264:	000015b7          	lui	a1,0x1
    4268:	40b405b3          	sub	a1,s0,a1
    426c:	7485b583          	ld	a1,1864(a1) # 1748 <.LBB61_5+0x8>
    4270:	00b50533          	add	a0,a0,a1
    4274:	410705bb          	subw	a1,a4,a6
    4278:	40b5053b          	subw	a0,a0,a1
    427c:	400005b7          	lui	a1,0x40000
    4280:	00001637          	lui	a2,0x1
    4284:	40c40633          	sub	a2,s0,a2
    4288:	12a63023          	sd	a0,288(a2) # 1120 <.LBB61_3+0xef8>
    428c:	f9043603          	ld	a2,-112(s0)
    4290:	00055463          	bgez	a0,4298 <.LBB61_118>
    4294:	c00005b7          	lui	a1,0xc0000

0000000000004298 <.LBB61_118>:
    4298:	f8c43823          	sd	a2,-112(s0)
    429c:	00001537          	lui	a0,0x1
    42a0:	40a40533          	sub	a0,s0,a0
    42a4:	10b53c23          	sd	a1,280(a0) # 1118 <.LBB61_3+0xef0>
    42a8:	f5043503          	ld	a0,-176(s0)
    42ac:	85043583          	ld	a1,-1968(s0)
    42b0:	00a58533          	add	a0,a1,a0
    42b4:	01e50533          	add	a0,a0,t5
    42b8:	410705bb          	subw	a1,a4,a6
    42bc:	40b5053b          	subw	a0,a0,a1
    42c0:	400005b7          	lui	a1,0x40000
    42c4:	00001637          	lui	a2,0x1
    42c8:	40c40633          	sub	a2,s0,a2
    42cc:	12a63823          	sd	a0,304(a2) # 1130 <.LBB61_3+0xf08>
    42d0:	f9043603          	ld	a2,-112(s0)
    42d4:	00055463          	bgez	a0,42dc <.LBB61_120>
    42d8:	c00005b7          	lui	a1,0xc0000

00000000000042dc <.LBB61_120>:
    42dc:	f8c43823          	sd	a2,-112(s0)
    42e0:	00001537          	lui	a0,0x1
    42e4:	40a40533          	sub	a0,s0,a0
    42e8:	12b53423          	sd	a1,296(a0) # 1128 <.LBB61_3+0xf00>
    42ec:	f5843503          	ld	a0,-168(s0)
    42f0:	85843583          	ld	a1,-1960(s0)
    42f4:	00a58533          	add	a0,a1,a0
    42f8:	01d50533          	add	a0,a0,t4
    42fc:	410705bb          	subw	a1,a4,a6
    4300:	40b5053b          	subw	a0,a0,a1
    4304:	400005b7          	lui	a1,0x40000
    4308:	00001637          	lui	a2,0x1
    430c:	40c40633          	sub	a2,s0,a2
    4310:	14a63023          	sd	a0,320(a2) # 1140 <.LBB61_3+0xf18>
    4314:	f9043603          	ld	a2,-112(s0)
    4318:	00055463          	bgez	a0,4320 <.LBB61_122>
    431c:	c00005b7          	lui	a1,0xc0000

0000000000004320 <.LBB61_122>:
    4320:	f8c43823          	sd	a2,-112(s0)
    4324:	00001537          	lui	a0,0x1
    4328:	40a40533          	sub	a0,s0,a0
    432c:	12b53c23          	sd	a1,312(a0) # 1138 <.LBB61_3+0xf10>
    4330:	f6043503          	ld	a0,-160(s0)
    4334:	86043583          	ld	a1,-1952(s0)
    4338:	00a58533          	add	a0,a1,a0
    433c:	01c50533          	add	a0,a0,t3
    4340:	410705bb          	subw	a1,a4,a6
    4344:	40b5053b          	subw	a0,a0,a1
    4348:	400005b7          	lui	a1,0x40000
    434c:	00001637          	lui	a2,0x1
    4350:	40c40633          	sub	a2,s0,a2
    4354:	14a63823          	sd	a0,336(a2) # 1150 <.LBB61_3+0xf28>
    4358:	f9043603          	ld	a2,-112(s0)
    435c:	00055463          	bgez	a0,4364 <.LBB61_124>
    4360:	c00005b7          	lui	a1,0xc0000

0000000000004364 <.LBB61_124>:
    4364:	f8c43823          	sd	a2,-112(s0)
    4368:	00001537          	lui	a0,0x1
    436c:	40a40533          	sub	a0,s0,a0
    4370:	14b53423          	sd	a1,328(a0) # 1148 <.LBB61_3+0xf20>
    4374:	f6843503          	ld	a0,-152(s0)
    4378:	86843583          	ld	a1,-1944(s0)
    437c:	00a58533          	add	a0,a1,a0
    4380:	00950533          	add	a0,a0,s1
    4384:	410705bb          	subw	a1,a4,a6
    4388:	40b5053b          	subw	a0,a0,a1
    438c:	400005b7          	lui	a1,0x40000
    4390:	00001637          	lui	a2,0x1
    4394:	40c40633          	sub	a2,s0,a2
    4398:	16a63023          	sd	a0,352(a2) # 1160 <.LBB61_3+0xf38>
    439c:	f9043603          	ld	a2,-112(s0)
    43a0:	00055463          	bgez	a0,43a8 <.LBB61_126>
    43a4:	c00005b7          	lui	a1,0xc0000

00000000000043a8 <.LBB61_126>:
    43a8:	f8c43823          	sd	a2,-112(s0)
    43ac:	00001537          	lui	a0,0x1
    43b0:	40a40533          	sub	a0,s0,a0
    43b4:	14b53c23          	sd	a1,344(a0) # 1158 <.LBB61_3+0xf30>
    43b8:	f7043503          	ld	a0,-144(s0)
    43bc:	87043583          	ld	a1,-1936(s0)
    43c0:	00a58533          	add	a0,a1,a0
    43c4:	00650533          	add	a0,a0,t1
    43c8:	410705bb          	subw	a1,a4,a6
    43cc:	40b5053b          	subw	a0,a0,a1
    43d0:	400005b7          	lui	a1,0x40000
    43d4:	00001637          	lui	a2,0x1
    43d8:	40c40633          	sub	a2,s0,a2
    43dc:	16a63823          	sd	a0,368(a2) # 1170 <.LBB61_3+0xf48>
    43e0:	f9043603          	ld	a2,-112(s0)
    43e4:	00055463          	bgez	a0,43ec <.LBB61_128>
    43e8:	c00005b7          	lui	a1,0xc0000

00000000000043ec <.LBB61_128>:
    43ec:	f8c43823          	sd	a2,-112(s0)
    43f0:	00001537          	lui	a0,0x1
    43f4:	40a40533          	sub	a0,s0,a0
    43f8:	16b53423          	sd	a1,360(a0) # 1168 <.LBB61_3+0xf40>
    43fc:	f7843503          	ld	a0,-136(s0)
    4400:	87843583          	ld	a1,-1928(s0)
    4404:	00a58533          	add	a0,a1,a0
    4408:	00550533          	add	a0,a0,t0
    440c:	410705bb          	subw	a1,a4,a6
    4410:	40b5053b          	subw	a0,a0,a1
    4414:	400005b7          	lui	a1,0x40000
    4418:	00001637          	lui	a2,0x1
    441c:	40c40633          	sub	a2,s0,a2
    4420:	18a63023          	sd	a0,384(a2) # 1180 <.LBB61_3+0xf58>
    4424:	f9043603          	ld	a2,-112(s0)
    4428:	00055463          	bgez	a0,4430 <.LBB61_130>
    442c:	c00005b7          	lui	a1,0xc0000

0000000000004430 <.LBB61_130>:
    4430:	00001537          	lui	a0,0x1
    4434:	40a40533          	sub	a0,s0,a0
    4438:	16b53c23          	sd	a1,376(a0) # 1178 <.LBB61_3+0xf50>
    443c:	f8043503          	ld	a0,-128(s0)
    4440:	00a38533          	add	a0,t2,a0
    4444:	00f50533          	add	a0,a0,a5
    4448:	410705bb          	subw	a1,a4,a6
    444c:	40b5053b          	subw	a0,a0,a1
    4450:	400005b7          	lui	a1,0x40000
    4454:	000013b7          	lui	t2,0x1
    4458:	407403b3          	sub	t2,s0,t2
    445c:	18a3b823          	sd	a0,400(t2) # 1190 <.LBB61_3+0xf68>
    4460:	00055463          	bgez	a0,4468 <.LBB61_132>
    4464:	c00005b7          	lui	a1,0xc0000

0000000000004468 <.LBB61_132>:
    4468:	00001537          	lui	a0,0x1
    446c:	40a40533          	sub	a0,s0,a0
    4470:	18b53423          	sd	a1,392(a0) # 1188 <.LBB61_3+0xf60>
    4474:	f8843503          	ld	a0,-120(s0)
    4478:	88843583          	ld	a1,-1912(s0)
    447c:	00a58533          	add	a0,a1,a0
    4480:	01f50533          	add	a0,a0,t6
    4484:	410705bb          	subw	a1,a4,a6
    4488:	40b5053b          	subw	a0,a0,a1
    448c:	400005b7          	lui	a1,0x40000
    4490:	00001737          	lui	a4,0x1
    4494:	40e40733          	sub	a4,s0,a4
    4498:	1aa73023          	sd	a0,416(a4) # 11a0 <.LBB61_3+0xf78>
    449c:	00055463          	bgez	a0,44a4 <.LBB61_134>
    44a0:	c00005b7          	lui	a1,0xc0000

00000000000044a4 <.LBB61_134>:
    44a4:	00001537          	lui	a0,0x1
    44a8:	40a40533          	sub	a0,s0,a0
    44ac:	18b53c23          	sd	a1,408(a0) # 1198 <.LBB61_3+0xf70>
    44b0:	eb043503          	ld	a0,-336(s0)
    44b4:	00a68533          	add	a0,a3,a0
    44b8:	000015b7          	lui	a1,0x1
    44bc:	40b405b3          	sub	a1,s0,a1
    44c0:	6785b583          	ld	a1,1656(a1) # 1678 <.LBB61_4+0x4d4>
    44c4:	021586b3          	mul	a3,a1,ra
    44c8:	ea843583          	ld	a1,-344(s0)
    44cc:	00b50533          	add	a0,a0,a1
    44d0:	410685bb          	subw	a1,a3,a6
    44d4:	40b5053b          	subw	a0,a0,a1
    44d8:	400005b7          	lui	a1,0x40000
    44dc:	e5843703          	ld	a4,-424(s0)
    44e0:	000013b7          	lui	t2,0x1
    44e4:	407403b3          	sub	t2,s0,t2
    44e8:	1aa3b823          	sd	a0,432(t2) # 11b0 <.LBB61_4+0xc>
    44ec:	00055463          	bgez	a0,44f4 <.LBB61_136>
    44f0:	c00005b7          	lui	a1,0xc0000

00000000000044f4 <.LBB61_136>:
    44f4:	00001537          	lui	a0,0x1
    44f8:	40a40533          	sub	a0,s0,a0
    44fc:	1ab53423          	sd	a1,424(a0) # 11a8 <.LBB61_4+0x4>
    4500:	ea043503          	ld	a0,-352(s0)
    4504:	89843583          	ld	a1,-1896(s0)
    4508:	00a58533          	add	a0,a1,a0
    450c:	e9843583          	ld	a1,-360(s0)
    4510:	00b50533          	add	a0,a0,a1
    4514:	410685bb          	subw	a1,a3,a6
    4518:	40b5053b          	subw	a0,a0,a1
    451c:	400005b7          	lui	a1,0x40000
    4520:	000013b7          	lui	t2,0x1
    4524:	407403b3          	sub	t2,s0,t2
    4528:	1ca3b023          	sd	a0,448(t2) # 11c0 <.LBB61_4+0x1c>
    452c:	00055463          	bgez	a0,4534 <.LBB61_138>
    4530:	c00005b7          	lui	a1,0xc0000

0000000000004534 <.LBB61_138>:
    4534:	00001537          	lui	a0,0x1
    4538:	40a40533          	sub	a0,s0,a0
    453c:	1ab53c23          	sd	a1,440(a0) # 11b8 <.LBB61_4+0x14>
    4540:	e9043503          	ld	a0,-368(s0)
    4544:	8a043583          	ld	a1,-1888(s0)
    4548:	00a58533          	add	a0,a1,a0
    454c:	e8843583          	ld	a1,-376(s0)
    4550:	00b50533          	add	a0,a0,a1
    4554:	410685bb          	subw	a1,a3,a6
    4558:	40b5053b          	subw	a0,a0,a1
    455c:	400005b7          	lui	a1,0x40000
    4560:	000013b7          	lui	t2,0x1
    4564:	407403b3          	sub	t2,s0,t2
    4568:	1ca3b823          	sd	a0,464(t2) # 11d0 <.LBB61_4+0x2c>
    456c:	00055463          	bgez	a0,4574 <.LBB61_140>
    4570:	c00005b7          	lui	a1,0xc0000

0000000000004574 <.LBB61_140>:
    4574:	00001537          	lui	a0,0x1
    4578:	40a40533          	sub	a0,s0,a0
    457c:	1cb53423          	sd	a1,456(a0) # 11c8 <.LBB61_4+0x24>
    4580:	e8043503          	ld	a0,-384(s0)
    4584:	8a843583          	ld	a1,-1880(s0)
    4588:	00a58533          	add	a0,a1,a0
    458c:	e7843583          	ld	a1,-392(s0)
    4590:	00b50533          	add	a0,a0,a1
    4594:	410685bb          	subw	a1,a3,a6
    4598:	40b5053b          	subw	a0,a0,a1
    459c:	400005b7          	lui	a1,0x40000
    45a0:	000013b7          	lui	t2,0x1
    45a4:	407403b3          	sub	t2,s0,t2
    45a8:	1ea3b023          	sd	a0,480(t2) # 11e0 <.LBB61_4+0x3c>
    45ac:	00055463          	bgez	a0,45b4 <.LBB61_142>
    45b0:	c00005b7          	lui	a1,0xc0000

00000000000045b4 <.LBB61_142>:
    45b4:	00001537          	lui	a0,0x1
    45b8:	40a40533          	sub	a0,s0,a0
    45bc:	1cb53c23          	sd	a1,472(a0) # 11d8 <.LBB61_4+0x34>
    45c0:	e7043503          	ld	a0,-400(s0)
    45c4:	8b043583          	ld	a1,-1872(s0)
    45c8:	00a58533          	add	a0,a1,a0
    45cc:	e6843583          	ld	a1,-408(s0)
    45d0:	00b50533          	add	a0,a0,a1
    45d4:	410685bb          	subw	a1,a3,a6
    45d8:	40b5053b          	subw	a0,a0,a1
    45dc:	400005b7          	lui	a1,0x40000
    45e0:	000013b7          	lui	t2,0x1
    45e4:	407403b3          	sub	t2,s0,t2
    45e8:	1ea3b823          	sd	a0,496(t2) # 11f0 <.LBB61_4+0x4c>
    45ec:	00055463          	bgez	a0,45f4 <.LBB61_144>
    45f0:	c00005b7          	lui	a1,0xc0000

00000000000045f4 <.LBB61_144>:
    45f4:	00001537          	lui	a0,0x1
    45f8:	40a40533          	sub	a0,s0,a0
    45fc:	1eb53423          	sd	a1,488(a0) # 11e8 <.LBB61_4+0x44>
    4600:	00001537          	lui	a0,0x1
    4604:	40a40533          	sub	a0,s0,a0
    4608:	6d053503          	ld	a0,1744(a0) # 16d0 <.LBB61_4+0x52c>
    460c:	8b843583          	ld	a1,-1864(s0)
    4610:	00a58533          	add	a0,a1,a0
    4614:	000015b7          	lui	a1,0x1
    4618:	40b405b3          	sub	a1,s0,a1
    461c:	6c85b583          	ld	a1,1736(a1) # 16c8 <.LBB61_4+0x524>
    4620:	00b50533          	add	a0,a0,a1
    4624:	410685bb          	subw	a1,a3,a6
    4628:	40b5053b          	subw	a0,a0,a1
    462c:	400005b7          	lui	a1,0x40000
    4630:	000013b7          	lui	t2,0x1
    4634:	407403b3          	sub	t2,s0,t2
    4638:	20a3b023          	sd	a0,512(t2) # 1200 <.LBB61_4+0x5c>
    463c:	00055463          	bgez	a0,4644 <.LBB61_146>
    4640:	c00005b7          	lui	a1,0xc0000

0000000000004644 <.LBB61_146>:
    4644:	00001537          	lui	a0,0x1
    4648:	40a40533          	sub	a0,s0,a0
    464c:	1eb53c23          	sd	a1,504(a0) # 11f8 <.LBB61_4+0x54>
    4650:	00001537          	lui	a0,0x1
    4654:	40a40533          	sub	a0,s0,a0
    4658:	6c053503          	ld	a0,1728(a0) # 16c0 <.LBB61_4+0x51c>
    465c:	8c043583          	ld	a1,-1856(s0)
    4660:	00a58533          	add	a0,a1,a0
    4664:	000015b7          	lui	a1,0x1
    4668:	40b405b3          	sub	a1,s0,a1
    466c:	6b85b583          	ld	a1,1720(a1) # 16b8 <.LBB61_4+0x514>
    4670:	00b50533          	add	a0,a0,a1
    4674:	410685bb          	subw	a1,a3,a6
    4678:	40b5053b          	subw	a0,a0,a1
    467c:	400005b7          	lui	a1,0x40000
    4680:	000013b7          	lui	t2,0x1
    4684:	407403b3          	sub	t2,s0,t2
    4688:	2ca3b023          	sd	a0,704(t2) # 12c0 <.LBB61_4+0x11c>
    468c:	00055463          	bgez	a0,4694 <.LBB61_148>
    4690:	c00005b7          	lui	a1,0xc0000

0000000000004694 <.LBB61_148>:
    4694:	00001537          	lui	a0,0x1
    4698:	40a40533          	sub	a0,s0,a0
    469c:	20b53423          	sd	a1,520(a0) # 1208 <.LBB61_4+0x64>
    46a0:	00001537          	lui	a0,0x1
    46a4:	40a40533          	sub	a0,s0,a0
    46a8:	6b053503          	ld	a0,1712(a0) # 16b0 <.LBB61_4+0x50c>
    46ac:	8c843583          	ld	a1,-1848(s0)
    46b0:	00a58533          	add	a0,a1,a0
    46b4:	000015b7          	lui	a1,0x1
    46b8:	40b405b3          	sub	a1,s0,a1
    46bc:	6a85b583          	ld	a1,1704(a1) # 16a8 <.LBB61_4+0x504>
    46c0:	00b50533          	add	a0,a0,a1
    46c4:	410685bb          	subw	a1,a3,a6
    46c8:	40b5053b          	subw	a0,a0,a1
    46cc:	400005b7          	lui	a1,0x40000
    46d0:	000013b7          	lui	t2,0x1
    46d4:	407403b3          	sub	t2,s0,t2
    46d8:	28a3b023          	sd	a0,640(t2) # 1280 <.LBB61_4+0xdc>
    46dc:	00055463          	bgez	a0,46e4 <.LBB61_150>
    46e0:	c00005b7          	lui	a1,0xc0000

00000000000046e4 <.LBB61_150>:
    46e4:	00001537          	lui	a0,0x1
    46e8:	40a40533          	sub	a0,s0,a0
    46ec:	20b53823          	sd	a1,528(a0) # 1210 <.LBB61_4+0x6c>
    46f0:	8d043503          	ld	a0,-1840(s0)
    46f4:	000015b7          	lui	a1,0x1
    46f8:	40b405b3          	sub	a1,s0,a1
    46fc:	6a05b583          	ld	a1,1696(a1) # 16a0 <.LBB61_4+0x4fc>
    4700:	00b50533          	add	a0,a0,a1
    4704:	000015b7          	lui	a1,0x1
    4708:	40b405b3          	sub	a1,s0,a1
    470c:	6985b583          	ld	a1,1688(a1) # 1698 <.LBB61_4+0x4f4>
    4710:	00b50533          	add	a0,a0,a1
    4714:	410685bb          	subw	a1,a3,a6
    4718:	40b5053b          	subw	a0,a0,a1
    471c:	400005b7          	lui	a1,0x40000
    4720:	000013b7          	lui	t2,0x1
    4724:	407403b3          	sub	t2,s0,t2
    4728:	24a3b023          	sd	a0,576(t2) # 1240 <.LBB61_4+0x9c>
    472c:	00055463          	bgez	a0,4734 <.LBB61_152>
    4730:	c00005b7          	lui	a1,0xc0000

0000000000004734 <.LBB61_152>:
    4734:	00001537          	lui	a0,0x1
    4738:	40a40533          	sub	a0,s0,a0
    473c:	20b53c23          	sd	a1,536(a0) # 1218 <.LBB61_4+0x74>
    4740:	8d843503          	ld	a0,-1832(s0)
    4744:	000015b7          	lui	a1,0x1
    4748:	40b405b3          	sub	a1,s0,a1
    474c:	6905b583          	ld	a1,1680(a1) # 1690 <.LBB61_4+0x4ec>
    4750:	00b50533          	add	a0,a0,a1
    4754:	000015b7          	lui	a1,0x1
    4758:	40b405b3          	sub	a1,s0,a1
    475c:	6d85b583          	ld	a1,1752(a1) # 16d8 <.LBB61_4+0x534>
    4760:	00b50533          	add	a0,a0,a1
    4764:	410685bb          	subw	a1,a3,a6
    4768:	40b5053b          	subw	a0,a0,a1
    476c:	400005b7          	lui	a1,0x40000
    4770:	000013b7          	lui	t2,0x1
    4774:	407403b3          	sub	t2,s0,t2
    4778:	22a3b423          	sd	a0,552(t2) # 1228 <.LBB61_4+0x84>
    477c:	00055463          	bgez	a0,4784 <.LBB61_154>
    4780:	c00005b7          	lui	a1,0xc0000

0000000000004784 <.LBB61_154>:
    4784:	00001537          	lui	a0,0x1
    4788:	40a40533          	sub	a0,s0,a0
    478c:	22b53023          	sd	a1,544(a0) # 1220 <.LBB61_4+0x7c>
    4790:	8e043503          	ld	a0,-1824(s0)
    4794:	eb843583          	ld	a1,-328(s0)
    4798:	00b50533          	add	a0,a0,a1
    479c:	000015b7          	lui	a1,0x1
    47a0:	40b405b3          	sub	a1,s0,a1
    47a4:	6e05b583          	ld	a1,1760(a1) # 16e0 <.LBB61_4+0x53c>
    47a8:	00b50533          	add	a0,a0,a1
    47ac:	410685bb          	subw	a1,a3,a6
    47b0:	40b5053b          	subw	a0,a0,a1
    47b4:	400005b7          	lui	a1,0x40000
    47b8:	000013b7          	lui	t2,0x1
    47bc:	407403b3          	sub	t2,s0,t2
    47c0:	22a3bc23          	sd	a0,568(t2) # 1238 <.LBB61_4+0x94>
    47c4:	00055463          	bgez	a0,47cc <.LBB61_156>
    47c8:	c00005b7          	lui	a1,0xc0000

00000000000047cc <.LBB61_156>:
    47cc:	00001537          	lui	a0,0x1
    47d0:	40a40533          	sub	a0,s0,a0
    47d4:	22b53823          	sd	a1,560(a0) # 1230 <.LBB61_4+0x8c>
    47d8:	8e843503          	ld	a0,-1816(s0)
    47dc:	ec043583          	ld	a1,-320(s0)
    47e0:	00b50533          	add	a0,a0,a1
    47e4:	000015b7          	lui	a1,0x1
    47e8:	40b405b3          	sub	a1,s0,a1
    47ec:	6e85b583          	ld	a1,1768(a1) # 16e8 <.LBB61_4+0x544>
    47f0:	00b50533          	add	a0,a0,a1
    47f4:	410685bb          	subw	a1,a3,a6
    47f8:	40b5053b          	subw	a0,a0,a1
    47fc:	400005b7          	lui	a1,0x40000
    4800:	000013b7          	lui	t2,0x1
    4804:	407403b3          	sub	t2,s0,t2
    4808:	24a3b823          	sd	a0,592(t2) # 1250 <.LBB61_4+0xac>
    480c:	00055463          	bgez	a0,4814 <.LBB61_158>
    4810:	c00005b7          	lui	a1,0xc0000

0000000000004814 <.LBB61_158>:
    4814:	00001537          	lui	a0,0x1
    4818:	40a40533          	sub	a0,s0,a0
    481c:	24b53423          	sd	a1,584(a0) # 1248 <.LBB61_4+0xa4>
    4820:	8f043503          	ld	a0,-1808(s0)
    4824:	ec843583          	ld	a1,-312(s0)
    4828:	00b50533          	add	a0,a0,a1
    482c:	01b50533          	add	a0,a0,s11
    4830:	410685bb          	subw	a1,a3,a6
    4834:	40b5053b          	subw	a0,a0,a1
    4838:	400005b7          	lui	a1,0x40000
    483c:	000013b7          	lui	t2,0x1
    4840:	407403b3          	sub	t2,s0,t2
    4844:	26a3b023          	sd	a0,608(t2) # 1260 <.LBB61_4+0xbc>
    4848:	00055463          	bgez	a0,4850 <.LBB61_160>
    484c:	c00005b7          	lui	a1,0xc0000

0000000000004850 <.LBB61_160>:
    4850:	00001537          	lui	a0,0x1
    4854:	40a40533          	sub	a0,s0,a0
    4858:	24b53c23          	sd	a1,600(a0) # 1258 <.LBB61_4+0xb4>
    485c:	8f843503          	ld	a0,-1800(s0)
    4860:	ed043583          	ld	a1,-304(s0)
    4864:	00b50533          	add	a0,a0,a1
    4868:	01a50533          	add	a0,a0,s10
    486c:	410685bb          	subw	a1,a3,a6
    4870:	40b5053b          	subw	a0,a0,a1
    4874:	400005b7          	lui	a1,0x40000
    4878:	000013b7          	lui	t2,0x1
    487c:	407403b3          	sub	t2,s0,t2
    4880:	26a3b823          	sd	a0,624(t2) # 1270 <.LBB61_4+0xcc>
    4884:	00055463          	bgez	a0,488c <.LBB61_162>
    4888:	c00005b7          	lui	a1,0xc0000

000000000000488c <.LBB61_162>:
    488c:	00001537          	lui	a0,0x1
    4890:	40a40533          	sub	a0,s0,a0
    4894:	26b53423          	sd	a1,616(a0) # 1268 <.LBB61_4+0xc4>
    4898:	90043503          	ld	a0,-1792(s0)
    489c:	ed843583          	ld	a1,-296(s0)
    48a0:	00b50533          	add	a0,a0,a1
    48a4:	01250533          	add	a0,a0,s2
    48a8:	410685bb          	subw	a1,a3,a6
    48ac:	40b5053b          	subw	a0,a0,a1
    48b0:	400005b7          	lui	a1,0x40000
    48b4:	000013b7          	lui	t2,0x1
    48b8:	407403b3          	sub	t2,s0,t2
    48bc:	28a3b423          	sd	a0,648(t2) # 1288 <.LBB61_4+0xe4>
    48c0:	00055463          	bgez	a0,48c8 <.LBB61_164>
    48c4:	c00005b7          	lui	a1,0xc0000

00000000000048c8 <.LBB61_164>:
    48c8:	00001537          	lui	a0,0x1
    48cc:	40a40533          	sub	a0,s0,a0
    48d0:	26b53c23          	sd	a1,632(a0) # 1278 <.LBB61_4+0xd4>
    48d4:	90843503          	ld	a0,-1784(s0)
    48d8:	ee043583          	ld	a1,-288(s0)
    48dc:	00b50533          	add	a0,a0,a1
    48e0:	01950533          	add	a0,a0,s9
    48e4:	410685bb          	subw	a1,a3,a6
    48e8:	40b5053b          	subw	a0,a0,a1
    48ec:	400005b7          	lui	a1,0x40000
    48f0:	000013b7          	lui	t2,0x1
    48f4:	407403b3          	sub	t2,s0,t2
    48f8:	28a3bc23          	sd	a0,664(t2) # 1298 <.LBB61_4+0xf4>
    48fc:	00055463          	bgez	a0,4904 <.LBB61_166>
    4900:	c00005b7          	lui	a1,0xc0000

0000000000004904 <.LBB61_166>:
    4904:	00001537          	lui	a0,0x1
    4908:	40a40533          	sub	a0,s0,a0
    490c:	28b53823          	sd	a1,656(a0) # 1290 <.LBB61_4+0xec>
    4910:	91043503          	ld	a0,-1776(s0)
    4914:	ee843583          	ld	a1,-280(s0)
    4918:	00b50533          	add	a0,a0,a1
    491c:	000015b7          	lui	a1,0x1
    4920:	40b405b3          	sub	a1,s0,a1
    4924:	7105b583          	ld	a1,1808(a1) # 1710 <.LBB61_4+0x56c>
    4928:	00b50533          	add	a0,a0,a1
    492c:	410685bb          	subw	a1,a3,a6
    4930:	40b5053b          	subw	a0,a0,a1
    4934:	400005b7          	lui	a1,0x40000
    4938:	000013b7          	lui	t2,0x1
    493c:	407403b3          	sub	t2,s0,t2
    4940:	2aa3b423          	sd	a0,680(t2) # 12a8 <.LBB61_4+0x104>
    4944:	00055463          	bgez	a0,494c <.LBB61_168>
    4948:	c00005b7          	lui	a1,0xc0000

000000000000494c <.LBB61_168>:
    494c:	00001537          	lui	a0,0x1
    4950:	40a40533          	sub	a0,s0,a0
    4954:	2ab53023          	sd	a1,672(a0) # 12a0 <.LBB61_4+0xfc>
    4958:	91843503          	ld	a0,-1768(s0)
    495c:	ef043583          	ld	a1,-272(s0)
    4960:	00b50533          	add	a0,a0,a1
    4964:	01650533          	add	a0,a0,s6
    4968:	410685bb          	subw	a1,a3,a6
    496c:	40b5053b          	subw	a0,a0,a1
    4970:	400005b7          	lui	a1,0x40000
    4974:	000013b7          	lui	t2,0x1
    4978:	407403b3          	sub	t2,s0,t2
    497c:	2aa3bc23          	sd	a0,696(t2) # 12b8 <.LBB61_4+0x114>
    4980:	00055463          	bgez	a0,4988 <.LBB61_170>
    4984:	c00005b7          	lui	a1,0xc0000

0000000000004988 <.LBB61_170>:
    4988:	00001537          	lui	a0,0x1
    498c:	40a40533          	sub	a0,s0,a0
    4990:	2ab53823          	sd	a1,688(a0) # 12b0 <.LBB61_4+0x10c>
    4994:	92043503          	ld	a0,-1760(s0)
    4998:	ef843583          	ld	a1,-264(s0)
    499c:	00b50533          	add	a0,a0,a1
    49a0:	01550533          	add	a0,a0,s5
    49a4:	410685bb          	subw	a1,a3,a6
    49a8:	40b5053b          	subw	a0,a0,a1
    49ac:	400005b7          	lui	a1,0x40000
    49b0:	000013b7          	lui	t2,0x1
    49b4:	407403b3          	sub	t2,s0,t2
    49b8:	2ca3b823          	sd	a0,720(t2) # 12d0 <.LBB61_4+0x12c>
    49bc:	00055463          	bgez	a0,49c4 <.LBB61_172>
    49c0:	c00005b7          	lui	a1,0xc0000

00000000000049c4 <.LBB61_172>:
    49c4:	00001537          	lui	a0,0x1
    49c8:	40a40533          	sub	a0,s0,a0
    49cc:	2cb53423          	sd	a1,712(a0) # 12c8 <.LBB61_4+0x124>
    49d0:	92843503          	ld	a0,-1752(s0)
    49d4:	f0043583          	ld	a1,-256(s0)
    49d8:	00b50533          	add	a0,a0,a1
    49dc:	01450533          	add	a0,a0,s4
    49e0:	410685bb          	subw	a1,a3,a6
    49e4:	40b5053b          	subw	a0,a0,a1
    49e8:	400005b7          	lui	a1,0x40000
    49ec:	000013b7          	lui	t2,0x1
    49f0:	407403b3          	sub	t2,s0,t2
    49f4:	2ea3b023          	sd	a0,736(t2) # 12e0 <.LBB61_4+0x13c>
    49f8:	00055463          	bgez	a0,4a00 <.LBB61_174>
    49fc:	c00005b7          	lui	a1,0xc0000

0000000000004a00 <.LBB61_174>:
    4a00:	00001537          	lui	a0,0x1
    4a04:	40a40533          	sub	a0,s0,a0
    4a08:	2cb53c23          	sd	a1,728(a0) # 12d8 <.LBB61_4+0x134>
    4a0c:	93043503          	ld	a0,-1744(s0)
    4a10:	f0843583          	ld	a1,-248(s0)
    4a14:	00b50533          	add	a0,a0,a1
    4a18:	01350533          	add	a0,a0,s3
    4a1c:	410685bb          	subw	a1,a3,a6
    4a20:	40b5053b          	subw	a0,a0,a1
    4a24:	400005b7          	lui	a1,0x40000
    4a28:	000013b7          	lui	t2,0x1
    4a2c:	407403b3          	sub	t2,s0,t2
    4a30:	2ea3b823          	sd	a0,752(t2) # 12f0 <.LBB61_4+0x14c>
    4a34:	00055463          	bgez	a0,4a3c <.LBB61_176>
    4a38:	c00005b7          	lui	a1,0xc0000

0000000000004a3c <.LBB61_176>:
    4a3c:	00001537          	lui	a0,0x1
    4a40:	40a40533          	sub	a0,s0,a0
    4a44:	2eb53423          	sd	a1,744(a0) # 12e8 <.LBB61_4+0x144>
    4a48:	93843503          	ld	a0,-1736(s0)
    4a4c:	f1043583          	ld	a1,-240(s0)
    4a50:	00b50533          	add	a0,a0,a1
    4a54:	000015b7          	lui	a1,0x1
    4a58:	40b405b3          	sub	a1,s0,a1
    4a5c:	7385b583          	ld	a1,1848(a1) # 1738 <.LBB61_4+0x594>
    4a60:	00b50533          	add	a0,a0,a1
    4a64:	410685bb          	subw	a1,a3,a6
    4a68:	40b5053b          	subw	a0,a0,a1
    4a6c:	400005b7          	lui	a1,0x40000
    4a70:	000013b7          	lui	t2,0x1
    4a74:	407403b3          	sub	t2,s0,t2
    4a78:	30a3b023          	sd	a0,768(t2) # 1300 <.LBB61_4+0x15c>
    4a7c:	00055463          	bgez	a0,4a84 <.LBB61_178>
    4a80:	c00005b7          	lui	a1,0xc0000

0000000000004a84 <.LBB61_178>:
    4a84:	00001537          	lui	a0,0x1
    4a88:	40a40533          	sub	a0,s0,a0
    4a8c:	2eb53c23          	sd	a1,760(a0) # 12f8 <.LBB61_4+0x154>
    4a90:	94043503          	ld	a0,-1728(s0)
    4a94:	f1843583          	ld	a1,-232(s0)
    4a98:	00b50533          	add	a0,a0,a1
    4a9c:	000015b7          	lui	a1,0x1
    4aa0:	40b405b3          	sub	a1,s0,a1
    4aa4:	7405b583          	ld	a1,1856(a1) # 1740 <.LBB61_5>
    4aa8:	00b50533          	add	a0,a0,a1
    4aac:	410685bb          	subw	a1,a3,a6
    4ab0:	40b5053b          	subw	a0,a0,a1
    4ab4:	400005b7          	lui	a1,0x40000
    4ab8:	000013b7          	lui	t2,0x1
    4abc:	407403b3          	sub	t2,s0,t2
    4ac0:	30a3b823          	sd	a0,784(t2) # 1310 <.LBB61_4+0x16c>
    4ac4:	00055463          	bgez	a0,4acc <.LBB61_180>
    4ac8:	c00005b7          	lui	a1,0xc0000

0000000000004acc <.LBB61_180>:
    4acc:	00001537          	lui	a0,0x1
    4ad0:	40a40533          	sub	a0,s0,a0
    4ad4:	30b53423          	sd	a1,776(a0) # 1308 <.LBB61_4+0x164>
    4ad8:	94843503          	ld	a0,-1720(s0)
    4adc:	f4843583          	ld	a1,-184(s0)
    4ae0:	00b50533          	add	a0,a0,a1
    4ae4:	000015b7          	lui	a1,0x1
    4ae8:	40b405b3          	sub	a1,s0,a1
    4aec:	7485b583          	ld	a1,1864(a1) # 1748 <.LBB61_5+0x8>
    4af0:	00b50533          	add	a0,a0,a1
    4af4:	410685bb          	subw	a1,a3,a6
    4af8:	40b5053b          	subw	a0,a0,a1
    4afc:	400005b7          	lui	a1,0x40000
    4b00:	000013b7          	lui	t2,0x1
    4b04:	407403b3          	sub	t2,s0,t2
    4b08:	32a3b023          	sd	a0,800(t2) # 1320 <.LBB61_4+0x17c>
    4b0c:	00055463          	bgez	a0,4b14 <.LBB61_182>
    4b10:	c00005b7          	lui	a1,0xc0000

0000000000004b14 <.LBB61_182>:
    4b14:	00001537          	lui	a0,0x1
    4b18:	40a40533          	sub	a0,s0,a0
    4b1c:	30b53c23          	sd	a1,792(a0) # 1318 <.LBB61_4+0x174>
    4b20:	95043503          	ld	a0,-1712(s0)
    4b24:	f5043583          	ld	a1,-176(s0)
    4b28:	00b50533          	add	a0,a0,a1
    4b2c:	01e50533          	add	a0,a0,t5
    4b30:	410685bb          	subw	a1,a3,a6
    4b34:	40b5053b          	subw	a0,a0,a1
    4b38:	400005b7          	lui	a1,0x40000
    4b3c:	000013b7          	lui	t2,0x1
    4b40:	407403b3          	sub	t2,s0,t2
    4b44:	32a3b823          	sd	a0,816(t2) # 1330 <.LBB61_4+0x18c>
    4b48:	00055463          	bgez	a0,4b50 <.LBB61_184>
    4b4c:	c00005b7          	lui	a1,0xc0000

0000000000004b50 <.LBB61_184>:
    4b50:	00001537          	lui	a0,0x1
    4b54:	40a40533          	sub	a0,s0,a0
    4b58:	32b53423          	sd	a1,808(a0) # 1328 <.LBB61_4+0x184>
    4b5c:	95843503          	ld	a0,-1704(s0)
    4b60:	f5843583          	ld	a1,-168(s0)
    4b64:	00b50533          	add	a0,a0,a1
    4b68:	01d50533          	add	a0,a0,t4
    4b6c:	410685bb          	subw	a1,a3,a6
    4b70:	40b5053b          	subw	a0,a0,a1
    4b74:	400005b7          	lui	a1,0x40000
    4b78:	000013b7          	lui	t2,0x1
    4b7c:	407403b3          	sub	t2,s0,t2
    4b80:	34a3b023          	sd	a0,832(t2) # 1340 <.LBB61_4+0x19c>
    4b84:	00055463          	bgez	a0,4b8c <.LBB61_186>
    4b88:	c00005b7          	lui	a1,0xc0000

0000000000004b8c <.LBB61_186>:
    4b8c:	00001537          	lui	a0,0x1
    4b90:	40a40533          	sub	a0,s0,a0
    4b94:	32b53c23          	sd	a1,824(a0) # 1338 <.LBB61_4+0x194>
    4b98:	96043503          	ld	a0,-1696(s0)
    4b9c:	f6043583          	ld	a1,-160(s0)
    4ba0:	00b50533          	add	a0,a0,a1
    4ba4:	01c50533          	add	a0,a0,t3
    4ba8:	410685bb          	subw	a1,a3,a6
    4bac:	40b5053b          	subw	a0,a0,a1
    4bb0:	400005b7          	lui	a1,0x40000
    4bb4:	000013b7          	lui	t2,0x1
    4bb8:	407403b3          	sub	t2,s0,t2
    4bbc:	34a3b823          	sd	a0,848(t2) # 1350 <.LBB61_4+0x1ac>
    4bc0:	00055463          	bgez	a0,4bc8 <.LBB61_188>
    4bc4:	c00005b7          	lui	a1,0xc0000

0000000000004bc8 <.LBB61_188>:
    4bc8:	00001537          	lui	a0,0x1
    4bcc:	40a40533          	sub	a0,s0,a0
    4bd0:	34b53423          	sd	a1,840(a0) # 1348 <.LBB61_4+0x1a4>
    4bd4:	96843503          	ld	a0,-1688(s0)
    4bd8:	f6843583          	ld	a1,-152(s0)
    4bdc:	00b50533          	add	a0,a0,a1
    4be0:	00950533          	add	a0,a0,s1
    4be4:	410685bb          	subw	a1,a3,a6
    4be8:	40b5053b          	subw	a0,a0,a1
    4bec:	400005b7          	lui	a1,0x40000
    4bf0:	000013b7          	lui	t2,0x1
    4bf4:	407403b3          	sub	t2,s0,t2
    4bf8:	36a3b023          	sd	a0,864(t2) # 1360 <.LBB61_4+0x1bc>
    4bfc:	00055463          	bgez	a0,4c04 <.LBB61_190>
    4c00:	c00005b7          	lui	a1,0xc0000

0000000000004c04 <.LBB61_190>:
    4c04:	00001537          	lui	a0,0x1
    4c08:	40a40533          	sub	a0,s0,a0
    4c0c:	34b53c23          	sd	a1,856(a0) # 1358 <.LBB61_4+0x1b4>
    4c10:	97043503          	ld	a0,-1680(s0)
    4c14:	f7043583          	ld	a1,-144(s0)
    4c18:	00b50533          	add	a0,a0,a1
    4c1c:	00650533          	add	a0,a0,t1
    4c20:	410685bb          	subw	a1,a3,a6
    4c24:	40b5053b          	subw	a0,a0,a1
    4c28:	400005b7          	lui	a1,0x40000
    4c2c:	000013b7          	lui	t2,0x1
    4c30:	407403b3          	sub	t2,s0,t2
    4c34:	36a3b823          	sd	a0,880(t2) # 1370 <.LBB61_4+0x1cc>
    4c38:	00055463          	bgez	a0,4c40 <.LBB61_192>
    4c3c:	c00005b7          	lui	a1,0xc0000

0000000000004c40 <.LBB61_192>:
    4c40:	00001537          	lui	a0,0x1
    4c44:	40a40533          	sub	a0,s0,a0
    4c48:	36b53423          	sd	a1,872(a0) # 1368 <.LBB61_4+0x1c4>
    4c4c:	97843503          	ld	a0,-1672(s0)
    4c50:	f7843583          	ld	a1,-136(s0)
    4c54:	00b50533          	add	a0,a0,a1
    4c58:	00550533          	add	a0,a0,t0
    4c5c:	410685bb          	subw	a1,a3,a6
    4c60:	40b5053b          	subw	a0,a0,a1
    4c64:	400005b7          	lui	a1,0x40000
    4c68:	000013b7          	lui	t2,0x1
    4c6c:	407403b3          	sub	t2,s0,t2
    4c70:	38a3b023          	sd	a0,896(t2) # 1380 <.LBB61_4+0x1dc>
    4c74:	00055463          	bgez	a0,4c7c <.LBB61_194>
    4c78:	c00005b7          	lui	a1,0xc0000

0000000000004c7c <.LBB61_194>:
    4c7c:	00001537          	lui	a0,0x1
    4c80:	40a40533          	sub	a0,s0,a0
    4c84:	36b53c23          	sd	a1,888(a0) # 1378 <.LBB61_4+0x1d4>
    4c88:	f8043503          	ld	a0,-128(s0)
    4c8c:	98043583          	ld	a1,-1664(s0)
    4c90:	00a58533          	add	a0,a1,a0
    4c94:	00f50533          	add	a0,a0,a5
    4c98:	410685bb          	subw	a1,a3,a6
    4c9c:	40b5053b          	subw	a0,a0,a1
    4ca0:	400005b7          	lui	a1,0x40000
    4ca4:	000013b7          	lui	t2,0x1
    4ca8:	407403b3          	sub	t2,s0,t2
    4cac:	38a3b823          	sd	a0,912(t2) # 1390 <.LBB61_4+0x1ec>
    4cb0:	00055463          	bgez	a0,4cb8 <.LBB61_196>
    4cb4:	c00005b7          	lui	a1,0xc0000

0000000000004cb8 <.LBB61_196>:
    4cb8:	00060393          	mv	t2,a2
    4cbc:	00001537          	lui	a0,0x1
    4cc0:	40a40533          	sub	a0,s0,a0
    4cc4:	38b53423          	sd	a1,904(a0) # 1388 <.LBB61_4+0x1e4>
    4cc8:	f8843503          	ld	a0,-120(s0)
    4ccc:	98843583          	ld	a1,-1656(s0)
    4cd0:	00a58533          	add	a0,a1,a0
    4cd4:	01f50533          	add	a0,a0,t6
    4cd8:	410685bb          	subw	a1,a3,a6
    4cdc:	40b5053b          	subw	a0,a0,a1
    4ce0:	400005b7          	lui	a1,0x40000
    4ce4:	00001637          	lui	a2,0x1
    4ce8:	40c40633          	sub	a2,s0,a2
    4cec:	3aa63023          	sd	a0,928(a2) # 13a0 <.LBB61_4+0x1fc>
    4cf0:	00055463          	bgez	a0,4cf8 <.LBB61_198>
    4cf4:	c00005b7          	lui	a1,0xc0000

0000000000004cf8 <.LBB61_198>:
    4cf8:	f8e43823          	sd	a4,-112(s0)
    4cfc:	00001537          	lui	a0,0x1
    4d00:	40a40533          	sub	a0,s0,a0
    4d04:	38b53c23          	sd	a1,920(a0) # 1398 <.LBB61_4+0x1f4>
    4d08:	99043503          	ld	a0,-1648(s0)
    4d0c:	eb043583          	ld	a1,-336(s0)
    4d10:	00b50533          	add	a0,a0,a1
    4d14:	000015b7          	lui	a1,0x1
    4d18:	40b405b3          	sub	a1,s0,a1
    4d1c:	6805b583          	ld	a1,1664(a1) # 1680 <.LBB61_4+0x4dc>
    4d20:	02158633          	mul	a2,a1,ra
    4d24:	ea843583          	ld	a1,-344(s0)
    4d28:	00b50533          	add	a0,a0,a1
    4d2c:	410605bb          	subw	a1,a2,a6
    4d30:	40b5053b          	subw	a0,a0,a1
    4d34:	400005b7          	lui	a1,0x40000
    4d38:	e6043683          	ld	a3,-416(s0)
    4d3c:	00001737          	lui	a4,0x1
    4d40:	40e40733          	sub	a4,s0,a4
    4d44:	3aa73823          	sd	a0,944(a4) # 13b0 <.LBB61_4+0x20c>
    4d48:	f9043703          	ld	a4,-112(s0)
    4d4c:	00055463          	bgez	a0,4d54 <.LBB61_200>
    4d50:	c00005b7          	lui	a1,0xc0000

0000000000004d54 <.LBB61_200>:
    4d54:	f8d43823          	sd	a3,-112(s0)
    4d58:	00001537          	lui	a0,0x1
    4d5c:	40a40533          	sub	a0,s0,a0
    4d60:	3ab53423          	sd	a1,936(a0) # 13a8 <.LBB61_4+0x204>
    4d64:	99843503          	ld	a0,-1640(s0)
    4d68:	ea043583          	ld	a1,-352(s0)
    4d6c:	00b50533          	add	a0,a0,a1
    4d70:	e9843583          	ld	a1,-360(s0)
    4d74:	00b50533          	add	a0,a0,a1
    4d78:	410605bb          	subw	a1,a2,a6
    4d7c:	40b5053b          	subw	a0,a0,a1
    4d80:	400005b7          	lui	a1,0x40000
    4d84:	000016b7          	lui	a3,0x1
    4d88:	40d406b3          	sub	a3,s0,a3
    4d8c:	3ca6b023          	sd	a0,960(a3) # 13c0 <.LBB61_4+0x21c>
    4d90:	f9043683          	ld	a3,-112(s0)
    4d94:	00055463          	bgez	a0,4d9c <.LBB61_202>
    4d98:	c00005b7          	lui	a1,0xc0000

0000000000004d9c <.LBB61_202>:
    4d9c:	f8d43823          	sd	a3,-112(s0)
    4da0:	00001537          	lui	a0,0x1
    4da4:	40a40533          	sub	a0,s0,a0
    4da8:	3ab53c23          	sd	a1,952(a0) # 13b8 <.LBB61_4+0x214>
    4dac:	9a043503          	ld	a0,-1632(s0)
    4db0:	e9043583          	ld	a1,-368(s0)
    4db4:	00b50533          	add	a0,a0,a1
    4db8:	e8843583          	ld	a1,-376(s0)
    4dbc:	00b50533          	add	a0,a0,a1
    4dc0:	410605bb          	subw	a1,a2,a6
    4dc4:	40b5053b          	subw	a0,a0,a1
    4dc8:	400005b7          	lui	a1,0x40000
    4dcc:	000016b7          	lui	a3,0x1
    4dd0:	40d406b3          	sub	a3,s0,a3
    4dd4:	3ca6b823          	sd	a0,976(a3) # 13d0 <.LBB61_4+0x22c>
    4dd8:	f9043683          	ld	a3,-112(s0)
    4ddc:	00055463          	bgez	a0,4de4 <.LBB61_204>
    4de0:	c00005b7          	lui	a1,0xc0000

0000000000004de4 <.LBB61_204>:
    4de4:	f8d43823          	sd	a3,-112(s0)
    4de8:	00001537          	lui	a0,0x1
    4dec:	40a40533          	sub	a0,s0,a0
    4df0:	3cb53423          	sd	a1,968(a0) # 13c8 <.LBB61_4+0x224>
    4df4:	9a843503          	ld	a0,-1624(s0)
    4df8:	e8043583          	ld	a1,-384(s0)
    4dfc:	00b50533          	add	a0,a0,a1
    4e00:	e7843583          	ld	a1,-392(s0)
    4e04:	00b50533          	add	a0,a0,a1
    4e08:	410605bb          	subw	a1,a2,a6
    4e0c:	40b5053b          	subw	a0,a0,a1
    4e10:	400005b7          	lui	a1,0x40000
    4e14:	000016b7          	lui	a3,0x1
    4e18:	40d406b3          	sub	a3,s0,a3
    4e1c:	3ea6b023          	sd	a0,992(a3) # 13e0 <.LBB61_4+0x23c>
    4e20:	f9043683          	ld	a3,-112(s0)
    4e24:	00055463          	bgez	a0,4e2c <.LBB61_206>
    4e28:	c00005b7          	lui	a1,0xc0000

0000000000004e2c <.LBB61_206>:
    4e2c:	f8d43823          	sd	a3,-112(s0)
    4e30:	00001537          	lui	a0,0x1
    4e34:	40a40533          	sub	a0,s0,a0
    4e38:	3cb53c23          	sd	a1,984(a0) # 13d8 <.LBB61_4+0x234>
    4e3c:	9b043503          	ld	a0,-1616(s0)
    4e40:	e7043583          	ld	a1,-400(s0)
    4e44:	00b50533          	add	a0,a0,a1
    4e48:	e6843583          	ld	a1,-408(s0)
    4e4c:	00b50533          	add	a0,a0,a1
    4e50:	410605bb          	subw	a1,a2,a6
    4e54:	40b5053b          	subw	a0,a0,a1
    4e58:	400005b7          	lui	a1,0x40000
    4e5c:	000016b7          	lui	a3,0x1
    4e60:	40d406b3          	sub	a3,s0,a3
    4e64:	3ea6b823          	sd	a0,1008(a3) # 13f0 <.LBB61_4+0x24c>
    4e68:	f9043683          	ld	a3,-112(s0)
    4e6c:	00055463          	bgez	a0,4e74 <.LBB61_208>
    4e70:	c00005b7          	lui	a1,0xc0000

0000000000004e74 <.LBB61_208>:
    4e74:	f8d43823          	sd	a3,-112(s0)
    4e78:	00001537          	lui	a0,0x1
    4e7c:	40a40533          	sub	a0,s0,a0
    4e80:	3eb53423          	sd	a1,1000(a0) # 13e8 <.LBB61_4+0x244>
    4e84:	9b843503          	ld	a0,-1608(s0)
    4e88:	000015b7          	lui	a1,0x1
    4e8c:	40b405b3          	sub	a1,s0,a1
    4e90:	6d05b583          	ld	a1,1744(a1) # 16d0 <.LBB61_4+0x52c>
    4e94:	00b50533          	add	a0,a0,a1
    4e98:	000015b7          	lui	a1,0x1
    4e9c:	40b405b3          	sub	a1,s0,a1
    4ea0:	6c85b583          	ld	a1,1736(a1) # 16c8 <.LBB61_4+0x524>
    4ea4:	00b50533          	add	a0,a0,a1
    4ea8:	410605bb          	subw	a1,a2,a6
    4eac:	40b5053b          	subw	a0,a0,a1
    4eb0:	400005b7          	lui	a1,0x40000
    4eb4:	000016b7          	lui	a3,0x1
    4eb8:	40d406b3          	sub	a3,s0,a3
    4ebc:	40a6b023          	sd	a0,1024(a3) # 1400 <.LBB61_4+0x25c>
    4ec0:	f9043683          	ld	a3,-112(s0)
    4ec4:	00055463          	bgez	a0,4ecc <.LBB61_210>
    4ec8:	c00005b7          	lui	a1,0xc0000

0000000000004ecc <.LBB61_210>:
    4ecc:	f8d43823          	sd	a3,-112(s0)
    4ed0:	00001537          	lui	a0,0x1
    4ed4:	40a40533          	sub	a0,s0,a0
    4ed8:	3eb53c23          	sd	a1,1016(a0) # 13f8 <.LBB61_4+0x254>
    4edc:	9c043503          	ld	a0,-1600(s0)
    4ee0:	000015b7          	lui	a1,0x1
    4ee4:	40b405b3          	sub	a1,s0,a1
    4ee8:	6c05b583          	ld	a1,1728(a1) # 16c0 <.LBB61_4+0x51c>
    4eec:	00b50533          	add	a0,a0,a1
    4ef0:	000015b7          	lui	a1,0x1
    4ef4:	40b405b3          	sub	a1,s0,a1
    4ef8:	6b85b583          	ld	a1,1720(a1) # 16b8 <.LBB61_4+0x514>
    4efc:	00b50533          	add	a0,a0,a1
    4f00:	410605bb          	subw	a1,a2,a6
    4f04:	40b5053b          	subw	a0,a0,a1
    4f08:	400005b7          	lui	a1,0x40000
    4f0c:	000016b7          	lui	a3,0x1
    4f10:	40d406b3          	sub	a3,s0,a3
    4f14:	40a6b823          	sd	a0,1040(a3) # 1410 <.LBB61_4+0x26c>
    4f18:	f9043683          	ld	a3,-112(s0)
    4f1c:	00055463          	bgez	a0,4f24 <.LBB61_212>
    4f20:	c00005b7          	lui	a1,0xc0000

0000000000004f24 <.LBB61_212>:
    4f24:	f8d43823          	sd	a3,-112(s0)
    4f28:	00001537          	lui	a0,0x1
    4f2c:	40a40533          	sub	a0,s0,a0
    4f30:	40b53423          	sd	a1,1032(a0) # 1408 <.LBB61_4+0x264>
    4f34:	9c843503          	ld	a0,-1592(s0)
    4f38:	000015b7          	lui	a1,0x1
    4f3c:	40b405b3          	sub	a1,s0,a1
    4f40:	6b05b583          	ld	a1,1712(a1) # 16b0 <.LBB61_4+0x50c>
    4f44:	00b50533          	add	a0,a0,a1
    4f48:	000015b7          	lui	a1,0x1
    4f4c:	40b405b3          	sub	a1,s0,a1
    4f50:	6a85b583          	ld	a1,1704(a1) # 16a8 <.LBB61_4+0x504>
    4f54:	00b50533          	add	a0,a0,a1
    4f58:	410605bb          	subw	a1,a2,a6
    4f5c:	40b5053b          	subw	a0,a0,a1
    4f60:	400005b7          	lui	a1,0x40000
    4f64:	000016b7          	lui	a3,0x1
    4f68:	40d406b3          	sub	a3,s0,a3
    4f6c:	42a6b023          	sd	a0,1056(a3) # 1420 <.LBB61_4+0x27c>
    4f70:	f9043683          	ld	a3,-112(s0)
    4f74:	00055463          	bgez	a0,4f7c <.LBB61_214>
    4f78:	c00005b7          	lui	a1,0xc0000

0000000000004f7c <.LBB61_214>:
    4f7c:	f8d43823          	sd	a3,-112(s0)
    4f80:	00001537          	lui	a0,0x1
    4f84:	40a40533          	sub	a0,s0,a0
    4f88:	40b53c23          	sd	a1,1048(a0) # 1418 <.LBB61_4+0x274>
    4f8c:	9d043503          	ld	a0,-1584(s0)
    4f90:	000015b7          	lui	a1,0x1
    4f94:	40b405b3          	sub	a1,s0,a1
    4f98:	6a05b583          	ld	a1,1696(a1) # 16a0 <.LBB61_4+0x4fc>
    4f9c:	00b50533          	add	a0,a0,a1
    4fa0:	000015b7          	lui	a1,0x1
    4fa4:	40b405b3          	sub	a1,s0,a1
    4fa8:	6985b583          	ld	a1,1688(a1) # 1698 <.LBB61_4+0x4f4>
    4fac:	00b50533          	add	a0,a0,a1
    4fb0:	410605bb          	subw	a1,a2,a6
    4fb4:	40b5053b          	subw	a0,a0,a1
    4fb8:	400005b7          	lui	a1,0x40000
    4fbc:	000016b7          	lui	a3,0x1
    4fc0:	40d406b3          	sub	a3,s0,a3
    4fc4:	42a6b823          	sd	a0,1072(a3) # 1430 <.LBB61_4+0x28c>
    4fc8:	f9043683          	ld	a3,-112(s0)
    4fcc:	00055463          	bgez	a0,4fd4 <.LBB61_216>
    4fd0:	c00005b7          	lui	a1,0xc0000

0000000000004fd4 <.LBB61_216>:
    4fd4:	f8d43823          	sd	a3,-112(s0)
    4fd8:	00001537          	lui	a0,0x1
    4fdc:	40a40533          	sub	a0,s0,a0
    4fe0:	42b53423          	sd	a1,1064(a0) # 1428 <.LBB61_4+0x284>
    4fe4:	9d843503          	ld	a0,-1576(s0)
    4fe8:	000015b7          	lui	a1,0x1
    4fec:	40b405b3          	sub	a1,s0,a1
    4ff0:	6905b583          	ld	a1,1680(a1) # 1690 <.LBB61_4+0x4ec>
    4ff4:	00b50533          	add	a0,a0,a1
    4ff8:	000015b7          	lui	a1,0x1
    4ffc:	40b405b3          	sub	a1,s0,a1
    5000:	6d85b583          	ld	a1,1752(a1) # 16d8 <.LBB61_4+0x534>
    5004:	00b50533          	add	a0,a0,a1
    5008:	410605bb          	subw	a1,a2,a6
    500c:	40b5053b          	subw	a0,a0,a1
    5010:	400005b7          	lui	a1,0x40000
    5014:	000016b7          	lui	a3,0x1
    5018:	40d406b3          	sub	a3,s0,a3
    501c:	44a6b023          	sd	a0,1088(a3) # 1440 <.LBB61_4+0x29c>
    5020:	f9043683          	ld	a3,-112(s0)
    5024:	00055463          	bgez	a0,502c <.LBB61_218>
    5028:	c00005b7          	lui	a1,0xc0000

000000000000502c <.LBB61_218>:
    502c:	f8d43823          	sd	a3,-112(s0)
    5030:	00001537          	lui	a0,0x1
    5034:	40a40533          	sub	a0,s0,a0
    5038:	42b53c23          	sd	a1,1080(a0) # 1438 <.LBB61_4+0x294>
    503c:	9e043503          	ld	a0,-1568(s0)
    5040:	eb843583          	ld	a1,-328(s0)
    5044:	00b50533          	add	a0,a0,a1
    5048:	000015b7          	lui	a1,0x1
    504c:	40b405b3          	sub	a1,s0,a1
    5050:	6e05b583          	ld	a1,1760(a1) # 16e0 <.LBB61_4+0x53c>
    5054:	00b50533          	add	a0,a0,a1
    5058:	410605bb          	subw	a1,a2,a6
    505c:	40b5053b          	subw	a0,a0,a1
    5060:	400005b7          	lui	a1,0x40000
    5064:	000016b7          	lui	a3,0x1
    5068:	40d406b3          	sub	a3,s0,a3
    506c:	44a6b823          	sd	a0,1104(a3) # 1450 <.LBB61_4+0x2ac>
    5070:	f9043683          	ld	a3,-112(s0)
    5074:	00055463          	bgez	a0,507c <.LBB61_220>
    5078:	c00005b7          	lui	a1,0xc0000

000000000000507c <.LBB61_220>:
    507c:	f8d43823          	sd	a3,-112(s0)
    5080:	00001537          	lui	a0,0x1
    5084:	40a40533          	sub	a0,s0,a0
    5088:	44b53423          	sd	a1,1096(a0) # 1448 <.LBB61_4+0x2a4>
    508c:	9e843503          	ld	a0,-1560(s0)
    5090:	ec043583          	ld	a1,-320(s0)
    5094:	00b50533          	add	a0,a0,a1
    5098:	000015b7          	lui	a1,0x1
    509c:	40b405b3          	sub	a1,s0,a1
    50a0:	6e85b583          	ld	a1,1768(a1) # 16e8 <.LBB61_4+0x544>
    50a4:	00b50533          	add	a0,a0,a1
    50a8:	410605bb          	subw	a1,a2,a6
    50ac:	40b5053b          	subw	a0,a0,a1
    50b0:	400005b7          	lui	a1,0x40000
    50b4:	000016b7          	lui	a3,0x1
    50b8:	40d406b3          	sub	a3,s0,a3
    50bc:	46a6b023          	sd	a0,1120(a3) # 1460 <.LBB61_4+0x2bc>
    50c0:	f9043683          	ld	a3,-112(s0)
    50c4:	00055463          	bgez	a0,50cc <.LBB61_222>
    50c8:	c00005b7          	lui	a1,0xc0000

00000000000050cc <.LBB61_222>:
    50cc:	f8d43823          	sd	a3,-112(s0)
    50d0:	00001537          	lui	a0,0x1
    50d4:	40a40533          	sub	a0,s0,a0
    50d8:	44b53c23          	sd	a1,1112(a0) # 1458 <.LBB61_4+0x2b4>
    50dc:	9f043503          	ld	a0,-1552(s0)
    50e0:	ec843583          	ld	a1,-312(s0)
    50e4:	00b50533          	add	a0,a0,a1
    50e8:	01b50533          	add	a0,a0,s11
    50ec:	410605bb          	subw	a1,a2,a6
    50f0:	40b5053b          	subw	a0,a0,a1
    50f4:	400005b7          	lui	a1,0x40000
    50f8:	000016b7          	lui	a3,0x1
    50fc:	40d406b3          	sub	a3,s0,a3
    5100:	46a6b823          	sd	a0,1136(a3) # 1470 <.LBB61_4+0x2cc>
    5104:	f9043683          	ld	a3,-112(s0)
    5108:	00055463          	bgez	a0,5110 <.LBB61_224>
    510c:	c00005b7          	lui	a1,0xc0000

0000000000005110 <.LBB61_224>:
    5110:	f8d43823          	sd	a3,-112(s0)
    5114:	00001537          	lui	a0,0x1
    5118:	40a40533          	sub	a0,s0,a0
    511c:	46b53423          	sd	a1,1128(a0) # 1468 <.LBB61_4+0x2c4>
    5120:	9f843503          	ld	a0,-1544(s0)
    5124:	ed043583          	ld	a1,-304(s0)
    5128:	00b50533          	add	a0,a0,a1
    512c:	01a50533          	add	a0,a0,s10
    5130:	410605bb          	subw	a1,a2,a6
    5134:	40b5053b          	subw	a0,a0,a1
    5138:	400005b7          	lui	a1,0x40000
    513c:	000016b7          	lui	a3,0x1
    5140:	40d406b3          	sub	a3,s0,a3
    5144:	48a6b023          	sd	a0,1152(a3) # 1480 <.LBB61_4+0x2dc>
    5148:	f9043683          	ld	a3,-112(s0)
    514c:	00055463          	bgez	a0,5154 <.LBB61_226>
    5150:	c00005b7          	lui	a1,0xc0000

0000000000005154 <.LBB61_226>:
    5154:	f8d43823          	sd	a3,-112(s0)
    5158:	00001537          	lui	a0,0x1
    515c:	40a40533          	sub	a0,s0,a0
    5160:	46b53c23          	sd	a1,1144(a0) # 1478 <.LBB61_4+0x2d4>
    5164:	a0043503          	ld	a0,-1536(s0)
    5168:	ed843583          	ld	a1,-296(s0)
    516c:	00b50533          	add	a0,a0,a1
    5170:	01250533          	add	a0,a0,s2
    5174:	410605bb          	subw	a1,a2,a6
    5178:	40b5053b          	subw	a0,a0,a1
    517c:	400005b7          	lui	a1,0x40000
    5180:	000016b7          	lui	a3,0x1
    5184:	40d406b3          	sub	a3,s0,a3
    5188:	48a6b823          	sd	a0,1168(a3) # 1490 <.LBB61_4+0x2ec>
    518c:	f9043683          	ld	a3,-112(s0)
    5190:	00055463          	bgez	a0,5198 <.LBB61_228>
    5194:	c00005b7          	lui	a1,0xc0000

0000000000005198 <.LBB61_228>:
    5198:	f8d43823          	sd	a3,-112(s0)
    519c:	00001537          	lui	a0,0x1
    51a0:	40a40533          	sub	a0,s0,a0
    51a4:	48b53423          	sd	a1,1160(a0) # 1488 <.LBB61_4+0x2e4>
    51a8:	a0843503          	ld	a0,-1528(s0)
    51ac:	ee043583          	ld	a1,-288(s0)
    51b0:	00b50533          	add	a0,a0,a1
    51b4:	01950533          	add	a0,a0,s9
    51b8:	410605bb          	subw	a1,a2,a6
    51bc:	40b5053b          	subw	a0,a0,a1
    51c0:	400005b7          	lui	a1,0x40000
    51c4:	000016b7          	lui	a3,0x1
    51c8:	40d406b3          	sub	a3,s0,a3
    51cc:	4aa6b023          	sd	a0,1184(a3) # 14a0 <.LBB61_4+0x2fc>
    51d0:	f9043683          	ld	a3,-112(s0)
    51d4:	00055463          	bgez	a0,51dc <.LBB61_230>
    51d8:	c00005b7          	lui	a1,0xc0000

00000000000051dc <.LBB61_230>:
    51dc:	f8d43823          	sd	a3,-112(s0)
    51e0:	00001537          	lui	a0,0x1
    51e4:	40a40533          	sub	a0,s0,a0
    51e8:	48b53c23          	sd	a1,1176(a0) # 1498 <.LBB61_4+0x2f4>
    51ec:	a1043503          	ld	a0,-1520(s0)
    51f0:	ee843583          	ld	a1,-280(s0)
    51f4:	00b50533          	add	a0,a0,a1
    51f8:	000015b7          	lui	a1,0x1
    51fc:	40b405b3          	sub	a1,s0,a1
    5200:	7105b583          	ld	a1,1808(a1) # 1710 <.LBB61_4+0x56c>
    5204:	00b50533          	add	a0,a0,a1
    5208:	410605bb          	subw	a1,a2,a6
    520c:	40b5053b          	subw	a0,a0,a1
    5210:	400005b7          	lui	a1,0x40000
    5214:	000016b7          	lui	a3,0x1
    5218:	40d406b3          	sub	a3,s0,a3
    521c:	4aa6b823          	sd	a0,1200(a3) # 14b0 <.LBB61_4+0x30c>
    5220:	f9043683          	ld	a3,-112(s0)
    5224:	00055463          	bgez	a0,522c <.LBB61_232>
    5228:	c00005b7          	lui	a1,0xc0000

000000000000522c <.LBB61_232>:
    522c:	f8d43823          	sd	a3,-112(s0)
    5230:	00001537          	lui	a0,0x1
    5234:	40a40533          	sub	a0,s0,a0
    5238:	4ab53423          	sd	a1,1192(a0) # 14a8 <.LBB61_4+0x304>
    523c:	a1843503          	ld	a0,-1512(s0)
    5240:	ef043583          	ld	a1,-272(s0)
    5244:	00b50533          	add	a0,a0,a1
    5248:	01650533          	add	a0,a0,s6
    524c:	410605bb          	subw	a1,a2,a6
    5250:	40b5053b          	subw	a0,a0,a1
    5254:	400005b7          	lui	a1,0x40000
    5258:	000016b7          	lui	a3,0x1
    525c:	40d406b3          	sub	a3,s0,a3
    5260:	4ca6b023          	sd	a0,1216(a3) # 14c0 <.LBB61_4+0x31c>
    5264:	f9043683          	ld	a3,-112(s0)
    5268:	00055463          	bgez	a0,5270 <.LBB61_234>
    526c:	c00005b7          	lui	a1,0xc0000

0000000000005270 <.LBB61_234>:
    5270:	f8d43823          	sd	a3,-112(s0)
    5274:	00001537          	lui	a0,0x1
    5278:	40a40533          	sub	a0,s0,a0
    527c:	4ab53c23          	sd	a1,1208(a0) # 14b8 <.LBB61_4+0x314>
    5280:	a2043503          	ld	a0,-1504(s0)
    5284:	ef843583          	ld	a1,-264(s0)
    5288:	00b50533          	add	a0,a0,a1
    528c:	01550533          	add	a0,a0,s5
    5290:	410605bb          	subw	a1,a2,a6
    5294:	40b5053b          	subw	a0,a0,a1
    5298:	400005b7          	lui	a1,0x40000
    529c:	000016b7          	lui	a3,0x1
    52a0:	40d406b3          	sub	a3,s0,a3
    52a4:	4ca6b823          	sd	a0,1232(a3) # 14d0 <.LBB61_4+0x32c>
    52a8:	f9043683          	ld	a3,-112(s0)
    52ac:	00055463          	bgez	a0,52b4 <.LBB61_236>
    52b0:	c00005b7          	lui	a1,0xc0000

00000000000052b4 <.LBB61_236>:
    52b4:	f8d43823          	sd	a3,-112(s0)
    52b8:	00001537          	lui	a0,0x1
    52bc:	40a40533          	sub	a0,s0,a0
    52c0:	4cb53423          	sd	a1,1224(a0) # 14c8 <.LBB61_4+0x324>
    52c4:	a2843503          	ld	a0,-1496(s0)
    52c8:	f0043583          	ld	a1,-256(s0)
    52cc:	00b50533          	add	a0,a0,a1
    52d0:	01450533          	add	a0,a0,s4
    52d4:	410605bb          	subw	a1,a2,a6
    52d8:	40b5053b          	subw	a0,a0,a1
    52dc:	400005b7          	lui	a1,0x40000
    52e0:	000016b7          	lui	a3,0x1
    52e4:	40d406b3          	sub	a3,s0,a3
    52e8:	4ea6b023          	sd	a0,1248(a3) # 14e0 <.LBB61_4+0x33c>
    52ec:	f9043683          	ld	a3,-112(s0)
    52f0:	00055463          	bgez	a0,52f8 <.LBB61_238>
    52f4:	c00005b7          	lui	a1,0xc0000

00000000000052f8 <.LBB61_238>:
    52f8:	f8d43823          	sd	a3,-112(s0)
    52fc:	00001537          	lui	a0,0x1
    5300:	40a40533          	sub	a0,s0,a0
    5304:	4cb53c23          	sd	a1,1240(a0) # 14d8 <.LBB61_4+0x334>
    5308:	a3043503          	ld	a0,-1488(s0)
    530c:	f0843583          	ld	a1,-248(s0)
    5310:	00b50533          	add	a0,a0,a1
    5314:	01350533          	add	a0,a0,s3
    5318:	410605bb          	subw	a1,a2,a6
    531c:	40b5053b          	subw	a0,a0,a1
    5320:	400005b7          	lui	a1,0x40000
    5324:	000016b7          	lui	a3,0x1
    5328:	40d406b3          	sub	a3,s0,a3
    532c:	4ea6b823          	sd	a0,1264(a3) # 14f0 <.LBB61_4+0x34c>
    5330:	f9043683          	ld	a3,-112(s0)
    5334:	00055463          	bgez	a0,533c <.LBB61_240>
    5338:	c00005b7          	lui	a1,0xc0000

000000000000533c <.LBB61_240>:
    533c:	f8d43823          	sd	a3,-112(s0)
    5340:	00001537          	lui	a0,0x1
    5344:	40a40533          	sub	a0,s0,a0
    5348:	4eb53423          	sd	a1,1256(a0) # 14e8 <.LBB61_4+0x344>
    534c:	a3843503          	ld	a0,-1480(s0)
    5350:	f1043583          	ld	a1,-240(s0)
    5354:	00b50533          	add	a0,a0,a1
    5358:	000015b7          	lui	a1,0x1
    535c:	40b405b3          	sub	a1,s0,a1
    5360:	7385b583          	ld	a1,1848(a1) # 1738 <.LBB61_4+0x594>
    5364:	00b50533          	add	a0,a0,a1
    5368:	410605bb          	subw	a1,a2,a6
    536c:	40b5053b          	subw	a0,a0,a1
    5370:	400005b7          	lui	a1,0x40000
    5374:	000016b7          	lui	a3,0x1
    5378:	40d406b3          	sub	a3,s0,a3
    537c:	50a6b023          	sd	a0,1280(a3) # 1500 <.LBB61_4+0x35c>
    5380:	f9043683          	ld	a3,-112(s0)
    5384:	00055463          	bgez	a0,538c <.LBB61_242>
    5388:	c00005b7          	lui	a1,0xc0000

000000000000538c <.LBB61_242>:
    538c:	f8d43823          	sd	a3,-112(s0)
