
code.o:     file format elf64-littleriscv


Disassembly of section .text.main_dispatch_97_matmul_196x96x576_i8xi8xi32:

0000000000000000 <main_dispatch_97_matmul_196x96x576_i8xi8xi32>:
       0:	f1501173          	csrrw	sp,0xf15,zero

0000000000000004 <.Lfunc_begin77>:
       4:	81010113          	addi	sp,sp,-2032
       8:	7e113423          	sd	ra,2024(sp)
       c:	7e813023          	sd	s0,2016(sp)
      10:	7c913c23          	sd	s1,2008(sp)
      14:	7d213823          	sd	s2,2000(sp)
      18:	7d313423          	sd	s3,1992(sp)
      1c:	7d413023          	sd	s4,1984(sp)
      20:	7b513c23          	sd	s5,1976(sp)
      24:	7b613823          	sd	s6,1968(sp)
      28:	7b713423          	sd	s7,1960(sp)
      2c:	7b813023          	sd	s8,1952(sp)
      30:	79913c23          	sd	s9,1944(sp)
      34:	79a13823          	sd	s10,1936(sp)
      38:	79b13423          	sd	s11,1928(sp)
      3c:	7f010413          	addi	s0,sp,2032
      40:	00002537          	lui	a0,0x2
      44:	8405051b          	addiw	a0,a0,-1984 # 1840 <.LBB77_5+0x374>
      48:	40a10133          	sub	sp,sp,a0
      4c:	0205b583          	ld	a1,32(a1)
      50:	00000513          	li	a0,0
      54:	0005b703          	ld	a4,0(a1)
      58:	00017637          	lui	a2,0x17
      5c:	2c06061b          	addiw	a2,a2,704 # 172c0 <.LBB77_2641>
      60:	0085b683          	ld	a3,8(a1)
      64:	00c70633          	add	a2,a4,a2
      68:	000027b7          	lui	a5,0x2
      6c:	40f407b3          	sub	a5,s0,a5
      70:	06c7bc23          	sd	a2,120(a5) # 2078 <.LBB77_5+0xbac>
      74:	00077637          	lui	a2,0x77
      78:	6006061b          	addiw	a2,a2,1536 # 77600 <.Lfunc_end80+0x4ec34>
      7c:	00c68933          	add	s2,a3,a2
      80:	0001a637          	lui	a2,0x1a
      84:	b806061b          	addiw	a2,a2,-1152 # 19b80 <.LBB77_3191+0xc>
      88:	00c68633          	add	a2,a3,a2
      8c:	000027b7          	lui	a5,0x2
      90:	40f407b3          	sub	a5,s0,a5
      94:	06c7b423          	sd	a2,104(a5) # 2068 <.LBB77_5+0xb9c>
      98:	00085637          	lui	a2,0x85
      9c:	e006061b          	addiw	a2,a2,-512 # 84e00 <.Lfunc_end80+0x5c434>
      a0:	00c68633          	add	a2,a3,a2
      a4:	000026b7          	lui	a3,0x2
      a8:	40d406b3          	sub	a3,s0,a3
      ac:	06c6b023          	sd	a2,96(a3) # 2060 <.LBB77_5+0xb94>
      b0:	0105b583          	ld	a1,16(a1)
      b4:	00013637          	lui	a2,0x13
      b8:	9406061b          	addiw	a2,a2,-1728 # 12940 <.LBB77_2113+0x60>
      bc:	00c70633          	add	a2,a4,a2
      c0:	000026b7          	lui	a3,0x2
      c4:	40d406b3          	sub	a3,s0,a3
      c8:	04c6bc23          	sd	a2,88(a3) # 2058 <.LBB77_5+0xb8c>
      cc:	34058593          	addi	a1,a1,832
      d0:	00002637          	lui	a2,0x2
      d4:	40c40633          	sub	a2,s0,a2
      d8:	04b63823          	sd	a1,80(a2) # 2050 <.LBB77_5+0xb84>
      dc:	000185b7          	lui	a1,0x18
      e0:	2805859b          	addiw	a1,a1,640 # 18280 <.LBB77_2779+0x2c>
      e4:	00002637          	lui	a2,0x2
      e8:	40c40633          	sub	a2,s0,a2
      ec:	fee63823          	sd	a4,-16(a2) # 1ff0 <.LBB77_5+0xb24>
      f0:	00b705b3          	add	a1,a4,a1
      f4:	00002637          	lui	a2,0x2
      f8:	40c40633          	sub	a2,s0,a2
      fc:	06b63823          	sd	a1,112(a2) # 2070 <.LBB77_5+0xba4>
     100:	01b00593          	li	a1,27
     104:	00b59593          	slli	a1,a1,0xb
     108:	00002637          	lui	a2,0x2
     10c:	40c40633          	sub	a2,s0,a2
     110:	00b63423          	sd	a1,8(a2) # 2008 <.LBB77_5+0xb3c>
     114:	68cd65b7          	lui	a1,0x68cd6
     118:	6655859b          	addiw	a1,a1,1637 # 68cd6665 <.Lfunc_end80+0x68cadc99>
     11c:	00002637          	lui	a2,0x2
     120:	40c40633          	sub	a2,s0,a2
     124:	00b63023          	sd	a1,0(a2) # 2000 <.LBB77_5+0xb34>
     128:	1721b5b7          	lui	a1,0x1721b
     12c:	3d55859b          	addiw	a1,a1,981 # 1721b3d5 <.Lfunc_end80+0x171f2a09>
     130:	01659593          	slli	a1,a1,0x16
     134:	00001637          	lui	a2,0x1
     138:	40c40633          	sub	a2,s0,a2
     13c:	66b63023          	sd	a1,1632(a2) # 1660 <.LBB77_5+0x194>
     140:	00300593          	li	a1,3
     144:	01e59593          	slli	a1,a1,0x1e
     148:	00002637          	lui	a2,0x2
     14c:	40c40633          	sub	a2,s0,a2
     150:	feb63c23          	sd	a1,-8(a2) # 1ff8 <.LBB77_5+0xb2c>
     154:	7bf815b7          	lui	a1,0x7bf81
     158:	6e55859b          	addiw	a1,a1,1765 # 7bf816e5 <.Lfunc_end80+0x7bf58d19>
     15c:	f8b43023          	sd	a1,-128(s0)
     160:	00900593          	li	a1,9
     164:	00959593          	slli	a1,a1,0x9
     168:	00002637          	lui	a2,0x2
     16c:	40c40633          	sub	a2,s0,a2
     170:	fcb63c23          	sd	a1,-40(a2) # 1fd8 <.LBB77_5+0xb0c>
     174:	000025b7          	lui	a1,0x2
     178:	40b405b3          	sub	a1,s0,a1
     17c:	ff25b423          	sd	s2,-24(a1) # 1fe8 <.LBB77_5+0xb1c>
     180:	0700006f          	j	1f0 <.LBB77_2>

0000000000000184 <.LBB77_1>:
     184:	00002537          	lui	a0,0x2
     188:	40a40533          	sub	a0,s0,a0
     18c:	fe053683          	ld	a3,-32(a0) # 1fe0 <.LBB77_5+0xb14>
     190:	00868513          	addi	a0,a3,8
     194:	000025b7          	lui	a1,0x2
     198:	40b405b3          	sub	a1,s0,a1
     19c:	0785b583          	ld	a1,120(a1) # 2078 <.LBB77_5+0xbac>
     1a0:	00002637          	lui	a2,0x2
     1a4:	40c40633          	sub	a2,s0,a2
     1a8:	fd863603          	ld	a2,-40(a2) # 1fd8 <.LBB77_5+0xb0c>
     1ac:	00c585b3          	add	a1,a1,a2
     1b0:	00002737          	lui	a4,0x2
     1b4:	40e40733          	sub	a4,s0,a4
     1b8:	06b73c23          	sd	a1,120(a4) # 2078 <.LBB77_5+0xbac>
     1bc:	000025b7          	lui	a1,0x2
     1c0:	40b405b3          	sub	a1,s0,a1
     1c4:	0705b583          	ld	a1,112(a1) # 2070 <.LBB77_5+0xba4>
     1c8:	00c585b3          	add	a1,a1,a2
     1cc:	00002637          	lui	a2,0x2
     1d0:	40c40633          	sub	a2,s0,a2
     1d4:	06b63823          	sd	a1,112(a2) # 2070 <.LBB77_5+0xba4>
     1d8:	000025b7          	lui	a1,0x2
     1dc:	40b405b3          	sub	a1,s0,a1
     1e0:	fe85b903          	ld	s2,-24(a1) # 1fe8 <.LBB77_5+0xb1c>
     1e4:	0b800593          	li	a1,184
     1e8:	00b6e463          	bltu	a3,a1,1f0 <.LBB77_2>
     1ec:	7481b06f          	j	1b934 <.LBB77_3590>

00000000000001f0 <.LBB77_2>:
     1f0:	00000593          	li	a1,0
     1f4:	00050693          	mv	a3,a0
     1f8:	00251513          	slli	a0,a0,0x2
     1fc:	00002637          	lui	a2,0x2
     200:	40c40633          	sub	a2,s0,a2
     204:	ff063603          	ld	a2,-16(a2) # 1ff0 <.LBB77_5+0xb24>
     208:	00a60533          	add	a0,a2,a0
     20c:	00001637          	lui	a2,0x1
     210:	40c40633          	sub	a2,s0,a2
     214:	04a63023          	sd	a0,64(a2) # 1040 <.LBB77_4+0x140>
     218:	06000513          	li	a0,96
     21c:	00002637          	lui	a2,0x2
     220:	40c40633          	sub	a2,s0,a2
     224:	fed63023          	sd	a3,-32(a2) # 1fe0 <.LBB77_5+0xb14>
     228:	02a68533          	mul	a0,a3,a0
     22c:	06050613          	addi	a2,a0,96
     230:	000026b7          	lui	a3,0x2
     234:	40d406b3          	sub	a3,s0,a3
     238:	04c6b023          	sd	a2,64(a3) # 2040 <.LBB77_5+0xb74>
     23c:	0c050613          	addi	a2,a0,192
     240:	000026b7          	lui	a3,0x2
     244:	40d406b3          	sub	a3,s0,a3
     248:	02c6bc23          	sd	a2,56(a3) # 2038 <.LBB77_5+0xb6c>
     24c:	12050613          	addi	a2,a0,288
     250:	000026b7          	lui	a3,0x2
     254:	40d406b3          	sub	a3,s0,a3
     258:	02c6b823          	sd	a2,48(a3) # 2030 <.LBB77_5+0xb64>
     25c:	18050613          	addi	a2,a0,384
     260:	000026b7          	lui	a3,0x2
     264:	40d406b3          	sub	a3,s0,a3
     268:	02c6b423          	sd	a2,40(a3) # 2028 <.LBB77_5+0xb5c>
     26c:	1e050613          	addi	a2,a0,480
     270:	000026b7          	lui	a3,0x2
     274:	40d406b3          	sub	a3,s0,a3
     278:	02c6b023          	sd	a2,32(a3) # 2020 <.LBB77_5+0xb54>
     27c:	24050613          	addi	a2,a0,576
     280:	000026b7          	lui	a3,0x2
     284:	40d406b3          	sub	a3,s0,a3
     288:	00c6bc23          	sd	a2,24(a3) # 2018 <.LBB77_5+0xb4c>
     28c:	00002637          	lui	a2,0x2
     290:	40c40633          	sub	a2,s0,a2
     294:	04a63423          	sd	a0,72(a2) # 2048 <.LBB77_5+0xb7c>
     298:	2a050513          	addi	a0,a0,672
     29c:	00002637          	lui	a2,0x2
     2a0:	40c40633          	sub	a2,s0,a2
     2a4:	00a63823          	sd	a0,16(a2) # 2010 <.LBB77_5+0xb44>
     2a8:	4590006f          	j	f00 <.LBB77_4>

00000000000002ac <.LBB77_3>:
     2ac:	94d43023          	sd	a3,-1728(s0)
     2b0:	fff98613          	addi	a2,s3,-1
     2b4:	000026b7          	lui	a3,0x2
     2b8:	40d406b3          	sub	a3,s0,a3
     2bc:	0506b983          	ld	s3,80(a3) # 2050 <.LBB77_5+0xb84>
     2c0:	000016b7          	lui	a3,0x1
     2c4:	40d406b3          	sub	a3,s0,a3
     2c8:	ff86b683          	ld	a3,-8(a3) # ff8 <.LBB77_4+0xf8>
     2cc:	00d986b3          	add	a3,s3,a3
     2d0:	00c681a3          	sb	a2,3(a3)
     2d4:	e4843603          	ld	a2,-440(s0)
     2d8:	fff60613          	addi	a2,a2,-1
     2dc:	00c68123          	sb	a2,2(a3)
     2e0:	e5843603          	ld	a2,-424(s0)
     2e4:	fff60613          	addi	a2,a2,-1
     2e8:	00c680a3          	sb	a2,1(a3)
     2ec:	e6843603          	ld	a2,-408(s0)
     2f0:	fff60613          	addi	a2,a2,-1
     2f4:	00c68023          	sb	a2,0(a3)
     2f8:	e7843603          	ld	a2,-392(s0)
     2fc:	fff60613          	addi	a2,a2,-1
     300:	00c68223          	sb	a2,4(a3)
     304:	e8843603          	ld	a2,-376(s0)
     308:	fff60613          	addi	a2,a2,-1
     30c:	00c682a3          	sb	a2,5(a3)
     310:	e9843603          	ld	a2,-360(s0)
     314:	fff60613          	addi	a2,a2,-1
     318:	00c68323          	sb	a2,6(a3)
     31c:	ea843603          	ld	a2,-344(s0)
     320:	fff60613          	addi	a2,a2,-1
     324:	00c683a3          	sb	a2,7(a3)
     328:	eb843603          	ld	a2,-328(s0)
     32c:	fff60613          	addi	a2,a2,-1
     330:	00c68423          	sb	a2,8(a3)
     334:	ec843603          	ld	a2,-312(s0)
     338:	fff60613          	addi	a2,a2,-1
     33c:	00c684a3          	sb	a2,9(a3)
     340:	ed843603          	ld	a2,-296(s0)
     344:	fff60613          	addi	a2,a2,-1
     348:	00c68523          	sb	a2,10(a3)
     34c:	ee043603          	ld	a2,-288(s0)
     350:	fff60613          	addi	a2,a2,-1
     354:	00c685a3          	sb	a2,11(a3)
     358:	ee843603          	ld	a2,-280(s0)
     35c:	fff60613          	addi	a2,a2,-1
     360:	00c68623          	sb	a2,12(a3)
     364:	ef043603          	ld	a2,-272(s0)
     368:	fff60613          	addi	a2,a2,-1
     36c:	00c686a3          	sb	a2,13(a3)
     370:	ef843603          	ld	a2,-264(s0)
     374:	fff60613          	addi	a2,a2,-1
     378:	00c68723          	sb	a2,14(a3)
     37c:	f0043603          	ld	a2,-256(s0)
     380:	fff60613          	addi	a2,a2,-1
     384:	00c687a3          	sb	a2,15(a3)
     388:	f0843603          	ld	a2,-248(s0)
     38c:	fff60613          	addi	a2,a2,-1
     390:	00c68823          	sb	a2,16(a3)
     394:	f1043603          	ld	a2,-240(s0)
     398:	fff60613          	addi	a2,a2,-1
     39c:	00c688a3          	sb	a2,17(a3)
     3a0:	f1843603          	ld	a2,-232(s0)
     3a4:	fff60613          	addi	a2,a2,-1
     3a8:	00c68923          	sb	a2,18(a3)
     3ac:	f2043603          	ld	a2,-224(s0)
     3b0:	fff60613          	addi	a2,a2,-1
     3b4:	00c689a3          	sb	a2,19(a3)
     3b8:	f2843603          	ld	a2,-216(s0)
     3bc:	fff60613          	addi	a2,a2,-1
     3c0:	00c68a23          	sb	a2,20(a3)
     3c4:	f3043603          	ld	a2,-208(s0)
     3c8:	fff60613          	addi	a2,a2,-1
     3cc:	00c68aa3          	sb	a2,21(a3)
     3d0:	f3843603          	ld	a2,-200(s0)
     3d4:	fff60613          	addi	a2,a2,-1
     3d8:	00c68b23          	sb	a2,22(a3)
     3dc:	f4043603          	ld	a2,-192(s0)
     3e0:	fff60613          	addi	a2,a2,-1
     3e4:	00c68ba3          	sb	a2,23(a3)
     3e8:	f4843603          	ld	a2,-184(s0)
     3ec:	fff60613          	addi	a2,a2,-1
     3f0:	00c68c23          	sb	a2,24(a3)
     3f4:	f5043603          	ld	a2,-176(s0)
     3f8:	fff60613          	addi	a2,a2,-1
     3fc:	00c68ca3          	sb	a2,25(a3)
     400:	f5843603          	ld	a2,-168(s0)
     404:	fff60613          	addi	a2,a2,-1
     408:	00c68d23          	sb	a2,26(a3)
     40c:	f6043603          	ld	a2,-160(s0)
     410:	fff60613          	addi	a2,a2,-1
     414:	00c68da3          	sb	a2,27(a3)
     418:	f6843603          	ld	a2,-152(s0)
     41c:	fff60613          	addi	a2,a2,-1
     420:	00c68e23          	sb	a2,28(a3)
     424:	f7043603          	ld	a2,-144(s0)
     428:	fff60613          	addi	a2,a2,-1
     42c:	00c68ea3          	sb	a2,29(a3)
     430:	f7843603          	ld	a2,-136(s0)
     434:	fff60613          	addi	a2,a2,-1
     438:	00c68f23          	sb	a2,30(a3)
     43c:	f8843603          	ld	a2,-120(s0)
     440:	fff60613          	addi	a2,a2,-1
     444:	00c68fa3          	sb	a2,31(a3)
     448:	d4043683          	ld	a3,-704(s0)
     44c:	fff68693          	addi	a3,a3,-1
     450:	00001637          	lui	a2,0x1
     454:	40c40633          	sub	a2,s0,a2
     458:	00063603          	ld	a2,0(a2) # 1000 <.LBB77_4+0x100>
     45c:	00c98633          	add	a2,s3,a2
     460:	00d60fa3          	sb	a3,31(a2)
     464:	d5043683          	ld	a3,-688(s0)
     468:	fff68693          	addi	a3,a3,-1
     46c:	00d60f23          	sb	a3,30(a2)
     470:	d6043683          	ld	a3,-672(s0)
     474:	fff68693          	addi	a3,a3,-1
     478:	00d60ea3          	sb	a3,29(a2)
     47c:	d7043683          	ld	a3,-656(s0)
     480:	fff68693          	addi	a3,a3,-1
     484:	00d60e23          	sb	a3,28(a2)
     488:	d8043683          	ld	a3,-640(s0)
     48c:	fff68693          	addi	a3,a3,-1
     490:	00d60da3          	sb	a3,27(a2)
     494:	d9043683          	ld	a3,-624(s0)
     498:	fff68693          	addi	a3,a3,-1
     49c:	00d60d23          	sb	a3,26(a2)
     4a0:	da043683          	ld	a3,-608(s0)
     4a4:	fff68693          	addi	a3,a3,-1
     4a8:	00d60ca3          	sb	a3,25(a2)
     4ac:	db043683          	ld	a3,-592(s0)
     4b0:	fff68693          	addi	a3,a3,-1
     4b4:	00d60c23          	sb	a3,24(a2)
     4b8:	dc043683          	ld	a3,-576(s0)
     4bc:	fff68693          	addi	a3,a3,-1
     4c0:	00d60ba3          	sb	a3,23(a2)
     4c4:	dd043683          	ld	a3,-560(s0)
     4c8:	fff68693          	addi	a3,a3,-1
     4cc:	00d60b23          	sb	a3,22(a2)
     4d0:	de043683          	ld	a3,-544(s0)
     4d4:	fff68693          	addi	a3,a3,-1
     4d8:	00d60aa3          	sb	a3,21(a2)
     4dc:	de843683          	ld	a3,-536(s0)
     4e0:	fff68693          	addi	a3,a3,-1
     4e4:	00d60a23          	sb	a3,20(a2)
     4e8:	df043683          	ld	a3,-528(s0)
     4ec:	fff68693          	addi	a3,a3,-1
     4f0:	00d609a3          	sb	a3,19(a2)
     4f4:	df843683          	ld	a3,-520(s0)
     4f8:	fff68693          	addi	a3,a3,-1
     4fc:	00d60923          	sb	a3,18(a2)
     500:	e0043683          	ld	a3,-512(s0)
     504:	fff68693          	addi	a3,a3,-1
     508:	00d608a3          	sb	a3,17(a2)
     50c:	e0843683          	ld	a3,-504(s0)
     510:	fff68693          	addi	a3,a3,-1
     514:	00d60823          	sb	a3,16(a2)
     518:	e1043683          	ld	a3,-496(s0)
     51c:	fff68693          	addi	a3,a3,-1
     520:	00d607a3          	sb	a3,15(a2)
     524:	e1843683          	ld	a3,-488(s0)
     528:	fff68693          	addi	a3,a3,-1
     52c:	00d60723          	sb	a3,14(a2)
     530:	e2043683          	ld	a3,-480(s0)
     534:	fff68693          	addi	a3,a3,-1
     538:	00d606a3          	sb	a3,13(a2)
     53c:	e2843683          	ld	a3,-472(s0)
     540:	fff68693          	addi	a3,a3,-1
     544:	00d60623          	sb	a3,12(a2)
     548:	e3043683          	ld	a3,-464(s0)
     54c:	fff68693          	addi	a3,a3,-1
     550:	00d605a3          	sb	a3,11(a2)
     554:	e3843683          	ld	a3,-456(s0)
     558:	fff68693          	addi	a3,a3,-1
     55c:	00d60523          	sb	a3,10(a2)
     560:	e4043683          	ld	a3,-448(s0)
     564:	fff68693          	addi	a3,a3,-1
     568:	00d604a3          	sb	a3,9(a2)
     56c:	e5043683          	ld	a3,-432(s0)
     570:	fff68693          	addi	a3,a3,-1
     574:	00d60423          	sb	a3,8(a2)
     578:	e6043683          	ld	a3,-416(s0)
     57c:	fff68693          	addi	a3,a3,-1
     580:	00d603a3          	sb	a3,7(a2)
     584:	e7043683          	ld	a3,-400(s0)
     588:	fff68693          	addi	a3,a3,-1
     58c:	00d60323          	sb	a3,6(a2)
     590:	e8043683          	ld	a3,-384(s0)
     594:	fff68693          	addi	a3,a3,-1
     598:	00d602a3          	sb	a3,5(a2)
     59c:	e9043683          	ld	a3,-368(s0)
     5a0:	fff68693          	addi	a3,a3,-1
     5a4:	00d60223          	sb	a3,4(a2)
     5a8:	ea043683          	ld	a3,-352(s0)
     5ac:	fff68693          	addi	a3,a3,-1
     5b0:	00d601a3          	sb	a3,3(a2)
     5b4:	eb043683          	ld	a3,-336(s0)
     5b8:	fff68693          	addi	a3,a3,-1
     5bc:	00d60123          	sb	a3,2(a2)
     5c0:	ec043683          	ld	a3,-320(s0)
     5c4:	fff68693          	addi	a3,a3,-1
     5c8:	00d600a3          	sb	a3,1(a2)
     5cc:	ed043683          	ld	a3,-304(s0)
     5d0:	fff68693          	addi	a3,a3,-1
     5d4:	00d60023          	sb	a3,0(a2)
     5d8:	c4043683          	ld	a3,-960(s0)
     5dc:	fff68693          	addi	a3,a3,-1
     5e0:	00001637          	lui	a2,0x1
     5e4:	40c40633          	sub	a2,s0,a2
     5e8:	00863603          	ld	a2,8(a2) # 1008 <.LBB77_4+0x108>
     5ec:	00c98633          	add	a2,s3,a2
     5f0:	00d60fa3          	sb	a3,31(a2)
     5f4:	c5043683          	ld	a3,-944(s0)
     5f8:	fff68693          	addi	a3,a3,-1
     5fc:	00d60f23          	sb	a3,30(a2)
     600:	c6043683          	ld	a3,-928(s0)
     604:	fff68693          	addi	a3,a3,-1
     608:	00d60ea3          	sb	a3,29(a2)
     60c:	c7043683          	ld	a3,-912(s0)
     610:	fff68693          	addi	a3,a3,-1
     614:	00d60e23          	sb	a3,28(a2)
     618:	c8043683          	ld	a3,-896(s0)
     61c:	fff68693          	addi	a3,a3,-1
     620:	00d60da3          	sb	a3,27(a2)
     624:	c9043683          	ld	a3,-880(s0)
     628:	fff68693          	addi	a3,a3,-1
     62c:	00d60d23          	sb	a3,26(a2)
     630:	ca043683          	ld	a3,-864(s0)
     634:	fff68693          	addi	a3,a3,-1
     638:	00d60ca3          	sb	a3,25(a2)
     63c:	cb043683          	ld	a3,-848(s0)
     640:	fff68693          	addi	a3,a3,-1
     644:	00d60c23          	sb	a3,24(a2)
     648:	cc043683          	ld	a3,-832(s0)
     64c:	fff68693          	addi	a3,a3,-1
     650:	00d60ba3          	sb	a3,23(a2)
     654:	cd043683          	ld	a3,-816(s0)
     658:	fff68693          	addi	a3,a3,-1
     65c:	00d60b23          	sb	a3,22(a2)
     660:	ce043683          	ld	a3,-800(s0)
     664:	fff68693          	addi	a3,a3,-1
     668:	00d60aa3          	sb	a3,21(a2)
     66c:	ce843683          	ld	a3,-792(s0)
     670:	fff68693          	addi	a3,a3,-1
     674:	00d60a23          	sb	a3,20(a2)
     678:	cf043683          	ld	a3,-784(s0)
     67c:	fff68693          	addi	a3,a3,-1
     680:	00d609a3          	sb	a3,19(a2)
     684:	cf843683          	ld	a3,-776(s0)
     688:	fff68693          	addi	a3,a3,-1
     68c:	00d60923          	sb	a3,18(a2)
     690:	d0043683          	ld	a3,-768(s0)
     694:	fff68693          	addi	a3,a3,-1
     698:	00d608a3          	sb	a3,17(a2)
     69c:	d0843683          	ld	a3,-760(s0)
     6a0:	fff68693          	addi	a3,a3,-1
     6a4:	00d60823          	sb	a3,16(a2)
     6a8:	d1043683          	ld	a3,-752(s0)
     6ac:	fff68693          	addi	a3,a3,-1
     6b0:	00d607a3          	sb	a3,15(a2)
     6b4:	d1843683          	ld	a3,-744(s0)
     6b8:	fff68693          	addi	a3,a3,-1
     6bc:	00d60723          	sb	a3,14(a2)
     6c0:	d2043683          	ld	a3,-736(s0)
     6c4:	fff68693          	addi	a3,a3,-1
     6c8:	00d606a3          	sb	a3,13(a2)
     6cc:	d2843683          	ld	a3,-728(s0)
     6d0:	fff68693          	addi	a3,a3,-1
     6d4:	00d60623          	sb	a3,12(a2)
     6d8:	d3043683          	ld	a3,-720(s0)
     6dc:	fff68693          	addi	a3,a3,-1
     6e0:	00d605a3          	sb	a3,11(a2)
     6e4:	d3843683          	ld	a3,-712(s0)
     6e8:	fff68693          	addi	a3,a3,-1
     6ec:	00d60523          	sb	a3,10(a2)
     6f0:	d4843683          	ld	a3,-696(s0)
     6f4:	fff68693          	addi	a3,a3,-1
     6f8:	00d604a3          	sb	a3,9(a2)
     6fc:	d5843683          	ld	a3,-680(s0)
     700:	fff68693          	addi	a3,a3,-1
     704:	00d60423          	sb	a3,8(a2)
     708:	d6843683          	ld	a3,-664(s0)
     70c:	fff68693          	addi	a3,a3,-1
     710:	00d603a3          	sb	a3,7(a2)
     714:	d7843683          	ld	a3,-648(s0)
     718:	fff68693          	addi	a3,a3,-1
     71c:	00d60323          	sb	a3,6(a2)
     720:	d8843683          	ld	a3,-632(s0)
     724:	fff68693          	addi	a3,a3,-1
     728:	00d602a3          	sb	a3,5(a2)
     72c:	d9843683          	ld	a3,-616(s0)
     730:	fff68693          	addi	a3,a3,-1
     734:	00d60223          	sb	a3,4(a2)
     738:	da843683          	ld	a3,-600(s0)
     73c:	fff68693          	addi	a3,a3,-1
     740:	00d601a3          	sb	a3,3(a2)
     744:	db843683          	ld	a3,-584(s0)
     748:	fff68693          	addi	a3,a3,-1
     74c:	00d60123          	sb	a3,2(a2)
     750:	dc843683          	ld	a3,-568(s0)
     754:	fff68693          	addi	a3,a3,-1
     758:	00d600a3          	sb	a3,1(a2)
     75c:	dd843683          	ld	a3,-552(s0)
     760:	fff68693          	addi	a3,a3,-1
     764:	00d60023          	sb	a3,0(a2)
     768:	b4043683          	ld	a3,-1216(s0)
     76c:	fff68693          	addi	a3,a3,-1
     770:	00001637          	lui	a2,0x1
     774:	40c40633          	sub	a2,s0,a2
     778:	01063603          	ld	a2,16(a2) # 1010 <.LBB77_4+0x110>
     77c:	00c98633          	add	a2,s3,a2
     780:	00d60fa3          	sb	a3,31(a2)
     784:	b5043683          	ld	a3,-1200(s0)
     788:	fff68693          	addi	a3,a3,-1
     78c:	00d60f23          	sb	a3,30(a2)
     790:	b6043683          	ld	a3,-1184(s0)
     794:	fff68693          	addi	a3,a3,-1
     798:	00d60ea3          	sb	a3,29(a2)
     79c:	b7043683          	ld	a3,-1168(s0)
     7a0:	fff68693          	addi	a3,a3,-1
     7a4:	00d60e23          	sb	a3,28(a2)
     7a8:	b8043683          	ld	a3,-1152(s0)
     7ac:	fff68693          	addi	a3,a3,-1
     7b0:	00d60da3          	sb	a3,27(a2)
     7b4:	b9043683          	ld	a3,-1136(s0)
     7b8:	fff68693          	addi	a3,a3,-1
     7bc:	00d60d23          	sb	a3,26(a2)
     7c0:	ba043683          	ld	a3,-1120(s0)
     7c4:	fff68693          	addi	a3,a3,-1
     7c8:	00d60ca3          	sb	a3,25(a2)
     7cc:	bb043683          	ld	a3,-1104(s0)
     7d0:	fff68693          	addi	a3,a3,-1
     7d4:	00d60c23          	sb	a3,24(a2)
     7d8:	bc043683          	ld	a3,-1088(s0)
     7dc:	fff68693          	addi	a3,a3,-1
     7e0:	00d60ba3          	sb	a3,23(a2)
     7e4:	bd043683          	ld	a3,-1072(s0)
     7e8:	fff68693          	addi	a3,a3,-1
     7ec:	00d60b23          	sb	a3,22(a2)
     7f0:	be043683          	ld	a3,-1056(s0)
     7f4:	fff68693          	addi	a3,a3,-1
     7f8:	00d60aa3          	sb	a3,21(a2)
     7fc:	be843683          	ld	a3,-1048(s0)
     800:	fff68693          	addi	a3,a3,-1
     804:	00d60a23          	sb	a3,20(a2)
     808:	bf043683          	ld	a3,-1040(s0)
     80c:	fff68693          	addi	a3,a3,-1
     810:	00d609a3          	sb	a3,19(a2)
     814:	bf843683          	ld	a3,-1032(s0)
     818:	fff68693          	addi	a3,a3,-1
     81c:	00d60923          	sb	a3,18(a2)
     820:	c0043683          	ld	a3,-1024(s0)
     824:	fff68693          	addi	a3,a3,-1
     828:	00d608a3          	sb	a3,17(a2)
     82c:	c0843683          	ld	a3,-1016(s0)
     830:	fff68693          	addi	a3,a3,-1
     834:	00d60823          	sb	a3,16(a2)
     838:	c1043683          	ld	a3,-1008(s0)
     83c:	fff68693          	addi	a3,a3,-1
     840:	00d607a3          	sb	a3,15(a2)
     844:	c1843683          	ld	a3,-1000(s0)
     848:	fff68693          	addi	a3,a3,-1
     84c:	00d60723          	sb	a3,14(a2)
     850:	c2043683          	ld	a3,-992(s0)
     854:	fff68693          	addi	a3,a3,-1
     858:	00d606a3          	sb	a3,13(a2)
     85c:	c2843683          	ld	a3,-984(s0)
     860:	fff68693          	addi	a3,a3,-1
     864:	00d60623          	sb	a3,12(a2)
     868:	c3043683          	ld	a3,-976(s0)
     86c:	fff68693          	addi	a3,a3,-1
     870:	00d605a3          	sb	a3,11(a2)
     874:	c3843683          	ld	a3,-968(s0)
     878:	fff68693          	addi	a3,a3,-1
     87c:	00d60523          	sb	a3,10(a2)
     880:	c4843683          	ld	a3,-952(s0)
     884:	fff68693          	addi	a3,a3,-1
     888:	00d604a3          	sb	a3,9(a2)
     88c:	c5843683          	ld	a3,-936(s0)
     890:	fff68693          	addi	a3,a3,-1
     894:	00d60423          	sb	a3,8(a2)
     898:	c6843683          	ld	a3,-920(s0)
     89c:	fff68693          	addi	a3,a3,-1
     8a0:	00d603a3          	sb	a3,7(a2)
     8a4:	c7843683          	ld	a3,-904(s0)
     8a8:	fff68693          	addi	a3,a3,-1
     8ac:	00d60323          	sb	a3,6(a2)
     8b0:	c8843683          	ld	a3,-888(s0)
     8b4:	fff68693          	addi	a3,a3,-1
     8b8:	00d602a3          	sb	a3,5(a2)
     8bc:	c9843683          	ld	a3,-872(s0)
     8c0:	fff68693          	addi	a3,a3,-1
     8c4:	00d60223          	sb	a3,4(a2)
     8c8:	ca843683          	ld	a3,-856(s0)
     8cc:	fff68693          	addi	a3,a3,-1
     8d0:	00d601a3          	sb	a3,3(a2)
     8d4:	cb843683          	ld	a3,-840(s0)
     8d8:	fff68693          	addi	a3,a3,-1
     8dc:	00d60123          	sb	a3,2(a2)
     8e0:	cc843683          	ld	a3,-824(s0)
     8e4:	fff68693          	addi	a3,a3,-1
     8e8:	00d600a3          	sb	a3,1(a2)
     8ec:	cd843683          	ld	a3,-808(s0)
     8f0:	fff68693          	addi	a3,a3,-1
     8f4:	00d60023          	sb	a3,0(a2)
     8f8:	fffd0693          	addi	a3,s10,-1
     8fc:	00001637          	lui	a2,0x1
     900:	40c40633          	sub	a2,s0,a2
     904:	01863603          	ld	a2,24(a2) # 1018 <.LBB77_4+0x118>
     908:	00c98633          	add	a2,s3,a2
     90c:	00d60fa3          	sb	a3,31(a2)
     910:	fffc8693          	addi	a3,s9,-1
     914:	00d60f23          	sb	a3,30(a2)
     918:	ffff0693          	addi	a3,t5,-1
     91c:	00d60ea3          	sb	a3,29(a2)
     920:	ffff8693          	addi	a3,t6,-1
     924:	00d60e23          	sb	a3,28(a2)
     928:	a8043683          	ld	a3,-1408(s0)
     92c:	fff68693          	addi	a3,a3,-1
     930:	00d60da3          	sb	a3,27(a2)
     934:	a9043683          	ld	a3,-1392(s0)
     938:	fff68693          	addi	a3,a3,-1
     93c:	00d60d23          	sb	a3,26(a2)
     940:	aa043683          	ld	a3,-1376(s0)
     944:	fff68693          	addi	a3,a3,-1
     948:	00d60ca3          	sb	a3,25(a2)
     94c:	ab043683          	ld	a3,-1360(s0)
     950:	fff68693          	addi	a3,a3,-1
     954:	00d60c23          	sb	a3,24(a2)
     958:	ac043683          	ld	a3,-1344(s0)
     95c:	fff68693          	addi	a3,a3,-1
     960:	00d60ba3          	sb	a3,23(a2)
     964:	ad043683          	ld	a3,-1328(s0)
     968:	fff68693          	addi	a3,a3,-1
     96c:	00d60b23          	sb	a3,22(a2)
     970:	ae043683          	ld	a3,-1312(s0)
     974:	fff68693          	addi	a3,a3,-1
     978:	00d60aa3          	sb	a3,21(a2)
     97c:	ae843683          	ld	a3,-1304(s0)
     980:	fff68693          	addi	a3,a3,-1
     984:	00d60a23          	sb	a3,20(a2)
     988:	af043683          	ld	a3,-1296(s0)
     98c:	fff68693          	addi	a3,a3,-1
     990:	00d609a3          	sb	a3,19(a2)
     994:	af843683          	ld	a3,-1288(s0)
     998:	fff68693          	addi	a3,a3,-1
     99c:	00d60923          	sb	a3,18(a2)
     9a0:	b0043683          	ld	a3,-1280(s0)
     9a4:	fff68693          	addi	a3,a3,-1
     9a8:	00d608a3          	sb	a3,17(a2)
     9ac:	b0843683          	ld	a3,-1272(s0)
     9b0:	fff68693          	addi	a3,a3,-1
     9b4:	00d60823          	sb	a3,16(a2)
     9b8:	b1043683          	ld	a3,-1264(s0)
     9bc:	fff68693          	addi	a3,a3,-1
     9c0:	00d607a3          	sb	a3,15(a2)
     9c4:	b1843683          	ld	a3,-1256(s0)
     9c8:	fff68693          	addi	a3,a3,-1
     9cc:	00d60723          	sb	a3,14(a2)
     9d0:	b2043683          	ld	a3,-1248(s0)
     9d4:	fff68693          	addi	a3,a3,-1
     9d8:	00d606a3          	sb	a3,13(a2)
     9dc:	b2843683          	ld	a3,-1240(s0)
     9e0:	fff68693          	addi	a3,a3,-1
     9e4:	00d60623          	sb	a3,12(a2)
     9e8:	b3043683          	ld	a3,-1232(s0)
     9ec:	fff68693          	addi	a3,a3,-1
     9f0:	00d605a3          	sb	a3,11(a2)
     9f4:	b3843683          	ld	a3,-1224(s0)
     9f8:	fff68693          	addi	a3,a3,-1
     9fc:	00d60523          	sb	a3,10(a2)
     a00:	b4843683          	ld	a3,-1208(s0)
     a04:	fff68693          	addi	a3,a3,-1
     a08:	00d604a3          	sb	a3,9(a2)
     a0c:	b5843683          	ld	a3,-1192(s0)
     a10:	fff68693          	addi	a3,a3,-1
     a14:	00d60423          	sb	a3,8(a2)
     a18:	b6843683          	ld	a3,-1176(s0)
     a1c:	fff68693          	addi	a3,a3,-1
     a20:	00d603a3          	sb	a3,7(a2)
     a24:	b7843683          	ld	a3,-1160(s0)
     a28:	fff68693          	addi	a3,a3,-1
     a2c:	00d60323          	sb	a3,6(a2)
     a30:	b8843683          	ld	a3,-1144(s0)
     a34:	fff68693          	addi	a3,a3,-1
     a38:	00d602a3          	sb	a3,5(a2)
     a3c:	b9843683          	ld	a3,-1128(s0)
     a40:	fff68693          	addi	a3,a3,-1
     a44:	00d60223          	sb	a3,4(a2)
     a48:	ba843683          	ld	a3,-1112(s0)
     a4c:	fff68693          	addi	a3,a3,-1
     a50:	00d601a3          	sb	a3,3(a2)
     a54:	bb843683          	ld	a3,-1096(s0)
     a58:	fff68693          	addi	a3,a3,-1
     a5c:	00d60123          	sb	a3,2(a2)
     a60:	bc843683          	ld	a3,-1080(s0)
     a64:	fff68693          	addi	a3,a3,-1
     a68:	00d600a3          	sb	a3,1(a2)
     a6c:	bd843683          	ld	a3,-1064(s0)
     a70:	fff68693          	addi	a3,a3,-1
     a74:	00d60023          	sb	a3,0(a2)
     a78:	9a843683          	ld	a3,-1624(s0)
     a7c:	fff68693          	addi	a3,a3,-1
     a80:	00001637          	lui	a2,0x1
     a84:	40c40633          	sub	a2,s0,a2
     a88:	02063603          	ld	a2,32(a2) # 1020 <.LBB77_4+0x120>
     a8c:	00c98633          	add	a2,s3,a2
     a90:	00d60fa3          	sb	a3,31(a2)
     a94:	9b843683          	ld	a3,-1608(s0)
     a98:	fff68693          	addi	a3,a3,-1
     a9c:	00d60f23          	sb	a3,30(a2)
     aa0:	9c843683          	ld	a3,-1592(s0)
     aa4:	fff68693          	addi	a3,a3,-1
     aa8:	00d60ea3          	sb	a3,29(a2)
     aac:	9d843683          	ld	a3,-1576(s0)
     ab0:	fff68693          	addi	a3,a3,-1
     ab4:	00d60e23          	sb	a3,28(a2)
     ab8:	9e843683          	ld	a3,-1560(s0)
     abc:	fff68693          	addi	a3,a3,-1
     ac0:	00d60da3          	sb	a3,27(a2)
     ac4:	9f843683          	ld	a3,-1544(s0)
     ac8:	fff68693          	addi	a3,a3,-1
     acc:	00d60d23          	sb	a3,26(a2)
     ad0:	a0843683          	ld	a3,-1528(s0)
     ad4:	fff68693          	addi	a3,a3,-1
     ad8:	00d60ca3          	sb	a3,25(a2)
     adc:	a1843683          	ld	a3,-1512(s0)
     ae0:	fff68693          	addi	a3,a3,-1
     ae4:	00d60c23          	sb	a3,24(a2)
     ae8:	a2843683          	ld	a3,-1496(s0)
     aec:	fff68693          	addi	a3,a3,-1
     af0:	00d60ba3          	sb	a3,23(a2)
     af4:	a3843683          	ld	a3,-1480(s0)
     af8:	fff68693          	addi	a3,a3,-1
     afc:	00d60b23          	sb	a3,22(a2)
     b00:	a4843683          	ld	a3,-1464(s0)
     b04:	fff68693          	addi	a3,a3,-1
     b08:	00d60aa3          	sb	a3,21(a2)
     b0c:	a5043683          	ld	a3,-1456(s0)
     b10:	fff68693          	addi	a3,a3,-1
     b14:	00d60a23          	sb	a3,20(a2)
     b18:	a5843683          	ld	a3,-1448(s0)
     b1c:	fff68693          	addi	a3,a3,-1
     b20:	00d609a3          	sb	a3,19(a2)
     b24:	a6043683          	ld	a3,-1440(s0)
     b28:	fff68693          	addi	a3,a3,-1
     b2c:	00d60923          	sb	a3,18(a2)
     b30:	a6843683          	ld	a3,-1432(s0)
     b34:	fff68693          	addi	a3,a3,-1
     b38:	00d608a3          	sb	a3,17(a2)
     b3c:	a7043683          	ld	a3,-1424(s0)
     b40:	fff68693          	addi	a3,a3,-1
     b44:	00d60823          	sb	a3,16(a2)
     b48:	fffa8693          	addi	a3,s5,-1
     b4c:	00d607a3          	sb	a3,15(a2)
     b50:	fff90693          	addi	a3,s2,-1
     b54:	00d60723          	sb	a3,14(a2)
     b58:	fffa0693          	addi	a3,s4,-1
     b5c:	00d606a3          	sb	a3,13(a2)
     b60:	fffe8693          	addi	a3,t4,-1
     b64:	00d60623          	sb	a3,12(a2)
     b68:	fff08693          	addi	a3,ra,-1
     b6c:	00d605a3          	sb	a3,11(a2)
     b70:	fffb8693          	addi	a3,s7,-1
     b74:	00d60523          	sb	a3,10(a2)
     b78:	fffd8693          	addi	a3,s11,-1
     b7c:	00d604a3          	sb	a3,9(a2)
     b80:	fffc0693          	addi	a3,s8,-1
     b84:	00d60423          	sb	a3,8(a2)
     b88:	fffb0693          	addi	a3,s6,-1
     b8c:	00d603a3          	sb	a3,7(a2)
     b90:	a7843683          	ld	a3,-1416(s0)
     b94:	fff68693          	addi	a3,a3,-1
     b98:	00d60323          	sb	a3,6(a2)
     b9c:	a8843683          	ld	a3,-1400(s0)
     ba0:	fff68693          	addi	a3,a3,-1
     ba4:	00d602a3          	sb	a3,5(a2)
     ba8:	a9843683          	ld	a3,-1384(s0)
     bac:	fff68693          	addi	a3,a3,-1
     bb0:	00d60223          	sb	a3,4(a2)
     bb4:	aa843683          	ld	a3,-1368(s0)
     bb8:	fff68693          	addi	a3,a3,-1
     bbc:	00d601a3          	sb	a3,3(a2)
     bc0:	ab843683          	ld	a3,-1352(s0)
     bc4:	fff68693          	addi	a3,a3,-1
     bc8:	00d60123          	sb	a3,2(a2)
     bcc:	ac843683          	ld	a3,-1336(s0)
     bd0:	fff68693          	addi	a3,a3,-1
     bd4:	00d600a3          	sb	a3,1(a2)
     bd8:	ad843683          	ld	a3,-1320(s0)
     bdc:	fff68693          	addi	a3,a3,-1
     be0:	00d60023          	sb	a3,0(a2)
     be4:	8a843b03          	ld	s6,-1880(s0)
     be8:	fffb0b13          	addi	s6,s6,-1
     bec:	00001637          	lui	a2,0x1
     bf0:	40c40633          	sub	a2,s0,a2
     bf4:	02863603          	ld	a2,40(a2) # 1028 <.LBB77_4+0x128>
     bf8:	00c98633          	add	a2,s3,a2
     bfc:	01660fa3          	sb	s6,31(a2)
     c00:	8b843683          	ld	a3,-1864(s0)
     c04:	fff68693          	addi	a3,a3,-1
     c08:	00d60f23          	sb	a3,30(a2)
     c0c:	8c843683          	ld	a3,-1848(s0)
     c10:	fff68693          	addi	a3,a3,-1
     c14:	00d60ea3          	sb	a3,29(a2)
     c18:	8d843683          	ld	a3,-1832(s0)
     c1c:	fff68693          	addi	a3,a3,-1
     c20:	00d60e23          	sb	a3,28(a2)
     c24:	8e843683          	ld	a3,-1816(s0)
     c28:	fff68693          	addi	a3,a3,-1
     c2c:	00d60da3          	sb	a3,27(a2)
     c30:	8f843683          	ld	a3,-1800(s0)
     c34:	fff68693          	addi	a3,a3,-1
     c38:	00d60d23          	sb	a3,26(a2)
     c3c:	90843683          	ld	a3,-1784(s0)
     c40:	fff68693          	addi	a3,a3,-1
     c44:	00d60ca3          	sb	a3,25(a2)
     c48:	91843683          	ld	a3,-1768(s0)
     c4c:	fff68693          	addi	a3,a3,-1
     c50:	00d60c23          	sb	a3,24(a2)
     c54:	92843683          	ld	a3,-1752(s0)
     c58:	fff68693          	addi	a3,a3,-1
     c5c:	00d60ba3          	sb	a3,23(a2)
     c60:	93843683          	ld	a3,-1736(s0)
     c64:	fff68693          	addi	a3,a3,-1
     c68:	00d60b23          	sb	a3,22(a2)
     c6c:	94843683          	ld	a3,-1720(s0)
     c70:	fff68693          	addi	a3,a3,-1
     c74:	00d60aa3          	sb	a3,21(a2)
     c78:	95043683          	ld	a3,-1712(s0)
     c7c:	fff68693          	addi	a3,a3,-1
     c80:	00d60a23          	sb	a3,20(a2)
     c84:	95843683          	ld	a3,-1704(s0)
     c88:	fff68693          	addi	a3,a3,-1
     c8c:	00d609a3          	sb	a3,19(a2)
     c90:	96043683          	ld	a3,-1696(s0)
     c94:	fff68693          	addi	a3,a3,-1
     c98:	00d60923          	sb	a3,18(a2)
     c9c:	96843683          	ld	a3,-1688(s0)
     ca0:	fff68693          	addi	a3,a3,-1
     ca4:	00d608a3          	sb	a3,17(a2)
     ca8:	97043683          	ld	a3,-1680(s0)
     cac:	fff68693          	addi	a3,a3,-1
     cb0:	00d60823          	sb	a3,16(a2)
     cb4:	97843683          	ld	a3,-1672(s0)
     cb8:	fff68693          	addi	a3,a3,-1
     cbc:	00d607a3          	sb	a3,15(a2)
     cc0:	98043683          	ld	a3,-1664(s0)
     cc4:	fff68693          	addi	a3,a3,-1
     cc8:	00d60723          	sb	a3,14(a2)
     ccc:	98843683          	ld	a3,-1656(s0)
     cd0:	fff68693          	addi	a3,a3,-1
     cd4:	00d606a3          	sb	a3,13(a2)
     cd8:	99043683          	ld	a3,-1648(s0)
     cdc:	fff68693          	addi	a3,a3,-1
     ce0:	00d60623          	sb	a3,12(a2)
     ce4:	99843683          	ld	a3,-1640(s0)
     ce8:	fff68693          	addi	a3,a3,-1
     cec:	00d605a3          	sb	a3,11(a2)
     cf0:	9a043683          	ld	a3,-1632(s0)
     cf4:	fff68693          	addi	a3,a3,-1
     cf8:	00d60523          	sb	a3,10(a2)
     cfc:	9b043683          	ld	a3,-1616(s0)
     d00:	fff68693          	addi	a3,a3,-1
     d04:	00d604a3          	sb	a3,9(a2)
     d08:	9c043683          	ld	a3,-1600(s0)
     d0c:	fff68693          	addi	a3,a3,-1
     d10:	00d60423          	sb	a3,8(a2)
     d14:	9d043683          	ld	a3,-1584(s0)
     d18:	fff68693          	addi	a3,a3,-1
     d1c:	00d603a3          	sb	a3,7(a2)
     d20:	9e043683          	ld	a3,-1568(s0)
     d24:	fff68693          	addi	a3,a3,-1
     d28:	00d60323          	sb	a3,6(a2)
     d2c:	9f043683          	ld	a3,-1552(s0)
     d30:	fff68693          	addi	a3,a3,-1
     d34:	00d602a3          	sb	a3,5(a2)
     d38:	a0043683          	ld	a3,-1536(s0)
     d3c:	fff68693          	addi	a3,a3,-1
     d40:	00d60223          	sb	a3,4(a2)
     d44:	a1043683          	ld	a3,-1520(s0)
     d48:	fff68693          	addi	a3,a3,-1
     d4c:	00d601a3          	sb	a3,3(a2)
     d50:	a2043683          	ld	a3,-1504(s0)
     d54:	fff68693          	addi	a3,a3,-1
     d58:	00d60123          	sb	a3,2(a2)
     d5c:	a3043683          	ld	a3,-1488(s0)
     d60:	fff68693          	addi	a3,a3,-1
     d64:	00d600a3          	sb	a3,1(a2)
     d68:	a4043683          	ld	a3,-1472(s0)
     d6c:	fff68693          	addi	a3,a3,-1
     d70:	00d60023          	sb	a3,0(a2)
     d74:	fff48493          	addi	s1,s1,-1
     d78:	00001637          	lui	a2,0x1
     d7c:	40c40633          	sub	a2,s0,a2
     d80:	03063603          	ld	a2,48(a2) # 1030 <.LBB77_4+0x130>
     d84:	00c98633          	add	a2,s3,a2
     d88:	00960fa3          	sb	s1,31(a2)
     d8c:	fffe0e13          	addi	t3,t3,-1
     d90:	01c60f23          	sb	t3,30(a2)
     d94:	fff70a93          	addi	s5,a4,-1
     d98:	01560ea3          	sb	s5,29(a2)
     d9c:	fff58913          	addi	s2,a1,-1
     da0:	01260e23          	sb	s2,28(a2)
     da4:	fff50a13          	addi	s4,a0,-1
     da8:	01460da3          	sb	s4,27(a2)
     dac:	fff38393          	addi	t2,t2,-1
     db0:	00760d23          	sb	t2,26(a2)
     db4:	fff30e93          	addi	t4,t1,-1
     db8:	01d60ca3          	sb	t4,25(a2)
     dbc:	fff28293          	addi	t0,t0,-1
     dc0:	00560c23          	sb	t0,24(a2)
     dc4:	fff88893          	addi	a7,a7,-1
     dc8:	01160ba3          	sb	a7,23(a2)
     dcc:	fff80813          	addi	a6,a6,-1
     dd0:	01060b23          	sb	a6,22(a2)
     dd4:	fff78793          	addi	a5,a5,-1
     dd8:	00f60aa3          	sb	a5,21(a2)
     ddc:	85043703          	ld	a4,-1968(s0)
     de0:	fff70713          	addi	a4,a4,-1
     de4:	00e60a23          	sb	a4,20(a2)
     de8:	85843583          	ld	a1,-1960(s0)
     dec:	fff58593          	addi	a1,a1,-1
     df0:	00b609a3          	sb	a1,19(a2)
     df4:	86043503          	ld	a0,-1952(s0)
     df8:	fff50513          	addi	a0,a0,-1
     dfc:	00a60923          	sb	a0,18(a2)
     e00:	86843303          	ld	t1,-1944(s0)
     e04:	fff30313          	addi	t1,t1,-1
     e08:	006608a3          	sb	t1,17(a2)
     e0c:	87043083          	ld	ra,-1936(s0)
     e10:	fff08093          	addi	ra,ra,-1
     e14:	00160823          	sb	ra,16(a2)
     e18:	87843b83          	ld	s7,-1928(s0)
     e1c:	fffb8b93          	addi	s7,s7,-1
     e20:	017607a3          	sb	s7,15(a2)
     e24:	88043d03          	ld	s10,-1920(s0)
     e28:	fffd0d13          	addi	s10,s10,-1
     e2c:	01a60723          	sb	s10,14(a2)
     e30:	88843d83          	ld	s11,-1912(s0)
     e34:	fffd8d93          	addi	s11,s11,-1
     e38:	01b606a3          	sb	s11,13(a2)
     e3c:	89043c83          	ld	s9,-1904(s0)
     e40:	fffc8c93          	addi	s9,s9,-1
     e44:	01960623          	sb	s9,12(a2)
     e48:	89843c03          	ld	s8,-1896(s0)
     e4c:	fffc0c13          	addi	s8,s8,-1
     e50:	018605a3          	sb	s8,11(a2)
     e54:	8a043f03          	ld	t5,-1888(s0)
     e58:	ffff0f13          	addi	t5,t5,-1
     e5c:	01e60523          	sb	t5,10(a2)
     e60:	8b043f83          	ld	t6,-1872(s0)
     e64:	ffff8f93          	addi	t6,t6,-1
     e68:	01f604a3          	sb	t6,9(a2)
     e6c:	8c043503          	ld	a0,-1856(s0)
     e70:	fff50513          	addi	a0,a0,-1
     e74:	00a60423          	sb	a0,8(a2)
     e78:	8d043503          	ld	a0,-1840(s0)
     e7c:	fff50513          	addi	a0,a0,-1
     e80:	00a603a3          	sb	a0,7(a2)
     e84:	8e043503          	ld	a0,-1824(s0)
     e88:	fff50513          	addi	a0,a0,-1
     e8c:	00a60323          	sb	a0,6(a2)
     e90:	8f043503          	ld	a0,-1808(s0)
     e94:	fff50513          	addi	a0,a0,-1
     e98:	00a602a3          	sb	a0,5(a2)
     e9c:	90043503          	ld	a0,-1792(s0)
     ea0:	fff50513          	addi	a0,a0,-1
     ea4:	00a60223          	sb	a0,4(a2)
     ea8:	91043503          	ld	a0,-1776(s0)
     eac:	fff50513          	addi	a0,a0,-1
     eb0:	00a601a3          	sb	a0,3(a2)
     eb4:	92043503          	ld	a0,-1760(s0)
     eb8:	fff50513          	addi	a0,a0,-1
     ebc:	00a60123          	sb	a0,2(a2)
     ec0:	93043503          	ld	a0,-1744(s0)
     ec4:	fff50513          	addi	a0,a0,-1
     ec8:	00a600a3          	sb	a0,1(a2)
     ecc:	94043503          	ld	a0,-1728(s0)
     ed0:	fff50513          	addi	a0,a0,-1
     ed4:	00a60023          	sb	a0,0(a2)
     ed8:	00001537          	lui	a0,0x1
     edc:	40a40533          	sub	a0,s0,a0
     ee0:	65853603          	ld	a2,1624(a0) # 1658 <.LBB77_5+0x18c>
     ee4:	02060593          	addi	a1,a2,32
     ee8:	00001537          	lui	a0,0x1
     eec:	40a40533          	sub	a0,s0,a0
     ef0:	03853903          	ld	s2,56(a0) # 1038 <.LBB77_4+0x138>
     ef4:	02090913          	addi	s2,s2,32
     ef8:	04000513          	li	a0,64
     efc:	a8a67463          	bgeu	a2,a0,184 <.LBB77_1>

0000000000000f00 <.LBB77_4>:
     f00:	00001537          	lui	a0,0x1
     f04:	40a40533          	sub	a0,s0,a0
     f08:	64b53c23          	sd	a1,1624(a0) # 1658 <.LBB77_5+0x18c>
     f0c:	00002537          	lui	a0,0x2
     f10:	40a40533          	sub	a0,s0,a0
     f14:	00853e83          	ld	t4,8(a0) # 2008 <.LBB77_5+0xb3c>
     f18:	00002537          	lui	a0,0x2
     f1c:	40a40533          	sub	a0,s0,a0
     f20:	07053503          	ld	a0,112(a0) # 2070 <.LBB77_5+0xba4>
     f24:	f6a43823          	sd	a0,-144(s0)
     f28:	00002537          	lui	a0,0x2
     f2c:	40a40533          	sub	a0,s0,a0
     f30:	07853a03          	ld	s4,120(a0) # 2078 <.LBB77_5+0xbac>
     f34:	00001537          	lui	a0,0x1
     f38:	40a40533          	sub	a0,s0,a0
     f3c:	03253c23          	sd	s2,56(a0) # 1038 <.LBB77_4+0x138>
     f40:	00090a93          	mv	s5,s2
     f44:	00001537          	lui	a0,0x1
     f48:	40a40533          	sub	a0,s0,a0
     f4c:	74053c23          	sd	zero,1880(a0) # 1758 <.LBB77_5+0x28c>
     f50:	00001537          	lui	a0,0x1
     f54:	40a40533          	sub	a0,s0,a0
     f58:	76053023          	sd	zero,1888(a0) # 1760 <.LBB77_5+0x294>
     f5c:	00001537          	lui	a0,0x1
     f60:	40a40533          	sub	a0,s0,a0
     f64:	76053823          	sd	zero,1904(a0) # 1770 <.LBB77_5+0x2a4>
     f68:	00001537          	lui	a0,0x1
     f6c:	40a40533          	sub	a0,s0,a0
     f70:	78053423          	sd	zero,1928(a0) # 1788 <.LBB77_5+0x2bc>
     f74:	00001537          	lui	a0,0x1
     f78:	40a40533          	sub	a0,s0,a0
     f7c:	74053823          	sd	zero,1872(a0) # 1750 <.LBB77_5+0x284>
     f80:	00001537          	lui	a0,0x1
     f84:	40a40533          	sub	a0,s0,a0
     f88:	74053423          	sd	zero,1864(a0) # 1748 <.LBB77_5+0x27c>
     f8c:	00001537          	lui	a0,0x1
     f90:	40a40533          	sub	a0,s0,a0
     f94:	74053023          	sd	zero,1856(a0) # 1740 <.LBB77_5+0x274>
     f98:	00001537          	lui	a0,0x1
     f9c:	40a40533          	sub	a0,s0,a0
     fa0:	72053c23          	sd	zero,1848(a0) # 1738 <.LBB77_5+0x26c>
     fa4:	00001537          	lui	a0,0x1
     fa8:	40a40533          	sub	a0,s0,a0
     fac:	72053823          	sd	zero,1840(a0) # 1730 <.LBB77_5+0x264>
     fb0:	00001537          	lui	a0,0x1
     fb4:	40a40533          	sub	a0,s0,a0
     fb8:	72053423          	sd	zero,1832(a0) # 1728 <.LBB77_5+0x25c>
     fbc:	00001537          	lui	a0,0x1
     fc0:	40a40533          	sub	a0,s0,a0
     fc4:	72053023          	sd	zero,1824(a0) # 1720 <.LBB77_5+0x254>
     fc8:	00001537          	lui	a0,0x1
     fcc:	40a40533          	sub	a0,s0,a0
     fd0:	70053c23          	sd	zero,1816(a0) # 1718 <.LBB77_5+0x24c>
     fd4:	00001537          	lui	a0,0x1
     fd8:	40a40533          	sub	a0,s0,a0
     fdc:	70053823          	sd	zero,1808(a0) # 1710 <.LBB77_5+0x244>
     fe0:	00001537          	lui	a0,0x1
     fe4:	40a40533          	sub	a0,s0,a0
     fe8:	70053423          	sd	zero,1800(a0) # 1708 <.LBB77_5+0x23c>
     fec:	00001537          	lui	a0,0x1
     ff0:	40a40533          	sub	a0,s0,a0
     ff4:	70053023          	sd	zero,1792(a0) # 1700 <.LBB77_5+0x234>
     ff8:	00001537          	lui	a0,0x1
     ffc:	40a40533          	sub	a0,s0,a0
    1000:	6e053c23          	sd	zero,1784(a0) # 16f8 <.LBB77_5+0x22c>
    1004:	00001537          	lui	a0,0x1
    1008:	40a40533          	sub	a0,s0,a0
    100c:	6e053823          	sd	zero,1776(a0) # 16f0 <.LBB77_5+0x224>
    1010:	00001537          	lui	a0,0x1
    1014:	40a40533          	sub	a0,s0,a0
    1018:	6e053423          	sd	zero,1768(a0) # 16e8 <.LBB77_5+0x21c>
    101c:	00001537          	lui	a0,0x1
    1020:	40a40533          	sub	a0,s0,a0
    1024:	6e053023          	sd	zero,1760(a0) # 16e0 <.LBB77_5+0x214>
    1028:	00001537          	lui	a0,0x1
    102c:	40a40533          	sub	a0,s0,a0
    1030:	6c053c23          	sd	zero,1752(a0) # 16d8 <.LBB77_5+0x20c>
    1034:	00001537          	lui	a0,0x1
    1038:	40a40533          	sub	a0,s0,a0
    103c:	6c053823          	sd	zero,1744(a0) # 16d0 <.LBB77_5+0x204>
    1040:	00001537          	lui	a0,0x1
    1044:	40a40533          	sub	a0,s0,a0
    1048:	6c053423          	sd	zero,1736(a0) # 16c8 <.LBB77_5+0x1fc>
    104c:	00001537          	lui	a0,0x1
    1050:	40a40533          	sub	a0,s0,a0
    1054:	68053823          	sd	zero,1680(a0) # 1690 <.LBB77_5+0x1c4>
    1058:	00001537          	lui	a0,0x1
    105c:	40a40533          	sub	a0,s0,a0
    1060:	68053423          	sd	zero,1672(a0) # 1688 <.LBB77_5+0x1bc>
    1064:	00001537          	lui	a0,0x1
    1068:	40a40533          	sub	a0,s0,a0
    106c:	6a053023          	sd	zero,1696(a0) # 16a0 <.LBB77_5+0x1d4>
    1070:	00001537          	lui	a0,0x1
    1074:	40a40533          	sub	a0,s0,a0
    1078:	6c053023          	sd	zero,1728(a0) # 16c0 <.LBB77_5+0x1f4>
    107c:	00001537          	lui	a0,0x1
    1080:	40a40533          	sub	a0,s0,a0
    1084:	6a053c23          	sd	zero,1720(a0) # 16b8 <.LBB77_5+0x1ec>
    1088:	00001537          	lui	a0,0x1
    108c:	40a40533          	sub	a0,s0,a0
    1090:	6a053823          	sd	zero,1712(a0) # 16b0 <.LBB77_5+0x1e4>
    1094:	00001537          	lui	a0,0x1
    1098:	40a40533          	sub	a0,s0,a0
    109c:	6a053423          	sd	zero,1704(a0) # 16a8 <.LBB77_5+0x1dc>
    10a0:	00001537          	lui	a0,0x1
    10a4:	40a40533          	sub	a0,s0,a0
    10a8:	68053023          	sd	zero,1664(a0) # 1680 <.LBB77_5+0x1b4>
    10ac:	00001537          	lui	a0,0x1
    10b0:	40a40533          	sub	a0,s0,a0
    10b4:	66053c23          	sd	zero,1656(a0) # 1678 <.LBB77_5+0x1ac>
    10b8:	00001537          	lui	a0,0x1
    10bc:	40a40533          	sub	a0,s0,a0
    10c0:	68053c23          	sd	zero,1688(a0) # 1698 <.LBB77_5+0x1cc>
    10c4:	00001537          	lui	a0,0x1
    10c8:	40a40533          	sub	a0,s0,a0
    10cc:	76053423          	sd	zero,1896(a0) # 1768 <.LBB77_5+0x29c>
    10d0:	00001537          	lui	a0,0x1
    10d4:	40a40533          	sub	a0,s0,a0
    10d8:	76053c23          	sd	zero,1912(a0) # 1778 <.LBB77_5+0x2ac>
    10dc:	00001537          	lui	a0,0x1
    10e0:	40a40533          	sub	a0,s0,a0
    10e4:	78053023          	sd	zero,1920(a0) # 1780 <.LBB77_5+0x2b4>
    10e8:	00001537          	lui	a0,0x1
    10ec:	40a40533          	sub	a0,s0,a0
    10f0:	78053823          	sd	zero,1936(a0) # 1790 <.LBB77_5+0x2c4>
    10f4:	00001537          	lui	a0,0x1
    10f8:	40a40533          	sub	a0,s0,a0
    10fc:	78053c23          	sd	zero,1944(a0) # 1798 <.LBB77_5+0x2cc>
    1100:	00001537          	lui	a0,0x1
    1104:	40a40533          	sub	a0,s0,a0
    1108:	7a053023          	sd	zero,1952(a0) # 17a0 <.LBB77_5+0x2d4>
    110c:	00001537          	lui	a0,0x1
    1110:	40a40533          	sub	a0,s0,a0
    1114:	7a053423          	sd	zero,1960(a0) # 17a8 <.LBB77_5+0x2dc>
    1118:	00001537          	lui	a0,0x1
    111c:	40a40533          	sub	a0,s0,a0
    1120:	7a053823          	sd	zero,1968(a0) # 17b0 <.LBB77_5+0x2e4>
    1124:	00001537          	lui	a0,0x1
    1128:	40a40533          	sub	a0,s0,a0
    112c:	7a053c23          	sd	zero,1976(a0) # 17b8 <.LBB77_5+0x2ec>
    1130:	00001537          	lui	a0,0x1
    1134:	40a40533          	sub	a0,s0,a0
    1138:	7c053023          	sd	zero,1984(a0) # 17c0 <.LBB77_5+0x2f4>
    113c:	00001537          	lui	a0,0x1
    1140:	40a40533          	sub	a0,s0,a0
    1144:	7c053423          	sd	zero,1992(a0) # 17c8 <.LBB77_5+0x2fc>
    1148:	00001537          	lui	a0,0x1
    114c:	40a40533          	sub	a0,s0,a0
    1150:	7c053823          	sd	zero,2000(a0) # 17d0 <.LBB77_5+0x304>
    1154:	00001537          	lui	a0,0x1
    1158:	40a40533          	sub	a0,s0,a0
    115c:	7c053c23          	sd	zero,2008(a0) # 17d8 <.LBB77_5+0x30c>
    1160:	00001537          	lui	a0,0x1
    1164:	40a40533          	sub	a0,s0,a0
    1168:	7e053023          	sd	zero,2016(a0) # 17e0 <.LBB77_5+0x314>
    116c:	00001537          	lui	a0,0x1
    1170:	40a40533          	sub	a0,s0,a0
    1174:	7e053423          	sd	zero,2024(a0) # 17e8 <.LBB77_5+0x31c>
    1178:	00001537          	lui	a0,0x1
    117c:	40a40533          	sub	a0,s0,a0
    1180:	7e053823          	sd	zero,2032(a0) # 17f0 <.LBB77_5+0x324>
    1184:	00001537          	lui	a0,0x1
    1188:	40a40533          	sub	a0,s0,a0
    118c:	7e053c23          	sd	zero,2040(a0) # 17f8 <.LBB77_5+0x32c>
    1190:	80043023          	sd	zero,-2048(s0)
    1194:	80043423          	sd	zero,-2040(s0)
    1198:	80043823          	sd	zero,-2032(s0)
    119c:	80043c23          	sd	zero,-2024(s0)
    11a0:	82043023          	sd	zero,-2016(s0)
    11a4:	82043423          	sd	zero,-2008(s0)
    11a8:	82043823          	sd	zero,-2000(s0)
    11ac:	82043c23          	sd	zero,-1992(s0)
    11b0:	84043023          	sd	zero,-1984(s0)
    11b4:	84043423          	sd	zero,-1976(s0)
    11b8:	84043823          	sd	zero,-1968(s0)
    11bc:	84043c23          	sd	zero,-1960(s0)
    11c0:	86043023          	sd	zero,-1952(s0)
    11c4:	86043423          	sd	zero,-1944(s0)
    11c8:	86043823          	sd	zero,-1936(s0)
    11cc:	86043c23          	sd	zero,-1928(s0)
    11d0:	88043023          	sd	zero,-1920(s0)
    11d4:	88043423          	sd	zero,-1912(s0)
    11d8:	88043823          	sd	zero,-1904(s0)
    11dc:	88043c23          	sd	zero,-1896(s0)
    11e0:	8a043023          	sd	zero,-1888(s0)
    11e4:	8a043423          	sd	zero,-1880(s0)
    11e8:	8a043823          	sd	zero,-1872(s0)
    11ec:	8a043c23          	sd	zero,-1864(s0)
    11f0:	8c043023          	sd	zero,-1856(s0)
    11f4:	8c043423          	sd	zero,-1848(s0)
    11f8:	8c043823          	sd	zero,-1840(s0)
    11fc:	8c043c23          	sd	zero,-1832(s0)
    1200:	8e043023          	sd	zero,-1824(s0)
    1204:	8e043423          	sd	zero,-1816(s0)
    1208:	8e043823          	sd	zero,-1808(s0)
    120c:	8e043c23          	sd	zero,-1800(s0)
    1210:	90043023          	sd	zero,-1792(s0)
    1214:	90043423          	sd	zero,-1784(s0)
    1218:	90043823          	sd	zero,-1776(s0)
    121c:	90043c23          	sd	zero,-1768(s0)
    1220:	92043023          	sd	zero,-1760(s0)
    1224:	92043423          	sd	zero,-1752(s0)
    1228:	92043823          	sd	zero,-1744(s0)
    122c:	92043c23          	sd	zero,-1736(s0)
    1230:	94043023          	sd	zero,-1728(s0)
    1234:	94043423          	sd	zero,-1720(s0)
    1238:	94043823          	sd	zero,-1712(s0)
    123c:	94043c23          	sd	zero,-1704(s0)
    1240:	96043023          	sd	zero,-1696(s0)
    1244:	96043423          	sd	zero,-1688(s0)
    1248:	96043823          	sd	zero,-1680(s0)
    124c:	96043c23          	sd	zero,-1672(s0)
    1250:	98043023          	sd	zero,-1664(s0)
    1254:	98043423          	sd	zero,-1656(s0)
    1258:	98043823          	sd	zero,-1648(s0)
    125c:	98043c23          	sd	zero,-1640(s0)
    1260:	9a043023          	sd	zero,-1632(s0)
    1264:	9a043423          	sd	zero,-1624(s0)
    1268:	9a043823          	sd	zero,-1616(s0)
    126c:	9a043c23          	sd	zero,-1608(s0)
    1270:	9c043023          	sd	zero,-1600(s0)
    1274:	9c043423          	sd	zero,-1592(s0)
    1278:	9c043823          	sd	zero,-1584(s0)
    127c:	9c043c23          	sd	zero,-1576(s0)
    1280:	9e043023          	sd	zero,-1568(s0)
    1284:	9e043423          	sd	zero,-1560(s0)
    1288:	9e043823          	sd	zero,-1552(s0)
    128c:	9e043c23          	sd	zero,-1544(s0)
    1290:	a0043023          	sd	zero,-1536(s0)
    1294:	a0043423          	sd	zero,-1528(s0)
    1298:	a0043823          	sd	zero,-1520(s0)
    129c:	a0043c23          	sd	zero,-1512(s0)
    12a0:	a2043023          	sd	zero,-1504(s0)
    12a4:	a2043423          	sd	zero,-1496(s0)
    12a8:	a2043823          	sd	zero,-1488(s0)
    12ac:	a2043c23          	sd	zero,-1480(s0)
    12b0:	a4043023          	sd	zero,-1472(s0)
    12b4:	a4043423          	sd	zero,-1464(s0)
    12b8:	a4043823          	sd	zero,-1456(s0)
    12bc:	a4043c23          	sd	zero,-1448(s0)
    12c0:	a6043023          	sd	zero,-1440(s0)
    12c4:	a6043423          	sd	zero,-1432(s0)
    12c8:	a6043823          	sd	zero,-1424(s0)
    12cc:	a6043c23          	sd	zero,-1416(s0)
    12d0:	a8043023          	sd	zero,-1408(s0)
    12d4:	a8043423          	sd	zero,-1400(s0)
    12d8:	a8043823          	sd	zero,-1392(s0)
    12dc:	a8043c23          	sd	zero,-1384(s0)
    12e0:	aa043023          	sd	zero,-1376(s0)
    12e4:	aa043423          	sd	zero,-1368(s0)
    12e8:	aa043823          	sd	zero,-1360(s0)
    12ec:	aa043c23          	sd	zero,-1352(s0)
    12f0:	ac043023          	sd	zero,-1344(s0)
    12f4:	ac043423          	sd	zero,-1336(s0)
    12f8:	ac043823          	sd	zero,-1328(s0)
    12fc:	ac043c23          	sd	zero,-1320(s0)
    1300:	ae043023          	sd	zero,-1312(s0)
    1304:	ae043423          	sd	zero,-1304(s0)
    1308:	ae043823          	sd	zero,-1296(s0)
    130c:	ae043c23          	sd	zero,-1288(s0)
    1310:	b0043023          	sd	zero,-1280(s0)
    1314:	b0043423          	sd	zero,-1272(s0)
    1318:	b0043823          	sd	zero,-1264(s0)
    131c:	b0043c23          	sd	zero,-1256(s0)
    1320:	b2043023          	sd	zero,-1248(s0)
    1324:	b2043423          	sd	zero,-1240(s0)
    1328:	b2043823          	sd	zero,-1232(s0)
    132c:	b2043c23          	sd	zero,-1224(s0)
    1330:	b4043023          	sd	zero,-1216(s0)
    1334:	b4043423          	sd	zero,-1208(s0)
    1338:	b4043823          	sd	zero,-1200(s0)
    133c:	b4043c23          	sd	zero,-1192(s0)
    1340:	b6043023          	sd	zero,-1184(s0)
    1344:	b6043423          	sd	zero,-1176(s0)
    1348:	b6043823          	sd	zero,-1168(s0)
    134c:	b6043c23          	sd	zero,-1160(s0)
    1350:	b8043023          	sd	zero,-1152(s0)
    1354:	b8043423          	sd	zero,-1144(s0)
    1358:	b8043823          	sd	zero,-1136(s0)
    135c:	b8043c23          	sd	zero,-1128(s0)
    1360:	ba043023          	sd	zero,-1120(s0)
    1364:	ba043423          	sd	zero,-1112(s0)
    1368:	ba043823          	sd	zero,-1104(s0)
    136c:	ba043c23          	sd	zero,-1096(s0)
    1370:	bc043023          	sd	zero,-1088(s0)
    1374:	bc043423          	sd	zero,-1080(s0)
    1378:	bc043823          	sd	zero,-1072(s0)
    137c:	bc043c23          	sd	zero,-1064(s0)
    1380:	be043023          	sd	zero,-1056(s0)
    1384:	be043423          	sd	zero,-1048(s0)
    1388:	be043823          	sd	zero,-1040(s0)
    138c:	be043c23          	sd	zero,-1032(s0)
    1390:	c0043023          	sd	zero,-1024(s0)
    1394:	c0043423          	sd	zero,-1016(s0)
    1398:	c0043823          	sd	zero,-1008(s0)
    139c:	c0043c23          	sd	zero,-1000(s0)
    13a0:	c2043023          	sd	zero,-992(s0)
    13a4:	c2043423          	sd	zero,-984(s0)
    13a8:	c2043823          	sd	zero,-976(s0)
    13ac:	c2043c23          	sd	zero,-968(s0)
    13b0:	c4043023          	sd	zero,-960(s0)
    13b4:	c4043423          	sd	zero,-952(s0)
    13b8:	c4043823          	sd	zero,-944(s0)
    13bc:	c4043c23          	sd	zero,-936(s0)
    13c0:	c6043023          	sd	zero,-928(s0)
    13c4:	c6043423          	sd	zero,-920(s0)
    13c8:	c6043823          	sd	zero,-912(s0)
    13cc:	c6043c23          	sd	zero,-904(s0)
    13d0:	c8043023          	sd	zero,-896(s0)
    13d4:	c8043423          	sd	zero,-888(s0)
    13d8:	c8043823          	sd	zero,-880(s0)
    13dc:	c8043c23          	sd	zero,-872(s0)
    13e0:	ca043023          	sd	zero,-864(s0)
    13e4:	ca043423          	sd	zero,-856(s0)
    13e8:	ca043823          	sd	zero,-848(s0)
    13ec:	ca043c23          	sd	zero,-840(s0)
    13f0:	cc043023          	sd	zero,-832(s0)
    13f4:	cc043423          	sd	zero,-824(s0)
    13f8:	cc043823          	sd	zero,-816(s0)
    13fc:	cc043c23          	sd	zero,-808(s0)
    1400:	ce043023          	sd	zero,-800(s0)
    1404:	ce043423          	sd	zero,-792(s0)
    1408:	ce043823          	sd	zero,-784(s0)
    140c:	ce043c23          	sd	zero,-776(s0)
    1410:	d0043023          	sd	zero,-768(s0)
    1414:	d0043423          	sd	zero,-760(s0)
    1418:	d0043823          	sd	zero,-752(s0)
    141c:	d0043c23          	sd	zero,-744(s0)
    1420:	d2043023          	sd	zero,-736(s0)
    1424:	d2043423          	sd	zero,-728(s0)
    1428:	d2043823          	sd	zero,-720(s0)
    142c:	d2043c23          	sd	zero,-712(s0)
    1430:	d4043023          	sd	zero,-704(s0)
    1434:	d4043423          	sd	zero,-696(s0)
    1438:	d4043823          	sd	zero,-688(s0)
    143c:	d4043c23          	sd	zero,-680(s0)
    1440:	d6043023          	sd	zero,-672(s0)
    1444:	d6043423          	sd	zero,-664(s0)
    1448:	d6043823          	sd	zero,-656(s0)
    144c:	d6043c23          	sd	zero,-648(s0)
    1450:	d8043023          	sd	zero,-640(s0)
    1454:	d8043423          	sd	zero,-632(s0)
    1458:	d8043823          	sd	zero,-624(s0)
    145c:	d8043c23          	sd	zero,-616(s0)
    1460:	da043023          	sd	zero,-608(s0)
    1464:	da043423          	sd	zero,-600(s0)
    1468:	da043823          	sd	zero,-592(s0)
    146c:	da043c23          	sd	zero,-584(s0)
    1470:	00000d93          	li	s11,0
    1474:	00000d13          	li	s10,0
    1478:	00000c93          	li	s9,0
    147c:	00000b93          	li	s7,0
    1480:	de043023          	sd	zero,-544(s0)
    1484:	00000993          	li	s3,0
    1488:	00000913          	li	s2,0
    148c:	00000493          	li	s1,0
    1490:	00000f93          	li	t6,0
    1494:	00000f13          	li	t5,0
    1498:	e0043823          	sd	zero,-496(s0)
    149c:	00000e13          	li	t3,0
    14a0:	00000613          	li	a2,0
    14a4:	00000393          	li	t2,0
    14a8:	00000593          	li	a1,0
    14ac:	00000513          	li	a0,0
    14b0:	00000313          	li	t1,0
    14b4:	00000293          	li	t0,0
    14b8:	00000893          	li	a7,0
    14bc:	00000813          	li	a6,0
    14c0:	00000793          	li	a5,0
    14c4:	00000713          	li	a4,0
    14c8:	00000693          	li	a3,0

00000000000014cc <.LBB77_5>:
    14cc:	f9543423          	sd	s5,-120(s0)
    14d0:	f7443423          	sd	s4,-152(s0)
    14d4:	00001b37          	lui	s6,0x1
    14d8:	41640b33          	sub	s6,s0,s6
    14dc:	67db3823          	sd	t4,1648(s6) # 1670 <.LBB77_5+0x1a4>
    14e0:	ddb43023          	sd	s11,-576(s0)
    14e4:	dda43423          	sd	s10,-568(s0)
    14e8:	dd943823          	sd	s9,-560(s0)
    14ec:	dd743c23          	sd	s7,-552(s0)
    14f0:	df343423          	sd	s3,-536(s0)
    14f4:	df243823          	sd	s2,-528(s0)
    14f8:	de943c23          	sd	s1,-520(s0)
    14fc:	e1f43023          	sd	t6,-512(s0)
    1500:	e1e43423          	sd	t5,-504(s0)
    1504:	efc43823          	sd	t3,-272(s0)
    1508:	eec43c23          	sd	a2,-264(s0)
    150c:	e0743c23          	sd	t2,-488(s0)
    1510:	f0b43023          	sd	a1,-256(s0)
    1514:	f0a43423          	sd	a0,-248(s0)
    1518:	e2643023          	sd	t1,-480(s0)
    151c:	e2543423          	sd	t0,-472(s0)
    1520:	e3143823          	sd	a7,-464(s0)
    1524:	e3043c23          	sd	a6,-456(s0)
    1528:	e4f43023          	sd	a5,-448(s0)
    152c:	e4e43423          	sd	a4,-440(s0)
    1530:	e4d43823          	sd	a3,-432(s0)
    1534:	000a0503          	lb	a0,0(s4)
    1538:	002a8603          	lb	a2,2(s5)
    153c:	f2c43023          	sd	a2,-224(s0)
    1540:	001a8683          	lb	a3,1(s5)
    1544:	ecd43423          	sd	a3,-312(s0)
    1548:	000a8703          	lb	a4,0(s5)
    154c:	003a8783          	lb	a5,3(s5)
    1550:	f4f43823          	sd	a5,-176(s0)
    1554:	004a8803          	lb	a6,4(s5)
    1558:	f1043c23          	sd	a6,-232(s0)
    155c:	005a8b83          	lb	s7,5(s5)
    1560:	f7743c23          	sd	s7,-136(s0)
    1564:	006a8c83          	lb	s9,6(s5)
    1568:	f5943023          	sd	s9,-192(s0)
    156c:	007a8083          	lb	ra,7(s5)
    1570:	008a8b03          	lb	s6,8(s5)
    1574:	f1643823          	sd	s6,-240(s0)
    1578:	009a8883          	lb	a7,9(s5)
    157c:	ed143023          	sd	a7,-320(s0)
    1580:	00aa8283          	lb	t0,10(s5)
    1584:	f4543423          	sd	t0,-184(s0)
    1588:	00ba8303          	lb	t1,11(s5)
    158c:	f4643c23          	sd	t1,-168(s0)
    1590:	00ca8383          	lb	t2,12(s5)
    1594:	ee743023          	sd	t2,-288(s0)
    1598:	00da8e03          	lb	t3,13(s5)
    159c:	efc43423          	sd	t3,-280(s0)
    15a0:	00ea8e83          	lb	t4,14(s5)
    15a4:	e9d43c23          	sd	t4,-360(s0)
    15a8:	00fa8f03          	lb	t5,15(s5)
    15ac:	ebe43023          	sd	t5,-352(s0)
    15b0:	010a8f83          	lb	t6,16(s5)
    15b4:	f7f43023          	sd	t6,-160(s0)
    15b8:	011a8483          	lb	s1,17(s5)
    15bc:	f2943423          	sd	s1,-216(s0)
    15c0:	012a8c03          	lb	s8,18(s5)
    15c4:	013a8d03          	lb	s10,19(s5)
    15c8:	014a8a03          	lb	s4,20(s5)
    15cc:	015a8903          	lb	s2,21(s5)
    15d0:	016a8983          	lb	s3,22(s5)
    15d4:	017a8a83          	lb	s5,23(s5)
    15d8:	f8843583          	ld	a1,-120(s0)
    15dc:	01858d83          	lb	s11,24(a1)
    15e0:	02c505b3          	mul	a1,a0,a2
    15e4:	00001637          	lui	a2,0x1
    15e8:	40c40633          	sub	a2,s0,a2
    15ec:	77063603          	ld	a2,1904(a2) # 1770 <.LBB77_5+0x2a4>
    15f0:	00c58633          	add	a2,a1,a2
    15f4:	000015b7          	lui	a1,0x1
    15f8:	40b405b3          	sub	a1,s0,a1
    15fc:	76c5b823          	sd	a2,1904(a1) # 1770 <.LBB77_5+0x2a4>
    1600:	02d505b3          	mul	a1,a0,a3
    1604:	00001637          	lui	a2,0x1
    1608:	40c40633          	sub	a2,s0,a2
    160c:	76063603          	ld	a2,1888(a2) # 1760 <.LBB77_5+0x294>
    1610:	00c58633          	add	a2,a1,a2
    1614:	000015b7          	lui	a1,0x1
    1618:	40b405b3          	sub	a1,s0,a1
    161c:	76c5b023          	sd	a2,1888(a1) # 1760 <.LBB77_5+0x294>
    1620:	02e505b3          	mul	a1,a0,a4
    1624:	00001637          	lui	a2,0x1
    1628:	40c40633          	sub	a2,s0,a2
    162c:	75863603          	ld	a2,1880(a2) # 1758 <.LBB77_5+0x28c>
    1630:	00c58633          	add	a2,a1,a2
    1634:	000015b7          	lui	a1,0x1
    1638:	40b405b3          	sub	a1,s0,a1
    163c:	74c5bc23          	sd	a2,1880(a1) # 1758 <.LBB77_5+0x28c>
    1640:	02f505b3          	mul	a1,a0,a5
    1644:	00001637          	lui	a2,0x1
    1648:	40c40633          	sub	a2,s0,a2
    164c:	78863603          	ld	a2,1928(a2) # 1788 <.LBB77_5+0x2bc>
    1650:	00c58633          	add	a2,a1,a2
    1654:	000015b7          	lui	a1,0x1
    1658:	40b405b3          	sub	a1,s0,a1
    165c:	78c5b423          	sd	a2,1928(a1) # 1788 <.LBB77_5+0x2bc>
    1660:	030505b3          	mul	a1,a0,a6
    1664:	00001637          	lui	a2,0x1
    1668:	40c40633          	sub	a2,s0,a2
    166c:	75063603          	ld	a2,1872(a2) # 1750 <.LBB77_5+0x284>
    1670:	00c58633          	add	a2,a1,a2
    1674:	000015b7          	lui	a1,0x1
    1678:	40b405b3          	sub	a1,s0,a1
    167c:	74c5b823          	sd	a2,1872(a1) # 1750 <.LBB77_5+0x284>
    1680:	037505b3          	mul	a1,a0,s7
    1684:	00001637          	lui	a2,0x1
    1688:	40c40633          	sub	a2,s0,a2
    168c:	74863603          	ld	a2,1864(a2) # 1748 <.LBB77_5+0x27c>
    1690:	00c58633          	add	a2,a1,a2
    1694:	000015b7          	lui	a1,0x1
    1698:	40b405b3          	sub	a1,s0,a1
    169c:	74c5b423          	sd	a2,1864(a1) # 1748 <.LBB77_5+0x27c>
    16a0:	039505b3          	mul	a1,a0,s9
    16a4:	00001637          	lui	a2,0x1
    16a8:	40c40633          	sub	a2,s0,a2
    16ac:	74063603          	ld	a2,1856(a2) # 1740 <.LBB77_5+0x274>
    16b0:	00c58633          	add	a2,a1,a2
    16b4:	000015b7          	lui	a1,0x1
    16b8:	40b405b3          	sub	a1,s0,a1
    16bc:	74c5b023          	sd	a2,1856(a1) # 1740 <.LBB77_5+0x274>
    16c0:	021505b3          	mul	a1,a0,ra
    16c4:	00008c93          	mv	s9,ra
    16c8:	ea143823          	sd	ra,-336(s0)
    16cc:	00001637          	lui	a2,0x1
    16d0:	40c40633          	sub	a2,s0,a2
    16d4:	73863603          	ld	a2,1848(a2) # 1738 <.LBB77_5+0x26c>
    16d8:	00c58633          	add	a2,a1,a2
    16dc:	000015b7          	lui	a1,0x1
    16e0:	40b405b3          	sub	a1,s0,a1
    16e4:	72c5bc23          	sd	a2,1848(a1) # 1738 <.LBB77_5+0x26c>
    16e8:	036505b3          	mul	a1,a0,s6
    16ec:	00001637          	lui	a2,0x1
    16f0:	40c40633          	sub	a2,s0,a2
    16f4:	73063603          	ld	a2,1840(a2) # 1730 <.LBB77_5+0x264>
    16f8:	00c58633          	add	a2,a1,a2
    16fc:	000015b7          	lui	a1,0x1
    1700:	40b405b3          	sub	a1,s0,a1
    1704:	72c5b823          	sd	a2,1840(a1) # 1730 <.LBB77_5+0x264>
    1708:	031505b3          	mul	a1,a0,a7
    170c:	00001637          	lui	a2,0x1
    1710:	40c40633          	sub	a2,s0,a2
    1714:	72863603          	ld	a2,1832(a2) # 1728 <.LBB77_5+0x25c>
    1718:	00c58633          	add	a2,a1,a2
    171c:	000015b7          	lui	a1,0x1
    1720:	40b405b3          	sub	a1,s0,a1
    1724:	72c5b423          	sd	a2,1832(a1) # 1728 <.LBB77_5+0x25c>
    1728:	025505b3          	mul	a1,a0,t0
    172c:	00001637          	lui	a2,0x1
    1730:	40c40633          	sub	a2,s0,a2
    1734:	72063603          	ld	a2,1824(a2) # 1720 <.LBB77_5+0x254>
    1738:	00c58633          	add	a2,a1,a2
    173c:	000015b7          	lui	a1,0x1
    1740:	40b405b3          	sub	a1,s0,a1
    1744:	72c5b023          	sd	a2,1824(a1) # 1720 <.LBB77_5+0x254>
    1748:	026505b3          	mul	a1,a0,t1
    174c:	00001637          	lui	a2,0x1
    1750:	40c40633          	sub	a2,s0,a2
    1754:	71863603          	ld	a2,1816(a2) # 1718 <.LBB77_5+0x24c>
    1758:	00c58633          	add	a2,a1,a2
    175c:	000015b7          	lui	a1,0x1
    1760:	40b405b3          	sub	a1,s0,a1
    1764:	70c5bc23          	sd	a2,1816(a1) # 1718 <.LBB77_5+0x24c>
    1768:	027505b3          	mul	a1,a0,t2
    176c:	00001637          	lui	a2,0x1
    1770:	40c40633          	sub	a2,s0,a2
    1774:	71063603          	ld	a2,1808(a2) # 1710 <.LBB77_5+0x244>
    1778:	00c58633          	add	a2,a1,a2
    177c:	000015b7          	lui	a1,0x1
    1780:	40b405b3          	sub	a1,s0,a1
    1784:	70c5b823          	sd	a2,1808(a1) # 1710 <.LBB77_5+0x244>
    1788:	03c505b3          	mul	a1,a0,t3
    178c:	00001637          	lui	a2,0x1
    1790:	40c40633          	sub	a2,s0,a2
    1794:	70863603          	ld	a2,1800(a2) # 1708 <.LBB77_5+0x23c>
    1798:	00c58633          	add	a2,a1,a2
    179c:	000015b7          	lui	a1,0x1
    17a0:	40b405b3          	sub	a1,s0,a1
    17a4:	70c5b423          	sd	a2,1800(a1) # 1708 <.LBB77_5+0x23c>
    17a8:	03d505b3          	mul	a1,a0,t4
    17ac:	00001637          	lui	a2,0x1
    17b0:	40c40633          	sub	a2,s0,a2
    17b4:	70063603          	ld	a2,1792(a2) # 1700 <.LBB77_5+0x234>
    17b8:	00c58633          	add	a2,a1,a2
    17bc:	000015b7          	lui	a1,0x1
    17c0:	40b405b3          	sub	a1,s0,a1
    17c4:	70c5b023          	sd	a2,1792(a1) # 1700 <.LBB77_5+0x234>
    17c8:	03e505b3          	mul	a1,a0,t5
    17cc:	00001637          	lui	a2,0x1
    17d0:	40c40633          	sub	a2,s0,a2
    17d4:	6f863603          	ld	a2,1784(a2) # 16f8 <.LBB77_5+0x22c>
    17d8:	00c58633          	add	a2,a1,a2
    17dc:	000015b7          	lui	a1,0x1
    17e0:	40b405b3          	sub	a1,s0,a1
    17e4:	6ec5bc23          	sd	a2,1784(a1) # 16f8 <.LBB77_5+0x22c>
    17e8:	03f505b3          	mul	a1,a0,t6
    17ec:	00001637          	lui	a2,0x1
    17f0:	40c40633          	sub	a2,s0,a2
    17f4:	6f063603          	ld	a2,1776(a2) # 16f0 <.LBB77_5+0x224>
    17f8:	00c58633          	add	a2,a1,a2
    17fc:	000015b7          	lui	a1,0x1
    1800:	40b405b3          	sub	a1,s0,a1
    1804:	6ec5b823          	sd	a2,1776(a1) # 16f0 <.LBB77_5+0x224>
    1808:	029505b3          	mul	a1,a0,s1
    180c:	00001637          	lui	a2,0x1
    1810:	40c40633          	sub	a2,s0,a2
    1814:	6e863603          	ld	a2,1768(a2) # 16e8 <.LBB77_5+0x21c>
    1818:	00c58633          	add	a2,a1,a2
    181c:	000015b7          	lui	a1,0x1
    1820:	40b405b3          	sub	a1,s0,a1
    1824:	6ec5b423          	sd	a2,1768(a1) # 16e8 <.LBB77_5+0x21c>
    1828:	000c0393          	mv	t2,s8
    182c:	f3843c23          	sd	s8,-200(s0)
    1830:	038505b3          	mul	a1,a0,s8
    1834:	00001637          	lui	a2,0x1
    1838:	40c40633          	sub	a2,s0,a2
    183c:	6e063603          	ld	a2,1760(a2) # 16e0 <.LBB77_5+0x214>
    1840:	00c58633          	add	a2,a1,a2
    1844:	000015b7          	lui	a1,0x1
    1848:	40b405b3          	sub	a1,s0,a1
    184c:	6ec5b023          	sd	a2,1760(a1) # 16e0 <.LBB77_5+0x214>
    1850:	000d0693          	mv	a3,s10
    1854:	03a505b3          	mul	a1,a0,s10
    1858:	00001637          	lui	a2,0x1
    185c:	40c40633          	sub	a2,s0,a2
    1860:	6d863603          	ld	a2,1752(a2) # 16d8 <.LBB77_5+0x20c>
    1864:	00c58633          	add	a2,a1,a2
    1868:	000015b7          	lui	a1,0x1
    186c:	40b405b3          	sub	a1,s0,a1
    1870:	6cc5bc23          	sd	a2,1752(a1) # 16d8 <.LBB77_5+0x20c>
    1874:	034505b3          	mul	a1,a0,s4
    1878:	00001637          	lui	a2,0x1
    187c:	40c40633          	sub	a2,s0,a2
    1880:	6d063603          	ld	a2,1744(a2) # 16d0 <.LBB77_5+0x204>
    1884:	00c58633          	add	a2,a1,a2
    1888:	000015b7          	lui	a1,0x1
    188c:	40b405b3          	sub	a1,s0,a1
    1890:	6cc5b823          	sd	a2,1744(a1) # 16d0 <.LBB77_5+0x204>
    1894:	032505b3          	mul	a1,a0,s2
    1898:	00090c13          	mv	s8,s2
    189c:	e5243c23          	sd	s2,-424(s0)
    18a0:	00001637          	lui	a2,0x1
    18a4:	40c40633          	sub	a2,s0,a2
    18a8:	6c863603          	ld	a2,1736(a2) # 16c8 <.LBB77_5+0x1fc>
    18ac:	00c58633          	add	a2,a1,a2
    18b0:	000015b7          	lui	a1,0x1
    18b4:	40b405b3          	sub	a1,s0,a1
    18b8:	6cc5b423          	sd	a2,1736(a1) # 16c8 <.LBB77_5+0x1fc>
    18bc:	033505b3          	mul	a1,a0,s3
    18c0:	00098093          	mv	ra,s3
    18c4:	00001637          	lui	a2,0x1
    18c8:	40c40633          	sub	a2,s0,a2
    18cc:	69063603          	ld	a2,1680(a2) # 1690 <.LBB77_5+0x1c4>
    18d0:	00c58633          	add	a2,a1,a2
    18d4:	000015b7          	lui	a1,0x1
    18d8:	40b405b3          	sub	a1,s0,a1
    18dc:	68c5b823          	sd	a2,1680(a1) # 1690 <.LBB77_5+0x1c4>
    18e0:	035505b3          	mul	a1,a0,s5
    18e4:	000a8913          	mv	s2,s5
    18e8:	00001637          	lui	a2,0x1
    18ec:	40c40633          	sub	a2,s0,a2
    18f0:	68863603          	ld	a2,1672(a2) # 1688 <.LBB77_5+0x1bc>
    18f4:	00c58633          	add	a2,a1,a2
    18f8:	000015b7          	lui	a1,0x1
    18fc:	40b405b3          	sub	a1,s0,a1
    1900:	68c5b423          	sd	a2,1672(a1) # 1688 <.LBB77_5+0x1bc>
    1904:	f8843583          	ld	a1,-120(s0)
    1908:	01958803          	lb	a6,25(a1)
    190c:	f3043823          	sd	a6,-208(s0)
    1910:	000d8793          	mv	a5,s11
    1914:	03b505b3          	mul	a1,a0,s11
    1918:	00001637          	lui	a2,0x1
    191c:	40c40633          	sub	a2,s0,a2
    1920:	6a063603          	ld	a2,1696(a2) # 16a0 <.LBB77_5+0x1d4>
    1924:	00c58633          	add	a2,a1,a2
    1928:	000015b7          	lui	a1,0x1
    192c:	40b405b3          	sub	a1,s0,a1
    1930:	6ac5b023          	sd	a2,1696(a1) # 16a0 <.LBB77_5+0x1d4>
    1934:	f8843583          	ld	a1,-120(s0)
    1938:	01a58f03          	lb	t5,26(a1)
    193c:	030505b3          	mul	a1,a0,a6
    1940:	00001637          	lui	a2,0x1
    1944:	40c40633          	sub	a2,s0,a2
    1948:	6c063603          	ld	a2,1728(a2) # 16c0 <.LBB77_5+0x1f4>
    194c:	00c58633          	add	a2,a1,a2
    1950:	000015b7          	lui	a1,0x1
    1954:	40b405b3          	sub	a1,s0,a1
    1958:	6cc5b023          	sd	a2,1728(a1) # 16c0 <.LBB77_5+0x1f4>
    195c:	f8843583          	ld	a1,-120(s0)
    1960:	01b58483          	lb	s1,27(a1)
    1964:	03e505b3          	mul	a1,a0,t5
    1968:	e9e43423          	sd	t5,-376(s0)
    196c:	00001637          	lui	a2,0x1
    1970:	40c40633          	sub	a2,s0,a2
    1974:	6b863603          	ld	a2,1720(a2) # 16b8 <.LBB77_5+0x1ec>
    1978:	00c58633          	add	a2,a1,a2
    197c:	000015b7          	lui	a1,0x1
    1980:	40b405b3          	sub	a1,s0,a1
    1984:	6ac5bc23          	sd	a2,1720(a1) # 16b8 <.LBB77_5+0x1ec>
    1988:	f8843583          	ld	a1,-120(s0)
    198c:	01c58e83          	lb	t4,28(a1)
    1990:	029505b3          	mul	a1,a0,s1
    1994:	e8943023          	sd	s1,-384(s0)
    1998:	00001637          	lui	a2,0x1
    199c:	40c40633          	sub	a2,s0,a2
    19a0:	6b063603          	ld	a2,1712(a2) # 16b0 <.LBB77_5+0x1e4>
    19a4:	00c58633          	add	a2,a1,a2
    19a8:	000015b7          	lui	a1,0x1
    19ac:	40b405b3          	sub	a1,s0,a1
    19b0:	6ac5b823          	sd	a2,1712(a1) # 16b0 <.LBB77_5+0x1e4>
    19b4:	f8843583          	ld	a1,-120(s0)
    19b8:	01d58803          	lb	a6,29(a1)
    19bc:	03d505b3          	mul	a1,a0,t4
    19c0:	000e8d13          	mv	s10,t4
    19c4:	00001637          	lui	a2,0x1
    19c8:	40c40633          	sub	a2,s0,a2
    19cc:	6a863603          	ld	a2,1704(a2) # 16a8 <.LBB77_5+0x1dc>
    19d0:	00c58633          	add	a2,a1,a2
    19d4:	000015b7          	lui	a1,0x1
    19d8:	40b405b3          	sub	a1,s0,a1
    19dc:	6ac5b423          	sd	a2,1704(a1) # 16a8 <.LBB77_5+0x1dc>
    19e0:	f8843583          	ld	a1,-120(s0)
    19e4:	01e58a83          	lb	s5,30(a1)
    19e8:	030505b3          	mul	a1,a0,a6
    19ec:	00080e93          	mv	t4,a6
    19f0:	00001637          	lui	a2,0x1
    19f4:	40c40633          	sub	a2,s0,a2
    19f8:	68063603          	ld	a2,1664(a2) # 1680 <.LBB77_5+0x1b4>
    19fc:	00c58633          	add	a2,a1,a2
    1a00:	000015b7          	lui	a1,0x1
    1a04:	40b405b3          	sub	a1,s0,a1
    1a08:	68c5b023          	sd	a2,1664(a1) # 1680 <.LBB77_5+0x1b4>
    1a0c:	f8843583          	ld	a1,-120(s0)
    1a10:	01f58583          	lb	a1,31(a1)
    1a14:	f6843603          	ld	a2,-152(s0)
    1a18:	24060b83          	lb	s7,576(a2)
    1a1c:	03550db3          	mul	s11,a0,s5
    1a20:	eb543423          	sd	s5,-344(s0)
    1a24:	00001637          	lui	a2,0x1
    1a28:	40c40633          	sub	a2,s0,a2
    1a2c:	67863603          	ld	a2,1656(a2) # 1678 <.LBB77_5+0x1ac>
    1a30:	00cd8633          	add	a2,s11,a2
    1a34:	00001837          	lui	a6,0x1
    1a38:	41040833          	sub	a6,s0,a6
    1a3c:	66c83c23          	sd	a2,1656(a6) # 1678 <.LBB77_5+0x1ac>
    1a40:	02b50533          	mul	a0,a0,a1
    1a44:	00058813          	mv	a6,a1
    1a48:	eab43c23          	sd	a1,-328(s0)
    1a4c:	000015b7          	lui	a1,0x1
    1a50:	40b405b3          	sub	a1,s0,a1
    1a54:	6985b603          	ld	a2,1688(a1) # 1698 <.LBB77_5+0x1cc>
    1a58:	00c50633          	add	a2,a0,a2
    1a5c:	00001537          	lui	a0,0x1
    1a60:	40a40533          	sub	a0,s0,a0
    1a64:	68c53c23          	sd	a2,1688(a0) # 1698 <.LBB77_5+0x1cc>
    1a68:	ece43823          	sd	a4,-304(s0)
    1a6c:	02eb8533          	mul	a0,s7,a4
    1a70:	000015b7          	lui	a1,0x1
    1a74:	40b405b3          	sub	a1,s0,a1
    1a78:	7685b603          	ld	a2,1896(a1) # 1768 <.LBB77_5+0x29c>
    1a7c:	00c50633          	add	a2,a0,a2
    1a80:	00001537          	lui	a0,0x1
    1a84:	40a40533          	sub	a0,s0,a0
    1a88:	76c53423          	sd	a2,1896(a0) # 1768 <.LBB77_5+0x29c>
    1a8c:	ec843b03          	ld	s6,-312(s0)
    1a90:	036b8533          	mul	a0,s7,s6
    1a94:	000015b7          	lui	a1,0x1
    1a98:	40b405b3          	sub	a1,s0,a1
    1a9c:	7785b603          	ld	a2,1912(a1) # 1778 <.LBB77_5+0x2ac>
    1aa0:	00c50633          	add	a2,a0,a2
    1aa4:	00001537          	lui	a0,0x1
    1aa8:	40a40533          	sub	a0,s0,a0
    1aac:	76c53c23          	sd	a2,1912(a0) # 1778 <.LBB77_5+0x2ac>
    1ab0:	f2043883          	ld	a7,-224(s0)
    1ab4:	031b8533          	mul	a0,s7,a7
    1ab8:	000015b7          	lui	a1,0x1
    1abc:	40b405b3          	sub	a1,s0,a1
    1ac0:	7805b603          	ld	a2,1920(a1) # 1780 <.LBB77_5+0x2b4>
    1ac4:	00c50633          	add	a2,a0,a2
    1ac8:	00001537          	lui	a0,0x1
    1acc:	40a40533          	sub	a0,s0,a0
    1ad0:	78c53023          	sd	a2,1920(a0) # 1780 <.LBB77_5+0x2b4>
    1ad4:	f5043f83          	ld	t6,-176(s0)
    1ad8:	03fb8533          	mul	a0,s7,t6
    1adc:	000015b7          	lui	a1,0x1
    1ae0:	40b405b3          	sub	a1,s0,a1
    1ae4:	7905b603          	ld	a2,1936(a1) # 1790 <.LBB77_5+0x2c4>
    1ae8:	00c50633          	add	a2,a0,a2
    1aec:	00001537          	lui	a0,0x1
    1af0:	40a40533          	sub	a0,s0,a0
    1af4:	78c53823          	sd	a2,1936(a0) # 1790 <.LBB77_5+0x2c4>
    1af8:	f1843283          	ld	t0,-232(s0)
    1afc:	025b8533          	mul	a0,s7,t0
    1b00:	000015b7          	lui	a1,0x1
    1b04:	40b405b3          	sub	a1,s0,a1
    1b08:	7985b603          	ld	a2,1944(a1) # 1798 <.LBB77_5+0x2cc>
    1b0c:	00c50633          	add	a2,a0,a2
    1b10:	00001537          	lui	a0,0x1
    1b14:	40a40533          	sub	a0,s0,a0
    1b18:	78c53c23          	sd	a2,1944(a0) # 1798 <.LBB77_5+0x2cc>
    1b1c:	f7843503          	ld	a0,-136(s0)
    1b20:	02ab8533          	mul	a0,s7,a0
    1b24:	000015b7          	lui	a1,0x1
    1b28:	40b405b3          	sub	a1,s0,a1
    1b2c:	7a05b603          	ld	a2,1952(a1) # 17a0 <.LBB77_5+0x2d4>
    1b30:	00c50633          	add	a2,a0,a2
    1b34:	00001537          	lui	a0,0x1
    1b38:	40a40533          	sub	a0,s0,a0
    1b3c:	7ac53023          	sd	a2,1952(a0) # 17a0 <.LBB77_5+0x2d4>
    1b40:	f4043303          	ld	t1,-192(s0)
    1b44:	026b8533          	mul	a0,s7,t1
    1b48:	000015b7          	lui	a1,0x1
    1b4c:	40b405b3          	sub	a1,s0,a1
    1b50:	7a85b603          	ld	a2,1960(a1) # 17a8 <.LBB77_5+0x2dc>
    1b54:	00c50633          	add	a2,a0,a2
    1b58:	00001537          	lui	a0,0x1
    1b5c:	40a40533          	sub	a0,s0,a0
    1b60:	7ac53423          	sd	a2,1960(a0) # 17a8 <.LBB77_5+0x2dc>
    1b64:	039b8533          	mul	a0,s7,s9
    1b68:	000015b7          	lui	a1,0x1
    1b6c:	40b405b3          	sub	a1,s0,a1
    1b70:	7b05b603          	ld	a2,1968(a1) # 17b0 <.LBB77_5+0x2e4>
    1b74:	00c50633          	add	a2,a0,a2
    1b78:	00001537          	lui	a0,0x1
    1b7c:	40a40533          	sub	a0,s0,a0
    1b80:	7ac53823          	sd	a2,1968(a0) # 17b0 <.LBB77_5+0x2e4>
    1b84:	f1043e03          	ld	t3,-240(s0)
    1b88:	03cb8533          	mul	a0,s7,t3
    1b8c:	000015b7          	lui	a1,0x1
    1b90:	40b405b3          	sub	a1,s0,a1
    1b94:	7b85b603          	ld	a2,1976(a1) # 17b8 <.LBB77_5+0x2ec>
    1b98:	00c50633          	add	a2,a0,a2
    1b9c:	00001537          	lui	a0,0x1
    1ba0:	40a40533          	sub	a0,s0,a0
    1ba4:	7ac53c23          	sd	a2,1976(a0) # 17b8 <.LBB77_5+0x2ec>
    1ba8:	ec043c83          	ld	s9,-320(s0)
    1bac:	039b8533          	mul	a0,s7,s9
    1bb0:	000015b7          	lui	a1,0x1
    1bb4:	40b405b3          	sub	a1,s0,a1
    1bb8:	7c05b603          	ld	a2,1984(a1) # 17c0 <.LBB77_5+0x2f4>
    1bbc:	00c50633          	add	a2,a0,a2
    1bc0:	00001537          	lui	a0,0x1
    1bc4:	40a40533          	sub	a0,s0,a0
    1bc8:	7cc53023          	sd	a2,1984(a0) # 17c0 <.LBB77_5+0x2f4>
    1bcc:	f4843983          	ld	s3,-184(s0)
    1bd0:	033b8533          	mul	a0,s7,s3
    1bd4:	000015b7          	lui	a1,0x1
    1bd8:	40b405b3          	sub	a1,s0,a1
    1bdc:	7c85b603          	ld	a2,1992(a1) # 17c8 <.LBB77_5+0x2fc>
    1be0:	00c50633          	add	a2,a0,a2
    1be4:	00001537          	lui	a0,0x1
    1be8:	40a40533          	sub	a0,s0,a0
    1bec:	7cc53423          	sd	a2,1992(a0) # 17c8 <.LBB77_5+0x2fc>
    1bf0:	f5843503          	ld	a0,-168(s0)
    1bf4:	02ab8533          	mul	a0,s7,a0
    1bf8:	000015b7          	lui	a1,0x1
    1bfc:	40b405b3          	sub	a1,s0,a1
    1c00:	7d05b603          	ld	a2,2000(a1) # 17d0 <.LBB77_5+0x304>
    1c04:	00c50633          	add	a2,a0,a2
    1c08:	00001537          	lui	a0,0x1
    1c0c:	40a40533          	sub	a0,s0,a0
    1c10:	7cc53823          	sd	a2,2000(a0) # 17d0 <.LBB77_5+0x304>
    1c14:	ee043503          	ld	a0,-288(s0)
    1c18:	02ab8533          	mul	a0,s7,a0
    1c1c:	000015b7          	lui	a1,0x1
    1c20:	40b405b3          	sub	a1,s0,a1
    1c24:	7d85b603          	ld	a2,2008(a1) # 17d8 <.LBB77_5+0x30c>
    1c28:	00c50633          	add	a2,a0,a2
    1c2c:	00001537          	lui	a0,0x1
    1c30:	40a40533          	sub	a0,s0,a0
    1c34:	7cc53c23          	sd	a2,2008(a0) # 17d8 <.LBB77_5+0x30c>
    1c38:	ee843503          	ld	a0,-280(s0)
    1c3c:	02ab8533          	mul	a0,s7,a0
    1c40:	000015b7          	lui	a1,0x1
    1c44:	40b405b3          	sub	a1,s0,a1
    1c48:	7e05b603          	ld	a2,2016(a1) # 17e0 <.LBB77_5+0x314>
    1c4c:	00c50633          	add	a2,a0,a2
    1c50:	00001537          	lui	a0,0x1
    1c54:	40a40533          	sub	a0,s0,a0
    1c58:	7ec53023          	sd	a2,2016(a0) # 17e0 <.LBB77_5+0x314>
    1c5c:	e9843503          	ld	a0,-360(s0)
    1c60:	02ab8533          	mul	a0,s7,a0
    1c64:	000015b7          	lui	a1,0x1
    1c68:	40b405b3          	sub	a1,s0,a1
    1c6c:	7e85b603          	ld	a2,2024(a1) # 17e8 <.LBB77_5+0x31c>
    1c70:	00c50633          	add	a2,a0,a2
    1c74:	00001537          	lui	a0,0x1
    1c78:	40a40533          	sub	a0,s0,a0
    1c7c:	7ec53423          	sd	a2,2024(a0) # 17e8 <.LBB77_5+0x31c>
    1c80:	ea043503          	ld	a0,-352(s0)
    1c84:	02ab8533          	mul	a0,s7,a0
    1c88:	000015b7          	lui	a1,0x1
    1c8c:	40b405b3          	sub	a1,s0,a1
    1c90:	7f05b603          	ld	a2,2032(a1) # 17f0 <.LBB77_5+0x324>
    1c94:	00c50633          	add	a2,a0,a2
    1c98:	00001537          	lui	a0,0x1
    1c9c:	40a40533          	sub	a0,s0,a0
    1ca0:	7ec53823          	sd	a2,2032(a0) # 17f0 <.LBB77_5+0x324>
    1ca4:	f6043503          	ld	a0,-160(s0)
    1ca8:	02ab8533          	mul	a0,s7,a0
    1cac:	000015b7          	lui	a1,0x1
    1cb0:	40b405b3          	sub	a1,s0,a1
    1cb4:	7f85b603          	ld	a2,2040(a1) # 17f8 <.LBB77_5+0x32c>
    1cb8:	00c50633          	add	a2,a0,a2
    1cbc:	00001537          	lui	a0,0x1
    1cc0:	40a40533          	sub	a0,s0,a0
    1cc4:	7ec53c23          	sd	a2,2040(a0) # 17f8 <.LBB77_5+0x32c>
    1cc8:	f2843503          	ld	a0,-216(s0)
    1ccc:	02ab8533          	mul	a0,s7,a0
    1cd0:	80043603          	ld	a2,-2048(s0)
    1cd4:	00c50633          	add	a2,a0,a2
    1cd8:	80c43023          	sd	a2,-2048(s0)
    1cdc:	027b8533          	mul	a0,s7,t2
    1ce0:	80843603          	ld	a2,-2040(s0)
    1ce4:	00c50633          	add	a2,a0,a2
    1ce8:	80c43423          	sd	a2,-2040(s0)
    1cec:	02db8533          	mul	a0,s7,a3
    1cf0:	81043603          	ld	a2,-2032(s0)
    1cf4:	00c50633          	add	a2,a0,a2
    1cf8:	80c43823          	sd	a2,-2032(s0)
    1cfc:	ed443c23          	sd	s4,-296(s0)
    1d00:	034b8533          	mul	a0,s7,s4
    1d04:	81843603          	ld	a2,-2024(s0)
    1d08:	00c50633          	add	a2,a0,a2
    1d0c:	80c43c23          	sd	a2,-2024(s0)
    1d10:	038b8533          	mul	a0,s7,s8
    1d14:	82043603          	ld	a2,-2016(s0)
    1d18:	00c50633          	add	a2,a0,a2
    1d1c:	82c43023          	sd	a2,-2016(s0)
    1d20:	00008c13          	mv	s8,ra
    1d24:	e6143023          	sd	ra,-416(s0)
    1d28:	021b8533          	mul	a0,s7,ra
    1d2c:	82843603          	ld	a2,-2008(s0)
    1d30:	00c50633          	add	a2,a0,a2
    1d34:	82c43423          	sd	a2,-2008(s0)
    1d38:	00090593          	mv	a1,s2
    1d3c:	e7243c23          	sd	s2,-392(s0)
    1d40:	032b8533          	mul	a0,s7,s2
    1d44:	83043603          	ld	a2,-2000(s0)
    1d48:	00c50633          	add	a2,a0,a2
    1d4c:	82c43823          	sd	a2,-2000(s0)
    1d50:	02fb8533          	mul	a0,s7,a5
    1d54:	00078093          	mv	ra,a5
    1d58:	83843603          	ld	a2,-1992(s0)
    1d5c:	00c50633          	add	a2,a0,a2
    1d60:	82c43c23          	sd	a2,-1992(s0)
    1d64:	f3043503          	ld	a0,-208(s0)
    1d68:	02ab8533          	mul	a0,s7,a0
    1d6c:	84043603          	ld	a2,-1984(s0)
    1d70:	00c50633          	add	a2,a0,a2
    1d74:	84c43023          	sd	a2,-1984(s0)
    1d78:	03eb8533          	mul	a0,s7,t5
    1d7c:	84843603          	ld	a2,-1976(s0)
    1d80:	00c50633          	add	a2,a0,a2
    1d84:	84c43423          	sd	a2,-1976(s0)
    1d88:	029b8533          	mul	a0,s7,s1
    1d8c:	85043603          	ld	a2,-1968(s0)
    1d90:	00c50633          	add	a2,a0,a2
    1d94:	84c43823          	sd	a2,-1968(s0)
    1d98:	03ab8533          	mul	a0,s7,s10
    1d9c:	00001637          	lui	a2,0x1
    1da0:	40c40633          	sub	a2,s0,a2
    1da4:	67a63423          	sd	s10,1640(a2) # 1668 <.LBB77_5+0x19c>
    1da8:	85843603          	ld	a2,-1960(s0)
    1dac:	00c50633          	add	a2,a0,a2
    1db0:	84c43c23          	sd	a2,-1960(s0)
    1db4:	03db8533          	mul	a0,s7,t4
    1db8:	e7d43823          	sd	t4,-400(s0)
    1dbc:	86043603          	ld	a2,-1952(s0)
    1dc0:	00c50633          	add	a2,a0,a2
    1dc4:	86c43023          	sd	a2,-1952(s0)
    1dc8:	f6843503          	ld	a0,-152(s0)
    1dcc:	48050503          	lb	a0,1152(a0)
    1dd0:	035b8db3          	mul	s11,s7,s5
    1dd4:	86843603          	ld	a2,-1944(s0)
    1dd8:	00cd8633          	add	a2,s11,a2
    1ddc:	86c43423          	sd	a2,-1944(s0)
    1de0:	030b8bb3          	mul	s7,s7,a6
    1de4:	87043603          	ld	a2,-1936(s0)
    1de8:	00cb8633          	add	a2,s7,a2
    1dec:	86c43823          	sd	a2,-1936(s0)
    1df0:	02e50bb3          	mul	s7,a0,a4
    1df4:	87843603          	ld	a2,-1928(s0)
    1df8:	00cb8633          	add	a2,s7,a2
    1dfc:	86c43c23          	sd	a2,-1928(s0)
    1e00:	03650bb3          	mul	s7,a0,s6
    1e04:	88043603          	ld	a2,-1920(s0)
    1e08:	00cb8633          	add	a2,s7,a2
    1e0c:	88c43023          	sd	a2,-1920(s0)
    1e10:	03150bb3          	mul	s7,a0,a7
    1e14:	00088813          	mv	a6,a7
    1e18:	88843603          	ld	a2,-1912(s0)
    1e1c:	00cb8633          	add	a2,s7,a2
    1e20:	88c43423          	sd	a2,-1912(s0)
    1e24:	000f8893          	mv	a7,t6
    1e28:	03f50bb3          	mul	s7,a0,t6
    1e2c:	89043603          	ld	a2,-1904(s0)
    1e30:	00cb8633          	add	a2,s7,a2
    1e34:	88c43823          	sd	a2,-1904(s0)
    1e38:	02550bb3          	mul	s7,a0,t0
    1e3c:	89843603          	ld	a2,-1896(s0)
    1e40:	00cb8633          	add	a2,s7,a2
    1e44:	88c43c23          	sd	a2,-1896(s0)
    1e48:	f7843783          	ld	a5,-136(s0)
    1e4c:	02f50bb3          	mul	s7,a0,a5
    1e50:	8a043603          	ld	a2,-1888(s0)
    1e54:	00cb8633          	add	a2,s7,a2
    1e58:	8ac43023          	sd	a2,-1888(s0)
    1e5c:	02650bb3          	mul	s7,a0,t1
    1e60:	8a843603          	ld	a2,-1880(s0)
    1e64:	00cb8633          	add	a2,s7,a2
    1e68:	8ac43423          	sd	a2,-1880(s0)
    1e6c:	eb043303          	ld	t1,-336(s0)
    1e70:	02650bb3          	mul	s7,a0,t1
    1e74:	8b043603          	ld	a2,-1872(s0)
    1e78:	00cb8633          	add	a2,s7,a2
    1e7c:	8ac43823          	sd	a2,-1872(s0)
    1e80:	03c50bb3          	mul	s7,a0,t3
    1e84:	8b843603          	ld	a2,-1864(s0)
    1e88:	00cb8633          	add	a2,s7,a2
    1e8c:	8ac43c23          	sd	a2,-1864(s0)
    1e90:	03950bb3          	mul	s7,a0,s9
    1e94:	8c043603          	ld	a2,-1856(s0)
    1e98:	00cb8633          	add	a2,s7,a2
    1e9c:	8cc43023          	sd	a2,-1856(s0)
    1ea0:	03350bb3          	mul	s7,a0,s3
    1ea4:	8c843603          	ld	a2,-1848(s0)
    1ea8:	00cb8633          	add	a2,s7,a2
    1eac:	8cc43423          	sd	a2,-1848(s0)
    1eb0:	f5843903          	ld	s2,-168(s0)
    1eb4:	03250bb3          	mul	s7,a0,s2
    1eb8:	8d043603          	ld	a2,-1840(s0)
    1ebc:	00cb8633          	add	a2,s7,a2
    1ec0:	8cc43823          	sd	a2,-1840(s0)
    1ec4:	ee043483          	ld	s1,-288(s0)
    1ec8:	02950bb3          	mul	s7,a0,s1
    1ecc:	8d843603          	ld	a2,-1832(s0)
    1ed0:	00cb8633          	add	a2,s7,a2
    1ed4:	8cc43c23          	sd	a2,-1832(s0)
    1ed8:	ee843f83          	ld	t6,-280(s0)
    1edc:	03f50bb3          	mul	s7,a0,t6
    1ee0:	8e043603          	ld	a2,-1824(s0)
    1ee4:	00cb8633          	add	a2,s7,a2
    1ee8:	8ec43023          	sd	a2,-1824(s0)
    1eec:	e9843f03          	ld	t5,-360(s0)
    1ef0:	03e50bb3          	mul	s7,a0,t5
    1ef4:	8e843603          	ld	a2,-1816(s0)
    1ef8:	00cb8633          	add	a2,s7,a2
    1efc:	8ec43423          	sd	a2,-1816(s0)
    1f00:	ea043e03          	ld	t3,-352(s0)
    1f04:	03c50bb3          	mul	s7,a0,t3
    1f08:	8f043603          	ld	a2,-1808(s0)
    1f0c:	00cb8633          	add	a2,s7,a2
    1f10:	8ec43823          	sd	a2,-1808(s0)
    1f14:	f6043383          	ld	t2,-160(s0)
    1f18:	02750bb3          	mul	s7,a0,t2
    1f1c:	8f843603          	ld	a2,-1800(s0)
    1f20:	00cb8633          	add	a2,s7,a2
    1f24:	8ec43c23          	sd	a2,-1800(s0)
    1f28:	f2843283          	ld	t0,-216(s0)
    1f2c:	02550bb3          	mul	s7,a0,t0
    1f30:	90043603          	ld	a2,-1792(s0)
    1f34:	00cb8633          	add	a2,s7,a2
    1f38:	90c43023          	sd	a2,-1792(s0)
    1f3c:	f3843603          	ld	a2,-200(s0)
    1f40:	02c50bb3          	mul	s7,a0,a2
    1f44:	90843603          	ld	a2,-1784(s0)
    1f48:	00cb8633          	add	a2,s7,a2
    1f4c:	90c43423          	sd	a2,-1784(s0)
    1f50:	e6d43423          	sd	a3,-408(s0)
    1f54:	02d50bb3          	mul	s7,a0,a3
    1f58:	91043603          	ld	a2,-1776(s0)
    1f5c:	00cb8633          	add	a2,s7,a2
    1f60:	90c43823          	sd	a2,-1776(s0)
    1f64:	03450bb3          	mul	s7,a0,s4
    1f68:	91843603          	ld	a2,-1768(s0)
    1f6c:	00cb8633          	add	a2,s7,a2
    1f70:	90c43c23          	sd	a2,-1768(s0)
    1f74:	e5843703          	ld	a4,-424(s0)
    1f78:	02e50bb3          	mul	s7,a0,a4
    1f7c:	92043603          	ld	a2,-1760(s0)
    1f80:	00cb8633          	add	a2,s7,a2
    1f84:	92c43023          	sd	a2,-1760(s0)
    1f88:	03850bb3          	mul	s7,a0,s8
    1f8c:	92843603          	ld	a2,-1752(s0)
    1f90:	00cb8633          	add	a2,s7,a2
    1f94:	92c43423          	sd	a2,-1752(s0)
    1f98:	02b50bb3          	mul	s7,a0,a1
    1f9c:	93043603          	ld	a2,-1744(s0)
    1fa0:	00cb8633          	add	a2,s7,a2
    1fa4:	92c43823          	sd	a2,-1744(s0)
    1fa8:	00008593          	mv	a1,ra
    1fac:	02150bb3          	mul	s7,a0,ra
    1fb0:	93843603          	ld	a2,-1736(s0)
    1fb4:	00cb8633          	add	a2,s7,a2
    1fb8:	92c43c23          	sd	a2,-1736(s0)
    1fbc:	f3043083          	ld	ra,-208(s0)
    1fc0:	02150bb3          	mul	s7,a0,ra
    1fc4:	94043603          	ld	a2,-1728(s0)
    1fc8:	00cb8633          	add	a2,s7,a2
    1fcc:	94c43023          	sd	a2,-1728(s0)
    1fd0:	e8843a03          	ld	s4,-376(s0)
    1fd4:	03450bb3          	mul	s7,a0,s4
    1fd8:	94843603          	ld	a2,-1720(s0)
    1fdc:	00cb8633          	add	a2,s7,a2
    1fe0:	94c43423          	sd	a2,-1720(s0)
    1fe4:	e8043a83          	ld	s5,-384(s0)
    1fe8:	03550bb3          	mul	s7,a0,s5
    1fec:	95043603          	ld	a2,-1712(s0)
    1ff0:	00cb8633          	add	a2,s7,a2
    1ff4:	94c43823          	sd	a2,-1712(s0)
    1ff8:	03a50bb3          	mul	s7,a0,s10
    1ffc:	95843603          	ld	a2,-1704(s0)
    2000:	00cb8633          	add	a2,s7,a2
    2004:	94c43c23          	sd	a2,-1704(s0)
    2008:	03d50bb3          	mul	s7,a0,t4
    200c:	96043603          	ld	a2,-1696(s0)
    2010:	00cb8633          	add	a2,s7,a2
    2014:	96c43023          	sd	a2,-1696(s0)
    2018:	f6843603          	ld	a2,-152(s0)
    201c:	6c060b83          	lb	s7,1728(a2)
    2020:	ea843e83          	ld	t4,-344(s0)
    2024:	03d50db3          	mul	s11,a0,t4
    2028:	96843603          	ld	a2,-1688(s0)
    202c:	00cd8633          	add	a2,s11,a2
    2030:	96c43423          	sd	a2,-1688(s0)
    2034:	eb843b03          	ld	s6,-328(s0)
    2038:	03650533          	mul	a0,a0,s6
    203c:	97043603          	ld	a2,-1680(s0)
    2040:	00c50633          	add	a2,a0,a2
    2044:	96c43823          	sd	a2,-1680(s0)
    2048:	ed043503          	ld	a0,-304(s0)
    204c:	02ab8533          	mul	a0,s7,a0
    2050:	97843603          	ld	a2,-1672(s0)
    2054:	00c50633          	add	a2,a0,a2
    2058:	96c43c23          	sd	a2,-1672(s0)
    205c:	ec843d03          	ld	s10,-312(s0)
    2060:	03ab8533          	mul	a0,s7,s10
    2064:	98043603          	ld	a2,-1664(s0)
    2068:	00c50633          	add	a2,a0,a2
    206c:	98c43023          	sd	a2,-1664(s0)
    2070:	030b8533          	mul	a0,s7,a6
    2074:	98843603          	ld	a2,-1656(s0)
    2078:	00c50633          	add	a2,a0,a2
    207c:	98c43423          	sd	a2,-1656(s0)
    2080:	031b8533          	mul	a0,s7,a7
    2084:	99043603          	ld	a2,-1648(s0)
    2088:	00c50633          	add	a2,a0,a2
    208c:	98c43823          	sd	a2,-1648(s0)
    2090:	f1843c03          	ld	s8,-232(s0)
    2094:	038b8533          	mul	a0,s7,s8
    2098:	99843603          	ld	a2,-1640(s0)
    209c:	00c50633          	add	a2,a0,a2
    20a0:	98c43c23          	sd	a2,-1640(s0)
    20a4:	02fb8533          	mul	a0,s7,a5
    20a8:	9a043603          	ld	a2,-1632(s0)
    20ac:	00c50633          	add	a2,a0,a2
    20b0:	9ac43023          	sd	a2,-1632(s0)
    20b4:	f4043503          	ld	a0,-192(s0)
    20b8:	02ab8533          	mul	a0,s7,a0
    20bc:	9a843603          	ld	a2,-1624(s0)
    20c0:	00c50633          	add	a2,a0,a2
    20c4:	9ac43423          	sd	a2,-1624(s0)
    20c8:	026b8533          	mul	a0,s7,t1
    20cc:	9b043603          	ld	a2,-1616(s0)
    20d0:	00c50633          	add	a2,a0,a2
    20d4:	9ac43823          	sd	a2,-1616(s0)
    20d8:	f1043803          	ld	a6,-240(s0)
    20dc:	030b8533          	mul	a0,s7,a6
    20e0:	9b843603          	ld	a2,-1608(s0)
    20e4:	00c50633          	add	a2,a0,a2
    20e8:	9ac43c23          	sd	a2,-1608(s0)
    20ec:	039b8533          	mul	a0,s7,s9
    20f0:	9c043603          	ld	a2,-1600(s0)
    20f4:	00c50633          	add	a2,a0,a2
    20f8:	9cc43023          	sd	a2,-1600(s0)
    20fc:	033b8533          	mul	a0,s7,s3
    2100:	9c843603          	ld	a2,-1592(s0)
    2104:	00c50633          	add	a2,a0,a2
    2108:	9cc43423          	sd	a2,-1592(s0)
    210c:	032b8533          	mul	a0,s7,s2
    2110:	9d043603          	ld	a2,-1584(s0)
    2114:	00c50633          	add	a2,a0,a2
    2118:	9cc43823          	sd	a2,-1584(s0)
    211c:	029b8533          	mul	a0,s7,s1
    2120:	9d843603          	ld	a2,-1576(s0)
    2124:	00c50633          	add	a2,a0,a2
    2128:	9cc43c23          	sd	a2,-1576(s0)
    212c:	03fb8533          	mul	a0,s7,t6
    2130:	9e043603          	ld	a2,-1568(s0)
    2134:	00c50633          	add	a2,a0,a2
    2138:	9ec43023          	sd	a2,-1568(s0)
    213c:	03eb8533          	mul	a0,s7,t5
    2140:	000f0f93          	mv	t6,t5
    2144:	9e843603          	ld	a2,-1560(s0)
    2148:	00c50633          	add	a2,a0,a2
    214c:	9ec43423          	sd	a2,-1560(s0)
    2150:	03cb8533          	mul	a0,s7,t3
    2154:	9f043603          	ld	a2,-1552(s0)
    2158:	00c50633          	add	a2,a0,a2
    215c:	9ec43823          	sd	a2,-1552(s0)
    2160:	027b8533          	mul	a0,s7,t2
    2164:	9f843603          	ld	a2,-1544(s0)
    2168:	00c50633          	add	a2,a0,a2
    216c:	9ec43c23          	sd	a2,-1544(s0)
    2170:	025b8533          	mul	a0,s7,t0
    2174:	a0043603          	ld	a2,-1536(s0)
    2178:	00c50633          	add	a2,a0,a2
    217c:	a0c43023          	sd	a2,-1536(s0)
    2180:	f3843303          	ld	t1,-200(s0)
    2184:	026b8533          	mul	a0,s7,t1
    2188:	a0843603          	ld	a2,-1528(s0)
    218c:	00c50633          	add	a2,a0,a2
    2190:	a0c43423          	sd	a2,-1528(s0)
    2194:	02db8533          	mul	a0,s7,a3
    2198:	a1043603          	ld	a2,-1520(s0)
    219c:	00c50633          	add	a2,a0,a2
    21a0:	a0c43823          	sd	a2,-1520(s0)
    21a4:	ed843503          	ld	a0,-296(s0)
    21a8:	02ab8533          	mul	a0,s7,a0
    21ac:	a1843603          	ld	a2,-1512(s0)
    21b0:	00c50633          	add	a2,a0,a2
    21b4:	a0c43c23          	sd	a2,-1512(s0)
    21b8:	02eb8533          	mul	a0,s7,a4
    21bc:	00070913          	mv	s2,a4
    21c0:	a2043603          	ld	a2,-1504(s0)
    21c4:	00c50633          	add	a2,a0,a2
    21c8:	a2c43023          	sd	a2,-1504(s0)
    21cc:	e6043883          	ld	a7,-416(s0)
    21d0:	031b8533          	mul	a0,s7,a7
    21d4:	a2843603          	ld	a2,-1496(s0)
    21d8:	00c50633          	add	a2,a0,a2
    21dc:	a2c43423          	sd	a2,-1496(s0)
    21e0:	e7843c83          	ld	s9,-392(s0)
    21e4:	039b8533          	mul	a0,s7,s9
    21e8:	a3043603          	ld	a2,-1488(s0)
    21ec:	00c50633          	add	a2,a0,a2
    21f0:	a2c43823          	sd	a2,-1488(s0)
    21f4:	02bb8533          	mul	a0,s7,a1
    21f8:	00058293          	mv	t0,a1
    21fc:	e8b43823          	sd	a1,-368(s0)
    2200:	a3843603          	ld	a2,-1480(s0)
    2204:	00c50633          	add	a2,a0,a2
    2208:	a2c43c23          	sd	a2,-1480(s0)
    220c:	021b8533          	mul	a0,s7,ra
    2210:	a4043603          	ld	a2,-1472(s0)
    2214:	00c50633          	add	a2,a0,a2
    2218:	a4c43023          	sd	a2,-1472(s0)
    221c:	000a0f13          	mv	t5,s4
    2220:	034b8533          	mul	a0,s7,s4
    2224:	a4843603          	ld	a2,-1464(s0)
    2228:	00c50633          	add	a2,a0,a2
    222c:	a4c43423          	sd	a2,-1464(s0)
    2230:	000a8a13          	mv	s4,s5
    2234:	035b8533          	mul	a0,s7,s5
    2238:	a5043603          	ld	a2,-1456(s0)
    223c:	00c50633          	add	a2,a0,a2
    2240:	a4c43823          	sd	a2,-1456(s0)
    2244:	00001537          	lui	a0,0x1
    2248:	40a40533          	sub	a0,s0,a0
    224c:	66853983          	ld	s3,1640(a0) # 1668 <.LBB77_5+0x19c>
    2250:	033b8533          	mul	a0,s7,s3
    2254:	a5843603          	ld	a2,-1448(s0)
    2258:	00c50633          	add	a2,a0,a2
    225c:	a4c43c23          	sd	a2,-1448(s0)
    2260:	e7043a83          	ld	s5,-400(s0)
    2264:	035b8533          	mul	a0,s7,s5
    2268:	a6043603          	ld	a2,-1440(s0)
    226c:	00c50633          	add	a2,a0,a2
    2270:	a6c43023          	sd	a2,-1440(s0)
    2274:	f7043503          	ld	a0,-144(s0)
    2278:	94050503          	lb	a0,-1728(a0)
    227c:	03db8db3          	mul	s11,s7,t4
    2280:	a6843603          	ld	a2,-1432(s0)
    2284:	00cd8633          	add	a2,s11,a2
    2288:	a6c43423          	sd	a2,-1432(s0)
    228c:	036b8bb3          	mul	s7,s7,s6
    2290:	a7043603          	ld	a2,-1424(s0)
    2294:	00cb8633          	add	a2,s7,a2
    2298:	a6c43823          	sd	a2,-1424(s0)
    229c:	ed043083          	ld	ra,-304(s0)
    22a0:	02150bb3          	mul	s7,a0,ra
    22a4:	a7843603          	ld	a2,-1416(s0)
    22a8:	00cb8633          	add	a2,s7,a2
    22ac:	a6c43c23          	sd	a2,-1416(s0)
    22b0:	000d0593          	mv	a1,s10
    22b4:	03a50bb3          	mul	s7,a0,s10
    22b8:	a8043603          	ld	a2,-1408(s0)
    22bc:	00cb8633          	add	a2,s7,a2
    22c0:	a8c43023          	sd	a2,-1408(s0)
    22c4:	f2043d03          	ld	s10,-224(s0)
    22c8:	03a50bb3          	mul	s7,a0,s10
    22cc:	a8843603          	ld	a2,-1400(s0)
    22d0:	00cb8633          	add	a2,s7,a2
    22d4:	a8c43423          	sd	a2,-1400(s0)
    22d8:	f5043603          	ld	a2,-176(s0)
    22dc:	02c50bb3          	mul	s7,a0,a2
    22e0:	a9043603          	ld	a2,-1392(s0)
    22e4:	00cb8633          	add	a2,s7,a2
    22e8:	a8c43823          	sd	a2,-1392(s0)
    22ec:	000c0793          	mv	a5,s8
    22f0:	03850bb3          	mul	s7,a0,s8
    22f4:	a9843603          	ld	a2,-1384(s0)
    22f8:	00cb8633          	add	a2,s7,a2
    22fc:	a8c43c23          	sd	a2,-1384(s0)
    2300:	f7843603          	ld	a2,-136(s0)
    2304:	02c50bb3          	mul	s7,a0,a2
    2308:	aa043603          	ld	a2,-1376(s0)
    230c:	00cb8633          	add	a2,s7,a2
    2310:	aac43023          	sd	a2,-1376(s0)
    2314:	f4043683          	ld	a3,-192(s0)
    2318:	02d50bb3          	mul	s7,a0,a3
    231c:	aa843603          	ld	a2,-1368(s0)
    2320:	00cb8633          	add	a2,s7,a2
    2324:	aac43423          	sd	a2,-1368(s0)
    2328:	eb043703          	ld	a4,-336(s0)
    232c:	02e50bb3          	mul	s7,a0,a4
    2330:	ab043603          	ld	a2,-1360(s0)
    2334:	00cb8633          	add	a2,s7,a2
    2338:	aac43823          	sd	a2,-1360(s0)
    233c:	03050bb3          	mul	s7,a0,a6
    2340:	ab843603          	ld	a2,-1352(s0)
    2344:	00cb8633          	add	a2,s7,a2
    2348:	aac43c23          	sd	a2,-1352(s0)
    234c:	ec043803          	ld	a6,-320(s0)
    2350:	03050bb3          	mul	s7,a0,a6
    2354:	ac043603          	ld	a2,-1344(s0)
    2358:	00cb8633          	add	a2,s7,a2
    235c:	acc43023          	sd	a2,-1344(s0)
    2360:	f4843603          	ld	a2,-184(s0)
    2364:	02c50bb3          	mul	s7,a0,a2
    2368:	ac843603          	ld	a2,-1336(s0)
    236c:	00cb8633          	add	a2,s7,a2
    2370:	acc43423          	sd	a2,-1336(s0)
    2374:	f5843603          	ld	a2,-168(s0)
    2378:	02c50bb3          	mul	s7,a0,a2
    237c:	ad043603          	ld	a2,-1328(s0)
    2380:	00cb8633          	add	a2,s7,a2
    2384:	acc43823          	sd	a2,-1328(s0)
    2388:	02950bb3          	mul	s7,a0,s1
    238c:	ad843603          	ld	a2,-1320(s0)
    2390:	00cb8633          	add	a2,s7,a2
    2394:	acc43c23          	sd	a2,-1320(s0)
    2398:	ee843483          	ld	s1,-280(s0)
    239c:	02950bb3          	mul	s7,a0,s1
    23a0:	ae043603          	ld	a2,-1312(s0)
    23a4:	00cb8633          	add	a2,s7,a2
    23a8:	aec43023          	sd	a2,-1312(s0)
    23ac:	03f50bb3          	mul	s7,a0,t6
    23b0:	ae843603          	ld	a2,-1304(s0)
    23b4:	00cb8633          	add	a2,s7,a2
    23b8:	aec43423          	sd	a2,-1304(s0)
    23bc:	03c50bb3          	mul	s7,a0,t3
    23c0:	af043603          	ld	a2,-1296(s0)
    23c4:	00cb8633          	add	a2,s7,a2
    23c8:	aec43823          	sd	a2,-1296(s0)
    23cc:	02750bb3          	mul	s7,a0,t2
    23d0:	af843603          	ld	a2,-1288(s0)
    23d4:	00cb8633          	add	a2,s7,a2
    23d8:	aec43c23          	sd	a2,-1288(s0)
    23dc:	f2843e83          	ld	t4,-216(s0)
    23e0:	03d50bb3          	mul	s7,a0,t4
    23e4:	b0043603          	ld	a2,-1280(s0)
    23e8:	00cb8633          	add	a2,s7,a2
    23ec:	b0c43023          	sd	a2,-1280(s0)
    23f0:	02650bb3          	mul	s7,a0,t1
    23f4:	b0843603          	ld	a2,-1272(s0)
    23f8:	00cb8633          	add	a2,s7,a2
    23fc:	b0c43423          	sd	a2,-1272(s0)
    2400:	e6843303          	ld	t1,-408(s0)
    2404:	02650bb3          	mul	s7,a0,t1
    2408:	b1043603          	ld	a2,-1264(s0)
    240c:	00cb8633          	add	a2,s7,a2
    2410:	b0c43823          	sd	a2,-1264(s0)
    2414:	ed843603          	ld	a2,-296(s0)
    2418:	02c50bb3          	mul	s7,a0,a2
    241c:	b1843603          	ld	a2,-1256(s0)
    2420:	00cb8633          	add	a2,s7,a2
    2424:	b0c43c23          	sd	a2,-1256(s0)
    2428:	03250bb3          	mul	s7,a0,s2
    242c:	b2043603          	ld	a2,-1248(s0)
    2430:	00cb8633          	add	a2,s7,a2
    2434:	b2c43023          	sd	a2,-1248(s0)
    2438:	03150bb3          	mul	s7,a0,a7
    243c:	b2843603          	ld	a2,-1240(s0)
    2440:	00cb8633          	add	a2,s7,a2
    2444:	b2c43423          	sd	a2,-1240(s0)
    2448:	000c8893          	mv	a7,s9
    244c:	03950bb3          	mul	s7,a0,s9
    2450:	b3043603          	ld	a2,-1232(s0)
    2454:	00cb8633          	add	a2,s7,a2
    2458:	b2c43823          	sd	a2,-1232(s0)
    245c:	02550bb3          	mul	s7,a0,t0
    2460:	b3843603          	ld	a2,-1224(s0)
    2464:	00cb8633          	add	a2,s7,a2
    2468:	b2c43c23          	sd	a2,-1224(s0)
    246c:	f3043283          	ld	t0,-208(s0)
    2470:	02550bb3          	mul	s7,a0,t0
    2474:	b4043603          	ld	a2,-1216(s0)
    2478:	00cb8633          	add	a2,s7,a2
    247c:	b4c43023          	sd	a2,-1216(s0)
    2480:	03e50bb3          	mul	s7,a0,t5
    2484:	b4843603          	ld	a2,-1208(s0)
    2488:	00cb8633          	add	a2,s7,a2
    248c:	b4c43423          	sd	a2,-1208(s0)
    2490:	03450bb3          	mul	s7,a0,s4
    2494:	b5043603          	ld	a2,-1200(s0)
    2498:	00cb8633          	add	a2,s7,a2
    249c:	b4c43823          	sd	a2,-1200(s0)
    24a0:	00098c13          	mv	s8,s3
    24a4:	03350bb3          	mul	s7,a0,s3
    24a8:	b5843603          	ld	a2,-1192(s0)
    24ac:	00cb8633          	add	a2,s7,a2
    24b0:	b4c43c23          	sd	a2,-1192(s0)
    24b4:	03550bb3          	mul	s7,a0,s5
    24b8:	000a8f13          	mv	t5,s5
    24bc:	b6043603          	ld	a2,-1184(s0)
    24c0:	00cb8633          	add	a2,s7,a2
    24c4:	b6c43023          	sd	a2,-1184(s0)
    24c8:	f7043383          	ld	t2,-144(s0)
    24cc:	b8038b83          	lb	s7,-1152(t2)
    24d0:	ea843a83          	ld	s5,-344(s0)
    24d4:	03550db3          	mul	s11,a0,s5
    24d8:	b6843603          	ld	a2,-1176(s0)
    24dc:	00cd8633          	add	a2,s11,a2
    24e0:	b6c43423          	sd	a2,-1176(s0)
    24e4:	03650533          	mul	a0,a0,s6
    24e8:	b7043603          	ld	a2,-1168(s0)
    24ec:	00c50633          	add	a2,a0,a2
    24f0:	b6c43823          	sd	a2,-1168(s0)
    24f4:	021b8533          	mul	a0,s7,ra
    24f8:	b7843603          	ld	a2,-1160(s0)
    24fc:	00c50633          	add	a2,a0,a2
    2500:	b6c43c23          	sd	a2,-1160(s0)
    2504:	02bb8533          	mul	a0,s7,a1
    2508:	00058b13          	mv	s6,a1
    250c:	b8043603          	ld	a2,-1152(s0)
    2510:	00c50633          	add	a2,a0,a2
    2514:	b8c43023          	sd	a2,-1152(s0)
    2518:	03ab8533          	mul	a0,s7,s10
    251c:	b8843603          	ld	a2,-1144(s0)
    2520:	00c50633          	add	a2,a0,a2
    2524:	b8c43423          	sd	a2,-1144(s0)
    2528:	f5043d03          	ld	s10,-176(s0)
    252c:	03ab8533          	mul	a0,s7,s10
    2530:	b9043603          	ld	a2,-1136(s0)
    2534:	00c50633          	add	a2,a0,a2
    2538:	b8c43823          	sd	a2,-1136(s0)
    253c:	02fb8533          	mul	a0,s7,a5
    2540:	b9843603          	ld	a2,-1128(s0)
    2544:	00c50633          	add	a2,a0,a2
    2548:	b8c43c23          	sd	a2,-1128(s0)
    254c:	f7843783          	ld	a5,-136(s0)
    2550:	02fb8533          	mul	a0,s7,a5
    2554:	ba043603          	ld	a2,-1120(s0)
    2558:	00c50633          	add	a2,a0,a2
    255c:	bac43023          	sd	a2,-1120(s0)
    2560:	02db8533          	mul	a0,s7,a3
    2564:	ba843603          	ld	a2,-1112(s0)
    2568:	00c50633          	add	a2,a0,a2
    256c:	bac43423          	sd	a2,-1112(s0)
    2570:	02eb8533          	mul	a0,s7,a4
    2574:	bb043603          	ld	a2,-1104(s0)
    2578:	00c50633          	add	a2,a0,a2
    257c:	bac43823          	sd	a2,-1104(s0)
    2580:	f1043703          	ld	a4,-240(s0)
    2584:	02eb8533          	mul	a0,s7,a4
    2588:	bb843603          	ld	a2,-1096(s0)
    258c:	00c50633          	add	a2,a0,a2
    2590:	bac43c23          	sd	a2,-1096(s0)
    2594:	00080c93          	mv	s9,a6
    2598:	030b8533          	mul	a0,s7,a6
    259c:	bc043603          	ld	a2,-1088(s0)
    25a0:	00c50633          	add	a2,a0,a2
    25a4:	bcc43023          	sd	a2,-1088(s0)
    25a8:	f4843983          	ld	s3,-184(s0)
    25ac:	033b8533          	mul	a0,s7,s3
    25b0:	bc843603          	ld	a2,-1080(s0)
    25b4:	00c50633          	add	a2,a0,a2
    25b8:	bcc43423          	sd	a2,-1080(s0)
    25bc:	f5843903          	ld	s2,-168(s0)
    25c0:	032b8533          	mul	a0,s7,s2
    25c4:	bd043603          	ld	a2,-1072(s0)
    25c8:	00c50633          	add	a2,a0,a2
    25cc:	bcc43823          	sd	a2,-1072(s0)
    25d0:	ee043803          	ld	a6,-288(s0)
    25d4:	030b8533          	mul	a0,s7,a6
    25d8:	bd843603          	ld	a2,-1064(s0)
    25dc:	00c50633          	add	a2,a0,a2
    25e0:	bcc43c23          	sd	a2,-1064(s0)
    25e4:	029b8533          	mul	a0,s7,s1
    25e8:	be043603          	ld	a2,-1056(s0)
    25ec:	00c50633          	add	a2,a0,a2
    25f0:	bec43023          	sd	a2,-1056(s0)
    25f4:	03fb8533          	mul	a0,s7,t6
    25f8:	be843603          	ld	a2,-1048(s0)
    25fc:	00c50633          	add	a2,a0,a2
    2600:	bec43423          	sd	a2,-1048(s0)
    2604:	03cb8533          	mul	a0,s7,t3
    2608:	bf043603          	ld	a2,-1040(s0)
    260c:	00c50633          	add	a2,a0,a2
    2610:	bec43823          	sd	a2,-1040(s0)
    2614:	f6043503          	ld	a0,-160(s0)
    2618:	02ab8533          	mul	a0,s7,a0
    261c:	bf843603          	ld	a2,-1032(s0)
    2620:	00c50633          	add	a2,a0,a2
    2624:	bec43c23          	sd	a2,-1032(s0)
    2628:	03db8533          	mul	a0,s7,t4
    262c:	c0043603          	ld	a2,-1024(s0)
    2630:	00c50633          	add	a2,a0,a2
    2634:	c0c43023          	sd	a2,-1024(s0)
    2638:	f3843503          	ld	a0,-200(s0)
    263c:	02ab8533          	mul	a0,s7,a0
    2640:	c0843603          	ld	a2,-1016(s0)
    2644:	00c50633          	add	a2,a0,a2
    2648:	c0c43423          	sd	a2,-1016(s0)
    264c:	026b8533          	mul	a0,s7,t1
    2650:	c1043603          	ld	a2,-1008(s0)
    2654:	00c50633          	add	a2,a0,a2
    2658:	c0c43823          	sd	a2,-1008(s0)
    265c:	ed843583          	ld	a1,-296(s0)
    2660:	02bb8533          	mul	a0,s7,a1
    2664:	c1843603          	ld	a2,-1000(s0)
    2668:	00c50633          	add	a2,a0,a2
    266c:	c0c43c23          	sd	a2,-1000(s0)
    2670:	e5843e83          	ld	t4,-424(s0)
    2674:	03db8533          	mul	a0,s7,t4
    2678:	c2043603          	ld	a2,-992(s0)
    267c:	00c50633          	add	a2,a0,a2
    2680:	c2c43023          	sd	a2,-992(s0)
    2684:	e6043683          	ld	a3,-416(s0)
    2688:	02db8533          	mul	a0,s7,a3
    268c:	c2843603          	ld	a2,-984(s0)
    2690:	00c50633          	add	a2,a0,a2
    2694:	c2c43423          	sd	a2,-984(s0)
    2698:	031b8533          	mul	a0,s7,a7
    269c:	c3043603          	ld	a2,-976(s0)
    26a0:	00c50633          	add	a2,a0,a2
    26a4:	c2c43823          	sd	a2,-976(s0)
    26a8:	e9043503          	ld	a0,-368(s0)
    26ac:	02ab8533          	mul	a0,s7,a0
    26b0:	c3843603          	ld	a2,-968(s0)
    26b4:	00c50633          	add	a2,a0,a2
    26b8:	c2c43c23          	sd	a2,-968(s0)
    26bc:	025b8533          	mul	a0,s7,t0
    26c0:	c4043603          	ld	a2,-960(s0)
    26c4:	00c50633          	add	a2,a0,a2
    26c8:	c4c43023          	sd	a2,-960(s0)
    26cc:	e8843883          	ld	a7,-376(s0)
    26d0:	031b8533          	mul	a0,s7,a7
    26d4:	c4843603          	ld	a2,-952(s0)
    26d8:	00c50633          	add	a2,a0,a2
    26dc:	c4c43423          	sd	a2,-952(s0)
    26e0:	034b8533          	mul	a0,s7,s4
    26e4:	c5043603          	ld	a2,-944(s0)
    26e8:	00c50633          	add	a2,a0,a2
    26ec:	c4c43823          	sd	a2,-944(s0)
    26f0:	038b8533          	mul	a0,s7,s8
    26f4:	000c0a13          	mv	s4,s8
    26f8:	c5843603          	ld	a2,-936(s0)
    26fc:	00c50633          	add	a2,a0,a2
    2700:	c4c43c23          	sd	a2,-936(s0)
    2704:	03eb8533          	mul	a0,s7,t5
    2708:	c6043603          	ld	a2,-928(s0)
    270c:	00c50633          	add	a2,a0,a2
    2710:	c6c43023          	sd	a2,-928(s0)
    2714:	dc038503          	lb	a0,-576(t2)
    2718:	00038293          	mv	t0,t2
    271c:	f6743823          	sd	t2,-144(s0)
    2720:	035b8db3          	mul	s11,s7,s5
    2724:	c6843603          	ld	a2,-920(s0)
    2728:	00cd8633          	add	a2,s11,a2
    272c:	c6c43423          	sd	a2,-920(s0)
    2730:	eb843603          	ld	a2,-328(s0)
    2734:	02cb8bb3          	mul	s7,s7,a2
    2738:	c7043603          	ld	a2,-912(s0)
    273c:	00cb8633          	add	a2,s7,a2
    2740:	c6c43823          	sd	a2,-912(s0)
    2744:	02150bb3          	mul	s7,a0,ra
    2748:	c7843603          	ld	a2,-904(s0)
    274c:	00cb8633          	add	a2,s7,a2
    2750:	c6c43c23          	sd	a2,-904(s0)
    2754:	03650bb3          	mul	s7,a0,s6
    2758:	c8043603          	ld	a2,-896(s0)
    275c:	00cb8633          	add	a2,s7,a2
    2760:	c8c43023          	sd	a2,-896(s0)
    2764:	f2043603          	ld	a2,-224(s0)
    2768:	02c50bb3          	mul	s7,a0,a2
    276c:	c8843603          	ld	a2,-888(s0)
    2770:	00cb8633          	add	a2,s7,a2
    2774:	c8c43423          	sd	a2,-888(s0)
    2778:	03a50bb3          	mul	s7,a0,s10
    277c:	c9043603          	ld	a2,-880(s0)
    2780:	00cb8633          	add	a2,s7,a2
    2784:	c8c43823          	sd	a2,-880(s0)
    2788:	f1843603          	ld	a2,-232(s0)
    278c:	02c50bb3          	mul	s7,a0,a2
    2790:	c9843603          	ld	a2,-872(s0)
    2794:	00cb8633          	add	a2,s7,a2
    2798:	c8c43c23          	sd	a2,-872(s0)
    279c:	02f50bb3          	mul	s7,a0,a5
    27a0:	ca043603          	ld	a2,-864(s0)
    27a4:	00cb8633          	add	a2,s7,a2
    27a8:	cac43023          	sd	a2,-864(s0)
    27ac:	f4043083          	ld	ra,-192(s0)
    27b0:	02150bb3          	mul	s7,a0,ra
    27b4:	ca843603          	ld	a2,-856(s0)
    27b8:	00cb8633          	add	a2,s7,a2
    27bc:	cac43423          	sd	a2,-856(s0)
    27c0:	eb043a83          	ld	s5,-336(s0)
    27c4:	03550bb3          	mul	s7,a0,s5
    27c8:	cb043603          	ld	a2,-848(s0)
    27cc:	00cb8633          	add	a2,s7,a2
    27d0:	cac43823          	sd	a2,-848(s0)
    27d4:	02e50bb3          	mul	s7,a0,a4
    27d8:	cb843603          	ld	a2,-840(s0)
    27dc:	00cb8633          	add	a2,s7,a2
    27e0:	cac43c23          	sd	a2,-840(s0)
    27e4:	03950bb3          	mul	s7,a0,s9
    27e8:	cc043603          	ld	a2,-832(s0)
    27ec:	00cb8633          	add	a2,s7,a2
    27f0:	ccc43023          	sd	a2,-832(s0)
    27f4:	03350bb3          	mul	s7,a0,s3
    27f8:	cc843603          	ld	a2,-824(s0)
    27fc:	00cb8633          	add	a2,s7,a2
    2800:	ccc43423          	sd	a2,-824(s0)
    2804:	03250bb3          	mul	s7,a0,s2
    2808:	00090d13          	mv	s10,s2
    280c:	cd043603          	ld	a2,-816(s0)
    2810:	00cb8633          	add	a2,s7,a2
    2814:	ccc43823          	sd	a2,-816(s0)
    2818:	03050bb3          	mul	s7,a0,a6
    281c:	00080c93          	mv	s9,a6
    2820:	cd843603          	ld	a2,-808(s0)
    2824:	00cb8633          	add	a2,s7,a2
    2828:	ccc43c23          	sd	a2,-808(s0)
    282c:	00048913          	mv	s2,s1
    2830:	02950bb3          	mul	s7,a0,s1
    2834:	ce043603          	ld	a2,-800(s0)
    2838:	00cb8633          	add	a2,s7,a2
    283c:	cec43023          	sd	a2,-800(s0)
    2840:	000f8493          	mv	s1,t6
    2844:	03f50bb3          	mul	s7,a0,t6
    2848:	ce843603          	ld	a2,-792(s0)
    284c:	00cb8633          	add	a2,s7,a2
    2850:	cec43423          	sd	a2,-792(s0)
    2854:	000e0f93          	mv	t6,t3
    2858:	03c50bb3          	mul	s7,a0,t3
    285c:	cf043603          	ld	a2,-784(s0)
    2860:	00cb8633          	add	a2,s7,a2
    2864:	cec43823          	sd	a2,-784(s0)
    2868:	f6043e03          	ld	t3,-160(s0)
    286c:	03c50bb3          	mul	s7,a0,t3
    2870:	cf843603          	ld	a2,-776(s0)
    2874:	00cb8633          	add	a2,s7,a2
    2878:	cec43c23          	sd	a2,-776(s0)
    287c:	f2843383          	ld	t2,-216(s0)
    2880:	02750bb3          	mul	s7,a0,t2
    2884:	d0043603          	ld	a2,-768(s0)
    2888:	00cb8633          	add	a2,s7,a2
    288c:	d0c43023          	sd	a2,-768(s0)
    2890:	f3843303          	ld	t1,-200(s0)
    2894:	02650bb3          	mul	s7,a0,t1
    2898:	d0843603          	ld	a2,-760(s0)
    289c:	00cb8633          	add	a2,s7,a2
    28a0:	d0c43423          	sd	a2,-760(s0)
    28a4:	e6843783          	ld	a5,-408(s0)
    28a8:	02f50bb3          	mul	s7,a0,a5
    28ac:	d1043603          	ld	a2,-752(s0)
    28b0:	00cb8633          	add	a2,s7,a2
    28b4:	d0c43823          	sd	a2,-752(s0)
    28b8:	02b50bb3          	mul	s7,a0,a1
    28bc:	00058993          	mv	s3,a1
    28c0:	d1843603          	ld	a2,-744(s0)
    28c4:	00cb8633          	add	a2,s7,a2
    28c8:	d0c43c23          	sd	a2,-744(s0)
    28cc:	000e8713          	mv	a4,t4
    28d0:	03d50bb3          	mul	s7,a0,t4
    28d4:	d2043603          	ld	a2,-736(s0)
    28d8:	00cb8633          	add	a2,s7,a2
    28dc:	d2c43023          	sd	a2,-736(s0)
    28e0:	02d50bb3          	mul	s7,a0,a3
    28e4:	00068b13          	mv	s6,a3
    28e8:	d2843603          	ld	a2,-728(s0)
    28ec:	00cb8633          	add	a2,s7,a2
    28f0:	d2c43423          	sd	a2,-728(s0)
    28f4:	e7843c03          	ld	s8,-392(s0)
    28f8:	03850bb3          	mul	s7,a0,s8
    28fc:	d3043603          	ld	a2,-720(s0)
    2900:	00cb8633          	add	a2,s7,a2
    2904:	d2c43823          	sd	a2,-720(s0)
    2908:	e9043683          	ld	a3,-368(s0)
    290c:	02d50bb3          	mul	s7,a0,a3
    2910:	d3843603          	ld	a2,-712(s0)
    2914:	00cb8633          	add	a2,s7,a2
    2918:	d2c43c23          	sd	a2,-712(s0)
    291c:	f3043583          	ld	a1,-208(s0)
    2920:	02b50bb3          	mul	s7,a0,a1
    2924:	d4043603          	ld	a2,-704(s0)
    2928:	00cb8633          	add	a2,s7,a2
    292c:	d4c43023          	sd	a2,-704(s0)
    2930:	00088813          	mv	a6,a7
    2934:	03150bb3          	mul	s7,a0,a7
    2938:	d4843603          	ld	a2,-696(s0)
    293c:	00cb8633          	add	a2,s7,a2
    2940:	d4c43423          	sd	a2,-696(s0)
    2944:	e8043f03          	ld	t5,-384(s0)
    2948:	03e50bb3          	mul	s7,a0,t5
    294c:	d5043603          	ld	a2,-688(s0)
    2950:	00cb8633          	add	a2,s7,a2
    2954:	d4c43823          	sd	a2,-688(s0)
    2958:	03450bb3          	mul	s7,a0,s4
    295c:	d5843603          	ld	a2,-680(s0)
    2960:	00cb8633          	add	a2,s7,a2
    2964:	d4c43c23          	sd	a2,-680(s0)
    2968:	e7043883          	ld	a7,-400(s0)
    296c:	03150bb3          	mul	s7,a0,a7
    2970:	d6043603          	ld	a2,-672(s0)
    2974:	00cb8633          	add	a2,s7,a2
    2978:	d6c43023          	sd	a2,-672(s0)
    297c:	00028b83          	lb	s7,0(t0)
    2980:	ea843283          	ld	t0,-344(s0)
    2984:	02550db3          	mul	s11,a0,t0
    2988:	d6843603          	ld	a2,-664(s0)
    298c:	00cd8633          	add	a2,s11,a2
    2990:	d6c43423          	sd	a2,-664(s0)
    2994:	eb843e83          	ld	t4,-328(s0)
    2998:	03d50533          	mul	a0,a0,t4
    299c:	d7043603          	ld	a2,-656(s0)
    29a0:	00c50633          	add	a2,a0,a2
    29a4:	d6c43823          	sd	a2,-656(s0)
    29a8:	03db8533          	mul	a0,s7,t4
    29ac:	eaa43c23          	sd	a0,-328(s0)
    29b0:	025b8533          	mul	a0,s7,t0
    29b4:	eaa43423          	sd	a0,-344(s0)
    29b8:	031b8533          	mul	a0,s7,a7
    29bc:	e6a43823          	sd	a0,-400(s0)
    29c0:	034b8533          	mul	a0,s7,s4
    29c4:	00001637          	lui	a2,0x1
    29c8:	40c40633          	sub	a2,s0,a2
    29cc:	66a63423          	sd	a0,1640(a2) # 1668 <.LBB77_5+0x19c>
    29d0:	03eb8533          	mul	a0,s7,t5
    29d4:	e8a43023          	sd	a0,-384(s0)
    29d8:	030b8533          	mul	a0,s7,a6
    29dc:	e8a43423          	sd	a0,-376(s0)
    29e0:	02bb8533          	mul	a0,s7,a1
    29e4:	f2a43823          	sd	a0,-208(s0)
    29e8:	02db8533          	mul	a0,s7,a3
    29ec:	e8a43823          	sd	a0,-368(s0)
    29f0:	038b8533          	mul	a0,s7,s8
    29f4:	e6a43c23          	sd	a0,-392(s0)
    29f8:	036b8b33          	mul	s6,s7,s6
    29fc:	02eb8c33          	mul	s8,s7,a4
    2a00:	033b8a33          	mul	s4,s7,s3
    2a04:	02fb8eb3          	mul	t4,s7,a5
    2a08:	026b82b3          	mul	t0,s7,t1
    2a0c:	027b88b3          	mul	a7,s7,t2
    2a10:	03cb83b3          	mul	t2,s7,t3
    2a14:	03fb8833          	mul	a6,s7,t6
    2a18:	029b8f33          	mul	t5,s7,s1
    2a1c:	032b8fb3          	mul	t6,s7,s2
    2a20:	039b84b3          	mul	s1,s7,s9
    2a24:	03ab8933          	mul	s2,s7,s10
    2a28:	f4843503          	ld	a0,-184(s0)
    2a2c:	02ab89b3          	mul	s3,s7,a0
    2a30:	ec043503          	ld	a0,-320(s0)
    2a34:	02ab8cb3          	mul	s9,s7,a0
    2a38:	f1043503          	ld	a0,-240(s0)
    2a3c:	02ab8d33          	mul	s10,s7,a0
    2a40:	035b8db3          	mul	s11,s7,s5
    2a44:	021b8733          	mul	a4,s7,ra
    2a48:	f7843503          	ld	a0,-136(s0)
    2a4c:	02ab80b3          	mul	ra,s7,a0
    2a50:	f1843503          	ld	a0,-232(s0)
    2a54:	02ab86b3          	mul	a3,s7,a0
    2a58:	f5043503          	ld	a0,-176(s0)
    2a5c:	02ab8633          	mul	a2,s7,a0
    2a60:	f2043503          	ld	a0,-224(s0)
    2a64:	02ab85b3          	mul	a1,s7,a0
    2a68:	ec843503          	ld	a0,-312(s0)
    2a6c:	02ab8533          	mul	a0,s7,a0
    2a70:	ed043783          	ld	a5,-304(s0)
    2a74:	02fb8bb3          	mul	s7,s7,a5
    2a78:	d7843783          	ld	a5,-648(s0)
    2a7c:	00fb87b3          	add	a5,s7,a5
    2a80:	d6f43c23          	sd	a5,-648(s0)
    2a84:	dd843b83          	ld	s7,-552(s0)
    2a88:	d8043783          	ld	a5,-640(s0)
    2a8c:	00f507b3          	add	a5,a0,a5
    2a90:	d8f43023          	sd	a5,-640(s0)
    2a94:	d8843503          	ld	a0,-632(s0)
    2a98:	00a58533          	add	a0,a1,a0
    2a9c:	d8a43423          	sd	a0,-632(s0)
    2aa0:	d9043503          	ld	a0,-624(s0)
    2aa4:	00a60533          	add	a0,a2,a0
    2aa8:	d8a43823          	sd	a0,-624(s0)
    2aac:	d9843503          	ld	a0,-616(s0)
    2ab0:	00a68533          	add	a0,a3,a0
    2ab4:	d8a43c23          	sd	a0,-616(s0)
    2ab8:	e5043683          	ld	a3,-432(s0)
    2abc:	da043503          	ld	a0,-608(s0)
    2ac0:	00a08533          	add	a0,ra,a0
    2ac4:	daa43023          	sd	a0,-608(s0)
    2ac8:	da843503          	ld	a0,-600(s0)
    2acc:	00a70533          	add	a0,a4,a0
    2ad0:	daa43423          	sd	a0,-600(s0)
    2ad4:	e4843703          	ld	a4,-440(s0)
    2ad8:	db043503          	ld	a0,-592(s0)
    2adc:	00ad8533          	add	a0,s11,a0
    2ae0:	daa43823          	sd	a0,-592(s0)
    2ae4:	dc043d83          	ld	s11,-576(s0)
    2ae8:	db843503          	ld	a0,-584(s0)
    2aec:	00ad0533          	add	a0,s10,a0
    2af0:	daa43c23          	sd	a0,-584(s0)
    2af4:	dc843d03          	ld	s10,-568(s0)
    2af8:	01bc8db3          	add	s11,s9,s11
    2afc:	dd043c83          	ld	s9,-560(s0)
    2b00:	01a98d33          	add	s10,s3,s10
    2b04:	de843983          	ld	s3,-536(s0)
    2b08:	01990cb3          	add	s9,s2,s9
    2b0c:	df043903          	ld	s2,-528(s0)
    2b10:	01748bb3          	add	s7,s1,s7
    2b14:	df843483          	ld	s1,-520(s0)
    2b18:	de043503          	ld	a0,-544(s0)
    2b1c:	00af8533          	add	a0,t6,a0
    2b20:	dea43023          	sd	a0,-544(s0)
    2b24:	e0043f83          	ld	t6,-512(s0)
    2b28:	013f09b3          	add	s3,t5,s3
    2b2c:	e0843f03          	ld	t5,-504(s0)
    2b30:	01280933          	add	s2,a6,s2
    2b34:	009384b3          	add	s1,t2,s1
    2b38:	e1843383          	ld	t2,-488(s0)
    2b3c:	01f88fb3          	add	t6,a7,t6
    2b40:	e3043883          	ld	a7,-464(s0)
    2b44:	01e28f33          	add	t5,t0,t5
    2b48:	e2843283          	ld	t0,-472(s0)
    2b4c:	e1043503          	ld	a0,-496(s0)
    2b50:	00ae8533          	add	a0,t4,a0
    2b54:	e0a43823          	sd	a0,-496(s0)
    2b58:	e2043303          	ld	t1,-480(s0)
    2b5c:	ef043503          	ld	a0,-272(s0)
    2b60:	00aa0533          	add	a0,s4,a0
    2b64:	000015b7          	lui	a1,0x1
    2b68:	40b405b3          	sub	a1,s0,a1
    2b6c:	6705be83          	ld	t4,1648(a1) # 1670 <.LBB77_5+0x1a4>
    2b70:	eea43823          	sd	a0,-272(s0)
    2b74:	ef043e03          	ld	t3,-272(s0)
    2b78:	ef843503          	ld	a0,-264(s0)
    2b7c:	00ac0533          	add	a0,s8,a0
    2b80:	eea43c23          	sd	a0,-264(s0)
    2b84:	ef843603          	ld	a2,-264(s0)
    2b88:	007b03b3          	add	t2,s6,t2
    2b8c:	f0043503          	ld	a0,-256(s0)
    2b90:	e7843583          	ld	a1,-392(s0)
    2b94:	00a58533          	add	a0,a1,a0
    2b98:	f6843a03          	ld	s4,-152(s0)
    2b9c:	f0a43023          	sd	a0,-256(s0)
    2ba0:	f0043583          	ld	a1,-256(s0)
    2ba4:	f0843503          	ld	a0,-248(s0)
    2ba8:	e9043783          	ld	a5,-368(s0)
    2bac:	00a78533          	add	a0,a5,a0
    2bb0:	f8843a83          	ld	s5,-120(s0)
    2bb4:	f0a43423          	sd	a0,-248(s0)
    2bb8:	f0843503          	ld	a0,-248(s0)
    2bbc:	f3043783          	ld	a5,-208(s0)
    2bc0:	00678333          	add	t1,a5,t1
    2bc4:	e3843803          	ld	a6,-456(s0)
    2bc8:	e8843783          	ld	a5,-376(s0)
    2bcc:	005782b3          	add	t0,a5,t0
    2bd0:	e4043783          	ld	a5,-448(s0)
    2bd4:	e8043b03          	ld	s6,-384(s0)
    2bd8:	011b08b3          	add	a7,s6,a7
    2bdc:	00001b37          	lui	s6,0x1
    2be0:	41640b33          	sub	s6,s0,s6
    2be4:	668b3b03          	ld	s6,1640(s6) # 1668 <.LBB77_5+0x19c>
    2be8:	010b0833          	add	a6,s6,a6
    2bec:	e7043b03          	ld	s6,-400(s0)
    2bf0:	00fb07b3          	add	a5,s6,a5
    2bf4:	ea843b03          	ld	s6,-344(s0)
    2bf8:	00eb0733          	add	a4,s6,a4
    2bfc:	eb843b03          	ld	s6,-328(s0)
    2c00:	00db06b3          	add	a3,s6,a3
    2c04:	060a8a93          	addi	s5,s5,96
    2c08:	fa0e8e93          	addi	t4,t4,-96
    2c0c:	001a0a13          	addi	s4,s4,1
    2c10:	f7043b03          	ld	s6,-144(s0)
    2c14:	001b0b13          	addi	s6,s6,1
    2c18:	f7643823          	sd	s6,-144(s0)
    2c1c:	000e8463          	beqz	t4,2c24 <.LBB77_6>
    2c20:	8adfe06f          	j	14cc <.LBB77_5>

0000000000002c24 <.LBB77_6>:
    2c24:	00001537          	lui	a0,0x1
    2c28:	40a40533          	sub	a0,s0,a0
    2c2c:	67853c03          	ld	s8,1656(a0) # 1678 <.LBB77_5+0x1ac>
    2c30:	00001537          	lui	a0,0x1
    2c34:	40a40533          	sub	a0,s0,a0
    2c38:	68053a83          	ld	s5,1664(a0) # 1680 <.LBB77_5+0x1b4>
    2c3c:	00001537          	lui	a0,0x1
    2c40:	40a40533          	sub	a0,s0,a0
    2c44:	68853a03          	ld	s4,1672(a0) # 1688 <.LBB77_5+0x1bc>
    2c48:	00001537          	lui	a0,0x1
    2c4c:	40a40533          	sub	a0,s0,a0
    2c50:	69053e83          	ld	t4,1680(a0) # 1690 <.LBB77_5+0x1c4>
    2c54:	00001537          	lui	a0,0x1
    2c58:	40a40533          	sub	a0,s0,a0
    2c5c:	65853083          	ld	ra,1624(a0) # 1658 <.LBB77_5+0x18c>
    2c60:	00209093          	slli	ra,ra,0x2
    2c64:	00002537          	lui	a0,0x2
    2c68:	40a40533          	sub	a0,s0,a0
    2c6c:	06853603          	ld	a2,104(a0) # 2068 <.LBB77_5+0xb9c>
    2c70:	00160633          	add	a2,a2,ra
    2c74:	00001537          	lui	a0,0x1
    2c78:	40a40533          	sub	a0,s0,a0
    2c7c:	04053503          	ld	a0,64(a0) # 1040 <.LBB77_4+0x140>
    2c80:	00052b03          	lw	s6,0(a0)
    2c84:	00002537          	lui	a0,0x2
    2c88:	40a40533          	sub	a0,s0,a0
    2c8c:	06053503          	ld	a0,96(a0) # 2060 <.LBB77_5+0xb94>
    2c90:	001500b3          	add	ra,a0,ra
    2c94:	07c0a503          	lw	a0,124(ra)
    2c98:	07c62583          	lw	a1,124(a2)
    2c9c:	003b1b13          	slli	s6,s6,0x3
    2ca0:	00751e13          	slli	t3,a0,0x7
    2ca4:	eab43823          	sd	a1,-336(s0)
    2ca8:	00001537          	lui	a0,0x1
    2cac:	40a40533          	sub	a0,s0,a0
    2cb0:	69853503          	ld	a0,1688(a0) # 1698 <.LBB77_5+0x1cc>
    2cb4:	00b50533          	add	a0,a0,a1
    2cb8:	000015b7          	lui	a1,0x1
    2cbc:	40b405b3          	sub	a1,s0,a1
    2cc0:	67c5b823          	sd	t3,1648(a1) # 1670 <.LBB77_5+0x1a4>
    2cc4:	01c50533          	add	a0,a0,t3
    2cc8:	fff705b7          	lui	a1,0xfff70
    2ccc:	40bb05bb          	subw	a1,s6,a1
    2cd0:	40b505bb          	subw	a1,a0,a1
    2cd4:	40000537          	lui	a0,0x40000
    2cd8:	00001e37          	lui	t3,0x1
    2cdc:	41c40e33          	sub	t3,s0,t3
    2ce0:	66ae3423          	sd	a0,1640(t3) # 1668 <.LBB77_5+0x19c>
    2ce4:	00001e37          	lui	t3,0x1
    2ce8:	41c40e33          	sub	t3,s0,t3
    2cec:	64be3823          	sd	a1,1616(t3) # 1650 <.LBB77_5+0x184>
    2cf0:	0005d463          	bgez	a1,2cf8 <.LBB77_8>
    2cf4:	c0000537          	lui	a0,0xc0000

0000000000002cf8 <.LBB77_8>:
    2cf8:	000015b7          	lui	a1,0x1
    2cfc:	40b405b3          	sub	a1,s0,a1
    2d00:	64a5b423          	sd	a0,1608(a1) # 1648 <.LBB77_5+0x17c>
    2d04:	0780a503          	lw	a0,120(ra)
    2d08:	07862583          	lw	a1,120(a2)
    2d0c:	00751e13          	slli	t3,a0,0x7
    2d10:	eab43423          	sd	a1,-344(s0)
    2d14:	00bc0533          	add	a0,s8,a1
    2d18:	ebc43023          	sd	t3,-352(s0)
    2d1c:	01c50533          	add	a0,a0,t3
    2d20:	fff705b7          	lui	a1,0xfff70
    2d24:	40bb05bb          	subw	a1,s6,a1
    2d28:	40b5053b          	subw	a0,a0,a1
    2d2c:	400005b7          	lui	a1,0x40000
    2d30:	00001e37          	lui	t3,0x1
    2d34:	41c40e33          	sub	t3,s0,t3
    2d38:	66ae3c23          	sd	a0,1656(t3) # 1678 <.LBB77_5+0x1ac>
    2d3c:	000a0c13          	mv	s8,s4
    2d40:	00055463          	bgez	a0,2d48 <.LBB77_10>
    2d44:	c00005b7          	lui	a1,0xc0000

0000000000002d48 <.LBB77_10>:
    2d48:	00001537          	lui	a0,0x1
    2d4c:	40a40533          	sub	a0,s0,a0
    2d50:	64b53023          	sd	a1,1600(a0) # 1640 <.LBB77_5+0x174>
    2d54:	0740a503          	lw	a0,116(ra)
    2d58:	07462583          	lw	a1,116(a2)
    2d5c:	00751e13          	slli	t3,a0,0x7
    2d60:	e8b43c23          	sd	a1,-360(s0)
    2d64:	00ba8533          	add	a0,s5,a1
    2d68:	e9c43823          	sd	t3,-368(s0)
    2d6c:	01c50533          	add	a0,a0,t3
    2d70:	fff705b7          	lui	a1,0xfff70
    2d74:	40bb05bb          	subw	a1,s6,a1
    2d78:	40b5053b          	subw	a0,a0,a1
    2d7c:	400005b7          	lui	a1,0x40000
    2d80:	00001e37          	lui	t3,0x1
    2d84:	41c40e33          	sub	t3,s0,t3
    2d88:	68ae3023          	sd	a0,1664(t3) # 1680 <.LBB77_5+0x1b4>
    2d8c:	00001e37          	lui	t3,0x1
    2d90:	41c40e33          	sub	t3,s0,t3
    2d94:	6a0e3a83          	ld	s5,1696(t3) # 16a0 <.LBB77_5+0x1d4>
    2d98:	00001e37          	lui	t3,0x1
    2d9c:	41c40e33          	sub	t3,s0,t3
    2da0:	6c0e3a03          	ld	s4,1728(t3) # 16c0 <.LBB77_5+0x1f4>
    2da4:	00055463          	bgez	a0,2dac <.LBB77_12>
    2da8:	c00005b7          	lui	a1,0xc0000

0000000000002dac <.LBB77_12>:
    2dac:	00001537          	lui	a0,0x1
    2db0:	40a40533          	sub	a0,s0,a0
    2db4:	62b53c23          	sd	a1,1592(a0) # 1638 <.LBB77_5+0x16c>
    2db8:	0700a503          	lw	a0,112(ra)
    2dbc:	07062583          	lw	a1,112(a2)
    2dc0:	00751e13          	slli	t3,a0,0x7
    2dc4:	e8b43423          	sd	a1,-376(s0)
    2dc8:	00001537          	lui	a0,0x1
    2dcc:	40a40533          	sub	a0,s0,a0
    2dd0:	6a853503          	ld	a0,1704(a0) # 16a8 <.LBB77_5+0x1dc>
    2dd4:	00b50533          	add	a0,a0,a1
    2dd8:	e9c43023          	sd	t3,-384(s0)
    2ddc:	01c50533          	add	a0,a0,t3
    2de0:	fff705b7          	lui	a1,0xfff70
    2de4:	40bb05bb          	subw	a1,s6,a1
    2de8:	40b5053b          	subw	a0,a0,a1
    2dec:	400005b7          	lui	a1,0x40000
    2df0:	00001e37          	lui	t3,0x1
    2df4:	41c40e33          	sub	t3,s0,t3
    2df8:	62ae3823          	sd	a0,1584(t3) # 1630 <.LBB77_5+0x164>
    2dfc:	00055463          	bgez	a0,2e04 <.LBB77_14>
    2e00:	c00005b7          	lui	a1,0xc0000

0000000000002e04 <.LBB77_14>:
    2e04:	00001537          	lui	a0,0x1
    2e08:	40a40533          	sub	a0,s0,a0
    2e0c:	62b53423          	sd	a1,1576(a0) # 1628 <.LBB77_5+0x15c>
    2e10:	06c0a503          	lw	a0,108(ra)
    2e14:	06c62583          	lw	a1,108(a2)
    2e18:	00751e13          	slli	t3,a0,0x7
    2e1c:	e6b43c23          	sd	a1,-392(s0)
    2e20:	00001537          	lui	a0,0x1
    2e24:	40a40533          	sub	a0,s0,a0
    2e28:	6b053503          	ld	a0,1712(a0) # 16b0 <.LBB77_5+0x1e4>
    2e2c:	00b50533          	add	a0,a0,a1
    2e30:	e7c43823          	sd	t3,-400(s0)
    2e34:	01c50533          	add	a0,a0,t3
    2e38:	fff705b7          	lui	a1,0xfff70
    2e3c:	40bb05bb          	subw	a1,s6,a1
    2e40:	40b5053b          	subw	a0,a0,a1
    2e44:	400005b7          	lui	a1,0x40000
    2e48:	00001e37          	lui	t3,0x1
    2e4c:	41c40e33          	sub	t3,s0,t3
    2e50:	62ae3023          	sd	a0,1568(t3) # 1620 <.LBB77_5+0x154>
    2e54:	00055463          	bgez	a0,2e5c <.LBB77_16>
    2e58:	c00005b7          	lui	a1,0xc0000

0000000000002e5c <.LBB77_16>:
    2e5c:	00001537          	lui	a0,0x1
    2e60:	40a40533          	sub	a0,s0,a0
    2e64:	60b53c23          	sd	a1,1560(a0) # 1618 <.LBB77_5+0x14c>
    2e68:	0680a503          	lw	a0,104(ra)
    2e6c:	06862583          	lw	a1,104(a2)
    2e70:	00751e13          	slli	t3,a0,0x7
    2e74:	e6b43423          	sd	a1,-408(s0)
    2e78:	00001537          	lui	a0,0x1
    2e7c:	40a40533          	sub	a0,s0,a0
    2e80:	6b853503          	ld	a0,1720(a0) # 16b8 <.LBB77_5+0x1ec>
    2e84:	00b50533          	add	a0,a0,a1
    2e88:	e7c43023          	sd	t3,-416(s0)
    2e8c:	01c50533          	add	a0,a0,t3
    2e90:	fff705b7          	lui	a1,0xfff70
    2e94:	40bb05bb          	subw	a1,s6,a1
    2e98:	40b5053b          	subw	a0,a0,a1
    2e9c:	400005b7          	lui	a1,0x40000
    2ea0:	00001e37          	lui	t3,0x1
    2ea4:	41c40e33          	sub	t3,s0,t3
    2ea8:	60ae3823          	sd	a0,1552(t3) # 1610 <.LBB77_5+0x144>
    2eac:	00055463          	bgez	a0,2eb4 <.LBB77_18>
    2eb0:	c00005b7          	lui	a1,0xc0000

0000000000002eb4 <.LBB77_18>:
    2eb4:	00001537          	lui	a0,0x1
    2eb8:	40a40533          	sub	a0,s0,a0
    2ebc:	60b53423          	sd	a1,1544(a0) # 1608 <.LBB77_5+0x13c>
    2ec0:	0640a503          	lw	a0,100(ra)
    2ec4:	06462583          	lw	a1,100(a2)
    2ec8:	00751e13          	slli	t3,a0,0x7
    2ecc:	e4b43c23          	sd	a1,-424(s0)
    2ed0:	00ba0533          	add	a0,s4,a1
    2ed4:	000015b7          	lui	a1,0x1
    2ed8:	40b405b3          	sub	a1,s0,a1
    2edc:	6dc5b023          	sd	t3,1728(a1) # 16c0 <.LBB77_5+0x1f4>
    2ee0:	01c50533          	add	a0,a0,t3
    2ee4:	fff705b7          	lui	a1,0xfff70
    2ee8:	40bb05bb          	subw	a1,s6,a1
    2eec:	40b5053b          	subw	a0,a0,a1
    2ef0:	400005b7          	lui	a1,0x40000
    2ef4:	00001e37          	lui	t3,0x1
    2ef8:	41c40e33          	sub	t3,s0,t3
    2efc:	60ae3023          	sd	a0,1536(t3) # 1600 <.LBB77_5+0x134>
    2f00:	00055463          	bgez	a0,2f08 <.LBB77_20>
    2f04:	c00005b7          	lui	a1,0xc0000

0000000000002f08 <.LBB77_20>:
    2f08:	00001537          	lui	a0,0x1
    2f0c:	40a40533          	sub	a0,s0,a0
    2f10:	5eb53c23          	sd	a1,1528(a0) # 15f8 <.LBB77_5+0x12c>
    2f14:	df243823          	sd	s2,-528(s0)
    2f18:	e2643023          	sd	t1,-480(s0)
    2f1c:	e2543423          	sd	t0,-472(s0)
    2f20:	e3143823          	sd	a7,-464(s0)
    2f24:	e3043c23          	sd	a6,-456(s0)
    2f28:	e4f43023          	sd	a5,-448(s0)
    2f2c:	e4e43423          	sd	a4,-440(s0)
    2f30:	e4d43823          	sd	a3,-432(s0)
    2f34:	0600a503          	lw	a0,96(ra)
    2f38:	06062583          	lw	a1,96(a2)
    2f3c:	00751693          	slli	a3,a0,0x7
    2f40:	00001537          	lui	a0,0x1
    2f44:	40a40533          	sub	a0,s0,a0
    2f48:	6ab53c23          	sd	a1,1720(a0) # 16b8 <.LBB77_5+0x1ec>
    2f4c:	00ba8533          	add	a0,s5,a1
    2f50:	000015b7          	lui	a1,0x1
    2f54:	40b405b3          	sub	a1,s0,a1
    2f58:	6ad5b823          	sd	a3,1712(a1) # 16b0 <.LBB77_5+0x1e4>
    2f5c:	00d50533          	add	a0,a0,a3
    2f60:	fff705b7          	lui	a1,0xfff70
    2f64:	40bb05bb          	subw	a1,s6,a1
    2f68:	40b5053b          	subw	a0,a0,a1
    2f6c:	400005b7          	lui	a1,0x40000
    2f70:	000016b7          	lui	a3,0x1
    2f74:	40d406b3          	sub	a3,s0,a3
    2f78:	5ea6b823          	sd	a0,1520(a3) # 15f0 <.LBB77_5+0x124>
    2f7c:	00055463          	bgez	a0,2f84 <.LBB77_22>
    2f80:	c00005b7          	lui	a1,0xc0000

0000000000002f84 <.LBB77_22>:
    2f84:	00001537          	lui	a0,0x1
    2f88:	40a40533          	sub	a0,s0,a0
    2f8c:	5eb53423          	sd	a1,1512(a0) # 15e8 <.LBB77_5+0x11c>
    2f90:	ddb43023          	sd	s11,-576(s0)
    2f94:	dda43423          	sd	s10,-568(s0)
    2f98:	dd943823          	sd	s9,-560(s0)
    2f9c:	dd743c23          	sd	s7,-552(s0)
    2fa0:	df343423          	sd	s3,-536(s0)
    2fa4:	de943c23          	sd	s1,-520(s0)
    2fa8:	e1f43023          	sd	t6,-512(s0)
    2fac:	e1e43423          	sd	t5,-504(s0)
    2fb0:	e0743c23          	sd	t2,-488(s0)
    2fb4:	05862e03          	lw	t3,88(a2)
    2fb8:	05c62383          	lw	t2,92(a2)
    2fbc:	0580a703          	lw	a4,88(ra)
    2fc0:	05c0a783          	lw	a5,92(ra)
    2fc4:	00002537          	lui	a0,0x2
    2fc8:	40a40533          	sub	a0,s0,a0
    2fcc:	04853503          	ld	a0,72(a0) # 2048 <.LBB77_5+0xb7c>
    2fd0:	000015b7          	lui	a1,0x1
    2fd4:	40b405b3          	sub	a1,s0,a1
    2fd8:	6585b303          	ld	t1,1624(a1) # 1658 <.LBB77_5+0x18c>
    2fdc:	00a30533          	add	a0,t1,a0
    2fe0:	000025b7          	lui	a1,0x2
    2fe4:	40b405b3          	sub	a1,s0,a1
    2fe8:	0585b683          	ld	a3,88(a1) # 2058 <.LBB77_5+0xb8c>
    2fec:	000015b7          	lui	a1,0x1
    2ff0:	40b405b3          	sub	a1,s0,a1
    2ff4:	fea5bc23          	sd	a0,-8(a1) # ff8 <.LBB77_4+0xf8>
    2ff8:	00a68ab3          	add	s5,a3,a0
    2ffc:	00002537          	lui	a0,0x2
    3000:	40a40533          	sub	a0,s0,a0
    3004:	04053503          	ld	a0,64(a0) # 2040 <.LBB77_5+0xb74>
    3008:	00a30533          	add	a0,t1,a0
    300c:	000015b7          	lui	a1,0x1
    3010:	40b405b3          	sub	a1,s0,a1
    3014:	00a5b023          	sd	a0,0(a1) # 1000 <.LBB77_4+0x100>
    3018:	00a68a33          	add	s4,a3,a0
    301c:	00002537          	lui	a0,0x2
    3020:	40a40533          	sub	a0,s0,a0
    3024:	03853503          	ld	a0,56(a0) # 2038 <.LBB77_5+0xb6c>
    3028:	00a30533          	add	a0,t1,a0
    302c:	000015b7          	lui	a1,0x1
    3030:	40b405b3          	sub	a1,s0,a1
    3034:	00a5b423          	sd	a0,8(a1) # 1008 <.LBB77_4+0x108>
    3038:	00a68933          	add	s2,a3,a0
    303c:	00002537          	lui	a0,0x2
    3040:	40a40533          	sub	a0,s0,a0
    3044:	03053503          	ld	a0,48(a0) # 2030 <.LBB77_5+0xb64>
    3048:	00650533          	add	a0,a0,t1
    304c:	000015b7          	lui	a1,0x1
    3050:	40b405b3          	sub	a1,s0,a1
    3054:	00a5b823          	sd	a0,16(a1) # 1010 <.LBB77_4+0x110>
    3058:	00a682b3          	add	t0,a3,a0
    305c:	00002537          	lui	a0,0x2
    3060:	40a40533          	sub	a0,s0,a0
    3064:	02853503          	ld	a0,40(a0) # 2028 <.LBB77_5+0xb5c>
    3068:	00650533          	add	a0,a0,t1
    306c:	000015b7          	lui	a1,0x1
    3070:	40b405b3          	sub	a1,s0,a1
    3074:	00a5bc23          	sd	a0,24(a1) # 1018 <.LBB77_4+0x118>
    3078:	00a685b3          	add	a1,a3,a0
    307c:	00002537          	lui	a0,0x2
    3080:	40a40533          	sub	a0,s0,a0
    3084:	02053503          	ld	a0,32(a0) # 2020 <.LBB77_5+0xb54>
    3088:	00650533          	add	a0,a0,t1
    308c:	00001837          	lui	a6,0x1
    3090:	41040833          	sub	a6,s0,a6
    3094:	02a83023          	sd	a0,32(a6) # 1020 <.LBB77_4+0x120>
    3098:	00a68833          	add	a6,a3,a0
    309c:	00002537          	lui	a0,0x2
    30a0:	40a40533          	sub	a0,s0,a0
    30a4:	01853503          	ld	a0,24(a0) # 2018 <.LBB77_5+0xb4c>
    30a8:	00650533          	add	a0,a0,t1
    30ac:	000018b7          	lui	a7,0x1
    30b0:	411408b3          	sub	a7,s0,a7
    30b4:	02a8b423          	sd	a0,40(a7) # 1028 <.LBB77_4+0x128>
    30b8:	00a68533          	add	a0,a3,a0
    30bc:	000028b7          	lui	a7,0x2
    30c0:	411408b3          	sub	a7,s0,a7
    30c4:	0108b883          	ld	a7,16(a7) # 2010 <.LBB77_5+0xb44>
    30c8:	006888b3          	add	a7,a7,t1
    30cc:	00001337          	lui	t1,0x1
    30d0:	40640333          	sub	t1,s0,t1
    30d4:	03133823          	sd	a7,48(t1) # 1030 <.LBB77_4+0x130>
    30d8:	011686b3          	add	a3,a3,a7
    30dc:	00779893          	slli	a7,a5,0x7
    30e0:	00771313          	slli	t1,a4,0x7
    30e4:	00001737          	lui	a4,0x1
    30e8:	40e40733          	sub	a4,s0,a4
    30ec:	6a773423          	sd	t2,1704(a4) # 16a8 <.LBB77_5+0x1dc>
    30f0:	007c0733          	add	a4,s8,t2
    30f4:	000017b7          	lui	a5,0x1
    30f8:	40f407b3          	sub	a5,s0,a5
    30fc:	6bc7b023          	sd	t3,1696(a5) # 16a0 <.LBB77_5+0x1d4>
    3100:	01ce87b3          	add	a5,t4,t3
    3104:	000013b7          	lui	t2,0x1
    3108:	407403b3          	sub	t2,s0,t2
    310c:	6863b823          	sd	t1,1680(t2) # 1690 <.LBB77_5+0x1c4>
    3110:	006787b3          	add	a5,a5,t1
    3114:	00001337          	lui	t1,0x1
    3118:	40640333          	sub	t1,s0,t1
    311c:	69133c23          	sd	a7,1688(t1) # 1698 <.LBB77_5+0x1cc>
    3120:	01170733          	add	a4,a4,a7
    3124:	fff70337          	lui	t1,0xfff70
    3128:	406b08bb          	subw	a7,s6,t1
    312c:	411708bb          	subw	a7,a4,a7
    3130:	406b073b          	subw	a4,s6,t1
    3134:	40e787bb          	subw	a5,a5,a4
    3138:	00001737          	lui	a4,0x1
    313c:	40e40733          	sub	a4,s0,a4
    3140:	68f73423          	sd	a5,1672(a4) # 1688 <.LBB77_5+0x1bc>
    3144:	40000737          	lui	a4,0x40000
    3148:	000017b7          	lui	a5,0x1
    314c:	40f407b3          	sub	a5,s0,a5
    3150:	5f17b023          	sd	a7,1504(a5) # 15e0 <.LBB77_5+0x114>
    3154:	0008d463          	bgez	a7,315c <.LBB77_24>
    3158:	c0000737          	lui	a4,0xc0000

000000000000315c <.LBB77_24>:
    315c:	000017b7          	lui	a5,0x1
    3160:	40f407b3          	sub	a5,s0,a5
    3164:	5ce7bc23          	sd	a4,1496(a5) # 15d8 <.LBB77_5+0x10c>
    3168:	05462703          	lw	a4,84(a2)
    316c:	f8e43423          	sd	a4,-120(s0)
    3170:	00c62703          	lw	a4,12(a2)
    3174:	ece43823          	sd	a4,-304(s0)
    3178:	00862703          	lw	a4,8(a2)
    317c:	ece43423          	sd	a4,-312(s0)
    3180:	00462703          	lw	a4,4(a2)
    3184:	ece43023          	sd	a4,-320(s0)
    3188:	00062703          	lw	a4,0(a2)
    318c:	eae43c23          	sd	a4,-328(s0)
    3190:	01062703          	lw	a4,16(a2)
    3194:	ece43c23          	sd	a4,-296(s0)
    3198:	01462703          	lw	a4,20(a2)
    319c:	eee43023          	sd	a4,-288(s0)
    31a0:	01862703          	lw	a4,24(a2)
    31a4:	eee43423          	sd	a4,-280(s0)
    31a8:	01c62703          	lw	a4,28(a2)
    31ac:	f0e43823          	sd	a4,-240(s0)
    31b0:	02062703          	lw	a4,32(a2)
    31b4:	f0e43c23          	sd	a4,-232(s0)
    31b8:	02462703          	lw	a4,36(a2)
    31bc:	f2e43023          	sd	a4,-224(s0)
    31c0:	02862703          	lw	a4,40(a2)
    31c4:	f2e43423          	sd	a4,-216(s0)
    31c8:	02c62703          	lw	a4,44(a2)
    31cc:	f2e43823          	sd	a4,-208(s0)
    31d0:	03062703          	lw	a4,48(a2)
    31d4:	f2e43c23          	sd	a4,-200(s0)
    31d8:	03462703          	lw	a4,52(a2)
    31dc:	f4e43023          	sd	a4,-192(s0)
    31e0:	03862703          	lw	a4,56(a2)
    31e4:	f4e43423          	sd	a4,-184(s0)
    31e8:	03c62703          	lw	a4,60(a2)
    31ec:	f4e43823          	sd	a4,-176(s0)
    31f0:	04062703          	lw	a4,64(a2)
    31f4:	f4e43c23          	sd	a4,-168(s0)
    31f8:	04462703          	lw	a4,68(a2)
    31fc:	f6e43023          	sd	a4,-160(s0)
    3200:	04862703          	lw	a4,72(a2)
    3204:	f6e43423          	sd	a4,-152(s0)
    3208:	04c62703          	lw	a4,76(a2)
    320c:	f6e43823          	sd	a4,-144(s0)
    3210:	05062603          	lw	a2,80(a2)
    3214:	f6c43c23          	sd	a2,-136(s0)
    3218:	0540ad83          	lw	s11,84(ra)
    321c:	00c0a603          	lw	a2,12(ra)
    3220:	f8a43823          	sd	a0,-112(s0)
    3224:	00001537          	lui	a0,0x1
    3228:	40a40533          	sub	a0,s0,a0
    322c:	5cc53423          	sd	a2,1480(a0) # 15c8 <.LBB77_5+0xfc>
    3230:	0080a603          	lw	a2,8(ra)
    3234:	00001537          	lui	a0,0x1
    3238:	40a40533          	sub	a0,s0,a0
    323c:	5cc53023          	sd	a2,1472(a0) # 15c0 <.LBB77_5+0xf4>
    3240:	0040a603          	lw	a2,4(ra)
    3244:	00001537          	lui	a0,0x1
    3248:	40a40533          	sub	a0,s0,a0
    324c:	5ac53c23          	sd	a2,1464(a0) # 15b8 <.LBB77_5+0xec>
    3250:	0000a603          	lw	a2,0(ra)
    3254:	00001537          	lui	a0,0x1
    3258:	40a40533          	sub	a0,s0,a0
    325c:	5ac53823          	sd	a2,1456(a0) # 15b0 <.LBB77_5+0xe4>
    3260:	0100a603          	lw	a2,16(ra)
    3264:	00001537          	lui	a0,0x1
    3268:	40a40533          	sub	a0,s0,a0
    326c:	5ac53423          	sd	a2,1448(a0) # 15a8 <.LBB77_5+0xdc>
    3270:	0140af03          	lw	t5,20(ra)
    3274:	0180a603          	lw	a2,24(ra)
    3278:	01c0ad03          	lw	s10,28(ra)
    327c:	0200a983          	lw	s3,32(ra)
    3280:	0240ae03          	lw	t3,36(ra)
    3284:	0280a483          	lw	s1,40(ra)
    3288:	02c0a383          	lw	t2,44(ra)
    328c:	0300a883          	lw	a7,48(ra)
    3290:	0340a703          	lw	a4,52(ra)
    3294:	0380a783          	lw	a5,56(ra)
    3298:	03c0a303          	lw	t1,60(ra)
    329c:	0400ae83          	lw	t4,64(ra)
    32a0:	0440ab83          	lw	s7,68(ra)
    32a4:	0480ac03          	lw	s8,72(ra)
    32a8:	04c0ac83          	lw	s9,76(ra)
    32ac:	0500a083          	lw	ra,80(ra)
    32b0:	01fa8f83          	lb	t6,31(s5)
    32b4:	00001537          	lui	a0,0x1
    32b8:	40a40533          	sub	a0,s0,a0
    32bc:	91f53423          	sd	t6,-1784(a0) # 908 <.LBB77_3+0x65c>
    32c0:	01ea8f83          	lb	t6,30(s5)
    32c4:	00001537          	lui	a0,0x1
    32c8:	40a40533          	sub	a0,s0,a0
    32cc:	8ff53c23          	sd	t6,-1800(a0) # 8f8 <.LBB77_3+0x64c>
    32d0:	01da8f83          	lb	t6,29(s5)
    32d4:	00001537          	lui	a0,0x1
    32d8:	40a40533          	sub	a0,s0,a0
    32dc:	8ff53423          	sd	t6,-1816(a0) # 8e8 <.LBB77_3+0x63c>
    32e0:	01ca8f83          	lb	t6,28(s5)
    32e4:	00001537          	lui	a0,0x1
    32e8:	40a40533          	sub	a0,s0,a0
    32ec:	8df53c23          	sd	t6,-1832(a0) # 8d8 <.LBB77_3+0x62c>
    32f0:	01ba8f83          	lb	t6,27(s5)
    32f4:	00001537          	lui	a0,0x1
    32f8:	40a40533          	sub	a0,s0,a0
    32fc:	8df53823          	sd	t6,-1840(a0) # 8d0 <.LBB77_3+0x624>
    3300:	01aa8f83          	lb	t6,26(s5)
    3304:	00001537          	lui	a0,0x1
    3308:	40a40533          	sub	a0,s0,a0
    330c:	8df53423          	sd	t6,-1848(a0) # 8c8 <.LBB77_3+0x61c>
    3310:	019a8f83          	lb	t6,25(s5)
    3314:	00001537          	lui	a0,0x1
    3318:	40a40533          	sub	a0,s0,a0
    331c:	8df53023          	sd	t6,-1856(a0) # 8c0 <.LBB77_3+0x614>
    3320:	018a8f83          	lb	t6,24(s5)
    3324:	00001537          	lui	a0,0x1
    3328:	40a40533          	sub	a0,s0,a0
    332c:	8bf53c23          	sd	t6,-1864(a0) # 8b8 <.LBB77_3+0x60c>
    3330:	017a8f83          	lb	t6,23(s5)
    3334:	00001537          	lui	a0,0x1
    3338:	40a40533          	sub	a0,s0,a0
    333c:	8bf53823          	sd	t6,-1872(a0) # 8b0 <.LBB77_3+0x604>
    3340:	016a8f83          	lb	t6,22(s5)
    3344:	00001537          	lui	a0,0x1
    3348:	40a40533          	sub	a0,s0,a0
    334c:	8bf53423          	sd	t6,-1880(a0) # 8a8 <.LBB77_3+0x5fc>
    3350:	015a8f83          	lb	t6,21(s5)
    3354:	00001537          	lui	a0,0x1
    3358:	40a40533          	sub	a0,s0,a0
    335c:	8bf53023          	sd	t6,-1888(a0) # 8a0 <.LBB77_3+0x5f4>
    3360:	014a8f83          	lb	t6,20(s5)
    3364:	00001537          	lui	a0,0x1
    3368:	40a40533          	sub	a0,s0,a0
    336c:	89f53c23          	sd	t6,-1896(a0) # 898 <.LBB77_3+0x5ec>
    3370:	013a8f83          	lb	t6,19(s5)
    3374:	00001537          	lui	a0,0x1
    3378:	40a40533          	sub	a0,s0,a0
    337c:	89f53823          	sd	t6,-1904(a0) # 890 <.LBB77_3+0x5e4>
    3380:	012a8f83          	lb	t6,18(s5)
    3384:	00001537          	lui	a0,0x1
    3388:	40a40533          	sub	a0,s0,a0
    338c:	89f53423          	sd	t6,-1912(a0) # 888 <.LBB77_3+0x5dc>
    3390:	011a8f83          	lb	t6,17(s5)
    3394:	00001537          	lui	a0,0x1
    3398:	40a40533          	sub	a0,s0,a0
    339c:	89f53023          	sd	t6,-1920(a0) # 880 <.LBB77_3+0x5d4>
    33a0:	010a8f83          	lb	t6,16(s5)
    33a4:	00001537          	lui	a0,0x1
    33a8:	40a40533          	sub	a0,s0,a0
    33ac:	87f53c23          	sd	t6,-1928(a0) # 878 <.LBB77_3+0x5cc>
    33b0:	00fa8f83          	lb	t6,15(s5)
    33b4:	00001537          	lui	a0,0x1
    33b8:	40a40533          	sub	a0,s0,a0
    33bc:	87f53823          	sd	t6,-1936(a0) # 870 <.LBB77_3+0x5c4>
    33c0:	00ea8f83          	lb	t6,14(s5)
    33c4:	00001537          	lui	a0,0x1
    33c8:	40a40533          	sub	a0,s0,a0
    33cc:	87f53423          	sd	t6,-1944(a0) # 868 <.LBB77_3+0x5bc>
    33d0:	00da8f83          	lb	t6,13(s5)
    33d4:	00001537          	lui	a0,0x1
    33d8:	40a40533          	sub	a0,s0,a0
    33dc:	87f53023          	sd	t6,-1952(a0) # 860 <.LBB77_3+0x5b4>
    33e0:	00ca8f83          	lb	t6,12(s5)
    33e4:	00001537          	lui	a0,0x1
    33e8:	40a40533          	sub	a0,s0,a0
    33ec:	85f53c23          	sd	t6,-1960(a0) # 858 <.LBB77_3+0x5ac>
    33f0:	00ba8f83          	lb	t6,11(s5)
    33f4:	00001537          	lui	a0,0x1
    33f8:	40a40533          	sub	a0,s0,a0
    33fc:	85f53823          	sd	t6,-1968(a0) # 850 <.LBB77_3+0x5a4>
    3400:	00aa8f83          	lb	t6,10(s5)
    3404:	00001537          	lui	a0,0x1
    3408:	40a40533          	sub	a0,s0,a0
    340c:	85f53423          	sd	t6,-1976(a0) # 848 <.LBB77_3+0x59c>
    3410:	009a8f83          	lb	t6,9(s5)
    3414:	00001537          	lui	a0,0x1
    3418:	40a40533          	sub	a0,s0,a0
    341c:	85f53023          	sd	t6,-1984(a0) # 840 <.LBB77_3+0x594>
    3420:	008a8f83          	lb	t6,8(s5)
    3424:	00001537          	lui	a0,0x1
    3428:	40a40533          	sub	a0,s0,a0
    342c:	83f53c23          	sd	t6,-1992(a0) # 838 <.LBB77_3+0x58c>
    3430:	007a8f83          	lb	t6,7(s5)
    3434:	00001537          	lui	a0,0x1
    3438:	40a40533          	sub	a0,s0,a0
    343c:	83f53823          	sd	t6,-2000(a0) # 830 <.LBB77_3+0x584>
    3440:	006a8f83          	lb	t6,6(s5)
    3444:	00001537          	lui	a0,0x1
    3448:	40a40533          	sub	a0,s0,a0
    344c:	83f53423          	sd	t6,-2008(a0) # 828 <.LBB77_3+0x57c>
    3450:	005a8f83          	lb	t6,5(s5)
    3454:	00001537          	lui	a0,0x1
    3458:	40a40533          	sub	a0,s0,a0
    345c:	83f53023          	sd	t6,-2016(a0) # 820 <.LBB77_3+0x574>
    3460:	004a8f83          	lb	t6,4(s5)
    3464:	00001537          	lui	a0,0x1
    3468:	40a40533          	sub	a0,s0,a0
    346c:	81f53c23          	sd	t6,-2024(a0) # 818 <.LBB77_3+0x56c>
    3470:	000a8f83          	lb	t6,0(s5)
    3474:	00001537          	lui	a0,0x1
    3478:	40a40533          	sub	a0,s0,a0
    347c:	81f53823          	sd	t6,-2032(a0) # 810 <.LBB77_3+0x564>
    3480:	001a8f83          	lb	t6,1(s5)
    3484:	00001537          	lui	a0,0x1
    3488:	40a40533          	sub	a0,s0,a0
    348c:	81f53423          	sd	t6,-2040(a0) # 808 <.LBB77_3+0x55c>
    3490:	002a8f83          	lb	t6,2(s5)
    3494:	00001537          	lui	a0,0x1
    3498:	40a40533          	sub	a0,s0,a0
    349c:	81f53023          	sd	t6,-2048(a0) # 800 <.LBB77_3+0x554>
    34a0:	f9043503          	ld	a0,-112(s0)
    34a4:	003a8f83          	lb	t6,3(s5)
    34a8:	00002ab7          	lui	s5,0x2
    34ac:	41540ab3          	sub	s5,s0,s5
    34b0:	7ffabc23          	sd	t6,2040(s5) # 27f8 <.LBB77_5+0x132c>
    34b4:	000a0a83          	lb	s5,0(s4)
    34b8:	00001fb7          	lui	t6,0x1
    34bc:	41f40fb3          	sub	t6,s0,t6
    34c0:	a15fb423          	sd	s5,-1528(t6) # a08 <.LBB77_3+0x75c>
    34c4:	001a0a83          	lb	s5,1(s4)
    34c8:	00001fb7          	lui	t6,0x1
    34cc:	41f40fb3          	sub	t6,s0,t6
    34d0:	9f5fbc23          	sd	s5,-1544(t6) # 9f8 <.LBB77_3+0x74c>
    34d4:	002a0a83          	lb	s5,2(s4)
    34d8:	00001fb7          	lui	t6,0x1
    34dc:	41f40fb3          	sub	t6,s0,t6
    34e0:	9f5fb423          	sd	s5,-1560(t6) # 9e8 <.LBB77_3+0x73c>
    34e4:	003a0a83          	lb	s5,3(s4)
    34e8:	00001fb7          	lui	t6,0x1
    34ec:	41f40fb3          	sub	t6,s0,t6
    34f0:	9d5fbc23          	sd	s5,-1576(t6) # 9d8 <.LBB77_3+0x72c>
    34f4:	004a0a83          	lb	s5,4(s4)
    34f8:	00001fb7          	lui	t6,0x1
    34fc:	41f40fb3          	sub	t6,s0,t6
    3500:	9d5fb823          	sd	s5,-1584(t6) # 9d0 <.LBB77_3+0x724>
    3504:	005a0a83          	lb	s5,5(s4)
    3508:	00001fb7          	lui	t6,0x1
    350c:	41f40fb3          	sub	t6,s0,t6
    3510:	9d5fb423          	sd	s5,-1592(t6) # 9c8 <.LBB77_3+0x71c>
    3514:	006a0a83          	lb	s5,6(s4)
    3518:	00001fb7          	lui	t6,0x1
    351c:	41f40fb3          	sub	t6,s0,t6
    3520:	9d5fb023          	sd	s5,-1600(t6) # 9c0 <.LBB77_3+0x714>
    3524:	007a0a83          	lb	s5,7(s4)
    3528:	00001fb7          	lui	t6,0x1
    352c:	41f40fb3          	sub	t6,s0,t6
    3530:	9b5fbc23          	sd	s5,-1608(t6) # 9b8 <.LBB77_3+0x70c>
    3534:	008a0a83          	lb	s5,8(s4)
    3538:	00001fb7          	lui	t6,0x1
    353c:	41f40fb3          	sub	t6,s0,t6
    3540:	9b5fb823          	sd	s5,-1616(t6) # 9b0 <.LBB77_3+0x704>
    3544:	009a0a83          	lb	s5,9(s4)
    3548:	00001fb7          	lui	t6,0x1
    354c:	41f40fb3          	sub	t6,s0,t6
    3550:	9b5fb423          	sd	s5,-1624(t6) # 9a8 <.LBB77_3+0x6fc>
    3554:	00aa0a83          	lb	s5,10(s4)
    3558:	00001fb7          	lui	t6,0x1
    355c:	41f40fb3          	sub	t6,s0,t6
    3560:	9b5fb023          	sd	s5,-1632(t6) # 9a0 <.LBB77_3+0x6f4>
    3564:	00ba0a83          	lb	s5,11(s4)
    3568:	00001fb7          	lui	t6,0x1
    356c:	41f40fb3          	sub	t6,s0,t6
    3570:	995fbc23          	sd	s5,-1640(t6) # 998 <.LBB77_3+0x6ec>
    3574:	00ca0a83          	lb	s5,12(s4)
    3578:	00001fb7          	lui	t6,0x1
    357c:	41f40fb3          	sub	t6,s0,t6
    3580:	995fb823          	sd	s5,-1648(t6) # 990 <.LBB77_3+0x6e4>
    3584:	00da0a83          	lb	s5,13(s4)
    3588:	00001fb7          	lui	t6,0x1
    358c:	41f40fb3          	sub	t6,s0,t6
    3590:	995fb423          	sd	s5,-1656(t6) # 988 <.LBB77_3+0x6dc>
    3594:	00ea0a83          	lb	s5,14(s4)
    3598:	00001fb7          	lui	t6,0x1
    359c:	41f40fb3          	sub	t6,s0,t6
    35a0:	995fb023          	sd	s5,-1664(t6) # 980 <.LBB77_3+0x6d4>
    35a4:	00fa0a83          	lb	s5,15(s4)
    35a8:	00001fb7          	lui	t6,0x1
    35ac:	41f40fb3          	sub	t6,s0,t6
    35b0:	975fbc23          	sd	s5,-1672(t6) # 978 <.LBB77_3+0x6cc>
    35b4:	010a0a83          	lb	s5,16(s4)
    35b8:	00001fb7          	lui	t6,0x1
    35bc:	41f40fb3          	sub	t6,s0,t6
    35c0:	975fb823          	sd	s5,-1680(t6) # 970 <.LBB77_3+0x6c4>
    35c4:	011a0a83          	lb	s5,17(s4)
    35c8:	00001fb7          	lui	t6,0x1
    35cc:	41f40fb3          	sub	t6,s0,t6
    35d0:	975fb423          	sd	s5,-1688(t6) # 968 <.LBB77_3+0x6bc>
    35d4:	012a0a83          	lb	s5,18(s4)
    35d8:	00001fb7          	lui	t6,0x1
    35dc:	41f40fb3          	sub	t6,s0,t6
    35e0:	975fb023          	sd	s5,-1696(t6) # 960 <.LBB77_3+0x6b4>
    35e4:	013a0a83          	lb	s5,19(s4)
    35e8:	00001fb7          	lui	t6,0x1
    35ec:	41f40fb3          	sub	t6,s0,t6
    35f0:	955fbc23          	sd	s5,-1704(t6) # 958 <.LBB77_3+0x6ac>
    35f4:	014a0a83          	lb	s5,20(s4)
    35f8:	00001fb7          	lui	t6,0x1
    35fc:	41f40fb3          	sub	t6,s0,t6
    3600:	955fb823          	sd	s5,-1712(t6) # 950 <.LBB77_3+0x6a4>
    3604:	015a0a83          	lb	s5,21(s4)
    3608:	00001fb7          	lui	t6,0x1
    360c:	41f40fb3          	sub	t6,s0,t6
    3610:	955fb423          	sd	s5,-1720(t6) # 948 <.LBB77_3+0x69c>
    3614:	016a0a83          	lb	s5,22(s4)
    3618:	00001fb7          	lui	t6,0x1
    361c:	41f40fb3          	sub	t6,s0,t6
    3620:	955fb023          	sd	s5,-1728(t6) # 940 <.LBB77_3+0x694>
    3624:	017a0a83          	lb	s5,23(s4)
    3628:	00001fb7          	lui	t6,0x1
    362c:	41f40fb3          	sub	t6,s0,t6
    3630:	935fbc23          	sd	s5,-1736(t6) # 938 <.LBB77_3+0x68c>
    3634:	018a0a83          	lb	s5,24(s4)
    3638:	00001fb7          	lui	t6,0x1
    363c:	41f40fb3          	sub	t6,s0,t6
    3640:	935fb823          	sd	s5,-1744(t6) # 930 <.LBB77_3+0x684>
    3644:	019a0a83          	lb	s5,25(s4)
    3648:	00001fb7          	lui	t6,0x1
    364c:	41f40fb3          	sub	t6,s0,t6
    3650:	935fb423          	sd	s5,-1752(t6) # 928 <.LBB77_3+0x67c>
    3654:	01aa0a83          	lb	s5,26(s4)
    3658:	00001fb7          	lui	t6,0x1
    365c:	41f40fb3          	sub	t6,s0,t6
    3660:	935fb023          	sd	s5,-1760(t6) # 920 <.LBB77_3+0x674>
    3664:	01ba0a83          	lb	s5,27(s4)
    3668:	00001fb7          	lui	t6,0x1
    366c:	41f40fb3          	sub	t6,s0,t6
    3670:	915fbc23          	sd	s5,-1768(t6) # 918 <.LBB77_3+0x66c>
    3674:	01ca0a83          	lb	s5,28(s4)
    3678:	00001fb7          	lui	t6,0x1
    367c:	41f40fb3          	sub	t6,s0,t6
    3680:	915fb823          	sd	s5,-1776(t6) # 910 <.LBB77_3+0x664>
    3684:	01da0f83          	lb	t6,29(s4)
    3688:	00001ab7          	lui	s5,0x1
    368c:	41540ab3          	sub	s5,s0,s5
    3690:	91fab023          	sd	t6,-1792(s5) # 900 <.LBB77_3+0x654>
    3694:	01ea0f83          	lb	t6,30(s4)
    3698:	00001ab7          	lui	s5,0x1
    369c:	41540ab3          	sub	s5,s0,s5
    36a0:	8ffab823          	sd	t6,-1808(s5) # 8f0 <.LBB77_3+0x644>
    36a4:	01fa0f83          	lb	t6,31(s4)
    36a8:	00001a37          	lui	s4,0x1
    36ac:	41440a33          	sub	s4,s0,s4
    36b0:	8ffa3023          	sd	t6,-1824(s4) # 8e0 <.LBB77_3+0x634>
    36b4:	00090a03          	lb	s4,0(s2)
    36b8:	00001fb7          	lui	t6,0x1
    36bc:	41f40fb3          	sub	t6,s0,t6
    36c0:	b14fb423          	sd	s4,-1272(t6) # b08 <.LBB77_3+0x85c>
    36c4:	00190a03          	lb	s4,1(s2)
    36c8:	00001fb7          	lui	t6,0x1
    36cc:	41f40fb3          	sub	t6,s0,t6
    36d0:	af4fbc23          	sd	s4,-1288(t6) # af8 <.LBB77_3+0x84c>
    36d4:	00290a03          	lb	s4,2(s2)
    36d8:	00001fb7          	lui	t6,0x1
    36dc:	41f40fb3          	sub	t6,s0,t6
    36e0:	af4fb423          	sd	s4,-1304(t6) # ae8 <.LBB77_3+0x83c>
    36e4:	00390a03          	lb	s4,3(s2)
    36e8:	00001fb7          	lui	t6,0x1
    36ec:	41f40fb3          	sub	t6,s0,t6
    36f0:	ad4fbc23          	sd	s4,-1320(t6) # ad8 <.LBB77_3+0x82c>
    36f4:	00490a03          	lb	s4,4(s2)
    36f8:	00001fb7          	lui	t6,0x1
    36fc:	41f40fb3          	sub	t6,s0,t6
    3700:	ad4fb823          	sd	s4,-1328(t6) # ad0 <.LBB77_3+0x824>
    3704:	00590a03          	lb	s4,5(s2)
    3708:	00001fb7          	lui	t6,0x1
    370c:	41f40fb3          	sub	t6,s0,t6
    3710:	ad4fb423          	sd	s4,-1336(t6) # ac8 <.LBB77_3+0x81c>
    3714:	00690a03          	lb	s4,6(s2)
    3718:	00001fb7          	lui	t6,0x1
    371c:	41f40fb3          	sub	t6,s0,t6
    3720:	ad4fb023          	sd	s4,-1344(t6) # ac0 <.LBB77_3+0x814>
    3724:	00790a03          	lb	s4,7(s2)
    3728:	00001fb7          	lui	t6,0x1
    372c:	41f40fb3          	sub	t6,s0,t6
    3730:	ab4fbc23          	sd	s4,-1352(t6) # ab8 <.LBB77_3+0x80c>
    3734:	00890a03          	lb	s4,8(s2)
    3738:	00001fb7          	lui	t6,0x1
    373c:	41f40fb3          	sub	t6,s0,t6
    3740:	ab4fb823          	sd	s4,-1360(t6) # ab0 <.LBB77_3+0x804>
    3744:	00990a03          	lb	s4,9(s2)
    3748:	00001fb7          	lui	t6,0x1
    374c:	41f40fb3          	sub	t6,s0,t6
    3750:	ab4fb423          	sd	s4,-1368(t6) # aa8 <.LBB77_3+0x7fc>
    3754:	00a90a03          	lb	s4,10(s2)
    3758:	00001fb7          	lui	t6,0x1
    375c:	41f40fb3          	sub	t6,s0,t6
    3760:	ab4fb023          	sd	s4,-1376(t6) # aa0 <.LBB77_3+0x7f4>
    3764:	00b90a03          	lb	s4,11(s2)
    3768:	00001fb7          	lui	t6,0x1
    376c:	41f40fb3          	sub	t6,s0,t6
    3770:	a94fbc23          	sd	s4,-1384(t6) # a98 <.LBB77_3+0x7ec>
    3774:	00c90a03          	lb	s4,12(s2)
    3778:	00001fb7          	lui	t6,0x1
    377c:	41f40fb3          	sub	t6,s0,t6
    3780:	a94fb823          	sd	s4,-1392(t6) # a90 <.LBB77_3+0x7e4>
    3784:	00d90a03          	lb	s4,13(s2)
    3788:	00001fb7          	lui	t6,0x1
    378c:	41f40fb3          	sub	t6,s0,t6
    3790:	a94fb423          	sd	s4,-1400(t6) # a88 <.LBB77_3+0x7dc>
    3794:	00e90a03          	lb	s4,14(s2)
    3798:	00001fb7          	lui	t6,0x1
    379c:	41f40fb3          	sub	t6,s0,t6
    37a0:	a94fb023          	sd	s4,-1408(t6) # a80 <.LBB77_3+0x7d4>
    37a4:	00f90a03          	lb	s4,15(s2)
    37a8:	00001fb7          	lui	t6,0x1
    37ac:	41f40fb3          	sub	t6,s0,t6
    37b0:	a74fbc23          	sd	s4,-1416(t6) # a78 <.LBB77_3+0x7cc>
    37b4:	01090a03          	lb	s4,16(s2)
    37b8:	00001fb7          	lui	t6,0x1
    37bc:	41f40fb3          	sub	t6,s0,t6
    37c0:	a74fb823          	sd	s4,-1424(t6) # a70 <.LBB77_3+0x7c4>
    37c4:	01190a03          	lb	s4,17(s2)
    37c8:	00001fb7          	lui	t6,0x1
    37cc:	41f40fb3          	sub	t6,s0,t6
    37d0:	a74fb423          	sd	s4,-1432(t6) # a68 <.LBB77_3+0x7bc>
    37d4:	01290a03          	lb	s4,18(s2)
    37d8:	00001fb7          	lui	t6,0x1
    37dc:	41f40fb3          	sub	t6,s0,t6
    37e0:	a74fb023          	sd	s4,-1440(t6) # a60 <.LBB77_3+0x7b4>
    37e4:	01390a03          	lb	s4,19(s2)
    37e8:	00001fb7          	lui	t6,0x1
    37ec:	41f40fb3          	sub	t6,s0,t6
    37f0:	a54fbc23          	sd	s4,-1448(t6) # a58 <.LBB77_3+0x7ac>
    37f4:	01490a03          	lb	s4,20(s2)
    37f8:	00001fb7          	lui	t6,0x1
    37fc:	41f40fb3          	sub	t6,s0,t6
    3800:	a54fb823          	sd	s4,-1456(t6) # a50 <.LBB77_3+0x7a4>
    3804:	01590a03          	lb	s4,21(s2)
    3808:	00001fb7          	lui	t6,0x1
    380c:	41f40fb3          	sub	t6,s0,t6
    3810:	a54fb423          	sd	s4,-1464(t6) # a48 <.LBB77_3+0x79c>
    3814:	01690a03          	lb	s4,22(s2)
    3818:	00001fb7          	lui	t6,0x1
    381c:	41f40fb3          	sub	t6,s0,t6
    3820:	a54fb023          	sd	s4,-1472(t6) # a40 <.LBB77_3+0x794>
    3824:	01790a03          	lb	s4,23(s2)
    3828:	00001fb7          	lui	t6,0x1
    382c:	41f40fb3          	sub	t6,s0,t6
    3830:	a34fbc23          	sd	s4,-1480(t6) # a38 <.LBB77_3+0x78c>
    3834:	01890a03          	lb	s4,24(s2)
    3838:	00001fb7          	lui	t6,0x1
    383c:	41f40fb3          	sub	t6,s0,t6
    3840:	a34fb823          	sd	s4,-1488(t6) # a30 <.LBB77_3+0x784>
    3844:	01990a03          	lb	s4,25(s2)
    3848:	00001fb7          	lui	t6,0x1
    384c:	41f40fb3          	sub	t6,s0,t6
    3850:	a34fb423          	sd	s4,-1496(t6) # a28 <.LBB77_3+0x77c>
    3854:	01a90a03          	lb	s4,26(s2)
    3858:	00001fb7          	lui	t6,0x1
    385c:	41f40fb3          	sub	t6,s0,t6
    3860:	a34fb023          	sd	s4,-1504(t6) # a20 <.LBB77_3+0x774>
    3864:	01b90a03          	lb	s4,27(s2)
    3868:	00001fb7          	lui	t6,0x1
    386c:	41f40fb3          	sub	t6,s0,t6
    3870:	a14fbc23          	sd	s4,-1512(t6) # a18 <.LBB77_3+0x76c>
    3874:	01c90a03          	lb	s4,28(s2)
    3878:	00001fb7          	lui	t6,0x1
    387c:	41f40fb3          	sub	t6,s0,t6
    3880:	a14fb823          	sd	s4,-1520(t6) # a10 <.LBB77_3+0x764>
    3884:	01d90a03          	lb	s4,29(s2)
    3888:	00001fb7          	lui	t6,0x1
    388c:	41f40fb3          	sub	t6,s0,t6
    3890:	a14fb023          	sd	s4,-1536(t6) # a00 <.LBB77_3+0x754>
    3894:	01e90a03          	lb	s4,30(s2)
    3898:	00001fb7          	lui	t6,0x1
    389c:	41f40fb3          	sub	t6,s0,t6
    38a0:	9f4fb823          	sd	s4,-1552(t6) # 9f0 <.LBB77_3+0x744>
    38a4:	01f90903          	lb	s2,31(s2)
    38a8:	00001fb7          	lui	t6,0x1
    38ac:	41f40fb3          	sub	t6,s0,t6
    38b0:	9f2fb023          	sd	s2,-1568(t6) # 9e0 <.LBB77_3+0x734>
    38b4:	00028903          	lb	s2,0(t0)
    38b8:	00001fb7          	lui	t6,0x1
    38bc:	41f40fb3          	sub	t6,s0,t6
    38c0:	c12fb423          	sd	s2,-1016(t6) # c08 <.LBB77_3+0x95c>
    38c4:	00128903          	lb	s2,1(t0)
    38c8:	00001fb7          	lui	t6,0x1
    38cc:	41f40fb3          	sub	t6,s0,t6
    38d0:	bf2fbc23          	sd	s2,-1032(t6) # bf8 <.LBB77_3+0x94c>
    38d4:	00228903          	lb	s2,2(t0)
    38d8:	00001fb7          	lui	t6,0x1
    38dc:	41f40fb3          	sub	t6,s0,t6
    38e0:	bf2fb423          	sd	s2,-1048(t6) # be8 <.LBB77_3+0x93c>
    38e4:	00328903          	lb	s2,3(t0)
    38e8:	00001fb7          	lui	t6,0x1
    38ec:	41f40fb3          	sub	t6,s0,t6
    38f0:	bd2fbc23          	sd	s2,-1064(t6) # bd8 <.LBB77_3+0x92c>
    38f4:	00428903          	lb	s2,4(t0)
    38f8:	00001fb7          	lui	t6,0x1
    38fc:	41f40fb3          	sub	t6,s0,t6
    3900:	bd2fb823          	sd	s2,-1072(t6) # bd0 <.LBB77_3+0x924>
    3904:	00528903          	lb	s2,5(t0)
    3908:	00001fb7          	lui	t6,0x1
    390c:	41f40fb3          	sub	t6,s0,t6
    3910:	bd2fb423          	sd	s2,-1080(t6) # bc8 <.LBB77_3+0x91c>
    3914:	00628903          	lb	s2,6(t0)
    3918:	00001fb7          	lui	t6,0x1
    391c:	41f40fb3          	sub	t6,s0,t6
    3920:	bd2fb023          	sd	s2,-1088(t6) # bc0 <.LBB77_3+0x914>
    3924:	00728903          	lb	s2,7(t0)
    3928:	00001fb7          	lui	t6,0x1
    392c:	41f40fb3          	sub	t6,s0,t6
    3930:	bb2fbc23          	sd	s2,-1096(t6) # bb8 <.LBB77_3+0x90c>
    3934:	00828903          	lb	s2,8(t0)
    3938:	00001fb7          	lui	t6,0x1
    393c:	41f40fb3          	sub	t6,s0,t6
    3940:	bb2fb823          	sd	s2,-1104(t6) # bb0 <.LBB77_3+0x904>
    3944:	00928903          	lb	s2,9(t0)
    3948:	00001fb7          	lui	t6,0x1
    394c:	41f40fb3          	sub	t6,s0,t6
    3950:	bb2fb423          	sd	s2,-1112(t6) # ba8 <.LBB77_3+0x8fc>
    3954:	00a28903          	lb	s2,10(t0)
    3958:	00001fb7          	lui	t6,0x1
    395c:	41f40fb3          	sub	t6,s0,t6
    3960:	bb2fb023          	sd	s2,-1120(t6) # ba0 <.LBB77_3+0x8f4>
    3964:	00b28903          	lb	s2,11(t0)
    3968:	00001fb7          	lui	t6,0x1
    396c:	41f40fb3          	sub	t6,s0,t6
    3970:	b92fbc23          	sd	s2,-1128(t6) # b98 <.LBB77_3+0x8ec>
    3974:	00c28903          	lb	s2,12(t0)
    3978:	00001fb7          	lui	t6,0x1
    397c:	41f40fb3          	sub	t6,s0,t6
    3980:	b92fb823          	sd	s2,-1136(t6) # b90 <.LBB77_3+0x8e4>
    3984:	00d28903          	lb	s2,13(t0)
    3988:	00001fb7          	lui	t6,0x1
    398c:	41f40fb3          	sub	t6,s0,t6
    3990:	b92fb423          	sd	s2,-1144(t6) # b88 <.LBB77_3+0x8dc>
    3994:	00e28903          	lb	s2,14(t0)
    3998:	00001fb7          	lui	t6,0x1
    399c:	41f40fb3          	sub	t6,s0,t6
    39a0:	b92fb023          	sd	s2,-1152(t6) # b80 <.LBB77_3+0x8d4>
    39a4:	00f28903          	lb	s2,15(t0)
    39a8:	00001fb7          	lui	t6,0x1
    39ac:	41f40fb3          	sub	t6,s0,t6
    39b0:	b72fbc23          	sd	s2,-1160(t6) # b78 <.LBB77_3+0x8cc>
    39b4:	01028903          	lb	s2,16(t0)
    39b8:	00001fb7          	lui	t6,0x1
    39bc:	41f40fb3          	sub	t6,s0,t6
    39c0:	b72fb823          	sd	s2,-1168(t6) # b70 <.LBB77_3+0x8c4>
    39c4:	01128903          	lb	s2,17(t0)
    39c8:	00001fb7          	lui	t6,0x1
    39cc:	41f40fb3          	sub	t6,s0,t6
    39d0:	b72fb423          	sd	s2,-1176(t6) # b68 <.LBB77_3+0x8bc>
    39d4:	01228903          	lb	s2,18(t0)
    39d8:	00001fb7          	lui	t6,0x1
    39dc:	41f40fb3          	sub	t6,s0,t6
    39e0:	b72fb023          	sd	s2,-1184(t6) # b60 <.LBB77_3+0x8b4>
    39e4:	01328903          	lb	s2,19(t0)
    39e8:	00001fb7          	lui	t6,0x1
    39ec:	41f40fb3          	sub	t6,s0,t6
    39f0:	b52fbc23          	sd	s2,-1192(t6) # b58 <.LBB77_3+0x8ac>
    39f4:	01428903          	lb	s2,20(t0)
    39f8:	00001fb7          	lui	t6,0x1
    39fc:	41f40fb3          	sub	t6,s0,t6
    3a00:	b52fb823          	sd	s2,-1200(t6) # b50 <.LBB77_3+0x8a4>
    3a04:	01528903          	lb	s2,21(t0)
    3a08:	00001fb7          	lui	t6,0x1
    3a0c:	41f40fb3          	sub	t6,s0,t6
    3a10:	b52fb423          	sd	s2,-1208(t6) # b48 <.LBB77_3+0x89c>
    3a14:	01628903          	lb	s2,22(t0)
    3a18:	00001fb7          	lui	t6,0x1
    3a1c:	41f40fb3          	sub	t6,s0,t6
    3a20:	b52fb023          	sd	s2,-1216(t6) # b40 <.LBB77_3+0x894>
    3a24:	01728903          	lb	s2,23(t0)
    3a28:	00001fb7          	lui	t6,0x1
    3a2c:	41f40fb3          	sub	t6,s0,t6
    3a30:	b32fbc23          	sd	s2,-1224(t6) # b38 <.LBB77_3+0x88c>
    3a34:	01828903          	lb	s2,24(t0)
    3a38:	00001fb7          	lui	t6,0x1
    3a3c:	41f40fb3          	sub	t6,s0,t6
    3a40:	b32fb823          	sd	s2,-1232(t6) # b30 <.LBB77_3+0x884>
    3a44:	01928903          	lb	s2,25(t0)
    3a48:	00001fb7          	lui	t6,0x1
    3a4c:	41f40fb3          	sub	t6,s0,t6
    3a50:	b32fb423          	sd	s2,-1240(t6) # b28 <.LBB77_3+0x87c>
    3a54:	01a28903          	lb	s2,26(t0)
    3a58:	00001fb7          	lui	t6,0x1
    3a5c:	41f40fb3          	sub	t6,s0,t6
    3a60:	b32fb023          	sd	s2,-1248(t6) # b20 <.LBB77_3+0x874>
    3a64:	01b28903          	lb	s2,27(t0)
    3a68:	00001fb7          	lui	t6,0x1
    3a6c:	41f40fb3          	sub	t6,s0,t6
    3a70:	b12fbc23          	sd	s2,-1256(t6) # b18 <.LBB77_3+0x86c>
    3a74:	01c28903          	lb	s2,28(t0)
    3a78:	00001fb7          	lui	t6,0x1
    3a7c:	41f40fb3          	sub	t6,s0,t6
    3a80:	b12fb823          	sd	s2,-1264(t6) # b10 <.LBB77_3+0x864>
    3a84:	01d28903          	lb	s2,29(t0)
    3a88:	00001fb7          	lui	t6,0x1
    3a8c:	41f40fb3          	sub	t6,s0,t6
    3a90:	b12fb023          	sd	s2,-1280(t6) # b00 <.LBB77_3+0x854>
    3a94:	01e28903          	lb	s2,30(t0)
    3a98:	00001fb7          	lui	t6,0x1
    3a9c:	41f40fb3          	sub	t6,s0,t6
    3aa0:	af2fb823          	sd	s2,-1296(t6) # af0 <.LBB77_3+0x844>
    3aa4:	01f28283          	lb	t0,31(t0)
    3aa8:	00001fb7          	lui	t6,0x1
    3aac:	41f40fb3          	sub	t6,s0,t6
    3ab0:	ae5fb023          	sd	t0,-1312(t6) # ae0 <.LBB77_3+0x834>
    3ab4:	00058283          	lb	t0,0(a1)
    3ab8:	00001fb7          	lui	t6,0x1
    3abc:	41f40fb3          	sub	t6,s0,t6
    3ac0:	d05fb423          	sd	t0,-760(t6) # d08 <.LBB77_3+0xa5c>
    3ac4:	00158283          	lb	t0,1(a1)
    3ac8:	00001fb7          	lui	t6,0x1
    3acc:	41f40fb3          	sub	t6,s0,t6
    3ad0:	ce5fbc23          	sd	t0,-776(t6) # cf8 <.LBB77_3+0xa4c>
    3ad4:	00258283          	lb	t0,2(a1)
    3ad8:	00001fb7          	lui	t6,0x1
    3adc:	41f40fb3          	sub	t6,s0,t6
    3ae0:	ce5fb423          	sd	t0,-792(t6) # ce8 <.LBB77_3+0xa3c>
    3ae4:	00358283          	lb	t0,3(a1)
    3ae8:	00001fb7          	lui	t6,0x1
    3aec:	41f40fb3          	sub	t6,s0,t6
    3af0:	cc5fbc23          	sd	t0,-808(t6) # cd8 <.LBB77_3+0xa2c>
    3af4:	00458283          	lb	t0,4(a1)
    3af8:	00001fb7          	lui	t6,0x1
    3afc:	41f40fb3          	sub	t6,s0,t6
    3b00:	cc5fb823          	sd	t0,-816(t6) # cd0 <.LBB77_3+0xa24>
    3b04:	00558283          	lb	t0,5(a1)
    3b08:	00001fb7          	lui	t6,0x1
    3b0c:	41f40fb3          	sub	t6,s0,t6
    3b10:	cc5fb423          	sd	t0,-824(t6) # cc8 <.LBB77_3+0xa1c>
    3b14:	00658283          	lb	t0,6(a1)
    3b18:	00001fb7          	lui	t6,0x1
    3b1c:	41f40fb3          	sub	t6,s0,t6
    3b20:	cc5fb023          	sd	t0,-832(t6) # cc0 <.LBB77_3+0xa14>
    3b24:	00758283          	lb	t0,7(a1)
    3b28:	00001fb7          	lui	t6,0x1
    3b2c:	41f40fb3          	sub	t6,s0,t6
    3b30:	ca5fbc23          	sd	t0,-840(t6) # cb8 <.LBB77_3+0xa0c>
    3b34:	00858283          	lb	t0,8(a1)
    3b38:	00001fb7          	lui	t6,0x1
    3b3c:	41f40fb3          	sub	t6,s0,t6
    3b40:	ca5fb823          	sd	t0,-848(t6) # cb0 <.LBB77_3+0xa04>
    3b44:	00958283          	lb	t0,9(a1)
    3b48:	00001fb7          	lui	t6,0x1
    3b4c:	41f40fb3          	sub	t6,s0,t6
    3b50:	ca5fb423          	sd	t0,-856(t6) # ca8 <.LBB77_3+0x9fc>
    3b54:	00a58283          	lb	t0,10(a1)
    3b58:	00001fb7          	lui	t6,0x1
    3b5c:	41f40fb3          	sub	t6,s0,t6
    3b60:	ca5fb023          	sd	t0,-864(t6) # ca0 <.LBB77_3+0x9f4>
    3b64:	00b58283          	lb	t0,11(a1)
    3b68:	00001fb7          	lui	t6,0x1
    3b6c:	41f40fb3          	sub	t6,s0,t6
    3b70:	c85fbc23          	sd	t0,-872(t6) # c98 <.LBB77_3+0x9ec>
    3b74:	00c58283          	lb	t0,12(a1)
    3b78:	00001fb7          	lui	t6,0x1
    3b7c:	41f40fb3          	sub	t6,s0,t6
    3b80:	c85fb823          	sd	t0,-880(t6) # c90 <.LBB77_3+0x9e4>
    3b84:	00d58283          	lb	t0,13(a1)
    3b88:	00001fb7          	lui	t6,0x1
    3b8c:	41f40fb3          	sub	t6,s0,t6
    3b90:	c85fb423          	sd	t0,-888(t6) # c88 <.LBB77_3+0x9dc>
    3b94:	00e58283          	lb	t0,14(a1)
    3b98:	00001fb7          	lui	t6,0x1
    3b9c:	41f40fb3          	sub	t6,s0,t6
    3ba0:	c85fb023          	sd	t0,-896(t6) # c80 <.LBB77_3+0x9d4>
    3ba4:	00f58283          	lb	t0,15(a1)
    3ba8:	00001fb7          	lui	t6,0x1
    3bac:	41f40fb3          	sub	t6,s0,t6
    3bb0:	c65fbc23          	sd	t0,-904(t6) # c78 <.LBB77_3+0x9cc>
    3bb4:	01058283          	lb	t0,16(a1)
    3bb8:	00001fb7          	lui	t6,0x1
    3bbc:	41f40fb3          	sub	t6,s0,t6
    3bc0:	c65fb823          	sd	t0,-912(t6) # c70 <.LBB77_3+0x9c4>
    3bc4:	01158283          	lb	t0,17(a1)
    3bc8:	00001fb7          	lui	t6,0x1
    3bcc:	41f40fb3          	sub	t6,s0,t6
    3bd0:	c65fb423          	sd	t0,-920(t6) # c68 <.LBB77_3+0x9bc>
    3bd4:	01258283          	lb	t0,18(a1)
    3bd8:	00001fb7          	lui	t6,0x1
    3bdc:	41f40fb3          	sub	t6,s0,t6
    3be0:	c65fb023          	sd	t0,-928(t6) # c60 <.LBB77_3+0x9b4>
    3be4:	01358283          	lb	t0,19(a1)
    3be8:	00001fb7          	lui	t6,0x1
    3bec:	41f40fb3          	sub	t6,s0,t6
    3bf0:	c45fbc23          	sd	t0,-936(t6) # c58 <.LBB77_3+0x9ac>
    3bf4:	01458283          	lb	t0,20(a1)
    3bf8:	00001fb7          	lui	t6,0x1
    3bfc:	41f40fb3          	sub	t6,s0,t6
    3c00:	c45fb823          	sd	t0,-944(t6) # c50 <.LBB77_3+0x9a4>
    3c04:	01558283          	lb	t0,21(a1)
    3c08:	00001fb7          	lui	t6,0x1
    3c0c:	41f40fb3          	sub	t6,s0,t6
    3c10:	c45fb423          	sd	t0,-952(t6) # c48 <.LBB77_3+0x99c>
    3c14:	01658283          	lb	t0,22(a1)
    3c18:	00001fb7          	lui	t6,0x1
    3c1c:	41f40fb3          	sub	t6,s0,t6
    3c20:	c45fb023          	sd	t0,-960(t6) # c40 <.LBB77_3+0x994>
    3c24:	01758283          	lb	t0,23(a1)
    3c28:	00001fb7          	lui	t6,0x1
    3c2c:	41f40fb3          	sub	t6,s0,t6
    3c30:	c25fbc23          	sd	t0,-968(t6) # c38 <.LBB77_3+0x98c>
    3c34:	01858283          	lb	t0,24(a1)
    3c38:	00001fb7          	lui	t6,0x1
    3c3c:	41f40fb3          	sub	t6,s0,t6
    3c40:	c25fb823          	sd	t0,-976(t6) # c30 <.LBB77_3+0x984>
    3c44:	01958283          	lb	t0,25(a1)
    3c48:	00001fb7          	lui	t6,0x1
    3c4c:	41f40fb3          	sub	t6,s0,t6
    3c50:	c25fb423          	sd	t0,-984(t6) # c28 <.LBB77_3+0x97c>
    3c54:	01a58283          	lb	t0,26(a1)
    3c58:	00001fb7          	lui	t6,0x1
    3c5c:	41f40fb3          	sub	t6,s0,t6
    3c60:	c25fb023          	sd	t0,-992(t6) # c20 <.LBB77_3+0x974>
    3c64:	01b58283          	lb	t0,27(a1)
    3c68:	00001fb7          	lui	t6,0x1
    3c6c:	41f40fb3          	sub	t6,s0,t6
    3c70:	c05fbc23          	sd	t0,-1000(t6) # c18 <.LBB77_3+0x96c>
    3c74:	01c58283          	lb	t0,28(a1)
    3c78:	00001fb7          	lui	t6,0x1
    3c7c:	41f40fb3          	sub	t6,s0,t6
    3c80:	c05fb823          	sd	t0,-1008(t6) # c10 <.LBB77_3+0x964>
    3c84:	01d58283          	lb	t0,29(a1)
    3c88:	00001fb7          	lui	t6,0x1
    3c8c:	41f40fb3          	sub	t6,s0,t6
    3c90:	c05fb023          	sd	t0,-1024(t6) # c00 <.LBB77_3+0x954>
    3c94:	01e58283          	lb	t0,30(a1)
    3c98:	00001fb7          	lui	t6,0x1
    3c9c:	41f40fb3          	sub	t6,s0,t6
    3ca0:	be5fb823          	sd	t0,-1040(t6) # bf0 <.LBB77_3+0x944>
    3ca4:	01f58583          	lb	a1,31(a1)
    3ca8:	000012b7          	lui	t0,0x1
    3cac:	405402b3          	sub	t0,s0,t0
    3cb0:	beb2b023          	sd	a1,-1056(t0) # be0 <.LBB77_3+0x934>
    3cb4:	00080583          	lb	a1,0(a6)
    3cb8:	000012b7          	lui	t0,0x1
    3cbc:	405402b3          	sub	t0,s0,t0
    3cc0:	e2b2b823          	sd	a1,-464(t0) # e30 <.LBB77_3+0xb84>
    3cc4:	00180583          	lb	a1,1(a6)
    3cc8:	000012b7          	lui	t0,0x1
    3ccc:	405402b3          	sub	t0,s0,t0
    3cd0:	e2b2b023          	sd	a1,-480(t0) # e20 <.LBB77_3+0xb74>
    3cd4:	00280583          	lb	a1,2(a6)
    3cd8:	000012b7          	lui	t0,0x1
    3cdc:	405402b3          	sub	t0,s0,t0
    3ce0:	e0b2b823          	sd	a1,-496(t0) # e10 <.LBB77_3+0xb64>
    3ce4:	00380583          	lb	a1,3(a6)
    3ce8:	000012b7          	lui	t0,0x1
    3cec:	405402b3          	sub	t0,s0,t0
    3cf0:	e0b2b023          	sd	a1,-512(t0) # e00 <.LBB77_3+0xb54>
    3cf4:	00480583          	lb	a1,4(a6)
    3cf8:	000012b7          	lui	t0,0x1
    3cfc:	405402b3          	sub	t0,s0,t0
    3d00:	deb2b823          	sd	a1,-528(t0) # df0 <.LBB77_3+0xb44>
    3d04:	00580583          	lb	a1,5(a6)
    3d08:	000012b7          	lui	t0,0x1
    3d0c:	405402b3          	sub	t0,s0,t0
    3d10:	dcb2bc23          	sd	a1,-552(t0) # dd8 <.LBB77_3+0xb2c>
    3d14:	00680583          	lb	a1,6(a6)
    3d18:	000012b7          	lui	t0,0x1
    3d1c:	405402b3          	sub	t0,s0,t0
    3d20:	dcb2b423          	sd	a1,-568(t0) # dc8 <.LBB77_3+0xb1c>
    3d24:	00780583          	lb	a1,7(a6)
    3d28:	000012b7          	lui	t0,0x1
    3d2c:	405402b3          	sub	t0,s0,t0
    3d30:	dab2bc23          	sd	a1,-584(t0) # db8 <.LBB77_3+0xb0c>
    3d34:	00880583          	lb	a1,8(a6)
    3d38:	000012b7          	lui	t0,0x1
    3d3c:	405402b3          	sub	t0,s0,t0
    3d40:	dab2b823          	sd	a1,-592(t0) # db0 <.LBB77_3+0xb04>
    3d44:	00980583          	lb	a1,9(a6)
    3d48:	000012b7          	lui	t0,0x1
    3d4c:	405402b3          	sub	t0,s0,t0
    3d50:	dab2b423          	sd	a1,-600(t0) # da8 <.LBB77_3+0xafc>
    3d54:	00a80583          	lb	a1,10(a6)
    3d58:	000012b7          	lui	t0,0x1
    3d5c:	405402b3          	sub	t0,s0,t0
    3d60:	dab2b023          	sd	a1,-608(t0) # da0 <.LBB77_3+0xaf4>
    3d64:	00b80583          	lb	a1,11(a6)
    3d68:	000012b7          	lui	t0,0x1
    3d6c:	405402b3          	sub	t0,s0,t0
    3d70:	d8b2bc23          	sd	a1,-616(t0) # d98 <.LBB77_3+0xaec>
    3d74:	00c80583          	lb	a1,12(a6)
    3d78:	000012b7          	lui	t0,0x1
    3d7c:	405402b3          	sub	t0,s0,t0
    3d80:	d8b2b823          	sd	a1,-624(t0) # d90 <.LBB77_3+0xae4>
    3d84:	00d80583          	lb	a1,13(a6)
    3d88:	000012b7          	lui	t0,0x1
    3d8c:	405402b3          	sub	t0,s0,t0
    3d90:	d8b2b423          	sd	a1,-632(t0) # d88 <.LBB77_3+0xadc>
    3d94:	00e80583          	lb	a1,14(a6)
    3d98:	000012b7          	lui	t0,0x1
    3d9c:	405402b3          	sub	t0,s0,t0
    3da0:	d8b2b023          	sd	a1,-640(t0) # d80 <.LBB77_3+0xad4>
    3da4:	00f80583          	lb	a1,15(a6)
    3da8:	000012b7          	lui	t0,0x1
    3dac:	405402b3          	sub	t0,s0,t0
    3db0:	d6b2bc23          	sd	a1,-648(t0) # d78 <.LBB77_3+0xacc>
    3db4:	01080583          	lb	a1,16(a6)
    3db8:	000012b7          	lui	t0,0x1
    3dbc:	405402b3          	sub	t0,s0,t0
    3dc0:	d6b2b823          	sd	a1,-656(t0) # d70 <.LBB77_3+0xac4>
    3dc4:	01180583          	lb	a1,17(a6)
    3dc8:	000012b7          	lui	t0,0x1
    3dcc:	405402b3          	sub	t0,s0,t0
    3dd0:	d6b2b423          	sd	a1,-664(t0) # d68 <.LBB77_3+0xabc>
    3dd4:	01280583          	lb	a1,18(a6)
    3dd8:	000012b7          	lui	t0,0x1
    3ddc:	405402b3          	sub	t0,s0,t0
    3de0:	d6b2b023          	sd	a1,-672(t0) # d60 <.LBB77_3+0xab4>
    3de4:	01380583          	lb	a1,19(a6)
    3de8:	000012b7          	lui	t0,0x1
    3dec:	405402b3          	sub	t0,s0,t0
    3df0:	d4b2bc23          	sd	a1,-680(t0) # d58 <.LBB77_3+0xaac>
    3df4:	01480583          	lb	a1,20(a6)
    3df8:	000012b7          	lui	t0,0x1
    3dfc:	405402b3          	sub	t0,s0,t0
    3e00:	d4b2b823          	sd	a1,-688(t0) # d50 <.LBB77_3+0xaa4>
    3e04:	01580583          	lb	a1,21(a6)
    3e08:	000012b7          	lui	t0,0x1
    3e0c:	405402b3          	sub	t0,s0,t0
    3e10:	d4b2b423          	sd	a1,-696(t0) # d48 <.LBB77_3+0xa9c>
    3e14:	01680583          	lb	a1,22(a6)
    3e18:	000012b7          	lui	t0,0x1
    3e1c:	405402b3          	sub	t0,s0,t0
    3e20:	d4b2b023          	sd	a1,-704(t0) # d40 <.LBB77_3+0xa94>
    3e24:	01780583          	lb	a1,23(a6)
    3e28:	000012b7          	lui	t0,0x1
    3e2c:	405402b3          	sub	t0,s0,t0
    3e30:	d2b2bc23          	sd	a1,-712(t0) # d38 <.LBB77_3+0xa8c>
    3e34:	01880583          	lb	a1,24(a6)
    3e38:	000012b7          	lui	t0,0x1
    3e3c:	405402b3          	sub	t0,s0,t0
    3e40:	d2b2b823          	sd	a1,-720(t0) # d30 <.LBB77_3+0xa84>
    3e44:	01980583          	lb	a1,25(a6)
    3e48:	000012b7          	lui	t0,0x1
    3e4c:	405402b3          	sub	t0,s0,t0
    3e50:	d2b2b423          	sd	a1,-728(t0) # d28 <.LBB77_3+0xa7c>
    3e54:	01a80583          	lb	a1,26(a6)
    3e58:	000012b7          	lui	t0,0x1
    3e5c:	405402b3          	sub	t0,s0,t0
    3e60:	d2b2b023          	sd	a1,-736(t0) # d20 <.LBB77_3+0xa74>
    3e64:	01b80583          	lb	a1,27(a6)
    3e68:	000012b7          	lui	t0,0x1
    3e6c:	405402b3          	sub	t0,s0,t0
    3e70:	d0b2bc23          	sd	a1,-744(t0) # d18 <.LBB77_3+0xa6c>
    3e74:	01c80583          	lb	a1,28(a6)
    3e78:	000012b7          	lui	t0,0x1
    3e7c:	405402b3          	sub	t0,s0,t0
    3e80:	d0b2b823          	sd	a1,-752(t0) # d10 <.LBB77_3+0xa64>
    3e84:	01d80583          	lb	a1,29(a6)
    3e88:	000012b7          	lui	t0,0x1
    3e8c:	405402b3          	sub	t0,s0,t0
    3e90:	d0b2b023          	sd	a1,-768(t0) # d00 <.LBB77_3+0xa54>
    3e94:	01e80583          	lb	a1,30(a6)
    3e98:	000012b7          	lui	t0,0x1
    3e9c:	405402b3          	sub	t0,s0,t0
    3ea0:	ceb2b823          	sd	a1,-784(t0) # cf0 <.LBB77_3+0xa44>
    3ea4:	01f80583          	lb	a1,31(a6)
    3ea8:	00001837          	lui	a6,0x1
    3eac:	41040833          	sub	a6,s0,a6
    3eb0:	ceb83023          	sd	a1,-800(a6) # ce0 <.LBB77_3+0xa34>
    3eb4:	00050583          	lb	a1,0(a0)
    3eb8:	00001837          	lui	a6,0x1
    3ebc:	41040833          	sub	a6,s0,a6
    3ec0:	f0b83823          	sd	a1,-240(a6) # f10 <.LBB77_4+0x10>
    3ec4:	00150583          	lb	a1,1(a0)
    3ec8:	00001837          	lui	a6,0x1
    3ecc:	41040833          	sub	a6,s0,a6
    3ed0:	eeb83c23          	sd	a1,-264(a6) # ef8 <.LBB77_3+0xc4c>
    3ed4:	00250583          	lb	a1,2(a0)
    3ed8:	00001837          	lui	a6,0x1
    3edc:	41040833          	sub	a6,s0,a6
    3ee0:	eeb83423          	sd	a1,-280(a6) # ee8 <.LBB77_3+0xc3c>
    3ee4:	00350583          	lb	a1,3(a0)
    3ee8:	00001837          	lui	a6,0x1
    3eec:	41040833          	sub	a6,s0,a6
    3ef0:	eeb83023          	sd	a1,-288(a6) # ee0 <.LBB77_3+0xc34>
    3ef4:	00450583          	lb	a1,4(a0)
    3ef8:	00001837          	lui	a6,0x1
    3efc:	41040833          	sub	a6,s0,a6
    3f00:	ecb83c23          	sd	a1,-296(a6) # ed8 <.LBB77_3+0xc2c>
    3f04:	00550583          	lb	a1,5(a0)
    3f08:	00001837          	lui	a6,0x1
    3f0c:	41040833          	sub	a6,s0,a6
    3f10:	ecb83823          	sd	a1,-304(a6) # ed0 <.LBB77_3+0xc24>
    3f14:	00650583          	lb	a1,6(a0)
    3f18:	00001837          	lui	a6,0x1
    3f1c:	41040833          	sub	a6,s0,a6
    3f20:	ecb83023          	sd	a1,-320(a6) # ec0 <.LBB77_3+0xc14>
    3f24:	00750583          	lb	a1,7(a0)
    3f28:	00001837          	lui	a6,0x1
    3f2c:	41040833          	sub	a6,s0,a6
    3f30:	eab83c23          	sd	a1,-328(a6) # eb8 <.LBB77_3+0xc0c>
    3f34:	00850583          	lb	a1,8(a0)
    3f38:	00001837          	lui	a6,0x1
    3f3c:	41040833          	sub	a6,s0,a6
    3f40:	eab83823          	sd	a1,-336(a6) # eb0 <.LBB77_3+0xc04>
    3f44:	00950583          	lb	a1,9(a0)
    3f48:	00001837          	lui	a6,0x1
    3f4c:	41040833          	sub	a6,s0,a6
    3f50:	eab83423          	sd	a1,-344(a6) # ea8 <.LBB77_3+0xbfc>
    3f54:	00a50583          	lb	a1,10(a0)
    3f58:	00001837          	lui	a6,0x1
    3f5c:	41040833          	sub	a6,s0,a6
    3f60:	eab83023          	sd	a1,-352(a6) # ea0 <.LBB77_3+0xbf4>
    3f64:	00b50583          	lb	a1,11(a0)
    3f68:	00001837          	lui	a6,0x1
    3f6c:	41040833          	sub	a6,s0,a6
    3f70:	e8b83c23          	sd	a1,-360(a6) # e98 <.LBB77_3+0xbec>
    3f74:	00c50583          	lb	a1,12(a0)
    3f78:	00001837          	lui	a6,0x1
    3f7c:	41040833          	sub	a6,s0,a6
    3f80:	e8b83823          	sd	a1,-368(a6) # e90 <.LBB77_3+0xbe4>
    3f84:	00d50583          	lb	a1,13(a0)
    3f88:	00001837          	lui	a6,0x1
    3f8c:	41040833          	sub	a6,s0,a6
    3f90:	e8b83423          	sd	a1,-376(a6) # e88 <.LBB77_3+0xbdc>
    3f94:	00e50583          	lb	a1,14(a0)
    3f98:	00001837          	lui	a6,0x1
    3f9c:	41040833          	sub	a6,s0,a6
    3fa0:	e8b83023          	sd	a1,-384(a6) # e80 <.LBB77_3+0xbd4>
    3fa4:	00f50583          	lb	a1,15(a0)
    3fa8:	00001837          	lui	a6,0x1
    3fac:	41040833          	sub	a6,s0,a6
    3fb0:	e6b83c23          	sd	a1,-392(a6) # e78 <.LBB77_3+0xbcc>
    3fb4:	01050583          	lb	a1,16(a0)
    3fb8:	00001837          	lui	a6,0x1
    3fbc:	41040833          	sub	a6,s0,a6
    3fc0:	e6b83823          	sd	a1,-400(a6) # e70 <.LBB77_3+0xbc4>
    3fc4:	01150583          	lb	a1,17(a0)
    3fc8:	00001837          	lui	a6,0x1
    3fcc:	41040833          	sub	a6,s0,a6
    3fd0:	e6b83423          	sd	a1,-408(a6) # e68 <.LBB77_3+0xbbc>
    3fd4:	01250583          	lb	a1,18(a0)
    3fd8:	00001837          	lui	a6,0x1
    3fdc:	41040833          	sub	a6,s0,a6
    3fe0:	e6b83023          	sd	a1,-416(a6) # e60 <.LBB77_3+0xbb4>
    3fe4:	01e68583          	lb	a1,30(a3)
    3fe8:	00001837          	lui	a6,0x1
    3fec:	41040833          	sub	a6,s0,a6
    3ff0:	eeb83823          	sd	a1,-272(a6) # ef0 <.LBB77_3+0xc44>
    3ff4:	01d68583          	lb	a1,29(a3)
    3ff8:	00001837          	lui	a6,0x1
    3ffc:	41040833          	sub	a6,s0,a6
    4000:	f0b83023          	sd	a1,-256(a6) # f00 <.LBB77_4>
    4004:	01c68583          	lb	a1,28(a3)
    4008:	00001837          	lui	a6,0x1
    400c:	41040833          	sub	a6,s0,a6
    4010:	f0b83423          	sd	a1,-248(a6) # f08 <.LBB77_4+0x8>
    4014:	01b68583          	lb	a1,27(a3)
    4018:	00001837          	lui	a6,0x1
    401c:	41040833          	sub	a6,s0,a6
    4020:	f0b83c23          	sd	a1,-232(a6) # f18 <.LBB77_4+0x18>
    4024:	01a68583          	lb	a1,26(a3)
    4028:	00001837          	lui	a6,0x1
    402c:	41040833          	sub	a6,s0,a6
    4030:	f2b83023          	sd	a1,-224(a6) # f20 <.LBB77_4+0x20>
    4034:	01968583          	lb	a1,25(a3)
    4038:	00001837          	lui	a6,0x1
    403c:	41040833          	sub	a6,s0,a6
    4040:	f2b83423          	sd	a1,-216(a6) # f28 <.LBB77_4+0x28>
    4044:	01868583          	lb	a1,24(a3)
    4048:	00001837          	lui	a6,0x1
    404c:	41040833          	sub	a6,s0,a6
    4050:	f2b83823          	sd	a1,-208(a6) # f30 <.LBB77_4+0x30>
    4054:	01768583          	lb	a1,23(a3)
    4058:	00001837          	lui	a6,0x1
    405c:	41040833          	sub	a6,s0,a6
    4060:	f2b83c23          	sd	a1,-200(a6) # f38 <.LBB77_4+0x38>
    4064:	01668583          	lb	a1,22(a3)
    4068:	00001837          	lui	a6,0x1
    406c:	41040833          	sub	a6,s0,a6
    4070:	f4b83023          	sd	a1,-192(a6) # f40 <.LBB77_4+0x40>
    4074:	01568583          	lb	a1,21(a3)
    4078:	00001837          	lui	a6,0x1
    407c:	41040833          	sub	a6,s0,a6
    4080:	f4b83423          	sd	a1,-184(a6) # f48 <.LBB77_4+0x48>
    4084:	01468583          	lb	a1,20(a3)
    4088:	00001837          	lui	a6,0x1
    408c:	41040833          	sub	a6,s0,a6
    4090:	f4b83823          	sd	a1,-176(a6) # f50 <.LBB77_4+0x50>
    4094:	01368583          	lb	a1,19(a3)
    4098:	00001837          	lui	a6,0x1
    409c:	41040833          	sub	a6,s0,a6
    40a0:	f4b83c23          	sd	a1,-168(a6) # f58 <.LBB77_4+0x58>
    40a4:	01268583          	lb	a1,18(a3)
    40a8:	00001837          	lui	a6,0x1
    40ac:	41040833          	sub	a6,s0,a6
    40b0:	f6b83023          	sd	a1,-160(a6) # f60 <.LBB77_4+0x60>
    40b4:	01168583          	lb	a1,17(a3)
    40b8:	00001837          	lui	a6,0x1
    40bc:	41040833          	sub	a6,s0,a6
    40c0:	f6b83423          	sd	a1,-152(a6) # f68 <.LBB77_4+0x68>
    40c4:	01068583          	lb	a1,16(a3)
    40c8:	00001837          	lui	a6,0x1
    40cc:	41040833          	sub	a6,s0,a6
    40d0:	f6b83823          	sd	a1,-144(a6) # f70 <.LBB77_4+0x70>
    40d4:	00f68583          	lb	a1,15(a3)
    40d8:	00001837          	lui	a6,0x1
    40dc:	41040833          	sub	a6,s0,a6
    40e0:	f6b83c23          	sd	a1,-136(a6) # f78 <.LBB77_4+0x78>
    40e4:	00e68583          	lb	a1,14(a3)
    40e8:	00001837          	lui	a6,0x1
    40ec:	41040833          	sub	a6,s0,a6
    40f0:	f8b83023          	sd	a1,-128(a6) # f80 <.LBB77_4+0x80>
    40f4:	00d68583          	lb	a1,13(a3)
    40f8:	00001837          	lui	a6,0x1
    40fc:	41040833          	sub	a6,s0,a6
    4100:	f8b83423          	sd	a1,-120(a6) # f88 <.LBB77_4+0x88>
    4104:	00c68583          	lb	a1,12(a3)
    4108:	00001837          	lui	a6,0x1
    410c:	41040833          	sub	a6,s0,a6
    4110:	f8b83823          	sd	a1,-112(a6) # f90 <.LBB77_4+0x90>
    4114:	00b68583          	lb	a1,11(a3)
    4118:	00001837          	lui	a6,0x1
    411c:	41040833          	sub	a6,s0,a6
    4120:	f8b83c23          	sd	a1,-104(a6) # f98 <.LBB77_4+0x98>
    4124:	00a68583          	lb	a1,10(a3)
    4128:	00001837          	lui	a6,0x1
    412c:	41040833          	sub	a6,s0,a6
    4130:	fab83023          	sd	a1,-96(a6) # fa0 <.LBB77_4+0xa0>
    4134:	00968583          	lb	a1,9(a3)
    4138:	00001837          	lui	a6,0x1
    413c:	41040833          	sub	a6,s0,a6
    4140:	fab83423          	sd	a1,-88(a6) # fa8 <.LBB77_4+0xa8>
    4144:	00868583          	lb	a1,8(a3)
    4148:	00001837          	lui	a6,0x1
    414c:	41040833          	sub	a6,s0,a6
    4150:	fab83823          	sd	a1,-80(a6) # fb0 <.LBB77_4+0xb0>
    4154:	00768583          	lb	a1,7(a3)
    4158:	00001837          	lui	a6,0x1
    415c:	41040833          	sub	a6,s0,a6
    4160:	fab83c23          	sd	a1,-72(a6) # fb8 <.LBB77_4+0xb8>
    4164:	00668583          	lb	a1,6(a3)
    4168:	00001837          	lui	a6,0x1
    416c:	41040833          	sub	a6,s0,a6
    4170:	fcb83023          	sd	a1,-64(a6) # fc0 <.LBB77_4+0xc0>
    4174:	00568583          	lb	a1,5(a3)
    4178:	00001837          	lui	a6,0x1
    417c:	41040833          	sub	a6,s0,a6
    4180:	fcb83423          	sd	a1,-56(a6) # fc8 <.LBB77_4+0xc8>
    4184:	00468583          	lb	a1,4(a3)
    4188:	00001837          	lui	a6,0x1
    418c:	41040833          	sub	a6,s0,a6
    4190:	fcb83823          	sd	a1,-48(a6) # fd0 <.LBB77_4+0xd0>
    4194:	00368583          	lb	a1,3(a3)
    4198:	00001837          	lui	a6,0x1
    419c:	41040833          	sub	a6,s0,a6
    41a0:	fcb83c23          	sd	a1,-40(a6) # fd8 <.LBB77_4+0xd8>
    41a4:	00268583          	lb	a1,2(a3)
    41a8:	00001837          	lui	a6,0x1
    41ac:	41040833          	sub	a6,s0,a6
    41b0:	feb83023          	sd	a1,-32(a6) # fe0 <.LBB77_4+0xe0>
    41b4:	00168583          	lb	a1,1(a3)
    41b8:	00001837          	lui	a6,0x1
    41bc:	41040833          	sub	a6,s0,a6
    41c0:	feb83423          	sd	a1,-24(a6) # fe8 <.LBB77_4+0xe8>
    41c4:	00068583          	lb	a1,0(a3)
    41c8:	00001837          	lui	a6,0x1
    41cc:	41040833          	sub	a6,s0,a6
    41d0:	feb83823          	sd	a1,-16(a6) # ff0 <.LBB77_4+0xf0>
    41d4:	01f50583          	lb	a1,31(a0)
    41d8:	00001837          	lui	a6,0x1
    41dc:	41040833          	sub	a6,s0,a6
    41e0:	dcb83023          	sd	a1,-576(a6) # dc0 <.LBB77_3+0xb14>
    41e4:	01e50583          	lb	a1,30(a0)
    41e8:	00001837          	lui	a6,0x1
    41ec:	41040833          	sub	a6,s0,a6
    41f0:	dcb83823          	sd	a1,-560(a6) # dd0 <.LBB77_3+0xb24>
    41f4:	01d50583          	lb	a1,29(a0)
    41f8:	00001837          	lui	a6,0x1
    41fc:	41040833          	sub	a6,s0,a6
    4200:	deb83023          	sd	a1,-544(a6) # de0 <.LBB77_3+0xb34>
    4204:	01c50583          	lb	a1,28(a0)
    4208:	00001837          	lui	a6,0x1
    420c:	41040833          	sub	a6,s0,a6
    4210:	deb83423          	sd	a1,-536(a6) # de8 <.LBB77_3+0xb3c>
    4214:	01b50583          	lb	a1,27(a0)
    4218:	00001837          	lui	a6,0x1
    421c:	41040833          	sub	a6,s0,a6
    4220:	deb83c23          	sd	a1,-520(a6) # df8 <.LBB77_3+0xb4c>
    4224:	01a50583          	lb	a1,26(a0)
    4228:	00001837          	lui	a6,0x1
    422c:	41040833          	sub	a6,s0,a6
    4230:	e0b83423          	sd	a1,-504(a6) # e08 <.LBB77_3+0xb5c>
    4234:	01950583          	lb	a1,25(a0)
    4238:	00001837          	lui	a6,0x1
    423c:	41040833          	sub	a6,s0,a6
    4240:	e0b83c23          	sd	a1,-488(a6) # e18 <.LBB77_3+0xb6c>
    4244:	01850583          	lb	a1,24(a0)
    4248:	00001837          	lui	a6,0x1
    424c:	41040833          	sub	a6,s0,a6
    4250:	e2b83423          	sd	a1,-472(a6) # e28 <.LBB77_3+0xb7c>
    4254:	01750583          	lb	a1,23(a0)
    4258:	00001837          	lui	a6,0x1
    425c:	41040833          	sub	a6,s0,a6
    4260:	e2b83c23          	sd	a1,-456(a6) # e38 <.LBB77_3+0xb8c>
    4264:	01650583          	lb	a1,22(a0)
    4268:	00001837          	lui	a6,0x1
    426c:	41040833          	sub	a6,s0,a6
    4270:	e4b83023          	sd	a1,-448(a6) # e40 <.LBB77_3+0xb94>
    4274:	01550583          	lb	a1,21(a0)
    4278:	00001837          	lui	a6,0x1
    427c:	41040833          	sub	a6,s0,a6
    4280:	e4b83423          	sd	a1,-440(a6) # e48 <.LBB77_3+0xb9c>
    4284:	01450583          	lb	a1,20(a0)
    4288:	00001837          	lui	a6,0x1
    428c:	41040833          	sub	a6,s0,a6
    4290:	e4b83823          	sd	a1,-432(a6) # e50 <.LBB77_3+0xba4>
    4294:	01350503          	lb	a0,19(a0)
    4298:	000015b7          	lui	a1,0x1
    429c:	40b405b3          	sub	a1,s0,a1
    42a0:	e4a5bc23          	sd	a0,-424(a1) # e58 <.LBB77_3+0xbac>
    42a4:	01f68503          	lb	a0,31(a3)
    42a8:	000015b7          	lui	a1,0x1
    42ac:	40b405b3          	sub	a1,s0,a1
    42b0:	eca5b423          	sd	a0,-312(a1) # ec8 <.LBB77_3+0xc1c>
    42b4:	00001537          	lui	a0,0x1
    42b8:	40a40533          	sub	a0,s0,a0
    42bc:	04053283          	ld	t0,64(a0) # 1040 <.LBB77_4+0x140>
    42c0:	0042a583          	lw	a1,4(t0)
    42c4:	0082a503          	lw	a0,8(t0)
    42c8:	00c2a683          	lw	a3,12(t0)
    42cc:	0102a803          	lw	a6,16(t0)
    42d0:	00001fb7          	lui	t6,0x1
    42d4:	41f40fb3          	sub	t6,s0,t6
    42d8:	5b0fb023          	sd	a6,1440(t6) # 15a0 <.LBB77_5+0xd4>
    42dc:	0142a803          	lw	a6,20(t0)
    42e0:	00001fb7          	lui	t6,0x1
    42e4:	41f40fb3          	sub	t6,s0,t6
    42e8:	590fb823          	sd	a6,1424(t6) # 1590 <.LBB77_5+0xc4>
    42ec:	0182a803          	lw	a6,24(t0)
    42f0:	00001fb7          	lui	t6,0x1
    42f4:	41f40fb3          	sub	t6,s0,t6
    42f8:	590fb023          	sd	a6,1408(t6) # 1580 <.LBB77_5+0xb4>
    42fc:	01c2a803          	lw	a6,28(t0)
    4300:	000012b7          	lui	t0,0x1
    4304:	405402b3          	sub	t0,s0,t0
    4308:	5d02b823          	sd	a6,1488(t0) # 15d0 <.LBB77_5+0x104>
    430c:	40000fb7          	lui	t6,0x40000
    4310:	00001837          	lui	a6,0x1
    4314:	41040833          	sub	a6,s0,a6
    4318:	68883283          	ld	t0,1672(a6) # 1688 <.LBB77_5+0x1bc>
    431c:	0002d463          	bgez	t0,4324 <.LBB77_26>
    4320:	c0000fb7          	lui	t6,0xc0000

0000000000004324 <.LBB77_26>:
    4324:	007d9d93          	slli	s11,s11,0x7
    4328:	f8843283          	ld	t0,-120(s0)
    432c:	00001837          	lui	a6,0x1
    4330:	41040833          	sub	a6,s0,a6
    4334:	6c883803          	ld	a6,1736(a6) # 16c8 <.LBB77_5+0x1fc>
    4338:	005802b3          	add	t0,a6,t0
    433c:	00001837          	lui	a6,0x1
    4340:	41040833          	sub	a6,s0,a6
    4344:	6db83423          	sd	s11,1736(a6) # 16c8 <.LBB77_5+0x1fc>
    4348:	01b282b3          	add	t0,t0,s11
    434c:	fff70937          	lui	s2,0xfff70
    4350:	412b093b          	subw	s2,s6,s2
    4354:	412282bb          	subw	t0,t0,s2
    4358:	40000937          	lui	s2,0x40000
    435c:	00001837          	lui	a6,0x1
    4360:	41040833          	sub	a6,s0,a6
    4364:	32583423          	sd	t0,808(a6) # 1328 <.LBB77_4+0x428>
    4368:	00001837          	lui	a6,0x1
    436c:	41040833          	sub	a6,s0,a6
    4370:	75883a03          	ld	s4,1880(a6) # 1758 <.LBB77_5+0x28c>
    4374:	00001837          	lui	a6,0x1
    4378:	41040833          	sub	a6,s0,a6
    437c:	75083a83          	ld	s5,1872(a6) # 1750 <.LBB77_5+0x284>
    4380:	00001837          	lui	a6,0x1
    4384:	41040833          	sub	a6,s0,a6
    4388:	6d083803          	ld	a6,1744(a6) # 16d0 <.LBB77_5+0x204>
    438c:	0002d463          	bgez	t0,4394 <.LBB77_28>
    4390:	c0000937          	lui	s2,0xc0000

0000000000004394 <.LBB77_28>:
    4394:	000012b7          	lui	t0,0x1
    4398:	405402b3          	sub	t0,s0,t0
    439c:	3322b023          	sd	s2,800(t0) # 1320 <.LBB77_4+0x420>
    43a0:	00709093          	slli	ra,ra,0x7
    43a4:	f7843283          	ld	t0,-136(s0)
    43a8:	005802b3          	add	t0,a6,t0
    43ac:	00001837          	lui	a6,0x1
    43b0:	41040833          	sub	a6,s0,a6
    43b4:	6c183823          	sd	ra,1744(a6) # 16d0 <.LBB77_5+0x204>
    43b8:	001282b3          	add	t0,t0,ra
    43bc:	fff700b7          	lui	ra,0xfff70
    43c0:	401b093b          	subw	s2,s6,ra
    43c4:	412282bb          	subw	t0,t0,s2
    43c8:	40000937          	lui	s2,0x40000
    43cc:	00001837          	lui	a6,0x1
    43d0:	41040833          	sub	a6,s0,a6
    43d4:	2a583423          	sd	t0,680(a6) # 12a8 <.LBB77_4+0x3a8>
    43d8:	87043d83          	ld	s11,-1936(s0)
    43dc:	0002d463          	bgez	t0,43e4 <.LBB77_30>
    43e0:	c0000937          	lui	s2,0xc0000

00000000000043e4 <.LBB77_30>:
    43e4:	00001837          	lui	a6,0x1
    43e8:	41040833          	sub	a6,s0,a6
    43ec:	29283c23          	sd	s2,664(a6) # 1298 <.LBB77_4+0x398>
    43f0:	007c9813          	slli	a6,s9,0x7
    43f4:	f7043283          	ld	t0,-144(s0)
    43f8:	00001937          	lui	s2,0x1
    43fc:	41240933          	sub	s2,s0,s2
    4400:	6d893903          	ld	s2,1752(s2) # 16d8 <.LBB77_5+0x20c>
    4404:	005902b3          	add	t0,s2,t0
    4408:	00001937          	lui	s2,0x1
    440c:	41240933          	sub	s2,s0,s2
    4410:	6d093c23          	sd	a6,1752(s2) # 16d8 <.LBB77_5+0x20c>
    4414:	010282b3          	add	t0,t0,a6
    4418:	401b093b          	subw	s2,s6,ra
    441c:	412282bb          	subw	t0,t0,s2
    4420:	40000937          	lui	s2,0x40000
    4424:	00001837          	lui	a6,0x1
    4428:	41040833          	sub	a6,s0,a6
    442c:	22583423          	sd	t0,552(a6) # 1228 <.LBB77_4+0x328>
    4430:	0002d463          	bgez	t0,4438 <.LBB77_32>
    4434:	c0000937          	lui	s2,0xc0000

0000000000004438 <.LBB77_32>:
    4438:	00001837          	lui	a6,0x1
    443c:	41040833          	sub	a6,s0,a6
    4440:	21283823          	sd	s2,528(a6) # 1210 <.LBB77_4+0x310>
    4444:	007c1813          	slli	a6,s8,0x7
    4448:	f6843283          	ld	t0,-152(s0)
    444c:	00001937          	lui	s2,0x1
    4450:	41240933          	sub	s2,s0,s2
    4454:	6e093903          	ld	s2,1760(s2) # 16e0 <.LBB77_5+0x214>
    4458:	005902b3          	add	t0,s2,t0
    445c:	00001937          	lui	s2,0x1
    4460:	41240933          	sub	s2,s0,s2
    4464:	6f093023          	sd	a6,1760(s2) # 16e0 <.LBB77_5+0x214>
    4468:	010282b3          	add	t0,t0,a6
    446c:	401b093b          	subw	s2,s6,ra
    4470:	412282bb          	subw	t0,t0,s2
    4474:	40000937          	lui	s2,0x40000
    4478:	00001837          	lui	a6,0x1
    447c:	41040833          	sub	a6,s0,a6
    4480:	1a583023          	sd	t0,416(a6) # 11a0 <.LBB77_4+0x2a0>
    4484:	00001837          	lui	a6,0x1
    4488:	41040833          	sub	a6,s0,a6
    448c:	70883c83          	ld	s9,1800(a6) # 1708 <.LBB77_5+0x23c>
    4490:	0002d463          	bgez	t0,4498 <.LBB77_34>
    4494:	c0000937          	lui	s2,0xc0000

0000000000004498 <.LBB77_34>:
    4498:	00001837          	lui	a6,0x1
    449c:	41040833          	sub	a6,s0,a6
    44a0:	19283023          	sd	s2,384(a6) # 1180 <.LBB77_4+0x280>
    44a4:	007b9b93          	slli	s7,s7,0x7
    44a8:	f6043283          	ld	t0,-160(s0)
    44ac:	00001837          	lui	a6,0x1
    44b0:	41040833          	sub	a6,s0,a6
    44b4:	6e883803          	ld	a6,1768(a6) # 16e8 <.LBB77_5+0x21c>
    44b8:	005802b3          	add	t0,a6,t0
    44bc:	00001837          	lui	a6,0x1
    44c0:	41040833          	sub	a6,s0,a6
    44c4:	6f783423          	sd	s7,1768(a6) # 16e8 <.LBB77_5+0x21c>
    44c8:	017282b3          	add	t0,t0,s7
    44cc:	401b093b          	subw	s2,s6,ra
    44d0:	412282bb          	subw	t0,t0,s2
    44d4:	40000937          	lui	s2,0x40000
    44d8:	00001837          	lui	a6,0x1
    44dc:	41040833          	sub	a6,s0,a6
    44e0:	10583823          	sd	t0,272(a6) # 1110 <.LBB77_4+0x210>
    44e4:	00001837          	lui	a6,0x1
    44e8:	41040833          	sub	a6,s0,a6
    44ec:	71083c03          	ld	s8,1808(a6) # 1710 <.LBB77_5+0x244>
    44f0:	00001837          	lui	a6,0x1
    44f4:	41040833          	sub	a6,s0,a6
    44f8:	6f883803          	ld	a6,1784(a6) # 16f8 <.LBB77_5+0x22c>
    44fc:	0002d463          	bgez	t0,4504 <.LBB77_36>
    4500:	c0000937          	lui	s2,0xc0000

0000000000004504 <.LBB77_36>:
    4504:	007e9e93          	slli	t4,t4,0x7
    4508:	f5843283          	ld	t0,-168(s0)
    450c:	00001bb7          	lui	s7,0x1
    4510:	41740bb3          	sub	s7,s0,s7
    4514:	6f0bbb83          	ld	s7,1776(s7) # 16f0 <.LBB77_5+0x224>
    4518:	005b82b3          	add	t0,s7,t0
    451c:	00001bb7          	lui	s7,0x1
    4520:	41740bb3          	sub	s7,s0,s7
    4524:	6fdbb823          	sd	t4,1776(s7) # 16f0 <.LBB77_5+0x224>
    4528:	01d282b3          	add	t0,t0,t4
    452c:	401b0ebb          	subw	t4,s6,ra
    4530:	41d282bb          	subw	t0,t0,t4
    4534:	40000eb7          	lui	t4,0x40000
    4538:	00001bb7          	lui	s7,0x1
    453c:	41740bb3          	sub	s7,s0,s7
    4540:	085bb023          	sd	t0,128(s7) # 1080 <.LBB77_4+0x180>
    4544:	00001bb7          	lui	s7,0x1
    4548:	41740bb3          	sub	s7,s0,s7
    454c:	798bbb83          	ld	s7,1944(s7) # 1798 <.LBB77_5+0x2cc>
    4550:	0002d463          	bgez	t0,4558 <.LBB77_38>
    4554:	c0000eb7          	lui	t4,0xc0000

0000000000004558 <.LBB77_38>:
    4558:	f8a43823          	sd	a0,-112(s0)
    455c:	00001537          	lui	a0,0x1
    4560:	40a40533          	sub	a0,s0,a0
    4564:	07d53023          	sd	t4,96(a0) # 1060 <.LBB77_4+0x160>
    4568:	00731313          	slli	t1,t1,0x7
    456c:	f5043283          	ld	t0,-176(s0)
    4570:	005802b3          	add	t0,a6,t0
    4574:	00030e93          	mv	t4,t1
    4578:	006282b3          	add	t0,t0,t1
    457c:	401b033b          	subw	t1,s6,ra
    4580:	406282bb          	subw	t0,t0,t1
    4584:	40000337          	lui	t1,0x40000
    4588:	97043803          	ld	a6,-1680(s0)
    458c:	00002537          	lui	a0,0x2
    4590:	40a40533          	sub	a0,s0,a0
    4594:	7a553423          	sd	t0,1960(a0) # 27a8 <.LBB77_5+0x12dc>
    4598:	f9043503          	ld	a0,-112(s0)
    459c:	0002d463          	bgez	t0,45a4 <.LBB77_40>
    45a0:	c0000337          	lui	t1,0xc0000

00000000000045a4 <.LBB77_40>:
    45a4:	f8a43823          	sd	a0,-112(s0)
    45a8:	00002537          	lui	a0,0x2
    45ac:	40a40533          	sub	a0,s0,a0
    45b0:	78653423          	sd	t1,1928(a0) # 2788 <.LBB77_5+0x12bc>
    45b4:	00779293          	slli	t0,a5,0x7
    45b8:	f4843783          	ld	a5,-184(s0)
    45bc:	00001537          	lui	a0,0x1
    45c0:	40a40533          	sub	a0,s0,a0
    45c4:	70053303          	ld	t1,1792(a0) # 1700 <.LBB77_5+0x234>
    45c8:	00f307b3          	add	a5,t1,a5
    45cc:	00028313          	mv	t1,t0
    45d0:	005787b3          	add	a5,a5,t0
    45d4:	401b02bb          	subw	t0,s6,ra
    45d8:	405787bb          	subw	a5,a5,t0
    45dc:	400002b7          	lui	t0,0x40000
    45e0:	00002537          	lui	a0,0x2
    45e4:	40a40533          	sub	a0,s0,a0
    45e8:	70f53c23          	sd	a5,1816(a0) # 2718 <.LBB77_5+0x124c>
    45ec:	f9043503          	ld	a0,-112(s0)
    45f0:	0007d463          	bgez	a5,45f8 <.LBB77_42>
    45f4:	c00002b7          	lui	t0,0xc0000

00000000000045f8 <.LBB77_42>:
    45f8:	00771793          	slli	a5,a4,0x7
    45fc:	f4043703          	ld	a4,-192(s0)
    4600:	00ec8733          	add	a4,s9,a4
    4604:	00078c93          	mv	s9,a5
    4608:	00f70733          	add	a4,a4,a5
    460c:	401b07bb          	subw	a5,s6,ra
    4610:	40f7073b          	subw	a4,a4,a5
    4614:	400007b7          	lui	a5,0x40000
    4618:	f8a43823          	sd	a0,-112(s0)
    461c:	00002537          	lui	a0,0x2
    4620:	40a40533          	sub	a0,s0,a0
    4624:	68e53823          	sd	a4,1680(a0) # 2690 <.LBB77_5+0x11c4>
    4628:	f9043503          	ld	a0,-112(s0)
    462c:	00075463          	bgez	a4,4634 <.LBB77_44>
    4630:	c00007b7          	lui	a5,0xc0000

0000000000004634 <.LBB77_44>:
    4634:	00002737          	lui	a4,0x2
    4638:	40e40733          	sub	a4,s0,a4
    463c:	68f73023          	sd	a5,1664(a4) # 2680 <.LBB77_5+0x11b4>
    4640:	00789893          	slli	a7,a7,0x7
    4644:	f3843703          	ld	a4,-200(s0)
    4648:	00ec0733          	add	a4,s8,a4
    464c:	00088c13          	mv	s8,a7
    4650:	01170733          	add	a4,a4,a7
    4654:	401b07bb          	subw	a5,s6,ra
    4658:	40f7073b          	subw	a4,a4,a5
    465c:	400007b7          	lui	a5,0x40000
    4660:	000028b7          	lui	a7,0x2
    4664:	411408b3          	sub	a7,s0,a7
    4668:	60e8b823          	sd	a4,1552(a7) # 2610 <.LBB77_5+0x1144>
    466c:	00075463          	bgez	a4,4674 <.LBB77_46>
    4670:	c00007b7          	lui	a5,0xc0000

0000000000004674 <.LBB77_46>:
    4674:	f8a43823          	sd	a0,-112(s0)
    4678:	00002537          	lui	a0,0x2
    467c:	40a40533          	sub	a0,s0,a0
    4680:	60f53023          	sd	a5,1536(a0) # 2600 <.LBB77_5+0x1134>
    4684:	00739393          	slli	t2,t2,0x7
    4688:	f3043703          	ld	a4,-208(s0)
    468c:	00001537          	lui	a0,0x1
    4690:	40a40533          	sub	a0,s0,a0
    4694:	71853783          	ld	a5,1816(a0) # 1718 <.LBB77_5+0x24c>
    4698:	00e78733          	add	a4,a5,a4
    469c:	00770733          	add	a4,a4,t2
    46a0:	401b07bb          	subw	a5,s6,ra
    46a4:	40f7073b          	subw	a4,a4,a5
    46a8:	400007b7          	lui	a5,0x40000
    46ac:	a6843883          	ld	a7,-1432(s0)
    46b0:	00002537          	lui	a0,0x2
    46b4:	40a40533          	sub	a0,s0,a0
    46b8:	58e53c23          	sd	a4,1432(a0) # 2598 <.LBB77_5+0x10cc>
    46bc:	f9043503          	ld	a0,-112(s0)
    46c0:	00075463          	bgez	a4,46c8 <.LBB77_48>
    46c4:	c00007b7          	lui	a5,0xc0000

00000000000046c8 <.LBB77_48>:
    46c8:	f8a43823          	sd	a0,-112(s0)
    46cc:	00002537          	lui	a0,0x2
    46d0:	40a40533          	sub	a0,s0,a0
    46d4:	58f53823          	sd	a5,1424(a0) # 2590 <.LBB77_5+0x10c4>
    46d8:	00749493          	slli	s1,s1,0x7
    46dc:	f2843703          	ld	a4,-216(s0)
    46e0:	00001537          	lui	a0,0x1
    46e4:	40a40533          	sub	a0,s0,a0
    46e8:	72053783          	ld	a5,1824(a0) # 1720 <.LBB77_5+0x254>
    46ec:	00e78733          	add	a4,a5,a4
    46f0:	00970733          	add	a4,a4,s1
    46f4:	401b07bb          	subw	a5,s6,ra
    46f8:	40f7073b          	subw	a4,a4,a5
    46fc:	400007b7          	lui	a5,0x40000
    4700:	00002537          	lui	a0,0x2
    4704:	40a40533          	sub	a0,s0,a0
    4708:	52e53023          	sd	a4,1312(a0) # 2520 <.LBB77_5+0x1054>
    470c:	f9043503          	ld	a0,-112(s0)
    4710:	00075463          	bgez	a4,4718 <.LBB77_50>
    4714:	c00007b7          	lui	a5,0xc0000

0000000000004718 <.LBB77_50>:
    4718:	f8a43823          	sd	a0,-112(s0)
    471c:	00002537          	lui	a0,0x2
    4720:	40a40533          	sub	a0,s0,a0
    4724:	50f53c23          	sd	a5,1304(a0) # 2518 <.LBB77_5+0x104c>
    4728:	007e1e13          	slli	t3,t3,0x7
    472c:	f2043703          	ld	a4,-224(s0)
    4730:	00001537          	lui	a0,0x1
    4734:	40a40533          	sub	a0,s0,a0
    4738:	72853783          	ld	a5,1832(a0) # 1728 <.LBB77_5+0x25c>
    473c:	00e78733          	add	a4,a5,a4
    4740:	01c70733          	add	a4,a4,t3
    4744:	401b07bb          	subw	a5,s6,ra
    4748:	40f7073b          	subw	a4,a4,a5
    474c:	400007b7          	lui	a5,0x40000
    4750:	00002537          	lui	a0,0x2
    4754:	40a40533          	sub	a0,s0,a0
    4758:	4ae53423          	sd	a4,1192(a0) # 24a8 <.LBB77_5+0xfdc>
    475c:	f9043503          	ld	a0,-112(s0)
    4760:	00075463          	bgez	a4,4768 <.LBB77_52>
    4764:	c00007b7          	lui	a5,0xc0000

0000000000004768 <.LBB77_52>:
    4768:	f8a43823          	sd	a0,-112(s0)
    476c:	00002537          	lui	a0,0x2
    4770:	40a40533          	sub	a0,s0,a0
    4774:	4af53023          	sd	a5,1184(a0) # 24a0 <.LBB77_5+0xfd4>
    4778:	00799993          	slli	s3,s3,0x7
    477c:	f1843703          	ld	a4,-232(s0)
    4780:	00001537          	lui	a0,0x1
    4784:	40a40533          	sub	a0,s0,a0
    4788:	73053783          	ld	a5,1840(a0) # 1730 <.LBB77_5+0x264>
    478c:	00e78733          	add	a4,a5,a4
    4790:	01370733          	add	a4,a4,s3
    4794:	401b07bb          	subw	a5,s6,ra
    4798:	40f7073b          	subw	a4,a4,a5
    479c:	400007b7          	lui	a5,0x40000
    47a0:	00002537          	lui	a0,0x2
    47a4:	40a40533          	sub	a0,s0,a0
    47a8:	42e53c23          	sd	a4,1080(a0) # 2438 <.LBB77_5+0xf6c>
    47ac:	f9043503          	ld	a0,-112(s0)
    47b0:	00075463          	bgez	a4,47b8 <.LBB77_54>
    47b4:	c00007b7          	lui	a5,0xc0000

00000000000047b8 <.LBB77_54>:
    47b8:	f8a43823          	sd	a0,-112(s0)
    47bc:	00002537          	lui	a0,0x2
    47c0:	40a40533          	sub	a0,s0,a0
    47c4:	42f53823          	sd	a5,1072(a0) # 2430 <.LBB77_5+0xf64>
    47c8:	007d1d13          	slli	s10,s10,0x7
    47cc:	f1043703          	ld	a4,-240(s0)
    47d0:	00001537          	lui	a0,0x1
    47d4:	40a40533          	sub	a0,s0,a0
    47d8:	73853783          	ld	a5,1848(a0) # 1738 <.LBB77_5+0x26c>
    47dc:	00e78733          	add	a4,a5,a4
    47e0:	01a70733          	add	a4,a4,s10
    47e4:	401b07bb          	subw	a5,s6,ra
    47e8:	40f7073b          	subw	a4,a4,a5
    47ec:	400007b7          	lui	a5,0x40000
    47f0:	00002537          	lui	a0,0x2
    47f4:	40a40533          	sub	a0,s0,a0
    47f8:	3ce53423          	sd	a4,968(a0) # 23c8 <.LBB77_5+0xefc>
    47fc:	f9043503          	ld	a0,-112(s0)
    4800:	00075463          	bgez	a4,4808 <.LBB77_56>
    4804:	c00007b7          	lui	a5,0xc0000

0000000000004808 <.LBB77_56>:
    4808:	f8a43823          	sd	a0,-112(s0)
    480c:	00002537          	lui	a0,0x2
    4810:	40a40533          	sub	a0,s0,a0
    4814:	3cf53023          	sd	a5,960(a0) # 23c0 <.LBB77_5+0xef4>
    4818:	00761613          	slli	a2,a2,0x7
    481c:	ee843703          	ld	a4,-280(s0)
    4820:	00001537          	lui	a0,0x1
    4824:	40a40533          	sub	a0,s0,a0
    4828:	74053783          	ld	a5,1856(a0) # 1740 <.LBB77_5+0x274>
    482c:	00e78733          	add	a4,a5,a4
    4830:	00c70733          	add	a4,a4,a2
    4834:	401b07bb          	subw	a5,s6,ra
    4838:	40f7073b          	subw	a4,a4,a5
    483c:	400007b7          	lui	a5,0x40000
    4840:	00002537          	lui	a0,0x2
    4844:	40a40533          	sub	a0,s0,a0
    4848:	34e53c23          	sd	a4,856(a0) # 2358 <.LBB77_5+0xe8c>
    484c:	f9043503          	ld	a0,-112(s0)
    4850:	00075463          	bgez	a4,4858 <.LBB77_58>
    4854:	c00007b7          	lui	a5,0xc0000

0000000000004858 <.LBB77_58>:
    4858:	00002737          	lui	a4,0x2
    485c:	40e40733          	sub	a4,s0,a4
    4860:	34f73823          	sd	a5,848(a4) # 2350 <.LBB77_5+0xe84>
    4864:	00001737          	lui	a4,0x1
    4868:	40e40733          	sub	a4,s0,a4
    486c:	3bf73023          	sd	t6,928(a4) # 13a0 <.LBB77_4+0x4a0>
    4870:	007f1f13          	slli	t5,t5,0x7
    4874:	ee043703          	ld	a4,-288(s0)
    4878:	000017b7          	lui	a5,0x1
    487c:	40f407b3          	sub	a5,s0,a5
    4880:	7487b783          	ld	a5,1864(a5) # 1748 <.LBB77_5+0x27c>
    4884:	00e78733          	add	a4,a5,a4
    4888:	01e70733          	add	a4,a4,t5
    488c:	401b07bb          	subw	a5,s6,ra
    4890:	40f7073b          	subw	a4,a4,a5
    4894:	400007b7          	lui	a5,0x40000
    4898:	00002fb7          	lui	t6,0x2
    489c:	41f40fb3          	sub	t6,s0,t6
    48a0:	2eefb423          	sd	a4,744(t6) # 22e8 <.LBB77_5+0xe1c>
    48a4:	00075463          	bgez	a4,48ac <.LBB77_60>
    48a8:	c00007b7          	lui	a5,0xc0000

00000000000048ac <.LBB77_60>:
    48ac:	00002737          	lui	a4,0x2
    48b0:	40e40733          	sub	a4,s0,a4
    48b4:	2ef73023          	sd	a5,736(a4) # 22e0 <.LBB77_5+0xe14>
    48b8:	00001737          	lui	a4,0x1
    48bc:	40e40733          	sub	a4,s0,a4
    48c0:	5a873f83          	ld	t6,1448(a4) # 15a8 <.LBB77_5+0xdc>
    48c4:	007f9f93          	slli	t6,t6,0x7
    48c8:	ed843703          	ld	a4,-296(s0)
    48cc:	00ea8733          	add	a4,s5,a4
    48d0:	01f70733          	add	a4,a4,t6
    48d4:	401b07bb          	subw	a5,s6,ra
    48d8:	40f7073b          	subw	a4,a4,a5
    48dc:	400007b7          	lui	a5,0x40000
    48e0:	00002ab7          	lui	s5,0x2
    48e4:	41540ab3          	sub	s5,s0,s5
    48e8:	26eab823          	sd	a4,624(s5) # 2270 <.LBB77_5+0xda4>
    48ec:	00075463          	bgez	a4,48f4 <.LBB77_62>
    48f0:	c00007b7          	lui	a5,0xc0000

00000000000048f4 <.LBB77_62>:
    48f4:	00002737          	lui	a4,0x2
    48f8:	40e40733          	sub	a4,s0,a4
    48fc:	26f73423          	sd	a5,616(a4) # 2268 <.LBB77_5+0xd9c>
    4900:	00001737          	lui	a4,0x1
    4904:	40e40733          	sub	a4,s0,a4
    4908:	5b073a83          	ld	s5,1456(a4) # 15b0 <.LBB77_5+0xe4>
    490c:	007a9a93          	slli	s5,s5,0x7
    4910:	eb843703          	ld	a4,-328(s0)
    4914:	00ea0733          	add	a4,s4,a4
    4918:	01570733          	add	a4,a4,s5
    491c:	401b07bb          	subw	a5,s6,ra
    4920:	40f7073b          	subw	a4,a4,a5
    4924:	400007b7          	lui	a5,0x40000
    4928:	00002a37          	lui	s4,0x2
    492c:	41440a33          	sub	s4,s0,s4
    4930:	20ea3023          	sd	a4,512(s4) # 2200 <.LBB77_5+0xd34>
    4934:	00075463          	bgez	a4,493c <.LBB77_64>
    4938:	c00007b7          	lui	a5,0xc0000

000000000000493c <.LBB77_64>:
    493c:	00002737          	lui	a4,0x2
    4940:	40e40733          	sub	a4,s0,a4
    4944:	1ef73c23          	sd	a5,504(a4) # 21f8 <.LBB77_5+0xd2c>
    4948:	00001737          	lui	a4,0x1
    494c:	40e40733          	sub	a4,s0,a4
    4950:	0f273823          	sd	s2,240(a4) # 10f0 <.LBB77_4+0x1f0>
    4954:	00001737          	lui	a4,0x1
    4958:	40e40733          	sub	a4,s0,a4
    495c:	5b873a03          	ld	s4,1464(a4) # 15b8 <.LBB77_5+0xec>
    4960:	007a1a13          	slli	s4,s4,0x7
    4964:	ec043703          	ld	a4,-320(s0)
    4968:	000017b7          	lui	a5,0x1
    496c:	40f407b3          	sub	a5,s0,a5
    4970:	7607b783          	ld	a5,1888(a5) # 1760 <.LBB77_5+0x294>
    4974:	00e78733          	add	a4,a5,a4
    4978:	01470733          	add	a4,a4,s4
    497c:	401b07bb          	subw	a5,s6,ra
    4980:	40f7073b          	subw	a4,a4,a5
    4984:	400007b7          	lui	a5,0x40000
    4988:	00002937          	lui	s2,0x2
    498c:	41240933          	sub	s2,s0,s2
    4990:	18e93823          	sd	a4,400(s2) # 2190 <.LBB77_5+0xcc4>
    4994:	00075463          	bgez	a4,499c <.LBB77_66>
    4998:	c00007b7          	lui	a5,0xc0000

000000000000499c <.LBB77_66>:
    499c:	00002737          	lui	a4,0x2
    49a0:	40e40733          	sub	a4,s0,a4
    49a4:	18f73423          	sd	a5,392(a4) # 2188 <.LBB77_5+0xcbc>
    49a8:	00002737          	lui	a4,0x2
    49ac:	40e40733          	sub	a4,s0,a4
    49b0:	70573023          	sd	t0,1792(a4) # 2700 <.LBB77_5+0x1234>
    49b4:	00001737          	lui	a4,0x1
    49b8:	40e40733          	sub	a4,s0,a4
    49bc:	5c073903          	ld	s2,1472(a4) # 15c0 <.LBB77_5+0xf4>
    49c0:	00791913          	slli	s2,s2,0x7
    49c4:	ec843703          	ld	a4,-312(s0)
    49c8:	000017b7          	lui	a5,0x1
    49cc:	40f407b3          	sub	a5,s0,a5
    49d0:	7707b783          	ld	a5,1904(a5) # 1770 <.LBB77_5+0x2a4>
    49d4:	00e78733          	add	a4,a5,a4
    49d8:	01270733          	add	a4,a4,s2
    49dc:	401b07bb          	subw	a5,s6,ra
    49e0:	40f7073b          	subw	a4,a4,a5
    49e4:	400007b7          	lui	a5,0x40000
    49e8:	000022b7          	lui	t0,0x2
    49ec:	405402b3          	sub	t0,s0,t0
    49f0:	12e2b023          	sd	a4,288(t0) # 2120 <.LBB77_5+0xc54>
    49f4:	00075463          	bgez	a4,49fc <.LBB77_68>
    49f8:	c00007b7          	lui	a5,0xc0000

00000000000049fc <.LBB77_68>:
    49fc:	00002737          	lui	a4,0x2
    4a00:	40e40733          	sub	a4,s0,a4
    4a04:	10f73c23          	sd	a5,280(a4) # 2118 <.LBB77_5+0xc4c>
    4a08:	00001737          	lui	a4,0x1
    4a0c:	40e40733          	sub	a4,s0,a4
    4a10:	5c873283          	ld	t0,1480(a4) # 15c8 <.LBB77_5+0xfc>
    4a14:	00729293          	slli	t0,t0,0x7
    4a18:	ed043703          	ld	a4,-304(s0)
    4a1c:	000017b7          	lui	a5,0x1
    4a20:	40f407b3          	sub	a5,s0,a5
    4a24:	7887b783          	ld	a5,1928(a5) # 1788 <.LBB77_5+0x2bc>
    4a28:	00e78733          	add	a4,a5,a4
    4a2c:	00570733          	add	a4,a4,t0
    4a30:	401b07bb          	subw	a5,s6,ra
    4a34:	40f70b3b          	subw	s6,a4,a5
    4a38:	40000737          	lui	a4,0x40000
    4a3c:	000b5463          	bgez	s6,4a44 <.LBB77_70>
    4a40:	c0000737          	lui	a4,0xc0000

0000000000004a44 <.LBB77_70>:
    4a44:	f8a43823          	sd	a0,-112(s0)
    4a48:	00002537          	lui	a0,0x2
    4a4c:	40a40533          	sub	a0,s0,a0
    4a50:	0ae53c23          	sd	a4,184(a0) # 20b8 <.LBB77_5+0xbec>
    4a54:	eb843703          	ld	a4,-328(s0)
    4a58:	00001537          	lui	a0,0x1
    4a5c:	40a40533          	sub	a0,s0,a0
    4a60:	76853783          	ld	a5,1896(a0) # 1768 <.LBB77_5+0x29c>
    4a64:	00e78733          	add	a4,a5,a4
    4a68:	00359593          	slli	a1,a1,0x3
    4a6c:	01570733          	add	a4,a4,s5
    4a70:	401587bb          	subw	a5,a1,ra
    4a74:	40f7073b          	subw	a4,a4,a5
    4a78:	400007b7          	lui	a5,0x40000
    4a7c:	00001537          	lui	a0,0x1
    4a80:	40a40533          	sub	a0,s0,a0
    4a84:	78e53423          	sd	a4,1928(a0) # 1788 <.LBB77_5+0x2bc>
    4a88:	f9043503          	ld	a0,-112(s0)
    4a8c:	00075463          	bgez	a4,4a94 <.LBB77_72>
    4a90:	c00007b7          	lui	a5,0xc0000

0000000000004a94 <.LBB77_72>:
    4a94:	f8a43823          	sd	a0,-112(s0)
    4a98:	00001537          	lui	a0,0x1
    4a9c:	40a40533          	sub	a0,s0,a0
    4aa0:	76f53823          	sd	a5,1904(a0) # 1770 <.LBB77_5+0x2a4>
    4aa4:	ec043703          	ld	a4,-320(s0)
    4aa8:	00001537          	lui	a0,0x1
    4aac:	40a40533          	sub	a0,s0,a0
    4ab0:	77853783          	ld	a5,1912(a0) # 1778 <.LBB77_5+0x2ac>
    4ab4:	00e78733          	add	a4,a5,a4
    4ab8:	01470733          	add	a4,a4,s4
    4abc:	401587bb          	subw	a5,a1,ra
    4ac0:	40f7073b          	subw	a4,a4,a5
    4ac4:	400007b7          	lui	a5,0x40000
    4ac8:	00001537          	lui	a0,0x1
    4acc:	40a40533          	sub	a0,s0,a0
    4ad0:	76e53c23          	sd	a4,1912(a0) # 1778 <.LBB77_5+0x2ac>
    4ad4:	f9043503          	ld	a0,-112(s0)
    4ad8:	00075463          	bgez	a4,4ae0 <.LBB77_74>
    4adc:	c00007b7          	lui	a5,0xc0000

0000000000004ae0 <.LBB77_74>:
    4ae0:	f8a43823          	sd	a0,-112(s0)
    4ae4:	00001537          	lui	a0,0x1
    4ae8:	40a40533          	sub	a0,s0,a0
    4aec:	76f53423          	sd	a5,1896(a0) # 1768 <.LBB77_5+0x29c>
    4af0:	ec843703          	ld	a4,-312(s0)
    4af4:	00001537          	lui	a0,0x1
    4af8:	40a40533          	sub	a0,s0,a0
    4afc:	78053783          	ld	a5,1920(a0) # 1780 <.LBB77_5+0x2b4>
    4b00:	00e78733          	add	a4,a5,a4
    4b04:	01270733          	add	a4,a4,s2
    4b08:	401587bb          	subw	a5,a1,ra
    4b0c:	40f7073b          	subw	a4,a4,a5
    4b10:	400007b7          	lui	a5,0x40000
    4b14:	00001537          	lui	a0,0x1
    4b18:	40a40533          	sub	a0,s0,a0
    4b1c:	74e53c23          	sd	a4,1880(a0) # 1758 <.LBB77_5+0x28c>
    4b20:	f9043503          	ld	a0,-112(s0)
    4b24:	00075463          	bgez	a4,4b2c <.LBB77_76>
    4b28:	c00007b7          	lui	a5,0xc0000

0000000000004b2c <.LBB77_76>:
    4b2c:	f8a43823          	sd	a0,-112(s0)
    4b30:	00001537          	lui	a0,0x1
    4b34:	40a40533          	sub	a0,s0,a0
    4b38:	74f53423          	sd	a5,1864(a0) # 1748 <.LBB77_5+0x27c>
    4b3c:	ed043703          	ld	a4,-304(s0)
    4b40:	00001537          	lui	a0,0x1
    4b44:	40a40533          	sub	a0,s0,a0
    4b48:	79053783          	ld	a5,1936(a0) # 1790 <.LBB77_5+0x2c4>
    4b4c:	00e78733          	add	a4,a5,a4
    4b50:	00570733          	add	a4,a4,t0
    4b54:	401587bb          	subw	a5,a1,ra
    4b58:	40f7073b          	subw	a4,a4,a5
    4b5c:	400007b7          	lui	a5,0x40000
    4b60:	00001537          	lui	a0,0x1
    4b64:	40a40533          	sub	a0,s0,a0
    4b68:	5ce53423          	sd	a4,1480(a0) # 15c8 <.LBB77_5+0xfc>
    4b6c:	f9043503          	ld	a0,-112(s0)
    4b70:	00075463          	bgez	a4,4b78 <.LBB77_78>
    4b74:	c00007b7          	lui	a5,0xc0000

0000000000004b78 <.LBB77_78>:
    4b78:	00001737          	lui	a4,0x1
    4b7c:	40e40733          	sub	a4,s0,a4
    4b80:	5af73c23          	sd	a5,1464(a4) # 15b8 <.LBB77_5+0xec>
    4b84:	ed843703          	ld	a4,-296(s0)
    4b88:	00eb8733          	add	a4,s7,a4
    4b8c:	01f70733          	add	a4,a4,t6
    4b90:	401587bb          	subw	a5,a1,ra
    4b94:	40f7073b          	subw	a4,a4,a5
    4b98:	400007b7          	lui	a5,0x40000
    4b9c:	00001bb7          	lui	s7,0x1
    4ba0:	41740bb3          	sub	s7,s0,s7
    4ba4:	54ebbc23          	sd	a4,1368(s7) # 1558 <.LBB77_5+0x8c>
    4ba8:	00075463          	bgez	a4,4bb0 <.LBB77_80>
    4bac:	c00007b7          	lui	a5,0xc0000

0000000000004bb0 <.LBB77_80>:
    4bb0:	00001737          	lui	a4,0x1
    4bb4:	40e40733          	sub	a4,s0,a4
    4bb8:	54f73423          	sd	a5,1352(a4) # 1548 <.LBB77_5+0x7c>
    4bbc:	ee043703          	ld	a4,-288(s0)
    4bc0:	000017b7          	lui	a5,0x1
    4bc4:	40f407b3          	sub	a5,s0,a5
    4bc8:	7a07b783          	ld	a5,1952(a5) # 17a0 <.LBB77_5+0x2d4>
    4bcc:	00e78733          	add	a4,a5,a4
    4bd0:	01e70733          	add	a4,a4,t5
    4bd4:	401587bb          	subw	a5,a1,ra
    4bd8:	40f7073b          	subw	a4,a4,a5
    4bdc:	400007b7          	lui	a5,0x40000
    4be0:	00001bb7          	lui	s7,0x1
    4be4:	41740bb3          	sub	s7,s0,s7
    4be8:	4eebb423          	sd	a4,1256(s7) # 14e8 <.LBB77_5+0x1c>
    4bec:	00075463          	bgez	a4,4bf4 <.LBB77_82>
    4bf0:	c00007b7          	lui	a5,0xc0000

0000000000004bf4 <.LBB77_82>:
    4bf4:	00001737          	lui	a4,0x1
    4bf8:	40e40733          	sub	a4,s0,a4
    4bfc:	4cf73c23          	sd	a5,1240(a4) # 14d8 <.LBB77_5+0xc>
    4c00:	ee843703          	ld	a4,-280(s0)
    4c04:	000017b7          	lui	a5,0x1
    4c08:	40f407b3          	sub	a5,s0,a5
    4c0c:	7a87b783          	ld	a5,1960(a5) # 17a8 <.LBB77_5+0x2dc>
    4c10:	00e78733          	add	a4,a5,a4
    4c14:	00c70733          	add	a4,a4,a2
    4c18:	401587bb          	subw	a5,a1,ra
    4c1c:	40f7073b          	subw	a4,a4,a5
    4c20:	400007b7          	lui	a5,0x40000
    4c24:	00001bb7          	lui	s7,0x1
    4c28:	41740bb3          	sub	s7,s0,s7
    4c2c:	46ebbc23          	sd	a4,1144(s7) # 1478 <.LBB77_4+0x578>
    4c30:	00075463          	bgez	a4,4c38 <.LBB77_84>
    4c34:	c00007b7          	lui	a5,0xc0000

0000000000004c38 <.LBB77_84>:
    4c38:	00001737          	lui	a4,0x1
    4c3c:	40e40733          	sub	a4,s0,a4
    4c40:	46f73423          	sd	a5,1128(a4) # 1468 <.LBB77_4+0x568>
    4c44:	f1043703          	ld	a4,-240(s0)
    4c48:	000017b7          	lui	a5,0x1
    4c4c:	40f407b3          	sub	a5,s0,a5
    4c50:	7b07b783          	ld	a5,1968(a5) # 17b0 <.LBB77_5+0x2e4>
    4c54:	00e78733          	add	a4,a5,a4
    4c58:	01a70733          	add	a4,a4,s10
    4c5c:	401587bb          	subw	a5,a1,ra
    4c60:	40f7073b          	subw	a4,a4,a5
    4c64:	400007b7          	lui	a5,0x40000
    4c68:	00001bb7          	lui	s7,0x1
    4c6c:	41740bb3          	sub	s7,s0,s7
    4c70:	40ebb823          	sd	a4,1040(s7) # 1410 <.LBB77_4+0x510>
    4c74:	00075463          	bgez	a4,4c7c <.LBB77_86>
    4c78:	c00007b7          	lui	a5,0xc0000

0000000000004c7c <.LBB77_86>:
    4c7c:	00001737          	lui	a4,0x1
    4c80:	40e40733          	sub	a4,s0,a4
    4c84:	40f73023          	sd	a5,1024(a4) # 1400 <.LBB77_4+0x500>
    4c88:	f1843703          	ld	a4,-232(s0)
    4c8c:	000017b7          	lui	a5,0x1
    4c90:	40f407b3          	sub	a5,s0,a5
    4c94:	7b87b783          	ld	a5,1976(a5) # 17b8 <.LBB77_5+0x2ec>
    4c98:	00e78733          	add	a4,a5,a4
    4c9c:	01370733          	add	a4,a4,s3
    4ca0:	401587bb          	subw	a5,a1,ra
    4ca4:	40f7073b          	subw	a4,a4,a5
    4ca8:	400007b7          	lui	a5,0x40000
    4cac:	00001bb7          	lui	s7,0x1
    4cb0:	41740bb3          	sub	s7,s0,s7
    4cb4:	38ebbc23          	sd	a4,920(s7) # 1398 <.LBB77_4+0x498>
    4cb8:	00075463          	bgez	a4,4cc0 <.LBB77_88>
    4cbc:	c00007b7          	lui	a5,0xc0000

0000000000004cc0 <.LBB77_88>:
    4cc0:	00001737          	lui	a4,0x1
    4cc4:	40e40733          	sub	a4,s0,a4
    4cc8:	38f73423          	sd	a5,904(a4) # 1388 <.LBB77_4+0x488>
    4ccc:	f2043703          	ld	a4,-224(s0)
    4cd0:	000017b7          	lui	a5,0x1
    4cd4:	40f407b3          	sub	a5,s0,a5
    4cd8:	7c07b783          	ld	a5,1984(a5) # 17c0 <.LBB77_5+0x2f4>
    4cdc:	00e78733          	add	a4,a5,a4
    4ce0:	01c70733          	add	a4,a4,t3
    4ce4:	401587bb          	subw	a5,a1,ra
    4ce8:	40f7073b          	subw	a4,a4,a5
    4cec:	400007b7          	lui	a5,0x40000
    4cf0:	00001bb7          	lui	s7,0x1
    4cf4:	41740bb3          	sub	s7,s0,s7
    4cf8:	30ebbc23          	sd	a4,792(s7) # 1318 <.LBB77_4+0x418>
    4cfc:	00075463          	bgez	a4,4d04 <.LBB77_90>
    4d00:	c00007b7          	lui	a5,0xc0000

0000000000004d04 <.LBB77_90>:
    4d04:	00001737          	lui	a4,0x1
    4d08:	40e40733          	sub	a4,s0,a4
    4d0c:	30f73423          	sd	a5,776(a4) # 1308 <.LBB77_4+0x408>
    4d10:	f2843703          	ld	a4,-216(s0)
    4d14:	000017b7          	lui	a5,0x1
    4d18:	40f407b3          	sub	a5,s0,a5
    4d1c:	7c87b783          	ld	a5,1992(a5) # 17c8 <.LBB77_5+0x2fc>
    4d20:	00e78733          	add	a4,a5,a4
    4d24:	00970733          	add	a4,a4,s1
    4d28:	401587bb          	subw	a5,a1,ra
    4d2c:	40f7073b          	subw	a4,a4,a5
    4d30:	400007b7          	lui	a5,0x40000
    4d34:	00001bb7          	lui	s7,0x1
    4d38:	41740bb3          	sub	s7,s0,s7
    4d3c:	2aebb023          	sd	a4,672(s7) # 12a0 <.LBB77_4+0x3a0>
    4d40:	00075463          	bgez	a4,4d48 <.LBB77_92>
    4d44:	c00007b7          	lui	a5,0xc0000

0000000000004d48 <.LBB77_92>:
    4d48:	00001737          	lui	a4,0x1
    4d4c:	40e40733          	sub	a4,s0,a4
    4d50:	28f73423          	sd	a5,648(a4) # 1288 <.LBB77_4+0x388>
    4d54:	f3043703          	ld	a4,-208(s0)
    4d58:	000017b7          	lui	a5,0x1
    4d5c:	40f407b3          	sub	a5,s0,a5
    4d60:	7d07b783          	ld	a5,2000(a5) # 17d0 <.LBB77_5+0x304>
    4d64:	00e78733          	add	a4,a5,a4
    4d68:	00770733          	add	a4,a4,t2
    4d6c:	401587bb          	subw	a5,a1,ra
    4d70:	40f7073b          	subw	a4,a4,a5
    4d74:	400007b7          	lui	a5,0x40000
    4d78:	00001bb7          	lui	s7,0x1
    4d7c:	41740bb3          	sub	s7,s0,s7
    4d80:	22ebb023          	sd	a4,544(s7) # 1220 <.LBB77_4+0x320>
    4d84:	00075463          	bgez	a4,4d8c <.LBB77_94>
    4d88:	c00007b7          	lui	a5,0xc0000

0000000000004d8c <.LBB77_94>:
    4d8c:	00001737          	lui	a4,0x1
    4d90:	40e40733          	sub	a4,s0,a4
    4d94:	20f73423          	sd	a5,520(a4) # 1208 <.LBB77_4+0x308>
    4d98:	f3843703          	ld	a4,-200(s0)
    4d9c:	000017b7          	lui	a5,0x1
    4da0:	40f407b3          	sub	a5,s0,a5
    4da4:	7d87b783          	ld	a5,2008(a5) # 17d8 <.LBB77_5+0x30c>
    4da8:	00e78733          	add	a4,a5,a4
    4dac:	01870733          	add	a4,a4,s8
    4db0:	401587bb          	subw	a5,a1,ra
    4db4:	40f7073b          	subw	a4,a4,a5
    4db8:	400007b7          	lui	a5,0x40000
    4dbc:	00001bb7          	lui	s7,0x1
    4dc0:	41740bb3          	sub	s7,s0,s7
    4dc4:	1aebb423          	sd	a4,424(s7) # 11a8 <.LBB77_4+0x2a8>
    4dc8:	00075463          	bgez	a4,4dd0 <.LBB77_96>
    4dcc:	c00007b7          	lui	a5,0xc0000

0000000000004dd0 <.LBB77_96>:
    4dd0:	00001737          	lui	a4,0x1
    4dd4:	40e40733          	sub	a4,s0,a4
    4dd8:	18f73823          	sd	a5,400(a4) # 1190 <.LBB77_4+0x290>
    4ddc:	f4043703          	ld	a4,-192(s0)
    4de0:	000017b7          	lui	a5,0x1
    4de4:	40f407b3          	sub	a5,s0,a5
    4de8:	7e07b783          	ld	a5,2016(a5) # 17e0 <.LBB77_5+0x314>
    4dec:	00e78733          	add	a4,a5,a4
    4df0:	01970733          	add	a4,a4,s9
    4df4:	401587bb          	subw	a5,a1,ra
    4df8:	40f7073b          	subw	a4,a4,a5
    4dfc:	400007b7          	lui	a5,0x40000
    4e00:	00001bb7          	lui	s7,0x1
    4e04:	41740bb3          	sub	s7,s0,s7
    4e08:	12ebb423          	sd	a4,296(s7) # 1128 <.LBB77_4+0x228>
    4e0c:	00075463          	bgez	a4,4e14 <.LBB77_98>
    4e10:	c00007b7          	lui	a5,0xc0000

0000000000004e14 <.LBB77_98>:
    4e14:	00001737          	lui	a4,0x1
    4e18:	40e40733          	sub	a4,s0,a4
    4e1c:	10f73c23          	sd	a5,280(a4) # 1118 <.LBB77_4+0x218>
    4e20:	f4843703          	ld	a4,-184(s0)
    4e24:	000017b7          	lui	a5,0x1
    4e28:	40f407b3          	sub	a5,s0,a5
    4e2c:	7e87b783          	ld	a5,2024(a5) # 17e8 <.LBB77_5+0x31c>
    4e30:	00e78733          	add	a4,a5,a4
    4e34:	00670733          	add	a4,a4,t1
    4e38:	401587bb          	subw	a5,a1,ra
    4e3c:	40f7073b          	subw	a4,a4,a5
    4e40:	400007b7          	lui	a5,0x40000
    4e44:	00001bb7          	lui	s7,0x1
    4e48:	41740bb3          	sub	s7,s0,s7
    4e4c:	0aebb423          	sd	a4,168(s7) # 10a8 <.LBB77_4+0x1a8>
    4e50:	00075463          	bgez	a4,4e58 <.LBB77_100>
    4e54:	c00007b7          	lui	a5,0xc0000

0000000000004e58 <.LBB77_100>:
    4e58:	00001737          	lui	a4,0x1
    4e5c:	40e40733          	sub	a4,s0,a4
    4e60:	08f73c23          	sd	a5,152(a4) # 1098 <.LBB77_4+0x198>
    4e64:	f5043703          	ld	a4,-176(s0)
    4e68:	000017b7          	lui	a5,0x1
    4e6c:	40f407b3          	sub	a5,s0,a5
    4e70:	7f07b783          	ld	a5,2032(a5) # 17f0 <.LBB77_5+0x324>
    4e74:	00e78733          	add	a4,a5,a4
    4e78:	01d70733          	add	a4,a4,t4
    4e7c:	401587bb          	subw	a5,a1,ra
    4e80:	40f7073b          	subw	a4,a4,a5
    4e84:	400007b7          	lui	a5,0x40000
    4e88:	00002bb7          	lui	s7,0x2
    4e8c:	41740bb3          	sub	s7,s0,s7
    4e90:	7eebb023          	sd	a4,2016(s7) # 27e0 <.LBB77_5+0x1314>
    4e94:	00075463          	bgez	a4,4e9c <.LBB77_102>
    4e98:	c00007b7          	lui	a5,0xc0000

0000000000004e9c <.LBB77_102>:
    4e9c:	00002737          	lui	a4,0x2
    4ea0:	40e40733          	sub	a4,s0,a4
    4ea4:	7cf73823          	sd	a5,2000(a4) # 27d0 <.LBB77_5+0x1304>
    4ea8:	f5843703          	ld	a4,-168(s0)
    4eac:	000017b7          	lui	a5,0x1
    4eb0:	40f407b3          	sub	a5,s0,a5
    4eb4:	7f87b783          	ld	a5,2040(a5) # 17f8 <.LBB77_5+0x32c>
    4eb8:	00e78733          	add	a4,a5,a4
    4ebc:	000017b7          	lui	a5,0x1
    4ec0:	40f407b3          	sub	a5,s0,a5
    4ec4:	6f07b783          	ld	a5,1776(a5) # 16f0 <.LBB77_5+0x224>
    4ec8:	00f70733          	add	a4,a4,a5
    4ecc:	401587bb          	subw	a5,a1,ra
    4ed0:	40f7073b          	subw	a4,a4,a5
    4ed4:	400007b7          	lui	a5,0x40000
    4ed8:	00002bb7          	lui	s7,0x2
    4edc:	41740bb3          	sub	s7,s0,s7
    4ee0:	76ebb023          	sd	a4,1888(s7) # 2760 <.LBB77_5+0x1294>
    4ee4:	00075463          	bgez	a4,4eec <.LBB77_104>
    4ee8:	c00007b7          	lui	a5,0xc0000

0000000000004eec <.LBB77_104>:
    4eec:	00002737          	lui	a4,0x2
    4ef0:	40e40733          	sub	a4,s0,a4
    4ef4:	74f73823          	sd	a5,1872(a4) # 2750 <.LBB77_5+0x1284>
    4ef8:	f6043703          	ld	a4,-160(s0)
    4efc:	80043783          	ld	a5,-2048(s0)
    4f00:	00e78733          	add	a4,a5,a4
    4f04:	000017b7          	lui	a5,0x1
    4f08:	40f407b3          	sub	a5,s0,a5
    4f0c:	6e87b783          	ld	a5,1768(a5) # 16e8 <.LBB77_5+0x21c>
    4f10:	00f70733          	add	a4,a4,a5
    4f14:	401587bb          	subw	a5,a1,ra
    4f18:	40f7073b          	subw	a4,a4,a5
    4f1c:	400007b7          	lui	a5,0x40000
    4f20:	00002bb7          	lui	s7,0x2
    4f24:	41740bb3          	sub	s7,s0,s7
    4f28:	6eebb423          	sd	a4,1768(s7) # 26e8 <.LBB77_5+0x121c>
    4f2c:	00075463          	bgez	a4,4f34 <.LBB77_106>
    4f30:	c00007b7          	lui	a5,0xc0000

0000000000004f34 <.LBB77_106>:
    4f34:	00002737          	lui	a4,0x2
    4f38:	40e40733          	sub	a4,s0,a4
    4f3c:	6cf73c23          	sd	a5,1752(a4) # 26d8 <.LBB77_5+0x120c>
    4f40:	f6843703          	ld	a4,-152(s0)
    4f44:	80843783          	ld	a5,-2040(s0)
    4f48:	00e78733          	add	a4,a5,a4
    4f4c:	000017b7          	lui	a5,0x1
    4f50:	40f407b3          	sub	a5,s0,a5
    4f54:	6e07b783          	ld	a5,1760(a5) # 16e0 <.LBB77_5+0x214>
    4f58:	00f70733          	add	a4,a4,a5
    4f5c:	401587bb          	subw	a5,a1,ra
    4f60:	40f7073b          	subw	a4,a4,a5
    4f64:	400007b7          	lui	a5,0x40000
    4f68:	00002bb7          	lui	s7,0x2
    4f6c:	41740bb3          	sub	s7,s0,s7
    4f70:	66ebb823          	sd	a4,1648(s7) # 2670 <.LBB77_5+0x11a4>
    4f74:	00075463          	bgez	a4,4f7c <.LBB77_108>
    4f78:	c00007b7          	lui	a5,0xc0000

0000000000004f7c <.LBB77_108>:
    4f7c:	00002737          	lui	a4,0x2
    4f80:	40e40733          	sub	a4,s0,a4
    4f84:	66f73023          	sd	a5,1632(a4) # 2660 <.LBB77_5+0x1194>
    4f88:	f7043703          	ld	a4,-144(s0)
    4f8c:	81043783          	ld	a5,-2032(s0)
    4f90:	00e78733          	add	a4,a5,a4
    4f94:	000017b7          	lui	a5,0x1
    4f98:	40f407b3          	sub	a5,s0,a5
    4f9c:	6d87b783          	ld	a5,1752(a5) # 16d8 <.LBB77_5+0x20c>
    4fa0:	00f70733          	add	a4,a4,a5
    4fa4:	401587bb          	subw	a5,a1,ra
    4fa8:	40f7073b          	subw	a4,a4,a5
    4fac:	400007b7          	lui	a5,0x40000
    4fb0:	00002bb7          	lui	s7,0x2
    4fb4:	41740bb3          	sub	s7,s0,s7
    4fb8:	5eebbc23          	sd	a4,1528(s7) # 25f8 <.LBB77_5+0x112c>
    4fbc:	00075463          	bgez	a4,4fc4 <.LBB77_110>
    4fc0:	c00007b7          	lui	a5,0xc0000

0000000000004fc4 <.LBB77_110>:
    4fc4:	00002737          	lui	a4,0x2
    4fc8:	40e40733          	sub	a4,s0,a4
    4fcc:	5ef73423          	sd	a5,1512(a4) # 25e8 <.LBB77_5+0x111c>
    4fd0:	f7843703          	ld	a4,-136(s0)
    4fd4:	81843783          	ld	a5,-2024(s0)
    4fd8:	00e78733          	add	a4,a5,a4
    4fdc:	000017b7          	lui	a5,0x1
    4fe0:	40f407b3          	sub	a5,s0,a5
    4fe4:	6d07b783          	ld	a5,1744(a5) # 16d0 <.LBB77_5+0x204>
    4fe8:	00f70733          	add	a4,a4,a5
    4fec:	401587bb          	subw	a5,a1,ra
    4ff0:	40f7073b          	subw	a4,a4,a5
    4ff4:	400007b7          	lui	a5,0x40000
    4ff8:	00002bb7          	lui	s7,0x2
    4ffc:	41740bb3          	sub	s7,s0,s7
    5000:	58ebb423          	sd	a4,1416(s7) # 2588 <.LBB77_5+0x10bc>
    5004:	00075463          	bgez	a4,500c <.LBB77_112>
    5008:	c00007b7          	lui	a5,0xc0000

000000000000500c <.LBB77_112>:
    500c:	00002737          	lui	a4,0x2
    5010:	40e40733          	sub	a4,s0,a4
    5014:	56f73c23          	sd	a5,1400(a4) # 2578 <.LBB77_5+0x10ac>
    5018:	f8843703          	ld	a4,-120(s0)
    501c:	82043783          	ld	a5,-2016(s0)
    5020:	00e78733          	add	a4,a5,a4
    5024:	000017b7          	lui	a5,0x1
    5028:	40f407b3          	sub	a5,s0,a5
    502c:	6c87b783          	ld	a5,1736(a5) # 16c8 <.LBB77_5+0x1fc>
    5030:	00f70733          	add	a4,a4,a5
    5034:	401587bb          	subw	a5,a1,ra
    5038:	40f7073b          	subw	a4,a4,a5
    503c:	400007b7          	lui	a5,0x40000
    5040:	00002bb7          	lui	s7,0x2
    5044:	41740bb3          	sub	s7,s0,s7
    5048:	50ebb823          	sd	a4,1296(s7) # 2510 <.LBB77_5+0x1044>
    504c:	00075463          	bgez	a4,5054 <.LBB77_114>
    5050:	c00007b7          	lui	a5,0xc0000

0000000000005054 <.LBB77_114>:
    5054:	00002737          	lui	a4,0x2
    5058:	40e40733          	sub	a4,s0,a4
    505c:	50f73023          	sd	a5,1280(a4) # 2500 <.LBB77_5+0x1034>
    5060:	00001737          	lui	a4,0x1
    5064:	40e40733          	sub	a4,s0,a4
    5068:	6a073703          	ld	a4,1696(a4) # 16a0 <.LBB77_5+0x1d4>
    506c:	82843783          	ld	a5,-2008(s0)
    5070:	00e78733          	add	a4,a5,a4
    5074:	000017b7          	lui	a5,0x1
    5078:	40f407b3          	sub	a5,s0,a5
    507c:	6907b783          	ld	a5,1680(a5) # 1690 <.LBB77_5+0x1c4>
    5080:	00f70733          	add	a4,a4,a5
    5084:	401587bb          	subw	a5,a1,ra
    5088:	40f7073b          	subw	a4,a4,a5
    508c:	400007b7          	lui	a5,0x40000
    5090:	00002bb7          	lui	s7,0x2
    5094:	41740bb3          	sub	s7,s0,s7
    5098:	48ebbc23          	sd	a4,1176(s7) # 2498 <.LBB77_5+0xfcc>
    509c:	00075463          	bgez	a4,50a4 <.LBB77_116>
    50a0:	c00007b7          	lui	a5,0xc0000

00000000000050a4 <.LBB77_116>:
    50a4:	00002737          	lui	a4,0x2
    50a8:	40e40733          	sub	a4,s0,a4
    50ac:	48f73423          	sd	a5,1160(a4) # 2488 <.LBB77_5+0xfbc>
    50b0:	00001737          	lui	a4,0x1
    50b4:	40e40733          	sub	a4,s0,a4
    50b8:	6a873703          	ld	a4,1704(a4) # 16a8 <.LBB77_5+0x1dc>
    50bc:	83043783          	ld	a5,-2000(s0)
    50c0:	00e78733          	add	a4,a5,a4
    50c4:	000017b7          	lui	a5,0x1
    50c8:	40f407b3          	sub	a5,s0,a5
    50cc:	6987b783          	ld	a5,1688(a5) # 1698 <.LBB77_5+0x1cc>
    50d0:	00f70733          	add	a4,a4,a5
    50d4:	401587bb          	subw	a5,a1,ra
    50d8:	40f7073b          	subw	a4,a4,a5
    50dc:	400007b7          	lui	a5,0x40000
    50e0:	00002bb7          	lui	s7,0x2
    50e4:	41740bb3          	sub	s7,s0,s7
    50e8:	42ebb423          	sd	a4,1064(s7) # 2428 <.LBB77_5+0xf5c>
    50ec:	00075463          	bgez	a4,50f4 <.LBB77_118>
    50f0:	c00007b7          	lui	a5,0xc0000

00000000000050f4 <.LBB77_118>:
    50f4:	00002737          	lui	a4,0x2
    50f8:	40e40733          	sub	a4,s0,a4
    50fc:	40f73c23          	sd	a5,1048(a4) # 2418 <.LBB77_5+0xf4c>
    5100:	00001737          	lui	a4,0x1
    5104:	40e40733          	sub	a4,s0,a4
    5108:	6b873703          	ld	a4,1720(a4) # 16b8 <.LBB77_5+0x1ec>
    510c:	83843783          	ld	a5,-1992(s0)
    5110:	00e78733          	add	a4,a5,a4
    5114:	000017b7          	lui	a5,0x1
    5118:	40f407b3          	sub	a5,s0,a5
    511c:	6b07b783          	ld	a5,1712(a5) # 16b0 <.LBB77_5+0x1e4>
    5120:	00f70733          	add	a4,a4,a5
    5124:	401587bb          	subw	a5,a1,ra
    5128:	40f7073b          	subw	a4,a4,a5
    512c:	400007b7          	lui	a5,0x40000
    5130:	00002bb7          	lui	s7,0x2
    5134:	41740bb3          	sub	s7,s0,s7
    5138:	3aebbc23          	sd	a4,952(s7) # 23b8 <.LBB77_5+0xeec>
    513c:	00075463          	bgez	a4,5144 <.LBB77_120>
    5140:	c00007b7          	lui	a5,0xc0000

0000000000005144 <.LBB77_120>:
    5144:	00002737          	lui	a4,0x2
    5148:	40e40733          	sub	a4,s0,a4
    514c:	3af73423          	sd	a5,936(a4) # 23a8 <.LBB77_5+0xedc>
    5150:	e5843703          	ld	a4,-424(s0)
    5154:	84043783          	ld	a5,-1984(s0)
    5158:	00e78733          	add	a4,a5,a4
    515c:	000017b7          	lui	a5,0x1
    5160:	40f407b3          	sub	a5,s0,a5
    5164:	6c07b783          	ld	a5,1728(a5) # 16c0 <.LBB77_5+0x1f4>
    5168:	00f70733          	add	a4,a4,a5
    516c:	401587bb          	subw	a5,a1,ra
    5170:	40f7073b          	subw	a4,a4,a5
    5174:	400007b7          	lui	a5,0x40000
    5178:	00002bb7          	lui	s7,0x2
    517c:	41740bb3          	sub	s7,s0,s7
    5180:	34ebb423          	sd	a4,840(s7) # 2348 <.LBB77_5+0xe7c>
    5184:	00075463          	bgez	a4,518c <.LBB77_122>
    5188:	c00007b7          	lui	a5,0xc0000

000000000000518c <.LBB77_122>:
    518c:	00002737          	lui	a4,0x2
    5190:	40e40733          	sub	a4,s0,a4
    5194:	32f73c23          	sd	a5,824(a4) # 2338 <.LBB77_5+0xe6c>
    5198:	e6843703          	ld	a4,-408(s0)
    519c:	84843783          	ld	a5,-1976(s0)
    51a0:	00e78733          	add	a4,a5,a4
    51a4:	e6043783          	ld	a5,-416(s0)
    51a8:	00f70733          	add	a4,a4,a5
    51ac:	401587bb          	subw	a5,a1,ra
    51b0:	40f7073b          	subw	a4,a4,a5
    51b4:	400007b7          	lui	a5,0x40000
    51b8:	00002bb7          	lui	s7,0x2
    51bc:	41740bb3          	sub	s7,s0,s7
    51c0:	2cebbc23          	sd	a4,728(s7) # 22d8 <.LBB77_5+0xe0c>
    51c4:	00075463          	bgez	a4,51cc <.LBB77_124>
    51c8:	c00007b7          	lui	a5,0xc0000

00000000000051cc <.LBB77_124>:
    51cc:	00002737          	lui	a4,0x2
    51d0:	40e40733          	sub	a4,s0,a4
    51d4:	2cf73423          	sd	a5,712(a4) # 22c8 <.LBB77_5+0xdfc>
    51d8:	e7843703          	ld	a4,-392(s0)
    51dc:	85043783          	ld	a5,-1968(s0)
    51e0:	00e78733          	add	a4,a5,a4
    51e4:	e7043783          	ld	a5,-400(s0)
    51e8:	00f70733          	add	a4,a4,a5
    51ec:	401587bb          	subw	a5,a1,ra
    51f0:	40f7073b          	subw	a4,a4,a5
    51f4:	400007b7          	lui	a5,0x40000
    51f8:	00002bb7          	lui	s7,0x2
    51fc:	41740bb3          	sub	s7,s0,s7
    5200:	26ebb023          	sd	a4,608(s7) # 2260 <.LBB77_5+0xd94>
    5204:	00075463          	bgez	a4,520c <.LBB77_126>
    5208:	c00007b7          	lui	a5,0xc0000

000000000000520c <.LBB77_126>:
    520c:	00002737          	lui	a4,0x2
    5210:	40e40733          	sub	a4,s0,a4
    5214:	24f73823          	sd	a5,592(a4) # 2250 <.LBB77_5+0xd84>
    5218:	e8843703          	ld	a4,-376(s0)
    521c:	85843783          	ld	a5,-1960(s0)
    5220:	00e78733          	add	a4,a5,a4
    5224:	e8043783          	ld	a5,-384(s0)
    5228:	00f70733          	add	a4,a4,a5
    522c:	401587bb          	subw	a5,a1,ra
    5230:	40f7073b          	subw	a4,a4,a5
    5234:	400007b7          	lui	a5,0x40000
    5238:	00002bb7          	lui	s7,0x2
    523c:	41740bb3          	sub	s7,s0,s7
    5240:	1eebb823          	sd	a4,496(s7) # 21f0 <.LBB77_5+0xd24>
    5244:	00075463          	bgez	a4,524c <.LBB77_128>
    5248:	c00007b7          	lui	a5,0xc0000

000000000000524c <.LBB77_128>:
    524c:	00002737          	lui	a4,0x2
    5250:	40e40733          	sub	a4,s0,a4
    5254:	1ef73023          	sd	a5,480(a4) # 21e0 <.LBB77_5+0xd14>
    5258:	e9843703          	ld	a4,-360(s0)
    525c:	86043783          	ld	a5,-1952(s0)
    5260:	00e78733          	add	a4,a5,a4
    5264:	e9043783          	ld	a5,-368(s0)
    5268:	00f70733          	add	a4,a4,a5
    526c:	401587bb          	subw	a5,a1,ra
    5270:	40f7073b          	subw	a4,a4,a5
    5274:	400007b7          	lui	a5,0x40000
    5278:	00002bb7          	lui	s7,0x2
    527c:	41740bb3          	sub	s7,s0,s7
    5280:	18ebb023          	sd	a4,384(s7) # 2180 <.LBB77_5+0xcb4>
    5284:	00075463          	bgez	a4,528c <.LBB77_130>
    5288:	c00007b7          	lui	a5,0xc0000

000000000000528c <.LBB77_130>:
    528c:	00002737          	lui	a4,0x2
    5290:	40e40733          	sub	a4,s0,a4
    5294:	16f73823          	sd	a5,368(a4) # 2170 <.LBB77_5+0xca4>
    5298:	ea843703          	ld	a4,-344(s0)
    529c:	86843783          	ld	a5,-1944(s0)
    52a0:	00e78733          	add	a4,a5,a4
    52a4:	ea043783          	ld	a5,-352(s0)
    52a8:	00f70733          	add	a4,a4,a5
    52ac:	401587bb          	subw	a5,a1,ra
    52b0:	40f7073b          	subw	a4,a4,a5
    52b4:	400007b7          	lui	a5,0x40000
    52b8:	00002bb7          	lui	s7,0x2
    52bc:	41740bb3          	sub	s7,s0,s7
    52c0:	10ebb823          	sd	a4,272(s7) # 2110 <.LBB77_5+0xc44>
    52c4:	00075463          	bgez	a4,52cc <.LBB77_132>
    52c8:	c00007b7          	lui	a5,0xc0000

00000000000052cc <.LBB77_132>:
    52cc:	00002737          	lui	a4,0x2
    52d0:	40e40733          	sub	a4,s0,a4
    52d4:	10f73423          	sd	a5,264(a4) # 2108 <.LBB77_5+0xc3c>
    52d8:	eb043703          	ld	a4,-336(s0)
    52dc:	00ed8733          	add	a4,s11,a4
    52e0:	000017b7          	lui	a5,0x1
    52e4:	40f407b3          	sub	a5,s0,a5
    52e8:	6707b783          	ld	a5,1648(a5) # 1670 <.LBB77_5+0x1a4>
    52ec:	00f70733          	add	a4,a4,a5
    52f0:	401585bb          	subw	a1,a1,ra
    52f4:	40b7073b          	subw	a4,a4,a1
    52f8:	400005b7          	lui	a1,0x40000
    52fc:	00002bb7          	lui	s7,0x2
    5300:	41740bb3          	sub	s7,s0,s7
    5304:	08ebb023          	sd	a4,128(s7) # 2080 <.LBB77_5+0xbb4>
    5308:	00075463          	bgez	a4,5310 <.LBB77_134>
    530c:	c00005b7          	lui	a1,0xc0000

0000000000005310 <.LBB77_134>:
    5310:	00002737          	lui	a4,0x2
    5314:	40e40733          	sub	a4,s0,a4
    5318:	0ab73823          	sd	a1,176(a4) # 20b0 <.LBB77_5+0xbe4>
    531c:	87843583          	ld	a1,-1928(s0)
    5320:	eb843703          	ld	a4,-328(s0)
    5324:	00e585b3          	add	a1,a1,a4
    5328:	00351513          	slli	a0,a0,0x3
    532c:	015585b3          	add	a1,a1,s5
    5330:	4015073b          	subw	a4,a0,ra
    5334:	40e585bb          	subw	a1,a1,a4
    5338:	40000737          	lui	a4,0x40000
    533c:	82b43823          	sd	a1,-2000(s0)
    5340:	0005d463          	bgez	a1,5348 <.LBB77_136>
    5344:	c0000737          	lui	a4,0xc0000

0000000000005348 <.LBB77_136>:
    5348:	82e43023          	sd	a4,-2016(s0)
    534c:	88043583          	ld	a1,-1920(s0)
    5350:	ec043703          	ld	a4,-320(s0)
    5354:	00e585b3          	add	a1,a1,a4
    5358:	014585b3          	add	a1,a1,s4
    535c:	4015073b          	subw	a4,a0,ra
    5360:	40e585bb          	subw	a1,a1,a4
    5364:	40000737          	lui	a4,0x40000
    5368:	00001bb7          	lui	s7,0x1
    536c:	41740bb3          	sub	s7,s0,s7
    5370:	7cbbbc23          	sd	a1,2008(s7) # 17d8 <.LBB77_5+0x30c>
    5374:	0005d463          	bgez	a1,537c <.LBB77_138>
    5378:	c0000737          	lui	a4,0xc0000

000000000000537c <.LBB77_138>:
    537c:	000015b7          	lui	a1,0x1
    5380:	40b405b3          	sub	a1,s0,a1
    5384:	7ce5b423          	sd	a4,1992(a1) # 17c8 <.LBB77_5+0x2fc>
    5388:	88843583          	ld	a1,-1912(s0)
    538c:	ec843703          	ld	a4,-312(s0)
    5390:	00e585b3          	add	a1,a1,a4
    5394:	012585b3          	add	a1,a1,s2
    5398:	4015073b          	subw	a4,a0,ra
    539c:	40e585bb          	subw	a1,a1,a4
    53a0:	40000737          	lui	a4,0x40000
    53a4:	00001bb7          	lui	s7,0x1
    53a8:	41740bb3          	sub	s7,s0,s7
    53ac:	74bbb823          	sd	a1,1872(s7) # 1750 <.LBB77_5+0x284>
    53b0:	0005d463          	bgez	a1,53b8 <.LBB77_140>
    53b4:	c0000737          	lui	a4,0xc0000

00000000000053b8 <.LBB77_140>:
    53b8:	000015b7          	lui	a1,0x1
    53bc:	40b405b3          	sub	a1,s0,a1
    53c0:	72e5bc23          	sd	a4,1848(a1) # 1738 <.LBB77_5+0x26c>
    53c4:	89043583          	ld	a1,-1904(s0)
    53c8:	ed043703          	ld	a4,-304(s0)
    53cc:	00e585b3          	add	a1,a1,a4
    53d0:	005585b3          	add	a1,a1,t0
    53d4:	4015073b          	subw	a4,a0,ra
    53d8:	40e585bb          	subw	a1,a1,a4
    53dc:	40000737          	lui	a4,0x40000
    53e0:	00001bb7          	lui	s7,0x1
    53e4:	41740bb3          	sub	s7,s0,s7
    53e8:	5cbbb023          	sd	a1,1472(s7) # 15c0 <.LBB77_5+0xf4>
    53ec:	0005d463          	bgez	a1,53f4 <.LBB77_142>
    53f0:	c0000737          	lui	a4,0xc0000

00000000000053f4 <.LBB77_142>:
    53f4:	000015b7          	lui	a1,0x1
    53f8:	40b405b3          	sub	a1,s0,a1
    53fc:	5ae5b423          	sd	a4,1448(a1) # 15a8 <.LBB77_5+0xdc>
    5400:	89843583          	ld	a1,-1896(s0)
    5404:	ed843703          	ld	a4,-296(s0)
