
code.o:     file format elf64-littleriscv


Disassembly of section .text.main_dispatch_75_matmul_196x384x64_i8xi8xi32:

0000000000000000 <main_dispatch_75_matmul_196x384x64_i8xi8xi32>:
       0:	f1501173          	csrrw	sp,0xf15,zero

0000000000000004 <.Lfunc_begin64>:
       4:	81010113          	addi	sp,sp,-2032
       8:	7e113423          	sd	ra,2024(sp)
       c:	7e813023          	sd	s0,2016(sp)
      10:	7c913c23          	sd	s1,2008(sp)
      14:	7d213823          	sd	s2,2000(sp)
      18:	7d313423          	sd	s3,1992(sp)
      1c:	7d413023          	sd	s4,1984(sp)
      20:	7b513c23          	sd	s5,1976(sp)
      24:	7b613823          	sd	s6,1968(sp)
      28:	7b713423          	sd	s7,1960(sp)
      2c:	7b813023          	sd	s8,1952(sp)
      30:	79913c23          	sd	s9,1944(sp)
      34:	79a13823          	sd	s10,1936(sp)
      38:	79b13423          	sd	s11,1928(sp)
      3c:	7f010413          	addi	s0,sp,2032
      40:	80010113          	addi	sp,sp,-2048
      44:	cf010113          	addi	sp,sp,-784
      48:	0205b583          	ld	a1,32(a1)
      4c:	00000513          	li	a0,0
      50:	0085b603          	ld	a2,8(a1)
      54:	0005b703          	ld	a4,0(a1)
      58:	0004c6b7          	lui	a3,0x4c
      5c:	1806869b          	addiw	a3,a3,384 # 4c180 <.Lfunc_end80+0x237b4>
      60:	00d603b3          	add	t2,a2,a3
      64:	0001c6b7          	lui	a3,0x1c
      68:	2806869b          	addiw	a3,a3,640 # 1c280 <.LBB41_3527+0x8>
      6c:	00d606b3          	add	a3,a2,a3
      70:	000017b7          	lui	a5,0x1
      74:	40f407b3          	sub	a5,s0,a5
      78:	d6d7b823          	sd	a3,-656(a5) # d70 <.LBB64_3+0xb58>
      7c:	0105b583          	ld	a1,16(a1)
      80:	000526b7          	lui	a3,0x52
      84:	1806869b          	addiw	a3,a3,384 # 52180 <.Lfunc_end80+0x297b4>
      88:	00d60633          	add	a2,a2,a3
      8c:	000016b7          	lui	a3,0x1
      90:	40d406b3          	sub	a3,s0,a3
      94:	d6c6b423          	sd	a2,-664(a3) # d68 <.LBB64_3+0xb50>
      98:	34058593          	addi	a1,a1,832
      9c:	00001637          	lui	a2,0x1
      a0:	40c40633          	sub	a2,s0,a2
      a4:	d0b63423          	sd	a1,-760(a2) # d08 <.LBB64_3+0xaf0>
      a8:	000135b7          	lui	a1,0x13
      ac:	b005859b          	addiw	a1,a1,-1280 # 12b00 <.LBB60_2101>
      b0:	00001637          	lui	a2,0x1
      b4:	40c40633          	sub	a2,s0,a2
      b8:	d0e63c23          	sd	a4,-744(a2) # d18 <.LBB64_3+0xb00>
      bc:	00b705b3          	add	a1,a4,a1
      c0:	00001637          	lui	a2,0x1
      c4:	40c40633          	sub	a2,s0,a2
      c8:	d6b63c23          	sd	a1,-648(a2) # d78 <.LBB64_3+0xb60>
      cc:	5f7b05b7          	lui	a1,0x5f7b0
      d0:	9d65859b          	addiw	a1,a1,-1578 # 5f7af9d6 <.Lfunc_end80+0x5f78700a>
      d4:	00001637          	lui	a2,0x1
      d8:	40c40633          	sub	a2,s0,a2
      dc:	d2b63023          	sd	a1,-736(a2) # d20 <.LBB64_3+0xb08>
      e0:	00100593          	li	a1,1
      e4:	02459593          	slli	a1,a1,0x24
      e8:	00001637          	lui	a2,0x1
      ec:	40c40633          	sub	a2,s0,a2
      f0:	64b63c23          	sd	a1,1624(a2) # 1658 <.LBB64_4+0x4ec>
      f4:	000015b7          	lui	a1,0x1
      f8:	40b405b3          	sub	a1,s0,a1
      fc:	d075b823          	sd	t2,-752(a1) # d10 <.LBB64_3+0xaf8>
     100:	0480006f          	j	148 <.LBB64_2>

0000000000000104 <.LBB64_1>:
     104:	00001537          	lui	a0,0x1
     108:	40a40533          	sub	a0,s0,a0
     10c:	d0053603          	ld	a2,-768(a0) # d00 <.LBB64_3+0xae8>
     110:	00860513          	addi	a0,a2,8
     114:	000015b7          	lui	a1,0x1
     118:	40b405b3          	sub	a1,s0,a1
     11c:	d785b583          	ld	a1,-648(a1) # d78 <.LBB64_3+0xb60>
     120:	20058593          	addi	a1,a1,512
     124:	000016b7          	lui	a3,0x1
     128:	40d406b3          	sub	a3,s0,a3
     12c:	d6b6bc23          	sd	a1,-648(a3) # d78 <.LBB64_3+0xb60>
     130:	000015b7          	lui	a1,0x1
     134:	40b405b3          	sub	a1,s0,a1
     138:	d105b383          	ld	t2,-752(a1) # d10 <.LBB64_3+0xaf8>
     13c:	0b800593          	li	a1,184
     140:	00b66463          	bltu	a2,a1,148 <.LBB64_2>
     144:	6b50a06f          	j	aff8 <.LBB64_1030>

0000000000000148 <.LBB64_2>:
     148:	00000593          	li	a1,0
     14c:	00050693          	mv	a3,a0
     150:	00251513          	slli	a0,a0,0x2
     154:	00001637          	lui	a2,0x1
     158:	40c40633          	sub	a2,s0,a2
     15c:	d1863603          	ld	a2,-744(a2) # d18 <.LBB64_3+0xb00>
     160:	00a60533          	add	a0,a2,a0
     164:	00001637          	lui	a2,0x1
     168:	40c40633          	sub	a2,s0,a2
     16c:	66a63023          	sd	a0,1632(a2) # 1660 <.LBB64_4+0x4f4>
     170:	18000513          	li	a0,384
     174:	00001637          	lui	a2,0x1
     178:	40c40633          	sub	a2,s0,a2
     17c:	d0d63023          	sd	a3,-768(a2) # d00 <.LBB64_3+0xae8>
     180:	02a68533          	mul	a0,a3,a0
     184:	00001637          	lui	a2,0x1
     188:	40c40633          	sub	a2,s0,a2
     18c:	d0863603          	ld	a2,-760(a2) # d08 <.LBB64_3+0xaf0>
     190:	00a60533          	add	a0,a2,a0
     194:	18050613          	addi	a2,a0,384
     198:	000016b7          	lui	a3,0x1
     19c:	40d406b3          	sub	a3,s0,a3
     1a0:	d4c6bc23          	sd	a2,-680(a3) # d58 <.LBB64_3+0xb40>
     1a4:	30050613          	addi	a2,a0,768
     1a8:	000016b7          	lui	a3,0x1
     1ac:	40d406b3          	sub	a3,s0,a3
     1b0:	d4c6b823          	sd	a2,-688(a3) # d50 <.LBB64_3+0xb38>
     1b4:	48050613          	addi	a2,a0,1152
     1b8:	000016b7          	lui	a3,0x1
     1bc:	40d406b3          	sub	a3,s0,a3
     1c0:	d4c6b423          	sd	a2,-696(a3) # d48 <.LBB64_3+0xb30>
     1c4:	60050613          	addi	a2,a0,1536
     1c8:	000016b7          	lui	a3,0x1
     1cc:	40d406b3          	sub	a3,s0,a3
     1d0:	d4c6b023          	sd	a2,-704(a3) # d40 <.LBB64_3+0xb28>
     1d4:	78050613          	addi	a2,a0,1920
     1d8:	000016b7          	lui	a3,0x1
     1dc:	40d406b3          	sub	a3,s0,a3
     1e0:	d2c6bc23          	sd	a2,-712(a3) # d38 <.LBB64_3+0xb20>
     1e4:	00001637          	lui	a2,0x1
     1e8:	40c40633          	sub	a2,s0,a2
     1ec:	d6a63023          	sd	a0,-672(a2) # d60 <.LBB64_3+0xb48>
     1f0:	7ff50513          	addi	a0,a0,2047
     1f4:	10150613          	addi	a2,a0,257
     1f8:	000016b7          	lui	a3,0x1
     1fc:	40d406b3          	sub	a3,s0,a3
     200:	d2c6b823          	sd	a2,-720(a3) # d30 <.LBB64_3+0xb18>
     204:	28150513          	addi	a0,a0,641
     208:	00001637          	lui	a2,0x1
     20c:	40c40633          	sub	a2,s0,a2
     210:	d2a63423          	sd	a0,-728(a2) # d28 <.LBB64_3+0xb10>
     214:	7590006f          	j	116c <.LBB64_4>

0000000000000218 <.LBB64_3>:
     218:	080d4c93          	xori	s9,s10,128
     21c:	00001c37          	lui	s8,0x1
     220:	41840c33          	sub	s8,s0,s8
     224:	d60c3c03          	ld	s8,-672(s8) # d60 <.LBB64_3+0xb48>
     228:	00001d37          	lui	s10,0x1
     22c:	41a40d33          	sub	s10,s0,s10
     230:	668d3d03          	ld	s10,1640(s10) # 1668 <.LBB64_4+0x4fc>
     234:	01ac0c33          	add	s8,s8,s10
     238:	019c01a3          	sb	s9,3(s8)
     23c:	f8843c83          	ld	s9,-120(s0)
     240:	080ccc93          	xori	s9,s9,128
     244:	019c0123          	sb	s9,2(s8)
     248:	f8043c83          	ld	s9,-128(s0)
     24c:	080ccc93          	xori	s9,s9,128
     250:	019c00a3          	sb	s9,1(s8)
     254:	f7843c83          	ld	s9,-136(s0)
     258:	080ccc93          	xori	s9,s9,128
     25c:	019c0023          	sb	s9,0(s8)
     260:	f7043c83          	ld	s9,-144(s0)
     264:	080ccc93          	xori	s9,s9,128
     268:	019c0223          	sb	s9,4(s8)
     26c:	f6843c83          	ld	s9,-152(s0)
     270:	080ccc93          	xori	s9,s9,128
     274:	019c02a3          	sb	s9,5(s8)
     278:	f6043c83          	ld	s9,-160(s0)
     27c:	080ccc93          	xori	s9,s9,128
     280:	019c0323          	sb	s9,6(s8)
     284:	f5843c83          	ld	s9,-168(s0)
     288:	080ccc93          	xori	s9,s9,128
     28c:	019c03a3          	sb	s9,7(s8)
     290:	f5043c83          	ld	s9,-176(s0)
     294:	080ccc93          	xori	s9,s9,128
     298:	019c0423          	sb	s9,8(s8)
     29c:	f4843c83          	ld	s9,-184(s0)
     2a0:	080ccc93          	xori	s9,s9,128
     2a4:	019c04a3          	sb	s9,9(s8)
     2a8:	f4043c83          	ld	s9,-192(s0)
     2ac:	080ccc93          	xori	s9,s9,128
     2b0:	019c0523          	sb	s9,10(s8)
     2b4:	f3843c83          	ld	s9,-200(s0)
     2b8:	080ccc93          	xori	s9,s9,128
     2bc:	019c05a3          	sb	s9,11(s8)
     2c0:	f3043c83          	ld	s9,-208(s0)
     2c4:	080ccc93          	xori	s9,s9,128
     2c8:	019c0623          	sb	s9,12(s8)
     2cc:	f2843c83          	ld	s9,-216(s0)
     2d0:	080ccc93          	xori	s9,s9,128
     2d4:	019c06a3          	sb	s9,13(s8)
     2d8:	f2043c83          	ld	s9,-224(s0)
     2dc:	080ccc93          	xori	s9,s9,128
     2e0:	019c0723          	sb	s9,14(s8)
     2e4:	f1843c83          	ld	s9,-232(s0)
     2e8:	080ccc93          	xori	s9,s9,128
     2ec:	019c07a3          	sb	s9,15(s8)
     2f0:	f1043c83          	ld	s9,-240(s0)
     2f4:	080ccc93          	xori	s9,s9,128
     2f8:	019c0823          	sb	s9,16(s8)
     2fc:	f0843c83          	ld	s9,-248(s0)
     300:	080ccc93          	xori	s9,s9,128
     304:	019c08a3          	sb	s9,17(s8)
     308:	f0043c83          	ld	s9,-256(s0)
     30c:	080ccc93          	xori	s9,s9,128
     310:	019c0923          	sb	s9,18(s8)
     314:	ef843c83          	ld	s9,-264(s0)
     318:	080ccc93          	xori	s9,s9,128
     31c:	019c09a3          	sb	s9,19(s8)
     320:	ef043c83          	ld	s9,-272(s0)
     324:	080ccc93          	xori	s9,s9,128
     328:	019c0a23          	sb	s9,20(s8)
     32c:	ee043c83          	ld	s9,-288(s0)
     330:	080ccc93          	xori	s9,s9,128
     334:	019c0aa3          	sb	s9,21(s8)
     338:	ed843c83          	ld	s9,-296(s0)
     33c:	080ccc93          	xori	s9,s9,128
     340:	019c0b23          	sb	s9,22(s8)
     344:	ed043c83          	ld	s9,-304(s0)
     348:	080ccc93          	xori	s9,s9,128
     34c:	019c0ba3          	sb	s9,23(s8)
     350:	ea843c83          	ld	s9,-344(s0)
     354:	080ccc93          	xori	s9,s9,128
     358:	019c0c23          	sb	s9,24(s8)
     35c:	e7843c83          	ld	s9,-392(s0)
     360:	080ccc93          	xori	s9,s9,128
     364:	019c0ca3          	sb	s9,25(s8)
     368:	e5843c83          	ld	s9,-424(s0)
     36c:	080ccc93          	xori	s9,s9,128
     370:	019c0d23          	sb	s9,26(s8)
     374:	e2843c83          	ld	s9,-472(s0)
     378:	080ccc93          	xori	s9,s9,128
     37c:	019c0da3          	sb	s9,27(s8)
     380:	e2043c83          	ld	s9,-480(s0)
     384:	080ccc93          	xori	s9,s9,128
     388:	019c0e23          	sb	s9,28(s8)
     38c:	e1843c83          	ld	s9,-488(s0)
     390:	080ccc93          	xori	s9,s9,128
     394:	019c0ea3          	sb	s9,29(s8)
     398:	e1043c83          	ld	s9,-496(s0)
     39c:	080ccc93          	xori	s9,s9,128
     3a0:	019c0f23          	sb	s9,30(s8)
     3a4:	e0843c83          	ld	s9,-504(s0)
     3a8:	080ccc93          	xori	s9,s9,128
     3ac:	019c0fa3          	sb	s9,31(s8)
     3b0:	e0043c03          	ld	s8,-512(s0)
     3b4:	080c4c93          	xori	s9,s8,128
     3b8:	00001c37          	lui	s8,0x1
     3bc:	41840c33          	sub	s8,s0,s8
     3c0:	d58c3c03          	ld	s8,-680(s8) # d58 <.LBB64_3+0xb40>
     3c4:	01ac0c33          	add	s8,s8,s10
     3c8:	019c01a3          	sb	s9,3(s8)
     3cc:	df843c83          	ld	s9,-520(s0)
     3d0:	080ccc93          	xori	s9,s9,128
     3d4:	019c0123          	sb	s9,2(s8)
     3d8:	df043c83          	ld	s9,-528(s0)
     3dc:	080ccc93          	xori	s9,s9,128
     3e0:	019c00a3          	sb	s9,1(s8)
     3e4:	de843c83          	ld	s9,-536(s0)
     3e8:	080ccc93          	xori	s9,s9,128
     3ec:	019c0023          	sb	s9,0(s8)
     3f0:	dd843c83          	ld	s9,-552(s0)
     3f4:	080ccc93          	xori	s9,s9,128
     3f8:	019c0223          	sb	s9,4(s8)
     3fc:	dd043c83          	ld	s9,-560(s0)
     400:	080ccc93          	xori	s9,s9,128
     404:	019c02a3          	sb	s9,5(s8)
     408:	b8843c83          	ld	s9,-1144(s0)
     40c:	080ccc93          	xori	s9,s9,128
     410:	019c0323          	sb	s9,6(s8)
     414:	b4043c83          	ld	s9,-1216(s0)
     418:	080ccc93          	xori	s9,s9,128
     41c:	019c03a3          	sb	s9,7(s8)
     420:	ae843c83          	ld	s9,-1304(s0)
     424:	080ccc93          	xori	s9,s9,128
     428:	019c0423          	sb	s9,8(s8)
     42c:	aa843c83          	ld	s9,-1368(s0)
     430:	080ccc93          	xori	s9,s9,128
     434:	019c04a3          	sb	s9,9(s8)
     438:	a6043c83          	ld	s9,-1440(s0)
     43c:	080ccc93          	xori	s9,s9,128
     440:	019c0523          	sb	s9,10(s8)
     444:	a2043c83          	ld	s9,-1504(s0)
     448:	080ccc93          	xori	s9,s9,128
     44c:	019c05a3          	sb	s9,11(s8)
     450:	9e043c83          	ld	s9,-1568(s0)
     454:	080ccc93          	xori	s9,s9,128
     458:	019c0623          	sb	s9,12(s8)
     45c:	99843c83          	ld	s9,-1640(s0)
     460:	080ccc93          	xori	s9,s9,128
     464:	019c06a3          	sb	s9,13(s8)
     468:	95843c83          	ld	s9,-1704(s0)
     46c:	080ccc93          	xori	s9,s9,128
     470:	019c0723          	sb	s9,14(s8)
     474:	92043c83          	ld	s9,-1760(s0)
     478:	080ccc93          	xori	s9,s9,128
     47c:	019c07a3          	sb	s9,15(s8)
     480:	8d843c83          	ld	s9,-1832(s0)
     484:	080ccc93          	xori	s9,s9,128
     488:	019c0823          	sb	s9,16(s8)
     48c:	89843c83          	ld	s9,-1896(s0)
     490:	080ccc93          	xori	s9,s9,128
     494:	019c08a3          	sb	s9,17(s8)
     498:	85843c83          	ld	s9,-1960(s0)
     49c:	080ccc93          	xori	s9,s9,128
     4a0:	019c0923          	sb	s9,18(s8)
     4a4:	81043c83          	ld	s9,-2032(s0)
     4a8:	080ccc93          	xori	s9,s9,128
     4ac:	019c09a3          	sb	s9,19(s8)
     4b0:	00001cb7          	lui	s9,0x1
     4b4:	41940cb3          	sub	s9,s0,s9
     4b8:	7d8cbc83          	ld	s9,2008(s9) # 17d8 <.LBB64_5+0xd0>
     4bc:	080ccc93          	xori	s9,s9,128
     4c0:	019c0a23          	sb	s9,20(s8)
     4c4:	00001cb7          	lui	s9,0x1
     4c8:	41940cb3          	sub	s9,s0,s9
     4cc:	798cbc83          	ld	s9,1944(s9) # 1798 <.LBB64_5+0x90>
     4d0:	080ccc93          	xori	s9,s9,128
     4d4:	019c0aa3          	sb	s9,21(s8)
     4d8:	00001cb7          	lui	s9,0x1
     4dc:	41940cb3          	sub	s9,s0,s9
     4e0:	778cbc83          	ld	s9,1912(s9) # 1778 <.LBB64_5+0x70>
     4e4:	080ccc93          	xori	s9,s9,128
     4e8:	019c0b23          	sb	s9,22(s8)
     4ec:	00001cb7          	lui	s9,0x1
     4f0:	41940cb3          	sub	s9,s0,s9
     4f4:	770cbc83          	ld	s9,1904(s9) # 1770 <.LBB64_5+0x68>
     4f8:	080ccc93          	xori	s9,s9,128
     4fc:	019c0ba3          	sb	s9,23(s8)
     500:	00001cb7          	lui	s9,0x1
     504:	41940cb3          	sub	s9,s0,s9
     508:	768cbc83          	ld	s9,1896(s9) # 1768 <.LBB64_5+0x60>
     50c:	080ccc93          	xori	s9,s9,128
     510:	019c0c23          	sb	s9,24(s8)
     514:	00001cb7          	lui	s9,0x1
     518:	41940cb3          	sub	s9,s0,s9
     51c:	760cbc83          	ld	s9,1888(s9) # 1760 <.LBB64_5+0x58>
     520:	080ccc93          	xori	s9,s9,128
     524:	019c0ca3          	sb	s9,25(s8)
     528:	00001cb7          	lui	s9,0x1
     52c:	41940cb3          	sub	s9,s0,s9
     530:	758cbc83          	ld	s9,1880(s9) # 1758 <.LBB64_5+0x50>
     534:	080ccc93          	xori	s9,s9,128
     538:	019c0d23          	sb	s9,26(s8)
     53c:	00001cb7          	lui	s9,0x1
     540:	41940cb3          	sub	s9,s0,s9
     544:	750cbc83          	ld	s9,1872(s9) # 1750 <.LBB64_5+0x48>
     548:	080ccc93          	xori	s9,s9,128
     54c:	019c0da3          	sb	s9,27(s8)
     550:	00001cb7          	lui	s9,0x1
     554:	41940cb3          	sub	s9,s0,s9
     558:	748cbc83          	ld	s9,1864(s9) # 1748 <.LBB64_5+0x40>
     55c:	080ccc93          	xori	s9,s9,128
     560:	019c0e23          	sb	s9,28(s8)
     564:	00001cb7          	lui	s9,0x1
     568:	41940cb3          	sub	s9,s0,s9
     56c:	740cbc83          	ld	s9,1856(s9) # 1740 <.LBB64_5+0x38>
     570:	080ccc93          	xori	s9,s9,128
     574:	019c0ea3          	sb	s9,29(s8)
     578:	00001cb7          	lui	s9,0x1
     57c:	41940cb3          	sub	s9,s0,s9
     580:	738cbc83          	ld	s9,1848(s9) # 1738 <.LBB64_5+0x30>
     584:	080ccc93          	xori	s9,s9,128
     588:	019c0f23          	sb	s9,30(s8)
     58c:	00001cb7          	lui	s9,0x1
     590:	41940cb3          	sub	s9,s0,s9
     594:	730cbc83          	ld	s9,1840(s9) # 1730 <.LBB64_5+0x28>
     598:	080ccc93          	xori	s9,s9,128
     59c:	019c0fa3          	sb	s9,31(s8)
     5a0:	00001c37          	lui	s8,0x1
     5a4:	41840c33          	sub	s8,s0,s8
     5a8:	728c3c03          	ld	s8,1832(s8) # 1728 <.LBB64_5+0x20>
     5ac:	080c4c93          	xori	s9,s8,128
     5b0:	00001c37          	lui	s8,0x1
     5b4:	41840c33          	sub	s8,s0,s8
     5b8:	d50c3c03          	ld	s8,-688(s8) # d50 <.LBB64_3+0xb38>
     5bc:	01ac0c33          	add	s8,s8,s10
     5c0:	019c01a3          	sb	s9,3(s8)
     5c4:	00001cb7          	lui	s9,0x1
     5c8:	41940cb3          	sub	s9,s0,s9
     5cc:	720cbc83          	ld	s9,1824(s9) # 1720 <.LBB64_5+0x18>
     5d0:	080ccc93          	xori	s9,s9,128
     5d4:	019c0123          	sb	s9,2(s8)
     5d8:	00001cb7          	lui	s9,0x1
     5dc:	41940cb3          	sub	s9,s0,s9
     5e0:	718cbc83          	ld	s9,1816(s9) # 1718 <.LBB64_5+0x10>
     5e4:	080ccc93          	xori	s9,s9,128
     5e8:	019c00a3          	sb	s9,1(s8)
     5ec:	00001cb7          	lui	s9,0x1
     5f0:	41940cb3          	sub	s9,s0,s9
     5f4:	710cbc83          	ld	s9,1808(s9) # 1710 <.LBB64_5+0x8>
     5f8:	080ccc93          	xori	s9,s9,128
     5fc:	019c0023          	sb	s9,0(s8)
     600:	00001cb7          	lui	s9,0x1
     604:	41940cb3          	sub	s9,s0,s9
     608:	708cbc83          	ld	s9,1800(s9) # 1708 <.LBB64_5>
     60c:	080ccc93          	xori	s9,s9,128
     610:	019c0223          	sb	s9,4(s8)
     614:	00001cb7          	lui	s9,0x1
     618:	41940cb3          	sub	s9,s0,s9
     61c:	700cbc83          	ld	s9,1792(s9) # 1700 <.LBB64_4+0x594>
     620:	080ccc93          	xori	s9,s9,128
     624:	019c02a3          	sb	s9,5(s8)
     628:	00001cb7          	lui	s9,0x1
     62c:	41940cb3          	sub	s9,s0,s9
     630:	6f8cbc83          	ld	s9,1784(s9) # 16f8 <.LBB64_4+0x58c>
     634:	080ccc93          	xori	s9,s9,128
     638:	019c0323          	sb	s9,6(s8)
     63c:	00001cb7          	lui	s9,0x1
     640:	41940cb3          	sub	s9,s0,s9
     644:	6f0cbc83          	ld	s9,1776(s9) # 16f0 <.LBB64_4+0x584>
     648:	080ccc93          	xori	s9,s9,128
     64c:	019c03a3          	sb	s9,7(s8)
     650:	00001cb7          	lui	s9,0x1
     654:	41940cb3          	sub	s9,s0,s9
     658:	6e8cbc83          	ld	s9,1768(s9) # 16e8 <.LBB64_4+0x57c>
     65c:	080ccc93          	xori	s9,s9,128
     660:	019c0423          	sb	s9,8(s8)
     664:	00001cb7          	lui	s9,0x1
     668:	41940cb3          	sub	s9,s0,s9
     66c:	6e0cbc83          	ld	s9,1760(s9) # 16e0 <.LBB64_4+0x574>
     670:	080ccc93          	xori	s9,s9,128
     674:	019c04a3          	sb	s9,9(s8)
     678:	00001cb7          	lui	s9,0x1
     67c:	41940cb3          	sub	s9,s0,s9
     680:	6d8cbc83          	ld	s9,1752(s9) # 16d8 <.LBB64_4+0x56c>
     684:	080ccc93          	xori	s9,s9,128
     688:	019c0523          	sb	s9,10(s8)
     68c:	00001cb7          	lui	s9,0x1
     690:	41940cb3          	sub	s9,s0,s9
     694:	6d0cbc83          	ld	s9,1744(s9) # 16d0 <.LBB64_4+0x564>
     698:	080ccc93          	xori	s9,s9,128
     69c:	019c05a3          	sb	s9,11(s8)
     6a0:	00001cb7          	lui	s9,0x1
     6a4:	41940cb3          	sub	s9,s0,s9
     6a8:	6c8cbc83          	ld	s9,1736(s9) # 16c8 <.LBB64_4+0x55c>
     6ac:	080ccc93          	xori	s9,s9,128
     6b0:	019c0623          	sb	s9,12(s8)
     6b4:	00001cb7          	lui	s9,0x1
     6b8:	41940cb3          	sub	s9,s0,s9
     6bc:	6c0cbc83          	ld	s9,1728(s9) # 16c0 <.LBB64_4+0x554>
     6c0:	080ccc93          	xori	s9,s9,128
     6c4:	019c06a3          	sb	s9,13(s8)
     6c8:	00001cb7          	lui	s9,0x1
     6cc:	41940cb3          	sub	s9,s0,s9
     6d0:	6b8cbc83          	ld	s9,1720(s9) # 16b8 <.LBB64_4+0x54c>
     6d4:	080ccc93          	xori	s9,s9,128
     6d8:	019c0723          	sb	s9,14(s8)
     6dc:	00001cb7          	lui	s9,0x1
     6e0:	41940cb3          	sub	s9,s0,s9
     6e4:	6b0cbc83          	ld	s9,1712(s9) # 16b0 <.LBB64_4+0x544>
     6e8:	080ccc93          	xori	s9,s9,128
     6ec:	019c07a3          	sb	s9,15(s8)
     6f0:	00001cb7          	lui	s9,0x1
     6f4:	41940cb3          	sub	s9,s0,s9
     6f8:	6a8cbc83          	ld	s9,1704(s9) # 16a8 <.LBB64_4+0x53c>
     6fc:	080ccc93          	xori	s9,s9,128
     700:	019c0823          	sb	s9,16(s8)
     704:	00001cb7          	lui	s9,0x1
     708:	41940cb3          	sub	s9,s0,s9
     70c:	6a0cbc83          	ld	s9,1696(s9) # 16a0 <.LBB64_4+0x534>
     710:	080ccc93          	xori	s9,s9,128
     714:	019c08a3          	sb	s9,17(s8)
     718:	00001cb7          	lui	s9,0x1
     71c:	41940cb3          	sub	s9,s0,s9
     720:	698cbc83          	ld	s9,1688(s9) # 1698 <.LBB64_4+0x52c>
     724:	080ccc93          	xori	s9,s9,128
     728:	019c0923          	sb	s9,18(s8)
     72c:	00001cb7          	lui	s9,0x1
     730:	41940cb3          	sub	s9,s0,s9
     734:	690cbc83          	ld	s9,1680(s9) # 1690 <.LBB64_4+0x524>
     738:	080ccc93          	xori	s9,s9,128
     73c:	019c09a3          	sb	s9,19(s8)
     740:	00001cb7          	lui	s9,0x1
     744:	41940cb3          	sub	s9,s0,s9
     748:	678cbc83          	ld	s9,1656(s9) # 1678 <.LBB64_4+0x50c>
     74c:	080ccc93          	xori	s9,s9,128
     750:	019c0a23          	sb	s9,20(s8)
     754:	00001cb7          	lui	s9,0x1
     758:	41940cb3          	sub	s9,s0,s9
     75c:	670cbc83          	ld	s9,1648(s9) # 1670 <.LBB64_4+0x504>
     760:	080ccc93          	xori	s9,s9,128
     764:	019c0aa3          	sb	s9,21(s8)
     768:	00001cb7          	lui	s9,0x1
     76c:	41940cb3          	sub	s9,s0,s9
     770:	2d0cbc83          	ld	s9,720(s9) # 12d0 <.LBB64_4+0x164>
     774:	080ccc93          	xori	s9,s9,128
     778:	019c0b23          	sb	s9,22(s8)
     77c:	00001cb7          	lui	s9,0x1
     780:	41940cb3          	sub	s9,s0,s9
     784:	2e0cbc83          	ld	s9,736(s9) # 12e0 <.LBB64_4+0x174>
     788:	080ccc93          	xori	s9,s9,128
     78c:	019c0ba3          	sb	s9,23(s8)
     790:	00001cb7          	lui	s9,0x1
     794:	41940cb3          	sub	s9,s0,s9
     798:	2f0cbc83          	ld	s9,752(s9) # 12f0 <.LBB64_4+0x184>
     79c:	080ccc93          	xori	s9,s9,128
     7a0:	019c0c23          	sb	s9,24(s8)
     7a4:	00001cb7          	lui	s9,0x1
     7a8:	41940cb3          	sub	s9,s0,s9
     7ac:	300cbc83          	ld	s9,768(s9) # 1300 <.LBB64_4+0x194>
     7b0:	080ccc93          	xori	s9,s9,128
     7b4:	019c0ca3          	sb	s9,25(s8)
     7b8:	00001cb7          	lui	s9,0x1
     7bc:	41940cb3          	sub	s9,s0,s9
     7c0:	310cbc83          	ld	s9,784(s9) # 1310 <.LBB64_4+0x1a4>
     7c4:	080ccc93          	xori	s9,s9,128
     7c8:	019c0d23          	sb	s9,26(s8)
     7cc:	00001cb7          	lui	s9,0x1
     7d0:	41940cb3          	sub	s9,s0,s9
     7d4:	320cbc83          	ld	s9,800(s9) # 1320 <.LBB64_4+0x1b4>
     7d8:	080ccc93          	xori	s9,s9,128
     7dc:	019c0da3          	sb	s9,27(s8)
     7e0:	00001cb7          	lui	s9,0x1
     7e4:	41940cb3          	sub	s9,s0,s9
     7e8:	330cbc83          	ld	s9,816(s9) # 1330 <.LBB64_4+0x1c4>
     7ec:	080ccc93          	xori	s9,s9,128
     7f0:	019c0e23          	sb	s9,28(s8)
     7f4:	00001cb7          	lui	s9,0x1
     7f8:	41940cb3          	sub	s9,s0,s9
     7fc:	340cbc83          	ld	s9,832(s9) # 1340 <.LBB64_4+0x1d4>
     800:	080ccc93          	xori	s9,s9,128
     804:	019c0ea3          	sb	s9,29(s8)
     808:	00001cb7          	lui	s9,0x1
     80c:	41940cb3          	sub	s9,s0,s9
     810:	350cbc83          	ld	s9,848(s9) # 1350 <.LBB64_4+0x1e4>
     814:	080ccc93          	xori	s9,s9,128
     818:	019c0f23          	sb	s9,30(s8)
     81c:	00001cb7          	lui	s9,0x1
     820:	41940cb3          	sub	s9,s0,s9
     824:	360cbc83          	ld	s9,864(s9) # 1360 <.LBB64_4+0x1f4>
     828:	080ccc93          	xori	s9,s9,128
     82c:	019c0fa3          	sb	s9,31(s8)
     830:	00001c37          	lui	s8,0x1
     834:	41840c33          	sub	s8,s0,s8
     838:	370c3c03          	ld	s8,880(s8) # 1370 <.LBB64_4+0x204>
     83c:	080c4c93          	xori	s9,s8,128
     840:	00001c37          	lui	s8,0x1
     844:	41840c33          	sub	s8,s0,s8
     848:	d48c3c03          	ld	s8,-696(s8) # d48 <.LBB64_3+0xb30>
     84c:	01ac0c33          	add	s8,s8,s10
     850:	019c01a3          	sb	s9,3(s8)
     854:	00001cb7          	lui	s9,0x1
     858:	41940cb3          	sub	s9,s0,s9
     85c:	380cbc83          	ld	s9,896(s9) # 1380 <.LBB64_4+0x214>
     860:	080ccc93          	xori	s9,s9,128
     864:	019c0123          	sb	s9,2(s8)
     868:	00001cb7          	lui	s9,0x1
     86c:	41940cb3          	sub	s9,s0,s9
     870:	390cbc83          	ld	s9,912(s9) # 1390 <.LBB64_4+0x224>
     874:	080ccc93          	xori	s9,s9,128
     878:	019c00a3          	sb	s9,1(s8)
     87c:	00001cb7          	lui	s9,0x1
     880:	41940cb3          	sub	s9,s0,s9
     884:	3a0cbc83          	ld	s9,928(s9) # 13a0 <.LBB64_4+0x234>
     888:	080ccc93          	xori	s9,s9,128
     88c:	019c0023          	sb	s9,0(s8)
     890:	00001cb7          	lui	s9,0x1
     894:	41940cb3          	sub	s9,s0,s9
     898:	3b0cbc83          	ld	s9,944(s9) # 13b0 <.LBB64_4+0x244>
     89c:	080ccc93          	xori	s9,s9,128
     8a0:	019c0223          	sb	s9,4(s8)
     8a4:	00001cb7          	lui	s9,0x1
     8a8:	41940cb3          	sub	s9,s0,s9
     8ac:	3c0cbc83          	ld	s9,960(s9) # 13c0 <.LBB64_4+0x254>
     8b0:	080ccc93          	xori	s9,s9,128
     8b4:	019c02a3          	sb	s9,5(s8)
     8b8:	00001cb7          	lui	s9,0x1
     8bc:	41940cb3          	sub	s9,s0,s9
     8c0:	3d0cbc83          	ld	s9,976(s9) # 13d0 <.LBB64_4+0x264>
     8c4:	080ccc93          	xori	s9,s9,128
     8c8:	019c0323          	sb	s9,6(s8)
     8cc:	00001cb7          	lui	s9,0x1
     8d0:	41940cb3          	sub	s9,s0,s9
     8d4:	3e0cbc83          	ld	s9,992(s9) # 13e0 <.LBB64_4+0x274>
     8d8:	080ccc93          	xori	s9,s9,128
     8dc:	019c03a3          	sb	s9,7(s8)
     8e0:	00001cb7          	lui	s9,0x1
     8e4:	41940cb3          	sub	s9,s0,s9
     8e8:	3f0cbc83          	ld	s9,1008(s9) # 13f0 <.LBB64_4+0x284>
     8ec:	080ccc93          	xori	s9,s9,128
     8f0:	019c0423          	sb	s9,8(s8)
     8f4:	00001cb7          	lui	s9,0x1
     8f8:	41940cb3          	sub	s9,s0,s9
     8fc:	400cbc83          	ld	s9,1024(s9) # 1400 <.LBB64_4+0x294>
     900:	080ccc93          	xori	s9,s9,128
     904:	019c04a3          	sb	s9,9(s8)
     908:	00001cb7          	lui	s9,0x1
     90c:	41940cb3          	sub	s9,s0,s9
     910:	410cbc83          	ld	s9,1040(s9) # 1410 <.LBB64_4+0x2a4>
     914:	080ccc93          	xori	s9,s9,128
     918:	019c0523          	sb	s9,10(s8)
     91c:	00001cb7          	lui	s9,0x1
     920:	41940cb3          	sub	s9,s0,s9
     924:	420cbc83          	ld	s9,1056(s9) # 1420 <.LBB64_4+0x2b4>
     928:	080ccc93          	xori	s9,s9,128
     92c:	019c05a3          	sb	s9,11(s8)
     930:	00001cb7          	lui	s9,0x1
     934:	41940cb3          	sub	s9,s0,s9
     938:	430cbc83          	ld	s9,1072(s9) # 1430 <.LBB64_4+0x2c4>
     93c:	080ccc93          	xori	s9,s9,128
     940:	019c0623          	sb	s9,12(s8)
     944:	00001cb7          	lui	s9,0x1
     948:	41940cb3          	sub	s9,s0,s9
     94c:	440cbc83          	ld	s9,1088(s9) # 1440 <.LBB64_4+0x2d4>
     950:	080ccc93          	xori	s9,s9,128
     954:	019c06a3          	sb	s9,13(s8)
     958:	00001cb7          	lui	s9,0x1
     95c:	41940cb3          	sub	s9,s0,s9
     960:	450cbc83          	ld	s9,1104(s9) # 1450 <.LBB64_4+0x2e4>
     964:	080ccc93          	xori	s9,s9,128
     968:	019c0723          	sb	s9,14(s8)
     96c:	00001cb7          	lui	s9,0x1
     970:	41940cb3          	sub	s9,s0,s9
     974:	460cbc83          	ld	s9,1120(s9) # 1460 <.LBB64_4+0x2f4>
     978:	080ccc93          	xori	s9,s9,128
     97c:	019c07a3          	sb	s9,15(s8)
     980:	00001cb7          	lui	s9,0x1
     984:	41940cb3          	sub	s9,s0,s9
     988:	470cbc83          	ld	s9,1136(s9) # 1470 <.LBB64_4+0x304>
     98c:	080ccc93          	xori	s9,s9,128
     990:	019c0823          	sb	s9,16(s8)
     994:	00001cb7          	lui	s9,0x1
     998:	41940cb3          	sub	s9,s0,s9
     99c:	480cbc83          	ld	s9,1152(s9) # 1480 <.LBB64_4+0x314>
     9a0:	080ccc93          	xori	s9,s9,128
     9a4:	019c08a3          	sb	s9,17(s8)
     9a8:	00001cb7          	lui	s9,0x1
     9ac:	41940cb3          	sub	s9,s0,s9
     9b0:	490cbc83          	ld	s9,1168(s9) # 1490 <.LBB64_4+0x324>
     9b4:	080ccc93          	xori	s9,s9,128
     9b8:	019c0923          	sb	s9,18(s8)
     9bc:	00001cb7          	lui	s9,0x1
     9c0:	41940cb3          	sub	s9,s0,s9
     9c4:	4a0cbc83          	ld	s9,1184(s9) # 14a0 <.LBB64_4+0x334>
     9c8:	080ccc93          	xori	s9,s9,128
     9cc:	019c09a3          	sb	s9,19(s8)
     9d0:	00001cb7          	lui	s9,0x1
     9d4:	41940cb3          	sub	s9,s0,s9
     9d8:	4b0cbc83          	ld	s9,1200(s9) # 14b0 <.LBB64_4+0x344>
     9dc:	080ccc93          	xori	s9,s9,128
     9e0:	019c0a23          	sb	s9,20(s8)
     9e4:	00001cb7          	lui	s9,0x1
     9e8:	41940cb3          	sub	s9,s0,s9
     9ec:	4c0cbc83          	ld	s9,1216(s9) # 14c0 <.LBB64_4+0x354>
     9f0:	080ccc93          	xori	s9,s9,128
     9f4:	019c0aa3          	sb	s9,21(s8)
     9f8:	00001cb7          	lui	s9,0x1
     9fc:	41940cb3          	sub	s9,s0,s9
     a00:	4d0cbc83          	ld	s9,1232(s9) # 14d0 <.LBB64_4+0x364>
     a04:	080ccc93          	xori	s9,s9,128
     a08:	019c0b23          	sb	s9,22(s8)
     a0c:	00001cb7          	lui	s9,0x1
     a10:	41940cb3          	sub	s9,s0,s9
     a14:	4e0cbc83          	ld	s9,1248(s9) # 14e0 <.LBB64_4+0x374>
     a18:	080ccc93          	xori	s9,s9,128
     a1c:	019c0ba3          	sb	s9,23(s8)
     a20:	00001cb7          	lui	s9,0x1
     a24:	41940cb3          	sub	s9,s0,s9
     a28:	4f0cbc83          	ld	s9,1264(s9) # 14f0 <.LBB64_4+0x384>
     a2c:	080ccc93          	xori	s9,s9,128
     a30:	019c0c23          	sb	s9,24(s8)
     a34:	00001cb7          	lui	s9,0x1
     a38:	41940cb3          	sub	s9,s0,s9
     a3c:	500cbc83          	ld	s9,1280(s9) # 1500 <.LBB64_4+0x394>
     a40:	080ccc93          	xori	s9,s9,128
     a44:	019c0ca3          	sb	s9,25(s8)
     a48:	00001cb7          	lui	s9,0x1
     a4c:	41940cb3          	sub	s9,s0,s9
     a50:	510cbc83          	ld	s9,1296(s9) # 1510 <.LBB64_4+0x3a4>
     a54:	080ccc93          	xori	s9,s9,128
     a58:	019c0d23          	sb	s9,26(s8)
     a5c:	00001cb7          	lui	s9,0x1
     a60:	41940cb3          	sub	s9,s0,s9
     a64:	520cbc83          	ld	s9,1312(s9) # 1520 <.LBB64_4+0x3b4>
     a68:	080ccc93          	xori	s9,s9,128
     a6c:	019c0da3          	sb	s9,27(s8)
     a70:	00001cb7          	lui	s9,0x1
     a74:	41940cb3          	sub	s9,s0,s9
     a78:	530cbc83          	ld	s9,1328(s9) # 1530 <.LBB64_4+0x3c4>
     a7c:	080ccc93          	xori	s9,s9,128
     a80:	019c0e23          	sb	s9,28(s8)
     a84:	00001cb7          	lui	s9,0x1
     a88:	41940cb3          	sub	s9,s0,s9
     a8c:	540cbc83          	ld	s9,1344(s9) # 1540 <.LBB64_4+0x3d4>
     a90:	080ccc93          	xori	s9,s9,128
     a94:	019c0ea3          	sb	s9,29(s8)
     a98:	00001cb7          	lui	s9,0x1
     a9c:	41940cb3          	sub	s9,s0,s9
     aa0:	550cbc83          	ld	s9,1360(s9) # 1550 <.LBB64_4+0x3e4>
     aa4:	080ccc93          	xori	s9,s9,128
     aa8:	019c0f23          	sb	s9,30(s8)
     aac:	00001cb7          	lui	s9,0x1
     ab0:	41940cb3          	sub	s9,s0,s9
     ab4:	560cbc83          	ld	s9,1376(s9) # 1560 <.LBB64_4+0x3f4>
     ab8:	080ccc93          	xori	s9,s9,128
     abc:	019c0fa3          	sb	s9,31(s8)
     ac0:	00001c37          	lui	s8,0x1
     ac4:	41840c33          	sub	s8,s0,s8
     ac8:	570c3c03          	ld	s8,1392(s8) # 1570 <.LBB64_4+0x404>
     acc:	080c4c93          	xori	s9,s8,128
     ad0:	00001c37          	lui	s8,0x1
     ad4:	41840c33          	sub	s8,s0,s8
     ad8:	d40c3c03          	ld	s8,-704(s8) # d40 <.LBB64_3+0xb28>
     adc:	01ac0c33          	add	s8,s8,s10
     ae0:	019c01a3          	sb	s9,3(s8)
     ae4:	00001cb7          	lui	s9,0x1
     ae8:	41940cb3          	sub	s9,s0,s9
     aec:	580cbc83          	ld	s9,1408(s9) # 1580 <.LBB64_4+0x414>
     af0:	080ccc93          	xori	s9,s9,128
     af4:	019c0123          	sb	s9,2(s8)
     af8:	00001cb7          	lui	s9,0x1
     afc:	41940cb3          	sub	s9,s0,s9
     b00:	590cbc83          	ld	s9,1424(s9) # 1590 <.LBB64_4+0x424>
     b04:	080ccc93          	xori	s9,s9,128
     b08:	019c00a3          	sb	s9,1(s8)
     b0c:	00001cb7          	lui	s9,0x1
     b10:	41940cb3          	sub	s9,s0,s9
     b14:	5a0cbc83          	ld	s9,1440(s9) # 15a0 <.LBB64_4+0x434>
     b18:	080ccc93          	xori	s9,s9,128
     b1c:	019c0023          	sb	s9,0(s8)
     b20:	00001cb7          	lui	s9,0x1
     b24:	41940cb3          	sub	s9,s0,s9
     b28:	5b0cbc83          	ld	s9,1456(s9) # 15b0 <.LBB64_4+0x444>
     b2c:	080ccc93          	xori	s9,s9,128
     b30:	019c0223          	sb	s9,4(s8)
     b34:	00001cb7          	lui	s9,0x1
     b38:	41940cb3          	sub	s9,s0,s9
     b3c:	5c0cbc83          	ld	s9,1472(s9) # 15c0 <.LBB64_4+0x454>
     b40:	080ccc93          	xori	s9,s9,128
     b44:	019c02a3          	sb	s9,5(s8)
     b48:	00001cb7          	lui	s9,0x1
     b4c:	41940cb3          	sub	s9,s0,s9
     b50:	5d0cbc83          	ld	s9,1488(s9) # 15d0 <.LBB64_4+0x464>
     b54:	080ccc93          	xori	s9,s9,128
     b58:	019c0323          	sb	s9,6(s8)
     b5c:	00001cb7          	lui	s9,0x1
     b60:	41940cb3          	sub	s9,s0,s9
     b64:	5e0cbc83          	ld	s9,1504(s9) # 15e0 <.LBB64_4+0x474>
     b68:	080ccc93          	xori	s9,s9,128
     b6c:	019c03a3          	sb	s9,7(s8)
     b70:	00001cb7          	lui	s9,0x1
     b74:	41940cb3          	sub	s9,s0,s9
     b78:	5f0cbc83          	ld	s9,1520(s9) # 15f0 <.LBB64_4+0x484>
     b7c:	080ccc93          	xori	s9,s9,128
     b80:	019c0423          	sb	s9,8(s8)
     b84:	00001cb7          	lui	s9,0x1
     b88:	41940cb3          	sub	s9,s0,s9
     b8c:	600cbc83          	ld	s9,1536(s9) # 1600 <.LBB64_4+0x494>
     b90:	080ccc93          	xori	s9,s9,128
     b94:	019c04a3          	sb	s9,9(s8)
     b98:	00001cb7          	lui	s9,0x1
     b9c:	41940cb3          	sub	s9,s0,s9
     ba0:	610cbc83          	ld	s9,1552(s9) # 1610 <.LBB64_4+0x4a4>
     ba4:	080ccc93          	xori	s9,s9,128
     ba8:	019c0523          	sb	s9,10(s8)
     bac:	00001cb7          	lui	s9,0x1
     bb0:	41940cb3          	sub	s9,s0,s9
     bb4:	620cbc83          	ld	s9,1568(s9) # 1620 <.LBB64_4+0x4b4>
     bb8:	080ccc93          	xori	s9,s9,128
     bbc:	019c05a3          	sb	s9,11(s8)
     bc0:	00001cb7          	lui	s9,0x1
     bc4:	41940cb3          	sub	s9,s0,s9
     bc8:	630cbc83          	ld	s9,1584(s9) # 1630 <.LBB64_4+0x4c4>
     bcc:	080ccc93          	xori	s9,s9,128
     bd0:	019c0623          	sb	s9,12(s8)
     bd4:	00001cb7          	lui	s9,0x1
     bd8:	41940cb3          	sub	s9,s0,s9
     bdc:	640cbc83          	ld	s9,1600(s9) # 1640 <.LBB64_4+0x4d4>
     be0:	080ccc93          	xori	s9,s9,128
     be4:	019c06a3          	sb	s9,13(s8)
     be8:	00001cb7          	lui	s9,0x1
     bec:	41940cb3          	sub	s9,s0,s9
     bf0:	680cbc83          	ld	s9,1664(s9) # 1680 <.LBB64_4+0x514>
     bf4:	080ccc93          	xori	s9,s9,128
     bf8:	019c0723          	sb	s9,14(s8)
     bfc:	af843c83          	ld	s9,-1288(s0)
     c00:	080ccc93          	xori	s9,s9,128
     c04:	019c07a3          	sb	s9,15(s8)
     c08:	00001cb7          	lui	s9,0x1
     c0c:	41940cb3          	sub	s9,s0,s9
     c10:	788cbc83          	ld	s9,1928(s9) # 1788 <.LBB64_5+0x80>
     c14:	080ccc93          	xori	s9,s9,128
     c18:	019c0823          	sb	s9,16(s8)
     c1c:	b0843c83          	ld	s9,-1272(s0)
     c20:	080ccc93          	xori	s9,s9,128
     c24:	019c08a3          	sb	s9,17(s8)
     c28:	00001cb7          	lui	s9,0x1
     c2c:	41940cb3          	sub	s9,s0,s9
     c30:	7a8cbc83          	ld	s9,1960(s9) # 17a8 <.LBB64_5+0xa0>
     c34:	080ccc93          	xori	s9,s9,128
     c38:	019c0923          	sb	s9,18(s8)
     c3c:	00001cb7          	lui	s9,0x1
     c40:	41940cb3          	sub	s9,s0,s9
     c44:	7b8cbc83          	ld	s9,1976(s9) # 17b8 <.LBB64_5+0xb0>
     c48:	080ccc93          	xori	s9,s9,128
     c4c:	019c09a3          	sb	s9,19(s8)
     c50:	00001cb7          	lui	s9,0x1
     c54:	41940cb3          	sub	s9,s0,s9
     c58:	7c8cbc83          	ld	s9,1992(s9) # 17c8 <.LBB64_5+0xc0>
     c5c:	080ccc93          	xori	s9,s9,128
     c60:	019c0a23          	sb	s9,20(s8)
     c64:	00001cb7          	lui	s9,0x1
     c68:	41940cb3          	sub	s9,s0,s9
     c6c:	7e0cbc83          	ld	s9,2016(s9) # 17e0 <.LBB64_5+0xd8>
     c70:	080ccc93          	xori	s9,s9,128
     c74:	019c0aa3          	sb	s9,21(s8)
     c78:	00001cb7          	lui	s9,0x1
     c7c:	41940cb3          	sub	s9,s0,s9
     c80:	7f0cbc83          	ld	s9,2032(s9) # 17f0 <.LBB64_5+0xe8>
     c84:	080ccc93          	xori	s9,s9,128
     c88:	019c0b23          	sb	s9,22(s8)
     c8c:	b3843c83          	ld	s9,-1224(s0)
     c90:	080ccc93          	xori	s9,s9,128
     c94:	019c0ba3          	sb	s9,23(s8)
     c98:	80843c83          	ld	s9,-2040(s0)
     c9c:	080ccc93          	xori	s9,s9,128
     ca0:	019c0c23          	sb	s9,24(s8)
     ca4:	82043c83          	ld	s9,-2016(s0)
     ca8:	080ccc93          	xori	s9,s9,128
     cac:	019c0ca3          	sb	s9,25(s8)
     cb0:	83043c83          	ld	s9,-2000(s0)
     cb4:	080ccc93          	xori	s9,s9,128
     cb8:	019c0d23          	sb	s9,26(s8)
     cbc:	84043c83          	ld	s9,-1984(s0)
     cc0:	080ccc93          	xori	s9,s9,128
     cc4:	019c0da3          	sb	s9,27(s8)
     cc8:	85043c83          	ld	s9,-1968(s0)
     ccc:	080ccc93          	xori	s9,s9,128
     cd0:	019c0e23          	sb	s9,28(s8)
     cd4:	86843c83          	ld	s9,-1944(s0)
     cd8:	080ccc93          	xori	s9,s9,128
     cdc:	019c0ea3          	sb	s9,29(s8)
     ce0:	87843c83          	ld	s9,-1928(s0)
     ce4:	080ccc93          	xori	s9,s9,128
     ce8:	019c0f23          	sb	s9,30(s8)
     cec:	88843c83          	ld	s9,-1912(s0)
     cf0:	080ccc93          	xori	s9,s9,128
     cf4:	019c0fa3          	sb	s9,31(s8)
     cf8:	8a043c03          	ld	s8,-1888(s0)
     cfc:	080c4c93          	xori	s9,s8,128
     d00:	00001c37          	lui	s8,0x1
     d04:	41840c33          	sub	s8,s0,s8
     d08:	d38c3c03          	ld	s8,-712(s8) # d38 <.LBB64_3+0xb20>
     d0c:	01ac0c33          	add	s8,s8,s10
     d10:	019c01a3          	sb	s9,3(s8)
     d14:	8b043c83          	ld	s9,-1872(s0)
     d18:	080ccc93          	xori	s9,s9,128
     d1c:	019c0123          	sb	s9,2(s8)
     d20:	8c043c83          	ld	s9,-1856(s0)
     d24:	080ccc93          	xori	s9,s9,128
     d28:	019c00a3          	sb	s9,1(s8)
     d2c:	8d043c83          	ld	s9,-1840(s0)
     d30:	080ccc93          	xori	s9,s9,128
     d34:	019c0023          	sb	s9,0(s8)
     d38:	8e843c83          	ld	s9,-1816(s0)
     d3c:	080ccc93          	xori	s9,s9,128
     d40:	019c0223          	sb	s9,4(s8)
     d44:	8f843c83          	ld	s9,-1800(s0)
     d48:	080ccc93          	xori	s9,s9,128
     d4c:	019c02a3          	sb	s9,5(s8)
     d50:	90843c83          	ld	s9,-1784(s0)
     d54:	080ccc93          	xori	s9,s9,128
     d58:	019c0323          	sb	s9,6(s8)
     d5c:	91843c83          	ld	s9,-1768(s0)
     d60:	080ccc93          	xori	s9,s9,128
     d64:	019c03a3          	sb	s9,7(s8)
     d68:	93043c83          	ld	s9,-1744(s0)
     d6c:	080ccc93          	xori	s9,s9,128
     d70:	019c0423          	sb	s9,8(s8)
     d74:	94043c83          	ld	s9,-1728(s0)
     d78:	080ccc93          	xori	s9,s9,128
     d7c:	019c04a3          	sb	s9,9(s8)
     d80:	bd043c83          	ld	s9,-1072(s0)
     d84:	080ccc93          	xori	s9,s9,128
     d88:	019c0523          	sb	s9,10(s8)
     d8c:	96043c83          	ld	s9,-1696(s0)
     d90:	080ccc93          	xori	s9,s9,128
     d94:	019c05a3          	sb	s9,11(s8)
     d98:	97043c83          	ld	s9,-1680(s0)
     d9c:	080ccc93          	xori	s9,s9,128
     da0:	019c0623          	sb	s9,12(s8)
     da4:	98043c83          	ld	s9,-1664(s0)
     da8:	080ccc93          	xori	s9,s9,128
     dac:	019c06a3          	sb	s9,13(s8)
     db0:	99043c83          	ld	s9,-1648(s0)
     db4:	080ccc93          	xori	s9,s9,128
     db8:	019c0723          	sb	s9,14(s8)
     dbc:	9a843c83          	ld	s9,-1624(s0)
     dc0:	080ccc93          	xori	s9,s9,128
     dc4:	019c07a3          	sb	s9,15(s8)
     dc8:	9b843c83          	ld	s9,-1608(s0)
     dcc:	080ccc93          	xori	s9,s9,128
     dd0:	019c0823          	sb	s9,16(s8)
     dd4:	9c843c83          	ld	s9,-1592(s0)
     dd8:	080ccc93          	xori	s9,s9,128
     ddc:	019c08a3          	sb	s9,17(s8)
     de0:	9d843c83          	ld	s9,-1576(s0)
     de4:	080ccc93          	xori	s9,s9,128
     de8:	019c0923          	sb	s9,18(s8)
     dec:	9f043c83          	ld	s9,-1552(s0)
     df0:	080ccc93          	xori	s9,s9,128
     df4:	019c09a3          	sb	s9,19(s8)
     df8:	a0043c83          	ld	s9,-1536(s0)
     dfc:	080ccc93          	xori	s9,s9,128
     e00:	019c0a23          	sb	s9,20(s8)
     e04:	a1043c83          	ld	s9,-1520(s0)
     e08:	080ccc93          	xori	s9,s9,128
     e0c:	019c0aa3          	sb	s9,21(s8)
     e10:	a2843c83          	ld	s9,-1496(s0)
     e14:	080ccc93          	xori	s9,s9,128
     e18:	019c0b23          	sb	s9,22(s8)
     e1c:	a3843c83          	ld	s9,-1480(s0)
     e20:	080ccc93          	xori	s9,s9,128
     e24:	019c0ba3          	sb	s9,23(s8)
     e28:	a4843c83          	ld	s9,-1464(s0)
     e2c:	080ccc93          	xori	s9,s9,128
     e30:	019c0c23          	sb	s9,24(s8)
     e34:	a5843c83          	ld	s9,-1448(s0)
     e38:	080ccc93          	xori	s9,s9,128
     e3c:	019c0ca3          	sb	s9,25(s8)
     e40:	a7043c83          	ld	s9,-1424(s0)
     e44:	080ccc93          	xori	s9,s9,128
     e48:	019c0d23          	sb	s9,26(s8)
     e4c:	a8043c83          	ld	s9,-1408(s0)
     e50:	080ccc93          	xori	s9,s9,128
     e54:	019c0da3          	sb	s9,27(s8)
     e58:	a9043c83          	ld	s9,-1392(s0)
     e5c:	080ccc93          	xori	s9,s9,128
     e60:	019c0e23          	sb	s9,28(s8)
     e64:	aa043c83          	ld	s9,-1376(s0)
     e68:	080ccc93          	xori	s9,s9,128
     e6c:	019c0ea3          	sb	s9,29(s8)
     e70:	ab843c83          	ld	s9,-1352(s0)
     e74:	080ccc93          	xori	s9,s9,128
     e78:	019c0f23          	sb	s9,30(s8)
     e7c:	ac843c83          	ld	s9,-1336(s0)
     e80:	080ccc93          	xori	s9,s9,128
     e84:	019c0fa3          	sb	s9,31(s8)
     e88:	ad843c03          	ld	s8,-1320(s0)
     e8c:	080c4c93          	xori	s9,s8,128
     e90:	00001c37          	lui	s8,0x1
     e94:	41840c33          	sub	s8,s0,s8
     e98:	d30c3c03          	ld	s8,-720(s8) # d30 <.LBB64_3+0xb18>
     e9c:	01ac0c33          	add	s8,s8,s10
     ea0:	019c01a3          	sb	s9,3(s8)
     ea4:	af043c83          	ld	s9,-1296(s0)
     ea8:	080ccc93          	xori	s9,s9,128
     eac:	019c0123          	sb	s9,2(s8)
     eb0:	b1043c83          	ld	s9,-1264(s0)
     eb4:	080ccc93          	xori	s9,s9,128
     eb8:	019c00a3          	sb	s9,1(s8)
     ebc:	b2043c83          	ld	s9,-1248(s0)
     ec0:	080ccc93          	xori	s9,s9,128
     ec4:	019c0023          	sb	s9,0(s8)
     ec8:	b3043c83          	ld	s9,-1232(s0)
     ecc:	080ccc93          	xori	s9,s9,128
     ed0:	019c0223          	sb	s9,4(s8)
     ed4:	b5043c83          	ld	s9,-1200(s0)
     ed8:	080ccc93          	xori	s9,s9,128
     edc:	019c02a3          	sb	s9,5(s8)
     ee0:	b6043c83          	ld	s9,-1184(s0)
     ee4:	080ccc93          	xori	s9,s9,128
     ee8:	019c0323          	sb	s9,6(s8)
     eec:	b7043c83          	ld	s9,-1168(s0)
     ef0:	080ccc93          	xori	s9,s9,128
     ef4:	019c03a3          	sb	s9,7(s8)
     ef8:	b8043c83          	ld	s9,-1152(s0)
     efc:	080ccc93          	xori	s9,s9,128
     f00:	019c0423          	sb	s9,8(s8)
     f04:	b9843c83          	ld	s9,-1128(s0)
     f08:	080ccc93          	xori	s9,s9,128
     f0c:	019c04a3          	sb	s9,9(s8)
     f10:	ba843c83          	ld	s9,-1112(s0)
     f14:	080ccc93          	xori	s9,s9,128
     f18:	019c0523          	sb	s9,10(s8)
     f1c:	bb843c83          	ld	s9,-1096(s0)
     f20:	080ccc93          	xori	s9,s9,128
     f24:	019c05a3          	sb	s9,11(s8)
     f28:	bc843c83          	ld	s9,-1080(s0)
     f2c:	080ccc93          	xori	s9,s9,128
     f30:	019c0623          	sb	s9,12(s8)
     f34:	be043c83          	ld	s9,-1056(s0)
     f38:	080ccc93          	xori	s9,s9,128
     f3c:	019c06a3          	sb	s9,13(s8)
     f40:	bf043c83          	ld	s9,-1040(s0)
     f44:	080ccc93          	xori	s9,s9,128
     f48:	019c0723          	sb	s9,14(s8)
     f4c:	c0043c83          	ld	s9,-1024(s0)
     f50:	080ccc93          	xori	s9,s9,128
     f54:	019c07a3          	sb	s9,15(s8)
     f58:	c1043c83          	ld	s9,-1008(s0)
     f5c:	080ccc93          	xori	s9,s9,128
     f60:	019c0823          	sb	s9,16(s8)
     f64:	c2043c83          	ld	s9,-992(s0)
     f68:	080ccc93          	xori	s9,s9,128
     f6c:	019c08a3          	sb	s9,17(s8)
     f70:	c3043c83          	ld	s9,-976(s0)
     f74:	080ccc93          	xori	s9,s9,128
     f78:	019c0923          	sb	s9,18(s8)
     f7c:	c4043c83          	ld	s9,-960(s0)
     f80:	080ccc93          	xori	s9,s9,128
     f84:	019c09a3          	sb	s9,19(s8)
     f88:	c5043c83          	ld	s9,-944(s0)
     f8c:	080ccc93          	xori	s9,s9,128
     f90:	019c0a23          	sb	s9,20(s8)
     f94:	c6043c83          	ld	s9,-928(s0)
     f98:	080ccc93          	xori	s9,s9,128
     f9c:	019c0aa3          	sb	s9,21(s8)
     fa0:	c7043c83          	ld	s9,-912(s0)
     fa4:	080ccc93          	xori	s9,s9,128
     fa8:	019c0b23          	sb	s9,22(s8)
     fac:	c8043c83          	ld	s9,-896(s0)
     fb0:	080ccc93          	xori	s9,s9,128
     fb4:	019c0ba3          	sb	s9,23(s8)
     fb8:	c9043c83          	ld	s9,-880(s0)
     fbc:	080ccc93          	xori	s9,s9,128
     fc0:	019c0c23          	sb	s9,24(s8)
     fc4:	ca043c83          	ld	s9,-864(s0)
     fc8:	080ccc93          	xori	s9,s9,128
     fcc:	019c0ca3          	sb	s9,25(s8)
     fd0:	cb043c83          	ld	s9,-848(s0)
     fd4:	080ccc93          	xori	s9,s9,128
     fd8:	019c0d23          	sb	s9,26(s8)
     fdc:	cc043c83          	ld	s9,-832(s0)
     fe0:	080ccc93          	xori	s9,s9,128
     fe4:	019c0da3          	sb	s9,27(s8)
     fe8:	cd043c83          	ld	s9,-816(s0)
     fec:	080ccc93          	xori	s9,s9,128
     ff0:	019c0e23          	sb	s9,28(s8)
     ff4:	ce043c83          	ld	s9,-800(s0)
     ff8:	080ccc93          	xori	s9,s9,128
     ffc:	019c0ea3          	sb	s9,29(s8)
    1000:	cf043c83          	ld	s9,-784(s0)
    1004:	080ccc93          	xori	s9,s9,128
    1008:	019c0f23          	sb	s9,30(s8)
    100c:	d0043c83          	ld	s9,-768(s0)
    1010:	080ccc93          	xori	s9,s9,128
    1014:	019c0fa3          	sb	s9,31(s8)
    1018:	d1043c03          	ld	s8,-752(s0)
    101c:	080c4c93          	xori	s9,s8,128
    1020:	00001c37          	lui	s8,0x1
    1024:	41840c33          	sub	s8,s0,s8
    1028:	d28c3c03          	ld	s8,-728(s8) # d28 <.LBB64_3+0xb10>
    102c:	01ac0c33          	add	s8,s8,s10
    1030:	019c01a3          	sb	s9,3(s8)
    1034:	d2043c83          	ld	s9,-736(s0)
    1038:	080ccc93          	xori	s9,s9,128
    103c:	019c0123          	sb	s9,2(s8)
    1040:	d3043c83          	ld	s9,-720(s0)
    1044:	080ccc93          	xori	s9,s9,128
    1048:	019c00a3          	sb	s9,1(s8)
    104c:	d4043c83          	ld	s9,-704(s0)
    1050:	080ccc93          	xori	s9,s9,128
    1054:	019c0023          	sb	s9,0(s8)
    1058:	e8043c83          	ld	s9,-384(s0)
    105c:	080ccc93          	xori	s9,s9,128
    1060:	019c0223          	sb	s9,4(s8)
    1064:	d5043c83          	ld	s9,-688(s0)
    1068:	080ccc93          	xori	s9,s9,128
    106c:	019c02a3          	sb	s9,5(s8)
    1070:	d6043c83          	ld	s9,-672(s0)
    1074:	080ccc93          	xori	s9,s9,128
    1078:	019c0323          	sb	s9,6(s8)
    107c:	d7043c83          	ld	s9,-656(s0)
    1080:	080ccc93          	xori	s9,s9,128
    1084:	019c03a3          	sb	s9,7(s8)
    1088:	d7843c83          	ld	s9,-648(s0)
    108c:	080ccc93          	xori	s9,s9,128
    1090:	019c0423          	sb	s9,8(s8)
    1094:	080dcc93          	xori	s9,s11,128
    1098:	019c04a3          	sb	s9,9(s8)
    109c:	08054513          	xori	a0,a0,128
    10a0:	00ac0523          	sb	a0,10(s8)
    10a4:	0805c513          	xori	a0,a1,128
    10a8:	00ac05a3          	sb	a0,11(s8)
    10ac:	08064513          	xori	a0,a2,128
    10b0:	00ac0623          	sb	a0,12(s8)
    10b4:	0806c513          	xori	a0,a3,128
    10b8:	00ac06a3          	sb	a0,13(s8)
    10bc:	08074513          	xori	a0,a4,128
    10c0:	00ac0723          	sb	a0,14(s8)
    10c4:	0807c513          	xori	a0,a5,128
    10c8:	00ac07a3          	sb	a0,15(s8)
    10cc:	08084513          	xori	a0,a6,128
    10d0:	00ac0823          	sb	a0,16(s8)
    10d4:	0808c513          	xori	a0,a7,128
    10d8:	00ac08a3          	sb	a0,17(s8)
    10dc:	0802c513          	xori	a0,t0,128
    10e0:	00ac0923          	sb	a0,18(s8)
    10e4:	08034513          	xori	a0,t1,128
    10e8:	00ac09a3          	sb	a0,19(s8)
    10ec:	0803c513          	xori	a0,t2,128
    10f0:	00ac0a23          	sb	a0,20(s8)
    10f4:	080e4513          	xori	a0,t3,128
    10f8:	00ac0aa3          	sb	a0,21(s8)
    10fc:	080ec513          	xori	a0,t4,128
    1100:	00ac0b23          	sb	a0,22(s8)
    1104:	080f4513          	xori	a0,t5,128
    1108:	00ac0ba3          	sb	a0,23(s8)
    110c:	080fc513          	xori	a0,t6,128
    1110:	00ac0c23          	sb	a0,24(s8)
    1114:	0804c513          	xori	a0,s1,128
    1118:	00ac0ca3          	sb	a0,25(s8)
    111c:	08094513          	xori	a0,s2,128
    1120:	00ac0d23          	sb	a0,26(s8)
    1124:	0809c513          	xori	a0,s3,128
    1128:	00ac0da3          	sb	a0,27(s8)
    112c:	080a4513          	xori	a0,s4,128
    1130:	00ac0e23          	sb	a0,28(s8)
    1134:	080ac513          	xori	a0,s5,128
    1138:	00ac0ea3          	sb	a0,29(s8)
    113c:	080b4513          	xori	a0,s6,128
    1140:	00ac0f23          	sb	a0,30(s8)
    1144:	080bc513          	xori	a0,s7,128
    1148:	00ac0fa3          	sb	a0,31(s8)
    114c:	020d0593          	addi	a1,s10,32
    1150:	00001537          	lui	a0,0x1
    1154:	40a40533          	sub	a0,s0,a0
    1158:	65053383          	ld	t2,1616(a0) # 1650 <.LBB64_4+0x4e4>
    115c:	02038393          	addi	t2,t2,32
    1160:	16000513          	li	a0,352
    1164:	00ad6463          	bltu	s10,a0,116c <.LBB64_4>
    1168:	f9dfe06f          	j	104 <.LBB64_1>

000000000000116c <.LBB64_4>:
    116c:	00001537          	lui	a0,0x1
    1170:	40a40533          	sub	a0,s0,a0
    1174:	66b53423          	sd	a1,1640(a0) # 1668 <.LBB64_4+0x4fc>
    1178:	00006fb7          	lui	t6,0x6
    117c:	00001537          	lui	a0,0x1
    1180:	40a40533          	sub	a0,s0,a0
    1184:	d7853483          	ld	s1,-648(a0) # d78 <.LBB64_3+0xb60>
    1188:	00001537          	lui	a0,0x1
    118c:	40a40533          	sub	a0,s0,a0
    1190:	64753823          	sd	t2,1616(a0) # 1650 <.LBB64_4+0x4e4>
    1194:	00038a13          	mv	s4,t2
    1198:	00001537          	lui	a0,0x1
    119c:	40a40533          	sub	a0,s0,a0
    11a0:	6c053423          	sd	zero,1736(a0) # 16c8 <.LBB64_4+0x55c>
    11a4:	00001537          	lui	a0,0x1
    11a8:	40a40533          	sub	a0,s0,a0
    11ac:	6c053023          	sd	zero,1728(a0) # 16c0 <.LBB64_4+0x554>
    11b0:	00001537          	lui	a0,0x1
    11b4:	40a40533          	sub	a0,s0,a0
    11b8:	6a053c23          	sd	zero,1720(a0) # 16b8 <.LBB64_4+0x54c>
    11bc:	00001537          	lui	a0,0x1
    11c0:	40a40533          	sub	a0,s0,a0
    11c4:	6c053823          	sd	zero,1744(a0) # 16d0 <.LBB64_4+0x564>
    11c8:	00001537          	lui	a0,0x1
    11cc:	40a40533          	sub	a0,s0,a0
    11d0:	6a053823          	sd	zero,1712(a0) # 16b0 <.LBB64_4+0x544>
    11d4:	00001537          	lui	a0,0x1
    11d8:	40a40533          	sub	a0,s0,a0
    11dc:	6a053423          	sd	zero,1704(a0) # 16a8 <.LBB64_4+0x53c>
    11e0:	00001537          	lui	a0,0x1
    11e4:	40a40533          	sub	a0,s0,a0
    11e8:	6a053023          	sd	zero,1696(a0) # 16a0 <.LBB64_4+0x534>
    11ec:	00001537          	lui	a0,0x1
    11f0:	40a40533          	sub	a0,s0,a0
    11f4:	68053c23          	sd	zero,1688(a0) # 1698 <.LBB64_4+0x52c>
    11f8:	00001537          	lui	a0,0x1
    11fc:	40a40533          	sub	a0,s0,a0
    1200:	68053823          	sd	zero,1680(a0) # 1690 <.LBB64_4+0x524>
    1204:	00001537          	lui	a0,0x1
    1208:	40a40533          	sub	a0,s0,a0
    120c:	6c053c23          	sd	zero,1752(a0) # 16d8 <.LBB64_4+0x56c>
    1210:	00001537          	lui	a0,0x1
    1214:	40a40533          	sub	a0,s0,a0
    1218:	6e053023          	sd	zero,1760(a0) # 16e0 <.LBB64_4+0x574>
    121c:	00001537          	lui	a0,0x1
    1220:	40a40533          	sub	a0,s0,a0
    1224:	6e053423          	sd	zero,1768(a0) # 16e8 <.LBB64_4+0x57c>
    1228:	00001537          	lui	a0,0x1
    122c:	40a40533          	sub	a0,s0,a0
    1230:	6e053823          	sd	zero,1776(a0) # 16f0 <.LBB64_4+0x584>
    1234:	00001537          	lui	a0,0x1
    1238:	40a40533          	sub	a0,s0,a0
    123c:	6e053c23          	sd	zero,1784(a0) # 16f8 <.LBB64_4+0x58c>
    1240:	00001537          	lui	a0,0x1
    1244:	40a40533          	sub	a0,s0,a0
    1248:	70053023          	sd	zero,1792(a0) # 1700 <.LBB64_4+0x594>
    124c:	00001537          	lui	a0,0x1
    1250:	40a40533          	sub	a0,s0,a0
    1254:	70053423          	sd	zero,1800(a0) # 1708 <.LBB64_5>
    1258:	00001537          	lui	a0,0x1
    125c:	40a40533          	sub	a0,s0,a0
    1260:	70053823          	sd	zero,1808(a0) # 1710 <.LBB64_5+0x8>
    1264:	00001537          	lui	a0,0x1
    1268:	40a40533          	sub	a0,s0,a0
    126c:	70053c23          	sd	zero,1816(a0) # 1718 <.LBB64_5+0x10>
    1270:	00001537          	lui	a0,0x1
    1274:	40a40533          	sub	a0,s0,a0
    1278:	72053023          	sd	zero,1824(a0) # 1720 <.LBB64_5+0x18>
    127c:	00001537          	lui	a0,0x1
    1280:	40a40533          	sub	a0,s0,a0
    1284:	72053423          	sd	zero,1832(a0) # 1728 <.LBB64_5+0x20>
    1288:	00001537          	lui	a0,0x1
    128c:	40a40533          	sub	a0,s0,a0
    1290:	72053823          	sd	zero,1840(a0) # 1730 <.LBB64_5+0x28>
    1294:	00001537          	lui	a0,0x1
    1298:	40a40533          	sub	a0,s0,a0
    129c:	72053c23          	sd	zero,1848(a0) # 1738 <.LBB64_5+0x30>
    12a0:	00001537          	lui	a0,0x1
    12a4:	40a40533          	sub	a0,s0,a0
    12a8:	74053023          	sd	zero,1856(a0) # 1740 <.LBB64_5+0x38>
    12ac:	00000913          	li	s2,0
    12b0:	00001537          	lui	a0,0x1
    12b4:	40a40533          	sub	a0,s0,a0
    12b8:	74053423          	sd	zero,1864(a0) # 1748 <.LBB64_5+0x40>
    12bc:	00001537          	lui	a0,0x1
    12c0:	40a40533          	sub	a0,s0,a0
    12c4:	74053823          	sd	zero,1872(a0) # 1750 <.LBB64_5+0x48>
    12c8:	00001537          	lui	a0,0x1
    12cc:	40a40533          	sub	a0,s0,a0
    12d0:	74053c23          	sd	zero,1880(a0) # 1758 <.LBB64_5+0x50>
    12d4:	00001537          	lui	a0,0x1
    12d8:	40a40533          	sub	a0,s0,a0
    12dc:	76053023          	sd	zero,1888(a0) # 1760 <.LBB64_5+0x58>
    12e0:	00000d13          	li	s10,0
    12e4:	00001537          	lui	a0,0x1
    12e8:	40a40533          	sub	a0,s0,a0
    12ec:	76053423          	sd	zero,1896(a0) # 1768 <.LBB64_5+0x60>
    12f0:	00001537          	lui	a0,0x1
    12f4:	40a40533          	sub	a0,s0,a0
    12f8:	76053823          	sd	zero,1904(a0) # 1770 <.LBB64_5+0x68>
    12fc:	00001537          	lui	a0,0x1
    1300:	40a40533          	sub	a0,s0,a0
    1304:	76053c23          	sd	zero,1912(a0) # 1778 <.LBB64_5+0x70>
    1308:	00001537          	lui	a0,0x1
    130c:	40a40533          	sub	a0,s0,a0
    1310:	78053c23          	sd	zero,1944(a0) # 1798 <.LBB64_5+0x90>
    1314:	00001537          	lui	a0,0x1
    1318:	40a40533          	sub	a0,s0,a0
    131c:	78053823          	sd	zero,1936(a0) # 1790 <.LBB64_5+0x88>
    1320:	00001537          	lui	a0,0x1
    1324:	40a40533          	sub	a0,s0,a0
    1328:	78053423          	sd	zero,1928(a0) # 1788 <.LBB64_5+0x80>
    132c:	00001537          	lui	a0,0x1
    1330:	40a40533          	sub	a0,s0,a0
    1334:	78053023          	sd	zero,1920(a0) # 1780 <.LBB64_5+0x78>
    1338:	00001537          	lui	a0,0x1
    133c:	40a40533          	sub	a0,s0,a0
    1340:	7a053023          	sd	zero,1952(a0) # 17a0 <.LBB64_5+0x98>
    1344:	00001537          	lui	a0,0x1
    1348:	40a40533          	sub	a0,s0,a0
    134c:	7a053423          	sd	zero,1960(a0) # 17a8 <.LBB64_5+0xa0>
    1350:	00001537          	lui	a0,0x1
    1354:	40a40533          	sub	a0,s0,a0
    1358:	7a053823          	sd	zero,1968(a0) # 17b0 <.LBB64_5+0xa8>
    135c:	00001537          	lui	a0,0x1
    1360:	40a40533          	sub	a0,s0,a0
    1364:	7a053c23          	sd	zero,1976(a0) # 17b8 <.LBB64_5+0xb0>
    1368:	00001537          	lui	a0,0x1
    136c:	40a40533          	sub	a0,s0,a0
    1370:	7c053023          	sd	zero,1984(a0) # 17c0 <.LBB64_5+0xb8>
    1374:	00001537          	lui	a0,0x1
    1378:	40a40533          	sub	a0,s0,a0
    137c:	7c053423          	sd	zero,1992(a0) # 17c8 <.LBB64_5+0xc0>
    1380:	00001537          	lui	a0,0x1
    1384:	40a40533          	sub	a0,s0,a0
    1388:	7c053823          	sd	zero,2000(a0) # 17d0 <.LBB64_5+0xc8>
    138c:	00001537          	lui	a0,0x1
    1390:	40a40533          	sub	a0,s0,a0
    1394:	7c053c23          	sd	zero,2008(a0) # 17d8 <.LBB64_5+0xd0>
    1398:	00001537          	lui	a0,0x1
    139c:	40a40533          	sub	a0,s0,a0
    13a0:	7e053023          	sd	zero,2016(a0) # 17e0 <.LBB64_5+0xd8>
    13a4:	00001537          	lui	a0,0x1
    13a8:	40a40533          	sub	a0,s0,a0
    13ac:	7e053423          	sd	zero,2024(a0) # 17e8 <.LBB64_5+0xe0>
    13b0:	00001537          	lui	a0,0x1
    13b4:	40a40533          	sub	a0,s0,a0
    13b8:	7e053823          	sd	zero,2032(a0) # 17f0 <.LBB64_5+0xe8>
    13bc:	00001537          	lui	a0,0x1
    13c0:	40a40533          	sub	a0,s0,a0
    13c4:	7e053c23          	sd	zero,2040(a0) # 17f8 <.LBB64_5+0xf0>
    13c8:	80043023          	sd	zero,-2048(s0)
    13cc:	80043423          	sd	zero,-2040(s0)
    13d0:	80043823          	sd	zero,-2032(s0)
    13d4:	80043c23          	sd	zero,-2024(s0)
    13d8:	82043023          	sd	zero,-2016(s0)
    13dc:	82043423          	sd	zero,-2008(s0)
    13e0:	82043823          	sd	zero,-2000(s0)
    13e4:	82043c23          	sd	zero,-1992(s0)
    13e8:	84043023          	sd	zero,-1984(s0)
    13ec:	84043423          	sd	zero,-1976(s0)
    13f0:	84043823          	sd	zero,-1968(s0)
    13f4:	84043c23          	sd	zero,-1960(s0)
    13f8:	86043023          	sd	zero,-1952(s0)
    13fc:	86043423          	sd	zero,-1944(s0)
    1400:	86043823          	sd	zero,-1936(s0)
    1404:	86043c23          	sd	zero,-1928(s0)
    1408:	88043c23          	sd	zero,-1896(s0)
    140c:	88043823          	sd	zero,-1904(s0)
    1410:	88043423          	sd	zero,-1912(s0)
    1414:	88043023          	sd	zero,-1920(s0)
    1418:	8a043023          	sd	zero,-1888(s0)
    141c:	8a043423          	sd	zero,-1880(s0)
    1420:	8a043823          	sd	zero,-1872(s0)
    1424:	8a043c23          	sd	zero,-1864(s0)
    1428:	8c043023          	sd	zero,-1856(s0)
    142c:	8c043423          	sd	zero,-1848(s0)
    1430:	8c043823          	sd	zero,-1840(s0)
    1434:	8c043c23          	sd	zero,-1832(s0)
    1438:	8e043023          	sd	zero,-1824(s0)
    143c:	8e043423          	sd	zero,-1816(s0)
    1440:	8e043823          	sd	zero,-1808(s0)
    1444:	8e043c23          	sd	zero,-1800(s0)
    1448:	90043023          	sd	zero,-1792(s0)
    144c:	90043423          	sd	zero,-1784(s0)
    1450:	90043823          	sd	zero,-1776(s0)
    1454:	90043c23          	sd	zero,-1768(s0)
    1458:	92043023          	sd	zero,-1760(s0)
    145c:	92043423          	sd	zero,-1752(s0)
    1460:	92043823          	sd	zero,-1744(s0)
    1464:	92043c23          	sd	zero,-1736(s0)
    1468:	94043023          	sd	zero,-1728(s0)
    146c:	94043423          	sd	zero,-1720(s0)
    1470:	94043823          	sd	zero,-1712(s0)
    1474:	94043c23          	sd	zero,-1704(s0)
    1478:	96043023          	sd	zero,-1696(s0)
    147c:	96043423          	sd	zero,-1688(s0)
    1480:	96043823          	sd	zero,-1680(s0)
    1484:	96043c23          	sd	zero,-1672(s0)
    1488:	98043c23          	sd	zero,-1640(s0)
    148c:	98043823          	sd	zero,-1648(s0)
    1490:	98043423          	sd	zero,-1656(s0)
    1494:	98043023          	sd	zero,-1664(s0)
    1498:	9a043023          	sd	zero,-1632(s0)
    149c:	9a043423          	sd	zero,-1624(s0)
    14a0:	9a043823          	sd	zero,-1616(s0)
    14a4:	9a043c23          	sd	zero,-1608(s0)
    14a8:	9c043023          	sd	zero,-1600(s0)
    14ac:	9c043423          	sd	zero,-1592(s0)
    14b0:	9c043823          	sd	zero,-1584(s0)
    14b4:	9c043c23          	sd	zero,-1576(s0)
    14b8:	9e043023          	sd	zero,-1568(s0)
    14bc:	9e043423          	sd	zero,-1560(s0)
    14c0:	9e043823          	sd	zero,-1552(s0)
    14c4:	9e043c23          	sd	zero,-1544(s0)
    14c8:	a0043023          	sd	zero,-1536(s0)
    14cc:	a0043423          	sd	zero,-1528(s0)
    14d0:	a0043823          	sd	zero,-1520(s0)
    14d4:	a0043c23          	sd	zero,-1512(s0)
    14d8:	a2043023          	sd	zero,-1504(s0)
    14dc:	a2043423          	sd	zero,-1496(s0)
    14e0:	a2043823          	sd	zero,-1488(s0)
    14e4:	a2043c23          	sd	zero,-1480(s0)
    14e8:	a4043023          	sd	zero,-1472(s0)
    14ec:	a4043423          	sd	zero,-1464(s0)
    14f0:	a4043823          	sd	zero,-1456(s0)
    14f4:	a4043c23          	sd	zero,-1448(s0)
    14f8:	a6043023          	sd	zero,-1440(s0)
    14fc:	a6043423          	sd	zero,-1432(s0)
    1500:	a6043823          	sd	zero,-1424(s0)
    1504:	a6043c23          	sd	zero,-1416(s0)
    1508:	a8043c23          	sd	zero,-1384(s0)
    150c:	a8043823          	sd	zero,-1392(s0)
    1510:	a8043423          	sd	zero,-1400(s0)
    1514:	a8043023          	sd	zero,-1408(s0)
    1518:	aa043023          	sd	zero,-1376(s0)
    151c:	aa043423          	sd	zero,-1368(s0)
    1520:	aa043823          	sd	zero,-1360(s0)
    1524:	aa043c23          	sd	zero,-1352(s0)
    1528:	ac043023          	sd	zero,-1344(s0)
    152c:	ac043423          	sd	zero,-1336(s0)
    1530:	ac043823          	sd	zero,-1328(s0)
    1534:	ac043c23          	sd	zero,-1320(s0)
    1538:	ae043023          	sd	zero,-1312(s0)
    153c:	ae043423          	sd	zero,-1304(s0)
    1540:	ae043823          	sd	zero,-1296(s0)
    1544:	ae043c23          	sd	zero,-1288(s0)
    1548:	b0043023          	sd	zero,-1280(s0)
    154c:	b0043423          	sd	zero,-1272(s0)
    1550:	b0043823          	sd	zero,-1264(s0)
    1554:	b0043c23          	sd	zero,-1256(s0)
    1558:	b2043023          	sd	zero,-1248(s0)
    155c:	b2043423          	sd	zero,-1240(s0)
    1560:	b2043823          	sd	zero,-1232(s0)
    1564:	b2043c23          	sd	zero,-1224(s0)
    1568:	b4043023          	sd	zero,-1216(s0)
    156c:	b4043423          	sd	zero,-1208(s0)
    1570:	b4043823          	sd	zero,-1200(s0)
    1574:	b4043c23          	sd	zero,-1192(s0)
    1578:	b6043023          	sd	zero,-1184(s0)
    157c:	b6043423          	sd	zero,-1176(s0)
    1580:	b6043823          	sd	zero,-1168(s0)
    1584:	b6043c23          	sd	zero,-1160(s0)
    1588:	b8043c23          	sd	zero,-1128(s0)
    158c:	b8043823          	sd	zero,-1136(s0)
    1590:	b8043423          	sd	zero,-1144(s0)
    1594:	b8043023          	sd	zero,-1152(s0)
    1598:	ba043023          	sd	zero,-1120(s0)
    159c:	ba043423          	sd	zero,-1112(s0)
    15a0:	ba043823          	sd	zero,-1104(s0)
    15a4:	ba043c23          	sd	zero,-1096(s0)
    15a8:	bc043023          	sd	zero,-1088(s0)
    15ac:	bc043423          	sd	zero,-1080(s0)
    15b0:	bc043823          	sd	zero,-1072(s0)
    15b4:	bc043c23          	sd	zero,-1064(s0)
    15b8:	be043023          	sd	zero,-1056(s0)
    15bc:	be043423          	sd	zero,-1048(s0)
    15c0:	be043823          	sd	zero,-1040(s0)
    15c4:	be043c23          	sd	zero,-1032(s0)
    15c8:	c0043023          	sd	zero,-1024(s0)
    15cc:	c0043423          	sd	zero,-1016(s0)
    15d0:	c0043823          	sd	zero,-1008(s0)
    15d4:	c0043c23          	sd	zero,-1000(s0)
    15d8:	c2043023          	sd	zero,-992(s0)
    15dc:	c2043423          	sd	zero,-984(s0)
    15e0:	c2043823          	sd	zero,-976(s0)
    15e4:	c2043c23          	sd	zero,-968(s0)
    15e8:	c4043023          	sd	zero,-960(s0)
    15ec:	c4043423          	sd	zero,-952(s0)
    15f0:	c4043823          	sd	zero,-944(s0)
    15f4:	c4043c23          	sd	zero,-936(s0)
    15f8:	c6043023          	sd	zero,-928(s0)
    15fc:	c6043423          	sd	zero,-920(s0)
    1600:	c6043823          	sd	zero,-912(s0)
    1604:	c6043c23          	sd	zero,-904(s0)
    1608:	c8043c23          	sd	zero,-872(s0)
    160c:	c8043823          	sd	zero,-880(s0)
    1610:	c8043423          	sd	zero,-888(s0)
    1614:	c8043023          	sd	zero,-896(s0)
    1618:	ca043023          	sd	zero,-864(s0)
    161c:	ca043423          	sd	zero,-856(s0)
    1620:	ca043823          	sd	zero,-848(s0)
    1624:	ca043c23          	sd	zero,-840(s0)
    1628:	cc043023          	sd	zero,-832(s0)
    162c:	cc043423          	sd	zero,-824(s0)
    1630:	cc043823          	sd	zero,-816(s0)
    1634:	cc043c23          	sd	zero,-808(s0)
    1638:	ce043023          	sd	zero,-800(s0)
    163c:	ce043423          	sd	zero,-792(s0)
    1640:	ce043823          	sd	zero,-784(s0)
    1644:	ce043c23          	sd	zero,-776(s0)
    1648:	d0043023          	sd	zero,-768(s0)
    164c:	d0043423          	sd	zero,-760(s0)
    1650:	d0043823          	sd	zero,-752(s0)
    1654:	d0043c23          	sd	zero,-744(s0)
    1658:	d2043023          	sd	zero,-736(s0)
    165c:	d2043423          	sd	zero,-728(s0)
    1660:	d2043823          	sd	zero,-720(s0)
    1664:	d2043c23          	sd	zero,-712(s0)
    1668:	d4043023          	sd	zero,-704(s0)
    166c:	d4043423          	sd	zero,-696(s0)
    1670:	d4043823          	sd	zero,-688(s0)
    1674:	d4043c23          	sd	zero,-680(s0)
    1678:	d6043023          	sd	zero,-672(s0)
    167c:	d6043423          	sd	zero,-664(s0)
    1680:	d6043823          	sd	zero,-656(s0)
    1684:	d6043c23          	sd	zero,-648(s0)
    1688:	d8043c23          	sd	zero,-616(s0)
    168c:	d8043823          	sd	zero,-624(s0)
    1690:	d8043423          	sd	zero,-632(s0)
    1694:	d8043023          	sd	zero,-640(s0)
    1698:	da043023          	sd	zero,-608(s0)
    169c:	da043423          	sd	zero,-600(s0)
    16a0:	da043823          	sd	zero,-592(s0)
    16a4:	00000093          	li	ra,0
    16a8:	00000c93          	li	s9,0
    16ac:	00000b93          	li	s7,0
    16b0:	da043c23          	sd	zero,-584(s0)
    16b4:	00000b13          	li	s6,0
    16b8:	00000993          	li	s3,0
    16bc:	00000713          	li	a4,0
    16c0:	00000693          	li	a3,0
    16c4:	00000613          	li	a2,0
    16c8:	dc043023          	sd	zero,-576(s0)
    16cc:	00000f13          	li	t5,0
    16d0:	00000e93          	li	t4,0
    16d4:	00000c13          	li	s8,0
    16d8:	00000e13          	li	t3,0
    16dc:	00000313          	li	t1,0
    16e0:	00000293          	li	t0,0
    16e4:	00000593          	li	a1,0
    16e8:	00000513          	li	a0,0
    16ec:	00000893          	li	a7,0
    16f0:	00000813          	li	a6,0
    16f4:	00000793          	li	a5,0
    16f8:	e0043823          	sd	zero,-496(s0)
    16fc:	e0043c23          	sd	zero,-488(s0)
    1700:	e2043023          	sd	zero,-480(s0)
    1704:	e2043423          	sd	zero,-472(s0)

0000000000001708 <.LBB64_5>:
    1708:	f9443423          	sd	s4,-120(s0)
    170c:	f8943023          	sd	s1,-128(s0)
    1710:	000013b7          	lui	t2,0x1
    1714:	407403b3          	sub	t2,s0,t2
    1718:	67f3bc23          	sd	t6,1656(t2) # 1678 <.LBB64_4+0x50c>
    171c:	ec143423          	sd	ra,-312(s0)
    1720:	ed943823          	sd	s9,-304(s0)
    1724:	ed743c23          	sd	s7,-296(s0)
    1728:	ef643023          	sd	s6,-288(s0)
    172c:	ef343423          	sd	s3,-280(s0)
    1730:	eee43823          	sd	a4,-272(s0)
    1734:	eed43c23          	sd	a3,-264(s0)
    1738:	f0c43023          	sd	a2,-256(s0)
    173c:	dde43423          	sd	t5,-568(s0)
    1740:	ddd43823          	sd	t4,-560(s0)
    1744:	dd843c23          	sd	s8,-552(s0)
    1748:	dfc43023          	sd	t3,-544(s0)
    174c:	de643423          	sd	t1,-536(s0)
    1750:	de543823          	sd	t0,-528(s0)
    1754:	f0b43423          	sd	a1,-248(s0)
    1758:	f0a43823          	sd	a0,-240(s0)
    175c:	df143c23          	sd	a7,-520(s0)
    1760:	e1043023          	sd	a6,-512(s0)
    1764:	e0f43423          	sd	a5,-504(s0)
    1768:	e4048503          	lb	a0,-448(s1)
    176c:	002a0603          	lb	a2,2(s4)
    1770:	e4c43c23          	sd	a2,-424(s0)
    1774:	001a0683          	lb	a3,1(s4)
    1778:	f2d43c23          	sd	a3,-200(s0)
    177c:	000a0703          	lb	a4,0(s4)
    1780:	f0e43c23          	sd	a4,-232(s0)
    1784:	003a0783          	lb	a5,3(s4)
    1788:	f2f43823          	sd	a5,-208(s0)
    178c:	004a0803          	lb	a6,4(s4)
    1790:	f3043423          	sd	a6,-216(s0)
    1794:	005a0983          	lb	s3,5(s4)
    1798:	f3343023          	sd	s3,-224(s0)
    179c:	006a0c83          	lb	s9,6(s4)
    17a0:	000d0a93          	mv	s5,s10
    17a4:	007a0c03          	lb	s8,7(s4)
    17a8:	008a0883          	lb	a7,8(s4)
    17ac:	e9143423          	sd	a7,-376(s0)
    17b0:	009a0283          	lb	t0,9(s4)
    17b4:	00aa0303          	lb	t1,10(s4)
    17b8:	e4643423          	sd	t1,-440(s0)
    17bc:	00ba0383          	lb	t2,11(s4)
    17c0:	f6743423          	sd	t2,-152(s0)
    17c4:	00ca0d83          	lb	s11,12(s4)
    17c8:	00da0e03          	lb	t3,13(s4)
    17cc:	f5c43023          	sd	t3,-192(s0)
    17d0:	00ea0f03          	lb	t5,14(s4)
    17d4:	ebe43c23          	sd	t5,-328(s0)
    17d8:	f8843583          	ld	a1,-120(s0)
    17dc:	00f58e83          	lb	t4,15(a1)
    17e0:	e9d43823          	sd	t4,-368(s0)
    17e4:	f8843583          	ld	a1,-120(s0)
    17e8:	01058f83          	lb	t6,16(a1)
    17ec:	e5f43823          	sd	t6,-432(s0)
    17f0:	f8843583          	ld	a1,-120(s0)
    17f4:	01158483          	lb	s1,17(a1)
    17f8:	f6943823          	sd	s1,-144(s0)
    17fc:	f8843583          	ld	a1,-120(s0)
    1800:	01258583          	lb	a1,18(a1)
    1804:	e8b43023          	sd	a1,-384(s0)
    1808:	f8843583          	ld	a1,-120(s0)
    180c:	01358583          	lb	a1,19(a1)
    1810:	e6b43823          	sd	a1,-400(s0)
    1814:	f8843583          	ld	a1,-120(s0)
    1818:	01458083          	lb	ra,20(a1)
    181c:	f8843583          	ld	a1,-120(s0)
    1820:	01558a03          	lb	s4,21(a1)
    1824:	f7443c23          	sd	s4,-136(s0)
    1828:	f8843583          	ld	a1,-120(s0)
    182c:	01658b83          	lb	s7,22(a1)
    1830:	f8843583          	ld	a1,-120(s0)
    1834:	01758b03          	lb	s6,23(a1)
    1838:	f8843583          	ld	a1,-120(s0)
    183c:	01858d03          	lb	s10,24(a1)
    1840:	02c505b3          	mul	a1,a0,a2
    1844:	00001637          	lui	a2,0x1
    1848:	40c40633          	sub	a2,s0,a2
    184c:	6b863603          	ld	a2,1720(a2) # 16b8 <.LBB64_4+0x54c>
    1850:	00c58633          	add	a2,a1,a2
    1854:	000015b7          	lui	a1,0x1
    1858:	40b405b3          	sub	a1,s0,a1
    185c:	6ac5bc23          	sd	a2,1720(a1) # 16b8 <.LBB64_4+0x54c>
    1860:	02d505b3          	mul	a1,a0,a3
    1864:	00001637          	lui	a2,0x1
    1868:	40c40633          	sub	a2,s0,a2
    186c:	6c063603          	ld	a2,1728(a2) # 16c0 <.LBB64_4+0x554>
    1870:	00c58633          	add	a2,a1,a2
    1874:	000015b7          	lui	a1,0x1
    1878:	40b405b3          	sub	a1,s0,a1
    187c:	6cc5b023          	sd	a2,1728(a1) # 16c0 <.LBB64_4+0x554>
    1880:	02e505b3          	mul	a1,a0,a4
    1884:	00001637          	lui	a2,0x1
    1888:	40c40633          	sub	a2,s0,a2
    188c:	6c863603          	ld	a2,1736(a2) # 16c8 <.LBB64_4+0x55c>
    1890:	00c58633          	add	a2,a1,a2
    1894:	000015b7          	lui	a1,0x1
    1898:	40b405b3          	sub	a1,s0,a1
    189c:	6cc5b423          	sd	a2,1736(a1) # 16c8 <.LBB64_4+0x55c>
    18a0:	02f505b3          	mul	a1,a0,a5
    18a4:	00001637          	lui	a2,0x1
    18a8:	40c40633          	sub	a2,s0,a2
    18ac:	6d063603          	ld	a2,1744(a2) # 16d0 <.LBB64_4+0x564>
    18b0:	00c58633          	add	a2,a1,a2
    18b4:	000015b7          	lui	a1,0x1
    18b8:	40b405b3          	sub	a1,s0,a1
    18bc:	6cc5b823          	sd	a2,1744(a1) # 16d0 <.LBB64_4+0x564>
    18c0:	030505b3          	mul	a1,a0,a6
    18c4:	00001637          	lui	a2,0x1
    18c8:	40c40633          	sub	a2,s0,a2
    18cc:	6b063603          	ld	a2,1712(a2) # 16b0 <.LBB64_4+0x544>
    18d0:	00c58633          	add	a2,a1,a2
    18d4:	000015b7          	lui	a1,0x1
    18d8:	40b405b3          	sub	a1,s0,a1
    18dc:	6ac5b823          	sd	a2,1712(a1) # 16b0 <.LBB64_4+0x544>
    18e0:	033505b3          	mul	a1,a0,s3
    18e4:	00001637          	lui	a2,0x1
    18e8:	40c40633          	sub	a2,s0,a2
    18ec:	6a863603          	ld	a2,1704(a2) # 16a8 <.LBB64_4+0x53c>
    18f0:	00c58633          	add	a2,a1,a2
    18f4:	000015b7          	lui	a1,0x1
    18f8:	40b405b3          	sub	a1,s0,a1
    18fc:	6ac5b423          	sd	a2,1704(a1) # 16a8 <.LBB64_4+0x53c>
    1900:	039505b3          	mul	a1,a0,s9
    1904:	000c8713          	mv	a4,s9
    1908:	eb943423          	sd	s9,-344(s0)
    190c:	00001637          	lui	a2,0x1
    1910:	40c40633          	sub	a2,s0,a2
    1914:	6a063603          	ld	a2,1696(a2) # 16a0 <.LBB64_4+0x534>
    1918:	00c58633          	add	a2,a1,a2
    191c:	000015b7          	lui	a1,0x1
    1920:	40b405b3          	sub	a1,s0,a1
    1924:	6ac5b023          	sd	a2,1696(a1) # 16a0 <.LBB64_4+0x534>
    1928:	038505b3          	mul	a1,a0,s8
    192c:	000c0793          	mv	a5,s8
    1930:	e7843023          	sd	s8,-416(s0)
    1934:	00001637          	lui	a2,0x1
    1938:	40c40633          	sub	a2,s0,a2
    193c:	69863603          	ld	a2,1688(a2) # 1698 <.LBB64_4+0x52c>
    1940:	00c58633          	add	a2,a1,a2
    1944:	000015b7          	lui	a1,0x1
    1948:	40b405b3          	sub	a1,s0,a1
    194c:	68c5bc23          	sd	a2,1688(a1) # 1698 <.LBB64_4+0x52c>
    1950:	031505b3          	mul	a1,a0,a7
    1954:	00001637          	lui	a2,0x1
    1958:	40c40633          	sub	a2,s0,a2
    195c:	69063603          	ld	a2,1680(a2) # 1690 <.LBB64_4+0x524>
    1960:	00c58633          	add	a2,a1,a2
    1964:	000015b7          	lui	a1,0x1
    1968:	40b405b3          	sub	a1,s0,a1
    196c:	68c5b823          	sd	a2,1680(a1) # 1690 <.LBB64_4+0x524>
    1970:	025505b3          	mul	a1,a0,t0
    1974:	00028893          	mv	a7,t0
    1978:	00001637          	lui	a2,0x1
    197c:	40c40633          	sub	a2,s0,a2
    1980:	6d863603          	ld	a2,1752(a2) # 16d8 <.LBB64_4+0x56c>
    1984:	00c58633          	add	a2,a1,a2
    1988:	000015b7          	lui	a1,0x1
    198c:	40b405b3          	sub	a1,s0,a1
    1990:	6cc5bc23          	sd	a2,1752(a1) # 16d8 <.LBB64_4+0x56c>
    1994:	026505b3          	mul	a1,a0,t1
    1998:	00001637          	lui	a2,0x1
    199c:	40c40633          	sub	a2,s0,a2
    19a0:	6e063603          	ld	a2,1760(a2) # 16e0 <.LBB64_4+0x574>
    19a4:	00c58633          	add	a2,a1,a2
    19a8:	000015b7          	lui	a1,0x1
    19ac:	40b405b3          	sub	a1,s0,a1
    19b0:	6ec5b023          	sd	a2,1760(a1) # 16e0 <.LBB64_4+0x574>
    19b4:	027505b3          	mul	a1,a0,t2
    19b8:	00001637          	lui	a2,0x1
    19bc:	40c40633          	sub	a2,s0,a2
    19c0:	6e863603          	ld	a2,1768(a2) # 16e8 <.LBB64_4+0x57c>
    19c4:	00c58633          	add	a2,a1,a2
    19c8:	000015b7          	lui	a1,0x1
    19cc:	40b405b3          	sub	a1,s0,a1
    19d0:	6ec5b423          	sd	a2,1768(a1) # 16e8 <.LBB64_4+0x57c>
    19d4:	000d8693          	mv	a3,s11
    19d8:	f7b43023          	sd	s11,-160(s0)
    19dc:	03b505b3          	mul	a1,a0,s11
    19e0:	00001637          	lui	a2,0x1
    19e4:	40c40633          	sub	a2,s0,a2
    19e8:	6f063603          	ld	a2,1776(a2) # 16f0 <.LBB64_4+0x584>
    19ec:	00c58633          	add	a2,a1,a2
    19f0:	000015b7          	lui	a1,0x1
    19f4:	40b405b3          	sub	a1,s0,a1
    19f8:	6ec5b823          	sd	a2,1776(a1) # 16f0 <.LBB64_4+0x584>
    19fc:	03c505b3          	mul	a1,a0,t3
    1a00:	00001637          	lui	a2,0x1
    1a04:	40c40633          	sub	a2,s0,a2
    1a08:	6f863603          	ld	a2,1784(a2) # 16f8 <.LBB64_4+0x58c>
    1a0c:	00c58633          	add	a2,a1,a2
    1a10:	000015b7          	lui	a1,0x1
    1a14:	40b405b3          	sub	a1,s0,a1
    1a18:	6ec5bc23          	sd	a2,1784(a1) # 16f8 <.LBB64_4+0x58c>
    1a1c:	03e505b3          	mul	a1,a0,t5
    1a20:	00001637          	lui	a2,0x1
    1a24:	40c40633          	sub	a2,s0,a2
    1a28:	70063603          	ld	a2,1792(a2) # 1700 <.LBB64_4+0x594>
    1a2c:	00c58633          	add	a2,a1,a2
    1a30:	000015b7          	lui	a1,0x1
    1a34:	40b405b3          	sub	a1,s0,a1
    1a38:	70c5b023          	sd	a2,1792(a1) # 1700 <.LBB64_4+0x594>
    1a3c:	03d505b3          	mul	a1,a0,t4
    1a40:	00001637          	lui	a2,0x1
    1a44:	40c40633          	sub	a2,s0,a2
    1a48:	70863603          	ld	a2,1800(a2) # 1708 <.LBB64_5>
    1a4c:	00c58633          	add	a2,a1,a2
    1a50:	000015b7          	lui	a1,0x1
    1a54:	40b405b3          	sub	a1,s0,a1
    1a58:	70c5b423          	sd	a2,1800(a1) # 1708 <.LBB64_5>
    1a5c:	03f505b3          	mul	a1,a0,t6
    1a60:	00001637          	lui	a2,0x1
    1a64:	40c40633          	sub	a2,s0,a2
    1a68:	71063603          	ld	a2,1808(a2) # 1710 <.LBB64_5+0x8>
    1a6c:	00c58633          	add	a2,a1,a2
    1a70:	000015b7          	lui	a1,0x1
    1a74:	40b405b3          	sub	a1,s0,a1
    1a78:	70c5b823          	sd	a2,1808(a1) # 1710 <.LBB64_5+0x8>
    1a7c:	029505b3          	mul	a1,a0,s1
    1a80:	00001637          	lui	a2,0x1
    1a84:	40c40633          	sub	a2,s0,a2
    1a88:	71863603          	ld	a2,1816(a2) # 1718 <.LBB64_5+0x10>
    1a8c:	00c58633          	add	a2,a1,a2
    1a90:	000015b7          	lui	a1,0x1
    1a94:	40b405b3          	sub	a1,s0,a1
    1a98:	70c5bc23          	sd	a2,1816(a1) # 1718 <.LBB64_5+0x10>
    1a9c:	e8043f03          	ld	t5,-384(s0)
    1aa0:	03e505b3          	mul	a1,a0,t5
    1aa4:	00001637          	lui	a2,0x1
    1aa8:	40c40633          	sub	a2,s0,a2
    1aac:	72063603          	ld	a2,1824(a2) # 1720 <.LBB64_5+0x18>
    1ab0:	00c58633          	add	a2,a1,a2
    1ab4:	000015b7          	lui	a1,0x1
    1ab8:	40b405b3          	sub	a1,s0,a1
    1abc:	72c5b023          	sd	a2,1824(a1) # 1720 <.LBB64_5+0x18>
    1ac0:	e7043383          	ld	t2,-400(s0)
    1ac4:	027505b3          	mul	a1,a0,t2
    1ac8:	00001637          	lui	a2,0x1
    1acc:	40c40633          	sub	a2,s0,a2
    1ad0:	72863603          	ld	a2,1832(a2) # 1728 <.LBB64_5+0x20>
    1ad4:	00c58633          	add	a2,a1,a2
    1ad8:	000015b7          	lui	a1,0x1
    1adc:	40b405b3          	sub	a1,s0,a1
    1ae0:	72c5b423          	sd	a2,1832(a1) # 1728 <.LBB64_5+0x20>
    1ae4:	021505b3          	mul	a1,a0,ra
    1ae8:	00001637          	lui	a2,0x1
    1aec:	40c40633          	sub	a2,s0,a2
    1af0:	73063603          	ld	a2,1840(a2) # 1730 <.LBB64_5+0x28>
    1af4:	00c58633          	add	a2,a1,a2
    1af8:	000015b7          	lui	a1,0x1
    1afc:	40b405b3          	sub	a1,s0,a1
    1b00:	72c5b823          	sd	a2,1840(a1) # 1730 <.LBB64_5+0x28>
    1b04:	034505b3          	mul	a1,a0,s4
    1b08:	00001637          	lui	a2,0x1
    1b0c:	40c40633          	sub	a2,s0,a2
    1b10:	73863603          	ld	a2,1848(a2) # 1738 <.LBB64_5+0x30>
    1b14:	00c58633          	add	a2,a1,a2
    1b18:	000015b7          	lui	a1,0x1
    1b1c:	40b405b3          	sub	a1,s0,a1
    1b20:	72c5bc23          	sd	a2,1848(a1) # 1738 <.LBB64_5+0x30>
    1b24:	037505b3          	mul	a1,a0,s7
    1b28:	000b8493          	mv	s1,s7
    1b2c:	00001637          	lui	a2,0x1
    1b30:	40c40633          	sub	a2,s0,a2
    1b34:	74063603          	ld	a2,1856(a2) # 1740 <.LBB64_5+0x38>
    1b38:	00c58633          	add	a2,a1,a2
    1b3c:	000015b7          	lui	a1,0x1
    1b40:	40b405b3          	sub	a1,s0,a1
    1b44:	74c5b023          	sd	a2,1856(a1) # 1740 <.LBB64_5+0x38>
    1b48:	036505b3          	mul	a1,a0,s6
    1b4c:	000b0c93          	mv	s9,s6
    1b50:	e3643c23          	sd	s6,-456(s0)
    1b54:	01258933          	add	s2,a1,s2
    1b58:	000015b7          	lui	a1,0x1
    1b5c:	40b405b3          	sub	a1,s0,a1
    1b60:	6925b023          	sd	s2,1664(a1) # 1680 <.LBB64_4+0x514>
    1b64:	f8843583          	ld	a1,-120(s0)
    1b68:	01958283          	lb	t0,25(a1)
    1b6c:	f4543823          	sd	t0,-176(s0)
    1b70:	03a505b3          	mul	a1,a0,s10
    1b74:	00001637          	lui	a2,0x1
    1b78:	40c40633          	sub	a2,s0,a2
    1b7c:	74863603          	ld	a2,1864(a2) # 1748 <.LBB64_5+0x40>
    1b80:	00c58633          	add	a2,a1,a2
    1b84:	000015b7          	lui	a1,0x1
    1b88:	40b405b3          	sub	a1,s0,a1
    1b8c:	74c5b423          	sd	a2,1864(a1) # 1748 <.LBB64_5+0x40>
    1b90:	f8843583          	ld	a1,-120(s0)
    1b94:	01a58803          	lb	a6,26(a1)
    1b98:	ed043023          	sd	a6,-320(s0)
    1b9c:	025505b3          	mul	a1,a0,t0
    1ba0:	00001637          	lui	a2,0x1
    1ba4:	40c40633          	sub	a2,s0,a2
    1ba8:	75063603          	ld	a2,1872(a2) # 1750 <.LBB64_5+0x48>
    1bac:	00c58633          	add	a2,a1,a2
    1bb0:	000015b7          	lui	a1,0x1
    1bb4:	40b405b3          	sub	a1,s0,a1
    1bb8:	74c5b823          	sd	a2,1872(a1) # 1750 <.LBB64_5+0x48>
    1bbc:	f8843583          	ld	a1,-120(s0)
    1bc0:	01b58303          	lb	t1,27(a1)
    1bc4:	030505b3          	mul	a1,a0,a6
    1bc8:	00001637          	lui	a2,0x1
    1bcc:	40c40633          	sub	a2,s0,a2
    1bd0:	75863603          	ld	a2,1880(a2) # 1758 <.LBB64_5+0x50>
    1bd4:	00c58633          	add	a2,a1,a2
    1bd8:	000015b7          	lui	a1,0x1
    1bdc:	40b405b3          	sub	a1,s0,a1
    1be0:	74c5bc23          	sd	a2,1880(a1) # 1758 <.LBB64_5+0x50>
    1be4:	f8843583          	ld	a1,-120(s0)
    1be8:	01c58803          	lb	a6,28(a1)
    1bec:	f5043c23          	sd	a6,-168(s0)
    1bf0:	026505b3          	mul	a1,a0,t1
    1bf4:	00030913          	mv	s2,t1
    1bf8:	e2643823          	sd	t1,-464(s0)
    1bfc:	00001637          	lui	a2,0x1
    1c00:	40c40633          	sub	a2,s0,a2
    1c04:	76063603          	ld	a2,1888(a2) # 1760 <.LBB64_5+0x58>
    1c08:	00c58633          	add	a2,a1,a2
    1c0c:	000015b7          	lui	a1,0x1
    1c10:	40b405b3          	sub	a1,s0,a1
    1c14:	76c5b023          	sd	a2,1888(a1) # 1760 <.LBB64_5+0x58>
    1c18:	f8843583          	ld	a1,-120(s0)
    1c1c:	01d58e83          	lb	t4,29(a1)
    1c20:	030505b3          	mul	a1,a0,a6
    1c24:	01558ab3          	add	s5,a1,s5
    1c28:	000015b7          	lui	a1,0x1
    1c2c:	40b405b3          	sub	a1,s0,a1
    1c30:	6955b423          	sd	s5,1672(a1) # 1688 <.LBB64_4+0x51c>
    1c34:	f8843583          	ld	a1,-120(s0)
    1c38:	01e58803          	lb	a6,30(a1)
    1c3c:	f5043423          	sd	a6,-184(s0)
    1c40:	03d505b3          	mul	a1,a0,t4
    1c44:	00001637          	lui	a2,0x1
    1c48:	40c40633          	sub	a2,s0,a2
    1c4c:	76863603          	ld	a2,1896(a2) # 1768 <.LBB64_5+0x60>
    1c50:	00c58633          	add	a2,a1,a2
    1c54:	000015b7          	lui	a1,0x1
    1c58:	40b405b3          	sub	a1,s0,a1
    1c5c:	76c5b423          	sd	a2,1896(a1) # 1768 <.LBB64_5+0x60>
    1c60:	f8843583          	ld	a1,-120(s0)
    1c64:	01f58583          	lb	a1,31(a1)
    1c68:	e6b43c23          	sd	a1,-392(s0)
    1c6c:	f8043603          	ld	a2,-128(s0)
    1c70:	e8060983          	lb	s3,-384(a2)
    1c74:	03050c33          	mul	s8,a0,a6
    1c78:	00001637          	lui	a2,0x1
    1c7c:	40c40633          	sub	a2,s0,a2
    1c80:	77063603          	ld	a2,1904(a2) # 1770 <.LBB64_5+0x68>
    1c84:	00cc0633          	add	a2,s8,a2
    1c88:	00001837          	lui	a6,0x1
    1c8c:	41040833          	sub	a6,s0,a6
    1c90:	76c83823          	sd	a2,1904(a6) # 1770 <.LBB64_5+0x68>
    1c94:	02b50533          	mul	a0,a0,a1
    1c98:	000015b7          	lui	a1,0x1
    1c9c:	40b405b3          	sub	a1,s0,a1
    1ca0:	7785b603          	ld	a2,1912(a1) # 1778 <.LBB64_5+0x70>
    1ca4:	00c50633          	add	a2,a0,a2
    1ca8:	00001537          	lui	a0,0x1
    1cac:	40a40533          	sub	a0,s0,a0
    1cb0:	76c53c23          	sd	a2,1912(a0) # 1778 <.LBB64_5+0x70>
    1cb4:	f1843a03          	ld	s4,-232(s0)
    1cb8:	03498533          	mul	a0,s3,s4
    1cbc:	000015b7          	lui	a1,0x1
    1cc0:	40b405b3          	sub	a1,s0,a1
    1cc4:	7985b603          	ld	a2,1944(a1) # 1798 <.LBB64_5+0x90>
    1cc8:	00c50633          	add	a2,a0,a2
    1ccc:	00001537          	lui	a0,0x1
    1cd0:	40a40533          	sub	a0,s0,a0
    1cd4:	78c53c23          	sd	a2,1944(a0) # 1798 <.LBB64_5+0x90>
    1cd8:	f3843a83          	ld	s5,-200(s0)
    1cdc:	03598533          	mul	a0,s3,s5
    1ce0:	000015b7          	lui	a1,0x1
    1ce4:	40b405b3          	sub	a1,s0,a1
    1ce8:	7905b603          	ld	a2,1936(a1) # 1790 <.LBB64_5+0x88>
    1cec:	00c50633          	add	a2,a0,a2
    1cf0:	00001537          	lui	a0,0x1
    1cf4:	40a40533          	sub	a0,s0,a0
    1cf8:	78c53823          	sd	a2,1936(a0) # 1790 <.LBB64_5+0x88>
    1cfc:	e5843283          	ld	t0,-424(s0)
    1d00:	02598533          	mul	a0,s3,t0
    1d04:	000015b7          	lui	a1,0x1
    1d08:	40b405b3          	sub	a1,s0,a1
    1d0c:	7885b603          	ld	a2,1928(a1) # 1788 <.LBB64_5+0x80>
    1d10:	00c50633          	add	a2,a0,a2
    1d14:	00001537          	lui	a0,0x1
    1d18:	40a40533          	sub	a0,s0,a0
    1d1c:	78c53423          	sd	a2,1928(a0) # 1788 <.LBB64_5+0x80>
    1d20:	f3043803          	ld	a6,-208(s0)
    1d24:	03098533          	mul	a0,s3,a6
    1d28:	000015b7          	lui	a1,0x1
    1d2c:	40b405b3          	sub	a1,s0,a1
    1d30:	7805b603          	ld	a2,1920(a1) # 1780 <.LBB64_5+0x78>
    1d34:	00c50633          	add	a2,a0,a2
    1d38:	00001537          	lui	a0,0x1
    1d3c:	40a40533          	sub	a0,s0,a0
    1d40:	78c53023          	sd	a2,1920(a0) # 1780 <.LBB64_5+0x78>
    1d44:	f2843303          	ld	t1,-216(s0)
    1d48:	02698533          	mul	a0,s3,t1
    1d4c:	000015b7          	lui	a1,0x1
    1d50:	40b405b3          	sub	a1,s0,a1
    1d54:	7a05b603          	ld	a2,1952(a1) # 17a0 <.LBB64_5+0x98>
    1d58:	00c50633          	add	a2,a0,a2
    1d5c:	00001537          	lui	a0,0x1
    1d60:	40a40533          	sub	a0,s0,a0
    1d64:	7ac53023          	sd	a2,1952(a0) # 17a0 <.LBB64_5+0x98>
    1d68:	f2043e03          	ld	t3,-224(s0)
    1d6c:	03c98533          	mul	a0,s3,t3
    1d70:	000015b7          	lui	a1,0x1
    1d74:	40b405b3          	sub	a1,s0,a1
    1d78:	7a85b603          	ld	a2,1960(a1) # 17a8 <.LBB64_5+0xa0>
    1d7c:	00c50633          	add	a2,a0,a2
    1d80:	00001537          	lui	a0,0x1
    1d84:	40a40533          	sub	a0,s0,a0
    1d88:	7ac53423          	sd	a2,1960(a0) # 17a8 <.LBB64_5+0xa0>
    1d8c:	02e98533          	mul	a0,s3,a4
    1d90:	000015b7          	lui	a1,0x1
    1d94:	40b405b3          	sub	a1,s0,a1
    1d98:	7b05b603          	ld	a2,1968(a1) # 17b0 <.LBB64_5+0xa8>
    1d9c:	00c50633          	add	a2,a0,a2
    1da0:	00001537          	lui	a0,0x1
    1da4:	40a40533          	sub	a0,s0,a0
    1da8:	7ac53823          	sd	a2,1968(a0) # 17b0 <.LBB64_5+0xa8>
    1dac:	02f98533          	mul	a0,s3,a5
    1db0:	000015b7          	lui	a1,0x1
    1db4:	40b405b3          	sub	a1,s0,a1
    1db8:	7b85b603          	ld	a2,1976(a1) # 17b8 <.LBB64_5+0xb0>
    1dbc:	00c50633          	add	a2,a0,a2
    1dc0:	00001537          	lui	a0,0x1
    1dc4:	40a40533          	sub	a0,s0,a0
    1dc8:	7ac53c23          	sd	a2,1976(a0) # 17b8 <.LBB64_5+0xb0>
    1dcc:	e8843d83          	ld	s11,-376(s0)
    1dd0:	03b98533          	mul	a0,s3,s11
    1dd4:	000015b7          	lui	a1,0x1
    1dd8:	40b405b3          	sub	a1,s0,a1
    1ddc:	7c05b603          	ld	a2,1984(a1) # 17c0 <.LBB64_5+0xb8>
    1de0:	00c50633          	add	a2,a0,a2
    1de4:	00001537          	lui	a0,0x1
    1de8:	40a40533          	sub	a0,s0,a0
    1dec:	7cc53023          	sd	a2,1984(a0) # 17c0 <.LBB64_5+0xb8>
    1df0:	00088b93          	mv	s7,a7
    1df4:	eb143823          	sd	a7,-336(s0)
    1df8:	03198533          	mul	a0,s3,a7
    1dfc:	000015b7          	lui	a1,0x1
    1e00:	40b405b3          	sub	a1,s0,a1
    1e04:	7c85b603          	ld	a2,1992(a1) # 17c8 <.LBB64_5+0xc0>
    1e08:	00c50633          	add	a2,a0,a2
    1e0c:	00001537          	lui	a0,0x1
    1e10:	40a40533          	sub	a0,s0,a0
    1e14:	7cc53423          	sd	a2,1992(a0) # 17c8 <.LBB64_5+0xc0>
    1e18:	e4843b03          	ld	s6,-440(s0)
    1e1c:	03698533          	mul	a0,s3,s6
    1e20:	000015b7          	lui	a1,0x1
    1e24:	40b405b3          	sub	a1,s0,a1
    1e28:	7d05b603          	ld	a2,2000(a1) # 17d0 <.LBB64_5+0xc8>
    1e2c:	00c50633          	add	a2,a0,a2
    1e30:	00001537          	lui	a0,0x1
    1e34:	40a40533          	sub	a0,s0,a0
    1e38:	7cc53823          	sd	a2,2000(a0) # 17d0 <.LBB64_5+0xc8>
    1e3c:	f6843883          	ld	a7,-152(s0)
    1e40:	03198533          	mul	a0,s3,a7
    1e44:	000015b7          	lui	a1,0x1
    1e48:	40b405b3          	sub	a1,s0,a1
    1e4c:	7d85b603          	ld	a2,2008(a1) # 17d8 <.LBB64_5+0xd0>
    1e50:	00c50633          	add	a2,a0,a2
    1e54:	00001537          	lui	a0,0x1
    1e58:	40a40533          	sub	a0,s0,a0
    1e5c:	7cc53c23          	sd	a2,2008(a0) # 17d8 <.LBB64_5+0xd0>
    1e60:	02d98533          	mul	a0,s3,a3
    1e64:	000015b7          	lui	a1,0x1
    1e68:	40b405b3          	sub	a1,s0,a1
    1e6c:	7e05b603          	ld	a2,2016(a1) # 17e0 <.LBB64_5+0xd8>
    1e70:	00c50633          	add	a2,a0,a2
    1e74:	00001537          	lui	a0,0x1
    1e78:	40a40533          	sub	a0,s0,a0
    1e7c:	7ec53023          	sd	a2,2016(a0) # 17e0 <.LBB64_5+0xd8>
    1e80:	f4043f83          	ld	t6,-192(s0)
    1e84:	03f98533          	mul	a0,s3,t6
    1e88:	000015b7          	lui	a1,0x1
    1e8c:	40b405b3          	sub	a1,s0,a1
    1e90:	7e85b603          	ld	a2,2024(a1) # 17e8 <.LBB64_5+0xe0>
    1e94:	00c50633          	add	a2,a0,a2
    1e98:	00001537          	lui	a0,0x1
    1e9c:	40a40533          	sub	a0,s0,a0
    1ea0:	7ec53423          	sd	a2,2024(a0) # 17e8 <.LBB64_5+0xe0>
    1ea4:	eb843783          	ld	a5,-328(s0)
    1ea8:	02f98533          	mul	a0,s3,a5
    1eac:	000015b7          	lui	a1,0x1
    1eb0:	40b405b3          	sub	a1,s0,a1
    1eb4:	7f05b603          	ld	a2,2032(a1) # 17f0 <.LBB64_5+0xe8>
    1eb8:	00c50633          	add	a2,a0,a2
    1ebc:	00001537          	lui	a0,0x1
    1ec0:	40a40533          	sub	a0,s0,a0
    1ec4:	7ec53823          	sd	a2,2032(a0) # 17f0 <.LBB64_5+0xe8>
    1ec8:	e9043703          	ld	a4,-368(s0)
    1ecc:	02e98533          	mul	a0,s3,a4
    1ed0:	000015b7          	lui	a1,0x1
    1ed4:	40b405b3          	sub	a1,s0,a1
    1ed8:	7f85b603          	ld	a2,2040(a1) # 17f8 <.LBB64_5+0xf0>
    1edc:	00c50633          	add	a2,a0,a2
    1ee0:	00001537          	lui	a0,0x1
    1ee4:	40a40533          	sub	a0,s0,a0
    1ee8:	7ec53c23          	sd	a2,2040(a0) # 17f8 <.LBB64_5+0xf0>
    1eec:	e5043683          	ld	a3,-432(s0)
    1ef0:	02d98533          	mul	a0,s3,a3
    1ef4:	80043603          	ld	a2,-2048(s0)
    1ef8:	00c50633          	add	a2,a0,a2
    1efc:	80c43023          	sd	a2,-2048(s0)
    1f00:	f7043503          	ld	a0,-144(s0)
    1f04:	02a98533          	mul	a0,s3,a0
    1f08:	80843603          	ld	a2,-2040(s0)
    1f0c:	00c50633          	add	a2,a0,a2
    1f10:	80c43423          	sd	a2,-2040(s0)
    1f14:	03e98533          	mul	a0,s3,t5
    1f18:	81043603          	ld	a2,-2032(s0)
    1f1c:	00c50633          	add	a2,a0,a2
    1f20:	80c43823          	sd	a2,-2032(s0)
    1f24:	02798533          	mul	a0,s3,t2
    1f28:	81843603          	ld	a2,-2024(s0)
    1f2c:	00c50633          	add	a2,a0,a2
    1f30:	80c43c23          	sd	a2,-2024(s0)
    1f34:	02198533          	mul	a0,s3,ra
    1f38:	82043603          	ld	a2,-2016(s0)
    1f3c:	00c50633          	add	a2,a0,a2
    1f40:	82c43023          	sd	a2,-2016(s0)
    1f44:	f7843503          	ld	a0,-136(s0)
    1f48:	02a98533          	mul	a0,s3,a0
    1f4c:	82843603          	ld	a2,-2008(s0)
    1f50:	00c50633          	add	a2,a0,a2
    1f54:	82c43423          	sd	a2,-2008(s0)
    1f58:	00048593          	mv	a1,s1
    1f5c:	ea943023          	sd	s1,-352(s0)
    1f60:	02998533          	mul	a0,s3,s1
    1f64:	83043603          	ld	a2,-2000(s0)
    1f68:	00c50633          	add	a2,a0,a2
    1f6c:	82c43823          	sd	a2,-2000(s0)
    1f70:	03998533          	mul	a0,s3,s9
    1f74:	83843603          	ld	a2,-1992(s0)
    1f78:	00c50633          	add	a2,a0,a2
    1f7c:	82c43c23          	sd	a2,-1992(s0)
    1f80:	000d0393          	mv	t2,s10
    1f84:	e9a43c23          	sd	s10,-360(s0)
    1f88:	03a98533          	mul	a0,s3,s10
    1f8c:	84043603          	ld	a2,-1984(s0)
    1f90:	00c50633          	add	a2,a0,a2
    1f94:	84c43023          	sd	a2,-1984(s0)
    1f98:	f5043f03          	ld	t5,-176(s0)
    1f9c:	03e98533          	mul	a0,s3,t5
    1fa0:	84843603          	ld	a2,-1976(s0)
    1fa4:	00c50633          	add	a2,a0,a2
    1fa8:	84c43423          	sd	a2,-1976(s0)
    1fac:	ec043503          	ld	a0,-320(s0)
    1fb0:	02a98533          	mul	a0,s3,a0
    1fb4:	85043603          	ld	a2,-1968(s0)
    1fb8:	00c50633          	add	a2,a0,a2
    1fbc:	84c43823          	sd	a2,-1968(s0)
    1fc0:	03298533          	mul	a0,s3,s2
    1fc4:	85843603          	ld	a2,-1960(s0)
    1fc8:	00c50633          	add	a2,a0,a2
    1fcc:	84c43c23          	sd	a2,-1960(s0)
    1fd0:	f5843483          	ld	s1,-168(s0)
    1fd4:	02998533          	mul	a0,s3,s1
    1fd8:	86043603          	ld	a2,-1952(s0)
    1fdc:	00c50633          	add	a2,a0,a2
    1fe0:	86c43023          	sd	a2,-1952(s0)
    1fe4:	e5d43023          	sd	t4,-448(s0)
    1fe8:	03d98533          	mul	a0,s3,t4
    1fec:	86843603          	ld	a2,-1944(s0)
    1ff0:	00c50633          	add	a2,a0,a2
    1ff4:	86c43423          	sd	a2,-1944(s0)
    1ff8:	f8043503          	ld	a0,-128(s0)
    1ffc:	ec050503          	lb	a0,-320(a0)
    2000:	f4843d03          	ld	s10,-184(s0)
    2004:	03a98c33          	mul	s8,s3,s10
    2008:	87043603          	ld	a2,-1936(s0)
    200c:	00cc0633          	add	a2,s8,a2
    2010:	86c43823          	sd	a2,-1936(s0)
    2014:	e7843c83          	ld	s9,-392(s0)
    2018:	039989b3          	mul	s3,s3,s9
    201c:	87843603          	ld	a2,-1928(s0)
    2020:	00c98633          	add	a2,s3,a2
    2024:	86c43c23          	sd	a2,-1928(s0)
    2028:	034509b3          	mul	s3,a0,s4
    202c:	89843603          	ld	a2,-1896(s0)
    2030:	00c98633          	add	a2,s3,a2
    2034:	88c43c23          	sd	a2,-1896(s0)
    2038:	035509b3          	mul	s3,a0,s5
    203c:	89043603          	ld	a2,-1904(s0)
    2040:	00c98633          	add	a2,s3,a2
    2044:	88c43823          	sd	a2,-1904(s0)
    2048:	025509b3          	mul	s3,a0,t0
    204c:	00028a93          	mv	s5,t0
    2050:	88843603          	ld	a2,-1912(s0)
    2054:	00c98633          	add	a2,s3,a2
    2058:	88c43423          	sd	a2,-1912(s0)
    205c:	030509b3          	mul	s3,a0,a6
    2060:	88043603          	ld	a2,-1920(s0)
    2064:	00c98633          	add	a2,s3,a2
    2068:	88c43023          	sd	a2,-1920(s0)
    206c:	026509b3          	mul	s3,a0,t1
    2070:	8a043603          	ld	a2,-1888(s0)
    2074:	00c98633          	add	a2,s3,a2
    2078:	8ac43023          	sd	a2,-1888(s0)
    207c:	03c509b3          	mul	s3,a0,t3
    2080:	8a843603          	ld	a2,-1880(s0)
    2084:	00c98633          	add	a2,s3,a2
    2088:	8ac43423          	sd	a2,-1880(s0)
    208c:	ea843603          	ld	a2,-344(s0)
    2090:	02c509b3          	mul	s3,a0,a2
    2094:	8b043603          	ld	a2,-1872(s0)
    2098:	00c98633          	add	a2,s3,a2
    209c:	8ac43823          	sd	a2,-1872(s0)
    20a0:	e6043603          	ld	a2,-416(s0)
    20a4:	02c509b3          	mul	s3,a0,a2
    20a8:	8b843603          	ld	a2,-1864(s0)
    20ac:	00c98633          	add	a2,s3,a2
    20b0:	8ac43c23          	sd	a2,-1864(s0)
    20b4:	03b509b3          	mul	s3,a0,s11
    20b8:	8c043603          	ld	a2,-1856(s0)
    20bc:	00c98633          	add	a2,s3,a2
    20c0:	8cc43023          	sd	a2,-1856(s0)
    20c4:	037509b3          	mul	s3,a0,s7
    20c8:	8c843603          	ld	a2,-1848(s0)
    20cc:	00c98633          	add	a2,s3,a2
    20d0:	8cc43423          	sd	a2,-1848(s0)
    20d4:	036509b3          	mul	s3,a0,s6
    20d8:	000b0313          	mv	t1,s6
    20dc:	8d043603          	ld	a2,-1840(s0)
    20e0:	00c98633          	add	a2,s3,a2
    20e4:	8cc43823          	sd	a2,-1840(s0)
    20e8:	031509b3          	mul	s3,a0,a7
    20ec:	8d843603          	ld	a2,-1832(s0)
    20f0:	00c98633          	add	a2,s3,a2
    20f4:	8cc43c23          	sd	a2,-1832(s0)
    20f8:	f6043283          	ld	t0,-160(s0)
    20fc:	025509b3          	mul	s3,a0,t0
    2100:	8e043603          	ld	a2,-1824(s0)
    2104:	00c98633          	add	a2,s3,a2
    2108:	8ec43023          	sd	a2,-1824(s0)
    210c:	03f509b3          	mul	s3,a0,t6
    2110:	8e843603          	ld	a2,-1816(s0)
    2114:	00c98633          	add	a2,s3,a2
    2118:	8ec43423          	sd	a2,-1816(s0)
    211c:	02f509b3          	mul	s3,a0,a5
    2120:	8f043603          	ld	a2,-1808(s0)
    2124:	00c98633          	add	a2,s3,a2
    2128:	8ec43823          	sd	a2,-1808(s0)
    212c:	02e509b3          	mul	s3,a0,a4
    2130:	8f843603          	ld	a2,-1800(s0)
    2134:	00c98633          	add	a2,s3,a2
    2138:	8ec43c23          	sd	a2,-1800(s0)
    213c:	02d509b3          	mul	s3,a0,a3
    2140:	00068f93          	mv	t6,a3
    2144:	90043603          	ld	a2,-1792(s0)
    2148:	00c98633          	add	a2,s3,a2
    214c:	90c43023          	sd	a2,-1792(s0)
    2150:	f7043d83          	ld	s11,-144(s0)
    2154:	03b509b3          	mul	s3,a0,s11
    2158:	90843603          	ld	a2,-1784(s0)
    215c:	00c98633          	add	a2,s3,a2
    2160:	90c43423          	sd	a2,-1784(s0)
    2164:	e8043b83          	ld	s7,-384(s0)
    2168:	037509b3          	mul	s3,a0,s7
    216c:	91043603          	ld	a2,-1776(s0)
    2170:	00c98633          	add	a2,s3,a2
    2174:	90c43823          	sd	a2,-1776(s0)
    2178:	e7043b03          	ld	s6,-400(s0)
    217c:	036509b3          	mul	s3,a0,s6
    2180:	91843603          	ld	a2,-1768(s0)
    2184:	00c98633          	add	a2,s3,a2
    2188:	90c43c23          	sd	a2,-1768(s0)
    218c:	e6143423          	sd	ra,-408(s0)
    2190:	021509b3          	mul	s3,a0,ra
    2194:	92043603          	ld	a2,-1760(s0)
    2198:	00c98633          	add	a2,s3,a2
    219c:	92c43023          	sd	a2,-1760(s0)
    21a0:	f7843e03          	ld	t3,-136(s0)
    21a4:	03c509b3          	mul	s3,a0,t3
    21a8:	92843603          	ld	a2,-1752(s0)
    21ac:	00c98633          	add	a2,s3,a2
    21b0:	92c43423          	sd	a2,-1752(s0)
    21b4:	02b509b3          	mul	s3,a0,a1
    21b8:	93043603          	ld	a2,-1744(s0)
    21bc:	00c98633          	add	a2,s3,a2
    21c0:	92c43823          	sd	a2,-1744(s0)
    21c4:	e3843a03          	ld	s4,-456(s0)
    21c8:	034509b3          	mul	s3,a0,s4
    21cc:	93843603          	ld	a2,-1736(s0)
    21d0:	00c98633          	add	a2,s3,a2
    21d4:	92c43c23          	sd	a2,-1736(s0)
    21d8:	027509b3          	mul	s3,a0,t2
    21dc:	94043603          	ld	a2,-1728(s0)
    21e0:	00c98633          	add	a2,s3,a2
    21e4:	94c43023          	sd	a2,-1728(s0)
    21e8:	03e509b3          	mul	s3,a0,t5
    21ec:	94843603          	ld	a2,-1720(s0)
    21f0:	00c98633          	add	a2,s3,a2
    21f4:	94c43423          	sd	a2,-1720(s0)
    21f8:	ec043903          	ld	s2,-320(s0)
    21fc:	032509b3          	mul	s3,a0,s2
    2200:	95043603          	ld	a2,-1712(s0)
    2204:	00c98633          	add	a2,s3,a2
    2208:	94c43823          	sd	a2,-1712(s0)
    220c:	e3043803          	ld	a6,-464(s0)
    2210:	030509b3          	mul	s3,a0,a6
    2214:	95843603          	ld	a2,-1704(s0)
    2218:	00c98633          	add	a2,s3,a2
    221c:	94c43c23          	sd	a2,-1704(s0)
    2220:	029509b3          	mul	s3,a0,s1
    2224:	96043603          	ld	a2,-1696(s0)
    2228:	00c98633          	add	a2,s3,a2
    222c:	96c43023          	sd	a2,-1696(s0)
    2230:	03d509b3          	mul	s3,a0,t4
    2234:	96843603          	ld	a2,-1688(s0)
    2238:	00c98633          	add	a2,s3,a2
    223c:	96c43423          	sd	a2,-1688(s0)
    2240:	f8043603          	ld	a2,-128(s0)
    2244:	f0060983          	lb	s3,-256(a2)
    2248:	03a50c33          	mul	s8,a0,s10
    224c:	97043603          	ld	a2,-1680(s0)
    2250:	00cc0633          	add	a2,s8,a2
    2254:	96c43823          	sd	a2,-1680(s0)
    2258:	03950533          	mul	a0,a0,s9
    225c:	97843603          	ld	a2,-1672(s0)
    2260:	00c50633          	add	a2,a0,a2
    2264:	96c43c23          	sd	a2,-1672(s0)
    2268:	f1843703          	ld	a4,-232(s0)
    226c:	02e98533          	mul	a0,s3,a4
    2270:	99843603          	ld	a2,-1640(s0)
    2274:	00c50633          	add	a2,a0,a2
    2278:	98c43c23          	sd	a2,-1640(s0)
    227c:	f3843683          	ld	a3,-200(s0)
    2280:	02d98533          	mul	a0,s3,a3
    2284:	99043603          	ld	a2,-1648(s0)
    2288:	00c50633          	add	a2,a0,a2
    228c:	98c43823          	sd	a2,-1648(s0)
    2290:	03598533          	mul	a0,s3,s5
    2294:	98843603          	ld	a2,-1656(s0)
    2298:	00c50633          	add	a2,a0,a2
    229c:	98c43423          	sd	a2,-1656(s0)
    22a0:	f3043783          	ld	a5,-208(s0)
    22a4:	02f98533          	mul	a0,s3,a5
    22a8:	98043603          	ld	a2,-1664(s0)
    22ac:	00c50633          	add	a2,a0,a2
    22b0:	98c43023          	sd	a2,-1664(s0)
    22b4:	f2843583          	ld	a1,-216(s0)
    22b8:	02b98533          	mul	a0,s3,a1
    22bc:	9a043603          	ld	a2,-1632(s0)
    22c0:	00c50633          	add	a2,a0,a2
    22c4:	9ac43023          	sd	a2,-1632(s0)
    22c8:	f2043883          	ld	a7,-224(s0)
    22cc:	03198533          	mul	a0,s3,a7
    22d0:	9a843603          	ld	a2,-1624(s0)
    22d4:	00c50633          	add	a2,a0,a2
    22d8:	9ac43423          	sd	a2,-1624(s0)
    22dc:	ea843c83          	ld	s9,-344(s0)
    22e0:	03998533          	mul	a0,s3,s9
    22e4:	9b043603          	ld	a2,-1616(s0)
    22e8:	00c50633          	add	a2,a0,a2
    22ec:	9ac43823          	sd	a2,-1616(s0)
    22f0:	e6043483          	ld	s1,-416(s0)
    22f4:	02998533          	mul	a0,s3,s1
    22f8:	9b843603          	ld	a2,-1608(s0)
    22fc:	00c50633          	add	a2,a0,a2
    2300:	9ac43c23          	sd	a2,-1608(s0)
    2304:	e8843d03          	ld	s10,-376(s0)
    2308:	03a98533          	mul	a0,s3,s10
    230c:	9c043603          	ld	a2,-1600(s0)
    2310:	00c50633          	add	a2,a0,a2
    2314:	9cc43023          	sd	a2,-1600(s0)
    2318:	eb043503          	ld	a0,-336(s0)
    231c:	02a98533          	mul	a0,s3,a0
    2320:	9c843603          	ld	a2,-1592(s0)
    2324:	00c50633          	add	a2,a0,a2
    2328:	9cc43423          	sd	a2,-1592(s0)
    232c:	02698533          	mul	a0,s3,t1
    2330:	9d043603          	ld	a2,-1584(s0)
    2334:	00c50633          	add	a2,a0,a2
    2338:	9cc43823          	sd	a2,-1584(s0)
    233c:	f6843503          	ld	a0,-152(s0)
    2340:	02a98533          	mul	a0,s3,a0
    2344:	9d843603          	ld	a2,-1576(s0)
    2348:	00c50633          	add	a2,a0,a2
    234c:	9cc43c23          	sd	a2,-1576(s0)
    2350:	02598533          	mul	a0,s3,t0
    2354:	9e043603          	ld	a2,-1568(s0)
    2358:	00c50633          	add	a2,a0,a2
    235c:	9ec43023          	sd	a2,-1568(s0)
    2360:	f4043383          	ld	t2,-192(s0)
    2364:	02798533          	mul	a0,s3,t2
    2368:	9e843603          	ld	a2,-1560(s0)
    236c:	00c50633          	add	a2,a0,a2
    2370:	9ec43423          	sd	a2,-1560(s0)
    2374:	eb843503          	ld	a0,-328(s0)
    2378:	02a98533          	mul	a0,s3,a0
    237c:	9f043603          	ld	a2,-1552(s0)
    2380:	00c50633          	add	a2,a0,a2
    2384:	9ec43823          	sd	a2,-1552(s0)
    2388:	e9043283          	ld	t0,-368(s0)
    238c:	02598533          	mul	a0,s3,t0
    2390:	9f843603          	ld	a2,-1544(s0)
    2394:	00c50633          	add	a2,a0,a2
    2398:	9ec43c23          	sd	a2,-1544(s0)
    239c:	03f98533          	mul	a0,s3,t6
    23a0:	a0043603          	ld	a2,-1536(s0)
    23a4:	00c50633          	add	a2,a0,a2
    23a8:	a0c43023          	sd	a2,-1536(s0)
    23ac:	03b98533          	mul	a0,s3,s11
    23b0:	a0843603          	ld	a2,-1528(s0)
    23b4:	00c50633          	add	a2,a0,a2
    23b8:	a0c43423          	sd	a2,-1528(s0)
    23bc:	03798533          	mul	a0,s3,s7
    23c0:	a1043603          	ld	a2,-1520(s0)
    23c4:	00c50633          	add	a2,a0,a2
    23c8:	a0c43823          	sd	a2,-1520(s0)
    23cc:	03698533          	mul	a0,s3,s6
    23d0:	000b0f13          	mv	t5,s6
    23d4:	a1843603          	ld	a2,-1512(s0)
    23d8:	00c50633          	add	a2,a0,a2
    23dc:	a0c43c23          	sd	a2,-1512(s0)
    23e0:	02198533          	mul	a0,s3,ra
    23e4:	a2043603          	ld	a2,-1504(s0)
    23e8:	00c50633          	add	a2,a0,a2
    23ec:	a2c43023          	sd	a2,-1504(s0)
    23f0:	03c98533          	mul	a0,s3,t3
    23f4:	a2843603          	ld	a2,-1496(s0)
    23f8:	00c50633          	add	a2,a0,a2
    23fc:	a2c43423          	sd	a2,-1496(s0)
    2400:	ea043d83          	ld	s11,-352(s0)
    2404:	03b98533          	mul	a0,s3,s11
    2408:	a3043603          	ld	a2,-1488(s0)
    240c:	00c50633          	add	a2,a0,a2
    2410:	a2c43823          	sd	a2,-1488(s0)
    2414:	03498533          	mul	a0,s3,s4
    2418:	a3843603          	ld	a2,-1480(s0)
    241c:	00c50633          	add	a2,a0,a2
    2420:	a2c43c23          	sd	a2,-1480(s0)
    2424:	e9843e83          	ld	t4,-360(s0)
    2428:	03d98533          	mul	a0,s3,t4
    242c:	a4043603          	ld	a2,-1472(s0)
    2430:	00c50633          	add	a2,a0,a2
    2434:	a4c43023          	sd	a2,-1472(s0)
    2438:	f5043303          	ld	t1,-176(s0)
    243c:	02698533          	mul	a0,s3,t1
    2440:	a4843603          	ld	a2,-1464(s0)
    2444:	00c50633          	add	a2,a0,a2
    2448:	a4c43423          	sd	a2,-1464(s0)
    244c:	03298533          	mul	a0,s3,s2
    2450:	00090a13          	mv	s4,s2
    2454:	a5043603          	ld	a2,-1456(s0)
    2458:	00c50633          	add	a2,a0,a2
    245c:	a4c43823          	sd	a2,-1456(s0)
    2460:	00080b93          	mv	s7,a6
    2464:	03098533          	mul	a0,s3,a6
    2468:	a5843603          	ld	a2,-1448(s0)
    246c:	00c50633          	add	a2,a0,a2
    2470:	a4c43c23          	sd	a2,-1448(s0)
    2474:	f5843803          	ld	a6,-168(s0)
    2478:	03098533          	mul	a0,s3,a6
    247c:	a6043603          	ld	a2,-1440(s0)
    2480:	00c50633          	add	a2,a0,a2
    2484:	a6c43023          	sd	a2,-1440(s0)
    2488:	e4043903          	ld	s2,-448(s0)
    248c:	03298533          	mul	a0,s3,s2
    2490:	a6843603          	ld	a2,-1432(s0)
    2494:	00c50633          	add	a2,a0,a2
    2498:	a6c43423          	sd	a2,-1432(s0)
    249c:	f8043503          	ld	a0,-128(s0)
    24a0:	f4050503          	lb	a0,-192(a0)
    24a4:	f4843f83          	ld	t6,-184(s0)
    24a8:	03f98c33          	mul	s8,s3,t6
    24ac:	a7043603          	ld	a2,-1424(s0)
    24b0:	00cc0633          	add	a2,s8,a2
    24b4:	a6c43823          	sd	a2,-1424(s0)
    24b8:	e7843083          	ld	ra,-392(s0)
    24bc:	021989b3          	mul	s3,s3,ra
    24c0:	a7843603          	ld	a2,-1416(s0)
    24c4:	00c98633          	add	a2,s3,a2
    24c8:	a6c43c23          	sd	a2,-1416(s0)
    24cc:	02e509b3          	mul	s3,a0,a4
    24d0:	a9843603          	ld	a2,-1384(s0)
    24d4:	00c98633          	add	a2,s3,a2
    24d8:	a8c43c23          	sd	a2,-1384(s0)
    24dc:	02d509b3          	mul	s3,a0,a3
    24e0:	a9043603          	ld	a2,-1392(s0)
    24e4:	00c98633          	add	a2,s3,a2
    24e8:	a8c43823          	sd	a2,-1392(s0)
    24ec:	035509b3          	mul	s3,a0,s5
    24f0:	a8843603          	ld	a2,-1400(s0)
    24f4:	00c98633          	add	a2,s3,a2
    24f8:	a8c43423          	sd	a2,-1400(s0)
    24fc:	02f509b3          	mul	s3,a0,a5
    2500:	a8043603          	ld	a2,-1408(s0)
    2504:	00c98633          	add	a2,s3,a2
    2508:	a8c43023          	sd	a2,-1408(s0)
    250c:	02b509b3          	mul	s3,a0,a1
    2510:	aa043603          	ld	a2,-1376(s0)
    2514:	00c98633          	add	a2,s3,a2
    2518:	aac43023          	sd	a2,-1376(s0)
    251c:	031509b3          	mul	s3,a0,a7
    2520:	aa843603          	ld	a2,-1368(s0)
    2524:	00c98633          	add	a2,s3,a2
    2528:	aac43423          	sd	a2,-1368(s0)
    252c:	039509b3          	mul	s3,a0,s9
    2530:	ab043603          	ld	a2,-1360(s0)
    2534:	00c98633          	add	a2,s3,a2
    2538:	aac43823          	sd	a2,-1360(s0)
    253c:	00048693          	mv	a3,s1
    2540:	029509b3          	mul	s3,a0,s1
    2544:	ab843603          	ld	a2,-1352(s0)
    2548:	00c98633          	add	a2,s3,a2
    254c:	aac43c23          	sd	a2,-1352(s0)
    2550:	000d0713          	mv	a4,s10
    2554:	03a509b3          	mul	s3,a0,s10
    2558:	ac043603          	ld	a2,-1344(s0)
    255c:	00c98633          	add	a2,s3,a2
    2560:	acc43023          	sd	a2,-1344(s0)
    2564:	eb043783          	ld	a5,-336(s0)
    2568:	02f509b3          	mul	s3,a0,a5
    256c:	ac843603          	ld	a2,-1336(s0)
    2570:	00c98633          	add	a2,s3,a2
    2574:	acc43423          	sd	a2,-1336(s0)
    2578:	e4843b03          	ld	s6,-440(s0)
    257c:	036509b3          	mul	s3,a0,s6
    2580:	ad043603          	ld	a2,-1328(s0)
    2584:	00c98633          	add	a2,s3,a2
    2588:	acc43823          	sd	a2,-1328(s0)
    258c:	f6843e03          	ld	t3,-152(s0)
    2590:	03c509b3          	mul	s3,a0,t3
    2594:	ad843603          	ld	a2,-1320(s0)
    2598:	00c98633          	add	a2,s3,a2
    259c:	acc43c23          	sd	a2,-1320(s0)
    25a0:	f6043583          	ld	a1,-160(s0)
    25a4:	02b509b3          	mul	s3,a0,a1
    25a8:	ae043603          	ld	a2,-1312(s0)
    25ac:	00c98633          	add	a2,s3,a2
    25b0:	aec43023          	sd	a2,-1312(s0)
    25b4:	027509b3          	mul	s3,a0,t2
    25b8:	ae843603          	ld	a2,-1304(s0)
    25bc:	00c98633          	add	a2,s3,a2
    25c0:	aec43423          	sd	a2,-1304(s0)
    25c4:	eb843d03          	ld	s10,-328(s0)
    25c8:	03a509b3          	mul	s3,a0,s10
    25cc:	af043603          	ld	a2,-1296(s0)
    25d0:	00c98633          	add	a2,s3,a2
    25d4:	aec43823          	sd	a2,-1296(s0)
    25d8:	00028593          	mv	a1,t0
    25dc:	025509b3          	mul	s3,a0,t0
    25e0:	af843603          	ld	a2,-1288(s0)
    25e4:	00c98633          	add	a2,s3,a2
    25e8:	aec43c23          	sd	a2,-1288(s0)
    25ec:	e5043883          	ld	a7,-432(s0)
    25f0:	031509b3          	mul	s3,a0,a7
    25f4:	b0043603          	ld	a2,-1280(s0)
    25f8:	00c98633          	add	a2,s3,a2
    25fc:	b0c43023          	sd	a2,-1280(s0)
    2600:	f7043283          	ld	t0,-144(s0)
    2604:	025509b3          	mul	s3,a0,t0
    2608:	b0843603          	ld	a2,-1272(s0)
    260c:	00c98633          	add	a2,s3,a2
    2610:	b0c43423          	sd	a2,-1272(s0)
    2614:	e8043383          	ld	t2,-384(s0)
    2618:	027509b3          	mul	s3,a0,t2
    261c:	b1043603          	ld	a2,-1264(s0)
    2620:	00c98633          	add	a2,s3,a2
    2624:	b0c43823          	sd	a2,-1264(s0)
    2628:	03e509b3          	mul	s3,a0,t5
    262c:	b1843603          	ld	a2,-1256(s0)
    2630:	00c98633          	add	a2,s3,a2
    2634:	b0c43c23          	sd	a2,-1256(s0)
    2638:	e6843603          	ld	a2,-408(s0)
    263c:	02c509b3          	mul	s3,a0,a2
    2640:	b2043603          	ld	a2,-1248(s0)
    2644:	00c98633          	add	a2,s3,a2
    2648:	b2c43023          	sd	a2,-1248(s0)
    264c:	f7843603          	ld	a2,-136(s0)
    2650:	02c509b3          	mul	s3,a0,a2
    2654:	b2843603          	ld	a2,-1240(s0)
    2658:	00c98633          	add	a2,s3,a2
    265c:	b2c43423          	sd	a2,-1240(s0)
    2660:	03b509b3          	mul	s3,a0,s11
    2664:	b3043603          	ld	a2,-1232(s0)
    2668:	00c98633          	add	a2,s3,a2
    266c:	b2c43823          	sd	a2,-1232(s0)
    2670:	e3843d83          	ld	s11,-456(s0)
    2674:	03b509b3          	mul	s3,a0,s11
    2678:	b3843603          	ld	a2,-1224(s0)
    267c:	00c98633          	add	a2,s3,a2
    2680:	b2c43c23          	sd	a2,-1224(s0)
    2684:	03d509b3          	mul	s3,a0,t4
    2688:	b4043603          	ld	a2,-1216(s0)
    268c:	00c98633          	add	a2,s3,a2
    2690:	b4c43023          	sd	a2,-1216(s0)
    2694:	026509b3          	mul	s3,a0,t1
    2698:	b4843603          	ld	a2,-1208(s0)
    269c:	00c98633          	add	a2,s3,a2
    26a0:	b4c43423          	sd	a2,-1208(s0)
    26a4:	000a0313          	mv	t1,s4
    26a8:	034509b3          	mul	s3,a0,s4
    26ac:	b5043603          	ld	a2,-1200(s0)
    26b0:	00c98633          	add	a2,s3,a2
    26b4:	b4c43823          	sd	a2,-1200(s0)
    26b8:	037509b3          	mul	s3,a0,s7
    26bc:	b5843603          	ld	a2,-1192(s0)
    26c0:	00c98633          	add	a2,s3,a2
    26c4:	b4c43c23          	sd	a2,-1192(s0)
    26c8:	030509b3          	mul	s3,a0,a6
    26cc:	b6043603          	ld	a2,-1184(s0)
    26d0:	00c98633          	add	a2,s3,a2
    26d4:	b6c43023          	sd	a2,-1184(s0)
    26d8:	032509b3          	mul	s3,a0,s2
    26dc:	00090b93          	mv	s7,s2
    26e0:	b6843603          	ld	a2,-1176(s0)
    26e4:	00c98633          	add	a2,s3,a2
    26e8:	b6c43423          	sd	a2,-1176(s0)
    26ec:	f8043603          	ld	a2,-128(s0)
    26f0:	f8060983          	lb	s3,-128(a2)
    26f4:	03f50c33          	mul	s8,a0,t6
    26f8:	b7043603          	ld	a2,-1168(s0)
    26fc:	00cc0633          	add	a2,s8,a2
    2700:	b6c43823          	sd	a2,-1168(s0)
    2704:	02150533          	mul	a0,a0,ra
    2708:	b7843603          	ld	a2,-1160(s0)
    270c:	00c50633          	add	a2,a0,a2
    2710:	b6c43c23          	sd	a2,-1160(s0)
    2714:	f1843483          	ld	s1,-232(s0)
    2718:	02998533          	mul	a0,s3,s1
    271c:	b9843603          	ld	a2,-1128(s0)
    2720:	00c50633          	add	a2,a0,a2
    2724:	b8c43c23          	sd	a2,-1128(s0)
    2728:	f3843803          	ld	a6,-200(s0)
    272c:	03098533          	mul	a0,s3,a6
    2730:	b9043603          	ld	a2,-1136(s0)
    2734:	00c50633          	add	a2,a0,a2
    2738:	b8c43823          	sd	a2,-1136(s0)
    273c:	03598533          	mul	a0,s3,s5
    2740:	000a8093          	mv	ra,s5
    2744:	b8843603          	ld	a2,-1144(s0)
    2748:	00c50633          	add	a2,a0,a2
    274c:	b8c43423          	sd	a2,-1144(s0)
    2750:	f3043e83          	ld	t4,-208(s0)
    2754:	03d98533          	mul	a0,s3,t4
    2758:	b8043603          	ld	a2,-1152(s0)
    275c:	00c50633          	add	a2,a0,a2
    2760:	b8c43023          	sd	a2,-1152(s0)
    2764:	f2843f03          	ld	t5,-216(s0)
    2768:	03e98533          	mul	a0,s3,t5
    276c:	ba043603          	ld	a2,-1120(s0)
    2770:	00c50633          	add	a2,a0,a2
    2774:	bac43023          	sd	a2,-1120(s0)
    2778:	f2043f83          	ld	t6,-224(s0)
    277c:	03f98533          	mul	a0,s3,t6
    2780:	ba843603          	ld	a2,-1112(s0)
    2784:	00c50633          	add	a2,a0,a2
    2788:	bac43423          	sd	a2,-1112(s0)
    278c:	03998533          	mul	a0,s3,s9
    2790:	bb043603          	ld	a2,-1104(s0)
    2794:	00c50633          	add	a2,a0,a2
    2798:	bac43823          	sd	a2,-1104(s0)
    279c:	02d98533          	mul	a0,s3,a3
    27a0:	00068a93          	mv	s5,a3
    27a4:	bb843603          	ld	a2,-1096(s0)
    27a8:	00c50633          	add	a2,a0,a2
    27ac:	bac43c23          	sd	a2,-1096(s0)
    27b0:	02e98533          	mul	a0,s3,a4
    27b4:	bc043603          	ld	a2,-1088(s0)
    27b8:	00c50633          	add	a2,a0,a2
    27bc:	bcc43023          	sd	a2,-1088(s0)
    27c0:	02f98533          	mul	a0,s3,a5
    27c4:	bc843603          	ld	a2,-1080(s0)
    27c8:	00c50633          	add	a2,a0,a2
    27cc:	bcc43423          	sd	a2,-1080(s0)
    27d0:	03698533          	mul	a0,s3,s6
    27d4:	bd043603          	ld	a2,-1072(s0)
    27d8:	00c50633          	add	a2,a0,a2
    27dc:	bcc43823          	sd	a2,-1072(s0)
    27e0:	03c98533          	mul	a0,s3,t3
    27e4:	bd843603          	ld	a2,-1064(s0)
    27e8:	00c50633          	add	a2,a0,a2
    27ec:	bcc43c23          	sd	a2,-1064(s0)
    27f0:	f6043683          	ld	a3,-160(s0)
    27f4:	02d98533          	mul	a0,s3,a3
    27f8:	be043603          	ld	a2,-1056(s0)
    27fc:	00c50633          	add	a2,a0,a2
    2800:	bec43023          	sd	a2,-1056(s0)
    2804:	f4043783          	ld	a5,-192(s0)
    2808:	02f98533          	mul	a0,s3,a5
    280c:	be843603          	ld	a2,-1048(s0)
    2810:	00c50633          	add	a2,a0,a2
    2814:	bec43423          	sd	a2,-1048(s0)
    2818:	03a98533          	mul	a0,s3,s10
    281c:	bf043603          	ld	a2,-1040(s0)
    2820:	00c50633          	add	a2,a0,a2
    2824:	bec43823          	sd	a2,-1040(s0)
    2828:	02b98533          	mul	a0,s3,a1
    282c:	bf843603          	ld	a2,-1032(s0)
    2830:	00c50633          	add	a2,a0,a2
    2834:	bec43c23          	sd	a2,-1032(s0)
    2838:	03198533          	mul	a0,s3,a7
    283c:	00088913          	mv	s2,a7
    2840:	c0043603          	ld	a2,-1024(s0)
    2844:	00c50633          	add	a2,a0,a2
    2848:	c0c43023          	sd	a2,-1024(s0)
    284c:	02598533          	mul	a0,s3,t0
    2850:	c0843603          	ld	a2,-1016(s0)
    2854:	00c50633          	add	a2,a0,a2
    2858:	c0c43423          	sd	a2,-1016(s0)
    285c:	02798533          	mul	a0,s3,t2
    2860:	00038a13          	mv	s4,t2
    2864:	c1043603          	ld	a2,-1008(s0)
    2868:	00c50633          	add	a2,a0,a2
    286c:	c0c43823          	sd	a2,-1008(s0)
    2870:	e7043883          	ld	a7,-400(s0)
    2874:	03198533          	mul	a0,s3,a7
    2878:	c1843603          	ld	a2,-1000(s0)
    287c:	00c50633          	add	a2,a0,a2
    2880:	c0c43c23          	sd	a2,-1000(s0)
    2884:	e6843383          	ld	t2,-408(s0)
    2888:	02798533          	mul	a0,s3,t2
    288c:	c2043603          	ld	a2,-992(s0)
    2890:	00c50633          	add	a2,a0,a2
    2894:	c2c43023          	sd	a2,-992(s0)
    2898:	f7843583          	ld	a1,-136(s0)
    289c:	02b98533          	mul	a0,s3,a1
    28a0:	c2843603          	ld	a2,-984(s0)
    28a4:	00c50633          	add	a2,a0,a2
    28a8:	c2c43423          	sd	a2,-984(s0)
    28ac:	ea043503          	ld	a0,-352(s0)
    28b0:	02a98533          	mul	a0,s3,a0
    28b4:	c3043603          	ld	a2,-976(s0)
    28b8:	00c50633          	add	a2,a0,a2
    28bc:	c2c43823          	sd	a2,-976(s0)
    28c0:	000d8713          	mv	a4,s11
    28c4:	03b98533          	mul	a0,s3,s11
    28c8:	c3843603          	ld	a2,-968(s0)
    28cc:	00c50633          	add	a2,a0,a2
    28d0:	c2c43c23          	sd	a2,-968(s0)
    28d4:	e9843503          	ld	a0,-360(s0)
    28d8:	02a98533          	mul	a0,s3,a0
    28dc:	c4043603          	ld	a2,-960(s0)
    28e0:	00c50633          	add	a2,a0,a2
    28e4:	c4c43023          	sd	a2,-960(s0)
    28e8:	f5043503          	ld	a0,-176(s0)
    28ec:	02a98533          	mul	a0,s3,a0
    28f0:	c4843603          	ld	a2,-952(s0)
    28f4:	00c50633          	add	a2,a0,a2
    28f8:	c4c43423          	sd	a2,-952(s0)
    28fc:	02698533          	mul	a0,s3,t1
    2900:	c5043603          	ld	a2,-944(s0)
    2904:	00c50633          	add	a2,a0,a2
    2908:	c4c43823          	sd	a2,-944(s0)
    290c:	e3043303          	ld	t1,-464(s0)
    2910:	02698533          	mul	a0,s3,t1
    2914:	c5843603          	ld	a2,-936(s0)
    2918:	00c50633          	add	a2,a0,a2
    291c:	c4c43c23          	sd	a2,-936(s0)
    2920:	f5843503          	ld	a0,-168(s0)
    2924:	02a98533          	mul	a0,s3,a0
    2928:	c6043603          	ld	a2,-928(s0)
    292c:	00c50633          	add	a2,a0,a2
    2930:	c6c43023          	sd	a2,-928(s0)
    2934:	03798533          	mul	a0,s3,s7
    2938:	c6843603          	ld	a2,-920(s0)
    293c:	00c50633          	add	a2,a0,a2
    2940:	c6c43423          	sd	a2,-920(s0)
    2944:	f8043503          	ld	a0,-128(s0)
    2948:	fc050503          	lb	a0,-64(a0)
    294c:	f4843603          	ld	a2,-184(s0)
    2950:	02c98c33          	mul	s8,s3,a2
    2954:	c7043603          	ld	a2,-912(s0)
    2958:	00cc0633          	add	a2,s8,a2
    295c:	c6c43823          	sd	a2,-912(s0)
    2960:	e7843d83          	ld	s11,-392(s0)
    2964:	03b989b3          	mul	s3,s3,s11
    2968:	c7843603          	ld	a2,-904(s0)
    296c:	00c98633          	add	a2,s3,a2
    2970:	c6c43c23          	sd	a2,-904(s0)
    2974:	029509b3          	mul	s3,a0,s1
    2978:	c9843603          	ld	a2,-872(s0)
    297c:	00c98633          	add	a2,s3,a2
    2980:	c8c43c23          	sd	a2,-872(s0)
    2984:	030509b3          	mul	s3,a0,a6
    2988:	c9043603          	ld	a2,-880(s0)
    298c:	00c98633          	add	a2,s3,a2
    2990:	c8c43823          	sd	a2,-880(s0)
    2994:	021509b3          	mul	s3,a0,ra
    2998:	c8843603          	ld	a2,-888(s0)
    299c:	00c98633          	add	a2,s3,a2
    29a0:	c8c43423          	sd	a2,-888(s0)
    29a4:	03d509b3          	mul	s3,a0,t4
    29a8:	c8043603          	ld	a2,-896(s0)
    29ac:	00c98633          	add	a2,s3,a2
    29b0:	c8c43023          	sd	a2,-896(s0)
    29b4:	03e509b3          	mul	s3,a0,t5
    29b8:	ca043603          	ld	a2,-864(s0)
    29bc:	00c98633          	add	a2,s3,a2
    29c0:	cac43023          	sd	a2,-864(s0)
    29c4:	03f509b3          	mul	s3,a0,t6
    29c8:	ca843603          	ld	a2,-856(s0)
    29cc:	00c98633          	add	a2,s3,a2
    29d0:	cac43423          	sd	a2,-856(s0)
    29d4:	039509b3          	mul	s3,a0,s9
    29d8:	cb043603          	ld	a2,-848(s0)
    29dc:	00c98633          	add	a2,s3,a2
    29e0:	cac43823          	sd	a2,-848(s0)
    29e4:	000a8093          	mv	ra,s5
    29e8:	035509b3          	mul	s3,a0,s5
    29ec:	cb843603          	ld	a2,-840(s0)
    29f0:	00c98633          	add	a2,s3,a2
    29f4:	cac43c23          	sd	a2,-840(s0)
    29f8:	e8843c83          	ld	s9,-376(s0)
    29fc:	039509b3          	mul	s3,a0,s9
    2a00:	cc043603          	ld	a2,-832(s0)
    2a04:	00c98633          	add	a2,s3,a2
    2a08:	ccc43023          	sd	a2,-832(s0)
    2a0c:	eb043b83          	ld	s7,-336(s0)
    2a10:	037509b3          	mul	s3,a0,s7
    2a14:	cc843603          	ld	a2,-824(s0)
    2a18:	00c98633          	add	a2,s3,a2
    2a1c:	ccc43423          	sd	a2,-824(s0)
    2a20:	036509b3          	mul	s3,a0,s6
    2a24:	cd043603          	ld	a2,-816(s0)
    2a28:	00c98633          	add	a2,s3,a2
    2a2c:	ccc43823          	sd	a2,-816(s0)
    2a30:	f6843483          	ld	s1,-152(s0)
    2a34:	029509b3          	mul	s3,a0,s1
    2a38:	cd843603          	ld	a2,-808(s0)
    2a3c:	00c98633          	add	a2,s3,a2
    2a40:	ccc43c23          	sd	a2,-808(s0)
    2a44:	02d509b3          	mul	s3,a0,a3
    2a48:	ce043603          	ld	a2,-800(s0)
    2a4c:	00c98633          	add	a2,s3,a2
    2a50:	cec43023          	sd	a2,-800(s0)
    2a54:	02f509b3          	mul	s3,a0,a5
    2a58:	ce843603          	ld	a2,-792(s0)
    2a5c:	00c98633          	add	a2,s3,a2
    2a60:	cec43423          	sd	a2,-792(s0)
    2a64:	03a509b3          	mul	s3,a0,s10
    2a68:	cf043603          	ld	a2,-784(s0)
    2a6c:	00c98633          	add	a2,s3,a2
    2a70:	cec43823          	sd	a2,-784(s0)
    2a74:	e9043283          	ld	t0,-368(s0)
    2a78:	025509b3          	mul	s3,a0,t0
    2a7c:	cf843603          	ld	a2,-776(s0)
    2a80:	00c98633          	add	a2,s3,a2
    2a84:	cec43c23          	sd	a2,-776(s0)
    2a88:	032509b3          	mul	s3,a0,s2
    2a8c:	00090a93          	mv	s5,s2
    2a90:	d0043603          	ld	a2,-768(s0)
    2a94:	00c98633          	add	a2,s3,a2
    2a98:	d0c43023          	sd	a2,-768(s0)
    2a9c:	f7043803          	ld	a6,-144(s0)
    2aa0:	030509b3          	mul	s3,a0,a6
    2aa4:	d0843603          	ld	a2,-760(s0)
    2aa8:	00c98633          	add	a2,s3,a2
    2aac:	d0c43423          	sd	a2,-760(s0)
    2ab0:	034509b3          	mul	s3,a0,s4
    2ab4:	d1043603          	ld	a2,-752(s0)
    2ab8:	00c98633          	add	a2,s3,a2
    2abc:	d0c43823          	sd	a2,-752(s0)
    2ac0:	031509b3          	mul	s3,a0,a7
    2ac4:	00088913          	mv	s2,a7
    2ac8:	d1843603          	ld	a2,-744(s0)
    2acc:	00c98633          	add	a2,s3,a2
    2ad0:	d0c43c23          	sd	a2,-744(s0)
    2ad4:	027509b3          	mul	s3,a0,t2
    2ad8:	00038f13          	mv	t5,t2
    2adc:	d2043603          	ld	a2,-736(s0)
    2ae0:	00c98633          	add	a2,s3,a2
    2ae4:	d2c43023          	sd	a2,-736(s0)
    2ae8:	02b509b3          	mul	s3,a0,a1
    2aec:	00058e13          	mv	t3,a1
    2af0:	d2843603          	ld	a2,-728(s0)
    2af4:	00c98633          	add	a2,s3,a2
    2af8:	d2c43423          	sd	a2,-728(s0)
    2afc:	ea043883          	ld	a7,-352(s0)
    2b00:	031509b3          	mul	s3,a0,a7
    2b04:	d3043603          	ld	a2,-720(s0)
    2b08:	00c98633          	add	a2,s3,a2
    2b0c:	d2c43823          	sd	a2,-720(s0)
    2b10:	02e509b3          	mul	s3,a0,a4
    2b14:	00070393          	mv	t2,a4
    2b18:	d3843603          	ld	a2,-712(s0)
    2b1c:	00c98633          	add	a2,s3,a2
    2b20:	d2c43c23          	sd	a2,-712(s0)
    2b24:	e9843e83          	ld	t4,-360(s0)
    2b28:	03d509b3          	mul	s3,a0,t4
    2b2c:	d4043603          	ld	a2,-704(s0)
    2b30:	00c98633          	add	a2,s3,a2
    2b34:	d4c43023          	sd	a2,-704(s0)
    2b38:	f5043783          	ld	a5,-176(s0)
    2b3c:	02f509b3          	mul	s3,a0,a5
    2b40:	d4843603          	ld	a2,-696(s0)
    2b44:	00c98633          	add	a2,s3,a2
    2b48:	d4c43423          	sd	a2,-696(s0)
    2b4c:	ec043703          	ld	a4,-320(s0)
    2b50:	02e509b3          	mul	s3,a0,a4
    2b54:	d5043603          	ld	a2,-688(s0)
    2b58:	00c98633          	add	a2,s3,a2
    2b5c:	d4c43823          	sd	a2,-688(s0)
    2b60:	00030693          	mv	a3,t1
    2b64:	026509b3          	mul	s3,a0,t1
    2b68:	d5843603          	ld	a2,-680(s0)
    2b6c:	00c98633          	add	a2,s3,a2
    2b70:	d4c43c23          	sd	a2,-680(s0)
    2b74:	f5843583          	ld	a1,-168(s0)
    2b78:	02b509b3          	mul	s3,a0,a1
    2b7c:	d6043603          	ld	a2,-672(s0)
    2b80:	00c98633          	add	a2,s3,a2
    2b84:	d6c43023          	sd	a2,-672(s0)
    2b88:	e4043303          	ld	t1,-448(s0)
    2b8c:	026509b3          	mul	s3,a0,t1
    2b90:	d6843603          	ld	a2,-664(s0)
    2b94:	00c98633          	add	a2,s3,a2
    2b98:	d6c43423          	sd	a2,-664(s0)
    2b9c:	f8043603          	ld	a2,-128(s0)
    2ba0:	00060983          	lb	s3,0(a2)
    2ba4:	f4843f83          	ld	t6,-184(s0)
    2ba8:	03f50c33          	mul	s8,a0,t6
    2bac:	d7043603          	ld	a2,-656(s0)
    2bb0:	00cc0633          	add	a2,s8,a2
    2bb4:	d6c43823          	sd	a2,-656(s0)
    2bb8:	000d8c13          	mv	s8,s11
    2bbc:	03b50533          	mul	a0,a0,s11
    2bc0:	d7843603          	ld	a2,-648(s0)
    2bc4:	00c50633          	add	a2,a0,a2
    2bc8:	d6c43c23          	sd	a2,-648(s0)
    2bcc:	03b98533          	mul	a0,s3,s11
    2bd0:	e6a43c23          	sd	a0,-392(s0)
    2bd4:	03f98533          	mul	a0,s3,t6
    2bd8:	f4a43423          	sd	a0,-184(s0)
    2bdc:	02698533          	mul	a0,s3,t1
    2be0:	e4a43023          	sd	a0,-448(s0)
    2be4:	02b98533          	mul	a0,s3,a1
    2be8:	000015b7          	lui	a1,0x1
    2bec:	40b405b3          	sub	a1,s0,a1
    2bf0:	66a5b823          	sd	a0,1648(a1) # 1670 <.LBB64_4+0x504>
    2bf4:	02d98533          	mul	a0,s3,a3
    2bf8:	e2a43823          	sd	a0,-464(s0)
    2bfc:	02e98533          	mul	a0,s3,a4
    2c00:	f4a43c23          	sd	a0,-168(s0)
    2c04:	02f98533          	mul	a0,s3,a5
    2c08:	f4a43823          	sd	a0,-176(s0)
    2c0c:	03d98533          	mul	a0,s3,t4
    2c10:	eca43023          	sd	a0,-320(s0)
    2c14:	02798533          	mul	a0,s3,t2
    2c18:	e8a43c23          	sd	a0,-360(s0)
    2c1c:	03198fb3          	mul	t6,s3,a7
    2c20:	03c983b3          	mul	t2,s3,t3
    2c24:	03e98333          	mul	t1,s3,t5
    2c28:	032988b3          	mul	a7,s3,s2
    2c2c:	03498e33          	mul	t3,s3,s4
    2c30:	03098eb3          	mul	t4,s3,a6
    2c34:	03598f33          	mul	t5,s3,s5
    2c38:	02598933          	mul	s2,s3,t0
    2c3c:	03a98a33          	mul	s4,s3,s10
    2c40:	f4043503          	ld	a0,-192(s0)
    2c44:	02a98ab3          	mul	s5,s3,a0
    2c48:	f6043503          	ld	a0,-160(s0)
    2c4c:	02a98c33          	mul	s8,s3,a0
    2c50:	02998d33          	mul	s10,s3,s1
    2c54:	03698b33          	mul	s6,s3,s6
    2c58:	03798bb3          	mul	s7,s3,s7
    2c5c:	03998db3          	mul	s11,s3,s9
    2c60:	021980b3          	mul	ra,s3,ra
    2c64:	ea843503          	ld	a0,-344(s0)
    2c68:	02a98733          	mul	a4,s3,a0
    2c6c:	f2043503          	ld	a0,-224(s0)
    2c70:	02a98cb3          	mul	s9,s3,a0
    2c74:	f2843503          	ld	a0,-216(s0)
    2c78:	02a986b3          	mul	a3,s3,a0
    2c7c:	f3043503          	ld	a0,-208(s0)
    2c80:	02a98633          	mul	a2,s3,a0
    2c84:	e5843503          	ld	a0,-424(s0)
    2c88:	02a985b3          	mul	a1,s3,a0
    2c8c:	f3843503          	ld	a0,-200(s0)
    2c90:	02a98533          	mul	a0,s3,a0
    2c94:	f1843783          	ld	a5,-232(s0)
    2c98:	02f989b3          	mul	s3,s3,a5
    2c9c:	d9843783          	ld	a5,-616(s0)
    2ca0:	00f987b3          	add	a5,s3,a5
    2ca4:	d8f43c23          	sd	a5,-616(s0)
    2ca8:	d9043783          	ld	a5,-624(s0)
    2cac:	00f507b3          	add	a5,a0,a5
    2cb0:	d8f43823          	sd	a5,-624(s0)
    2cb4:	d8843503          	ld	a0,-632(s0)
    2cb8:	00a58533          	add	a0,a1,a0
    2cbc:	d8a43423          	sd	a0,-632(s0)
    2cc0:	d8043503          	ld	a0,-640(s0)
    2cc4:	00a60533          	add	a0,a2,a0
    2cc8:	d8a43023          	sd	a0,-640(s0)
    2ccc:	da043503          	ld	a0,-608(s0)
    2cd0:	00a68533          	add	a0,a3,a0
    2cd4:	daa43023          	sd	a0,-608(s0)
    2cd8:	da843503          	ld	a0,-600(s0)
    2cdc:	00ac8533          	add	a0,s9,a0
    2ce0:	daa43423          	sd	a0,-600(s0)
    2ce4:	db043503          	ld	a0,-592(s0)
    2ce8:	00a70533          	add	a0,a4,a0
    2cec:	daa43823          	sd	a0,-592(s0)
    2cf0:	ec843503          	ld	a0,-312(s0)
    2cf4:	00a08533          	add	a0,ra,a0
    2cf8:	eca43423          	sd	a0,-312(s0)
    2cfc:	ec843083          	ld	ra,-312(s0)
    2d00:	ed043503          	ld	a0,-304(s0)
    2d04:	00ad8533          	add	a0,s11,a0
    2d08:	eca43823          	sd	a0,-304(s0)
    2d0c:	ed043c83          	ld	s9,-304(s0)
    2d10:	ed843503          	ld	a0,-296(s0)
    2d14:	00ab8533          	add	a0,s7,a0
    2d18:	eca43c23          	sd	a0,-296(s0)
    2d1c:	ed843b83          	ld	s7,-296(s0)
    2d20:	db843503          	ld	a0,-584(s0)
    2d24:	00ab0533          	add	a0,s6,a0
    2d28:	daa43c23          	sd	a0,-584(s0)
    2d2c:	ee043503          	ld	a0,-288(s0)
    2d30:	00ad0533          	add	a0,s10,a0
    2d34:	eea43023          	sd	a0,-288(s0)
    2d38:	ee043b03          	ld	s6,-288(s0)
    2d3c:	ee843503          	ld	a0,-280(s0)
    2d40:	00ac0533          	add	a0,s8,a0
    2d44:	000015b7          	lui	a1,0x1
    2d48:	40b405b3          	sub	a1,s0,a1
    2d4c:	6885bd03          	ld	s10,1672(a1) # 1688 <.LBB64_4+0x51c>
    2d50:	eea43423          	sd	a0,-280(s0)
    2d54:	ee843983          	ld	s3,-280(s0)
    2d58:	ef043503          	ld	a0,-272(s0)
    2d5c:	00aa8533          	add	a0,s5,a0
    2d60:	eea43823          	sd	a0,-272(s0)
    2d64:	ef043703          	ld	a4,-272(s0)
    2d68:	ef843503          	ld	a0,-264(s0)
    2d6c:	00aa0533          	add	a0,s4,a0
    2d70:	f8843a03          	ld	s4,-120(s0)
    2d74:	eea43c23          	sd	a0,-264(s0)
    2d78:	ef843683          	ld	a3,-264(s0)
    2d7c:	f0043503          	ld	a0,-256(s0)
    2d80:	00a90533          	add	a0,s2,a0
    2d84:	000015b7          	lui	a1,0x1
    2d88:	40b405b3          	sub	a1,s0,a1
    2d8c:	6805b903          	ld	s2,1664(a1) # 1680 <.LBB64_4+0x514>
    2d90:	f0a43023          	sd	a0,-256(s0)
    2d94:	f0043603          	ld	a2,-256(s0)
    2d98:	dc043503          	ld	a0,-576(s0)
    2d9c:	00af0533          	add	a0,t5,a0
    2da0:	dca43023          	sd	a0,-576(s0)
    2da4:	dc843f03          	ld	t5,-568(s0)
    2da8:	01ee8f33          	add	t5,t4,t5
    2dac:	dd043e83          	ld	t4,-560(s0)
    2db0:	01de0eb3          	add	t4,t3,t4
    2db4:	dd843c03          	ld	s8,-552(s0)
    2db8:	01888c33          	add	s8,a7,s8
    2dbc:	de043e03          	ld	t3,-544(s0)
    2dc0:	01c30e33          	add	t3,t1,t3
    2dc4:	de843303          	ld	t1,-536(s0)
    2dc8:	00638333          	add	t1,t2,t1
    2dcc:	df043283          	ld	t0,-528(s0)
    2dd0:	005f82b3          	add	t0,t6,t0
    2dd4:	df843883          	ld	a7,-520(s0)
    2dd8:	f0843503          	ld	a0,-248(s0)
    2ddc:	e9843583          	ld	a1,-360(s0)
    2de0:	00a58533          	add	a0,a1,a0
    2de4:	000015b7          	lui	a1,0x1
    2de8:	40b405b3          	sub	a1,s0,a1
    2dec:	6785bf83          	ld	t6,1656(a1) # 1678 <.LBB64_4+0x50c>
    2df0:	f0a43423          	sd	a0,-248(s0)
    2df4:	f0843583          	ld	a1,-248(s0)
    2df8:	f1043503          	ld	a0,-240(s0)
    2dfc:	ec043783          	ld	a5,-320(s0)
    2e00:	00a78533          	add	a0,a5,a0
    2e04:	f8043483          	ld	s1,-128(s0)
    2e08:	f0a43823          	sd	a0,-240(s0)
    2e0c:	f1043503          	ld	a0,-240(s0)
    2e10:	f5043783          	ld	a5,-176(s0)
    2e14:	011788b3          	add	a7,a5,a7
    2e18:	e0043803          	ld	a6,-512(s0)
    2e1c:	f5843783          	ld	a5,-168(s0)
    2e20:	01078833          	add	a6,a5,a6
    2e24:	e0843783          	ld	a5,-504(s0)
    2e28:	e3043383          	ld	t2,-464(s0)
    2e2c:	00f387b3          	add	a5,t2,a5
    2e30:	e1043a83          	ld	s5,-496(s0)
    2e34:	000013b7          	lui	t2,0x1
    2e38:	407403b3          	sub	t2,s0,t2
    2e3c:	6703b383          	ld	t2,1648(t2) # 1670 <.LBB64_4+0x504>
    2e40:	01538ab3          	add	s5,t2,s5
    2e44:	e1543823          	sd	s5,-496(s0)
    2e48:	e1843a83          	ld	s5,-488(s0)
    2e4c:	e4043383          	ld	t2,-448(s0)
    2e50:	01538ab3          	add	s5,t2,s5
    2e54:	e1543c23          	sd	s5,-488(s0)
    2e58:	e2043a83          	ld	s5,-480(s0)
    2e5c:	f4843383          	ld	t2,-184(s0)
    2e60:	01538ab3          	add	s5,t2,s5
    2e64:	e3543023          	sd	s5,-480(s0)
    2e68:	e2843a83          	ld	s5,-472(s0)
    2e6c:	e7843383          	ld	t2,-392(s0)
    2e70:	01538ab3          	add	s5,t2,s5
    2e74:	e3543423          	sd	s5,-472(s0)
    2e78:	e80f8f93          	addi	t6,t6,-384 # 5e80 <.LBB64_316+0xc>
    2e7c:	180a0a13          	addi	s4,s4,384
    2e80:	00148493          	addi	s1,s1,1
    2e84:	000f8463          	beqz	t6,2e8c <.LBB64_6>
    2e88:	881fe06f          	j	1708 <.LBB64_5>

0000000000002e8c <.LBB64_6>:
    2e8c:	00001537          	lui	a0,0x1
    2e90:	40a40533          	sub	a0,s0,a0
    2e94:	6b853a83          	ld	s5,1720(a0) # 16b8 <.LBB64_4+0x54c>
    2e98:	00001537          	lui	a0,0x1
    2e9c:	40a40533          	sub	a0,s0,a0
    2ea0:	6c053d83          	ld	s11,1728(a0) # 16c0 <.LBB64_4+0x554>
    2ea4:	00001537          	lui	a0,0x1
    2ea8:	40a40533          	sub	a0,s0,a0
    2eac:	6c853d03          	ld	s10,1736(a0) # 16c8 <.LBB64_4+0x55c>
    2eb0:	00001537          	lui	a0,0x1
    2eb4:	40a40533          	sub	a0,s0,a0
    2eb8:	6b053c83          	ld	s9,1712(a0) # 16b0 <.LBB64_4+0x544>
    2ebc:	00001537          	lui	a0,0x1
    2ec0:	40a40533          	sub	a0,s0,a0
    2ec4:	6a853a03          	ld	s4,1704(a0) # 16a8 <.LBB64_4+0x53c>
    2ec8:	00001537          	lui	a0,0x1
    2ecc:	40a40533          	sub	a0,s0,a0
    2ed0:	6a053983          	ld	s3,1696(a0) # 16a0 <.LBB64_4+0x534>
    2ed4:	00001537          	lui	a0,0x1
    2ed8:	40a40533          	sub	a0,s0,a0
    2edc:	69853903          	ld	s2,1688(a0) # 1698 <.LBB64_4+0x52c>
    2ee0:	00001537          	lui	a0,0x1
    2ee4:	40a40533          	sub	a0,s0,a0
    2ee8:	69053483          	ld	s1,1680(a0) # 1690 <.LBB64_4+0x524>
    2eec:	00001537          	lui	a0,0x1
    2ef0:	40a40533          	sub	a0,s0,a0
    2ef4:	66853503          	ld	a0,1640(a0) # 1668 <.LBB64_4+0x4fc>
    2ef8:	00251513          	slli	a0,a0,0x2
    2efc:	000015b7          	lui	a1,0x1
    2f00:	40b405b3          	sub	a1,s0,a1
    2f04:	d705b583          	ld	a1,-656(a1) # d70 <.LBB64_3+0xb58>
    2f08:	00a585b3          	add	a1,a1,a0
    2f0c:	00001637          	lui	a2,0x1
    2f10:	40c40633          	sub	a2,s0,a2
    2f14:	d6863603          	ld	a2,-664(a2) # d68 <.LBB64_3+0xb50>
    2f18:	00a60533          	add	a0,a2,a0
    2f1c:	00c52603          	lw	a2,12(a0)
    2f20:	00c5af83          	lw	t6,12(a1)
    2f24:	000016b7          	lui	a3,0x1
    2f28:	40d406b3          	sub	a3,s0,a3
    2f2c:	6606b683          	ld	a3,1632(a3) # 1660 <.LBB64_4+0x4f4>
    2f30:	0006a703          	lw	a4,0(a3)
    2f34:	00261693          	slli	a3,a2,0x2
    2f38:	e9f43023          	sd	t6,-384(s0)
    2f3c:	00001637          	lui	a2,0x1
    2f40:	40c40633          	sub	a2,s0,a2
    2f44:	6d063603          	ld	a2,1744(a2) # 16d0 <.LBB64_4+0x564>
    2f48:	01f60633          	add	a2,a2,t6
    2f4c:	e6d43c23          	sd	a3,-392(s0)
    2f50:	00d60633          	add	a2,a2,a3
    2f54:	00e60633          	add	a2,a2,a4
    2f58:	1006061b          	addiw	a2,a2,256
    2f5c:	400006b7          	lui	a3,0x40000
    2f60:	000013b7          	lui	t2,0x1
    2f64:	407403b3          	sub	t2,s0,t2
    2f68:	fec3bc23          	sd	a2,-8(t2) # ff8 <.LBB64_3+0xde0>
    2f6c:	00065463          	bgez	a2,2f74 <.LBB64_8>
    2f70:	c00006b7          	lui	a3,0xc0000

0000000000002f74 <.LBB64_8>:
    2f74:	00001637          	lui	a2,0x1
    2f78:	40c40633          	sub	a2,s0,a2
    2f7c:	fcd63023          	sd	a3,-64(a2) # fc0 <.LBB64_3+0xda8>
    2f80:	00852603          	lw	a2,8(a0)
    2f84:	0085a683          	lw	a3,8(a1)
    2f88:	00261f93          	slli	t6,a2,0x2
    2f8c:	e6d43823          	sd	a3,-400(s0)
    2f90:	00da8633          	add	a2,s5,a3
    2f94:	e7f43423          	sd	t6,-408(s0)
    2f98:	01f60633          	add	a2,a2,t6
    2f9c:	00e60633          	add	a2,a2,a4
    2fa0:	1006061b          	addiw	a2,a2,256
    2fa4:	400006b7          	lui	a3,0x40000
    2fa8:	000013b7          	lui	t2,0x1
    2fac:	407403b3          	sub	t2,s0,t2
    2fb0:	fec3b823          	sd	a2,-16(t2) # ff0 <.LBB64_3+0xdd8>
    2fb4:	00048b93          	mv	s7,s1
    2fb8:	00090393          	mv	t2,s2
    2fbc:	00098b13          	mv	s6,s3
    2fc0:	000a0a93          	mv	s5,s4
    2fc4:	00065463          	bgez	a2,2fcc <.LBB64_10>
    2fc8:	c00006b7          	lui	a3,0xc0000

0000000000002fcc <.LBB64_10>:
    2fcc:	00452603          	lw	a2,4(a0)
    2fd0:	0045af83          	lw	t6,4(a1)
    2fd4:	00261493          	slli	s1,a2,0x2
    2fd8:	e7f43023          	sd	t6,-416(s0)
    2fdc:	01fd8633          	add	a2,s11,t6
    2fe0:	e4943c23          	sd	s1,-424(s0)
    2fe4:	00960633          	add	a2,a2,s1
    2fe8:	00e60633          	add	a2,a2,a4
    2fec:	1006061b          	addiw	a2,a2,256
    2ff0:	40000fb7          	lui	t6,0x40000
    2ff4:	000014b7          	lui	s1,0x1
    2ff8:	409404b3          	sub	s1,s0,s1
    2ffc:	fec4b023          	sd	a2,-32(s1) # fe0 <.LBB64_3+0xdc8>
    3000:	00065463          	bgez	a2,3008 <.LBB64_12>
    3004:	c0000fb7          	lui	t6,0xc0000

0000000000003008 <.LBB64_12>:
    3008:	00052603          	lw	a2,0(a0)
    300c:	0005a483          	lw	s1,0(a1)
    3010:	00261913          	slli	s2,a2,0x2
    3014:	e4943823          	sd	s1,-432(s0)
    3018:	009d0633          	add	a2,s10,s1
    301c:	e5243423          	sd	s2,-440(s0)
    3020:	01260633          	add	a2,a2,s2
    3024:	00e60633          	add	a2,a2,a4
    3028:	1006061b          	addiw	a2,a2,256
    302c:	400004b7          	lui	s1,0x40000
    3030:	00001937          	lui	s2,0x1
    3034:	41240933          	sub	s2,s0,s2
    3038:	fcc93423          	sd	a2,-56(s2) # fc8 <.LBB64_3+0xdb0>
    303c:	00065463          	bgez	a2,3044 <.LBB64_14>
    3040:	c00004b7          	lui	s1,0xc0000

0000000000003044 <.LBB64_14>:
    3044:	01052603          	lw	a2,16(a0)
    3048:	0105a903          	lw	s2,16(a1)
    304c:	00261993          	slli	s3,a2,0x2
    3050:	e5243023          	sd	s2,-448(s0)
    3054:	012c8633          	add	a2,s9,s2
    3058:	e3343c23          	sd	s3,-456(s0)
    305c:	01360633          	add	a2,a2,s3
    3060:	00e60633          	add	a2,a2,a4
    3064:	1006061b          	addiw	a2,a2,256
    3068:	40000937          	lui	s2,0x40000
    306c:	000019b7          	lui	s3,0x1
    3070:	413409b3          	sub	s3,s0,s3
    3074:	fac9b823          	sd	a2,-80(s3) # fb0 <.LBB64_3+0xd98>
    3078:	00065463          	bgez	a2,3080 <.LBB64_16>
    307c:	c0000937          	lui	s2,0xc0000

0000000000003080 <.LBB64_16>:
    3080:	01452603          	lw	a2,20(a0)
    3084:	0145a983          	lw	s3,20(a1)
    3088:	00261a13          	slli	s4,a2,0x2
    308c:	e3343823          	sd	s3,-464(s0)
    3090:	013a8633          	add	a2,s5,s3
    3094:	000019b7          	lui	s3,0x1
    3098:	413409b3          	sub	s3,s0,s3
    309c:	6d49b823          	sd	s4,1744(s3) # 16d0 <.LBB64_4+0x564>
    30a0:	01460633          	add	a2,a2,s4
    30a4:	00e60633          	add	a2,a2,a4
    30a8:	1006061b          	addiw	a2,a2,256
    30ac:	400009b7          	lui	s3,0x40000
    30b0:	00001a37          	lui	s4,0x1
    30b4:	41440a33          	sub	s4,s0,s4
    30b8:	f8ca3c23          	sd	a2,-104(s4) # f98 <.LBB64_3+0xd80>
    30bc:	00065463          	bgez	a2,30c4 <.LBB64_18>
    30c0:	c00009b7          	lui	s3,0xc0000

00000000000030c4 <.LBB64_18>:
    30c4:	01852603          	lw	a2,24(a0)
    30c8:	0185aa03          	lw	s4,24(a1)
    30cc:	00261a93          	slli	s5,a2,0x2
    30d0:	00001637          	lui	a2,0x1
    30d4:	40c40633          	sub	a2,s0,a2
    30d8:	6d463423          	sd	s4,1736(a2) # 16c8 <.LBB64_4+0x55c>
    30dc:	014b0633          	add	a2,s6,s4
    30e0:	00001a37          	lui	s4,0x1
    30e4:	41440a33          	sub	s4,s0,s4
    30e8:	6d5a3023          	sd	s5,1728(s4) # 16c0 <.LBB64_4+0x554>
    30ec:	01560633          	add	a2,a2,s5
    30f0:	00e60633          	add	a2,a2,a4
    30f4:	1006061b          	addiw	a2,a2,256
    30f8:	40000a37          	lui	s4,0x40000
    30fc:	00001ab7          	lui	s5,0x1
    3100:	41540ab3          	sub	s5,s0,s5
    3104:	f8cab023          	sd	a2,-128(s5) # f80 <.LBB64_3+0xd68>
    3108:	00065463          	bgez	a2,3110 <.LBB64_20>
    310c:	c0000a37          	lui	s4,0xc0000

0000000000003110 <.LBB64_20>:
    3110:	01c52603          	lw	a2,28(a0)
    3114:	01c5aa83          	lw	s5,28(a1)
    3118:	00261b13          	slli	s6,a2,0x2
    311c:	00001637          	lui	a2,0x1
    3120:	40c40633          	sub	a2,s0,a2
    3124:	6b563c23          	sd	s5,1720(a2) # 16b8 <.LBB64_4+0x54c>
    3128:	01538633          	add	a2,t2,s5
    312c:	000013b7          	lui	t2,0x1
    3130:	407403b3          	sub	t2,s0,t2
    3134:	6b63b823          	sd	s6,1712(t2) # 16b0 <.LBB64_4+0x544>
    3138:	01660633          	add	a2,a2,s6
    313c:	00e60633          	add	a2,a2,a4
    3140:	1006061b          	addiw	a2,a2,256
    3144:	40000ab7          	lui	s5,0x40000
    3148:	000013b7          	lui	t2,0x1
    314c:	407403b3          	sub	t2,s0,t2
    3150:	f6c3b823          	sd	a2,-144(t2) # f70 <.LBB64_3+0xd58>
    3154:	00065463          	bgez	a2,315c <.LBB64_22>
    3158:	c0000ab7          	lui	s5,0xc0000

000000000000315c <.LBB64_22>:
    315c:	00001637          	lui	a2,0x1
    3160:	40c40633          	sub	a2,s0,a2
    3164:	f5563823          	sd	s5,-176(a2) # f50 <.LBB64_3+0xd38>
    3168:	00001637          	lui	a2,0x1
    316c:	40c40633          	sub	a2,s0,a2
    3170:	f7463023          	sd	s4,-160(a2) # f60 <.LBB64_3+0xd48>
    3174:	00001637          	lui	a2,0x1
    3178:	40c40633          	sub	a2,s0,a2
    317c:	f7363c23          	sd	s3,-136(a2) # f78 <.LBB64_3+0xd60>
    3180:	00001637          	lui	a2,0x1
    3184:	40c40633          	sub	a2,s0,a2
    3188:	f9263823          	sd	s2,-112(a2) # f90 <.LBB64_3+0xd78>
    318c:	00001637          	lui	a2,0x1
    3190:	40c40633          	sub	a2,s0,a2
    3194:	fa963023          	sd	s1,-96(a2) # fa0 <.LBB64_3+0xd88>
    3198:	00001637          	lui	a2,0x1
    319c:	40c40633          	sub	a2,s0,a2
    31a0:	fbf63c23          	sd	t6,-72(a2) # fb8 <.LBB64_3+0xda0>
    31a4:	00001637          	lui	a2,0x1
    31a8:	40c40633          	sub	a2,s0,a2
    31ac:	fcd63c23          	sd	a3,-40(a2) # fd8 <.LBB64_3+0xdc0>
    31b0:	dde43423          	sd	t5,-568(s0)
    31b4:	ddd43823          	sd	t4,-560(s0)
    31b8:	dd843c23          	sd	s8,-552(s0)
    31bc:	dfc43023          	sd	t3,-544(s0)
    31c0:	de643423          	sd	t1,-536(s0)
    31c4:	de543823          	sd	t0,-528(s0)
    31c8:	df143c23          	sd	a7,-520(s0)
    31cc:	e1043023          	sd	a6,-512(s0)
    31d0:	e0f43423          	sd	a5,-504(s0)
    31d4:	02052603          	lw	a2,32(a0)
    31d8:	0205a683          	lw	a3,32(a1)
    31dc:	00261793          	slli	a5,a2,0x2
    31e0:	00001637          	lui	a2,0x1
    31e4:	40c40633          	sub	a2,s0,a2
    31e8:	6ad63423          	sd	a3,1704(a2) # 16a8 <.LBB64_4+0x53c>
    31ec:	00db8633          	add	a2,s7,a3
    31f0:	000016b7          	lui	a3,0x1
    31f4:	40d406b3          	sub	a3,s0,a3
    31f8:	6af6b023          	sd	a5,1696(a3) # 16a0 <.LBB64_4+0x534>
    31fc:	00f60633          	add	a2,a2,a5
    3200:	00e60633          	add	a2,a2,a4
    3204:	1006061b          	addiw	a2,a2,256
    3208:	400006b7          	lui	a3,0x40000
    320c:	000017b7          	lui	a5,0x1
    3210:	40f407b3          	sub	a5,s0,a5
    3214:	f4c7bc23          	sd	a2,-168(a5) # f58 <.LBB64_3+0xd40>
    3218:	00065463          	bgez	a2,3220 <.LBB64_24>
    321c:	c00006b7          	lui	a3,0xc0000

0000000000003220 <.LBB64_24>:
    3220:	00001637          	lui	a2,0x1
    3224:	40c40633          	sub	a2,s0,a2
    3228:	f4d63023          	sd	a3,-192(a2) # f40 <.LBB64_3+0xd28>
    322c:	07c5a603          	lw	a2,124(a1)
    3230:	f8c43023          	sd	a2,-128(s0)
    3234:	0785a603          	lw	a2,120(a1)
    3238:	f6c43c23          	sd	a2,-136(s0)
    323c:	0745a603          	lw	a2,116(a1)
    3240:	f6c43823          	sd	a2,-144(s0)
    3244:	0705a603          	lw	a2,112(a1)
    3248:	f6c43423          	sd	a2,-152(s0)
    324c:	06c5a603          	lw	a2,108(a1)
    3250:	f6c43023          	sd	a2,-160(s0)
    3254:	0685a603          	lw	a2,104(a1)
    3258:	f4c43c23          	sd	a2,-168(s0)
    325c:	0645a603          	lw	a2,100(a1)
    3260:	f4c43823          	sd	a2,-176(s0)
    3264:	0605a603          	lw	a2,96(a1)
    3268:	f4c43423          	sd	a2,-184(s0)
    326c:	05c5a603          	lw	a2,92(a1)
    3270:	f4c43023          	sd	a2,-192(s0)
    3274:	0585a603          	lw	a2,88(a1)
    3278:	f2c43c23          	sd	a2,-200(s0)
    327c:	0545a603          	lw	a2,84(a1)
    3280:	f2c43823          	sd	a2,-208(s0)
    3284:	0505a603          	lw	a2,80(a1)
    3288:	f2c43423          	sd	a2,-216(s0)
    328c:	04c5a603          	lw	a2,76(a1)
    3290:	f2c43023          	sd	a2,-224(s0)
    3294:	0485a603          	lw	a2,72(a1)
    3298:	f0c43c23          	sd	a2,-232(s0)
    329c:	0445a603          	lw	a2,68(a1)
    32a0:	ecc43023          	sd	a2,-320(s0)
    32a4:	0405a603          	lw	a2,64(a1)
    32a8:	eac43c23          	sd	a2,-328(s0)
    32ac:	03c5a603          	lw	a2,60(a1)
    32b0:	eac43823          	sd	a2,-336(s0)
    32b4:	0385a603          	lw	a2,56(a1)
    32b8:	eac43423          	sd	a2,-344(s0)
    32bc:	0345a603          	lw	a2,52(a1)
    32c0:	eac43023          	sd	a2,-352(s0)
    32c4:	0305a603          	lw	a2,48(a1)
    32c8:	e8c43c23          	sd	a2,-360(s0)
    32cc:	02c5a603          	lw	a2,44(a1)
    32d0:	e8c43823          	sd	a2,-368(s0)
    32d4:	0285a603          	lw	a2,40(a1)
    32d8:	e8c43423          	sd	a2,-376(s0)
    32dc:	0245a603          	lw	a2,36(a1)
    32e0:	07c52583          	lw	a1,124(a0)
    32e4:	000016b7          	lui	a3,0x1
    32e8:	40d406b3          	sub	a3,s0,a3
    32ec:	64b6b423          	sd	a1,1608(a3) # 1648 <.LBB64_4+0x4dc>
    32f0:	07852583          	lw	a1,120(a0)
    32f4:	000016b7          	lui	a3,0x1
    32f8:	40d406b3          	sub	a3,s0,a3
    32fc:	64b6b023          	sd	a1,1600(a3) # 1640 <.LBB64_4+0x4d4>
    3300:	07452883          	lw	a7,116(a0)
    3304:	07052283          	lw	t0,112(a0)
    3308:	06c52303          	lw	t1,108(a0)
    330c:	06852383          	lw	t2,104(a0)
    3310:	06452e03          	lw	t3,100(a0)
    3314:	06052e83          	lw	t4,96(a0)
    3318:	05c52f03          	lw	t5,92(a0)
    331c:	05852f83          	lw	t6,88(a0)
    3320:	05452483          	lw	s1,84(a0)
    3324:	05052903          	lw	s2,80(a0)
    3328:	04c52983          	lw	s3,76(a0)
    332c:	04852a03          	lw	s4,72(a0)
    3330:	04452a83          	lw	s5,68(a0)
    3334:	04052b03          	lw	s6,64(a0)
    3338:	03c52b83          	lw	s7,60(a0)
    333c:	03852c03          	lw	s8,56(a0)
    3340:	03452c83          	lw	s9,52(a0)
    3344:	02452583          	lw	a1,36(a0)
    3348:	03052d03          	lw	s10,48(a0)
    334c:	02c52d83          	lw	s11,44(a0)
    3350:	02852083          	lw	ra,40(a0)
    3354:	00259593          	slli	a1,a1,0x2
    3358:	f9143823          	sd	a7,-112(s0)
    335c:	00001537          	lui	a0,0x1
    3360:	40a40533          	sub	a0,s0,a0
    3364:	68c53c23          	sd	a2,1688(a0) # 1698 <.LBB64_4+0x52c>
    3368:	00001537          	lui	a0,0x1
    336c:	40a40533          	sub	a0,s0,a0
    3370:	6d853503          	ld	a0,1752(a0) # 16d8 <.LBB64_4+0x56c>
    3374:	00c50533          	add	a0,a0,a2
    3378:	00001637          	lui	a2,0x1
    337c:	40c40633          	sub	a2,s0,a2
    3380:	6cb63c23          	sd	a1,1752(a2) # 16d8 <.LBB64_4+0x56c>
    3384:	00b50533          	add	a0,a0,a1
    3388:	000015b7          	lui	a1,0x1
    338c:	40b405b3          	sub	a1,s0,a1
    3390:	6605b683          	ld	a3,1632(a1) # 1660 <.LBB64_4+0x4f4>
    3394:	01c6a583          	lw	a1,28(a3)
    3398:	f8b43423          	sd	a1,-120(s0)
    339c:	0186a583          	lw	a1,24(a3)
    33a0:	00001637          	lui	a2,0x1
    33a4:	40c40633          	sub	a2,s0,a2
    33a8:	d8b63423          	sd	a1,-632(a2) # d88 <.LBB64_3+0xb70>
    33ac:	0146a583          	lw	a1,20(a3)
    33b0:	00001637          	lui	a2,0x1
    33b4:	40c40633          	sub	a2,s0,a2
    33b8:	d8b63023          	sd	a1,-640(a2) # d80 <.LBB64_3+0xb68>
    33bc:	0106a783          	lw	a5,16(a3)
    33c0:	00c6a583          	lw	a1,12(a3)
    33c4:	0086a603          	lw	a2,8(a3)
    33c8:	0046a683          	lw	a3,4(a3)
    33cc:	00e50533          	add	a0,a0,a4
    33d0:	1005051b          	addiw	a0,a0,256
    33d4:	40000837          	lui	a6,0x40000
    33d8:	000018b7          	lui	a7,0x1
    33dc:	411408b3          	sub	a7,s0,a7
    33e0:	6708b823          	sd	a6,1648(a7) # 1670 <.LBB64_4+0x504>
    33e4:	f9043883          	ld	a7,-112(s0)
    33e8:	00001837          	lui	a6,0x1
    33ec:	41040833          	sub	a6,s0,a6
    33f0:	d8a83823          	sd	a0,-624(a6) # d90 <.LBB64_3+0xb78>
    33f4:	00055a63          	bgez	a0,3408 <.LBB64_26>
    33f8:	c0000537          	lui	a0,0xc0000
    33fc:	00001837          	lui	a6,0x1
    3400:	41040833          	sub	a6,s0,a6
    3404:	66a83823          	sd	a0,1648(a6) # 1670 <.LBB64_4+0x504>

0000000000003408 <.LBB64_26>:
    3408:	00209093          	slli	ra,ra,0x2
    340c:	e8843503          	ld	a0,-376(s0)
    3410:	00001837          	lui	a6,0x1
    3414:	41040833          	sub	a6,s0,a6
    3418:	6e083803          	ld	a6,1760(a6) # 16e0 <.LBB64_4+0x574>
    341c:	00a80533          	add	a0,a6,a0
    3420:	00001837          	lui	a6,0x1
    3424:	41040833          	sub	a6,s0,a6
    3428:	6e183023          	sd	ra,1760(a6) # 16e0 <.LBB64_4+0x574>
    342c:	00150533          	add	a0,a0,ra
    3430:	00e50533          	add	a0,a0,a4
    3434:	1005051b          	addiw	a0,a0,256 # ffffffffc0000100 <.Lfunc_end80+0xffffffffbffd7734>
    3438:	400000b7          	lui	ra,0x40000
    343c:	00001837          	lui	a6,0x1
    3440:	41040833          	sub	a6,s0,a6
    3444:	daa83023          	sd	a0,-608(a6) # da0 <.LBB64_3+0xb88>
    3448:	00001837          	lui	a6,0x1
    344c:	41040833          	sub	a6,s0,a6
    3450:	76883803          	ld	a6,1896(a6) # 1768 <.LBB64_5+0x60>
    3454:	00055463          	bgez	a0,345c <.LBB64_28>
    3458:	c00000b7          	lui	ra,0xc0000

000000000000345c <.LBB64_28>:
    345c:	f8b43823          	sd	a1,-112(s0)
    3460:	00001537          	lui	a0,0x1
    3464:	40a40533          	sub	a0,s0,a0
    3468:	d8153c23          	sd	ra,-616(a0) # d98 <.LBB64_3+0xb80>
    346c:	002d9d93          	slli	s11,s11,0x2
    3470:	e9043503          	ld	a0,-368(s0)
    3474:	000015b7          	lui	a1,0x1
    3478:	40b405b3          	sub	a1,s0,a1
    347c:	6e85b083          	ld	ra,1768(a1) # 16e8 <.LBB64_4+0x57c>
    3480:	00a08533          	add	a0,ra,a0
    3484:	000015b7          	lui	a1,0x1
    3488:	40b405b3          	sub	a1,s0,a1
    348c:	6fb5b423          	sd	s11,1768(a1) # 16e8 <.LBB64_4+0x57c>
    3490:	01b50533          	add	a0,a0,s11
    3494:	00e50533          	add	a0,a0,a4
    3498:	1005051b          	addiw	a0,a0,256
    349c:	40000db7          	lui	s11,0x40000
    34a0:	b4043083          	ld	ra,-1216(s0)
    34a4:	000015b7          	lui	a1,0x1
    34a8:	40b405b3          	sub	a1,s0,a1
    34ac:	daa5b823          	sd	a0,-592(a1) # db0 <.LBB64_3+0xb98>
    34b0:	f9043583          	ld	a1,-112(s0)
    34b4:	00055463          	bgez	a0,34bc <.LBB64_30>
    34b8:	c0000db7          	lui	s11,0xc0000

00000000000034bc <.LBB64_30>:
    34bc:	f8b43823          	sd	a1,-112(s0)
    34c0:	00001537          	lui	a0,0x1
    34c4:	40a40533          	sub	a0,s0,a0
    34c8:	dbb53423          	sd	s11,-600(a0) # da8 <.LBB64_3+0xb90>
    34cc:	002d1d13          	slli	s10,s10,0x2
    34d0:	e9843503          	ld	a0,-360(s0)
    34d4:	000015b7          	lui	a1,0x1
    34d8:	40b405b3          	sub	a1,s0,a1
    34dc:	6f05bd83          	ld	s11,1776(a1) # 16f0 <.LBB64_4+0x584>
    34e0:	00ad8533          	add	a0,s11,a0
    34e4:	000015b7          	lui	a1,0x1
    34e8:	40b405b3          	sub	a1,s0,a1
    34ec:	6fa5b823          	sd	s10,1776(a1) # 16f0 <.LBB64_4+0x584>
    34f0:	01a50533          	add	a0,a0,s10
    34f4:	00e50533          	add	a0,a0,a4
    34f8:	1005051b          	addiw	a0,a0,256
    34fc:	40000d37          	lui	s10,0x40000
    3500:	b1043d83          	ld	s11,-1264(s0)
    3504:	000015b7          	lui	a1,0x1
    3508:	40b405b3          	sub	a1,s0,a1
    350c:	dca5b023          	sd	a0,-576(a1) # dc0 <.LBB64_3+0xba8>
    3510:	f9043583          	ld	a1,-112(s0)
    3514:	00055463          	bgez	a0,351c <.LBB64_32>
    3518:	c0000d37          	lui	s10,0xc0000

000000000000351c <.LBB64_32>:
    351c:	f8b43823          	sd	a1,-112(s0)
    3520:	00001537          	lui	a0,0x1
    3524:	40a40533          	sub	a0,s0,a0
    3528:	dba53c23          	sd	s10,-584(a0) # db8 <.LBB64_3+0xba0>
    352c:	002c9c93          	slli	s9,s9,0x2
    3530:	ea043503          	ld	a0,-352(s0)
    3534:	000015b7          	lui	a1,0x1
    3538:	40b405b3          	sub	a1,s0,a1
    353c:	6f85bd03          	ld	s10,1784(a1) # 16f8 <.LBB64_4+0x58c>
    3540:	00ad0533          	add	a0,s10,a0
    3544:	000c8d13          	mv	s10,s9
    3548:	01950533          	add	a0,a0,s9
    354c:	00e50533          	add	a0,a0,a4
    3550:	1005051b          	addiw	a0,a0,256
    3554:	40000cb7          	lui	s9,0x40000
    3558:	000015b7          	lui	a1,0x1
    355c:	40b405b3          	sub	a1,s0,a1
    3560:	dca5b823          	sd	a0,-560(a1) # dd0 <.LBB64_3+0xbb8>
    3564:	f9043583          	ld	a1,-112(s0)
    3568:	00055463          	bgez	a0,3570 <.LBB64_34>
    356c:	c0000cb7          	lui	s9,0xc0000

0000000000003570 <.LBB64_34>:
    3570:	f8b43823          	sd	a1,-112(s0)
    3574:	00001537          	lui	a0,0x1
    3578:	40a40533          	sub	a0,s0,a0
    357c:	dd953423          	sd	s9,-568(a0) # dc8 <.LBB64_3+0xbb0>
    3580:	002c1c13          	slli	s8,s8,0x2
    3584:	ea843503          	ld	a0,-344(s0)
    3588:	000015b7          	lui	a1,0x1
    358c:	40b405b3          	sub	a1,s0,a1
    3590:	7005bc83          	ld	s9,1792(a1) # 1700 <.LBB64_4+0x594>
    3594:	00ac8533          	add	a0,s9,a0
    3598:	000015b7          	lui	a1,0x1
    359c:	40b405b3          	sub	a1,s0,a1
    35a0:	7185b023          	sd	s8,1792(a1) # 1700 <.LBB64_4+0x594>
    35a4:	01850533          	add	a0,a0,s8
    35a8:	00e50533          	add	a0,a0,a4
    35ac:	1005051b          	addiw	a0,a0,256
    35b0:	40000c37          	lui	s8,0x40000
    35b4:	da843c83          	ld	s9,-600(s0)
    35b8:	000015b7          	lui	a1,0x1
    35bc:	40b405b3          	sub	a1,s0,a1
    35c0:	dea5b023          	sd	a0,-544(a1) # de0 <.LBB64_3+0xbc8>
    35c4:	f9043583          	ld	a1,-112(s0)
    35c8:	00055463          	bgez	a0,35d0 <.LBB64_36>
    35cc:	c0000c37          	lui	s8,0xc0000

00000000000035d0 <.LBB64_36>:
    35d0:	f8b43823          	sd	a1,-112(s0)
    35d4:	00001537          	lui	a0,0x1
    35d8:	40a40533          	sub	a0,s0,a0
    35dc:	dd853c23          	sd	s8,-552(a0) # dd8 <.LBB64_3+0xbc0>
    35e0:	002b9b93          	slli	s7,s7,0x2
    35e4:	eb043503          	ld	a0,-336(s0)
    35e8:	000015b7          	lui	a1,0x1
    35ec:	40b405b3          	sub	a1,s0,a1
    35f0:	7085bc03          	ld	s8,1800(a1) # 1708 <.LBB64_5>
    35f4:	00ac0533          	add	a0,s8,a0
    35f8:	000015b7          	lui	a1,0x1
    35fc:	40b405b3          	sub	a1,s0,a1
    3600:	7175b423          	sd	s7,1800(a1) # 1708 <.LBB64_5>
    3604:	01750533          	add	a0,a0,s7
    3608:	00e50533          	add	a0,a0,a4
    360c:	1005051b          	addiw	a0,a0,256
    3610:	40000bb7          	lui	s7,0x40000
    3614:	000015b7          	lui	a1,0x1
    3618:	40b405b3          	sub	a1,s0,a1
    361c:	d205bc03          	ld	s8,-736(a1) # d20 <.LBB64_3+0xb08>
    3620:	000015b7          	lui	a1,0x1
    3624:	40b405b3          	sub	a1,s0,a1
    3628:	dea5b823          	sd	a0,-528(a1) # df0 <.LBB64_3+0xbd8>
    362c:	f9043583          	ld	a1,-112(s0)
    3630:	00055463          	bgez	a0,3638 <.LBB64_38>
    3634:	c0000bb7          	lui	s7,0xc0000

0000000000003638 <.LBB64_38>:
    3638:	f8b43823          	sd	a1,-112(s0)
    363c:	00001537          	lui	a0,0x1
    3640:	40a40533          	sub	a0,s0,a0
    3644:	df753423          	sd	s7,-536(a0) # de8 <.LBB64_3+0xbd0>
    3648:	002b1b13          	slli	s6,s6,0x2
    364c:	eb843503          	ld	a0,-328(s0)
    3650:	000015b7          	lui	a1,0x1
    3654:	40b405b3          	sub	a1,s0,a1
    3658:	7105bb83          	ld	s7,1808(a1) # 1710 <.LBB64_5+0x8>
    365c:	00ab8533          	add	a0,s7,a0
    3660:	000015b7          	lui	a1,0x1
    3664:	40b405b3          	sub	a1,s0,a1
    3668:	7165b823          	sd	s6,1808(a1) # 1710 <.LBB64_5+0x8>
    366c:	01650533          	add	a0,a0,s6
    3670:	00e50533          	add	a0,a0,a4
    3674:	1005051b          	addiw	a0,a0,256
    3678:	40000b37          	lui	s6,0x40000
    367c:	000015b7          	lui	a1,0x1
    3680:	40b405b3          	sub	a1,s0,a1
    3684:	6585bb83          	ld	s7,1624(a1) # 1658 <.LBB64_4+0x4ec>
    3688:	000015b7          	lui	a1,0x1
    368c:	40b405b3          	sub	a1,s0,a1
    3690:	e0a5b023          	sd	a0,-512(a1) # e00 <.LBB64_3+0xbe8>
    3694:	f9043583          	ld	a1,-112(s0)
    3698:	00055463          	bgez	a0,36a0 <.LBB64_40>
    369c:	c0000b37          	lui	s6,0xc0000

00000000000036a0 <.LBB64_40>:
    36a0:	00001537          	lui	a0,0x1
    36a4:	40a40533          	sub	a0,s0,a0
    36a8:	df653c23          	sd	s6,-520(a0) # df8 <.LBB64_3+0xbe0>
    36ac:	002a9a93          	slli	s5,s5,0x2
    36b0:	ec043503          	ld	a0,-320(s0)
    36b4:	00001b37          	lui	s6,0x1
    36b8:	41640b33          	sub	s6,s0,s6
    36bc:	718b3b03          	ld	s6,1816(s6) # 1718 <.LBB64_5+0x10>
    36c0:	00ab0533          	add	a0,s6,a0
    36c4:	00001b37          	lui	s6,0x1
    36c8:	41640b33          	sub	s6,s0,s6
    36cc:	715b3c23          	sd	s5,1816(s6) # 1718 <.LBB64_5+0x10>
    36d0:	01550533          	add	a0,a0,s5
    36d4:	00e50533          	add	a0,a0,a4
    36d8:	1005051b          	addiw	a0,a0,256
    36dc:	40000ab7          	lui	s5,0x40000
    36e0:	00001b37          	lui	s6,0x1
    36e4:	41640b33          	sub	s6,s0,s6
    36e8:	675b3c23          	sd	s5,1656(s6) # 1678 <.LBB64_4+0x50c>
    36ec:	db043b03          	ld	s6,-592(s0)
    36f0:	00001ab7          	lui	s5,0x1
    36f4:	41540ab3          	sub	s5,s0,s5
    36f8:	e0aab423          	sd	a0,-504(s5) # e08 <.LBB64_3+0xbf0>
    36fc:	00055a63          	bgez	a0,3710 <.LBB64_42>
    3700:	c0000537          	lui	a0,0xc0000
    3704:	00001ab7          	lui	s5,0x1
    3708:	41540ab3          	sub	s5,s0,s5
    370c:	66aabc23          	sd	a0,1656(s5) # 1678 <.LBB64_4+0x50c>

0000000000003710 <.LBB64_42>:
    3710:	002a1a13          	slli	s4,s4,0x2
    3714:	f1843503          	ld	a0,-232(s0)
    3718:	00001ab7          	lui	s5,0x1
    371c:	41540ab3          	sub	s5,s0,s5
    3720:	720aba83          	ld	s5,1824(s5) # 1720 <.LBB64_5+0x18>
    3724:	00aa8533          	add	a0,s5,a0
    3728:	00001ab7          	lui	s5,0x1
    372c:	41540ab3          	sub	s5,s0,s5
    3730:	734ab023          	sd	s4,1824(s5) # 1720 <.LBB64_5+0x18>
    3734:	01450533          	add	a0,a0,s4
    3738:	00e50533          	add	a0,a0,a4
    373c:	1005051b          	addiw	a0,a0,256 # ffffffffc0000100 <.Lfunc_end80+0xffffffffbffd7734>
    3740:	40000a37          	lui	s4,0x40000
    3744:	00001ab7          	lui	s5,0x1
    3748:	41540ab3          	sub	s5,s0,s5
    374c:	e0aabc23          	sd	a0,-488(s5) # e18 <.LBB64_3+0xc00>
    3750:	00001ab7          	lui	s5,0x1
    3754:	41540ab3          	sub	s5,s0,s5
    3758:	728aba83          	ld	s5,1832(s5) # 1728 <.LBB64_5+0x20>
    375c:	00055463          	bgez	a0,3764 <.LBB64_44>
    3760:	c0000a37          	lui	s4,0xc0000

0000000000003764 <.LBB64_44>:
    3764:	00001537          	lui	a0,0x1
    3768:	40a40533          	sub	a0,s0,a0
    376c:	e1453823          	sd	s4,-496(a0) # e10 <.LBB64_3+0xbf8>
    3770:	00299993          	slli	s3,s3,0x2
    3774:	f2043503          	ld	a0,-224(s0)
    3778:	00aa8533          	add	a0,s5,a0
    377c:	00001a37          	lui	s4,0x1
    3780:	41440a33          	sub	s4,s0,s4
    3784:	733a3423          	sd	s3,1832(s4) # 1728 <.LBB64_5+0x20>
    3788:	01350533          	add	a0,a0,s3
    378c:	00e50533          	add	a0,a0,a4
    3790:	1005051b          	addiw	a0,a0,256
    3794:	400009b7          	lui	s3,0x40000
    3798:	b0043a03          	ld	s4,-1280(s0)
    379c:	00001ab7          	lui	s5,0x1
    37a0:	41540ab3          	sub	s5,s0,s5
    37a4:	e2aab423          	sd	a0,-472(s5) # e28 <.LBB64_3+0xc10>
    37a8:	00055463          	bgez	a0,37b0 <.LBB64_46>
    37ac:	c00009b7          	lui	s3,0xc0000

00000000000037b0 <.LBB64_46>:
    37b0:	00291913          	slli	s2,s2,0x2
    37b4:	f2843503          	ld	a0,-216(s0)
    37b8:	00001ab7          	lui	s5,0x1
    37bc:	41540ab3          	sub	s5,s0,s5
    37c0:	730aba83          	ld	s5,1840(s5) # 1730 <.LBB64_5+0x28>
    37c4:	00aa8533          	add	a0,s5,a0
    37c8:	00001ab7          	lui	s5,0x1
    37cc:	41540ab3          	sub	s5,s0,s5
    37d0:	732ab823          	sd	s2,1840(s5) # 1730 <.LBB64_5+0x28>
    37d4:	01250533          	add	a0,a0,s2
    37d8:	00e50533          	add	a0,a0,a4
    37dc:	1005051b          	addiw	a0,a0,256
    37e0:	40000937          	lui	s2,0x40000
    37e4:	00001ab7          	lui	s5,0x1
    37e8:	41540ab3          	sub	s5,s0,s5
    37ec:	e2aabc23          	sd	a0,-456(s5) # e38 <.LBB64_3+0xc20>
    37f0:	00055463          	bgez	a0,37f8 <.LBB64_48>
    37f4:	c0000937          	lui	s2,0xc0000

00000000000037f8 <.LBB64_48>:
    37f8:	00001537          	lui	a0,0x1
    37fc:	40a40533          	sub	a0,s0,a0
    3800:	e3253823          	sd	s2,-464(a0) # e30 <.LBB64_3+0xc18>
    3804:	00249493          	slli	s1,s1,0x2
    3808:	f3043503          	ld	a0,-208(s0)
    380c:	00001937          	lui	s2,0x1
    3810:	41240933          	sub	s2,s0,s2
    3814:	73893903          	ld	s2,1848(s2) # 1738 <.LBB64_5+0x30>
    3818:	00a90533          	add	a0,s2,a0
    381c:	00001937          	lui	s2,0x1
    3820:	41240933          	sub	s2,s0,s2
    3824:	72993c23          	sd	s1,1848(s2) # 1738 <.LBB64_5+0x30>
    3828:	00950533          	add	a0,a0,s1
    382c:	00e50533          	add	a0,a0,a4
    3830:	1005051b          	addiw	a0,a0,256
    3834:	400004b7          	lui	s1,0x40000
    3838:	f0043903          	ld	s2,-256(s0)
    383c:	00001ab7          	lui	s5,0x1
    3840:	41540ab3          	sub	s5,s0,s5
    3844:	e4aab423          	sd	a0,-440(s5) # e48 <.LBB64_3+0xc30>
    3848:	00055463          	bgez	a0,3850 <.LBB64_50>
    384c:	c00004b7          	lui	s1,0xc0000

0000000000003850 <.LBB64_50>:
    3850:	00001537          	lui	a0,0x1
    3854:	40a40533          	sub	a0,s0,a0
    3858:	e4953023          	sd	s1,-448(a0) # e40 <.LBB64_3+0xc28>
    385c:	002f9f93          	slli	t6,t6,0x2
    3860:	f3843503          	ld	a0,-200(s0)
    3864:	000014b7          	lui	s1,0x1
    3868:	409404b3          	sub	s1,s0,s1
    386c:	7404b483          	ld	s1,1856(s1) # 1740 <.LBB64_5+0x38>
    3870:	00a48533          	add	a0,s1,a0
    3874:	000014b7          	lui	s1,0x1
    3878:	409404b3          	sub	s1,s0,s1
    387c:	75f4b023          	sd	t6,1856(s1) # 1740 <.LBB64_5+0x38>
    3880:	01f50533          	add	a0,a0,t6
    3884:	00e50533          	add	a0,a0,a4
    3888:	1005051b          	addiw	a0,a0,256
    388c:	40000fb7          	lui	t6,0x40000
    3890:	dc043483          	ld	s1,-576(s0)
    3894:	00001ab7          	lui	s5,0x1
    3898:	41540ab3          	sub	s5,s0,s5
    389c:	e4aabc23          	sd	a0,-424(s5) # e58 <.LBB64_3+0xc40>
    38a0:	00055463          	bgez	a0,38a8 <.LBB64_52>
    38a4:	c0000fb7          	lui	t6,0xc0000

00000000000038a8 <.LBB64_52>:
    38a8:	00001537          	lui	a0,0x1
    38ac:	40a40533          	sub	a0,s0,a0
    38b0:	e5f53823          	sd	t6,-432(a0) # e50 <.LBB64_3+0xc38>
    38b4:	002f1f13          	slli	t5,t5,0x2
    38b8:	f4043503          	ld	a0,-192(s0)
    38bc:	00001fb7          	lui	t6,0x1
    38c0:	41f40fb3          	sub	t6,s0,t6
    38c4:	680fbf83          	ld	t6,1664(t6) # 1680 <.LBB64_4+0x514>
    38c8:	00af8533          	add	a0,t6,a0
    38cc:	00001fb7          	lui	t6,0x1
    38d0:	41f40fb3          	sub	t6,s0,t6
    38d4:	6fefbc23          	sd	t5,1784(t6) # 16f8 <.LBB64_4+0x58c>
    38d8:	01e50533          	add	a0,a0,t5
    38dc:	00e50533          	add	a0,a0,a4
    38e0:	1005051b          	addiw	a0,a0,256
    38e4:	40000f37          	lui	t5,0x40000
    38e8:	bd843f83          	ld	t6,-1064(s0)
    38ec:	00001ab7          	lui	s5,0x1
    38f0:	41540ab3          	sub	s5,s0,s5
    38f4:	e6aab423          	sd	a0,-408(s5) # e68 <.LBB64_3+0xc50>
    38f8:	00055463          	bgez	a0,3900 <.LBB64_54>
    38fc:	c0000f37          	lui	t5,0xc0000

0000000000003900 <.LBB64_54>:
    3900:	00001537          	lui	a0,0x1
    3904:	40a40533          	sub	a0,s0,a0
    3908:	e7e53023          	sd	t5,-416(a0) # e60 <.LBB64_3+0xc48>
    390c:	002e9e93          	slli	t4,t4,0x2
    3910:	f4843503          	ld	a0,-184(s0)
    3914:	00001f37          	lui	t5,0x1
    3918:	41e40f33          	sub	t5,s0,t5
    391c:	748f3f03          	ld	t5,1864(t5) # 1748 <.LBB64_5+0x40>
    3920:	00af0533          	add	a0,t5,a0
    3924:	00001f37          	lui	t5,0x1
    3928:	41e40f33          	sub	t5,s0,t5
    392c:	75df3423          	sd	t4,1864(t5) # 1748 <.LBB64_5+0x40>
    3930:	01d50533          	add	a0,a0,t4
    3934:	00e50533          	add	a0,a0,a4
    3938:	1005051b          	addiw	a0,a0,256
    393c:	40000eb7          	lui	t4,0x40000
    3940:	dc843f03          	ld	t5,-568(s0)
    3944:	00001ab7          	lui	s5,0x1
    3948:	41540ab3          	sub	s5,s0,s5
    394c:	e6aabc23          	sd	a0,-392(s5) # e78 <.LBB64_3+0xc60>
    3950:	00055463          	bgez	a0,3958 <.LBB64_56>
    3954:	c0000eb7          	lui	t4,0xc0000

0000000000003958 <.LBB64_56>:
    3958:	00001537          	lui	a0,0x1
    395c:	40a40533          	sub	a0,s0,a0
    3960:	e7d53823          	sd	t4,-400(a0) # e70 <.LBB64_3+0xc58>
    3964:	002e1e13          	slli	t3,t3,0x2
    3968:	f5043503          	ld	a0,-176(s0)
    396c:	00001eb7          	lui	t4,0x1
    3970:	41d40eb3          	sub	t4,s0,t4
    3974:	750ebe83          	ld	t4,1872(t4) # 1750 <.LBB64_5+0x48>
    3978:	00ae8533          	add	a0,t4,a0
    397c:	00001eb7          	lui	t4,0x1
    3980:	41d40eb3          	sub	t4,s0,t4
    3984:	75ceb823          	sd	t3,1872(t4) # 1750 <.LBB64_5+0x48>
    3988:	01c50533          	add	a0,a0,t3
    398c:	00e50533          	add	a0,a0,a4
    3990:	1005051b          	addiw	a0,a0,256
    3994:	40000e37          	lui	t3,0x40000
    3998:	dd043e83          	ld	t4,-560(s0)
    399c:	00001ab7          	lui	s5,0x1
    39a0:	41540ab3          	sub	s5,s0,s5
    39a4:	e8aab423          	sd	a0,-376(s5) # e88 <.LBB64_3+0xc70>
    39a8:	00055463          	bgez	a0,39b0 <.LBB64_58>
    39ac:	c0000e37          	lui	t3,0xc0000

00000000000039b0 <.LBB64_58>:
    39b0:	00001537          	lui	a0,0x1
    39b4:	40a40533          	sub	a0,s0,a0
    39b8:	e9c53023          	sd	t3,-384(a0) # e80 <.LBB64_3+0xc68>
    39bc:	00239393          	slli	t2,t2,0x2
    39c0:	f5843503          	ld	a0,-168(s0)
    39c4:	00001e37          	lui	t3,0x1
    39c8:	41c40e33          	sub	t3,s0,t3
    39cc:	758e3e03          	ld	t3,1880(t3) # 1758 <.LBB64_5+0x50>
    39d0:	00ae0533          	add	a0,t3,a0
    39d4:	00001e37          	lui	t3,0x1
    39d8:	41c40e33          	sub	t3,s0,t3
    39dc:	747e3c23          	sd	t2,1880(t3) # 1758 <.LBB64_5+0x50>
    39e0:	00750533          	add	a0,a0,t2
    39e4:	00e50533          	add	a0,a0,a4
    39e8:	1005051b          	addiw	a0,a0,256
    39ec:	400003b7          	lui	t2,0x40000
    39f0:	dd843e03          	ld	t3,-552(s0)
    39f4:	00001ab7          	lui	s5,0x1
    39f8:	41540ab3          	sub	s5,s0,s5
    39fc:	e8aabc23          	sd	a0,-360(s5) # e98 <.LBB64_3+0xc80>
    3a00:	00055463          	bgez	a0,3a08 <.LBB64_60>
    3a04:	c00003b7          	lui	t2,0xc0000

0000000000003a08 <.LBB64_60>:
    3a08:	00001537          	lui	a0,0x1
    3a0c:	40a40533          	sub	a0,s0,a0
    3a10:	e8753823          	sd	t2,-368(a0) # e90 <.LBB64_3+0xc78>
    3a14:	00231313          	slli	t1,t1,0x2
    3a18:	f6043503          	ld	a0,-160(s0)
    3a1c:	000013b7          	lui	t2,0x1
    3a20:	407403b3          	sub	t2,s0,t2
    3a24:	7603b383          	ld	t2,1888(t2) # 1760 <.LBB64_5+0x58>
    3a28:	00a38533          	add	a0,t2,a0
    3a2c:	000013b7          	lui	t2,0x1
    3a30:	407403b3          	sub	t2,s0,t2
    3a34:	7663b023          	sd	t1,1888(t2) # 1760 <.LBB64_5+0x58>
    3a38:	00650533          	add	a0,a0,t1
    3a3c:	00e50533          	add	a0,a0,a4
    3a40:	1005051b          	addiw	a0,a0,256
    3a44:	40000337          	lui	t1,0x40000
    3a48:	de043383          	ld	t2,-544(s0)
    3a4c:	00001ab7          	lui	s5,0x1
    3a50:	41540ab3          	sub	s5,s0,s5
    3a54:	eaaab423          	sd	a0,-344(s5) # ea8 <.LBB64_3+0xc90>
    3a58:	00055463          	bgez	a0,3a60 <.LBB64_62>
    3a5c:	c0000337          	lui	t1,0xc0000

0000000000003a60 <.LBB64_62>:
    3a60:	00001537          	lui	a0,0x1
    3a64:	40a40533          	sub	a0,s0,a0
    3a68:	ea653023          	sd	t1,-352(a0) # ea0 <.LBB64_3+0xc88>
    3a6c:	00229293          	slli	t0,t0,0x2
    3a70:	f6843503          	ld	a0,-152(s0)
    3a74:	00001337          	lui	t1,0x1
    3a78:	40640333          	sub	t1,s0,t1
    3a7c:	68833303          	ld	t1,1672(t1) # 1688 <.LBB64_4+0x51c>
    3a80:	00a30533          	add	a0,t1,a0
    3a84:	00001337          	lui	t1,0x1
    3a88:	40640333          	sub	t1,s0,t1
    3a8c:	68533823          	sd	t0,1680(t1) # 1690 <.LBB64_4+0x524>
    3a90:	00550533          	add	a0,a0,t0
    3a94:	00e50533          	add	a0,a0,a4
    3a98:	1005051b          	addiw	a0,a0,256
    3a9c:	400002b7          	lui	t0,0x40000
    3aa0:	de843303          	ld	t1,-536(s0)
    3aa4:	00001ab7          	lui	s5,0x1
    3aa8:	41540ab3          	sub	s5,s0,s5
    3aac:	eaaabc23          	sd	a0,-328(s5) # eb8 <.LBB64_3+0xca0>
    3ab0:	00055463          	bgez	a0,3ab8 <.LBB64_64>
    3ab4:	c00002b7          	lui	t0,0xc0000

0000000000003ab8 <.LBB64_64>:
    3ab8:	00001537          	lui	a0,0x1
    3abc:	40a40533          	sub	a0,s0,a0
    3ac0:	ea553823          	sd	t0,-336(a0) # eb0 <.LBB64_3+0xc98>
    3ac4:	00289893          	slli	a7,a7,0x2
    3ac8:	f7043503          	ld	a0,-144(s0)
    3acc:	00a80533          	add	a0,a6,a0
    3ad0:	00001837          	lui	a6,0x1
    3ad4:	41040833          	sub	a6,s0,a6
    3ad8:	77183423          	sd	a7,1896(a6) # 1768 <.LBB64_5+0x60>
    3adc:	01150533          	add	a0,a0,a7
    3ae0:	00e50533          	add	a0,a0,a4
    3ae4:	1005051b          	addiw	a0,a0,256
    3ae8:	400008b7          	lui	a7,0x40000
    3aec:	df043283          	ld	t0,-528(s0)
    3af0:	00001837          	lui	a6,0x1
    3af4:	41040833          	sub	a6,s0,a6
    3af8:	eca83423          	sd	a0,-312(a6) # ec8 <.LBB64_3+0xcb0>
    3afc:	00055463          	bgez	a0,3b04 <.LBB64_66>
    3b00:	c00008b7          	lui	a7,0xc0000

0000000000003b04 <.LBB64_66>:
    3b04:	00001537          	lui	a0,0x1
    3b08:	40a40533          	sub	a0,s0,a0
    3b0c:	ed153023          	sd	a7,-320(a0) # ec0 <.LBB64_3+0xca8>
    3b10:	00001537          	lui	a0,0x1
    3b14:	40a40533          	sub	a0,s0,a0
    3b18:	64053803          	ld	a6,1600(a0) # 1640 <.LBB64_4+0x4d4>
    3b1c:	00281813          	slli	a6,a6,0x2
    3b20:	f7843503          	ld	a0,-136(s0)
    3b24:	000018b7          	lui	a7,0x1
    3b28:	411408b3          	sub	a7,s0,a7
    3b2c:	7708b883          	ld	a7,1904(a7) # 1770 <.LBB64_5+0x68>
    3b30:	00a88533          	add	a0,a7,a0
    3b34:	000018b7          	lui	a7,0x1
    3b38:	411408b3          	sub	a7,s0,a7
    3b3c:	7708b823          	sd	a6,1904(a7) # 1770 <.LBB64_5+0x68>
    3b40:	01050533          	add	a0,a0,a6
    3b44:	00e50533          	add	a0,a0,a4
    3b48:	1005051b          	addiw	a0,a0,256
    3b4c:	40000837          	lui	a6,0x40000
    3b50:	df843883          	ld	a7,-520(s0)
    3b54:	00001ab7          	lui	s5,0x1
    3b58:	41540ab3          	sub	s5,s0,s5
    3b5c:	ecaabc23          	sd	a0,-296(s5) # ed8 <.LBB64_3+0xcc0>
    3b60:	00055463          	bgez	a0,3b68 <.LBB64_68>
    3b64:	c0000837          	lui	a6,0xc0000

0000000000003b68 <.LBB64_68>:
    3b68:	00001537          	lui	a0,0x1
    3b6c:	40a40533          	sub	a0,s0,a0
    3b70:	e3353023          	sd	s3,-480(a0) # e20 <.LBB64_3+0xc08>
    3b74:	00001537          	lui	a0,0x1
    3b78:	40a40533          	sub	a0,s0,a0
    3b7c:	ed053823          	sd	a6,-304(a0) # ed0 <.LBB64_3+0xcb8>
    3b80:	00001537          	lui	a0,0x1
    3b84:	40a40533          	sub	a0,s0,a0
    3b88:	64853803          	ld	a6,1608(a0) # 1648 <.LBB64_4+0x4dc>
    3b8c:	00281813          	slli	a6,a6,0x2
    3b90:	f8043503          	ld	a0,-128(s0)
    3b94:	000019b7          	lui	s3,0x1
    3b98:	413409b3          	sub	s3,s0,s3
    3b9c:	7789b983          	ld	s3,1912(s3) # 1778 <.LBB64_5+0x70>
    3ba0:	00a98533          	add	a0,s3,a0
    3ba4:	000019b7          	lui	s3,0x1
    3ba8:	413409b3          	sub	s3,s0,s3
    3bac:	7709bc23          	sd	a6,1912(s3) # 1778 <.LBB64_5+0x70>
    3bb0:	01050533          	add	a0,a0,a6
    3bb4:	00e50533          	add	a0,a0,a4
    3bb8:	1005051b          	addiw	a0,a0,256
    3bbc:	40000737          	lui	a4,0x40000
    3bc0:	e0043803          	ld	a6,-512(s0)
    3bc4:	000019b7          	lui	s3,0x1
    3bc8:	413409b3          	sub	s3,s0,s3
    3bcc:	eea9b423          	sd	a0,-280(s3) # ee8 <.LBB64_3+0xcd0>
    3bd0:	00055463          	bgez	a0,3bd8 <.LBB64_70>
    3bd4:	c0000737          	lui	a4,0xc0000

0000000000003bd8 <.LBB64_70>:
    3bd8:	00001537          	lui	a0,0x1
    3bdc:	40a40533          	sub	a0,s0,a0
    3be0:	eee53023          	sd	a4,-288(a0) # ee0 <.LBB64_3+0xcc8>
    3be4:	e8043503          	ld	a0,-384(s0)
    3be8:	00001737          	lui	a4,0x1
    3bec:	40e40733          	sub	a4,s0,a4
    3bf0:	78073703          	ld	a4,1920(a4) # 1780 <.LBB64_5+0x78>
    3bf4:	00a70533          	add	a0,a4,a0
    3bf8:	e7843703          	ld	a4,-392(s0)
    3bfc:	00e50533          	add	a0,a0,a4
    3c00:	00d50533          	add	a0,a0,a3
    3c04:	1005051b          	addiw	a0,a0,256
    3c08:	400009b7          	lui	s3,0x40000
    3c0c:	e1043703          	ld	a4,-496(s0)
    3c10:	00001ab7          	lui	s5,0x1
    3c14:	41540ab3          	sub	s5,s0,s5
    3c18:	eeaabc23          	sd	a0,-264(s5) # ef8 <.LBB64_3+0xce0>
    3c1c:	00055463          	bgez	a0,3c24 <.LBB64_72>
    3c20:	c00009b7          	lui	s3,0xc0000

0000000000003c24 <.LBB64_72>:
    3c24:	00001537          	lui	a0,0x1
    3c28:	40a40533          	sub	a0,s0,a0
    3c2c:	ef353823          	sd	s3,-272(a0) # ef0 <.LBB64_3+0xcd8>
    3c30:	e7043503          	ld	a0,-400(s0)
    3c34:	000019b7          	lui	s3,0x1
    3c38:	413409b3          	sub	s3,s0,s3
    3c3c:	7889b983          	ld	s3,1928(s3) # 1788 <.LBB64_5+0x80>
    3c40:	00a98533          	add	a0,s3,a0
    3c44:	e6843983          	ld	s3,-408(s0)
    3c48:	01350533          	add	a0,a0,s3
    3c4c:	00d50533          	add	a0,a0,a3
    3c50:	1005051b          	addiw	a0,a0,256
    3c54:	400009b7          	lui	s3,0x40000
    3c58:	00001ab7          	lui	s5,0x1
    3c5c:	41540ab3          	sub	s5,s0,s5
    3c60:	f0aab423          	sd	a0,-248(s5) # f08 <.LBB64_3+0xcf0>
    3c64:	00055463          	bgez	a0,3c6c <.LBB64_74>
    3c68:	c00009b7          	lui	s3,0xc0000

0000000000003c6c <.LBB64_74>:
    3c6c:	00001537          	lui	a0,0x1
    3c70:	40a40533          	sub	a0,s0,a0
    3c74:	f1353023          	sd	s3,-256(a0) # f00 <.LBB64_3+0xce8>
    3c78:	e6043503          	ld	a0,-416(s0)
    3c7c:	000019b7          	lui	s3,0x1
    3c80:	413409b3          	sub	s3,s0,s3
    3c84:	7909b983          	ld	s3,1936(s3) # 1790 <.LBB64_5+0x88>
    3c88:	00a98533          	add	a0,s3,a0
    3c8c:	e5843983          	ld	s3,-424(s0)
    3c90:	01350533          	add	a0,a0,s3
    3c94:	00d50533          	add	a0,a0,a3
    3c98:	1005051b          	addiw	a0,a0,256
    3c9c:	400009b7          	lui	s3,0x40000
    3ca0:	00001ab7          	lui	s5,0x1
    3ca4:	41540ab3          	sub	s5,s0,s5
    3ca8:	f0aabc23          	sd	a0,-232(s5) # f18 <.LBB64_3+0xd00>
    3cac:	00055463          	bgez	a0,3cb4 <.LBB64_76>
    3cb0:	c00009b7          	lui	s3,0xc0000

0000000000003cb4 <.LBB64_76>:
    3cb4:	00001537          	lui	a0,0x1
    3cb8:	40a40533          	sub	a0,s0,a0
    3cbc:	f1353823          	sd	s3,-240(a0) # f10 <.LBB64_3+0xcf8>
    3cc0:	e5043503          	ld	a0,-432(s0)
    3cc4:	000019b7          	lui	s3,0x1
    3cc8:	413409b3          	sub	s3,s0,s3
    3ccc:	7989b983          	ld	s3,1944(s3) # 1798 <.LBB64_5+0x90>
    3cd0:	00a98533          	add	a0,s3,a0
    3cd4:	e4843983          	ld	s3,-440(s0)
    3cd8:	01350533          	add	a0,a0,s3
    3cdc:	00d50533          	add	a0,a0,a3
    3ce0:	1005051b          	addiw	a0,a0,256
    3ce4:	400009b7          	lui	s3,0x40000
    3ce8:	00001ab7          	lui	s5,0x1
    3cec:	41540ab3          	sub	s5,s0,s5
    3cf0:	f2aab423          	sd	a0,-216(s5) # f28 <.LBB64_3+0xd10>
    3cf4:	00055463          	bgez	a0,3cfc <.LBB64_78>
    3cf8:	c00009b7          	lui	s3,0xc0000

0000000000003cfc <.LBB64_78>:
    3cfc:	00001537          	lui	a0,0x1
    3d00:	40a40533          	sub	a0,s0,a0
    3d04:	f3353023          	sd	s3,-224(a0) # f20 <.LBB64_3+0xd08>
    3d08:	e4043503          	ld	a0,-448(s0)
    3d0c:	000019b7          	lui	s3,0x1
    3d10:	413409b3          	sub	s3,s0,s3
    3d14:	7a09b983          	ld	s3,1952(s3) # 17a0 <.LBB64_5+0x98>
    3d18:	00a98533          	add	a0,s3,a0
    3d1c:	e3843983          	ld	s3,-456(s0)
    3d20:	01350533          	add	a0,a0,s3
    3d24:	00d50533          	add	a0,a0,a3
    3d28:	1005051b          	addiw	a0,a0,256
    3d2c:	400009b7          	lui	s3,0x40000
    3d30:	00001ab7          	lui	s5,0x1
    3d34:	41540ab3          	sub	s5,s0,s5
    3d38:	f2aabc23          	sd	a0,-200(s5) # f38 <.LBB64_3+0xd20>
    3d3c:	00055463          	bgez	a0,3d44 <.LBB64_80>
    3d40:	c00009b7          	lui	s3,0xc0000

0000000000003d44 <.LBB64_80>:
    3d44:	00001537          	lui	a0,0x1
    3d48:	40a40533          	sub	a0,s0,a0
    3d4c:	f3353823          	sd	s3,-208(a0) # f30 <.LBB64_3+0xd18>
    3d50:	e3043503          	ld	a0,-464(s0)
    3d54:	000019b7          	lui	s3,0x1
    3d58:	413409b3          	sub	s3,s0,s3
    3d5c:	7a89b983          	ld	s3,1960(s3) # 17a8 <.LBB64_5+0xa0>
    3d60:	00a98533          	add	a0,s3,a0
    3d64:	000019b7          	lui	s3,0x1
    3d68:	413409b3          	sub	s3,s0,s3
    3d6c:	6d09b983          	ld	s3,1744(s3) # 16d0 <.LBB64_4+0x564>
    3d70:	01350533          	add	a0,a0,s3
    3d74:	00d50533          	add	a0,a0,a3
    3d78:	1005051b          	addiw	a0,a0,256
    3d7c:	400009b7          	lui	s3,0x40000
    3d80:	00001ab7          	lui	s5,0x1
    3d84:	41540ab3          	sub	s5,s0,s5
    3d88:	f6aab423          	sd	a0,-152(s5) # f68 <.LBB64_3+0xd50>
    3d8c:	00055463          	bgez	a0,3d94 <.LBB64_82>
    3d90:	c00009b7          	lui	s3,0xc0000

0000000000003d94 <.LBB64_82>:
    3d94:	00001537          	lui	a0,0x1
    3d98:	40a40533          	sub	a0,s0,a0
    3d9c:	f5353423          	sd	s3,-184(a0) # f48 <.LBB64_3+0xd30>
    3da0:	00001537          	lui	a0,0x1
    3da4:	40a40533          	sub	a0,s0,a0
    3da8:	6c853503          	ld	a0,1736(a0) # 16c8 <.LBB64_4+0x55c>
    3dac:	000019b7          	lui	s3,0x1
    3db0:	413409b3          	sub	s3,s0,s3
    3db4:	7b09b983          	ld	s3,1968(s3) # 17b0 <.LBB64_5+0xa8>
    3db8:	00a98533          	add	a0,s3,a0
    3dbc:	000019b7          	lui	s3,0x1
    3dc0:	413409b3          	sub	s3,s0,s3
    3dc4:	6c09b983          	ld	s3,1728(s3) # 16c0 <.LBB64_4+0x554>
    3dc8:	01350533          	add	a0,a0,s3
    3dcc:	00d50533          	add	a0,a0,a3
    3dd0:	1005051b          	addiw	a0,a0,256
    3dd4:	400009b7          	lui	s3,0x40000
    3dd8:	00001ab7          	lui	s5,0x1
    3ddc:	41540ab3          	sub	s5,s0,s5
    3de0:	faaab423          	sd	a0,-88(s5) # fa8 <.LBB64_3+0xd90>
    3de4:	00055463          	bgez	a0,3dec <.LBB64_84>
    3de8:	c00009b7          	lui	s3,0xc0000

0000000000003dec <.LBB64_84>:
    3dec:	00001537          	lui	a0,0x1
    3df0:	40a40533          	sub	a0,s0,a0
    3df4:	f9353423          	sd	s3,-120(a0) # f88 <.LBB64_3+0xd70>
    3df8:	00001537          	lui	a0,0x1
    3dfc:	40a40533          	sub	a0,s0,a0
    3e00:	6b853503          	ld	a0,1720(a0) # 16b8 <.LBB64_4+0x54c>
    3e04:	000019b7          	lui	s3,0x1
    3e08:	413409b3          	sub	s3,s0,s3
    3e0c:	7b89b983          	ld	s3,1976(s3) # 17b8 <.LBB64_5+0xb0>
    3e10:	00a98533          	add	a0,s3,a0
    3e14:	000019b7          	lui	s3,0x1
    3e18:	413409b3          	sub	s3,s0,s3
    3e1c:	6b09b983          	ld	s3,1712(s3) # 16b0 <.LBB64_4+0x544>
    3e20:	01350533          	add	a0,a0,s3
    3e24:	00d50533          	add	a0,a0,a3
    3e28:	1005051b          	addiw	a0,a0,256
    3e2c:	400009b7          	lui	s3,0x40000
    3e30:	00001ab7          	lui	s5,0x1
    3e34:	41540ab3          	sub	s5,s0,s5
    3e38:	feaab423          	sd	a0,-24(s5) # fe8 <.LBB64_3+0xdd0>
    3e3c:	00055463          	bgez	a0,3e44 <.LBB64_86>
    3e40:	c00009b7          	lui	s3,0xc0000

0000000000003e44 <.LBB64_86>:
    3e44:	00001537          	lui	a0,0x1
    3e48:	40a40533          	sub	a0,s0,a0
    3e4c:	fd353823          	sd	s3,-48(a0) # fd0 <.LBB64_3+0xdb8>
    3e50:	00001537          	lui	a0,0x1
    3e54:	40a40533          	sub	a0,s0,a0
    3e58:	6a853503          	ld	a0,1704(a0) # 16a8 <.LBB64_4+0x53c>
    3e5c:	000019b7          	lui	s3,0x1
    3e60:	413409b3          	sub	s3,s0,s3
    3e64:	7c09b983          	ld	s3,1984(s3) # 17c0 <.LBB64_5+0xb8>
    3e68:	00a98533          	add	a0,s3,a0
    3e6c:	000019b7          	lui	s3,0x1
    3e70:	413409b3          	sub	s3,s0,s3
    3e74:	6a09b983          	ld	s3,1696(s3) # 16a0 <.LBB64_4+0x534>
    3e78:	01350533          	add	a0,a0,s3
    3e7c:	00d50533          	add	a0,a0,a3
    3e80:	1005051b          	addiw	a0,a0,256
    3e84:	400009b7          	lui	s3,0x40000
    3e88:	00001ab7          	lui	s5,0x1
    3e8c:	41540ab3          	sub	s5,s0,s5
    3e90:	00aab423          	sd	a0,8(s5) # 1008 <.LBB64_3+0xdf0>
    3e94:	00055463          	bgez	a0,3e9c <.LBB64_88>
    3e98:	c00009b7          	lui	s3,0xc0000

0000000000003e9c <.LBB64_88>:
    3e9c:	00001537          	lui	a0,0x1
    3ea0:	40a40533          	sub	a0,s0,a0
    3ea4:	01353023          	sd	s3,0(a0) # 1000 <.LBB64_3+0xde8>
    3ea8:	00001537          	lui	a0,0x1
    3eac:	40a40533          	sub	a0,s0,a0
    3eb0:	69853503          	ld	a0,1688(a0) # 1698 <.LBB64_4+0x52c>
    3eb4:	000019b7          	lui	s3,0x1
    3eb8:	413409b3          	sub	s3,s0,s3
    3ebc:	7c89b983          	ld	s3,1992(s3) # 17c8 <.LBB64_5+0xc0>
    3ec0:	00a98533          	add	a0,s3,a0
    3ec4:	000019b7          	lui	s3,0x1
    3ec8:	413409b3          	sub	s3,s0,s3
    3ecc:	6d89b983          	ld	s3,1752(s3) # 16d8 <.LBB64_4+0x56c>
    3ed0:	01350533          	add	a0,a0,s3
    3ed4:	00d50533          	add	a0,a0,a3
    3ed8:	1005051b          	addiw	a0,a0,256
    3edc:	400009b7          	lui	s3,0x40000
    3ee0:	00001ab7          	lui	s5,0x1
    3ee4:	41540ab3          	sub	s5,s0,s5
    3ee8:	00aabc23          	sd	a0,24(s5) # 1018 <.LBB64_3+0xe00>
    3eec:	00055463          	bgez	a0,3ef4 <.LBB64_90>
    3ef0:	c00009b7          	lui	s3,0xc0000

0000000000003ef4 <.LBB64_90>:
    3ef4:	00001537          	lui	a0,0x1
    3ef8:	40a40533          	sub	a0,s0,a0
    3efc:	01353823          	sd	s3,16(a0) # 1010 <.LBB64_3+0xdf8>
    3f00:	e8843503          	ld	a0,-376(s0)
    3f04:	000019b7          	lui	s3,0x1
    3f08:	413409b3          	sub	s3,s0,s3
    3f0c:	7d09b983          	ld	s3,2000(s3) # 17d0 <.LBB64_5+0xc8>
    3f10:	00a98533          	add	a0,s3,a0
    3f14:	000019b7          	lui	s3,0x1
    3f18:	413409b3          	sub	s3,s0,s3
    3f1c:	6e09b983          	ld	s3,1760(s3) # 16e0 <.LBB64_4+0x574>
    3f20:	01350533          	add	a0,a0,s3
    3f24:	00d50533          	add	a0,a0,a3
    3f28:	1005051b          	addiw	a0,a0,256
    3f2c:	400009b7          	lui	s3,0x40000
    3f30:	00001ab7          	lui	s5,0x1
    3f34:	41540ab3          	sub	s5,s0,s5
    3f38:	02aab423          	sd	a0,40(s5) # 1028 <.LBB64_3+0xe10>
    3f3c:	00055463          	bgez	a0,3f44 <.LBB64_92>
    3f40:	c00009b7          	lui	s3,0xc0000

0000000000003f44 <.LBB64_92>:
    3f44:	00001537          	lui	a0,0x1
    3f48:	40a40533          	sub	a0,s0,a0
    3f4c:	03353023          	sd	s3,32(a0) # 1020 <.LBB64_3+0xe08>
    3f50:	e9043503          	ld	a0,-368(s0)
    3f54:	000019b7          	lui	s3,0x1
    3f58:	413409b3          	sub	s3,s0,s3
    3f5c:	7d89b983          	ld	s3,2008(s3) # 17d8 <.LBB64_5+0xd0>
    3f60:	00a98533          	add	a0,s3,a0
    3f64:	000019b7          	lui	s3,0x1
    3f68:	413409b3          	sub	s3,s0,s3
    3f6c:	6e89b983          	ld	s3,1768(s3) # 16e8 <.LBB64_4+0x57c>
    3f70:	01350533          	add	a0,a0,s3
    3f74:	00d50533          	add	a0,a0,a3
    3f78:	1005051b          	addiw	a0,a0,256
    3f7c:	400009b7          	lui	s3,0x40000
    3f80:	00001ab7          	lui	s5,0x1
    3f84:	41540ab3          	sub	s5,s0,s5
    3f88:	02aabc23          	sd	a0,56(s5) # 1038 <.LBB64_3+0xe20>
    3f8c:	00055463          	bgez	a0,3f94 <.LBB64_94>
    3f90:	c00009b7          	lui	s3,0xc0000

0000000000003f94 <.LBB64_94>:
    3f94:	00001537          	lui	a0,0x1
    3f98:	40a40533          	sub	a0,s0,a0
    3f9c:	03353823          	sd	s3,48(a0) # 1030 <.LBB64_3+0xe18>
    3fa0:	e9843503          	ld	a0,-360(s0)
    3fa4:	000019b7          	lui	s3,0x1
    3fa8:	413409b3          	sub	s3,s0,s3
    3fac:	7e09b983          	ld	s3,2016(s3) # 17e0 <.LBB64_5+0xd8>
    3fb0:	00a98533          	add	a0,s3,a0
    3fb4:	000019b7          	lui	s3,0x1
    3fb8:	413409b3          	sub	s3,s0,s3
    3fbc:	6f09b983          	ld	s3,1776(s3) # 16f0 <.LBB64_4+0x584>
    3fc0:	01350533          	add	a0,a0,s3
    3fc4:	00d50533          	add	a0,a0,a3
    3fc8:	1005051b          	addiw	a0,a0,256
    3fcc:	400009b7          	lui	s3,0x40000
    3fd0:	00001ab7          	lui	s5,0x1
    3fd4:	41540ab3          	sub	s5,s0,s5
    3fd8:	04aab423          	sd	a0,72(s5) # 1048 <.LBB64_3+0xe30>
    3fdc:	00055463          	bgez	a0,3fe4 <.LBB64_96>
    3fe0:	c00009b7          	lui	s3,0xc0000

0000000000003fe4 <.LBB64_96>:
    3fe4:	00001537          	lui	a0,0x1
    3fe8:	40a40533          	sub	a0,s0,a0
    3fec:	05353023          	sd	s3,64(a0) # 1040 <.LBB64_3+0xe28>
    3ff0:	ea043503          	ld	a0,-352(s0)
    3ff4:	000019b7          	lui	s3,0x1
    3ff8:	413409b3          	sub	s3,s0,s3
    3ffc:	7e89b983          	ld	s3,2024(s3) # 17e8 <.LBB64_5+0xe0>
    4000:	00a98533          	add	a0,s3,a0
    4004:	01a50533          	add	a0,a0,s10
    4008:	00d50533          	add	a0,a0,a3
    400c:	1005051b          	addiw	a0,a0,256
    4010:	400009b7          	lui	s3,0x40000
    4014:	00001ab7          	lui	s5,0x1
    4018:	41540ab3          	sub	s5,s0,s5
    401c:	04aabc23          	sd	a0,88(s5) # 1058 <.LBB64_3+0xe40>
    4020:	00055463          	bgez	a0,4028 <.LBB64_98>
    4024:	c00009b7          	lui	s3,0xc0000

0000000000004028 <.LBB64_98>:
    4028:	00001537          	lui	a0,0x1
    402c:	40a40533          	sub	a0,s0,a0
    4030:	05353823          	sd	s3,80(a0) # 1050 <.LBB64_3+0xe38>
    4034:	ea843503          	ld	a0,-344(s0)
    4038:	000019b7          	lui	s3,0x1
    403c:	413409b3          	sub	s3,s0,s3
    4040:	7f09b983          	ld	s3,2032(s3) # 17f0 <.LBB64_5+0xe8>
    4044:	00a98533          	add	a0,s3,a0
    4048:	000019b7          	lui	s3,0x1
    404c:	413409b3          	sub	s3,s0,s3
    4050:	7009b983          	ld	s3,1792(s3) # 1700 <.LBB64_4+0x594>
    4054:	01350533          	add	a0,a0,s3
    4058:	00d50533          	add	a0,a0,a3
    405c:	1005051b          	addiw	a0,a0,256
    4060:	400009b7          	lui	s3,0x40000
    4064:	00001ab7          	lui	s5,0x1
    4068:	41540ab3          	sub	s5,s0,s5
    406c:	06aab423          	sd	a0,104(s5) # 1068 <.LBB64_3+0xe50>
    4070:	00055463          	bgez	a0,4078 <.LBB64_100>
    4074:	c00009b7          	lui	s3,0xc0000

0000000000004078 <.LBB64_100>:
    4078:	00001537          	lui	a0,0x1
    407c:	40a40533          	sub	a0,s0,a0
    4080:	07353023          	sd	s3,96(a0) # 1060 <.LBB64_3+0xe48>
    4084:	eb043503          	ld	a0,-336(s0)
    4088:	000019b7          	lui	s3,0x1
    408c:	413409b3          	sub	s3,s0,s3
    4090:	7f89b983          	ld	s3,2040(s3) # 17f8 <.LBB64_5+0xf0>
    4094:	00a98533          	add	a0,s3,a0
    4098:	000019b7          	lui	s3,0x1
    409c:	413409b3          	sub	s3,s0,s3
    40a0:	7089b983          	ld	s3,1800(s3) # 1708 <.LBB64_5>
    40a4:	01350533          	add	a0,a0,s3
    40a8:	00d50533          	add	a0,a0,a3
    40ac:	1005051b          	addiw	a0,a0,256
    40b0:	400009b7          	lui	s3,0x40000
    40b4:	00001ab7          	lui	s5,0x1
    40b8:	41540ab3          	sub	s5,s0,s5
    40bc:	06aabc23          	sd	a0,120(s5) # 1078 <.LBB64_3+0xe60>
    40c0:	00055463          	bgez	a0,40c8 <.LBB64_102>
    40c4:	c00009b7          	lui	s3,0xc0000

00000000000040c8 <.LBB64_102>:
    40c8:	00001537          	lui	a0,0x1
    40cc:	40a40533          	sub	a0,s0,a0
    40d0:	07353823          	sd	s3,112(a0) # 1070 <.LBB64_3+0xe58>
    40d4:	eb843503          	ld	a0,-328(s0)
    40d8:	80043983          	ld	s3,-2048(s0)
    40dc:	00a98533          	add	a0,s3,a0
    40e0:	000019b7          	lui	s3,0x1
    40e4:	413409b3          	sub	s3,s0,s3
    40e8:	7109b983          	ld	s3,1808(s3) # 1710 <.LBB64_5+0x8>
    40ec:	01350533          	add	a0,a0,s3
    40f0:	00d50533          	add	a0,a0,a3
    40f4:	1005051b          	addiw	a0,a0,256
    40f8:	400009b7          	lui	s3,0x40000
    40fc:	00001ab7          	lui	s5,0x1
    4100:	41540ab3          	sub	s5,s0,s5
    4104:	08aab423          	sd	a0,136(s5) # 1088 <.LBB64_3+0xe70>
    4108:	00055463          	bgez	a0,4110 <.LBB64_104>
    410c:	c00009b7          	lui	s3,0xc0000

0000000000004110 <.LBB64_104>:
    4110:	00001537          	lui	a0,0x1
    4114:	40a40533          	sub	a0,s0,a0
    4118:	09353023          	sd	s3,128(a0) # 1080 <.LBB64_3+0xe68>
    411c:	ec043503          	ld	a0,-320(s0)
    4120:	80843983          	ld	s3,-2040(s0)
    4124:	00a98533          	add	a0,s3,a0
    4128:	000019b7          	lui	s3,0x1
    412c:	413409b3          	sub	s3,s0,s3
    4130:	7189b983          	ld	s3,1816(s3) # 1718 <.LBB64_5+0x10>
    4134:	01350533          	add	a0,a0,s3
    4138:	00d50533          	add	a0,a0,a3
    413c:	1005051b          	addiw	a0,a0,256
    4140:	400009b7          	lui	s3,0x40000
    4144:	00001ab7          	lui	s5,0x1
    4148:	41540ab3          	sub	s5,s0,s5
    414c:	08aabc23          	sd	a0,152(s5) # 1098 <.LBB64_3+0xe80>
    4150:	00055463          	bgez	a0,4158 <.LBB64_106>
    4154:	c00009b7          	lui	s3,0xc0000

0000000000004158 <.LBB64_106>:
    4158:	00001537          	lui	a0,0x1
    415c:	40a40533          	sub	a0,s0,a0
    4160:	09353823          	sd	s3,144(a0) # 1090 <.LBB64_3+0xe78>
    4164:	f1843503          	ld	a0,-232(s0)
    4168:	81043983          	ld	s3,-2032(s0)
    416c:	00a98533          	add	a0,s3,a0
    4170:	000019b7          	lui	s3,0x1
    4174:	413409b3          	sub	s3,s0,s3
    4178:	7209b983          	ld	s3,1824(s3) # 1720 <.LBB64_5+0x18>
    417c:	01350533          	add	a0,a0,s3
    4180:	00d50533          	add	a0,a0,a3
    4184:	1005051b          	addiw	a0,a0,256
    4188:	400009b7          	lui	s3,0x40000
    418c:	00001ab7          	lui	s5,0x1
    4190:	41540ab3          	sub	s5,s0,s5
    4194:	0aaab423          	sd	a0,168(s5) # 10a8 <.LBB64_3+0xe90>
    4198:	00055463          	bgez	a0,41a0 <.LBB64_108>
    419c:	c00009b7          	lui	s3,0xc0000

00000000000041a0 <.LBB64_108>:
    41a0:	00001537          	lui	a0,0x1
    41a4:	40a40533          	sub	a0,s0,a0
    41a8:	0b353023          	sd	s3,160(a0) # 10a0 <.LBB64_3+0xe88>
    41ac:	f2043503          	ld	a0,-224(s0)
    41b0:	81843983          	ld	s3,-2024(s0)
    41b4:	00a98533          	add	a0,s3,a0
    41b8:	000019b7          	lui	s3,0x1
    41bc:	413409b3          	sub	s3,s0,s3
    41c0:	7289b983          	ld	s3,1832(s3) # 1728 <.LBB64_5+0x20>
    41c4:	01350533          	add	a0,a0,s3
    41c8:	00d50533          	add	a0,a0,a3
    41cc:	1005051b          	addiw	a0,a0,256
    41d0:	400009b7          	lui	s3,0x40000
    41d4:	80a43823          	sd	a0,-2032(s0)
    41d8:	00055463          	bgez	a0,41e0 <.LBB64_110>
    41dc:	c00009b7          	lui	s3,0xc0000

00000000000041e0 <.LBB64_110>:
    41e0:	00001537          	lui	a0,0x1
    41e4:	40a40533          	sub	a0,s0,a0
    41e8:	0b353823          	sd	s3,176(a0) # 10b0 <.LBB64_3+0xe98>
    41ec:	f2843503          	ld	a0,-216(s0)
    41f0:	82043983          	ld	s3,-2016(s0)
    41f4:	00a98533          	add	a0,s3,a0
    41f8:	000019b7          	lui	s3,0x1
    41fc:	413409b3          	sub	s3,s0,s3
    4200:	7309b983          	ld	s3,1840(s3) # 1730 <.LBB64_5+0x28>
    4204:	01350533          	add	a0,a0,s3
    4208:	00d50533          	add	a0,a0,a3
    420c:	1005051b          	addiw	a0,a0,256
    4210:	400009b7          	lui	s3,0x40000
    4214:	00001ab7          	lui	s5,0x1
    4218:	41540ab3          	sub	s5,s0,s5
    421c:	7caabc23          	sd	a0,2008(s5) # 17d8 <.LBB64_5+0xd0>
    4220:	00055463          	bgez	a0,4228 <.LBB64_112>
    4224:	c00009b7          	lui	s3,0xc0000

0000000000004228 <.LBB64_112>:
    4228:	00001537          	lui	a0,0x1
    422c:	40a40533          	sub	a0,s0,a0
    4230:	0b353c23          	sd	s3,184(a0) # 10b8 <.LBB64_3+0xea0>
    4234:	f3043503          	ld	a0,-208(s0)
    4238:	82843983          	ld	s3,-2008(s0)
    423c:	00a98533          	add	a0,s3,a0
    4240:	000019b7          	lui	s3,0x1
    4244:	413409b3          	sub	s3,s0,s3
    4248:	7389b983          	ld	s3,1848(s3) # 1738 <.LBB64_5+0x30>
    424c:	01350533          	add	a0,a0,s3
    4250:	00d50533          	add	a0,a0,a3
    4254:	1005051b          	addiw	a0,a0,256
    4258:	400009b7          	lui	s3,0x40000
    425c:	00001ab7          	lui	s5,0x1
    4260:	41540ab3          	sub	s5,s0,s5
    4264:	78aabc23          	sd	a0,1944(s5) # 1798 <.LBB64_5+0x90>
    4268:	00055463          	bgez	a0,4270 <.LBB64_114>
    426c:	c00009b7          	lui	s3,0xc0000

0000000000004270 <.LBB64_114>:
    4270:	00001537          	lui	a0,0x1
    4274:	40a40533          	sub	a0,s0,a0
    4278:	0d353023          	sd	s3,192(a0) # 10c0 <.LBB64_3+0xea8>
    427c:	f3843503          	ld	a0,-200(s0)
    4280:	83043983          	ld	s3,-2000(s0)
    4284:	00a98533          	add	a0,s3,a0
    4288:	000019b7          	lui	s3,0x1
    428c:	413409b3          	sub	s3,s0,s3
    4290:	7409b983          	ld	s3,1856(s3) # 1740 <.LBB64_5+0x38>
    4294:	01350533          	add	a0,a0,s3
    4298:	00d50533          	add	a0,a0,a3
    429c:	1005051b          	addiw	a0,a0,256
    42a0:	400009b7          	lui	s3,0x40000
    42a4:	00001ab7          	lui	s5,0x1
    42a8:	41540ab3          	sub	s5,s0,s5
    42ac:	0caab823          	sd	a0,208(s5) # 10d0 <.LBB64_3+0xeb8>
    42b0:	00055463          	bgez	a0,42b8 <.LBB64_116>
    42b4:	c00009b7          	lui	s3,0xc0000

00000000000042b8 <.LBB64_116>:
    42b8:	00001537          	lui	a0,0x1
    42bc:	40a40533          	sub	a0,s0,a0
    42c0:	0d353423          	sd	s3,200(a0) # 10c8 <.LBB64_3+0xeb0>
    42c4:	f4043503          	ld	a0,-192(s0)
    42c8:	83843983          	ld	s3,-1992(s0)
    42cc:	00a98533          	add	a0,s3,a0
    42d0:	000019b7          	lui	s3,0x1
    42d4:	413409b3          	sub	s3,s0,s3
    42d8:	6f89b983          	ld	s3,1784(s3) # 16f8 <.LBB64_4+0x58c>
    42dc:	01350533          	add	a0,a0,s3
    42e0:	00d50533          	add	a0,a0,a3
    42e4:	1005051b          	addiw	a0,a0,256
    42e8:	400009b7          	lui	s3,0x40000
    42ec:	00001ab7          	lui	s5,0x1
    42f0:	41540ab3          	sub	s5,s0,s5
    42f4:	0eaab023          	sd	a0,224(s5) # 10e0 <.LBB64_3+0xec8>
    42f8:	00055463          	bgez	a0,4300 <.LBB64_118>
    42fc:	c00009b7          	lui	s3,0xc0000

0000000000004300 <.LBB64_118>:
    4300:	00001537          	lui	a0,0x1
    4304:	40a40533          	sub	a0,s0,a0
    4308:	0d353c23          	sd	s3,216(a0) # 10d8 <.LBB64_3+0xec0>
    430c:	f4843503          	ld	a0,-184(s0)
    4310:	84043983          	ld	s3,-1984(s0)
    4314:	00a98533          	add	a0,s3,a0
    4318:	000019b7          	lui	s3,0x1
    431c:	413409b3          	sub	s3,s0,s3
    4320:	7489b983          	ld	s3,1864(s3) # 1748 <.LBB64_5+0x40>
    4324:	01350533          	add	a0,a0,s3
    4328:	00d50533          	add	a0,a0,a3
    432c:	1005051b          	addiw	a0,a0,256
    4330:	400009b7          	lui	s3,0x40000
    4334:	00001ab7          	lui	s5,0x1
    4338:	41540ab3          	sub	s5,s0,s5
    433c:	0eaab823          	sd	a0,240(s5) # 10f0 <.LBB64_3+0xed8>
    4340:	00055463          	bgez	a0,4348 <.LBB64_120>
    4344:	c00009b7          	lui	s3,0xc0000

0000000000004348 <.LBB64_120>:
    4348:	00001537          	lui	a0,0x1
    434c:	40a40533          	sub	a0,s0,a0
    4350:	0f353423          	sd	s3,232(a0) # 10e8 <.LBB64_3+0xed0>
    4354:	f5043503          	ld	a0,-176(s0)
    4358:	84843983          	ld	s3,-1976(s0)
    435c:	00a98533          	add	a0,s3,a0
    4360:	000019b7          	lui	s3,0x1
    4364:	413409b3          	sub	s3,s0,s3
    4368:	7509b983          	ld	s3,1872(s3) # 1750 <.LBB64_5+0x48>
    436c:	01350533          	add	a0,a0,s3
    4370:	00d50533          	add	a0,a0,a3
    4374:	1005051b          	addiw	a0,a0,256
    4378:	400009b7          	lui	s3,0x40000
    437c:	00001ab7          	lui	s5,0x1
    4380:	41540ab3          	sub	s5,s0,s5
    4384:	10aab023          	sd	a0,256(s5) # 1100 <.LBB64_3+0xee8>
    4388:	00055463          	bgez	a0,4390 <.LBB64_122>
    438c:	c00009b7          	lui	s3,0xc0000

0000000000004390 <.LBB64_122>:
    4390:	00001537          	lui	a0,0x1
    4394:	40a40533          	sub	a0,s0,a0
    4398:	0f353c23          	sd	s3,248(a0) # 10f8 <.LBB64_3+0xee0>
    439c:	f5843503          	ld	a0,-168(s0)
    43a0:	85043983          	ld	s3,-1968(s0)
    43a4:	00a98533          	add	a0,s3,a0
    43a8:	000019b7          	lui	s3,0x1
    43ac:	413409b3          	sub	s3,s0,s3
    43b0:	7589b983          	ld	s3,1880(s3) # 1758 <.LBB64_5+0x50>
    43b4:	01350533          	add	a0,a0,s3
    43b8:	00d50533          	add	a0,a0,a3
    43bc:	1005051b          	addiw	a0,a0,256
    43c0:	400009b7          	lui	s3,0x40000
    43c4:	00001ab7          	lui	s5,0x1
    43c8:	41540ab3          	sub	s5,s0,s5
    43cc:	10aab823          	sd	a0,272(s5) # 1110 <.LBB64_3+0xef8>
    43d0:	00055463          	bgez	a0,43d8 <.LBB64_124>
    43d4:	c00009b7          	lui	s3,0xc0000

00000000000043d8 <.LBB64_124>:
    43d8:	00001537          	lui	a0,0x1
    43dc:	40a40533          	sub	a0,s0,a0
    43e0:	11353423          	sd	s3,264(a0) # 1108 <.LBB64_3+0xef0>
    43e4:	f6043503          	ld	a0,-160(s0)
    43e8:	85843983          	ld	s3,-1960(s0)
    43ec:	00a98533          	add	a0,s3,a0
    43f0:	000019b7          	lui	s3,0x1
    43f4:	413409b3          	sub	s3,s0,s3
    43f8:	7609b983          	ld	s3,1888(s3) # 1760 <.LBB64_5+0x58>
    43fc:	01350533          	add	a0,a0,s3
    4400:	00d50533          	add	a0,a0,a3
    4404:	1005051b          	addiw	a0,a0,256
    4408:	400009b7          	lui	s3,0x40000
    440c:	00001ab7          	lui	s5,0x1
    4410:	41540ab3          	sub	s5,s0,s5
    4414:	12aab023          	sd	a0,288(s5) # 1120 <.LBB64_3+0xf08>
    4418:	00055463          	bgez	a0,4420 <.LBB64_126>
    441c:	c00009b7          	lui	s3,0xc0000

0000000000004420 <.LBB64_126>:
    4420:	00001537          	lui	a0,0x1
    4424:	40a40533          	sub	a0,s0,a0
    4428:	11353c23          	sd	s3,280(a0) # 1118 <.LBB64_3+0xf00>
    442c:	f6843503          	ld	a0,-152(s0)
    4430:	86043983          	ld	s3,-1952(s0)
    4434:	00a98533          	add	a0,s3,a0
    4438:	000019b7          	lui	s3,0x1
    443c:	413409b3          	sub	s3,s0,s3
    4440:	6909b983          	ld	s3,1680(s3) # 1690 <.LBB64_4+0x524>
    4444:	01350533          	add	a0,a0,s3
    4448:	00d50533          	add	a0,a0,a3
    444c:	1005051b          	addiw	a0,a0,256
    4450:	400009b7          	lui	s3,0x40000
    4454:	00001ab7          	lui	s5,0x1
    4458:	41540ab3          	sub	s5,s0,s5
    445c:	12aab823          	sd	a0,304(s5) # 1130 <.LBB64_3+0xf18>
    4460:	00055463          	bgez	a0,4468 <.LBB64_128>
    4464:	c00009b7          	lui	s3,0xc0000

0000000000004468 <.LBB64_128>:
    4468:	00001537          	lui	a0,0x1
    446c:	40a40533          	sub	a0,s0,a0
    4470:	13353423          	sd	s3,296(a0) # 1128 <.LBB64_3+0xf10>
    4474:	f7043503          	ld	a0,-144(s0)
    4478:	86843983          	ld	s3,-1944(s0)
    447c:	00a98533          	add	a0,s3,a0
    4480:	000019b7          	lui	s3,0x1
    4484:	413409b3          	sub	s3,s0,s3
    4488:	7689b983          	ld	s3,1896(s3) # 1768 <.LBB64_5+0x60>
    448c:	01350533          	add	a0,a0,s3
    4490:	00d50533          	add	a0,a0,a3
    4494:	1005051b          	addiw	a0,a0,256
    4498:	400009b7          	lui	s3,0x40000
    449c:	00001ab7          	lui	s5,0x1
    44a0:	41540ab3          	sub	s5,s0,s5
    44a4:	14aab023          	sd	a0,320(s5) # 1140 <.LBB64_3+0xf28>
    44a8:	00055463          	bgez	a0,44b0 <.LBB64_130>
    44ac:	c00009b7          	lui	s3,0xc0000

00000000000044b0 <.LBB64_130>:
    44b0:	00001537          	lui	a0,0x1
    44b4:	40a40533          	sub	a0,s0,a0
    44b8:	13353c23          	sd	s3,312(a0) # 1138 <.LBB64_3+0xf20>
    44bc:	f7843503          	ld	a0,-136(s0)
    44c0:	87043983          	ld	s3,-1936(s0)
    44c4:	00a98533          	add	a0,s3,a0
    44c8:	000019b7          	lui	s3,0x1
    44cc:	413409b3          	sub	s3,s0,s3
    44d0:	7709b983          	ld	s3,1904(s3) # 1770 <.LBB64_5+0x68>
    44d4:	01350533          	add	a0,a0,s3
    44d8:	00d50533          	add	a0,a0,a3
    44dc:	1005051b          	addiw	a0,a0,256
    44e0:	400009b7          	lui	s3,0x40000
    44e4:	00001ab7          	lui	s5,0x1
    44e8:	41540ab3          	sub	s5,s0,s5
    44ec:	14aab823          	sd	a0,336(s5) # 1150 <.LBB64_3+0xf38>
    44f0:	00055463          	bgez	a0,44f8 <.LBB64_132>
    44f4:	c00009b7          	lui	s3,0xc0000

00000000000044f8 <.LBB64_132>:
    44f8:	00001537          	lui	a0,0x1
    44fc:	40a40533          	sub	a0,s0,a0
    4500:	15353423          	sd	s3,328(a0) # 1148 <.LBB64_3+0xf30>
    4504:	f8043503          	ld	a0,-128(s0)
    4508:	87843983          	ld	s3,-1928(s0)
    450c:	00a98533          	add	a0,s3,a0
    4510:	000019b7          	lui	s3,0x1
    4514:	413409b3          	sub	s3,s0,s3
    4518:	7789b983          	ld	s3,1912(s3) # 1778 <.LBB64_5+0x70>
    451c:	01350533          	add	a0,a0,s3
    4520:	00d50533          	add	a0,a0,a3
    4524:	1005051b          	addiw	a0,a0,256
    4528:	400006b7          	lui	a3,0x40000
    452c:	000019b7          	lui	s3,0x1
    4530:	413409b3          	sub	s3,s0,s3
    4534:	16a9b023          	sd	a0,352(s3) # 1160 <.LBB64_3+0xf48>
    4538:	00055463          	bgez	a0,4540 <.LBB64_134>
    453c:	c00006b7          	lui	a3,0xc0000

0000000000004540 <.LBB64_134>:
    4540:	00001537          	lui	a0,0x1
    4544:	40a40533          	sub	a0,s0,a0
    4548:	14d53c23          	sd	a3,344(a0) # 1158 <.LBB64_3+0xf40>
    454c:	e8043503          	ld	a0,-384(s0)
    4550:	88043683          	ld	a3,-1920(s0)
    4554:	00a68533          	add	a0,a3,a0
    4558:	e7843683          	ld	a3,-392(s0)
    455c:	00d50533          	add	a0,a0,a3
    4560:	00c50533          	add	a0,a0,a2
    4564:	1005051b          	addiw	a0,a0,256
    4568:	400009b7          	lui	s3,0x40000
    456c:	e1843683          	ld	a3,-488(s0)
    4570:	00001ab7          	lui	s5,0x1
    4574:	41540ab3          	sub	s5,s0,s5
    4578:	16aab823          	sd	a0,368(s5) # 1170 <.LBB64_4+0x4>
    457c:	00055463          	bgez	a0,4584 <.LBB64_136>
    4580:	c00009b7          	lui	s3,0xc0000

0000000000004584 <.LBB64_136>:
    4584:	00001537          	lui	a0,0x1
    4588:	40a40533          	sub	a0,s0,a0
    458c:	17353423          	sd	s3,360(a0) # 1168 <.LBB64_3+0xf50>
    4590:	e7043503          	ld	a0,-400(s0)
    4594:	88843983          	ld	s3,-1912(s0)
    4598:	00a98533          	add	a0,s3,a0
    459c:	e6843983          	ld	s3,-408(s0)
    45a0:	01350533          	add	a0,a0,s3
    45a4:	00c50533          	add	a0,a0,a2
    45a8:	1005051b          	addiw	a0,a0,256
    45ac:	400009b7          	lui	s3,0x40000
    45b0:	00001ab7          	lui	s5,0x1
    45b4:	41540ab3          	sub	s5,s0,s5
    45b8:	18aab023          	sd	a0,384(s5) # 1180 <.LBB64_4+0x14>
    45bc:	00055463          	bgez	a0,45c4 <.LBB64_138>
    45c0:	c00009b7          	lui	s3,0xc0000

00000000000045c4 <.LBB64_138>:
    45c4:	00001537          	lui	a0,0x1
    45c8:	40a40533          	sub	a0,s0,a0
    45cc:	17353c23          	sd	s3,376(a0) # 1178 <.LBB64_4+0xc>
    45d0:	e6043503          	ld	a0,-416(s0)
    45d4:	89043983          	ld	s3,-1904(s0)
    45d8:	00a98533          	add	a0,s3,a0
    45dc:	e5843983          	ld	s3,-424(s0)
    45e0:	01350533          	add	a0,a0,s3
    45e4:	00c50533          	add	a0,a0,a2
    45e8:	1005051b          	addiw	a0,a0,256
    45ec:	400009b7          	lui	s3,0x40000
    45f0:	00001ab7          	lui	s5,0x1
    45f4:	41540ab3          	sub	s5,s0,s5
    45f8:	18aab823          	sd	a0,400(s5) # 1190 <.LBB64_4+0x24>
    45fc:	00055463          	bgez	a0,4604 <.LBB64_140>
    4600:	c00009b7          	lui	s3,0xc0000

0000000000004604 <.LBB64_140>:
    4604:	00001537          	lui	a0,0x1
    4608:	40a40533          	sub	a0,s0,a0
    460c:	19353423          	sd	s3,392(a0) # 1188 <.LBB64_4+0x1c>
    4610:	e5043503          	ld	a0,-432(s0)
    4614:	89843983          	ld	s3,-1896(s0)
    4618:	00a98533          	add	a0,s3,a0
    461c:	e4843983          	ld	s3,-440(s0)
    4620:	01350533          	add	a0,a0,s3
    4624:	00c50533          	add	a0,a0,a2
    4628:	1005051b          	addiw	a0,a0,256
    462c:	400009b7          	lui	s3,0x40000
    4630:	00001ab7          	lui	s5,0x1
    4634:	41540ab3          	sub	s5,s0,s5
    4638:	1aaab023          	sd	a0,416(s5) # 11a0 <.LBB64_4+0x34>
    463c:	00055463          	bgez	a0,4644 <.LBB64_142>
    4640:	c00009b7          	lui	s3,0xc0000

0000000000004644 <.LBB64_142>:
    4644:	00001537          	lui	a0,0x1
    4648:	40a40533          	sub	a0,s0,a0
    464c:	19353c23          	sd	s3,408(a0) # 1198 <.LBB64_4+0x2c>
    4650:	e4043503          	ld	a0,-448(s0)
    4654:	8a043983          	ld	s3,-1888(s0)
    4658:	00a98533          	add	a0,s3,a0
    465c:	e3843983          	ld	s3,-456(s0)
    4660:	01350533          	add	a0,a0,s3
    4664:	00c50533          	add	a0,a0,a2
    4668:	1005051b          	addiw	a0,a0,256
    466c:	400009b7          	lui	s3,0x40000
    4670:	00001ab7          	lui	s5,0x1
    4674:	41540ab3          	sub	s5,s0,s5
    4678:	1aaab823          	sd	a0,432(s5) # 11b0 <.LBB64_4+0x44>
    467c:	00055463          	bgez	a0,4684 <.LBB64_144>
    4680:	c00009b7          	lui	s3,0xc0000

0000000000004684 <.LBB64_144>:
    4684:	00001537          	lui	a0,0x1
    4688:	40a40533          	sub	a0,s0,a0
    468c:	1b353423          	sd	s3,424(a0) # 11a8 <.LBB64_4+0x3c>
    4690:	e3043503          	ld	a0,-464(s0)
    4694:	8a843983          	ld	s3,-1880(s0)
    4698:	00a98533          	add	a0,s3,a0
    469c:	000019b7          	lui	s3,0x1
    46a0:	413409b3          	sub	s3,s0,s3
    46a4:	6d09b983          	ld	s3,1744(s3) # 16d0 <.LBB64_4+0x564>
    46a8:	01350533          	add	a0,a0,s3
    46ac:	00c50533          	add	a0,a0,a2
    46b0:	1005051b          	addiw	a0,a0,256
    46b4:	400009b7          	lui	s3,0x40000
    46b8:	00001ab7          	lui	s5,0x1
    46bc:	41540ab3          	sub	s5,s0,s5
    46c0:	1caab023          	sd	a0,448(s5) # 11c0 <.LBB64_4+0x54>
    46c4:	00055463          	bgez	a0,46cc <.LBB64_146>
    46c8:	c00009b7          	lui	s3,0xc0000

00000000000046cc <.LBB64_146>:
    46cc:	00001537          	lui	a0,0x1
    46d0:	40a40533          	sub	a0,s0,a0
    46d4:	1b353c23          	sd	s3,440(a0) # 11b8 <.LBB64_4+0x4c>
    46d8:	00001537          	lui	a0,0x1
    46dc:	40a40533          	sub	a0,s0,a0
    46e0:	6c853503          	ld	a0,1736(a0) # 16c8 <.LBB64_4+0x55c>
    46e4:	8b043983          	ld	s3,-1872(s0)
    46e8:	00a98533          	add	a0,s3,a0
    46ec:	000019b7          	lui	s3,0x1
    46f0:	413409b3          	sub	s3,s0,s3
    46f4:	6c09b983          	ld	s3,1728(s3) # 16c0 <.LBB64_4+0x554>
    46f8:	01350533          	add	a0,a0,s3
    46fc:	00c50533          	add	a0,a0,a2
    4700:	1005051b          	addiw	a0,a0,256
    4704:	400009b7          	lui	s3,0x40000
    4708:	00001ab7          	lui	s5,0x1
    470c:	41540ab3          	sub	s5,s0,s5
    4710:	1caab823          	sd	a0,464(s5) # 11d0 <.LBB64_4+0x64>
    4714:	00055463          	bgez	a0,471c <.LBB64_148>
    4718:	c00009b7          	lui	s3,0xc0000

000000000000471c <.LBB64_148>:
    471c:	00001537          	lui	a0,0x1
    4720:	40a40533          	sub	a0,s0,a0
    4724:	1d353423          	sd	s3,456(a0) # 11c8 <.LBB64_4+0x5c>
    4728:	8b843503          	ld	a0,-1864(s0)
    472c:	000019b7          	lui	s3,0x1
    4730:	413409b3          	sub	s3,s0,s3
    4734:	6b89b983          	ld	s3,1720(s3) # 16b8 <.LBB64_4+0x54c>
    4738:	01350533          	add	a0,a0,s3
    473c:	000019b7          	lui	s3,0x1
    4740:	413409b3          	sub	s3,s0,s3
    4744:	6b09b983          	ld	s3,1712(s3) # 16b0 <.LBB64_4+0x544>
    4748:	01350533          	add	a0,a0,s3
    474c:	00c50533          	add	a0,a0,a2
    4750:	1005051b          	addiw	a0,a0,256
    4754:	400009b7          	lui	s3,0x40000
    4758:	00001ab7          	lui	s5,0x1
    475c:	41540ab3          	sub	s5,s0,s5
    4760:	1eaab023          	sd	a0,480(s5) # 11e0 <.LBB64_4+0x74>
    4764:	00055463          	bgez	a0,476c <.LBB64_150>
    4768:	c00009b7          	lui	s3,0xc0000

000000000000476c <.LBB64_150>:
    476c:	00001537          	lui	a0,0x1
    4770:	40a40533          	sub	a0,s0,a0
    4774:	1d353c23          	sd	s3,472(a0) # 11d8 <.LBB64_4+0x6c>
    4778:	8c043503          	ld	a0,-1856(s0)
    477c:	000019b7          	lui	s3,0x1
    4780:	413409b3          	sub	s3,s0,s3
    4784:	6a89b983          	ld	s3,1704(s3) # 16a8 <.LBB64_4+0x53c>
    4788:	01350533          	add	a0,a0,s3
    478c:	000019b7          	lui	s3,0x1
    4790:	413409b3          	sub	s3,s0,s3
    4794:	6a09b983          	ld	s3,1696(s3) # 16a0 <.LBB64_4+0x534>
    4798:	01350533          	add	a0,a0,s3
    479c:	00c50533          	add	a0,a0,a2
    47a0:	1005051b          	addiw	a0,a0,256
    47a4:	400009b7          	lui	s3,0x40000
    47a8:	00001ab7          	lui	s5,0x1
    47ac:	41540ab3          	sub	s5,s0,s5
    47b0:	1eaab823          	sd	a0,496(s5) # 11f0 <.LBB64_4+0x84>
    47b4:	00055463          	bgez	a0,47bc <.LBB64_152>
    47b8:	c00009b7          	lui	s3,0xc0000

00000000000047bc <.LBB64_152>:
    47bc:	00001537          	lui	a0,0x1
    47c0:	40a40533          	sub	a0,s0,a0
    47c4:	1f353423          	sd	s3,488(a0) # 11e8 <.LBB64_4+0x7c>
    47c8:	8c843503          	ld	a0,-1848(s0)
    47cc:	000019b7          	lui	s3,0x1
    47d0:	413409b3          	sub	s3,s0,s3
    47d4:	6989b983          	ld	s3,1688(s3) # 1698 <.LBB64_4+0x52c>
    47d8:	01350533          	add	a0,a0,s3
    47dc:	000019b7          	lui	s3,0x1
    47e0:	413409b3          	sub	s3,s0,s3
    47e4:	6d89b983          	ld	s3,1752(s3) # 16d8 <.LBB64_4+0x56c>
    47e8:	01350533          	add	a0,a0,s3
    47ec:	00c50533          	add	a0,a0,a2
    47f0:	1005051b          	addiw	a0,a0,256
    47f4:	400009b7          	lui	s3,0x40000
    47f8:	00001ab7          	lui	s5,0x1
    47fc:	41540ab3          	sub	s5,s0,s5
    4800:	20aab023          	sd	a0,512(s5) # 1200 <.LBB64_4+0x94>
    4804:	00055463          	bgez	a0,480c <.LBB64_154>
    4808:	c00009b7          	lui	s3,0xc0000

000000000000480c <.LBB64_154>:
    480c:	00001537          	lui	a0,0x1
    4810:	40a40533          	sub	a0,s0,a0
    4814:	1f353c23          	sd	s3,504(a0) # 11f8 <.LBB64_4+0x8c>
    4818:	8d043503          	ld	a0,-1840(s0)
    481c:	e8843983          	ld	s3,-376(s0)
    4820:	01350533          	add	a0,a0,s3
    4824:	000019b7          	lui	s3,0x1
    4828:	413409b3          	sub	s3,s0,s3
    482c:	6e09b983          	ld	s3,1760(s3) # 16e0 <.LBB64_4+0x574>
    4830:	01350533          	add	a0,a0,s3
    4834:	00c50533          	add	a0,a0,a2
    4838:	1005051b          	addiw	a0,a0,256
    483c:	400009b7          	lui	s3,0x40000
    4840:	00001ab7          	lui	s5,0x1
    4844:	41540ab3          	sub	s5,s0,s5
    4848:	20aab823          	sd	a0,528(s5) # 1210 <.LBB64_4+0xa4>
    484c:	00055463          	bgez	a0,4854 <.LBB64_156>
    4850:	c00009b7          	lui	s3,0xc0000

0000000000004854 <.LBB64_156>:
    4854:	00001537          	lui	a0,0x1
    4858:	40a40533          	sub	a0,s0,a0
    485c:	21353423          	sd	s3,520(a0) # 1208 <.LBB64_4+0x9c>
    4860:	8d843503          	ld	a0,-1832(s0)
    4864:	e9043983          	ld	s3,-368(s0)
    4868:	01350533          	add	a0,a0,s3
    486c:	000019b7          	lui	s3,0x1
    4870:	413409b3          	sub	s3,s0,s3
    4874:	6e89b983          	ld	s3,1768(s3) # 16e8 <.LBB64_4+0x57c>
    4878:	01350533          	add	a0,a0,s3
    487c:	00c50533          	add	a0,a0,a2
    4880:	1005051b          	addiw	a0,a0,256
    4884:	400009b7          	lui	s3,0x40000
    4888:	00001ab7          	lui	s5,0x1
    488c:	41540ab3          	sub	s5,s0,s5
    4890:	22aab023          	sd	a0,544(s5) # 1220 <.LBB64_4+0xb4>
    4894:	00055463          	bgez	a0,489c <.LBB64_158>
    4898:	c00009b7          	lui	s3,0xc0000

000000000000489c <.LBB64_158>:
    489c:	00001537          	lui	a0,0x1
    48a0:	40a40533          	sub	a0,s0,a0
    48a4:	21353c23          	sd	s3,536(a0) # 1218 <.LBB64_4+0xac>
    48a8:	8e043503          	ld	a0,-1824(s0)
    48ac:	e9843983          	ld	s3,-360(s0)
    48b0:	01350533          	add	a0,a0,s3
    48b4:	000019b7          	lui	s3,0x1
    48b8:	413409b3          	sub	s3,s0,s3
    48bc:	6f09b983          	ld	s3,1776(s3) # 16f0 <.LBB64_4+0x584>
    48c0:	01350533          	add	a0,a0,s3
    48c4:	00c50533          	add	a0,a0,a2
    48c8:	1005051b          	addiw	a0,a0,256
    48cc:	400009b7          	lui	s3,0x40000
    48d0:	00001ab7          	lui	s5,0x1
    48d4:	41540ab3          	sub	s5,s0,s5
    48d8:	22aab823          	sd	a0,560(s5) # 1230 <.LBB64_4+0xc4>
    48dc:	00055463          	bgez	a0,48e4 <.LBB64_160>
    48e0:	c00009b7          	lui	s3,0xc0000

00000000000048e4 <.LBB64_160>:
    48e4:	00001537          	lui	a0,0x1
    48e8:	40a40533          	sub	a0,s0,a0
    48ec:	23353423          	sd	s3,552(a0) # 1228 <.LBB64_4+0xbc>
    48f0:	8e843503          	ld	a0,-1816(s0)
    48f4:	ea043983          	ld	s3,-352(s0)
    48f8:	01350533          	add	a0,a0,s3
    48fc:	01a50533          	add	a0,a0,s10
    4900:	00c50533          	add	a0,a0,a2
    4904:	1005051b          	addiw	a0,a0,256
    4908:	400009b7          	lui	s3,0x40000
    490c:	00001ab7          	lui	s5,0x1
    4910:	41540ab3          	sub	s5,s0,s5
    4914:	24aab023          	sd	a0,576(s5) # 1240 <.LBB64_4+0xd4>
    4918:	00055463          	bgez	a0,4920 <.LBB64_162>
    491c:	c00009b7          	lui	s3,0xc0000

0000000000004920 <.LBB64_162>:
    4920:	00001537          	lui	a0,0x1
    4924:	40a40533          	sub	a0,s0,a0
    4928:	23353c23          	sd	s3,568(a0) # 1238 <.LBB64_4+0xcc>
    492c:	8f043503          	ld	a0,-1808(s0)
    4930:	ea843983          	ld	s3,-344(s0)
    4934:	01350533          	add	a0,a0,s3
    4938:	000019b7          	lui	s3,0x1
    493c:	413409b3          	sub	s3,s0,s3
    4940:	7009b983          	ld	s3,1792(s3) # 1700 <.LBB64_4+0x594>
    4944:	01350533          	add	a0,a0,s3
    4948:	00c50533          	add	a0,a0,a2
    494c:	1005051b          	addiw	a0,a0,256
    4950:	400009b7          	lui	s3,0x40000
    4954:	00001ab7          	lui	s5,0x1
    4958:	41540ab3          	sub	s5,s0,s5
    495c:	24aab823          	sd	a0,592(s5) # 1250 <.LBB64_4+0xe4>
    4960:	00055463          	bgez	a0,4968 <.LBB64_164>
    4964:	c00009b7          	lui	s3,0xc0000

0000000000004968 <.LBB64_164>:
    4968:	00001537          	lui	a0,0x1
    496c:	40a40533          	sub	a0,s0,a0
    4970:	25353423          	sd	s3,584(a0) # 1248 <.LBB64_4+0xdc>
    4974:	8f843503          	ld	a0,-1800(s0)
    4978:	eb043983          	ld	s3,-336(s0)
    497c:	01350533          	add	a0,a0,s3
    4980:	000019b7          	lui	s3,0x1
    4984:	413409b3          	sub	s3,s0,s3
    4988:	7089b983          	ld	s3,1800(s3) # 1708 <.LBB64_5>
    498c:	01350533          	add	a0,a0,s3
    4990:	00c50533          	add	a0,a0,a2
    4994:	1005051b          	addiw	a0,a0,256
    4998:	400009b7          	lui	s3,0x40000
    499c:	00001ab7          	lui	s5,0x1
    49a0:	41540ab3          	sub	s5,s0,s5
    49a4:	26aab023          	sd	a0,608(s5) # 1260 <.LBB64_4+0xf4>
    49a8:	00055463          	bgez	a0,49b0 <.LBB64_166>
    49ac:	c00009b7          	lui	s3,0xc0000

00000000000049b0 <.LBB64_166>:
    49b0:	00001537          	lui	a0,0x1
    49b4:	40a40533          	sub	a0,s0,a0
    49b8:	25353c23          	sd	s3,600(a0) # 1258 <.LBB64_4+0xec>
    49bc:	90043503          	ld	a0,-1792(s0)
    49c0:	eb843983          	ld	s3,-328(s0)
    49c4:	01350533          	add	a0,a0,s3
    49c8:	000019b7          	lui	s3,0x1
    49cc:	413409b3          	sub	s3,s0,s3
    49d0:	7109b983          	ld	s3,1808(s3) # 1710 <.LBB64_5+0x8>
    49d4:	01350533          	add	a0,a0,s3
    49d8:	00c50533          	add	a0,a0,a2
    49dc:	1005051b          	addiw	a0,a0,256
    49e0:	400009b7          	lui	s3,0x40000
    49e4:	00001ab7          	lui	s5,0x1
    49e8:	41540ab3          	sub	s5,s0,s5
    49ec:	26aab823          	sd	a0,624(s5) # 1270 <.LBB64_4+0x104>
    49f0:	00055463          	bgez	a0,49f8 <.LBB64_168>
    49f4:	c00009b7          	lui	s3,0xc0000

00000000000049f8 <.LBB64_168>:
    49f8:	00001537          	lui	a0,0x1
    49fc:	40a40533          	sub	a0,s0,a0
    4a00:	27353423          	sd	s3,616(a0) # 1268 <.LBB64_4+0xfc>
    4a04:	90843503          	ld	a0,-1784(s0)
    4a08:	ec043983          	ld	s3,-320(s0)
    4a0c:	01350533          	add	a0,a0,s3
    4a10:	000019b7          	lui	s3,0x1
    4a14:	413409b3          	sub	s3,s0,s3
    4a18:	7189b983          	ld	s3,1816(s3) # 1718 <.LBB64_5+0x10>
    4a1c:	01350533          	add	a0,a0,s3
    4a20:	00c50533          	add	a0,a0,a2
    4a24:	1005051b          	addiw	a0,a0,256
    4a28:	400009b7          	lui	s3,0x40000
    4a2c:	00001ab7          	lui	s5,0x1
    4a30:	41540ab3          	sub	s5,s0,s5
    4a34:	28aab023          	sd	a0,640(s5) # 1280 <.LBB64_4+0x114>
    4a38:	00055463          	bgez	a0,4a40 <.LBB64_170>
    4a3c:	c00009b7          	lui	s3,0xc0000

0000000000004a40 <.LBB64_170>:
    4a40:	00001537          	lui	a0,0x1
    4a44:	40a40533          	sub	a0,s0,a0
    4a48:	27353c23          	sd	s3,632(a0) # 1278 <.LBB64_4+0x10c>
    4a4c:	91043503          	ld	a0,-1776(s0)
    4a50:	f1843983          	ld	s3,-232(s0)
    4a54:	01350533          	add	a0,a0,s3
    4a58:	000019b7          	lui	s3,0x1
    4a5c:	413409b3          	sub	s3,s0,s3
    4a60:	7209b983          	ld	s3,1824(s3) # 1720 <.LBB64_5+0x18>
    4a64:	01350533          	add	a0,a0,s3
    4a68:	00c50533          	add	a0,a0,a2
    4a6c:	1005051b          	addiw	a0,a0,256
    4a70:	400009b7          	lui	s3,0x40000
    4a74:	00001ab7          	lui	s5,0x1
    4a78:	41540ab3          	sub	s5,s0,s5
    4a7c:	28aab823          	sd	a0,656(s5) # 1290 <.LBB64_4+0x124>
    4a80:	00055463          	bgez	a0,4a88 <.LBB64_172>
    4a84:	c00009b7          	lui	s3,0xc0000

0000000000004a88 <.LBB64_172>:
    4a88:	00001537          	lui	a0,0x1
    4a8c:	40a40533          	sub	a0,s0,a0
    4a90:	29353423          	sd	s3,648(a0) # 1288 <.LBB64_4+0x11c>
    4a94:	91843503          	ld	a0,-1768(s0)
    4a98:	f2043983          	ld	s3,-224(s0)
    4a9c:	01350533          	add	a0,a0,s3
    4aa0:	000019b7          	lui	s3,0x1
    4aa4:	413409b3          	sub	s3,s0,s3
    4aa8:	7289b983          	ld	s3,1832(s3) # 1728 <.LBB64_5+0x20>
    4aac:	01350533          	add	a0,a0,s3
    4ab0:	00c50533          	add	a0,a0,a2
    4ab4:	1005051b          	addiw	a0,a0,256
    4ab8:	400009b7          	lui	s3,0x40000
    4abc:	00001ab7          	lui	s5,0x1
    4ac0:	41540ab3          	sub	s5,s0,s5
    4ac4:	2aaab023          	sd	a0,672(s5) # 12a0 <.LBB64_4+0x134>
    4ac8:	00055463          	bgez	a0,4ad0 <.LBB64_174>
    4acc:	c00009b7          	lui	s3,0xc0000

0000000000004ad0 <.LBB64_174>:
    4ad0:	00001537          	lui	a0,0x1
    4ad4:	40a40533          	sub	a0,s0,a0
    4ad8:	29353c23          	sd	s3,664(a0) # 1298 <.LBB64_4+0x12c>
    4adc:	92043503          	ld	a0,-1760(s0)
    4ae0:	f2843983          	ld	s3,-216(s0)
    4ae4:	01350533          	add	a0,a0,s3
    4ae8:	000019b7          	lui	s3,0x1
    4aec:	413409b3          	sub	s3,s0,s3
    4af0:	7309b983          	ld	s3,1840(s3) # 1730 <.LBB64_5+0x28>
    4af4:	01350533          	add	a0,a0,s3
    4af8:	00c50533          	add	a0,a0,a2
    4afc:	1005051b          	addiw	a0,a0,256
    4b00:	400009b7          	lui	s3,0x40000
    4b04:	00001ab7          	lui	s5,0x1
    4b08:	41540ab3          	sub	s5,s0,s5
    4b0c:	2aaab823          	sd	a0,688(s5) # 12b0 <.LBB64_4+0x144>
    4b10:	00055463          	bgez	a0,4b18 <.LBB64_176>
    4b14:	c00009b7          	lui	s3,0xc0000

0000000000004b18 <.LBB64_176>:
    4b18:	00001537          	lui	a0,0x1
    4b1c:	40a40533          	sub	a0,s0,a0
    4b20:	2b353423          	sd	s3,680(a0) # 12a8 <.LBB64_4+0x13c>
    4b24:	92843503          	ld	a0,-1752(s0)
    4b28:	f3043983          	ld	s3,-208(s0)
    4b2c:	01350533          	add	a0,a0,s3
    4b30:	000019b7          	lui	s3,0x1
    4b34:	413409b3          	sub	s3,s0,s3
    4b38:	7389b983          	ld	s3,1848(s3) # 1738 <.LBB64_5+0x30>
    4b3c:	01350533          	add	a0,a0,s3
    4b40:	00c50533          	add	a0,a0,a2
    4b44:	1005051b          	addiw	a0,a0,256
    4b48:	400009b7          	lui	s3,0x40000
    4b4c:	00001ab7          	lui	s5,0x1
    4b50:	41540ab3          	sub	s5,s0,s5
    4b54:	2caab023          	sd	a0,704(s5) # 12c0 <.LBB64_4+0x154>
    4b58:	00055463          	bgez	a0,4b60 <.LBB64_178>
    4b5c:	c00009b7          	lui	s3,0xc0000

0000000000004b60 <.LBB64_178>:
    4b60:	00001537          	lui	a0,0x1
    4b64:	40a40533          	sub	a0,s0,a0
    4b68:	2b353c23          	sd	s3,696(a0) # 12b8 <.LBB64_4+0x14c>
    4b6c:	93043503          	ld	a0,-1744(s0)
    4b70:	f3843983          	ld	s3,-200(s0)
    4b74:	01350533          	add	a0,a0,s3
    4b78:	000019b7          	lui	s3,0x1
    4b7c:	413409b3          	sub	s3,s0,s3
    4b80:	7409b983          	ld	s3,1856(s3) # 1740 <.LBB64_5+0x38>
    4b84:	01350533          	add	a0,a0,s3
    4b88:	00c50533          	add	a0,a0,a2
    4b8c:	1005051b          	addiw	a0,a0,256
    4b90:	400009b7          	lui	s3,0x40000
    4b94:	00001ab7          	lui	s5,0x1
    4b98:	41540ab3          	sub	s5,s0,s5
    4b9c:	2caab823          	sd	a0,720(s5) # 12d0 <.LBB64_4+0x164>
    4ba0:	00055463          	bgez	a0,4ba8 <.LBB64_180>
    4ba4:	c00009b7          	lui	s3,0xc0000

0000000000004ba8 <.LBB64_180>:
    4ba8:	00001537          	lui	a0,0x1
    4bac:	40a40533          	sub	a0,s0,a0
    4bb0:	2d353423          	sd	s3,712(a0) # 12c8 <.LBB64_4+0x15c>
    4bb4:	93843503          	ld	a0,-1736(s0)
    4bb8:	f4043983          	ld	s3,-192(s0)
    4bbc:	01350533          	add	a0,a0,s3
    4bc0:	000019b7          	lui	s3,0x1
    4bc4:	413409b3          	sub	s3,s0,s3
    4bc8:	6f89b983          	ld	s3,1784(s3) # 16f8 <.LBB64_4+0x58c>
    4bcc:	01350533          	add	a0,a0,s3
    4bd0:	00c50533          	add	a0,a0,a2
    4bd4:	1005051b          	addiw	a0,a0,256
    4bd8:	400009b7          	lui	s3,0x40000
    4bdc:	00001ab7          	lui	s5,0x1
    4be0:	41540ab3          	sub	s5,s0,s5
    4be4:	2eaab023          	sd	a0,736(s5) # 12e0 <.LBB64_4+0x174>
    4be8:	00055463          	bgez	a0,4bf0 <.LBB64_182>
    4bec:	c00009b7          	lui	s3,0xc0000

0000000000004bf0 <.LBB64_182>:
    4bf0:	00001537          	lui	a0,0x1
    4bf4:	40a40533          	sub	a0,s0,a0
    4bf8:	2d353c23          	sd	s3,728(a0) # 12d8 <.LBB64_4+0x16c>
    4bfc:	94043503          	ld	a0,-1728(s0)
    4c00:	f4843983          	ld	s3,-184(s0)
    4c04:	01350533          	add	a0,a0,s3
    4c08:	000019b7          	lui	s3,0x1
    4c0c:	413409b3          	sub	s3,s0,s3
    4c10:	7489b983          	ld	s3,1864(s3) # 1748 <.LBB64_5+0x40>
    4c14:	01350533          	add	a0,a0,s3
    4c18:	00c50533          	add	a0,a0,a2
    4c1c:	1005051b          	addiw	a0,a0,256
    4c20:	400009b7          	lui	s3,0x40000
    4c24:	00001ab7          	lui	s5,0x1
    4c28:	41540ab3          	sub	s5,s0,s5
    4c2c:	2eaab823          	sd	a0,752(s5) # 12f0 <.LBB64_4+0x184>
    4c30:	00055463          	bgez	a0,4c38 <.LBB64_184>
    4c34:	c00009b7          	lui	s3,0xc0000

0000000000004c38 <.LBB64_184>:
    4c38:	00001537          	lui	a0,0x1
    4c3c:	40a40533          	sub	a0,s0,a0
    4c40:	2f353423          	sd	s3,744(a0) # 12e8 <.LBB64_4+0x17c>
    4c44:	94843503          	ld	a0,-1720(s0)
    4c48:	f5043983          	ld	s3,-176(s0)
    4c4c:	01350533          	add	a0,a0,s3
    4c50:	000019b7          	lui	s3,0x1
    4c54:	413409b3          	sub	s3,s0,s3
    4c58:	7509b983          	ld	s3,1872(s3) # 1750 <.LBB64_5+0x48>
    4c5c:	01350533          	add	a0,a0,s3
    4c60:	00c50533          	add	a0,a0,a2
    4c64:	1005051b          	addiw	a0,a0,256
    4c68:	400009b7          	lui	s3,0x40000
    4c6c:	00001ab7          	lui	s5,0x1
    4c70:	41540ab3          	sub	s5,s0,s5
    4c74:	30aab023          	sd	a0,768(s5) # 1300 <.LBB64_4+0x194>
    4c78:	00055463          	bgez	a0,4c80 <.LBB64_186>
    4c7c:	c00009b7          	lui	s3,0xc0000

0000000000004c80 <.LBB64_186>:
    4c80:	00001537          	lui	a0,0x1
    4c84:	40a40533          	sub	a0,s0,a0
    4c88:	2f353c23          	sd	s3,760(a0) # 12f8 <.LBB64_4+0x18c>
    4c8c:	95043503          	ld	a0,-1712(s0)
    4c90:	f5843983          	ld	s3,-168(s0)
    4c94:	01350533          	add	a0,a0,s3
    4c98:	000019b7          	lui	s3,0x1
    4c9c:	413409b3          	sub	s3,s0,s3
    4ca0:	7589b983          	ld	s3,1880(s3) # 1758 <.LBB64_5+0x50>
    4ca4:	01350533          	add	a0,a0,s3
    4ca8:	00c50533          	add	a0,a0,a2
    4cac:	1005051b          	addiw	a0,a0,256
    4cb0:	400009b7          	lui	s3,0x40000
    4cb4:	00001ab7          	lui	s5,0x1
    4cb8:	41540ab3          	sub	s5,s0,s5
    4cbc:	30aab823          	sd	a0,784(s5) # 1310 <.LBB64_4+0x1a4>
    4cc0:	00055463          	bgez	a0,4cc8 <.LBB64_188>
    4cc4:	c00009b7          	lui	s3,0xc0000

0000000000004cc8 <.LBB64_188>:
    4cc8:	00001537          	lui	a0,0x1
    4ccc:	40a40533          	sub	a0,s0,a0
    4cd0:	31353423          	sd	s3,776(a0) # 1308 <.LBB64_4+0x19c>
    4cd4:	95843503          	ld	a0,-1704(s0)
    4cd8:	f6043983          	ld	s3,-160(s0)
    4cdc:	01350533          	add	a0,a0,s3
    4ce0:	000019b7          	lui	s3,0x1
    4ce4:	413409b3          	sub	s3,s0,s3
    4ce8:	7609b983          	ld	s3,1888(s3) # 1760 <.LBB64_5+0x58>
    4cec:	01350533          	add	a0,a0,s3
    4cf0:	00c50533          	add	a0,a0,a2
    4cf4:	1005051b          	addiw	a0,a0,256
    4cf8:	400009b7          	lui	s3,0x40000
    4cfc:	00001ab7          	lui	s5,0x1
    4d00:	41540ab3          	sub	s5,s0,s5
    4d04:	32aab023          	sd	a0,800(s5) # 1320 <.LBB64_4+0x1b4>
    4d08:	00055463          	bgez	a0,4d10 <.LBB64_190>
    4d0c:	c00009b7          	lui	s3,0xc0000

0000000000004d10 <.LBB64_190>:
    4d10:	00001537          	lui	a0,0x1
    4d14:	40a40533          	sub	a0,s0,a0
    4d18:	31353c23          	sd	s3,792(a0) # 1318 <.LBB64_4+0x1ac>
    4d1c:	96043503          	ld	a0,-1696(s0)
    4d20:	f6843983          	ld	s3,-152(s0)
    4d24:	01350533          	add	a0,a0,s3
    4d28:	000019b7          	lui	s3,0x1
    4d2c:	413409b3          	sub	s3,s0,s3
    4d30:	6909b983          	ld	s3,1680(s3) # 1690 <.LBB64_4+0x524>
    4d34:	01350533          	add	a0,a0,s3
    4d38:	00c50533          	add	a0,a0,a2
    4d3c:	1005051b          	addiw	a0,a0,256
    4d40:	400009b7          	lui	s3,0x40000
    4d44:	00001ab7          	lui	s5,0x1
    4d48:	41540ab3          	sub	s5,s0,s5
    4d4c:	32aab823          	sd	a0,816(s5) # 1330 <.LBB64_4+0x1c4>
    4d50:	00055463          	bgez	a0,4d58 <.LBB64_192>
    4d54:	c00009b7          	lui	s3,0xc0000

0000000000004d58 <.LBB64_192>:
    4d58:	00001537          	lui	a0,0x1
    4d5c:	40a40533          	sub	a0,s0,a0
    4d60:	33353423          	sd	s3,808(a0) # 1328 <.LBB64_4+0x1bc>
    4d64:	96843503          	ld	a0,-1688(s0)
    4d68:	f7043983          	ld	s3,-144(s0)
    4d6c:	01350533          	add	a0,a0,s3
    4d70:	000019b7          	lui	s3,0x1
    4d74:	413409b3          	sub	s3,s0,s3
    4d78:	7689b983          	ld	s3,1896(s3) # 1768 <.LBB64_5+0x60>
    4d7c:	01350533          	add	a0,a0,s3
    4d80:	00c50533          	add	a0,a0,a2
    4d84:	1005051b          	addiw	a0,a0,256
    4d88:	400009b7          	lui	s3,0x40000
    4d8c:	00001ab7          	lui	s5,0x1
    4d90:	41540ab3          	sub	s5,s0,s5
    4d94:	34aab023          	sd	a0,832(s5) # 1340 <.LBB64_4+0x1d4>
    4d98:	00055463          	bgez	a0,4da0 <.LBB64_194>
    4d9c:	c00009b7          	lui	s3,0xc0000

0000000000004da0 <.LBB64_194>:
    4da0:	00001537          	lui	a0,0x1
    4da4:	40a40533          	sub	a0,s0,a0
    4da8:	33353c23          	sd	s3,824(a0) # 1338 <.LBB64_4+0x1cc>
    4dac:	97043503          	ld	a0,-1680(s0)
    4db0:	f7843983          	ld	s3,-136(s0)
    4db4:	01350533          	add	a0,a0,s3
    4db8:	000019b7          	lui	s3,0x1
    4dbc:	413409b3          	sub	s3,s0,s3
    4dc0:	7709b983          	ld	s3,1904(s3) # 1770 <.LBB64_5+0x68>
    4dc4:	01350533          	add	a0,a0,s3
    4dc8:	00c50533          	add	a0,a0,a2
    4dcc:	1005051b          	addiw	a0,a0,256
    4dd0:	400009b7          	lui	s3,0x40000
    4dd4:	00001ab7          	lui	s5,0x1
    4dd8:	41540ab3          	sub	s5,s0,s5
    4ddc:	34aab823          	sd	a0,848(s5) # 1350 <.LBB64_4+0x1e4>
    4de0:	00055463          	bgez	a0,4de8 <.LBB64_196>
    4de4:	c00009b7          	lui	s3,0xc0000

0000000000004de8 <.LBB64_196>:
    4de8:	00001537          	lui	a0,0x1
    4dec:	40a40533          	sub	a0,s0,a0
    4df0:	35353423          	sd	s3,840(a0) # 1348 <.LBB64_4+0x1dc>
    4df4:	97843503          	ld	a0,-1672(s0)
    4df8:	f8043983          	ld	s3,-128(s0)
    4dfc:	01350533          	add	a0,a0,s3
    4e00:	000019b7          	lui	s3,0x1
    4e04:	413409b3          	sub	s3,s0,s3
    4e08:	7789b983          	ld	s3,1912(s3) # 1778 <.LBB64_5+0x70>
    4e0c:	01350533          	add	a0,a0,s3
    4e10:	00c50533          	add	a0,a0,a2
    4e14:	1005051b          	addiw	a0,a0,256
    4e18:	40000637          	lui	a2,0x40000
    4e1c:	000019b7          	lui	s3,0x1
    4e20:	413409b3          	sub	s3,s0,s3
    4e24:	36a9b023          	sd	a0,864(s3) # 1360 <.LBB64_4+0x1f4>
    4e28:	00055463          	bgez	a0,4e30 <.LBB64_198>
    4e2c:	c0000637          	lui	a2,0xc0000

0000000000004e30 <.LBB64_198>:
    4e30:	00001537          	lui	a0,0x1
    4e34:	40a40533          	sub	a0,s0,a0
    4e38:	34c53c23          	sd	a2,856(a0) # 1358 <.LBB64_4+0x1ec>
    4e3c:	98043503          	ld	a0,-1664(s0)
    4e40:	e8043603          	ld	a2,-384(s0)
    4e44:	00c50533          	add	a0,a0,a2
    4e48:	e7843603          	ld	a2,-392(s0)
    4e4c:	00c50533          	add	a0,a0,a2
    4e50:	00b50533          	add	a0,a0,a1
    4e54:	1005051b          	addiw	a0,a0,256
    4e58:	400009b7          	lui	s3,0x40000
    4e5c:	e2043603          	ld	a2,-480(s0)
    4e60:	00001ab7          	lui	s5,0x1
    4e64:	41540ab3          	sub	s5,s0,s5
    4e68:	36aab823          	sd	a0,880(s5) # 1370 <.LBB64_4+0x204>
    4e6c:	00055463          	bgez	a0,4e74 <.LBB64_200>
    4e70:	c00009b7          	lui	s3,0xc0000

0000000000004e74 <.LBB64_200>:
    4e74:	00001537          	lui	a0,0x1
    4e78:	40a40533          	sub	a0,s0,a0
    4e7c:	37353423          	sd	s3,872(a0) # 1368 <.LBB64_4+0x1fc>
    4e80:	98843503          	ld	a0,-1656(s0)
    4e84:	e7043983          	ld	s3,-400(s0)
    4e88:	01350533          	add	a0,a0,s3
    4e8c:	e6843983          	ld	s3,-408(s0)
    4e90:	01350533          	add	a0,a0,s3
    4e94:	00b50533          	add	a0,a0,a1
    4e98:	1005051b          	addiw	a0,a0,256
    4e9c:	400009b7          	lui	s3,0x40000
    4ea0:	00001ab7          	lui	s5,0x1
    4ea4:	41540ab3          	sub	s5,s0,s5
    4ea8:	38aab023          	sd	a0,896(s5) # 1380 <.LBB64_4+0x214>
    4eac:	00055463          	bgez	a0,4eb4 <.LBB64_202>
    4eb0:	c00009b7          	lui	s3,0xc0000

0000000000004eb4 <.LBB64_202>:
    4eb4:	00001537          	lui	a0,0x1
    4eb8:	40a40533          	sub	a0,s0,a0
    4ebc:	37353c23          	sd	s3,888(a0) # 1378 <.LBB64_4+0x20c>
    4ec0:	99043503          	ld	a0,-1648(s0)
    4ec4:	e6043983          	ld	s3,-416(s0)
    4ec8:	01350533          	add	a0,a0,s3
    4ecc:	e5843983          	ld	s3,-424(s0)
    4ed0:	01350533          	add	a0,a0,s3
    4ed4:	00b50533          	add	a0,a0,a1
    4ed8:	1005051b          	addiw	a0,a0,256
    4edc:	400009b7          	lui	s3,0x40000
    4ee0:	00001ab7          	lui	s5,0x1
    4ee4:	41540ab3          	sub	s5,s0,s5
    4ee8:	38aab823          	sd	a0,912(s5) # 1390 <.LBB64_4+0x224>
    4eec:	00055463          	bgez	a0,4ef4 <.LBB64_204>
    4ef0:	c00009b7          	lui	s3,0xc0000

0000000000004ef4 <.LBB64_204>:
    4ef4:	00001537          	lui	a0,0x1
    4ef8:	40a40533          	sub	a0,s0,a0
    4efc:	39353423          	sd	s3,904(a0) # 1388 <.LBB64_4+0x21c>
    4f00:	99843503          	ld	a0,-1640(s0)
    4f04:	e5043983          	ld	s3,-432(s0)
    4f08:	01350533          	add	a0,a0,s3
    4f0c:	e4843983          	ld	s3,-440(s0)
    4f10:	01350533          	add	a0,a0,s3
    4f14:	00b50533          	add	a0,a0,a1
    4f18:	1005051b          	addiw	a0,a0,256
    4f1c:	400009b7          	lui	s3,0x40000
    4f20:	00001ab7          	lui	s5,0x1
    4f24:	41540ab3          	sub	s5,s0,s5
    4f28:	3aaab023          	sd	a0,928(s5) # 13a0 <.LBB64_4+0x234>
    4f2c:	00055463          	bgez	a0,4f34 <.LBB64_206>
    4f30:	c00009b7          	lui	s3,0xc0000

0000000000004f34 <.LBB64_206>:
    4f34:	00001537          	lui	a0,0x1
    4f38:	40a40533          	sub	a0,s0,a0
    4f3c:	39353c23          	sd	s3,920(a0) # 1398 <.LBB64_4+0x22c>
    4f40:	9a043503          	ld	a0,-1632(s0)
    4f44:	e4043983          	ld	s3,-448(s0)
    4f48:	01350533          	add	a0,a0,s3
    4f4c:	e3843983          	ld	s3,-456(s0)
    4f50:	01350533          	add	a0,a0,s3
    4f54:	00b50533          	add	a0,a0,a1
    4f58:	1005051b          	addiw	a0,a0,256
    4f5c:	400009b7          	lui	s3,0x40000
    4f60:	00001ab7          	lui	s5,0x1
    4f64:	41540ab3          	sub	s5,s0,s5
    4f68:	3aaab823          	sd	a0,944(s5) # 13b0 <.LBB64_4+0x244>
    4f6c:	00055463          	bgez	a0,4f74 <.LBB64_208>
    4f70:	c00009b7          	lui	s3,0xc0000

0000000000004f74 <.LBB64_208>:
    4f74:	00001537          	lui	a0,0x1
    4f78:	40a40533          	sub	a0,s0,a0
    4f7c:	3b353423          	sd	s3,936(a0) # 13a8 <.LBB64_4+0x23c>
    4f80:	9a843503          	ld	a0,-1624(s0)
    4f84:	e3043983          	ld	s3,-464(s0)
    4f88:	01350533          	add	a0,a0,s3
    4f8c:	000019b7          	lui	s3,0x1
    4f90:	413409b3          	sub	s3,s0,s3
    4f94:	6d09b983          	ld	s3,1744(s3) # 16d0 <.LBB64_4+0x564>
    4f98:	01350533          	add	a0,a0,s3
    4f9c:	00b50533          	add	a0,a0,a1
    4fa0:	1005051b          	addiw	a0,a0,256
    4fa4:	400009b7          	lui	s3,0x40000
    4fa8:	00001ab7          	lui	s5,0x1
    4fac:	41540ab3          	sub	s5,s0,s5
    4fb0:	3caab023          	sd	a0,960(s5) # 13c0 <.LBB64_4+0x254>
    4fb4:	00055463          	bgez	a0,4fbc <.LBB64_210>
    4fb8:	c00009b7          	lui	s3,0xc0000

0000000000004fbc <.LBB64_210>:
    4fbc:	00001537          	lui	a0,0x1
    4fc0:	40a40533          	sub	a0,s0,a0
    4fc4:	3b353c23          	sd	s3,952(a0) # 13b8 <.LBB64_4+0x24c>
    4fc8:	9b043503          	ld	a0,-1616(s0)
    4fcc:	000019b7          	lui	s3,0x1
    4fd0:	413409b3          	sub	s3,s0,s3
    4fd4:	6c89b983          	ld	s3,1736(s3) # 16c8 <.LBB64_4+0x55c>
    4fd8:	01350533          	add	a0,a0,s3
    4fdc:	000019b7          	lui	s3,0x1
    4fe0:	413409b3          	sub	s3,s0,s3
    4fe4:	6c09b983          	ld	s3,1728(s3) # 16c0 <.LBB64_4+0x554>
    4fe8:	01350533          	add	a0,a0,s3
    4fec:	00b50533          	add	a0,a0,a1
    4ff0:	1005051b          	addiw	a0,a0,256
    4ff4:	400009b7          	lui	s3,0x40000
    4ff8:	00001ab7          	lui	s5,0x1
    4ffc:	41540ab3          	sub	s5,s0,s5
    5000:	3caab823          	sd	a0,976(s5) # 13d0 <.LBB64_4+0x264>
    5004:	00055463          	bgez	a0,500c <.LBB64_212>
    5008:	c00009b7          	lui	s3,0xc0000

000000000000500c <.LBB64_212>:
    500c:	00001537          	lui	a0,0x1
    5010:	40a40533          	sub	a0,s0,a0
    5014:	3d353423          	sd	s3,968(a0) # 13c8 <.LBB64_4+0x25c>
    5018:	9b843503          	ld	a0,-1608(s0)
    501c:	000019b7          	lui	s3,0x1
    5020:	413409b3          	sub	s3,s0,s3
    5024:	6b89b983          	ld	s3,1720(s3) # 16b8 <.LBB64_4+0x54c>
    5028:	01350533          	add	a0,a0,s3
    502c:	000019b7          	lui	s3,0x1
    5030:	413409b3          	sub	s3,s0,s3
    5034:	6b09b983          	ld	s3,1712(s3) # 16b0 <.LBB64_4+0x544>
    5038:	01350533          	add	a0,a0,s3
    503c:	00b50533          	add	a0,a0,a1
    5040:	1005051b          	addiw	a0,a0,256
    5044:	400009b7          	lui	s3,0x40000
    5048:	00001ab7          	lui	s5,0x1
    504c:	41540ab3          	sub	s5,s0,s5
    5050:	3eaab023          	sd	a0,992(s5) # 13e0 <.LBB64_4+0x274>
    5054:	00055463          	bgez	a0,505c <.LBB64_214>
    5058:	c00009b7          	lui	s3,0xc0000

000000000000505c <.LBB64_214>:
    505c:	00001537          	lui	a0,0x1
    5060:	40a40533          	sub	a0,s0,a0
    5064:	3d353c23          	sd	s3,984(a0) # 13d8 <.LBB64_4+0x26c>
    5068:	9c043503          	ld	a0,-1600(s0)
    506c:	000019b7          	lui	s3,0x1
    5070:	413409b3          	sub	s3,s0,s3
    5074:	6a89b983          	ld	s3,1704(s3) # 16a8 <.LBB64_4+0x53c>
    5078:	01350533          	add	a0,a0,s3
    507c:	000019b7          	lui	s3,0x1
    5080:	413409b3          	sub	s3,s0,s3
    5084:	6a09b983          	ld	s3,1696(s3) # 16a0 <.LBB64_4+0x534>
    5088:	01350533          	add	a0,a0,s3
    508c:	00b50533          	add	a0,a0,a1
    5090:	1005051b          	addiw	a0,a0,256
    5094:	400009b7          	lui	s3,0x40000
    5098:	00001ab7          	lui	s5,0x1
    509c:	41540ab3          	sub	s5,s0,s5
    50a0:	3eaab823          	sd	a0,1008(s5) # 13f0 <.LBB64_4+0x284>
    50a4:	00055463          	bgez	a0,50ac <.LBB64_216>
    50a8:	c00009b7          	lui	s3,0xc0000

00000000000050ac <.LBB64_216>:
    50ac:	00001537          	lui	a0,0x1
    50b0:	40a40533          	sub	a0,s0,a0
    50b4:	3f353423          	sd	s3,1000(a0) # 13e8 <.LBB64_4+0x27c>
    50b8:	9c843503          	ld	a0,-1592(s0)
    50bc:	000019b7          	lui	s3,0x1
    50c0:	413409b3          	sub	s3,s0,s3
    50c4:	6989b983          	ld	s3,1688(s3) # 1698 <.LBB64_4+0x52c>
    50c8:	01350533          	add	a0,a0,s3
    50cc:	000019b7          	lui	s3,0x1
    50d0:	413409b3          	sub	s3,s0,s3
    50d4:	6d89b983          	ld	s3,1752(s3) # 16d8 <.LBB64_4+0x56c>
    50d8:	01350533          	add	a0,a0,s3
    50dc:	00b50533          	add	a0,a0,a1
    50e0:	1005051b          	addiw	a0,a0,256
    50e4:	400009b7          	lui	s3,0x40000
    50e8:	00001ab7          	lui	s5,0x1
    50ec:	41540ab3          	sub	s5,s0,s5
    50f0:	40aab023          	sd	a0,1024(s5) # 1400 <.LBB64_4+0x294>
    50f4:	00055463          	bgez	a0,50fc <.LBB64_218>
    50f8:	c00009b7          	lui	s3,0xc0000

00000000000050fc <.LBB64_218>:
    50fc:	00001537          	lui	a0,0x1
    5100:	40a40533          	sub	a0,s0,a0
    5104:	3f353c23          	sd	s3,1016(a0) # 13f8 <.LBB64_4+0x28c>
    5108:	9d043503          	ld	a0,-1584(s0)
    510c:	e8843983          	ld	s3,-376(s0)
    5110:	01350533          	add	a0,a0,s3
    5114:	000019b7          	lui	s3,0x1
    5118:	413409b3          	sub	s3,s0,s3
    511c:	6e09b983          	ld	s3,1760(s3) # 16e0 <.LBB64_4+0x574>
    5120:	01350533          	add	a0,a0,s3
    5124:	00b50533          	add	a0,a0,a1
    5128:	1005051b          	addiw	a0,a0,256
    512c:	400009b7          	lui	s3,0x40000
    5130:	00001ab7          	lui	s5,0x1
    5134:	41540ab3          	sub	s5,s0,s5
    5138:	40aab823          	sd	a0,1040(s5) # 1410 <.LBB64_4+0x2a4>
    513c:	00055463          	bgez	a0,5144 <.LBB64_220>
    5140:	c00009b7          	lui	s3,0xc0000

0000000000005144 <.LBB64_220>:
    5144:	00001537          	lui	a0,0x1
    5148:	40a40533          	sub	a0,s0,a0
    514c:	41353423          	sd	s3,1032(a0) # 1408 <.LBB64_4+0x29c>
    5150:	9d843503          	ld	a0,-1576(s0)
    5154:	e9043983          	ld	s3,-368(s0)
    5158:	01350533          	add	a0,a0,s3
    515c:	000019b7          	lui	s3,0x1
    5160:	413409b3          	sub	s3,s0,s3
    5164:	6e89b983          	ld	s3,1768(s3) # 16e8 <.LBB64_4+0x57c>
    5168:	01350533          	add	a0,a0,s3
    516c:	00b50533          	add	a0,a0,a1
    5170:	1005051b          	addiw	a0,a0,256
    5174:	400009b7          	lui	s3,0x40000
    5178:	00001ab7          	lui	s5,0x1
    517c:	41540ab3          	sub	s5,s0,s5
    5180:	42aab023          	sd	a0,1056(s5) # 1420 <.LBB64_4+0x2b4>
    5184:	00055463          	bgez	a0,518c <.LBB64_222>
    5188:	c00009b7          	lui	s3,0xc0000

000000000000518c <.LBB64_222>:
    518c:	00001537          	lui	a0,0x1
    5190:	40a40533          	sub	a0,s0,a0
    5194:	41353c23          	sd	s3,1048(a0) # 1418 <.LBB64_4+0x2ac>
    5198:	9e043503          	ld	a0,-1568(s0)
    519c:	e9843983          	ld	s3,-360(s0)
    51a0:	01350533          	add	a0,a0,s3
    51a4:	000019b7          	lui	s3,0x1
    51a8:	413409b3          	sub	s3,s0,s3
    51ac:	6f09b983          	ld	s3,1776(s3) # 16f0 <.LBB64_4+0x584>
    51b0:	01350533          	add	a0,a0,s3
    51b4:	00b50533          	add	a0,a0,a1
    51b8:	1005051b          	addiw	a0,a0,256
    51bc:	400009b7          	lui	s3,0x40000
    51c0:	00001ab7          	lui	s5,0x1
    51c4:	41540ab3          	sub	s5,s0,s5
    51c8:	42aab823          	sd	a0,1072(s5) # 1430 <.LBB64_4+0x2c4>
    51cc:	00055463          	bgez	a0,51d4 <.LBB64_224>
    51d0:	c00009b7          	lui	s3,0xc0000

00000000000051d4 <.LBB64_224>:
    51d4:	00001537          	lui	a0,0x1
    51d8:	40a40533          	sub	a0,s0,a0
    51dc:	43353423          	sd	s3,1064(a0) # 1428 <.LBB64_4+0x2bc>
    51e0:	9e843503          	ld	a0,-1560(s0)
    51e4:	ea043983          	ld	s3,-352(s0)
    51e8:	01350533          	add	a0,a0,s3
    51ec:	01a50533          	add	a0,a0,s10
    51f0:	00b50533          	add	a0,a0,a1
    51f4:	1005051b          	addiw	a0,a0,256
    51f8:	400009b7          	lui	s3,0x40000
    51fc:	00001ab7          	lui	s5,0x1
    5200:	41540ab3          	sub	s5,s0,s5
    5204:	44aab023          	sd	a0,1088(s5) # 1440 <.LBB64_4+0x2d4>
    5208:	00055463          	bgez	a0,5210 <.LBB64_226>
    520c:	c00009b7          	lui	s3,0xc0000

0000000000005210 <.LBB64_226>:
    5210:	00001537          	lui	a0,0x1
    5214:	40a40533          	sub	a0,s0,a0
    5218:	43353c23          	sd	s3,1080(a0) # 1438 <.LBB64_4+0x2cc>
    521c:	9f043503          	ld	a0,-1552(s0)
    5220:	ea843983          	ld	s3,-344(s0)
    5224:	01350533          	add	a0,a0,s3
    5228:	000019b7          	lui	s3,0x1
    522c:	413409b3          	sub	s3,s0,s3
    5230:	7009b983          	ld	s3,1792(s3) # 1700 <.LBB64_4+0x594>
    5234:	01350533          	add	a0,a0,s3
    5238:	00b50533          	add	a0,a0,a1
    523c:	1005051b          	addiw	a0,a0,256
    5240:	400009b7          	lui	s3,0x40000
    5244:	00001ab7          	lui	s5,0x1
    5248:	41540ab3          	sub	s5,s0,s5
    524c:	44aab823          	sd	a0,1104(s5) # 1450 <.LBB64_4+0x2e4>
    5250:	00055463          	bgez	a0,5258 <.LBB64_228>
    5254:	c00009b7          	lui	s3,0xc0000

0000000000005258 <.LBB64_228>:
    5258:	00001537          	lui	a0,0x1
    525c:	40a40533          	sub	a0,s0,a0
    5260:	45353423          	sd	s3,1096(a0) # 1448 <.LBB64_4+0x2dc>
    5264:	9f843503          	ld	a0,-1544(s0)
    5268:	eb043983          	ld	s3,-336(s0)
    526c:	01350533          	add	a0,a0,s3
    5270:	000019b7          	lui	s3,0x1
    5274:	413409b3          	sub	s3,s0,s3
    5278:	7089b983          	ld	s3,1800(s3) # 1708 <.LBB64_5>
    527c:	01350533          	add	a0,a0,s3
    5280:	00b50533          	add	a0,a0,a1
    5284:	1005051b          	addiw	a0,a0,256
    5288:	400009b7          	lui	s3,0x40000
    528c:	00001ab7          	lui	s5,0x1
    5290:	41540ab3          	sub	s5,s0,s5
    5294:	46aab023          	sd	a0,1120(s5) # 1460 <.LBB64_4+0x2f4>
    5298:	00055463          	bgez	a0,52a0 <.LBB64_230>
    529c:	c00009b7          	lui	s3,0xc0000

00000000000052a0 <.LBB64_230>:
    52a0:	00001537          	lui	a0,0x1
    52a4:	40a40533          	sub	a0,s0,a0
    52a8:	45353c23          	sd	s3,1112(a0) # 1458 <.LBB64_4+0x2ec>
    52ac:	a0043503          	ld	a0,-1536(s0)
    52b0:	eb843983          	ld	s3,-328(s0)
    52b4:	01350533          	add	a0,a0,s3
    52b8:	000019b7          	lui	s3,0x1
    52bc:	413409b3          	sub	s3,s0,s3
    52c0:	7109b983          	ld	s3,1808(s3) # 1710 <.LBB64_5+0x8>
    52c4:	01350533          	add	a0,a0,s3
    52c8:	00b50533          	add	a0,a0,a1
    52cc:	1005051b          	addiw	a0,a0,256
    52d0:	400009b7          	lui	s3,0x40000
    52d4:	00001ab7          	lui	s5,0x1
    52d8:	41540ab3          	sub	s5,s0,s5
    52dc:	46aab823          	sd	a0,1136(s5) # 1470 <.LBB64_4+0x304>
    52e0:	00055463          	bgez	a0,52e8 <.LBB64_232>
    52e4:	c00009b7          	lui	s3,0xc0000

00000000000052e8 <.LBB64_232>:
    52e8:	00001537          	lui	a0,0x1
    52ec:	40a40533          	sub	a0,s0,a0
    52f0:	47353423          	sd	s3,1128(a0) # 1468 <.LBB64_4+0x2fc>
    52f4:	a0843503          	ld	a0,-1528(s0)
    52f8:	ec043983          	ld	s3,-320(s0)
    52fc:	01350533          	add	a0,a0,s3
    5300:	000019b7          	lui	s3,0x1
    5304:	413409b3          	sub	s3,s0,s3
    5308:	7189b983          	ld	s3,1816(s3) # 1718 <.LBB64_5+0x10>
    530c:	01350533          	add	a0,a0,s3
    5310:	00b50533          	add	a0,a0,a1
    5314:	1005051b          	addiw	a0,a0,256
    5318:	400009b7          	lui	s3,0x40000
    531c:	00001ab7          	lui	s5,0x1
    5320:	41540ab3          	sub	s5,s0,s5
    5324:	48aab023          	sd	a0,1152(s5) # 1480 <.LBB64_4+0x314>
    5328:	00055463          	bgez	a0,5330 <.LBB64_234>
    532c:	c00009b7          	lui	s3,0xc0000

0000000000005330 <.LBB64_234>:
    5330:	00001537          	lui	a0,0x1
    5334:	40a40533          	sub	a0,s0,a0
    5338:	47353c23          	sd	s3,1144(a0) # 1478 <.LBB64_4+0x30c>
    533c:	a1043503          	ld	a0,-1520(s0)
    5340:	f1843983          	ld	s3,-232(s0)
    5344:	01350533          	add	a0,a0,s3
    5348:	000019b7          	lui	s3,0x1
    534c:	413409b3          	sub	s3,s0,s3
    5350:	7209b983          	ld	s3,1824(s3) # 1720 <.LBB64_5+0x18>
    5354:	01350533          	add	a0,a0,s3
    5358:	00b50533          	add	a0,a0,a1
    535c:	1005051b          	addiw	a0,a0,256
    5360:	400009b7          	lui	s3,0x40000
    5364:	00001ab7          	lui	s5,0x1
    5368:	41540ab3          	sub	s5,s0,s5
    536c:	48aab823          	sd	a0,1168(s5) # 1490 <.LBB64_4+0x324>
    5370:	00055463          	bgez	a0,5378 <.LBB64_236>
    5374:	c00009b7          	lui	s3,0xc0000

0000000000005378 <.LBB64_236>:
    5378:	00001537          	lui	a0,0x1
    537c:	40a40533          	sub	a0,s0,a0
    5380:	49353423          	sd	s3,1160(a0) # 1488 <.LBB64_4+0x31c>
    5384:	a1843503          	ld	a0,-1512(s0)
    5388:	f2043983          	ld	s3,-224(s0)
    538c:	01350533          	add	a0,a0,s3
    5390:	000019b7          	lui	s3,0x1
    5394:	413409b3          	sub	s3,s0,s3
    5398:	7289b983          	ld	s3,1832(s3) # 1728 <.LBB64_5+0x20>
    539c:	01350533          	add	a0,a0,s3
    53a0:	00b50533          	add	a0,a0,a1
    53a4:	1005051b          	addiw	a0,a0,256
    53a8:	400009b7          	lui	s3,0x40000
    53ac:	00001ab7          	lui	s5,0x1
    53b0:	41540ab3          	sub	s5,s0,s5
    53b4:	4aaab023          	sd	a0,1184(s5) # 14a0 <.LBB64_4+0x334>
    53b8:	00055463          	bgez	a0,53c0 <.LBB64_238>
    53bc:	c00009b7          	lui	s3,0xc0000

00000000000053c0 <.LBB64_238>:
    53c0:	00001537          	lui	a0,0x1
    53c4:	40a40533          	sub	a0,s0,a0
    53c8:	49353c23          	sd	s3,1176(a0) # 1498 <.LBB64_4+0x32c>
    53cc:	a2043503          	ld	a0,-1504(s0)
    53d0:	f2843983          	ld	s3,-216(s0)
    53d4:	01350533          	add	a0,a0,s3
    53d8:	000019b7          	lui	s3,0x1
    53dc:	413409b3          	sub	s3,s0,s3
    53e0:	7309b983          	ld	s3,1840(s3) # 1730 <.LBB64_5+0x28>
    53e4:	01350533          	add	a0,a0,s3
    53e8:	00b50533          	add	a0,a0,a1
    53ec:	1005051b          	addiw	a0,a0,256
    53f0:	400009b7          	lui	s3,0x40000
    53f4:	00001ab7          	lui	s5,0x1
    53f8:	41540ab3          	sub	s5,s0,s5
    53fc:	4aaab823          	sd	a0,1200(s5) # 14b0 <.LBB64_4+0x344>
    5400:	00055463          	bgez	a0,5408 <.LBB64_240>
    5404:	c00009b7          	lui	s3,0xc0000

0000000000005408 <.LBB64_240>:
    5408:	00001537          	lui	a0,0x1
    540c:	40a40533          	sub	a0,s0,a0
    5410:	4b353423          	sd	s3,1192(a0) # 14a8 <.LBB64_4+0x33c>
    5414:	a2843503          	ld	a0,-1496(s0)
    5418:	f3043983          	ld	s3,-208(s0)
    541c:	01350533          	add	a0,a0,s3
    5420:	000019b7          	lui	s3,0x1
    5424:	413409b3          	sub	s3,s0,s3
    5428:	7389b983          	ld	s3,1848(s3) # 1738 <.LBB64_5+0x30>
    542c:	01350533          	add	a0,a0,s3
    5430:	00b50533          	add	a0,a0,a1
    5434:	1005051b          	addiw	a0,a0,256
    5438:	400009b7          	lui	s3,0x40000
    543c:	00001ab7          	lui	s5,0x1
    5440:	41540ab3          	sub	s5,s0,s5
    5444:	4caab023          	sd	a0,1216(s5) # 14c0 <.LBB64_4+0x354>
    5448:	00055463          	bgez	a0,5450 <.LBB64_242>
    544c:	c00009b7          	lui	s3,0xc0000

0000000000005450 <.LBB64_242>:
    5450:	00001537          	lui	a0,0x1
    5454:	40a40533          	sub	a0,s0,a0
    5458:	4b353c23          	sd	s3,1208(a0) # 14b8 <.LBB64_4+0x34c>
    545c:	a3043503          	ld	a0,-1488(s0)
    5460:	f3843983          	ld	s3,-200(s0)
    5464:	01350533          	add	a0,a0,s3
    5468:	000019b7          	lui	s3,0x1
    546c:	413409b3          	sub	s3,s0,s3
    5470:	7409b983          	ld	s3,1856(s3) # 1740 <.LBB64_5+0x38>
    5474:	01350533          	add	a0,a0,s3
    5478:	00b50533          	add	a0,a0,a1
    547c:	1005051b          	addiw	a0,a0,256
    5480:	400009b7          	lui	s3,0x40000
    5484:	00001ab7          	lui	s5,0x1
    5488:	41540ab3          	sub	s5,s0,s5
    548c:	4caab823          	sd	a0,1232(s5) # 14d0 <.LBB64_4+0x364>
    5490:	00055463          	bgez	a0,5498 <.LBB64_244>
    5494:	c00009b7          	lui	s3,0xc0000

0000000000005498 <.LBB64_244>:
    5498:	00001537          	lui	a0,0x1
    549c:	40a40533          	sub	a0,s0,a0
    54a0:	4d353423          	sd	s3,1224(a0) # 14c8 <.LBB64_4+0x35c>
    54a4:	a3843503          	ld	a0,-1480(s0)
    54a8:	f4043983          	ld	s3,-192(s0)
    54ac:	01350533          	add	a0,a0,s3
    54b0:	000019b7          	lui	s3,0x1
    54b4:	413409b3          	sub	s3,s0,s3
    54b8:	6f89b983          	ld	s3,1784(s3) # 16f8 <.LBB64_4+0x58c>
    54bc:	01350533          	add	a0,a0,s3
    54c0:	00b50533          	add	a0,a0,a1
    54c4:	1005051b          	addiw	a0,a0,256
    54c8:	400009b7          	lui	s3,0x40000
    54cc:	00001ab7          	lui	s5,0x1
    54d0:	41540ab3          	sub	s5,s0,s5
    54d4:	4eaab023          	sd	a0,1248(s5) # 14e0 <.LBB64_4+0x374>
    54d8:	00055463          	bgez	a0,54e0 <.LBB64_246>
    54dc:	c00009b7          	lui	s3,0xc0000

00000000000054e0 <.LBB64_246>:
    54e0:	00001537          	lui	a0,0x1
    54e4:	40a40533          	sub	a0,s0,a0
    54e8:	4d353c23          	sd	s3,1240(a0) # 14d8 <.LBB64_4+0x36c>
    54ec:	a4043503          	ld	a0,-1472(s0)
    54f0:	f4843983          	ld	s3,-184(s0)
    54f4:	01350533          	add	a0,a0,s3
    54f8:	000019b7          	lui	s3,0x1
    54fc:	413409b3          	sub	s3,s0,s3
    5500:	7489b983          	ld	s3,1864(s3) # 1748 <.LBB64_5+0x40>
    5504:	01350533          	add	a0,a0,s3
    5508:	00b50533          	add	a0,a0,a1
    550c:	1005051b          	addiw	a0,a0,256
    5510:	400009b7          	lui	s3,0x40000
    5514:	00001ab7          	lui	s5,0x1
    5518:	41540ab3          	sub	s5,s0,s5
    551c:	4eaab823          	sd	a0,1264(s5) # 14f0 <.LBB64_4+0x384>
    5520:	00055463          	bgez	a0,5528 <.LBB64_248>
    5524:	c00009b7          	lui	s3,0xc0000

0000000000005528 <.LBB64_248>:
    5528:	00001537          	lui	a0,0x1
    552c:	40a40533          	sub	a0,s0,a0
    5530:	4f353423          	sd	s3,1256(a0) # 14e8 <.LBB64_4+0x37c>
    5534:	a4843503          	ld	a0,-1464(s0)
    5538:	f5043983          	ld	s3,-176(s0)
    553c:	01350533          	add	a0,a0,s3
    5540:	000019b7          	lui	s3,0x1
    5544:	413409b3          	sub	s3,s0,s3
    5548:	7509b983          	ld	s3,1872(s3) # 1750 <.LBB64_5+0x48>
    554c:	01350533          	add	a0,a0,s3
    5550:	00b50533          	add	a0,a0,a1
    5554:	1005051b          	addiw	a0,a0,256
    5558:	400009b7          	lui	s3,0x40000
    555c:	00001ab7          	lui	s5,0x1
    5560:	41540ab3          	sub	s5,s0,s5
    5564:	50aab023          	sd	a0,1280(s5) # 1500 <.LBB64_4+0x394>
    5568:	00055463          	bgez	a0,5570 <.LBB64_250>
    556c:	c00009b7          	lui	s3,0xc0000

0000000000005570 <.LBB64_250>:
    5570:	00001537          	lui	a0,0x1
    5574:	40a40533          	sub	a0,s0,a0
    5578:	4f353c23          	sd	s3,1272(a0) # 14f8 <.LBB64_4+0x38c>
    557c:	a5043503          	ld	a0,-1456(s0)
    5580:	f5843983          	ld	s3,-168(s0)
    5584:	01350533          	add	a0,a0,s3
    5588:	000019b7          	lui	s3,0x1
    558c:	413409b3          	sub	s3,s0,s3
    5590:	7589b983          	ld	s3,1880(s3) # 1758 <.LBB64_5+0x50>
    5594:	01350533          	add	a0,a0,s3
    5598:	00b50533          	add	a0,a0,a1
    559c:	1005051b          	addiw	a0,a0,256
    55a0:	400009b7          	lui	s3,0x40000
    55a4:	00001ab7          	lui	s5,0x1
    55a8:	41540ab3          	sub	s5,s0,s5
    55ac:	50aab823          	sd	a0,1296(s5) # 1510 <.LBB64_4+0x3a4>
    55b0:	00055463          	bgez	a0,55b8 <.LBB64_252>
    55b4:	c00009b7          	lui	s3,0xc0000

00000000000055b8 <.LBB64_252>:
    55b8:	00001537          	lui	a0,0x1
    55bc:	40a40533          	sub	a0,s0,a0
    55c0:	51353423          	sd	s3,1288(a0) # 1508 <.LBB64_4+0x39c>
    55c4:	a5843503          	ld	a0,-1448(s0)
    55c8:	f6043983          	ld	s3,-160(s0)
    55cc:	01350533          	add	a0,a0,s3
    55d0:	000019b7          	lui	s3,0x1
    55d4:	413409b3          	sub	s3,s0,s3
    55d8:	7609b983          	ld	s3,1888(s3) # 1760 <.LBB64_5+0x58>
    55dc:	01350533          	add	a0,a0,s3
    55e0:	00b50533          	add	a0,a0,a1
    55e4:	1005051b          	addiw	a0,a0,256
    55e8:	400009b7          	lui	s3,0x40000
    55ec:	00001ab7          	lui	s5,0x1
    55f0:	41540ab3          	sub	s5,s0,s5
    55f4:	52aab023          	sd	a0,1312(s5) # 1520 <.LBB64_4+0x3b4>
    55f8:	00055463          	bgez	a0,5600 <.LBB64_254>
    55fc:	c00009b7          	lui	s3,0xc0000

0000000000005600 <.LBB64_254>:
    5600:	00001537          	lui	a0,0x1
    5604:	40a40533          	sub	a0,s0,a0
    5608:	51353c23          	sd	s3,1304(a0) # 1518 <.LBB64_4+0x3ac>
    560c:	a6043503          	ld	a0,-1440(s0)
    5610:	f6843983          	ld	s3,-152(s0)
    5614:	01350533          	add	a0,a0,s3
    5618:	000019b7          	lui	s3,0x1
    561c:	413409b3          	sub	s3,s0,s3
    5620:	6909b983          	ld	s3,1680(s3) # 1690 <.LBB64_4+0x524>
    5624:	01350533          	add	a0,a0,s3
    5628:	00b50533          	add	a0,a0,a1
    562c:	1005051b          	addiw	a0,a0,256
    5630:	400009b7          	lui	s3,0x40000
    5634:	00001ab7          	lui	s5,0x1
    5638:	41540ab3          	sub	s5,s0,s5
    563c:	52aab823          	sd	a0,1328(s5) # 1530 <.LBB64_4+0x3c4>
    5640:	00055463          	bgez	a0,5648 <.LBB64_256>
    5644:	c00009b7          	lui	s3,0xc0000

0000000000005648 <.LBB64_256>:
    5648:	00001537          	lui	a0,0x1
    564c:	40a40533          	sub	a0,s0,a0
    5650:	53353423          	sd	s3,1320(a0) # 1528 <.LBB64_4+0x3bc>
    5654:	a6843503          	ld	a0,-1432(s0)
    5658:	f7043983          	ld	s3,-144(s0)
    565c:	01350533          	add	a0,a0,s3
    5660:	000019b7          	lui	s3,0x1
    5664:	413409b3          	sub	s3,s0,s3
    5668:	7689b983          	ld	s3,1896(s3) # 1768 <.LBB64_5+0x60>
    566c:	01350533          	add	a0,a0,s3
    5670:	00b50533          	add	a0,a0,a1
    5674:	1005051b          	addiw	a0,a0,256
    5678:	400009b7          	lui	s3,0x40000
    567c:	00001ab7          	lui	s5,0x1
    5680:	41540ab3          	sub	s5,s0,s5
    5684:	54aab023          	sd	a0,1344(s5) # 1540 <.LBB64_4+0x3d4>
    5688:	00055463          	bgez	a0,5690 <.LBB64_258>
    568c:	c00009b7          	lui	s3,0xc0000

0000000000005690 <.LBB64_258>:
    5690:	00001537          	lui	a0,0x1
    5694:	40a40533          	sub	a0,s0,a0
    5698:	53353c23          	sd	s3,1336(a0) # 1538 <.LBB64_4+0x3cc>
    569c:	a7043503          	ld	a0,-1424(s0)
    56a0:	f7843983          	ld	s3,-136(s0)
    56a4:	01350533          	add	a0,a0,s3
    56a8:	000019b7          	lui	s3,0x1
    56ac:	413409b3          	sub	s3,s0,s3
    56b0:	7709b983          	ld	s3,1904(s3) # 1770 <.LBB64_5+0x68>
    56b4:	01350533          	add	a0,a0,s3
    56b8:	00b50533          	add	a0,a0,a1
    56bc:	1005051b          	addiw	a0,a0,256
    56c0:	400009b7          	lui	s3,0x40000
    56c4:	00001ab7          	lui	s5,0x1
    56c8:	41540ab3          	sub	s5,s0,s5
    56cc:	54aab823          	sd	a0,1360(s5) # 1550 <.LBB64_4+0x3e4>
    56d0:	00055463          	bgez	a0,56d8 <.LBB64_260>
    56d4:	c00009b7          	lui	s3,0xc0000

00000000000056d8 <.LBB64_260>:
    56d8:	00001537          	lui	a0,0x1
    56dc:	40a40533          	sub	a0,s0,a0
    56e0:	55353423          	sd	s3,1352(a0) # 1548 <.LBB64_4+0x3dc>
    56e4:	a7843503          	ld	a0,-1416(s0)
    56e8:	f8043983          	ld	s3,-128(s0)
    56ec:	01350533          	add	a0,a0,s3
    56f0:	000019b7          	lui	s3,0x1
    56f4:	413409b3          	sub	s3,s0,s3
    56f8:	7789b983          	ld	s3,1912(s3) # 1778 <.LBB64_5+0x70>
    56fc:	01350533          	add	a0,a0,s3
    5700:	00b50533          	add	a0,a0,a1
    5704:	1005051b          	addiw	a0,a0,256
    5708:	400005b7          	lui	a1,0x40000
    570c:	000019b7          	lui	s3,0x1
    5710:	413409b3          	sub	s3,s0,s3
    5714:	56a9b023          	sd	a0,1376(s3) # 1560 <.LBB64_4+0x3f4>
    5718:	00055463          	bgez	a0,5720 <.LBB64_262>
    571c:	c00005b7          	lui	a1,0xc0000

0000000000005720 <.LBB64_262>:
    5720:	00001537          	lui	a0,0x1
    5724:	40a40533          	sub	a0,s0,a0
    5728:	54b53c23          	sd	a1,1368(a0) # 1558 <.LBB64_4+0x3ec>
    572c:	a8043503          	ld	a0,-1408(s0)
    5730:	e8043583          	ld	a1,-384(s0)
    5734:	00b50533          	add	a0,a0,a1
    5738:	e7843583          	ld	a1,-392(s0)
    573c:	00b50533          	add	a0,a0,a1
    5740:	00f50533          	add	a0,a0,a5
    5744:	1005051b          	addiw	a0,a0,256
    5748:	400009b7          	lui	s3,0x40000
    574c:	e2843583          	ld	a1,-472(s0)
    5750:	00001ab7          	lui	s5,0x1
    5754:	41540ab3          	sub	s5,s0,s5
    5758:	56aab823          	sd	a0,1392(s5) # 1570 <.LBB64_4+0x404>
    575c:	00055463          	bgez	a0,5764 <.LBB64_264>
    5760:	c00009b7          	lui	s3,0xc0000

0000000000005764 <.LBB64_264>:
    5764:	00001537          	lui	a0,0x1
    5768:	40a40533          	sub	a0,s0,a0
    576c:	57353423          	sd	s3,1384(a0) # 1568 <.LBB64_4+0x3fc>
    5770:	a8843503          	ld	a0,-1400(s0)
    5774:	e7043983          	ld	s3,-400(s0)
    5778:	01350533          	add	a0,a0,s3
    577c:	e6843983          	ld	s3,-408(s0)
    5780:	01350533          	add	a0,a0,s3
    5784:	00f50533          	add	a0,a0,a5
    5788:	1005051b          	addiw	a0,a0,256
    578c:	400009b7          	lui	s3,0x40000
    5790:	00001ab7          	lui	s5,0x1
    5794:	41540ab3          	sub	s5,s0,s5
    5798:	58aab023          	sd	a0,1408(s5) # 1580 <.LBB64_4+0x414>
    579c:	00055463          	bgez	a0,57a4 <.LBB64_266>
    57a0:	c00009b7          	lui	s3,0xc0000

00000000000057a4 <.LBB64_266>:
    57a4:	00001537          	lui	a0,0x1
    57a8:	40a40533          	sub	a0,s0,a0
    57ac:	57353c23          	sd	s3,1400(a0) # 1578 <.LBB64_4+0x40c>
    57b0:	a9043503          	ld	a0,-1392(s0)
    57b4:	e6043983          	ld	s3,-416(s0)
    57b8:	01350533          	add	a0,a0,s3
    57bc:	e5843983          	ld	s3,-424(s0)
    57c0:	01350533          	add	a0,a0,s3
    57c4:	00f50533          	add	a0,a0,a5
    57c8:	1005051b          	addiw	a0,a0,256
    57cc:	400009b7          	lui	s3,0x40000
    57d0:	00001ab7          	lui	s5,0x1
    57d4:	41540ab3          	sub	s5,s0,s5
    57d8:	58aab823          	sd	a0,1424(s5) # 1590 <.LBB64_4+0x424>
    57dc:	00055463          	bgez	a0,57e4 <.LBB64_268>
    57e0:	c00009b7          	lui	s3,0xc0000

00000000000057e4 <.LBB64_268>:
    57e4:	00001537          	lui	a0,0x1
    57e8:	40a40533          	sub	a0,s0,a0
    57ec:	59353423          	sd	s3,1416(a0) # 1588 <.LBB64_4+0x41c>
    57f0:	a9843503          	ld	a0,-1384(s0)
    57f4:	e5043983          	ld	s3,-432(s0)
    57f8:	01350533          	add	a0,a0,s3
    57fc:	e4843983          	ld	s3,-440(s0)
    5800:	01350533          	add	a0,a0,s3
    5804:	00f50533          	add	a0,a0,a5
    5808:	1005051b          	addiw	a0,a0,256
    580c:	400009b7          	lui	s3,0x40000
    5810:	00001ab7          	lui	s5,0x1
    5814:	41540ab3          	sub	s5,s0,s5
    5818:	5aaab023          	sd	a0,1440(s5) # 15a0 <.LBB64_4+0x434>
    581c:	00055463          	bgez	a0,5824 <.LBB64_270>
    5820:	c00009b7          	lui	s3,0xc0000

0000000000005824 <.LBB64_270>:
    5824:	00001537          	lui	a0,0x1
    5828:	40a40533          	sub	a0,s0,a0
    582c:	59353c23          	sd	s3,1432(a0) # 1598 <.LBB64_4+0x42c>
    5830:	aa043503          	ld	a0,-1376(s0)
    5834:	e4043983          	ld	s3,-448(s0)
    5838:	01350533          	add	a0,a0,s3
    583c:	e3843983          	ld	s3,-456(s0)
    5840:	01350533          	add	a0,a0,s3
    5844:	00f50533          	add	a0,a0,a5
    5848:	1005051b          	addiw	a0,a0,256
    584c:	400009b7          	lui	s3,0x40000
    5850:	00001ab7          	lui	s5,0x1
    5854:	41540ab3          	sub	s5,s0,s5
    5858:	5aaab823          	sd	a0,1456(s5) # 15b0 <.LBB64_4+0x444>
    585c:	00055463          	bgez	a0,5864 <.LBB64_272>
    5860:	c00009b7          	lui	s3,0xc0000

0000000000005864 <.LBB64_272>:
    5864:	00001537          	lui	a0,0x1
    5868:	40a40533          	sub	a0,s0,a0
    586c:	5b353423          	sd	s3,1448(a0) # 15a8 <.LBB64_4+0x43c>
    5870:	aa843503          	ld	a0,-1368(s0)
    5874:	e3043983          	ld	s3,-464(s0)
    5878:	01350533          	add	a0,a0,s3
    587c:	000019b7          	lui	s3,0x1
    5880:	413409b3          	sub	s3,s0,s3
    5884:	6d09b983          	ld	s3,1744(s3) # 16d0 <.LBB64_4+0x564>
    5888:	01350533          	add	a0,a0,s3
    588c:	00f50533          	add	a0,a0,a5
    5890:	1005051b          	addiw	a0,a0,256
    5894:	400009b7          	lui	s3,0x40000
    5898:	00001ab7          	lui	s5,0x1
    589c:	41540ab3          	sub	s5,s0,s5
    58a0:	5caab023          	sd	a0,1472(s5) # 15c0 <.LBB64_4+0x454>
    58a4:	00055463          	bgez	a0,58ac <.LBB64_274>
    58a8:	c00009b7          	lui	s3,0xc0000

00000000000058ac <.LBB64_274>:
    58ac:	00001537          	lui	a0,0x1
    58b0:	40a40533          	sub	a0,s0,a0
    58b4:	5b353c23          	sd	s3,1464(a0) # 15b8 <.LBB64_4+0x44c>
    58b8:	ab043503          	ld	a0,-1360(s0)
    58bc:	000019b7          	lui	s3,0x1
    58c0:	413409b3          	sub	s3,s0,s3
    58c4:	6c89b983          	ld	s3,1736(s3) # 16c8 <.LBB64_4+0x55c>
    58c8:	01350533          	add	a0,a0,s3
    58cc:	000019b7          	lui	s3,0x1
    58d0:	413409b3          	sub	s3,s0,s3
    58d4:	6c09b983          	ld	s3,1728(s3) # 16c0 <.LBB64_4+0x554>
    58d8:	01350533          	add	a0,a0,s3
    58dc:	00f50533          	add	a0,a0,a5
    58e0:	1005051b          	addiw	a0,a0,256
    58e4:	400009b7          	lui	s3,0x40000
    58e8:	00001ab7          	lui	s5,0x1
    58ec:	41540ab3          	sub	s5,s0,s5
    58f0:	5caab823          	sd	a0,1488(s5) # 15d0 <.LBB64_4+0x464>
    58f4:	00055463          	bgez	a0,58fc <.LBB64_276>
    58f8:	c00009b7          	lui	s3,0xc0000

00000000000058fc <.LBB64_276>:
    58fc:	00001537          	lui	a0,0x1
    5900:	40a40533          	sub	a0,s0,a0
    5904:	5d353423          	sd	s3,1480(a0) # 15c8 <.LBB64_4+0x45c>
    5908:	ab843503          	ld	a0,-1352(s0)
    590c:	000019b7          	lui	s3,0x1
    5910:	413409b3          	sub	s3,s0,s3
    5914:	6b89b983          	ld	s3,1720(s3) # 16b8 <.LBB64_4+0x54c>
    5918:	01350533          	add	a0,a0,s3
    591c:	000019b7          	lui	s3,0x1
    5920:	413409b3          	sub	s3,s0,s3
    5924:	6b09b983          	ld	s3,1712(s3) # 16b0 <.LBB64_4+0x544>
    5928:	01350533          	add	a0,a0,s3
    592c:	00f50533          	add	a0,a0,a5
    5930:	1005051b          	addiw	a0,a0,256
    5934:	400009b7          	lui	s3,0x40000
    5938:	00001ab7          	lui	s5,0x1
    593c:	41540ab3          	sub	s5,s0,s5
    5940:	5eaab023          	sd	a0,1504(s5) # 15e0 <.LBB64_4+0x474>
    5944:	00055463          	bgez	a0,594c <.LBB64_278>
    5948:	c00009b7          	lui	s3,0xc0000

000000000000594c <.LBB64_278>:
    594c:	00001537          	lui	a0,0x1
    5950:	40a40533          	sub	a0,s0,a0
    5954:	5d353c23          	sd	s3,1496(a0) # 15d8 <.LBB64_4+0x46c>
    5958:	ac043503          	ld	a0,-1344(s0)
    595c:	000019b7          	lui	s3,0x1
    5960:	413409b3          	sub	s3,s0,s3
    5964:	6a89b983          	ld	s3,1704(s3) # 16a8 <.LBB64_4+0x53c>
    5968:	01350533          	add	a0,a0,s3
    596c:	000019b7          	lui	s3,0x1
    5970:	413409b3          	sub	s3,s0,s3
    5974:	6a09b983          	ld	s3,1696(s3) # 16a0 <.LBB64_4+0x534>
    5978:	01350533          	add	a0,a0,s3
    597c:	00f50533          	add	a0,a0,a5
    5980:	1005051b          	addiw	a0,a0,256
    5984:	400009b7          	lui	s3,0x40000
    5988:	00001ab7          	lui	s5,0x1
    598c:	41540ab3          	sub	s5,s0,s5
    5990:	5eaab823          	sd	a0,1520(s5) # 15f0 <.LBB64_4+0x484>
    5994:	00055463          	bgez	a0,599c <.LBB64_280>
    5998:	c00009b7          	lui	s3,0xc0000

000000000000599c <.LBB64_280>:
    599c:	00001537          	lui	a0,0x1
    59a0:	40a40533          	sub	a0,s0,a0
    59a4:	5f353423          	sd	s3,1512(a0) # 15e8 <.LBB64_4+0x47c>
    59a8:	ac843503          	ld	a0,-1336(s0)
    59ac:	000019b7          	lui	s3,0x1
    59b0:	413409b3          	sub	s3,s0,s3
    59b4:	6989b983          	ld	s3,1688(s3) # 1698 <.LBB64_4+0x52c>
    59b8:	01350533          	add	a0,a0,s3
    59bc:	000019b7          	lui	s3,0x1
    59c0:	413409b3          	sub	s3,s0,s3
    59c4:	6d89b983          	ld	s3,1752(s3) # 16d8 <.LBB64_4+0x56c>
    59c8:	01350533          	add	a0,a0,s3
    59cc:	00f50533          	add	a0,a0,a5
    59d0:	1005051b          	addiw	a0,a0,256
    59d4:	400009b7          	lui	s3,0x40000
    59d8:	00001ab7          	lui	s5,0x1
    59dc:	41540ab3          	sub	s5,s0,s5
    59e0:	60aab023          	sd	a0,1536(s5) # 1600 <.LBB64_4+0x494>
    59e4:	00055463          	bgez	a0,59ec <.LBB64_282>
    59e8:	c00009b7          	lui	s3,0xc0000

00000000000059ec <.LBB64_282>:
    59ec:	00001537          	lui	a0,0x1
    59f0:	40a40533          	sub	a0,s0,a0
    59f4:	5f353c23          	sd	s3,1528(a0) # 15f8 <.LBB64_4+0x48c>
    59f8:	ad043503          	ld	a0,-1328(s0)
    59fc:	e8843983          	ld	s3,-376(s0)
    5a00:	01350533          	add	a0,a0,s3
    5a04:	000019b7          	lui	s3,0x1
    5a08:	413409b3          	sub	s3,s0,s3
    5a0c:	6e09b983          	ld	s3,1760(s3) # 16e0 <.LBB64_4+0x574>
    5a10:	01350533          	add	a0,a0,s3
    5a14:	00f50533          	add	a0,a0,a5
    5a18:	1005051b          	addiw	a0,a0,256
    5a1c:	400009b7          	lui	s3,0x40000
    5a20:	00001ab7          	lui	s5,0x1
    5a24:	41540ab3          	sub	s5,s0,s5
    5a28:	60aab823          	sd	a0,1552(s5) # 1610 <.LBB64_4+0x4a4>
    5a2c:	00055463          	bgez	a0,5a34 <.LBB64_284>
    5a30:	c00009b7          	lui	s3,0xc0000

0000000000005a34 <.LBB64_284>:
    5a34:	00001537          	lui	a0,0x1
    5a38:	40a40533          	sub	a0,s0,a0
    5a3c:	61353423          	sd	s3,1544(a0) # 1608 <.LBB64_4+0x49c>
    5a40:	ad843503          	ld	a0,-1320(s0)
    5a44:	e9043983          	ld	s3,-368(s0)
    5a48:	01350533          	add	a0,a0,s3
    5a4c:	000019b7          	lui	s3,0x1
    5a50:	413409b3          	sub	s3,s0,s3
    5a54:	6e89b983          	ld	s3,1768(s3) # 16e8 <.LBB64_4+0x57c>
    5a58:	01350533          	add	a0,a0,s3
    5a5c:	00f50533          	add	a0,a0,a5
    5a60:	1005051b          	addiw	a0,a0,256
    5a64:	400009b7          	lui	s3,0x40000
    5a68:	00001ab7          	lui	s5,0x1
    5a6c:	41540ab3          	sub	s5,s0,s5
    5a70:	62aab023          	sd	a0,1568(s5) # 1620 <.LBB64_4+0x4b4>
    5a74:	00055463          	bgez	a0,5a7c <.LBB64_286>
    5a78:	c00009b7          	lui	s3,0xc0000

0000000000005a7c <.LBB64_286>:
    5a7c:	00001537          	lui	a0,0x1
    5a80:	40a40533          	sub	a0,s0,a0
    5a84:	61353c23          	sd	s3,1560(a0) # 1618 <.LBB64_4+0x4ac>
    5a88:	ae043503          	ld	a0,-1312(s0)
    5a8c:	e9843983          	ld	s3,-360(s0)
    5a90:	01350533          	add	a0,a0,s3
    5a94:	000019b7          	lui	s3,0x1
    5a98:	413409b3          	sub	s3,s0,s3
    5a9c:	6f09b983          	ld	s3,1776(s3) # 16f0 <.LBB64_4+0x584>
    5aa0:	01350533          	add	a0,a0,s3
    5aa4:	00f50533          	add	a0,a0,a5
    5aa8:	1005051b          	addiw	a0,a0,256
    5aac:	400009b7          	lui	s3,0x40000
    5ab0:	00001ab7          	lui	s5,0x1
    5ab4:	41540ab3          	sub	s5,s0,s5
    5ab8:	62aab823          	sd	a0,1584(s5) # 1630 <.LBB64_4+0x4c4>
    5abc:	00055463          	bgez	a0,5ac4 <.LBB64_288>
    5ac0:	c00009b7          	lui	s3,0xc0000

0000000000005ac4 <.LBB64_288>:
    5ac4:	00001537          	lui	a0,0x1
    5ac8:	40a40533          	sub	a0,s0,a0
    5acc:	63353423          	sd	s3,1576(a0) # 1628 <.LBB64_4+0x4bc>
    5ad0:	ae843503          	ld	a0,-1304(s0)
    5ad4:	ea043983          	ld	s3,-352(s0)
    5ad8:	01350533          	add	a0,a0,s3
    5adc:	01a50533          	add	a0,a0,s10
    5ae0:	00f50533          	add	a0,a0,a5
    5ae4:	1005051b          	addiw	a0,a0,256
    5ae8:	400009b7          	lui	s3,0x40000
    5aec:	00001ab7          	lui	s5,0x1
    5af0:	41540ab3          	sub	s5,s0,s5
    5af4:	64aab023          	sd	a0,1600(s5) # 1640 <.LBB64_4+0x4d4>
    5af8:	00055463          	bgez	a0,5b00 <.LBB64_290>
    5afc:	c00009b7          	lui	s3,0xc0000

0000000000005b00 <.LBB64_290>:
    5b00:	00001537          	lui	a0,0x1
    5b04:	40a40533          	sub	a0,s0,a0
    5b08:	63353c23          	sd	s3,1592(a0) # 1638 <.LBB64_4+0x4cc>
    5b0c:	af043503          	ld	a0,-1296(s0)
    5b10:	ea843983          	ld	s3,-344(s0)
    5b14:	01350533          	add	a0,a0,s3
    5b18:	000019b7          	lui	s3,0x1
    5b1c:	413409b3          	sub	s3,s0,s3
    5b20:	7009b983          	ld	s3,1792(s3) # 1700 <.LBB64_4+0x594>
    5b24:	01350533          	add	a0,a0,s3
    5b28:	00f50533          	add	a0,a0,a5
    5b2c:	1005051b          	addiw	a0,a0,256
    5b30:	400009b7          	lui	s3,0x40000
    5b34:	00001ab7          	lui	s5,0x1
    5b38:	41540ab3          	sub	s5,s0,s5
    5b3c:	68aab023          	sd	a0,1664(s5) # 1680 <.LBB64_4+0x514>
    5b40:	00055463          	bgez	a0,5b48 <.LBB64_292>
    5b44:	c00009b7          	lui	s3,0xc0000

0000000000005b48 <.LBB64_292>:
    5b48:	00001537          	lui	a0,0x1
    5b4c:	40a40533          	sub	a0,s0,a0
    5b50:	65353423          	sd	s3,1608(a0) # 1648 <.LBB64_4+0x4dc>
    5b54:	af843503          	ld	a0,-1288(s0)
    5b58:	eb043983          	ld	s3,-336(s0)
    5b5c:	01350533          	add	a0,a0,s3
    5b60:	000019b7          	lui	s3,0x1
    5b64:	413409b3          	sub	s3,s0,s3
    5b68:	7089b983          	ld	s3,1800(s3) # 1708 <.LBB64_5>
    5b6c:	01350533          	add	a0,a0,s3
    5b70:	00f50533          	add	a0,a0,a5
    5b74:	1005051b          	addiw	a0,a0,256
    5b78:	400009b7          	lui	s3,0x40000
    5b7c:	af343c23          	sd	s3,-1288(s0)
    5b80:	000019b7          	lui	s3,0x1
    5b84:	413409b3          	sub	s3,s0,s3
    5b88:	68a9b423          	sd	a0,1672(s3) # 1688 <.LBB64_4+0x51c>
    5b8c:	00055663          	bgez	a0,5b98 <.LBB64_294>
    5b90:	c0000537          	lui	a0,0xc0000
    5b94:	aea43c23          	sd	a0,-1288(s0)

0000000000005b98 <.LBB64_294>:
    5b98:	eb843503          	ld	a0,-328(s0)
    5b9c:	00aa0533          	add	a0,s4,a0
    5ba0:	000019b7          	lui	s3,0x1
    5ba4:	413409b3          	sub	s3,s0,s3
    5ba8:	7109b983          	ld	s3,1808(s3) # 1710 <.LBB64_5+0x8>
    5bac:	01350533          	add	a0,a0,s3
    5bb0:	00f50533          	add	a0,a0,a5
    5bb4:	1005051b          	addiw	a0,a0,256 # ffffffffc0000100 <.Lfunc_end80+0xffffffffbffd7734>
    5bb8:	40000a37          	lui	s4,0x40000
    5bbc:	000019b7          	lui	s3,0x1
    5bc0:	413409b3          	sub	s3,s0,s3
    5bc4:	78a9b423          	sd	a0,1928(s3) # 1788 <.LBB64_5+0x80>
    5bc8:	00055463          	bgez	a0,5bd0 <.LBB64_296>
    5bcc:	c0000a37          	lui	s4,0xc0000

0000000000005bd0 <.LBB64_296>:
    5bd0:	00001537          	lui	a0,0x1
    5bd4:	40a40533          	sub	a0,s0,a0
    5bd8:	79453023          	sd	s4,1920(a0) # 1780 <.LBB64_5+0x78>
    5bdc:	b0843503          	ld	a0,-1272(s0)
    5be0:	ec043983          	ld	s3,-320(s0)
    5be4:	01350533          	add	a0,a0,s3
    5be8:	000019b7          	lui	s3,0x1
    5bec:	413409b3          	sub	s3,s0,s3
    5bf0:	7189b983          	ld	s3,1816(s3) # 1718 <.LBB64_5+0x10>
    5bf4:	01350533          	add	a0,a0,s3
    5bf8:	00f50533          	add	a0,a0,a5
    5bfc:	1005051b          	addiw	a0,a0,256
    5c00:	40000a37          	lui	s4,0x40000
    5c04:	b1443423          	sd	s4,-1272(s0)
    5c08:	000019b7          	lui	s3,0x1
    5c0c:	413409b3          	sub	s3,s0,s3
    5c10:	78a9b823          	sd	a0,1936(s3) # 1790 <.LBB64_5+0x88>
    5c14:	00055663          	bgez	a0,5c20 <.LBB64_298>
    5c18:	c0000537          	lui	a0,0xc0000
    5c1c:	b0a43423          	sd	a0,-1272(s0)

0000000000005c20 <.LBB64_298>:
    5c20:	f1843503          	ld	a0,-232(s0)
    5c24:	00ad8533          	add	a0,s11,a0
    5c28:	000019b7          	lui	s3,0x1
    5c2c:	413409b3          	sub	s3,s0,s3
    5c30:	7209b983          	ld	s3,1824(s3) # 1720 <.LBB64_5+0x18>
    5c34:	01350533          	add	a0,a0,s3
    5c38:	00f50533          	add	a0,a0,a5
    5c3c:	1005051b          	addiw	a0,a0,256 # ffffffffc0000100 <.Lfunc_end80+0xffffffffbffd7734>
    5c40:	40000db7          	lui	s11,0x40000
    5c44:	000019b7          	lui	s3,0x1
    5c48:	413409b3          	sub	s3,s0,s3
    5c4c:	7aa9b423          	sd	a0,1960(s3) # 17a8 <.LBB64_5+0xa0>
    5c50:	000019b7          	lui	s3,0x1
    5c54:	413409b3          	sub	s3,s0,s3
    5c58:	d809ba03          	ld	s4,-640(s3) # d80 <.LBB64_3+0xb68>
    5c5c:	00055463          	bgez	a0,5c64 <.LBB64_300>
    5c60:	c0000db7          	lui	s11,0xc0000

0000000000005c64 <.LBB64_300>:
    5c64:	00001537          	lui	a0,0x1
    5c68:	40a40533          	sub	a0,s0,a0
    5c6c:	7bb53023          	sd	s11,1952(a0) # 17a0 <.LBB64_5+0x98>
    5c70:	b1843503          	ld	a0,-1256(s0)
    5c74:	f2043983          	ld	s3,-224(s0)
    5c78:	01350533          	add	a0,a0,s3
    5c7c:	000019b7          	lui	s3,0x1
    5c80:	413409b3          	sub	s3,s0,s3
    5c84:	7289b983          	ld	s3,1832(s3) # 1728 <.LBB64_5+0x20>
    5c88:	01350533          	add	a0,a0,s3
    5c8c:	00f50533          	add	a0,a0,a5
    5c90:	1005051b          	addiw	a0,a0,256
    5c94:	40000db7          	lui	s11,0x40000
    5c98:	000019b7          	lui	s3,0x1
    5c9c:	413409b3          	sub	s3,s0,s3
    5ca0:	7aa9bc23          	sd	a0,1976(s3) # 17b8 <.LBB64_5+0xb0>
    5ca4:	00055463          	bgez	a0,5cac <.LBB64_302>
    5ca8:	c0000db7          	lui	s11,0xc0000

0000000000005cac <.LBB64_302>:
    5cac:	00001537          	lui	a0,0x1
    5cb0:	40a40533          	sub	a0,s0,a0
    5cb4:	7bb53823          	sd	s11,1968(a0) # 17b0 <.LBB64_5+0xa8>
    5cb8:	b2043503          	ld	a0,-1248(s0)
    5cbc:	f2843983          	ld	s3,-216(s0)
    5cc0:	01350533          	add	a0,a0,s3
    5cc4:	000019b7          	lui	s3,0x1
    5cc8:	413409b3          	sub	s3,s0,s3
    5ccc:	7309b983          	ld	s3,1840(s3) # 1730 <.LBB64_5+0x28>
    5cd0:	01350533          	add	a0,a0,s3
    5cd4:	00f50533          	add	a0,a0,a5
    5cd8:	1005051b          	addiw	a0,a0,256
    5cdc:	40000db7          	lui	s11,0x40000
    5ce0:	000019b7          	lui	s3,0x1
    5ce4:	413409b3          	sub	s3,s0,s3
    5ce8:	7ca9b423          	sd	a0,1992(s3) # 17c8 <.LBB64_5+0xc0>
    5cec:	00055463          	bgez	a0,5cf4 <.LBB64_304>
    5cf0:	c0000db7          	lui	s11,0xc0000

0000000000005cf4 <.LBB64_304>:
    5cf4:	00001537          	lui	a0,0x1
    5cf8:	40a40533          	sub	a0,s0,a0
    5cfc:	7db53023          	sd	s11,1984(a0) # 17c0 <.LBB64_5+0xb8>
    5d00:	b2843503          	ld	a0,-1240(s0)
    5d04:	f3043983          	ld	s3,-208(s0)
    5d08:	01350533          	add	a0,a0,s3
    5d0c:	000019b7          	lui	s3,0x1
    5d10:	413409b3          	sub	s3,s0,s3
    5d14:	7389b983          	ld	s3,1848(s3) # 1738 <.LBB64_5+0x30>
    5d18:	01350533          	add	a0,a0,s3
    5d1c:	00f50533          	add	a0,a0,a5
    5d20:	1005051b          	addiw	a0,a0,256
    5d24:	40000db7          	lui	s11,0x40000
    5d28:	000019b7          	lui	s3,0x1
    5d2c:	413409b3          	sub	s3,s0,s3
    5d30:	7ea9b023          	sd	a0,2016(s3) # 17e0 <.LBB64_5+0xd8>
    5d34:	00055463          	bgez	a0,5d3c <.LBB64_306>
    5d38:	c0000db7          	lui	s11,0xc0000

0000000000005d3c <.LBB64_306>:
    5d3c:	00001537          	lui	a0,0x1
    5d40:	40a40533          	sub	a0,s0,a0
    5d44:	7db53823          	sd	s11,2000(a0) # 17d0 <.LBB64_5+0xc8>
    5d48:	b3043503          	ld	a0,-1232(s0)
    5d4c:	f3843983          	ld	s3,-200(s0)
    5d50:	01350533          	add	a0,a0,s3
    5d54:	000019b7          	lui	s3,0x1
    5d58:	413409b3          	sub	s3,s0,s3
    5d5c:	7409b983          	ld	s3,1856(s3) # 1740 <.LBB64_5+0x38>
    5d60:	01350533          	add	a0,a0,s3
    5d64:	00f50533          	add	a0,a0,a5
    5d68:	1005051b          	addiw	a0,a0,256
    5d6c:	40000db7          	lui	s11,0x40000
    5d70:	000019b7          	lui	s3,0x1
    5d74:	413409b3          	sub	s3,s0,s3
    5d78:	7ea9b823          	sd	a0,2032(s3) # 17f0 <.LBB64_5+0xe8>
    5d7c:	00055463          	bgez	a0,5d84 <.LBB64_308>
    5d80:	c0000db7          	lui	s11,0xc0000

0000000000005d84 <.LBB64_308>:
    5d84:	00001537          	lui	a0,0x1
    5d88:	40a40533          	sub	a0,s0,a0
    5d8c:	7fb53423          	sd	s11,2024(a0) # 17e8 <.LBB64_5+0xe0>
    5d90:	b3843503          	ld	a0,-1224(s0)
    5d94:	f4043983          	ld	s3,-192(s0)
    5d98:	01350533          	add	a0,a0,s3
    5d9c:	000019b7          	lui	s3,0x1
    5da0:	413409b3          	sub	s3,s0,s3
    5da4:	6f89b983          	ld	s3,1784(s3) # 16f8 <.LBB64_4+0x58c>
    5da8:	01350533          	add	a0,a0,s3
    5dac:	00f50533          	add	a0,a0,a5
    5db0:	1005051b          	addiw	a0,a0,256
    5db4:	40000db7          	lui	s11,0x40000
    5db8:	b3b43c23          	sd	s11,-1224(s0)
    5dbc:	000019b7          	lui	s3,0x1
    5dc0:	413409b3          	sub	s3,s0,s3
    5dc4:	7ea9bc23          	sd	a0,2040(s3) # 17f8 <.LBB64_5+0xf0>
    5dc8:	00055663          	bgez	a0,5dd4 <.LBB64_310>
    5dcc:	c0000537          	lui	a0,0xc0000
    5dd0:	b2a43c23          	sd	a0,-1224(s0)

0000000000005dd4 <.LBB64_310>:
    5dd4:	f4843503          	ld	a0,-184(s0)
    5dd8:	00a08533          	add	a0,ra,a0
    5ddc:	000019b7          	lui	s3,0x1
    5de0:	413409b3          	sub	s3,s0,s3
    5de4:	7489b983          	ld	s3,1864(s3) # 1748 <.LBB64_5+0x40>
    5de8:	01350533          	add	a0,a0,s3
    5dec:	00f50533          	add	a0,a0,a5
    5df0:	1005051b          	addiw	a0,a0,256 # ffffffffc0000100 <.Lfunc_end80+0xffffffffbffd7734>
    5df4:	400000b7          	lui	ra,0x40000
    5df8:	80a43423          	sd	a0,-2040(s0)
    5dfc:	00055463          	bgez	a0,5e04 <.LBB64_312>
    5e00:	c00000b7          	lui	ra,0xc0000

0000000000005e04 <.LBB64_312>:
    5e04:	80143023          	sd	ra,-2048(s0)
    5e08:	b4843503          	ld	a0,-1208(s0)
    5e0c:	f5043983          	ld	s3,-176(s0)
    5e10:	01350533          	add	a0,a0,s3
    5e14:	000019b7          	lui	s3,0x1
    5e18:	413409b3          	sub	s3,s0,s3
    5e1c:	7509b983          	ld	s3,1872(s3) # 1750 <.LBB64_5+0x48>
    5e20:	01350533          	add	a0,a0,s3
    5e24:	00f50533          	add	a0,a0,a5
    5e28:	1005051b          	addiw	a0,a0,256
    5e2c:	400000b7          	lui	ra,0x40000
    5e30:	82a43023          	sd	a0,-2016(s0)
    5e34:	00055463          	bgez	a0,5e3c <.LBB64_314>
    5e38:	c00000b7          	lui	ra,0xc0000

0000000000005e3c <.LBB64_314>:
    5e3c:	80143c23          	sd	ra,-2024(s0)
    5e40:	b5043503          	ld	a0,-1200(s0)
    5e44:	f5843983          	ld	s3,-168(s0)
    5e48:	01350533          	add	a0,a0,s3
    5e4c:	000019b7          	lui	s3,0x1
    5e50:	413409b3          	sub	s3,s0,s3
    5e54:	7589b983          	ld	s3,1880(s3) # 1758 <.LBB64_5+0x50>
    5e58:	01350533          	add	a0,a0,s3
    5e5c:	00f50533          	add	a0,a0,a5
    5e60:	1005051b          	addiw	a0,a0,256
    5e64:	400000b7          	lui	ra,0x40000
    5e68:	82a43823          	sd	a0,-2000(s0)
    5e6c:	00055463          	bgez	a0,5e74 <.LBB64_316>
    5e70:	c00000b7          	lui	ra,0xc0000

0000000000005e74 <.LBB64_316>:
    5e74:	82143423          	sd	ra,-2008(s0)
    5e78:	b5843503          	ld	a0,-1192(s0)
    5e7c:	f6043983          	ld	s3,-160(s0)
    5e80:	01350533          	add	a0,a0,s3
    5e84:	000019b7          	lui	s3,0x1
    5e88:	413409b3          	sub	s3,s0,s3
    5e8c:	7609b983          	ld	s3,1888(s3) # 1760 <.LBB64_5+0x58>
    5e90:	01350533          	add	a0,a0,s3
    5e94:	00f50533          	add	a0,a0,a5
    5e98:	1005051b          	addiw	a0,a0,256
    5e9c:	400000b7          	lui	ra,0x40000
    5ea0:	84a43023          	sd	a0,-1984(s0)
    5ea4:	00055463          	bgez	a0,5eac <.LBB64_318>
    5ea8:	c00000b7          	lui	ra,0xc0000

0000000000005eac <.LBB64_318>:
    5eac:	82143c23          	sd	ra,-1992(s0)
    5eb0:	b6043503          	ld	a0,-1184(s0)
    5eb4:	f6843983          	ld	s3,-152(s0)
    5eb8:	01350533          	add	a0,a0,s3
    5ebc:	000019b7          	lui	s3,0x1
    5ec0:	413409b3          	sub	s3,s0,s3
    5ec4:	6909b983          	ld	s3,1680(s3) # 1690 <.LBB64_4+0x524>
    5ec8:	01350533          	add	a0,a0,s3
    5ecc:	00f50533          	add	a0,a0,a5
    5ed0:	1005051b          	addiw	a0,a0,256
    5ed4:	400000b7          	lui	ra,0x40000
    5ed8:	84a43823          	sd	a0,-1968(s0)
    5edc:	00055463          	bgez	a0,5ee4 <.LBB64_320>
    5ee0:	c00000b7          	lui	ra,0xc0000

0000000000005ee4 <.LBB64_320>:
    5ee4:	84143423          	sd	ra,-1976(s0)
    5ee8:	b6843503          	ld	a0,-1176(s0)
    5eec:	f7043983          	ld	s3,-144(s0)
    5ef0:	01350533          	add	a0,a0,s3
    5ef4:	000019b7          	lui	s3,0x1
    5ef8:	413409b3          	sub	s3,s0,s3
    5efc:	7689b983          	ld	s3,1896(s3) # 1768 <.LBB64_5+0x60>
    5f00:	01350533          	add	a0,a0,s3
    5f04:	00f50533          	add	a0,a0,a5
    5f08:	1005051b          	addiw	a0,a0,256
    5f0c:	400000b7          	lui	ra,0x40000
    5f10:	86a43423          	sd	a0,-1944(s0)
    5f14:	00055463          	bgez	a0,5f1c <.LBB64_322>
    5f18:	c00000b7          	lui	ra,0xc0000

0000000000005f1c <.LBB64_322>:
    5f1c:	86143023          	sd	ra,-1952(s0)
    5f20:	b7043503          	ld	a0,-1168(s0)
    5f24:	f7843983          	ld	s3,-136(s0)
    5f28:	01350533          	add	a0,a0,s3
    5f2c:	000019b7          	lui	s3,0x1
    5f30:	413409b3          	sub	s3,s0,s3
    5f34:	7709b983          	ld	s3,1904(s3) # 1770 <.LBB64_5+0x68>
    5f38:	01350533          	add	a0,a0,s3
    5f3c:	00f50533          	add	a0,a0,a5
    5f40:	1005051b          	addiw	a0,a0,256
    5f44:	400000b7          	lui	ra,0x40000
    5f48:	86a43c23          	sd	a0,-1928(s0)
    5f4c:	00055463          	bgez	a0,5f54 <.LBB64_324>
    5f50:	c00000b7          	lui	ra,0xc0000

0000000000005f54 <.LBB64_324>:
    5f54:	86143823          	sd	ra,-1936(s0)
    5f58:	b7843503          	ld	a0,-1160(s0)
    5f5c:	f8043983          	ld	s3,-128(s0)
    5f60:	01350533          	add	a0,a0,s3
    5f64:	000019b7          	lui	s3,0x1
    5f68:	413409b3          	sub	s3,s0,s3
    5f6c:	7789b983          	ld	s3,1912(s3) # 1778 <.LBB64_5+0x70>
    5f70:	01350533          	add	a0,a0,s3
    5f74:	00f50533          	add	a0,a0,a5
    5f78:	1005051b          	addiw	a0,a0,256
    5f7c:	400007b7          	lui	a5,0x40000
    5f80:	88a43423          	sd	a0,-1912(s0)
    5f84:	00055463          	bgez	a0,5f8c <.LBB64_326>
    5f88:	c00007b7          	lui	a5,0xc0000

0000000000005f8c <.LBB64_326>:
    5f8c:	88f43023          	sd	a5,-1920(s0)
    5f90:	b8043503          	ld	a0,-1152(s0)
    5f94:	e8043783          	ld	a5,-384(s0)
    5f98:	00f50533          	add	a0,a0,a5
    5f9c:	e7843783          	ld	a5,-392(s0)
    5fa0:	00f50533          	add	a0,a0,a5
    5fa4:	01450533          	add	a0,a0,s4
    5fa8:	1005051b          	addiw	a0,a0,256
    5fac:	400000b7          	lui	ra,0x40000
    5fb0:	e0843783          	ld	a5,-504(s0)
    5fb4:	8aa43023          	sd	a0,-1888(s0)
    5fb8:	00055463          	bgez	a0,5fc0 <.LBB64_328>
    5fbc:	c00000b7          	lui	ra,0xc0000

0000000000005fc0 <.LBB64_328>:
    5fc0:	88143823          	sd	ra,-1904(s0)
    5fc4:	b8843503          	ld	a0,-1144(s0)
    5fc8:	e7043983          	ld	s3,-400(s0)
    5fcc:	01350533          	add	a0,a0,s3
    5fd0:	e6843983          	ld	s3,-408(s0)
    5fd4:	01350533          	add	a0,a0,s3
    5fd8:	01450533          	add	a0,a0,s4
    5fdc:	1005051b          	addiw	a0,a0,256
    5fe0:	400000b7          	lui	ra,0x40000
    5fe4:	8aa43823          	sd	a0,-1872(s0)
    5fe8:	00055463          	bgez	a0,5ff0 <.LBB64_330>
    5fec:	c00000b7          	lui	ra,0xc0000

0000000000005ff0 <.LBB64_330>:
    5ff0:	8a143423          	sd	ra,-1880(s0)
    5ff4:	b9043503          	ld	a0,-1136(s0)
    5ff8:	e6043983          	ld	s3,-416(s0)
    5ffc:	01350533          	add	a0,a0,s3
    6000:	e5843983          	ld	s3,-424(s0)
    6004:	01350533          	add	a0,a0,s3
    6008:	01450533          	add	a0,a0,s4
    600c:	1005051b          	addiw	a0,a0,256
    6010:	400000b7          	lui	ra,0x40000
    6014:	8ca43023          	sd	a0,-1856(s0)
    6018:	00055463          	bgez	a0,6020 <.LBB64_332>
    601c:	c00000b7          	lui	ra,0xc0000

0000000000006020 <.LBB64_332>:
    6020:	8a143c23          	sd	ra,-1864(s0)
    6024:	b9843503          	ld	a0,-1128(s0)
    6028:	e5043983          	ld	s3,-432(s0)
    602c:	01350533          	add	a0,a0,s3
    6030:	e4843983          	ld	s3,-440(s0)
    6034:	01350533          	add	a0,a0,s3
    6038:	01450533          	add	a0,a0,s4
    603c:	1005051b          	addiw	a0,a0,256
    6040:	400000b7          	lui	ra,0x40000
    6044:	8ca43823          	sd	a0,-1840(s0)
    6048:	00055463          	bgez	a0,6050 <.LBB64_334>
    604c:	c00000b7          	lui	ra,0xc0000

0000000000006050 <.LBB64_334>:
    6050:	8c143423          	sd	ra,-1848(s0)
    6054:	ba043503          	ld	a0,-1120(s0)
    6058:	e4043983          	ld	s3,-448(s0)
    605c:	01350533          	add	a0,a0,s3
    6060:	e3843983          	ld	s3,-456(s0)
    6064:	01350533          	add	a0,a0,s3
    6068:	01450533          	add	a0,a0,s4
    606c:	1005051b          	addiw	a0,a0,256
    6070:	400000b7          	lui	ra,0x40000
    6074:	8ea43423          	sd	a0,-1816(s0)
    6078:	00055463          	bgez	a0,6080 <.LBB64_336>
    607c:	c00000b7          	lui	ra,0xc0000

0000000000006080 <.LBB64_336>:
    6080:	8e143023          	sd	ra,-1824(s0)
    6084:	ba843503          	ld	a0,-1112(s0)
    6088:	e3043983          	ld	s3,-464(s0)
    608c:	01350533          	add	a0,a0,s3
    6090:	000019b7          	lui	s3,0x1
    6094:	413409b3          	sub	s3,s0,s3
    6098:	6d09b983          	ld	s3,1744(s3) # 16d0 <.LBB64_4+0x564>
    609c:	01350533          	add	a0,a0,s3
    60a0:	01450533          	add	a0,a0,s4
    60a4:	1005051b          	addiw	a0,a0,256
    60a8:	400000b7          	lui	ra,0x40000
    60ac:	8ea43c23          	sd	a0,-1800(s0)
    60b0:	00055463          	bgez	a0,60b8 <.LBB64_338>
    60b4:	c00000b7          	lui	ra,0xc0000

00000000000060b8 <.LBB64_338>:
    60b8:	8e143823          	sd	ra,-1808(s0)
    60bc:	bb043503          	ld	a0,-1104(s0)
    60c0:	000019b7          	lui	s3,0x1
    60c4:	413409b3          	sub	s3,s0,s3
    60c8:	6c89b983          	ld	s3,1736(s3) # 16c8 <.LBB64_4+0x55c>
    60cc:	01350533          	add	a0,a0,s3
    60d0:	000019b7          	lui	s3,0x1
    60d4:	413409b3          	sub	s3,s0,s3
    60d8:	6c09b983          	ld	s3,1728(s3) # 16c0 <.LBB64_4+0x554>
    60dc:	01350533          	add	a0,a0,s3
    60e0:	01450533          	add	a0,a0,s4
    60e4:	1005051b          	addiw	a0,a0,256
    60e8:	400000b7          	lui	ra,0x40000
    60ec:	90a43423          	sd	a0,-1784(s0)
    60f0:	00055463          	bgez	a0,60f8 <.LBB64_340>
    60f4:	c00000b7          	lui	ra,0xc0000

00000000000060f8 <.LBB64_340>:
    60f8:	90143023          	sd	ra,-1792(s0)
    60fc:	bb843503          	ld	a0,-1096(s0)
    6100:	000019b7          	lui	s3,0x1
    6104:	413409b3          	sub	s3,s0,s3
    6108:	6b89b983          	ld	s3,1720(s3) # 16b8 <.LBB64_4+0x54c>
    610c:	01350533          	add	a0,a0,s3
    6110:	000019b7          	lui	s3,0x1
    6114:	413409b3          	sub	s3,s0,s3
    6118:	6b09b983          	ld	s3,1712(s3) # 16b0 <.LBB64_4+0x544>
    611c:	01350533          	add	a0,a0,s3
    6120:	01450533          	add	a0,a0,s4
    6124:	1005051b          	addiw	a0,a0,256
    6128:	400000b7          	lui	ra,0x40000
    612c:	90a43c23          	sd	a0,-1768(s0)
    6130:	00055463          	bgez	a0,6138 <.LBB64_342>
    6134:	c00000b7          	lui	ra,0xc0000

0000000000006138 <.LBB64_342>:
    6138:	90143823          	sd	ra,-1776(s0)
    613c:	bc043503          	ld	a0,-1088(s0)
    6140:	000019b7          	lui	s3,0x1
    6144:	413409b3          	sub	s3,s0,s3
    6148:	6a89b983          	ld	s3,1704(s3) # 16a8 <.LBB64_4+0x53c>
    614c:	01350533          	add	a0,a0,s3
    6150:	000019b7          	lui	s3,0x1
    6154:	413409b3          	sub	s3,s0,s3
    6158:	6a09b983          	ld	s3,1696(s3) # 16a0 <.LBB64_4+0x534>
    615c:	01350533          	add	a0,a0,s3
    6160:	01450533          	add	a0,a0,s4
    6164:	1005051b          	addiw	a0,a0,256
    6168:	400000b7          	lui	ra,0x40000
    616c:	92a43823          	sd	a0,-1744(s0)
    6170:	00055463          	bgez	a0,6178 <.LBB64_344>
    6174:	c00000b7          	lui	ra,0xc0000

0000000000006178 <.LBB64_344>:
    6178:	92143423          	sd	ra,-1752(s0)
    617c:	bc843503          	ld	a0,-1080(s0)
    6180:	000019b7          	lui	s3,0x1
    6184:	413409b3          	sub	s3,s0,s3
    6188:	6989b983          	ld	s3,1688(s3) # 1698 <.LBB64_4+0x52c>
    618c:	01350533          	add	a0,a0,s3
    6190:	000019b7          	lui	s3,0x1
    6194:	413409b3          	sub	s3,s0,s3
    6198:	6d89b983          	ld	s3,1752(s3) # 16d8 <.LBB64_4+0x56c>
    619c:	01350533          	add	a0,a0,s3
    61a0:	01450533          	add	a0,a0,s4
    61a4:	1005051b          	addiw	a0,a0,256
    61a8:	400000b7          	lui	ra,0x40000
    61ac:	94a43023          	sd	a0,-1728(s0)
    61b0:	00055463          	bgez	a0,61b8 <.LBB64_346>
    61b4:	c00000b7          	lui	ra,0xc0000

00000000000061b8 <.LBB64_346>:
    61b8:	92143c23          	sd	ra,-1736(s0)
    61bc:	bd043503          	ld	a0,-1072(s0)
    61c0:	e8843983          	ld	s3,-376(s0)
    61c4:	01350533          	add	a0,a0,s3
    61c8:	000019b7          	lui	s3,0x1
    61cc:	413409b3          	sub	s3,s0,s3
    61d0:	6e09b983          	ld	s3,1760(s3) # 16e0 <.LBB64_4+0x574>
    61d4:	01350533          	add	a0,a0,s3
    61d8:	01450533          	add	a0,a0,s4
    61dc:	1005051b          	addiw	a0,a0,256
    61e0:	400000b7          	lui	ra,0x40000
    61e4:	bc143823          	sd	ra,-1072(s0)
    61e8:	94a43423          	sd	a0,-1720(s0)
    61ec:	00055663          	bgez	a0,61f8 <.LBB64_348>
    61f0:	c0000537          	lui	a0,0xc0000
    61f4:	bca43823          	sd	a0,-1072(s0)

00000000000061f8 <.LBB64_348>:
    61f8:	e9043503          	ld	a0,-368(s0)
    61fc:	00af8533          	add	a0,t6,a0
    6200:	00001fb7          	lui	t6,0x1
    6204:	41f40fb3          	sub	t6,s0,t6
    6208:	6e8fbf83          	ld	t6,1768(t6) # 16e8 <.LBB64_4+0x57c>
    620c:	01f50533          	add	a0,a0,t6
    6210:	01450533          	add	a0,a0,s4
    6214:	1005051b          	addiw	a0,a0,256 # ffffffffc0000100 <.Lfunc_end80+0xffffffffbffd7734>
    6218:	40000fb7          	lui	t6,0x40000
    621c:	96a43023          	sd	a0,-1696(s0)
    6220:	000019b7          	lui	s3,0x1
    6224:	413409b3          	sub	s3,s0,s3
    6228:	d889b983          	ld	s3,-632(s3) # d88 <.LBB64_3+0xb70>
    622c:	00055463          	bgez	a0,6234 <.LBB64_350>
    6230:	c0000fb7          	lui	t6,0xc0000

0000000000006234 <.LBB64_350>:
    6234:	95f43823          	sd	t6,-1712(s0)
    6238:	be043503          	ld	a0,-1056(s0)
    623c:	e9843f83          	ld	t6,-360(s0)
    6240:	01f50533          	add	a0,a0,t6
    6244:	00001fb7          	lui	t6,0x1
    6248:	41f40fb3          	sub	t6,s0,t6
    624c:	6f0fbf83          	ld	t6,1776(t6) # 16f0 <.LBB64_4+0x584>
    6250:	01f50533          	add	a0,a0,t6
    6254:	01450533          	add	a0,a0,s4
    6258:	1005051b          	addiw	a0,a0,256
    625c:	40000fb7          	lui	t6,0x40000
    6260:	96a43823          	sd	a0,-1680(s0)
    6264:	00055463          	bgez	a0,626c <.LBB64_352>
    6268:	c0000fb7          	lui	t6,0xc0000

000000000000626c <.LBB64_352>:
    626c:	97f43423          	sd	t6,-1688(s0)
    6270:	be843503          	ld	a0,-1048(s0)
    6274:	ea043f83          	ld	t6,-352(s0)
    6278:	01f50533          	add	a0,a0,t6
    627c:	01a50533          	add	a0,a0,s10
    6280:	01450533          	add	a0,a0,s4
    6284:	1005051b          	addiw	a0,a0,256
    6288:	40000fb7          	lui	t6,0x40000
    628c:	98a43023          	sd	a0,-1664(s0)
    6290:	00055463          	bgez	a0,6298 <.LBB64_354>
    6294:	c0000fb7          	lui	t6,0xc0000

0000000000006298 <.LBB64_354>:
    6298:	97f43c23          	sd	t6,-1672(s0)
    629c:	bf043503          	ld	a0,-1040(s0)
    62a0:	ea843f83          	ld	t6,-344(s0)
    62a4:	01f50533          	add	a0,a0,t6
    62a8:	00001fb7          	lui	t6,0x1
    62ac:	41f40fb3          	sub	t6,s0,t6
    62b0:	700fbf83          	ld	t6,1792(t6) # 1700 <.LBB64_4+0x594>
    62b4:	01f50533          	add	a0,a0,t6
    62b8:	01450533          	add	a0,a0,s4
    62bc:	1005051b          	addiw	a0,a0,256
    62c0:	40000fb7          	lui	t6,0x40000
    62c4:	98a43823          	sd	a0,-1648(s0)
    62c8:	00055463          	bgez	a0,62d0 <.LBB64_356>
    62cc:	c0000fb7          	lui	t6,0xc0000

00000000000062d0 <.LBB64_356>:
    62d0:	99f43423          	sd	t6,-1656(s0)
    62d4:	bf843503          	ld	a0,-1032(s0)
    62d8:	eb043f83          	ld	t6,-336(s0)
    62dc:	01f50533          	add	a0,a0,t6
    62e0:	00001fb7          	lui	t6,0x1
    62e4:	41f40fb3          	sub	t6,s0,t6
    62e8:	708fbf83          	ld	t6,1800(t6) # 1708 <.LBB64_5>
    62ec:	01f50533          	add	a0,a0,t6
    62f0:	01450533          	add	a0,a0,s4
    62f4:	1005051b          	addiw	a0,a0,256
    62f8:	40000fb7          	lui	t6,0x40000
    62fc:	9aa43423          	sd	a0,-1624(s0)
    6300:	00055463          	bgez	a0,6308 <.LBB64_358>
    6304:	c0000fb7          	lui	t6,0xc0000

0000000000006308 <.LBB64_358>:
    6308:	9bf43023          	sd	t6,-1632(s0)
    630c:	c0043503          	ld	a0,-1024(s0)
    6310:	eb843f83          	ld	t6,-328(s0)
    6314:	01f50533          	add	a0,a0,t6
    6318:	00001fb7          	lui	t6,0x1
    631c:	41f40fb3          	sub	t6,s0,t6
    6320:	710fbf83          	ld	t6,1808(t6) # 1710 <.LBB64_5+0x8>
    6324:	01f50533          	add	a0,a0,t6
    6328:	01450533          	add	a0,a0,s4
    632c:	1005051b          	addiw	a0,a0,256
    6330:	40000fb7          	lui	t6,0x40000
    6334:	9aa43c23          	sd	a0,-1608(s0)
    6338:	00055463          	bgez	a0,6340 <.LBB64_360>
    633c:	c0000fb7          	lui	t6,0xc0000

0000000000006340 <.LBB64_360>:
    6340:	9bf43823          	sd	t6,-1616(s0)
    6344:	c0843503          	ld	a0,-1016(s0)
    6348:	ec043f83          	ld	t6,-320(s0)
    634c:	01f50533          	add	a0,a0,t6
    6350:	00001fb7          	lui	t6,0x1
    6354:	41f40fb3          	sub	t6,s0,t6
    6358:	718fbf83          	ld	t6,1816(t6) # 1718 <.LBB64_5+0x10>
    635c:	01f50533          	add	a0,a0,t6
    6360:	01450533          	add	a0,a0,s4
    6364:	1005051b          	addiw	a0,a0,256
    6368:	40000fb7          	lui	t6,0x40000
    636c:	9ca43423          	sd	a0,-1592(s0)
    6370:	00055463          	bgez	a0,6378 <.LBB64_362>
    6374:	c0000fb7          	lui	t6,0xc0000

0000000000006378 <.LBB64_362>:
    6378:	9df43023          	sd	t6,-1600(s0)
    637c:	c1043503          	ld	a0,-1008(s0)
    6380:	f1843f83          	ld	t6,-232(s0)
    6384:	01f50533          	add	a0,a0,t6
    6388:	00001fb7          	lui	t6,0x1
    638c:	41f40fb3          	sub	t6,s0,t6
    6390:	720fbf83          	ld	t6,1824(t6) # 1720 <.LBB64_5+0x18>
    6394:	01f50533          	add	a0,a0,t6
    6398:	01450533          	add	a0,a0,s4
    639c:	1005051b          	addiw	a0,a0,256
    63a0:	40000fb7          	lui	t6,0x40000
    63a4:	9ca43c23          	sd	a0,-1576(s0)
    63a8:	00055463          	bgez	a0,63b0 <.LBB64_364>
    63ac:	c0000fb7          	lui	t6,0xc0000

00000000000063b0 <.LBB64_364>:
    63b0:	9df43823          	sd	t6,-1584(s0)
    63b4:	c1843503          	ld	a0,-1000(s0)
    63b8:	f2043f83          	ld	t6,-224(s0)
    63bc:	01f50533          	add	a0,a0,t6
    63c0:	00001fb7          	lui	t6,0x1
    63c4:	41f40fb3          	sub	t6,s0,t6
    63c8:	728fbf83          	ld	t6,1832(t6) # 1728 <.LBB64_5+0x20>
    63cc:	01f50533          	add	a0,a0,t6
    63d0:	01450533          	add	a0,a0,s4
    63d4:	1005051b          	addiw	a0,a0,256
    63d8:	40000fb7          	lui	t6,0x40000
    63dc:	9ea43823          	sd	a0,-1552(s0)
    63e0:	00055463          	bgez	a0,63e8 <.LBB64_366>
    63e4:	c0000fb7          	lui	t6,0xc0000

00000000000063e8 <.LBB64_366>:
    63e8:	9ff43423          	sd	t6,-1560(s0)
    63ec:	c2043503          	ld	a0,-992(s0)
    63f0:	f2843f83          	ld	t6,-216(s0)
    63f4:	01f50533          	add	a0,a0,t6
    63f8:	00001fb7          	lui	t6,0x1
    63fc:	41f40fb3          	sub	t6,s0,t6
    6400:	730fbf83          	ld	t6,1840(t6) # 1730 <.LBB64_5+0x28>
    6404:	01f50533          	add	a0,a0,t6
    6408:	01450533          	add	a0,a0,s4
    640c:	1005051b          	addiw	a0,a0,256
    6410:	40000fb7          	lui	t6,0x40000
    6414:	a0a43023          	sd	a0,-1536(s0)
    6418:	00055463          	bgez	a0,6420 <.LBB64_368>
    641c:	c0000fb7          	lui	t6,0xc0000

0000000000006420 <.LBB64_368>:
    6420:	9ff43c23          	sd	t6,-1544(s0)
    6424:	c2843503          	ld	a0,-984(s0)
    6428:	f3043f83          	ld	t6,-208(s0)
    642c:	01f50533          	add	a0,a0,t6
    6430:	00001fb7          	lui	t6,0x1
    6434:	41f40fb3          	sub	t6,s0,t6
    6438:	738fbf83          	ld	t6,1848(t6) # 1738 <.LBB64_5+0x30>
    643c:	01f50533          	add	a0,a0,t6
    6440:	01450533          	add	a0,a0,s4
    6444:	1005051b          	addiw	a0,a0,256
    6448:	40000fb7          	lui	t6,0x40000
    644c:	a0a43823          	sd	a0,-1520(s0)
    6450:	00055463          	bgez	a0,6458 <.LBB64_370>
    6454:	c0000fb7          	lui	t6,0xc0000

0000000000006458 <.LBB64_370>:
    6458:	a1f43423          	sd	t6,-1528(s0)
    645c:	c3043503          	ld	a0,-976(s0)
    6460:	f3843f83          	ld	t6,-200(s0)
    6464:	01f50533          	add	a0,a0,t6
    6468:	00001fb7          	lui	t6,0x1
    646c:	41f40fb3          	sub	t6,s0,t6
    6470:	740fbf83          	ld	t6,1856(t6) # 1740 <.LBB64_5+0x38>
    6474:	01f50533          	add	a0,a0,t6
    6478:	01450533          	add	a0,a0,s4
    647c:	1005051b          	addiw	a0,a0,256
    6480:	40000fb7          	lui	t6,0x40000
    6484:	a2a43423          	sd	a0,-1496(s0)
    6488:	00055463          	bgez	a0,6490 <.LBB64_372>
    648c:	c0000fb7          	lui	t6,0xc0000

0000000000006490 <.LBB64_372>:
    6490:	a1f43c23          	sd	t6,-1512(s0)
    6494:	c3843503          	ld	a0,-968(s0)
    6498:	f4043f83          	ld	t6,-192(s0)
    649c:	01f50533          	add	a0,a0,t6
    64a0:	00001fb7          	lui	t6,0x1
    64a4:	41f40fb3          	sub	t6,s0,t6
    64a8:	6f8fbf83          	ld	t6,1784(t6) # 16f8 <.LBB64_4+0x58c>
    64ac:	01f50533          	add	a0,a0,t6
    64b0:	01450533          	add	a0,a0,s4
    64b4:	1005051b          	addiw	a0,a0,256
    64b8:	40000fb7          	lui	t6,0x40000
    64bc:	a2a43c23          	sd	a0,-1480(s0)
    64c0:	00055463          	bgez	a0,64c8 <.LBB64_374>
    64c4:	c0000fb7          	lui	t6,0xc0000

00000000000064c8 <.LBB64_374>:
    64c8:	a3f43823          	sd	t6,-1488(s0)
    64cc:	c4043503          	ld	a0,-960(s0)
    64d0:	f4843f83          	ld	t6,-184(s0)
    64d4:	01f50533          	add	a0,a0,t6
    64d8:	00001fb7          	lui	t6,0x1
    64dc:	41f40fb3          	sub	t6,s0,t6
    64e0:	748fbf83          	ld	t6,1864(t6) # 1748 <.LBB64_5+0x40>
    64e4:	01f50533          	add	a0,a0,t6
    64e8:	01450533          	add	a0,a0,s4
    64ec:	1005051b          	addiw	a0,a0,256
    64f0:	40000fb7          	lui	t6,0x40000
    64f4:	a4a43423          	sd	a0,-1464(s0)
    64f8:	00055463          	bgez	a0,6500 <.LBB64_376>
    64fc:	c0000fb7          	lui	t6,0xc0000

0000000000006500 <.LBB64_376>:
    6500:	a5f43023          	sd	t6,-1472(s0)
    6504:	c4843503          	ld	a0,-952(s0)
    6508:	f5043f83          	ld	t6,-176(s0)
    650c:	01f50533          	add	a0,a0,t6
    6510:	00001fb7          	lui	t6,0x1
    6514:	41f40fb3          	sub	t6,s0,t6
    6518:	750fbf83          	ld	t6,1872(t6) # 1750 <.LBB64_5+0x48>
    651c:	01f50533          	add	a0,a0,t6
    6520:	01450533          	add	a0,a0,s4
    6524:	1005051b          	addiw	a0,a0,256
    6528:	40000fb7          	lui	t6,0x40000
    652c:	a4a43c23          	sd	a0,-1448(s0)
    6530:	00055463          	bgez	a0,6538 <.LBB64_378>
    6534:	c0000fb7          	lui	t6,0xc0000

0000000000006538 <.LBB64_378>:
    6538:	a5f43823          	sd	t6,-1456(s0)
    653c:	c5043503          	ld	a0,-944(s0)
    6540:	f5843f83          	ld	t6,-168(s0)
    6544:	01f50533          	add	a0,a0,t6
    6548:	00001fb7          	lui	t6,0x1
    654c:	41f40fb3          	sub	t6,s0,t6
    6550:	758fbf83          	ld	t6,1880(t6) # 1758 <.LBB64_5+0x50>
    6554:	01f50533          	add	a0,a0,t6
    6558:	01450533          	add	a0,a0,s4
    655c:	1005051b          	addiw	a0,a0,256
    6560:	40000fb7          	lui	t6,0x40000
    6564:	a6a43823          	sd	a0,-1424(s0)
    6568:	00055463          	bgez	a0,6570 <.LBB64_380>
    656c:	c0000fb7          	lui	t6,0xc0000

0000000000006570 <.LBB64_380>:
    6570:	a7f43423          	sd	t6,-1432(s0)
    6574:	c5843503          	ld	a0,-936(s0)
    6578:	f6043f83          	ld	t6,-160(s0)
    657c:	01f50533          	add	a0,a0,t6
    6580:	00001fb7          	lui	t6,0x1
    6584:	41f40fb3          	sub	t6,s0,t6
    6588:	760fbf83          	ld	t6,1888(t6) # 1760 <.LBB64_5+0x58>
    658c:	01f50533          	add	a0,a0,t6
    6590:	01450533          	add	a0,a0,s4
    6594:	1005051b          	addiw	a0,a0,256
    6598:	40000fb7          	lui	t6,0x40000
    659c:	a8a43023          	sd	a0,-1408(s0)
    65a0:	00055463          	bgez	a0,65a8 <.LBB64_382>
    65a4:	c0000fb7          	lui	t6,0xc0000

00000000000065a8 <.LBB64_382>:
    65a8:	a7f43c23          	sd	t6,-1416(s0)
    65ac:	c6043503          	ld	a0,-928(s0)
    65b0:	f6843f83          	ld	t6,-152(s0)
    65b4:	01f50533          	add	a0,a0,t6
    65b8:	00001fb7          	lui	t6,0x1
    65bc:	41f40fb3          	sub	t6,s0,t6
    65c0:	690fbf83          	ld	t6,1680(t6) # 1690 <.LBB64_4+0x524>
    65c4:	01f50533          	add	a0,a0,t6
    65c8:	01450533          	add	a0,a0,s4
    65cc:	1005051b          	addiw	a0,a0,256
    65d0:	40000fb7          	lui	t6,0x40000
    65d4:	a8a43823          	sd	a0,-1392(s0)
    65d8:	00055463          	bgez	a0,65e0 <.LBB64_384>
    65dc:	c0000fb7          	lui	t6,0xc0000

00000000000065e0 <.LBB64_384>:
    65e0:	a9f43423          	sd	t6,-1400(s0)
    65e4:	c6843503          	ld	a0,-920(s0)
    65e8:	f7043f83          	ld	t6,-144(s0)
    65ec:	01f50533          	add	a0,a0,t6
    65f0:	00001fb7          	lui	t6,0x1
    65f4:	41f40fb3          	sub	t6,s0,t6
    65f8:	768fbf83          	ld	t6,1896(t6) # 1768 <.LBB64_5+0x60>
    65fc:	01f50533          	add	a0,a0,t6
    6600:	01450533          	add	a0,a0,s4
    6604:	1005051b          	addiw	a0,a0,256
    6608:	40000fb7          	lui	t6,0x40000
    660c:	aaa43023          	sd	a0,-1376(s0)
    6610:	00055463          	bgez	a0,6618 <.LBB64_386>
    6614:	c0000fb7          	lui	t6,0xc0000

0000000000006618 <.LBB64_386>:
    6618:	a9f43c23          	sd	t6,-1384(s0)
    661c:	c7043503          	ld	a0,-912(s0)
    6620:	f7843f83          	ld	t6,-136(s0)
    6624:	01f50533          	add	a0,a0,t6
    6628:	00001fb7          	lui	t6,0x1
    662c:	41f40fb3          	sub	t6,s0,t6
    6630:	770fbf83          	ld	t6,1904(t6) # 1770 <.LBB64_5+0x68>
    6634:	01f50533          	add	a0,a0,t6
    6638:	01450533          	add	a0,a0,s4
    663c:	1005051b          	addiw	a0,a0,256
    6640:	40000fb7          	lui	t6,0x40000
    6644:	aaa43c23          	sd	a0,-1352(s0)
    6648:	00055463          	bgez	a0,6650 <.LBB64_388>
    664c:	c0000fb7          	lui	t6,0xc0000

0000000000006650 <.LBB64_388>:
    6650:	abf43823          	sd	t6,-1360(s0)
    6654:	c7843503          	ld	a0,-904(s0)
    6658:	f8043f83          	ld	t6,-128(s0)
    665c:	01f50533          	add	a0,a0,t6
    6660:	00001fb7          	lui	t6,0x1
    6664:	41f40fb3          	sub	t6,s0,t6
    6668:	778fbf83          	ld	t6,1912(t6) # 1778 <.LBB64_5+0x70>
    666c:	01f50533          	add	a0,a0,t6
    6670:	01450533          	add	a0,a0,s4
    6674:	1005051b          	addiw	a0,a0,256
    6678:	40000fb7          	lui	t6,0x40000
    667c:	aca43423          	sd	a0,-1336(s0)
    6680:	00055463          	bgez	a0,6688 <.LBB64_390>
    6684:	c0000fb7          	lui	t6,0xc0000

0000000000006688 <.LBB64_390>:
    6688:	adf43023          	sd	t6,-1344(s0)
    668c:	c8043503          	ld	a0,-896(s0)
    6690:	e8043f83          	ld	t6,-384(s0)
    6694:	01f50533          	add	a0,a0,t6
    6698:	e7843f83          	ld	t6,-392(s0)
    669c:	01f50533          	add	a0,a0,t6
    66a0:	01350533          	add	a0,a0,s3
    66a4:	1005051b          	addiw	a0,a0,256
    66a8:	40000fb7          	lui	t6,0x40000
    66ac:	aca43c23          	sd	a0,-1320(s0)
    66b0:	00055463          	bgez	a0,66b8 <.LBB64_392>
    66b4:	c0000fb7          	lui	t6,0xc0000

00000000000066b8 <.LBB64_392>:
    66b8:	adf43823          	sd	t6,-1328(s0)
    66bc:	c8843503          	ld	a0,-888(s0)
    66c0:	e7043f83          	ld	t6,-400(s0)
    66c4:	01f50533          	add	a0,a0,t6
    66c8:	e6843f83          	ld	t6,-408(s0)
    66cc:	01f50533          	add	a0,a0,t6
    66d0:	01350533          	add	a0,a0,s3
    66d4:	1005051b          	addiw	a0,a0,256
    66d8:	40000fb7          	lui	t6,0x40000
    66dc:	aea43823          	sd	a0,-1296(s0)
    66e0:	00055463          	bgez	a0,66e8 <.LBB64_394>
    66e4:	c0000fb7          	lui	t6,0xc0000

00000000000066e8 <.LBB64_394>:
    66e8:	aff43023          	sd	t6,-1312(s0)
    66ec:	c9043503          	ld	a0,-880(s0)
    66f0:	e6043f83          	ld	t6,-416(s0)
    66f4:	01f50533          	add	a0,a0,t6
    66f8:	e5843f83          	ld	t6,-424(s0)
    66fc:	01f50533          	add	a0,a0,t6
    6700:	01350533          	add	a0,a0,s3
    6704:	1005051b          	addiw	a0,a0,256
    6708:	40000fb7          	lui	t6,0x40000
    670c:	b0a43823          	sd	a0,-1264(s0)
    6710:	00055463          	bgez	a0,6718 <.LBB64_396>
    6714:	c0000fb7          	lui	t6,0xc0000

0000000000006718 <.LBB64_396>:
    6718:	b1f43023          	sd	t6,-1280(s0)
    671c:	c9843503          	ld	a0,-872(s0)
    6720:	e5043f83          	ld	t6,-432(s0)
    6724:	01f50533          	add	a0,a0,t6
    6728:	e4843f83          	ld	t6,-440(s0)
    672c:	01f50533          	add	a0,a0,t6
    6730:	01350533          	add	a0,a0,s3
    6734:	1005051b          	addiw	a0,a0,256
    6738:	40000fb7          	lui	t6,0x40000
    673c:	b2a43023          	sd	a0,-1248(s0)
    6740:	00055463          	bgez	a0,6748 <.LBB64_398>
    6744:	c0000fb7          	lui	t6,0xc0000

0000000000006748 <.LBB64_398>:
    6748:	b1f43c23          	sd	t6,-1256(s0)
    674c:	ca043503          	ld	a0,-864(s0)
    6750:	e4043f83          	ld	t6,-448(s0)
    6754:	01f50533          	add	a0,a0,t6
    6758:	e3843f83          	ld	t6,-456(s0)
    675c:	01f50533          	add	a0,a0,t6
    6760:	01350533          	add	a0,a0,s3
    6764:	1005051b          	addiw	a0,a0,256
    6768:	40000fb7          	lui	t6,0x40000
    676c:	b2a43823          	sd	a0,-1232(s0)
    6770:	00055463          	bgez	a0,6778 <.LBB64_400>
    6774:	c0000fb7          	lui	t6,0xc0000

0000000000006778 <.LBB64_400>:
    6778:	b3f43423          	sd	t6,-1240(s0)
    677c:	ca843503          	ld	a0,-856(s0)
    6780:	e3043f83          	ld	t6,-464(s0)
    6784:	01f50533          	add	a0,a0,t6
    6788:	00001fb7          	lui	t6,0x1
    678c:	41f40fb3          	sub	t6,s0,t6
    6790:	6d0fbf83          	ld	t6,1744(t6) # 16d0 <.LBB64_4+0x564>
    6794:	01f50533          	add	a0,a0,t6
    6798:	01350533          	add	a0,a0,s3
    679c:	1005051b          	addiw	a0,a0,256
    67a0:	40000fb7          	lui	t6,0x40000
    67a4:	b4a43823          	sd	a0,-1200(s0)
    67a8:	00055463          	bgez	a0,67b0 <.LBB64_402>
    67ac:	c0000fb7          	lui	t6,0xc0000

00000000000067b0 <.LBB64_402>:
    67b0:	b5f43423          	sd	t6,-1208(s0)
    67b4:	cb043503          	ld	a0,-848(s0)
    67b8:	00001fb7          	lui	t6,0x1
    67bc:	41f40fb3          	sub	t6,s0,t6
    67c0:	6c8fbf83          	ld	t6,1736(t6) # 16c8 <.LBB64_4+0x55c>
    67c4:	01f50533          	add	a0,a0,t6
    67c8:	00001fb7          	lui	t6,0x1
    67cc:	41f40fb3          	sub	t6,s0,t6
    67d0:	6c0fbf83          	ld	t6,1728(t6) # 16c0 <.LBB64_4+0x554>
    67d4:	01f50533          	add	a0,a0,t6
    67d8:	01350533          	add	a0,a0,s3
    67dc:	1005051b          	addiw	a0,a0,256
    67e0:	40000fb7          	lui	t6,0x40000
    67e4:	b6a43023          	sd	a0,-1184(s0)
    67e8:	00055463          	bgez	a0,67f0 <.LBB64_404>
    67ec:	c0000fb7          	lui	t6,0xc0000

00000000000067f0 <.LBB64_404>:
    67f0:	b5f43c23          	sd	t6,-1192(s0)
    67f4:	cb843503          	ld	a0,-840(s0)
    67f8:	00001fb7          	lui	t6,0x1
    67fc:	41f40fb3          	sub	t6,s0,t6
    6800:	6b8fbf83          	ld	t6,1720(t6) # 16b8 <.LBB64_4+0x54c>
    6804:	01f50533          	add	a0,a0,t6
    6808:	00001fb7          	lui	t6,0x1
    680c:	41f40fb3          	sub	t6,s0,t6
    6810:	6b0fbf83          	ld	t6,1712(t6) # 16b0 <.LBB64_4+0x544>
    6814:	01f50533          	add	a0,a0,t6
    6818:	01350533          	add	a0,a0,s3
    681c:	1005051b          	addiw	a0,a0,256
    6820:	40000fb7          	lui	t6,0x40000
    6824:	b6a43823          	sd	a0,-1168(s0)
    6828:	00055463          	bgez	a0,6830 <.LBB64_406>
    682c:	c0000fb7          	lui	t6,0xc0000

0000000000006830 <.LBB64_406>:
    6830:	b7f43423          	sd	t6,-1176(s0)
    6834:	cc043503          	ld	a0,-832(s0)
    6838:	00001fb7          	lui	t6,0x1
    683c:	41f40fb3          	sub	t6,s0,t6
    6840:	6a8fbf83          	ld	t6,1704(t6) # 16a8 <.LBB64_4+0x53c>
    6844:	01f50533          	add	a0,a0,t6
    6848:	00001fb7          	lui	t6,0x1
    684c:	41f40fb3          	sub	t6,s0,t6
    6850:	6a0fbf83          	ld	t6,1696(t6) # 16a0 <.LBB64_4+0x534>
    6854:	01f50533          	add	a0,a0,t6
    6858:	01350533          	add	a0,a0,s3
    685c:	1005051b          	addiw	a0,a0,256
    6860:	40000fb7          	lui	t6,0x40000
    6864:	b8a43023          	sd	a0,-1152(s0)
    6868:	00055463          	bgez	a0,6870 <.LBB64_408>
    686c:	c0000fb7          	lui	t6,0xc0000

0000000000006870 <.LBB64_408>:
    6870:	b7f43c23          	sd	t6,-1160(s0)
    6874:	cc843503          	ld	a0,-824(s0)
    6878:	00001fb7          	lui	t6,0x1
    687c:	41f40fb3          	sub	t6,s0,t6
    6880:	698fbf83          	ld	t6,1688(t6) # 1698 <.LBB64_4+0x52c>
    6884:	01f50533          	add	a0,a0,t6
    6888:	00001fb7          	lui	t6,0x1
    688c:	41f40fb3          	sub	t6,s0,t6
    6890:	6d8fbf83          	ld	t6,1752(t6) # 16d8 <.LBB64_4+0x56c>
    6894:	01f50533          	add	a0,a0,t6
    6898:	01350533          	add	a0,a0,s3
    689c:	1005051b          	addiw	a0,a0,256
    68a0:	40000fb7          	lui	t6,0x40000
    68a4:	b8a43c23          	sd	a0,-1128(s0)
    68a8:	00055463          	bgez	a0,68b0 <.LBB64_410>
    68ac:	c0000fb7          	lui	t6,0xc0000

00000000000068b0 <.LBB64_410>:
    68b0:	b9f43823          	sd	t6,-1136(s0)
    68b4:	cd043503          	ld	a0,-816(s0)
    68b8:	e8843f83          	ld	t6,-376(s0)
    68bc:	01f50533          	add	a0,a0,t6
    68c0:	00001fb7          	lui	t6,0x1
    68c4:	41f40fb3          	sub	t6,s0,t6
    68c8:	6e0fbf83          	ld	t6,1760(t6) # 16e0 <.LBB64_4+0x574>
    68cc:	01f50533          	add	a0,a0,t6
    68d0:	01350533          	add	a0,a0,s3
    68d4:	1005051b          	addiw	a0,a0,256
    68d8:	40000fb7          	lui	t6,0x40000
    68dc:	baa43423          	sd	a0,-1112(s0)
    68e0:	00055463          	bgez	a0,68e8 <.LBB64_412>
    68e4:	c0000fb7          	lui	t6,0xc0000

00000000000068e8 <.LBB64_412>:
    68e8:	bbf43023          	sd	t6,-1120(s0)
    68ec:	cd843503          	ld	a0,-808(s0)
    68f0:	e9043f83          	ld	t6,-368(s0)
    68f4:	01f50533          	add	a0,a0,t6
    68f8:	00001fb7          	lui	t6,0x1
    68fc:	41f40fb3          	sub	t6,s0,t6
    6900:	6e8fbf83          	ld	t6,1768(t6) # 16e8 <.LBB64_4+0x57c>
    6904:	01f50533          	add	a0,a0,t6
    6908:	01350533          	add	a0,a0,s3
    690c:	1005051b          	addiw	a0,a0,256
    6910:	40000fb7          	lui	t6,0x40000
    6914:	baa43c23          	sd	a0,-1096(s0)
    6918:	00055463          	bgez	a0,6920 <.LBB64_414>
    691c:	c0000fb7          	lui	t6,0xc0000

0000000000006920 <.LBB64_414>:
    6920:	bbf43823          	sd	t6,-1104(s0)
    6924:	ce043503          	ld	a0,-800(s0)
    6928:	e9843f83          	ld	t6,-360(s0)
    692c:	01f50533          	add	a0,a0,t6
    6930:	00001fb7          	lui	t6,0x1
    6934:	41f40fb3          	sub	t6,s0,t6
    6938:	6f0fbf83          	ld	t6,1776(t6) # 16f0 <.LBB64_4+0x584>
    693c:	01f50533          	add	a0,a0,t6
    6940:	01350533          	add	a0,a0,s3
    6944:	1005051b          	addiw	a0,a0,256
    6948:	40000fb7          	lui	t6,0x40000
    694c:	bca43423          	sd	a0,-1080(s0)
    6950:	00055463          	bgez	a0,6958 <.LBB64_416>
    6954:	c0000fb7          	lui	t6,0xc0000

0000000000006958 <.LBB64_416>:
    6958:	bdf43023          	sd	t6,-1088(s0)
    695c:	ce843503          	ld	a0,-792(s0)
    6960:	ea043f83          	ld	t6,-352(s0)
    6964:	01f50533          	add	a0,a0,t6
    6968:	01a50533          	add	a0,a0,s10
    696c:	01350533          	add	a0,a0,s3
    6970:	1005051b          	addiw	a0,a0,256
    6974:	40000fb7          	lui	t6,0x40000
    6978:	bea43023          	sd	a0,-1056(s0)
    697c:	00055463          	bgez	a0,6984 <.LBB64_418>
    6980:	c0000fb7          	lui	t6,0xc0000

0000000000006984 <.LBB64_418>:
    6984:	bdf43c23          	sd	t6,-1064(s0)
    6988:	cf043503          	ld	a0,-784(s0)
    698c:	ea843f83          	ld	t6,-344(s0)
    6990:	01f50533          	add	a0,a0,t6
    6994:	00001fb7          	lui	t6,0x1
    6998:	41f40fb3          	sub	t6,s0,t6
    699c:	700fbf83          	ld	t6,1792(t6) # 1700 <.LBB64_4+0x594>
    69a0:	01f50533          	add	a0,a0,t6
    69a4:	01350533          	add	a0,a0,s3
    69a8:	1005051b          	addiw	a0,a0,256
    69ac:	40000fb7          	lui	t6,0x40000
    69b0:	bea43823          	sd	a0,-1040(s0)
    69b4:	00055463          	bgez	a0,69bc <.LBB64_420>
    69b8:	c0000fb7          	lui	t6,0xc0000

00000000000069bc <.LBB64_420>:
    69bc:	bff43423          	sd	t6,-1048(s0)
    69c0:	cf843503          	ld	a0,-776(s0)
    69c4:	eb043f83          	ld	t6,-336(s0)
    69c8:	01f50533          	add	a0,a0,t6
    69cc:	00001fb7          	lui	t6,0x1
    69d0:	41f40fb3          	sub	t6,s0,t6
    69d4:	708fbf83          	ld	t6,1800(t6) # 1708 <.LBB64_5>
    69d8:	01f50533          	add	a0,a0,t6
    69dc:	01350533          	add	a0,a0,s3
    69e0:	1005051b          	addiw	a0,a0,256
    69e4:	40000fb7          	lui	t6,0x40000
    69e8:	c0a43023          	sd	a0,-1024(s0)
    69ec:	00055463          	bgez	a0,69f4 <.LBB64_422>
    69f0:	c0000fb7          	lui	t6,0xc0000

00000000000069f4 <.LBB64_422>:
    69f4:	bff43c23          	sd	t6,-1032(s0)
    69f8:	d0043503          	ld	a0,-768(s0)
    69fc:	eb843f83          	ld	t6,-328(s0)
    6a00:	01f50533          	add	a0,a0,t6
    6a04:	00001fb7          	lui	t6,0x1
    6a08:	41f40fb3          	sub	t6,s0,t6
    6a0c:	710fbf83          	ld	t6,1808(t6) # 1710 <.LBB64_5+0x8>
    6a10:	01f50533          	add	a0,a0,t6
    6a14:	01350533          	add	a0,a0,s3
    6a18:	1005051b          	addiw	a0,a0,256
    6a1c:	40000fb7          	lui	t6,0x40000
    6a20:	c0a43823          	sd	a0,-1008(s0)
    6a24:	00055463          	bgez	a0,6a2c <.LBB64_424>
    6a28:	c0000fb7          	lui	t6,0xc0000

0000000000006a2c <.LBB64_424>:
    6a2c:	c1f43423          	sd	t6,-1016(s0)
    6a30:	d0843503          	ld	a0,-760(s0)
    6a34:	ec043f83          	ld	t6,-320(s0)
    6a38:	01f50533          	add	a0,a0,t6
    6a3c:	00001fb7          	lui	t6,0x1
    6a40:	41f40fb3          	sub	t6,s0,t6
    6a44:	718fbf83          	ld	t6,1816(t6) # 1718 <.LBB64_5+0x10>
    6a48:	01f50533          	add	a0,a0,t6
    6a4c:	01350533          	add	a0,a0,s3
    6a50:	1005051b          	addiw	a0,a0,256
    6a54:	40000fb7          	lui	t6,0x40000
    6a58:	c2a43023          	sd	a0,-992(s0)
    6a5c:	00055463          	bgez	a0,6a64 <.LBB64_426>
    6a60:	c0000fb7          	lui	t6,0xc0000

0000000000006a64 <.LBB64_426>:
    6a64:	c1f43c23          	sd	t6,-1000(s0)
    6a68:	d1043503          	ld	a0,-752(s0)
    6a6c:	f1843f83          	ld	t6,-232(s0)
    6a70:	01f50533          	add	a0,a0,t6
    6a74:	00001fb7          	lui	t6,0x1
    6a78:	41f40fb3          	sub	t6,s0,t6
    6a7c:	720fbf83          	ld	t6,1824(t6) # 1720 <.LBB64_5+0x18>
    6a80:	01f50533          	add	a0,a0,t6
    6a84:	01350533          	add	a0,a0,s3
    6a88:	1005051b          	addiw	a0,a0,256
    6a8c:	40000fb7          	lui	t6,0x40000
    6a90:	c2a43823          	sd	a0,-976(s0)
    6a94:	00055463          	bgez	a0,6a9c <.LBB64_428>
    6a98:	c0000fb7          	lui	t6,0xc0000

0000000000006a9c <.LBB64_428>:
    6a9c:	c3f43423          	sd	t6,-984(s0)
    6aa0:	d1843503          	ld	a0,-744(s0)
    6aa4:	f2043f83          	ld	t6,-224(s0)
    6aa8:	01f50533          	add	a0,a0,t6
    6aac:	00001fb7          	lui	t6,0x1
    6ab0:	41f40fb3          	sub	t6,s0,t6
    6ab4:	728fbf83          	ld	t6,1832(t6) # 1728 <.LBB64_5+0x20>
    6ab8:	01f50533          	add	a0,a0,t6
    6abc:	01350533          	add	a0,a0,s3
    6ac0:	1005051b          	addiw	a0,a0,256
    6ac4:	40000fb7          	lui	t6,0x40000
    6ac8:	c4a43023          	sd	a0,-960(s0)
    6acc:	00055463          	bgez	a0,6ad4 <.LBB64_430>
    6ad0:	c0000fb7          	lui	t6,0xc0000

0000000000006ad4 <.LBB64_430>:
    6ad4:	c3f43c23          	sd	t6,-968(s0)
    6ad8:	d2043503          	ld	a0,-736(s0)
    6adc:	f2843f83          	ld	t6,-216(s0)
    6ae0:	01f50533          	add	a0,a0,t6
    6ae4:	00001fb7          	lui	t6,0x1
    6ae8:	41f40fb3          	sub	t6,s0,t6
    6aec:	730fbf83          	ld	t6,1840(t6) # 1730 <.LBB64_5+0x28>
    6af0:	01f50533          	add	a0,a0,t6
    6af4:	01350533          	add	a0,a0,s3
    6af8:	1005051b          	addiw	a0,a0,256
    6afc:	40000fb7          	lui	t6,0x40000
    6b00:	c4a43823          	sd	a0,-944(s0)
    6b04:	00055463          	bgez	a0,6b0c <.LBB64_432>
    6b08:	c0000fb7          	lui	t6,0xc0000

0000000000006b0c <.LBB64_432>:
    6b0c:	c5f43423          	sd	t6,-952(s0)
    6b10:	d2843503          	ld	a0,-728(s0)
    6b14:	f3043f83          	ld	t6,-208(s0)
    6b18:	01f50533          	add	a0,a0,t6
    6b1c:	00001fb7          	lui	t6,0x1
    6b20:	41f40fb3          	sub	t6,s0,t6
    6b24:	738fbf83          	ld	t6,1848(t6) # 1738 <.LBB64_5+0x30>
    6b28:	01f50533          	add	a0,a0,t6
    6b2c:	01350533          	add	a0,a0,s3
    6b30:	1005051b          	addiw	a0,a0,256
    6b34:	40000fb7          	lui	t6,0x40000
    6b38:	c6a43023          	sd	a0,-928(s0)
    6b3c:	00055463          	bgez	a0,6b44 <.LBB64_434>
    6b40:	c0000fb7          	lui	t6,0xc0000

0000000000006b44 <.LBB64_434>:
    6b44:	c5f43c23          	sd	t6,-936(s0)
    6b48:	d3043503          	ld	a0,-720(s0)
    6b4c:	f3843f83          	ld	t6,-200(s0)
    6b50:	01f50533          	add	a0,a0,t6
    6b54:	00001fb7          	lui	t6,0x1
    6b58:	41f40fb3          	sub	t6,s0,t6
    6b5c:	740fbf83          	ld	t6,1856(t6) # 1740 <.LBB64_5+0x38>
    6b60:	01f50533          	add	a0,a0,t6
    6b64:	01350533          	add	a0,a0,s3
    6b68:	1005051b          	addiw	a0,a0,256
    6b6c:	40000fb7          	lui	t6,0x40000
    6b70:	c6a43823          	sd	a0,-912(s0)
    6b74:	00055463          	bgez	a0,6b7c <.LBB64_436>
    6b78:	c0000fb7          	lui	t6,0xc0000

0000000000006b7c <.LBB64_436>:
    6b7c:	c7f43423          	sd	t6,-920(s0)
    6b80:	d3843503          	ld	a0,-712(s0)
    6b84:	f4043f83          	ld	t6,-192(s0)
    6b88:	01f50533          	add	a0,a0,t6
    6b8c:	00001fb7          	lui	t6,0x1
    6b90:	41f40fb3          	sub	t6,s0,t6
    6b94:	6f8fbf83          	ld	t6,1784(t6) # 16f8 <.LBB64_4+0x58c>
    6b98:	01f50533          	add	a0,a0,t6
    6b9c:	01350533          	add	a0,a0,s3
    6ba0:	1005051b          	addiw	a0,a0,256
    6ba4:	40000fb7          	lui	t6,0x40000
    6ba8:	c8a43023          	sd	a0,-896(s0)
    6bac:	00055463          	bgez	a0,6bb4 <.LBB64_438>
    6bb0:	c0000fb7          	lui	t6,0xc0000

0000000000006bb4 <.LBB64_438>:
    6bb4:	c7f43c23          	sd	t6,-904(s0)
    6bb8:	d4043503          	ld	a0,-704(s0)
    6bbc:	f4843f83          	ld	t6,-184(s0)
    6bc0:	01f50533          	add	a0,a0,t6
    6bc4:	00001fb7          	lui	t6,0x1
    6bc8:	41f40fb3          	sub	t6,s0,t6
    6bcc:	748fbf83          	ld	t6,1864(t6) # 1748 <.LBB64_5+0x40>
    6bd0:	01f50533          	add	a0,a0,t6
    6bd4:	01350533          	add	a0,a0,s3
    6bd8:	1005051b          	addiw	a0,a0,256
    6bdc:	40000fb7          	lui	t6,0x40000
    6be0:	c8a43823          	sd	a0,-880(s0)
    6be4:	00055463          	bgez	a0,6bec <.LBB64_440>
    6be8:	c0000fb7          	lui	t6,0xc0000

0000000000006bec <.LBB64_440>:
    6bec:	c9f43423          	sd	t6,-888(s0)
    6bf0:	d4843503          	ld	a0,-696(s0)
    6bf4:	f5043f83          	ld	t6,-176(s0)
    6bf8:	01f50533          	add	a0,a0,t6
    6bfc:	00001fb7          	lui	t6,0x1
    6c00:	41f40fb3          	sub	t6,s0,t6
    6c04:	750fbf83          	ld	t6,1872(t6) # 1750 <.LBB64_5+0x48>
    6c08:	01f50533          	add	a0,a0,t6
    6c0c:	01350533          	add	a0,a0,s3
    6c10:	1005051b          	addiw	a0,a0,256
    6c14:	40000fb7          	lui	t6,0x40000
    6c18:	caa43023          	sd	a0,-864(s0)
    6c1c:	00055463          	bgez	a0,6c24 <.LBB64_442>
    6c20:	c0000fb7          	lui	t6,0xc0000

0000000000006c24 <.LBB64_442>:
    6c24:	c9f43c23          	sd	t6,-872(s0)
    6c28:	d5043503          	ld	a0,-688(s0)
    6c2c:	f5843f83          	ld	t6,-168(s0)
    6c30:	01f50533          	add	a0,a0,t6
    6c34:	00001fb7          	lui	t6,0x1
    6c38:	41f40fb3          	sub	t6,s0,t6
    6c3c:	758fbf83          	ld	t6,1880(t6) # 1758 <.LBB64_5+0x50>
    6c40:	01f50533          	add	a0,a0,t6
    6c44:	01350533          	add	a0,a0,s3
    6c48:	1005051b          	addiw	a0,a0,256
    6c4c:	40000fb7          	lui	t6,0x40000
    6c50:	caa43823          	sd	a0,-848(s0)
    6c54:	00055463          	bgez	a0,6c5c <.LBB64_444>
    6c58:	c0000fb7          	lui	t6,0xc0000

0000000000006c5c <.LBB64_444>:
    6c5c:	cbf43423          	sd	t6,-856(s0)
    6c60:	d5843503          	ld	a0,-680(s0)
    6c64:	f6043f83          	ld	t6,-160(s0)
    6c68:	01f50533          	add	a0,a0,t6
    6c6c:	00001fb7          	lui	t6,0x1
    6c70:	41f40fb3          	sub	t6,s0,t6
    6c74:	760fbf83          	ld	t6,1888(t6) # 1760 <.LBB64_5+0x58>
    6c78:	01f50533          	add	a0,a0,t6
    6c7c:	01350533          	add	a0,a0,s3
    6c80:	1005051b          	addiw	a0,a0,256
    6c84:	40000fb7          	lui	t6,0x40000
    6c88:	cca43023          	sd	a0,-832(s0)
    6c8c:	00055463          	bgez	a0,6c94 <.LBB64_446>
    6c90:	c0000fb7          	lui	t6,0xc0000

0000000000006c94 <.LBB64_446>:
    6c94:	cbf43c23          	sd	t6,-840(s0)
    6c98:	d6043503          	ld	a0,-672(s0)
    6c9c:	f6843f83          	ld	t6,-152(s0)
    6ca0:	01f50533          	add	a0,a0,t6
    6ca4:	00001fb7          	lui	t6,0x1
    6ca8:	41f40fb3          	sub	t6,s0,t6
    6cac:	690fbf83          	ld	t6,1680(t6) # 1690 <.LBB64_4+0x524>
    6cb0:	01f50533          	add	a0,a0,t6
    6cb4:	01350533          	add	a0,a0,s3
    6cb8:	1005051b          	addiw	a0,a0,256
    6cbc:	40000fb7          	lui	t6,0x40000
    6cc0:	cca43823          	sd	a0,-816(s0)
    6cc4:	00055463          	bgez	a0,6ccc <.LBB64_448>
    6cc8:	c0000fb7          	lui	t6,0xc0000

0000000000006ccc <.LBB64_448>:
    6ccc:	cdf43423          	sd	t6,-824(s0)
    6cd0:	d6843503          	ld	a0,-664(s0)
    6cd4:	f7043f83          	ld	t6,-144(s0)
    6cd8:	01f50533          	add	a0,a0,t6
    6cdc:	00001fb7          	lui	t6,0x1
    6ce0:	41f40fb3          	sub	t6,s0,t6
    6ce4:	768fbf83          	ld	t6,1896(t6) # 1768 <.LBB64_5+0x60>
    6ce8:	01f50533          	add	a0,a0,t6
    6cec:	01350533          	add	a0,a0,s3
    6cf0:	1005051b          	addiw	a0,a0,256
    6cf4:	40000fb7          	lui	t6,0x40000
    6cf8:	cea43023          	sd	a0,-800(s0)
    6cfc:	00055463          	bgez	a0,6d04 <.LBB64_450>
    6d00:	c0000fb7          	lui	t6,0xc0000

0000000000006d04 <.LBB64_450>:
    6d04:	cdf43c23          	sd	t6,-808(s0)
    6d08:	d7043503          	ld	a0,-656(s0)
    6d0c:	f7843f83          	ld	t6,-136(s0)
    6d10:	01f50533          	add	a0,a0,t6
    6d14:	00001fb7          	lui	t6,0x1
    6d18:	41f40fb3          	sub	t6,s0,t6
    6d1c:	770fbf83          	ld	t6,1904(t6) # 1770 <.LBB64_5+0x68>
    6d20:	01f50533          	add	a0,a0,t6
    6d24:	01350533          	add	a0,a0,s3
    6d28:	1005051b          	addiw	a0,a0,256
    6d2c:	40000fb7          	lui	t6,0x40000
    6d30:	cea43823          	sd	a0,-784(s0)
    6d34:	00055463          	bgez	a0,6d3c <.LBB64_452>
    6d38:	c0000fb7          	lui	t6,0xc0000

0000000000006d3c <.LBB64_452>:
    6d3c:	cff43423          	sd	t6,-792(s0)
    6d40:	d7843503          	ld	a0,-648(s0)
    6d44:	f8043f83          	ld	t6,-128(s0)
    6d48:	01f50533          	add	a0,a0,t6
    6d4c:	00001fb7          	lui	t6,0x1
    6d50:	41f40fb3          	sub	t6,s0,t6
    6d54:	778fbf83          	ld	t6,1912(t6) # 1778 <.LBB64_5+0x70>
    6d58:	01f50533          	add	a0,a0,t6
    6d5c:	01350533          	add	a0,a0,s3
    6d60:	1005051b          	addiw	a0,a0,256
    6d64:	40000fb7          	lui	t6,0x40000
    6d68:	d0a43023          	sd	a0,-768(s0)
    6d6c:	00055463          	bgez	a0,6d74 <.LBB64_454>
    6d70:	c0000fb7          	lui	t6,0xc0000

0000000000006d74 <.LBB64_454>:
    6d74:	cff43c23          	sd	t6,-776(s0)
    6d78:	d8043503          	ld	a0,-640(s0)
    6d7c:	e8043f83          	ld	t6,-384(s0)
    6d80:	01f50533          	add	a0,a0,t6
    6d84:	e7843f83          	ld	t6,-392(s0)
    6d88:	01f50533          	add	a0,a0,t6
    6d8c:	f8843f83          	ld	t6,-120(s0)
    6d90:	01f50533          	add	a0,a0,t6
    6d94:	1005051b          	addiw	a0,a0,256
    6d98:	40000fb7          	lui	t6,0x40000
    6d9c:	d0a43823          	sd	a0,-752(s0)
    6da0:	00055463          	bgez	a0,6da8 <.LBB64_456>
    6da4:	c0000fb7          	lui	t6,0xc0000

0000000000006da8 <.LBB64_456>:
    6da8:	d1f43423          	sd	t6,-760(s0)
    6dac:	d8843503          	ld	a0,-632(s0)
    6db0:	e7043f83          	ld	t6,-400(s0)
    6db4:	01f50533          	add	a0,a0,t6
    6db8:	e6843f83          	ld	t6,-408(s0)
    6dbc:	01f50533          	add	a0,a0,t6
    6dc0:	f8843f83          	ld	t6,-120(s0)
    6dc4:	01f50533          	add	a0,a0,t6
    6dc8:	1005051b          	addiw	a0,a0,256
    6dcc:	40000fb7          	lui	t6,0x40000
    6dd0:	d2a43023          	sd	a0,-736(s0)
    6dd4:	00055463          	bgez	a0,6ddc <.LBB64_458>
    6dd8:	c0000fb7          	lui	t6,0xc0000

0000000000006ddc <.LBB64_458>:
    6ddc:	d1f43c23          	sd	t6,-744(s0)
    6de0:	d9043503          	ld	a0,-624(s0)
    6de4:	e6043f83          	ld	t6,-416(s0)
    6de8:	01f50533          	add	a0,a0,t6
    6dec:	e5843f83          	ld	t6,-424(s0)
    6df0:	01f50533          	add	a0,a0,t6
    6df4:	f8843f83          	ld	t6,-120(s0)
    6df8:	01f50533          	add	a0,a0,t6
    6dfc:	1005051b          	addiw	a0,a0,256
    6e00:	40000fb7          	lui	t6,0x40000
    6e04:	d2a43823          	sd	a0,-720(s0)
    6e08:	00055463          	bgez	a0,6e10 <.LBB64_460>
    6e0c:	c0000fb7          	lui	t6,0xc0000

0000000000006e10 <.LBB64_460>:
    6e10:	d3f43423          	sd	t6,-728(s0)
    6e14:	d9843503          	ld	a0,-616(s0)
    6e18:	e5043f83          	ld	t6,-432(s0)
    6e1c:	01f50533          	add	a0,a0,t6
    6e20:	e4843f83          	ld	t6,-440(s0)
    6e24:	01f50533          	add	a0,a0,t6
    6e28:	f8843f83          	ld	t6,-120(s0)
    6e2c:	01f50533          	add	a0,a0,t6
    6e30:	1005051b          	addiw	a0,a0,256
    6e34:	40000fb7          	lui	t6,0x40000
    6e38:	d4a43023          	sd	a0,-704(s0)
    6e3c:	00055463          	bgez	a0,6e44 <.LBB64_462>
    6e40:	c0000fb7          	lui	t6,0xc0000

0000000000006e44 <.LBB64_462>:
    6e44:	d3f43c23          	sd	t6,-712(s0)
    6e48:	da043503          	ld	a0,-608(s0)
    6e4c:	e4043f83          	ld	t6,-448(s0)
    6e50:	01f50533          	add	a0,a0,t6
    6e54:	e3843f83          	ld	t6,-456(s0)
    6e58:	01f50533          	add	a0,a0,t6
    6e5c:	f8843f83          	ld	t6,-120(s0)
    6e60:	01f50533          	add	a0,a0,t6
    6e64:	1005051b          	addiw	a0,a0,256
    6e68:	40000fb7          	lui	t6,0x40000
    6e6c:	e9f43023          	sd	t6,-384(s0)
    6e70:	d4a43423          	sd	a0,-696(s0)
    6e74:	00055663          	bgez	a0,6e80 <.LBB64_464>
    6e78:	c0000537          	lui	a0,0xc0000
    6e7c:	e8a43023          	sd	a0,-384(s0)

0000000000006e80 <.LBB64_464>:
    6e80:	e3043503          	ld	a0,-464(s0)
    6e84:	00ac8533          	add	a0,s9,a0
    6e88:	00001fb7          	lui	t6,0x1
    6e8c:	41f40fb3          	sub	t6,s0,t6
    6e90:	6d0fbf83          	ld	t6,1744(t6) # 16d0 <.LBB64_4+0x564>
    6e94:	01f50533          	add	a0,a0,t6
    6e98:	f8843f83          	ld	t6,-120(s0)
    6e9c:	01f50533          	add	a0,a0,t6
    6ea0:	1005051b          	addiw	a0,a0,256 # ffffffffc0000100 <.Lfunc_end80+0xffffffffbffd7734>
    6ea4:	40000cb7          	lui	s9,0x40000
    6ea8:	d4a43823          	sd	a0,-688(s0)
    6eac:	00055463          	bgez	a0,6eb4 <.LBB64_466>
    6eb0:	c0000cb7          	lui	s9,0xc0000

0000000000006eb4 <.LBB64_466>:
    6eb4:	00001537          	lui	a0,0x1
    6eb8:	40a40533          	sub	a0,s0,a0
    6ebc:	6c853503          	ld	a0,1736(a0) # 16c8 <.LBB64_4+0x55c>
    6ec0:	00ab0533          	add	a0,s6,a0
    6ec4:	000019b7          	lui	s3,0x1
    6ec8:	413409b3          	sub	s3,s0,s3
    6ecc:	6c09b983          	ld	s3,1728(s3) # 16c0 <.LBB64_4+0x554>
    6ed0:	01350533          	add	a0,a0,s3
    6ed4:	01f50533          	add	a0,a0,t6
    6ed8:	1005051b          	addiw	a0,a0,256
    6edc:	40000b37          	lui	s6,0x40000
    6ee0:	d6a43023          	sd	a0,-672(s0)
    6ee4:	00055463          	bgez	a0,6eec <.LBB64_468>
    6ee8:	c0000b37          	lui	s6,0xc0000

0000000000006eec <.LBB64_468>:
    6eec:	d5643c23          	sd	s6,-680(s0)
    6ef0:	00001537          	lui	a0,0x1
    6ef4:	40a40533          	sub	a0,s0,a0
    6ef8:	6b853503          	ld	a0,1720(a0) # 16b8 <.LBB64_4+0x54c>
    6efc:	ec843983          	ld	s3,-312(s0)
    6f00:	00a98533          	add	a0,s3,a0
    6f04:	000019b7          	lui	s3,0x1
    6f08:	413409b3          	sub	s3,s0,s3
    6f0c:	6b09b983          	ld	s3,1712(s3) # 16b0 <.LBB64_4+0x544>
    6f10:	01350533          	add	a0,a0,s3
    6f14:	01f50533          	add	a0,a0,t6
    6f18:	1005051b          	addiw	a0,a0,256
    6f1c:	40000b37          	lui	s6,0x40000
    6f20:	d6a43823          	sd	a0,-656(s0)
    6f24:	00055463          	bgez	a0,6f2c <.LBB64_470>
    6f28:	c0000b37          	lui	s6,0xc0000

0000000000006f2c <.LBB64_470>:
    6f2c:	d7643423          	sd	s6,-664(s0)
    6f30:	00001537          	lui	a0,0x1
    6f34:	40a40533          	sub	a0,s0,a0
    6f38:	6a853503          	ld	a0,1704(a0) # 16a8 <.LBB64_4+0x53c>
    6f3c:	ed043983          	ld	s3,-304(s0)
    6f40:	00a98533          	add	a0,s3,a0
    6f44:	000019b7          	lui	s3,0x1
    6f48:	413409b3          	sub	s3,s0,s3
    6f4c:	6a09b983          	ld	s3,1696(s3) # 16a0 <.LBB64_4+0x534>
    6f50:	01350533          	add	a0,a0,s3
    6f54:	01f50533          	add	a0,a0,t6
    6f58:	1005051b          	addiw	a0,a0,256
    6f5c:	40000b37          	lui	s6,0x40000
    6f60:	d6a43c23          	sd	a0,-648(s0)
    6f64:	00055463          	bgez	a0,6f6c <.LBB64_472>
    6f68:	c0000b37          	lui	s6,0xc0000

0000000000006f6c <.LBB64_472>:
    6f6c:	ed843503          	ld	a0,-296(s0)
    6f70:	000019b7          	lui	s3,0x1
    6f74:	413409b3          	sub	s3,s0,s3
    6f78:	6989b983          	ld	s3,1688(s3) # 1698 <.LBB64_4+0x52c>
    6f7c:	01350533          	add	a0,a0,s3
    6f80:	000019b7          	lui	s3,0x1
    6f84:	413409b3          	sub	s3,s0,s3
    6f88:	6d89b983          	ld	s3,1752(s3) # 16d8 <.LBB64_4+0x56c>
    6f8c:	01350533          	add	a0,a0,s3
    6f90:	01f50533          	add	a0,a0,t6
    6f94:	10050d9b          	addiw	s11,a0,256
    6f98:	000dd463          	bgez	s11,6fa0 <.LBB64_474>
    6f9c:	c00000b7          	lui	ra,0xc0000

0000000000006fa0 <.LBB64_474>:
    6fa0:	e8843503          	ld	a0,-376(s0)
    6fa4:	db843983          	ld	s3,-584(s0)
    6fa8:	00a98533          	add	a0,s3,a0
    6fac:	000019b7          	lui	s3,0x1
    6fb0:	413409b3          	sub	s3,s0,s3
    6fb4:	6e09b983          	ld	s3,1760(s3) # 16e0 <.LBB64_4+0x574>
    6fb8:	01350533          	add	a0,a0,s3
    6fbc:	01f50533          	add	a0,a0,t6
    6fc0:	1005051b          	addiw	a0,a0,256
    6fc4:	40000ab7          	lui	s5,0x40000
    6fc8:	d8a43423          	sd	a0,-632(s0)
    6fcc:	00055463          	bgez	a0,6fd4 <.LBB64_476>
    6fd0:	c0000ab7          	lui	s5,0xc0000

0000000000006fd4 <.LBB64_476>:
    6fd4:	d9543023          	sd	s5,-640(s0)
    6fd8:	ee043503          	ld	a0,-288(s0)
    6fdc:	e9043983          	ld	s3,-368(s0)
    6fe0:	01350533          	add	a0,a0,s3
    6fe4:	000019b7          	lui	s3,0x1
    6fe8:	413409b3          	sub	s3,s0,s3
    6fec:	6e89b983          	ld	s3,1768(s3) # 16e8 <.LBB64_4+0x57c>
    6ff0:	01350533          	add	a0,a0,s3
    6ff4:	01f50533          	add	a0,a0,t6
    6ff8:	1005051b          	addiw	a0,a0,256
    6ffc:	40000ab7          	lui	s5,0x40000
    7000:	d8a43c23          	sd	a0,-616(s0)
    7004:	00055463          	bgez	a0,700c <.LBB64_478>
    7008:	c0000ab7          	lui	s5,0xc0000

000000000000700c <.LBB64_478>:
    700c:	d9543823          	sd	s5,-624(s0)
    7010:	ee843503          	ld	a0,-280(s0)
    7014:	e9843983          	ld	s3,-360(s0)
    7018:	01350533          	add	a0,a0,s3
    701c:	000019b7          	lui	s3,0x1
    7020:	413409b3          	sub	s3,s0,s3
    7024:	6f09b983          	ld	s3,1776(s3) # 16f0 <.LBB64_4+0x584>
    7028:	01350533          	add	a0,a0,s3
    702c:	01f50533          	add	a0,a0,t6
    7030:	1005051b          	addiw	a0,a0,256
    7034:	40000ab7          	lui	s5,0x40000
    7038:	daa43023          	sd	a0,-608(s0)
    703c:	00055463          	bgez	a0,7044 <.LBB64_480>
    7040:	c0000ab7          	lui	s5,0xc0000

0000000000007044 <.LBB64_480>:
    7044:	ea043503          	ld	a0,-352(s0)
    7048:	ef043983          	ld	s3,-272(s0)
    704c:	00a98533          	add	a0,s3,a0
    7050:	01a50533          	add	a0,a0,s10
    7054:	01f50533          	add	a0,a0,t6
    7058:	1005051b          	addiw	a0,a0,256
    705c:	40000a37          	lui	s4,0x40000
    7060:	daa43423          	sd	a0,-600(s0)
    7064:	00055463          	bgez	a0,706c <.LBB64_482>
    7068:	c0000a37          	lui	s4,0xc0000

000000000000706c <.LBB64_482>:
    706c:	ea843503          	ld	a0,-344(s0)
    7070:	ef843983          	ld	s3,-264(s0)
    7074:	00a98533          	add	a0,s3,a0
    7078:	000019b7          	lui	s3,0x1
    707c:	413409b3          	sub	s3,s0,s3
    7080:	7009b983          	ld	s3,1792(s3) # 1700 <.LBB64_4+0x594>
    7084:	01350533          	add	a0,a0,s3
    7088:	01f50533          	add	a0,a0,t6
    708c:	1005051b          	addiw	a0,a0,256
    7090:	400009b7          	lui	s3,0x40000
    7094:	daa43823          	sd	a0,-592(s0)
    7098:	00055463          	bgez	a0,70a0 <.LBB64_484>
    709c:	c00009b7          	lui	s3,0xc0000

00000000000070a0 <.LBB64_484>:
    70a0:	eb043503          	ld	a0,-336(s0)
    70a4:	00a90533          	add	a0,s2,a0
    70a8:	00001937          	lui	s2,0x1
    70ac:	41240933          	sub	s2,s0,s2
    70b0:	70893903          	ld	s2,1800(s2) # 1708 <.LBB64_5>
    70b4:	01250533          	add	a0,a0,s2
    70b8:	01f50533          	add	a0,a0,t6
    70bc:	1005051b          	addiw	a0,a0,256
    70c0:	40000937          	lui	s2,0x40000
    70c4:	daa43c23          	sd	a0,-584(s0)
    70c8:	00055463          	bgez	a0,70d0 <.LBB64_486>
    70cc:	c0000937          	lui	s2,0xc0000

00000000000070d0 <.LBB64_486>:
    70d0:	eb843503          	ld	a0,-328(s0)
    70d4:	00a48533          	add	a0,s1,a0
    70d8:	000014b7          	lui	s1,0x1
    70dc:	409404b3          	sub	s1,s0,s1
    70e0:	7104b483          	ld	s1,1808(s1) # 1710 <.LBB64_5+0x8>
    70e4:	00950533          	add	a0,a0,s1
    70e8:	01f50533          	add	a0,a0,t6
    70ec:	1005051b          	addiw	a0,a0,256
    70f0:	400004b7          	lui	s1,0x40000
    70f4:	dca43023          	sd	a0,-576(s0)
    70f8:	00055463          	bgez	a0,7100 <.LBB64_488>
    70fc:	c00004b7          	lui	s1,0xc0000

0000000000007100 <.LBB64_488>:
    7100:	ec043503          	ld	a0,-320(s0)
    7104:	00af0533          	add	a0,t5,a0
    7108:	00001f37          	lui	t5,0x1
    710c:	41e40f33          	sub	t5,s0,t5
    7110:	718f3f03          	ld	t5,1816(t5) # 1718 <.LBB64_5+0x10>
    7114:	01e50533          	add	a0,a0,t5
    7118:	01f50533          	add	a0,a0,t6
    711c:	1005051b          	addiw	a0,a0,256
    7120:	40000f37          	lui	t5,0x40000
    7124:	dca43423          	sd	a0,-568(s0)
    7128:	00055463          	bgez	a0,7130 <.LBB64_490>
    712c:	c0000f37          	lui	t5,0xc0000

0000000000007130 <.LBB64_490>:
    7130:	f1843503          	ld	a0,-232(s0)
    7134:	00ae8533          	add	a0,t4,a0
    7138:	00001eb7          	lui	t4,0x1
    713c:	41d40eb3          	sub	t4,s0,t4
    7140:	720ebe83          	ld	t4,1824(t4) # 1720 <.LBB64_5+0x18>
    7144:	01d50533          	add	a0,a0,t4
    7148:	01f50533          	add	a0,a0,t6
    714c:	1005051b          	addiw	a0,a0,256
    7150:	40000eb7          	lui	t4,0x40000
    7154:	e2a43c23          	sd	a0,-456(s0)
    7158:	00055463          	bgez	a0,7160 <.LBB64_492>
    715c:	c0000eb7          	lui	t4,0xc0000

0000000000007160 <.LBB64_492>:
    7160:	f2043503          	ld	a0,-224(s0)
    7164:	00ae0533          	add	a0,t3,a0
    7168:	00001e37          	lui	t3,0x1
    716c:	41c40e33          	sub	t3,s0,t3
    7170:	728e3e03          	ld	t3,1832(t3) # 1728 <.LBB64_5+0x20>
    7174:	01c50533          	add	a0,a0,t3
    7178:	01f50533          	add	a0,a0,t6
    717c:	1005051b          	addiw	a0,a0,256
    7180:	40000e37          	lui	t3,0x40000
    7184:	e4a43423          	sd	a0,-440(s0)
    7188:	00055463          	bgez	a0,7190 <.LBB64_494>
    718c:	c0000e37          	lui	t3,0xc0000

0000000000007190 <.LBB64_494>:
    7190:	e3d43823          	sd	t4,-464(s0)
    7194:	e5c43023          	sd	t3,-448(s0)
    7198:	f2843503          	ld	a0,-216(s0)
    719c:	00a38533          	add	a0,t2,a0
    71a0:	000013b7          	lui	t2,0x1
    71a4:	407403b3          	sub	t2,s0,t2
    71a8:	7303b383          	ld	t2,1840(t2) # 1730 <.LBB64_5+0x28>
    71ac:	00750533          	add	a0,a0,t2
    71b0:	01f50533          	add	a0,a0,t6
    71b4:	10050e1b          	addiw	t3,a0,256
    71b8:	40000537          	lui	a0,0x40000
    71bc:	000e5463          	bgez	t3,71c4 <.LBB64_496>
    71c0:	c0000537          	lui	a0,0xc0000

00000000000071c4 <.LBB64_496>:
    71c4:	dfe43023          	sd	t5,-544(s0)
    71c8:	e4a43823          	sd	a0,-432(s0)
    71cc:	f3043503          	ld	a0,-208(s0)
    71d0:	00a30533          	add	a0,t1,a0
    71d4:	00001337          	lui	t1,0x1
    71d8:	40640333          	sub	t1,s0,t1
    71dc:	73833303          	ld	t1,1848(t1) # 1738 <.LBB64_5+0x30>
    71e0:	00650533          	add	a0,a0,t1
    71e4:	01f50533          	add	a0,a0,t6
    71e8:	10050e9b          	addiw	t4,a0,256 # ffffffffc0000100 <.Lfunc_end80+0xffffffffbffd7734>
    71ec:	40000537          	lui	a0,0x40000
    71f0:	000ed463          	bgez	t4,71f8 <.LBB64_498>
    71f4:	c0000537          	lui	a0,0xc0000

00000000000071f8 <.LBB64_498>:
    71f8:	e6a43023          	sd	a0,-416(s0)
    71fc:	f3843503          	ld	a0,-200(s0)
    7200:	00a28533          	add	a0,t0,a0
    7204:	000012b7          	lui	t0,0x1
    7208:	405402b3          	sub	t0,s0,t0
    720c:	7402b283          	ld	t0,1856(t0) # 1740 <.LBB64_5+0x38>
    7210:	00550533          	add	a0,a0,t0
    7214:	01f50533          	add	a0,a0,t6
    7218:	10050f1b          	addiw	t5,a0,256 # ffffffffc0000100 <.Lfunc_end80+0xffffffffbffd7734>
    721c:	40000537          	lui	a0,0x40000
    7220:	000f5463          	bgez	t5,7228 <.LBB64_500>
    7224:	c0000537          	lui	a0,0xc0000

0000000000007228 <.LBB64_500>:
    7228:	00048313          	mv	t1,s1
    722c:	e6a43423          	sd	a0,-408(s0)
    7230:	f0843503          	ld	a0,-248(s0)
    7234:	f4043283          	ld	t0,-192(s0)
    7238:	00550533          	add	a0,a0,t0
    723c:	000012b7          	lui	t0,0x1
    7240:	405402b3          	sub	t0,s0,t0
    7244:	6f82b283          	ld	t0,1784(t0) # 16f8 <.LBB64_4+0x58c>
    7248:	00550533          	add	a0,a0,t0
    724c:	01f50533          	add	a0,a0,t6
    7250:	1005051b          	addiw	a0,a0,256 # ffffffffc0000100 <.Lfunc_end80+0xffffffffbffd7734>
    7254:	400002b7          	lui	t0,0x40000
    7258:	e6a43823          	sd	a0,-400(s0)
    725c:	00055463          	bgez	a0,7264 <.LBB64_502>
    7260:	c00002b7          	lui	t0,0xc0000

0000000000007264 <.LBB64_502>:
    7264:	00090393          	mv	t2,s2
    7268:	f4843503          	ld	a0,-184(s0)
    726c:	f1043483          	ld	s1,-240(s0)
    7270:	00a48533          	add	a0,s1,a0
    7274:	000014b7          	lui	s1,0x1
    7278:	409404b3          	sub	s1,s0,s1
    727c:	7484b483          	ld	s1,1864(s1) # 1748 <.LBB64_5+0x40>
    7280:	00950533          	add	a0,a0,s1
    7284:	01f50533          	add	a0,a0,t6
    7288:	1005049b          	addiw	s1,a0,256
    728c:	40000537          	lui	a0,0x40000
    7290:	0004d463          	bgez	s1,7298 <.LBB64_504>
    7294:	c0000537          	lui	a0,0xc0000

0000000000007298 <.LBB64_504>:
    7298:	00098f93          	mv	t6,s3
    729c:	e8a43423          	sd	a0,-376(s0)
    72a0:	f5043503          	ld	a0,-176(s0)
    72a4:	00a88533          	add	a0,a7,a0
    72a8:	000018b7          	lui	a7,0x1
    72ac:	411408b3          	sub	a7,s0,a7
    72b0:	7508b883          	ld	a7,1872(a7) # 1750 <.LBB64_5+0x48>
    72b4:	01150533          	add	a0,a0,a7
    72b8:	f8843883          	ld	a7,-120(s0)
    72bc:	01150533          	add	a0,a0,a7
    72c0:	1005091b          	addiw	s2,a0,256 # ffffffffc0000100 <.Lfunc_end80+0xffffffffbffd7734>
    72c4:	40000537          	lui	a0,0x40000
    72c8:	00095463          	bgez	s2,72d0 <.LBB64_506>
    72cc:	c0000537          	lui	a0,0xc0000

00000000000072d0 <.LBB64_506>:
    72d0:	000a0893          	mv	a7,s4
    72d4:	e8a43823          	sd	a0,-368(s0)
    72d8:	f5843503          	ld	a0,-168(s0)
    72dc:	00a80533          	add	a0,a6,a0
    72e0:	00001837          	lui	a6,0x1
    72e4:	41040833          	sub	a6,s0,a6
    72e8:	75883803          	ld	a6,1880(a6) # 1758 <.LBB64_5+0x50>
    72ec:	01050533          	add	a0,a0,a6
    72f0:	f8843803          	ld	a6,-120(s0)
    72f4:	01050533          	add	a0,a0,a6
    72f8:	1005099b          	addiw	s3,a0,256 # ffffffffc0000100 <.Lfunc_end80+0xffffffffbffd7734>
    72fc:	40000537          	lui	a0,0x40000
    7300:	0009d463          	bgez	s3,7308 <.LBB64_508>
    7304:	c0000537          	lui	a0,0xc0000

0000000000007308 <.LBB64_508>:
    7308:	000a8813          	mv	a6,s5
    730c:	e8a43c23          	sd	a0,-360(s0)
    7310:	f6043503          	ld	a0,-160(s0)
    7314:	00a78533          	add	a0,a5,a0
    7318:	000017b7          	lui	a5,0x1
    731c:	40f407b3          	sub	a5,s0,a5
    7320:	7607b783          	ld	a5,1888(a5) # 1760 <.LBB64_5+0x58>
    7324:	00f50533          	add	a0,a0,a5
    7328:	f8843783          	ld	a5,-120(s0)
    732c:	00f50533          	add	a0,a0,a5
    7330:	10050a1b          	addiw	s4,a0,256 # ffffffffc0000100 <.Lfunc_end80+0xffffffffbffd7734>
    7334:	40000537          	lui	a0,0x40000
    7338:	000a5463          	bgez	s4,7340 <.LBB64_510>
    733c:	c0000537          	lui	a0,0xc0000

0000000000007340 <.LBB64_510>:
    7340:	000b0793          	mv	a5,s6
    7344:	eaa43023          	sd	a0,-352(s0)
    7348:	f6843503          	ld	a0,-152(s0)
    734c:	00a70533          	add	a0,a4,a0
    7350:	00001737          	lui	a4,0x1
    7354:	40e40733          	sub	a4,s0,a4
    7358:	69073703          	ld	a4,1680(a4) # 1690 <.LBB64_4+0x524>
    735c:	00e50533          	add	a0,a0,a4
    7360:	f8843703          	ld	a4,-120(s0)
    7364:	00e50533          	add	a0,a0,a4
    7368:	10050a9b          	addiw	s5,a0,256 # ffffffffc0000100 <.Lfunc_end80+0xffffffffbffd7734>
    736c:	40000537          	lui	a0,0x40000
    7370:	000ad463          	bgez	s5,7378 <.LBB64_512>
    7374:	c0000537          	lui	a0,0xc0000

0000000000007378 <.LBB64_512>:
    7378:	eaa43823          	sd	a0,-336(s0)
    737c:	f7043503          	ld	a0,-144(s0)
    7380:	00a68533          	add	a0,a3,a0
    7384:	000016b7          	lui	a3,0x1
    7388:	40d406b3          	sub	a3,s0,a3
    738c:	7686b683          	ld	a3,1896(a3) # 1768 <.LBB64_5+0x60>
    7390:	00d50533          	add	a0,a0,a3
    7394:	f8843683          	ld	a3,-120(s0)
    7398:	00d50533          	add	a0,a0,a3
    739c:	10050b1b          	addiw	s6,a0,256 # ffffffffc0000100 <.Lfunc_end80+0xffffffffbffd7734>
    73a0:	40000537          	lui	a0,0x40000
    73a4:	000016b7          	lui	a3,0x1
    73a8:	40d406b3          	sub	a3,s0,a3
    73ac:	ee06b703          	ld	a4,-288(a3) # ee0 <.LBB64_3+0xcc8>
    73b0:	000b5463          	bgez	s6,73b8 <.LBB64_514>
    73b4:	c0000537          	lui	a0,0xc0000

00000000000073b8 <.LBB64_514>:
    73b8:	eaa43c23          	sd	a0,-328(s0)
    73bc:	f7843503          	ld	a0,-136(s0)
    73c0:	00a60533          	add	a0,a2,a0
    73c4:	00001637          	lui	a2,0x1
    73c8:	40c40633          	sub	a2,s0,a2
    73cc:	77063603          	ld	a2,1904(a2) # 1770 <.LBB64_5+0x68>
    73d0:	00c50533          	add	a0,a0,a2
    73d4:	f8843603          	ld	a2,-120(s0)
    73d8:	00c50533          	add	a0,a0,a2
    73dc:	1005051b          	addiw	a0,a0,256 # ffffffffc0000100 <.Lfunc_end80+0xffffffffbffd7734>
    73e0:	40000637          	lui	a2,0x40000
    73e4:	eca43423          	sd	a0,-312(s0)
    73e8:	00055463          	bgez	a0,73f0 <.LBB64_516>
    73ec:	c0000637          	lui	a2,0xc0000

00000000000073f0 <.LBB64_516>:
    73f0:	000c8693          	mv	a3,s9
    73f4:	f8043503          	ld	a0,-128(s0)
    73f8:	00a58533          	add	a0,a1,a0
    73fc:	000015b7          	lui	a1,0x1
    7400:	40b405b3          	sub	a1,s0,a1
    7404:	7785b583          	ld	a1,1912(a1) # 1778 <.LBB64_5+0x70>
    7408:	00b50533          	add	a0,a0,a1
    740c:	f8843583          	ld	a1,-120(s0)
    7410:	00b50533          	add	a0,a0,a1
    7414:	1005051b          	addiw	a0,a0,256
    7418:	eca43023          	sd	a0,-320(s0)
    741c:	400005b7          	lui	a1,0x40000
    7420:	00055463          	bgez	a0,7428 <.LBB64_518>
    7424:	c00005b7          	lui	a1,0xc0000

0000000000007428 <.LBB64_518>:
    7428:	eeb43423          	sd	a1,-280(s0)
    742c:	00001537          	lui	a0,0x1
    7430:	40a40533          	sub	a0,s0,a0
    7434:	ff853503          	ld	a0,-8(a0) # ff8 <.LBB64_3+0xde0>
    7438:	03850533          	mul	a0,a0,s8
    743c:	000015b7          	lui	a1,0x1
    7440:	40b405b3          	sub	a1,s0,a1
    7444:	fc05b583          	ld	a1,-64(a1) # fc0 <.LBB64_3+0xda8>
    7448:	017585b3          	add	a1,a1,s7
    744c:	00b50533          	add	a0,a0,a1
    7450:	42555513          	srai	a0,a0,0x25
    7454:	00a025b3          	sgtz	a1,a0
    7458:	40b005b3          	neg	a1,a1
    745c:	00a5fd33          	and	s10,a1,a0
    7460:	0ff00c93          	li	s9,255
    7464:	019d4463          	blt	s10,s9,746c <.LBB64_520>
    7468:	0ff00d13          	li	s10,255

000000000000746c <.LBB64_520>:
    746c:	00001537          	lui	a0,0x1
    7470:	40a40533          	sub	a0,s0,a0
    7474:	ff053503          	ld	a0,-16(a0) # ff0 <.LBB64_3+0xdd8>
    7478:	03850533          	mul	a0,a0,s8
    747c:	000015b7          	lui	a1,0x1
    7480:	40b405b3          	sub	a1,s0,a1
    7484:	fd85b583          	ld	a1,-40(a1) # fd8 <.LBB64_3+0xdc0>
    7488:	017585b3          	add	a1,a1,s7
    748c:	00b50533          	add	a0,a0,a1
    7490:	42555513          	srai	a0,a0,0x25
    7494:	00a025b3          	sgtz	a1,a0
    7498:	40b005b3          	neg	a1,a1
    749c:	00a5f533          	and	a0,a1,a0
    74a0:	01954463          	blt	a0,s9,74a8 <.LBB64_522>
    74a4:	0ff00513          	li	a0,255

00000000000074a8 <.LBB64_522>:
    74a8:	f8a43423          	sd	a0,-120(s0)
    74ac:	00001537          	lui	a0,0x1
    74b0:	40a40533          	sub	a0,s0,a0
    74b4:	fe053503          	ld	a0,-32(a0) # fe0 <.LBB64_3+0xdc8>
    74b8:	03850533          	mul	a0,a0,s8
    74bc:	000015b7          	lui	a1,0x1
    74c0:	40b405b3          	sub	a1,s0,a1
    74c4:	fb85b583          	ld	a1,-72(a1) # fb8 <.LBB64_3+0xda0>
    74c8:	017585b3          	add	a1,a1,s7
    74cc:	00b50533          	add	a0,a0,a1
    74d0:	42555513          	srai	a0,a0,0x25
    74d4:	00a025b3          	sgtz	a1,a0
    74d8:	40b005b3          	neg	a1,a1
    74dc:	00a5f533          	and	a0,a1,a0
    74e0:	01954463          	blt	a0,s9,74e8 <.LBB64_524>
    74e4:	0ff00513          	li	a0,255

00000000000074e8 <.LBB64_524>:
    74e8:	f8a43023          	sd	a0,-128(s0)
    74ec:	00001537          	lui	a0,0x1
    74f0:	40a40533          	sub	a0,s0,a0
    74f4:	fc853503          	ld	a0,-56(a0) # fc8 <.LBB64_3+0xdb0>
    74f8:	03850533          	mul	a0,a0,s8
    74fc:	000015b7          	lui	a1,0x1
    7500:	40b405b3          	sub	a1,s0,a1
    7504:	fa05b583          	ld	a1,-96(a1) # fa0 <.LBB64_3+0xd88>
    7508:	017585b3          	add	a1,a1,s7
    750c:	00b50533          	add	a0,a0,a1
    7510:	42555513          	srai	a0,a0,0x25
    7514:	00a025b3          	sgtz	a1,a0
    7518:	40b005b3          	neg	a1,a1
    751c:	00a5f533          	and	a0,a1,a0
    7520:	01954463          	blt	a0,s9,7528 <.LBB64_526>
    7524:	0ff00513          	li	a0,255

0000000000007528 <.LBB64_526>:
    7528:	f6a43c23          	sd	a0,-136(s0)
    752c:	00001537          	lui	a0,0x1
    7530:	40a40533          	sub	a0,s0,a0
    7534:	fb053503          	ld	a0,-80(a0) # fb0 <.LBB64_3+0xd98>
    7538:	03850533          	mul	a0,a0,s8
    753c:	000015b7          	lui	a1,0x1
    7540:	40b405b3          	sub	a1,s0,a1
    7544:	f905b583          	ld	a1,-112(a1) # f90 <.LBB64_3+0xd78>
    7548:	017585b3          	add	a1,a1,s7
    754c:	00b50533          	add	a0,a0,a1
    7550:	42555513          	srai	a0,a0,0x25
    7554:	00a025b3          	sgtz	a1,a0
    7558:	40b005b3          	neg	a1,a1
    755c:	00a5f533          	and	a0,a1,a0
    7560:	01954463          	blt	a0,s9,7568 <.LBB64_528>
    7564:	0ff00513          	li	a0,255

0000000000007568 <.LBB64_528>:
    7568:	f6a43823          	sd	a0,-144(s0)
    756c:	00001537          	lui	a0,0x1
    7570:	40a40533          	sub	a0,s0,a0
    7574:	f9853503          	ld	a0,-104(a0) # f98 <.LBB64_3+0xd80>
    7578:	03850533          	mul	a0,a0,s8
    757c:	000015b7          	lui	a1,0x1
    7580:	40b405b3          	sub	a1,s0,a1
    7584:	f785b583          	ld	a1,-136(a1) # f78 <.LBB64_3+0xd60>
    7588:	017585b3          	add	a1,a1,s7
    758c:	00b50533          	add	a0,a0,a1
    7590:	42555513          	srai	a0,a0,0x25
    7594:	00a025b3          	sgtz	a1,a0
    7598:	40b005b3          	neg	a1,a1
    759c:	00a5f533          	and	a0,a1,a0
    75a0:	01954463          	blt	a0,s9,75a8 <.LBB64_530>
    75a4:	0ff00513          	li	a0,255

00000000000075a8 <.LBB64_530>:
    75a8:	f6a43423          	sd	a0,-152(s0)
    75ac:	00001537          	lui	a0,0x1
    75b0:	40a40533          	sub	a0,s0,a0
    75b4:	f8053503          	ld	a0,-128(a0) # f80 <.LBB64_3+0xd68>
    75b8:	03850533          	mul	a0,a0,s8
    75bc:	000015b7          	lui	a1,0x1
    75c0:	40b405b3          	sub	a1,s0,a1
    75c4:	f605b583          	ld	a1,-160(a1) # f60 <.LBB64_3+0xd48>
    75c8:	017585b3          	add	a1,a1,s7
    75cc:	00b50533          	add	a0,a0,a1
    75d0:	42555513          	srai	a0,a0,0x25
    75d4:	00a025b3          	sgtz	a1,a0
    75d8:	40b005b3          	neg	a1,a1
    75dc:	00a5f533          	and	a0,a1,a0
    75e0:	01954463          	blt	a0,s9,75e8 <.LBB64_532>
    75e4:	0ff00513          	li	a0,255

00000000000075e8 <.LBB64_532>:
    75e8:	f6a43023          	sd	a0,-160(s0)
    75ec:	00001537          	lui	a0,0x1
    75f0:	40a40533          	sub	a0,s0,a0
    75f4:	f7053503          	ld	a0,-144(a0) # f70 <.LBB64_3+0xd58>
    75f8:	03850533          	mul	a0,a0,s8
    75fc:	000015b7          	lui	a1,0x1
    7600:	40b405b3          	sub	a1,s0,a1
    7604:	f505b583          	ld	a1,-176(a1) # f50 <.LBB64_3+0xd38>
    7608:	017585b3          	add	a1,a1,s7
    760c:	00b50533          	add	a0,a0,a1
    7610:	42555513          	srai	a0,a0,0x25
    7614:	00a025b3          	sgtz	a1,a0
    7618:	40b005b3          	neg	a1,a1
    761c:	00a5f533          	and	a0,a1,a0
    7620:	01954463          	blt	a0,s9,7628 <.LBB64_534>
    7624:	0ff00513          	li	a0,255

0000000000007628 <.LBB64_534>:
    7628:	f4a43c23          	sd	a0,-168(s0)
    762c:	00001537          	lui	a0,0x1
    7630:	40a40533          	sub	a0,s0,a0
    7634:	f5853503          	ld	a0,-168(a0) # f58 <.LBB64_3+0xd40>
    7638:	03850533          	mul	a0,a0,s8
    763c:	000015b7          	lui	a1,0x1
    7640:	40b405b3          	sub	a1,s0,a1
    7644:	f405b583          	ld	a1,-192(a1) # f40 <.LBB64_3+0xd28>
    7648:	017585b3          	add	a1,a1,s7
    764c:	00b50533          	add	a0,a0,a1
    7650:	42555513          	srai	a0,a0,0x25
    7654:	00a025b3          	sgtz	a1,a0
    7658:	40b005b3          	neg	a1,a1
    765c:	00a5f533          	and	a0,a1,a0
    7660:	01954463          	blt	a0,s9,7668 <.LBB64_536>
    7664:	0ff00513          	li	a0,255

0000000000007668 <.LBB64_536>:
    7668:	f4a43823          	sd	a0,-176(s0)
    766c:	00001537          	lui	a0,0x1
    7670:	40a40533          	sub	a0,s0,a0
    7674:	d9053503          	ld	a0,-624(a0) # d90 <.LBB64_3+0xb78>
    7678:	03850533          	mul	a0,a0,s8
    767c:	000015b7          	lui	a1,0x1
    7680:	40b405b3          	sub	a1,s0,a1
    7684:	6705b583          	ld	a1,1648(a1) # 1670 <.LBB64_4+0x504>
    7688:	017585b3          	add	a1,a1,s7
    768c:	00b50533          	add	a0,a0,a1
    7690:	42555513          	srai	a0,a0,0x25
    7694:	00a025b3          	sgtz	a1,a0
    7698:	40b005b3          	neg	a1,a1
    769c:	00a5f533          	and	a0,a1,a0
    76a0:	01954463          	blt	a0,s9,76a8 <.LBB64_538>
    76a4:	0ff00513          	li	a0,255

00000000000076a8 <.LBB64_538>:
    76a8:	f4a43423          	sd	a0,-184(s0)
    76ac:	00001537          	lui	a0,0x1
    76b0:	40a40533          	sub	a0,s0,a0
    76b4:	da053503          	ld	a0,-608(a0) # da0 <.LBB64_3+0xb88>
    76b8:	03850533          	mul	a0,a0,s8
    76bc:	000015b7          	lui	a1,0x1
    76c0:	40b405b3          	sub	a1,s0,a1
    76c4:	d985b583          	ld	a1,-616(a1) # d98 <.LBB64_3+0xb80>
    76c8:	017585b3          	add	a1,a1,s7
    76cc:	00b50533          	add	a0,a0,a1
    76d0:	42555513          	srai	a0,a0,0x25
    76d4:	00a025b3          	sgtz	a1,a0
    76d8:	40b005b3          	neg	a1,a1
    76dc:	00a5f533          	and	a0,a1,a0
    76e0:	01954463          	blt	a0,s9,76e8 <.LBB64_540>
    76e4:	0ff00513          	li	a0,255

00000000000076e8 <.LBB64_540>:
    76e8:	f4a43023          	sd	a0,-192(s0)
    76ec:	00001537          	lui	a0,0x1
    76f0:	40a40533          	sub	a0,s0,a0
    76f4:	db053503          	ld	a0,-592(a0) # db0 <.LBB64_3+0xb98>
    76f8:	03850533          	mul	a0,a0,s8
    76fc:	000015b7          	lui	a1,0x1
    7700:	40b405b3          	sub	a1,s0,a1
    7704:	da85b583          	ld	a1,-600(a1) # da8 <.LBB64_3+0xb90>
    7708:	017585b3          	add	a1,a1,s7
    770c:	00b50533          	add	a0,a0,a1
    7710:	42555513          	srai	a0,a0,0x25
    7714:	00a025b3          	sgtz	a1,a0
    7718:	40b005b3          	neg	a1,a1
    771c:	00a5f533          	and	a0,a1,a0
    7720:	01954463          	blt	a0,s9,7728 <.LBB64_542>
    7724:	0ff00513          	li	a0,255

0000000000007728 <.LBB64_542>:
    7728:	f2a43c23          	sd	a0,-200(s0)
    772c:	00001537          	lui	a0,0x1
    7730:	40a40533          	sub	a0,s0,a0
    7734:	dc053503          	ld	a0,-576(a0) # dc0 <.LBB64_3+0xba8>
    7738:	03850533          	mul	a0,a0,s8
    773c:	000015b7          	lui	a1,0x1
    7740:	40b405b3          	sub	a1,s0,a1
    7744:	db85b583          	ld	a1,-584(a1) # db8 <.LBB64_3+0xba0>
    7748:	017585b3          	add	a1,a1,s7
    774c:	00b50533          	add	a0,a0,a1
    7750:	42555513          	srai	a0,a0,0x25
    7754:	00a025b3          	sgtz	a1,a0
    7758:	40b005b3          	neg	a1,a1
    775c:	00a5f533          	and	a0,a1,a0
    7760:	01954463          	blt	a0,s9,7768 <.LBB64_544>
    7764:	0ff00513          	li	a0,255

0000000000007768 <.LBB64_544>:
    7768:	f2a43823          	sd	a0,-208(s0)
    776c:	00001537          	lui	a0,0x1
    7770:	40a40533          	sub	a0,s0,a0
    7774:	dd053503          	ld	a0,-560(a0) # dd0 <.LBB64_3+0xbb8>
    7778:	03850533          	mul	a0,a0,s8
    777c:	000015b7          	lui	a1,0x1
    7780:	40b405b3          	sub	a1,s0,a1
    7784:	dc85b583          	ld	a1,-568(a1) # dc8 <.LBB64_3+0xbb0>
    7788:	017585b3          	add	a1,a1,s7
    778c:	00b50533          	add	a0,a0,a1
    7790:	42555513          	srai	a0,a0,0x25
    7794:	00a025b3          	sgtz	a1,a0
    7798:	40b005b3          	neg	a1,a1
    779c:	00a5f533          	and	a0,a1,a0
    77a0:	01954463          	blt	a0,s9,77a8 <.LBB64_546>
    77a4:	0ff00513          	li	a0,255

00000000000077a8 <.LBB64_546>:
    77a8:	f2a43423          	sd	a0,-216(s0)
    77ac:	00001537          	lui	a0,0x1
    77b0:	40a40533          	sub	a0,s0,a0
    77b4:	de053503          	ld	a0,-544(a0) # de0 <.LBB64_3+0xbc8>
    77b8:	03850533          	mul	a0,a0,s8
    77bc:	000015b7          	lui	a1,0x1
    77c0:	40b405b3          	sub	a1,s0,a1
    77c4:	dd85b583          	ld	a1,-552(a1) # dd8 <.LBB64_3+0xbc0>
    77c8:	017585b3          	add	a1,a1,s7
    77cc:	00b50533          	add	a0,a0,a1
    77d0:	42555513          	srai	a0,a0,0x25
    77d4:	00a025b3          	sgtz	a1,a0
    77d8:	40b005b3          	neg	a1,a1
    77dc:	00a5f533          	and	a0,a1,a0
    77e0:	01954463          	blt	a0,s9,77e8 <.LBB64_548>
    77e4:	0ff00513          	li	a0,255

00000000000077e8 <.LBB64_548>:
    77e8:	f2a43023          	sd	a0,-224(s0)
    77ec:	00001537          	lui	a0,0x1
    77f0:	40a40533          	sub	a0,s0,a0
    77f4:	df053503          	ld	a0,-528(a0) # df0 <.LBB64_3+0xbd8>
    77f8:	03850533          	mul	a0,a0,s8
    77fc:	000015b7          	lui	a1,0x1
    7800:	40b405b3          	sub	a1,s0,a1
    7804:	de85b583          	ld	a1,-536(a1) # de8 <.LBB64_3+0xbd0>
    7808:	017585b3          	add	a1,a1,s7
    780c:	00b50533          	add	a0,a0,a1
    7810:	42555513          	srai	a0,a0,0x25
    7814:	00a025b3          	sgtz	a1,a0
    7818:	40b005b3          	neg	a1,a1
    781c:	00a5f533          	and	a0,a1,a0
    7820:	01954463          	blt	a0,s9,7828 <.LBB64_550>
    7824:	0ff00513          	li	a0,255

0000000000007828 <.LBB64_550>:
    7828:	f0a43c23          	sd	a0,-232(s0)
    782c:	00001537          	lui	a0,0x1
    7830:	40a40533          	sub	a0,s0,a0
    7834:	e0053503          	ld	a0,-512(a0) # e00 <.LBB64_3+0xbe8>
    7838:	03850533          	mul	a0,a0,s8
    783c:	000015b7          	lui	a1,0x1
    7840:	40b405b3          	sub	a1,s0,a1
    7844:	df85b583          	ld	a1,-520(a1) # df8 <.LBB64_3+0xbe0>
    7848:	017585b3          	add	a1,a1,s7
    784c:	00b50533          	add	a0,a0,a1
    7850:	42555513          	srai	a0,a0,0x25
    7854:	00a025b3          	sgtz	a1,a0
    7858:	40b005b3          	neg	a1,a1
    785c:	00a5f533          	and	a0,a1,a0
    7860:	01954463          	blt	a0,s9,7868 <.LBB64_552>
    7864:	0ff00513          	li	a0,255

0000000000007868 <.LBB64_552>:
    7868:	f0a43823          	sd	a0,-240(s0)
    786c:	00001537          	lui	a0,0x1
    7870:	40a40533          	sub	a0,s0,a0
    7874:	e0853503          	ld	a0,-504(a0) # e08 <.LBB64_3+0xbf0>
    7878:	03850533          	mul	a0,a0,s8
    787c:	000015b7          	lui	a1,0x1
    7880:	40b405b3          	sub	a1,s0,a1
    7884:	6785b583          	ld	a1,1656(a1) # 1678 <.LBB64_4+0x50c>
    7888:	017585b3          	add	a1,a1,s7
    788c:	00b50533          	add	a0,a0,a1
    7890:	42555513          	srai	a0,a0,0x25
    7894:	00a025b3          	sgtz	a1,a0
    7898:	40b005b3          	neg	a1,a1
    789c:	00a5f533          	and	a0,a1,a0
    78a0:	01954463          	blt	a0,s9,78a8 <.LBB64_554>
    78a4:	0ff00513          	li	a0,255

00000000000078a8 <.LBB64_554>:
    78a8:	f0a43423          	sd	a0,-248(s0)
    78ac:	00001537          	lui	a0,0x1
    78b0:	40a40533          	sub	a0,s0,a0
    78b4:	e1853503          	ld	a0,-488(a0) # e18 <.LBB64_3+0xc00>
    78b8:	03850533          	mul	a0,a0,s8
    78bc:	000015b7          	lui	a1,0x1
    78c0:	40b405b3          	sub	a1,s0,a1
    78c4:	e105b583          	ld	a1,-496(a1) # e10 <.LBB64_3+0xbf8>
    78c8:	017585b3          	add	a1,a1,s7
    78cc:	00b50533          	add	a0,a0,a1
    78d0:	42555513          	srai	a0,a0,0x25
    78d4:	00a025b3          	sgtz	a1,a0
    78d8:	40b005b3          	neg	a1,a1
    78dc:	00a5f533          	and	a0,a1,a0
    78e0:	01954463          	blt	a0,s9,78e8 <.LBB64_556>
    78e4:	0ff00513          	li	a0,255

00000000000078e8 <.LBB64_556>:
    78e8:	f0a43023          	sd	a0,-256(s0)
    78ec:	00001537          	lui	a0,0x1
    78f0:	40a40533          	sub	a0,s0,a0
    78f4:	e2853503          	ld	a0,-472(a0) # e28 <.LBB64_3+0xc10>
    78f8:	03850533          	mul	a0,a0,s8
    78fc:	000015b7          	lui	a1,0x1
    7900:	40b405b3          	sub	a1,s0,a1
    7904:	e205b583          	ld	a1,-480(a1) # e20 <.LBB64_3+0xc08>
    7908:	017585b3          	add	a1,a1,s7
    790c:	00b50533          	add	a0,a0,a1
    7910:	42555513          	srai	a0,a0,0x25
    7914:	00a025b3          	sgtz	a1,a0
    7918:	40b005b3          	neg	a1,a1
    791c:	00a5f533          	and	a0,a1,a0
    7920:	01954463          	blt	a0,s9,7928 <.LBB64_558>
    7924:	0ff00513          	li	a0,255

0000000000007928 <.LBB64_558>:
    7928:	eea43c23          	sd	a0,-264(s0)
    792c:	00001537          	lui	a0,0x1
    7930:	40a40533          	sub	a0,s0,a0
    7934:	e3853503          	ld	a0,-456(a0) # e38 <.LBB64_3+0xc20>
    7938:	03850533          	mul	a0,a0,s8
    793c:	000015b7          	lui	a1,0x1
    7940:	40b405b3          	sub	a1,s0,a1
    7944:	e305b583          	ld	a1,-464(a1) # e30 <.LBB64_3+0xc18>
    7948:	017585b3          	add	a1,a1,s7
    794c:	00b50533          	add	a0,a0,a1
    7950:	42555513          	srai	a0,a0,0x25
    7954:	00a025b3          	sgtz	a1,a0
    7958:	40b005b3          	neg	a1,a1
    795c:	00a5f533          	and	a0,a1,a0
    7960:	01954463          	blt	a0,s9,7968 <.LBB64_560>
    7964:	0ff00513          	li	a0,255

0000000000007968 <.LBB64_560>:
    7968:	eea43823          	sd	a0,-272(s0)
    796c:	00001537          	lui	a0,0x1
    7970:	40a40533          	sub	a0,s0,a0
    7974:	e4853503          	ld	a0,-440(a0) # e48 <.LBB64_3+0xc30>
    7978:	03850533          	mul	a0,a0,s8
    797c:	000015b7          	lui	a1,0x1
    7980:	40b405b3          	sub	a1,s0,a1
    7984:	e405b583          	ld	a1,-448(a1) # e40 <.LBB64_3+0xc28>
    7988:	017585b3          	add	a1,a1,s7
    798c:	00b50533          	add	a0,a0,a1
    7990:	42555513          	srai	a0,a0,0x25
    7994:	00a025b3          	sgtz	a1,a0
    7998:	40b005b3          	neg	a1,a1
    799c:	00a5f533          	and	a0,a1,a0
    79a0:	01954463          	blt	a0,s9,79a8 <.LBB64_562>
    79a4:	0ff00513          	li	a0,255

00000000000079a8 <.LBB64_562>:
    79a8:	eea43023          	sd	a0,-288(s0)
    79ac:	00001537          	lui	a0,0x1
    79b0:	40a40533          	sub	a0,s0,a0
    79b4:	e5853503          	ld	a0,-424(a0) # e58 <.LBB64_3+0xc40>
    79b8:	03850533          	mul	a0,a0,s8
    79bc:	000015b7          	lui	a1,0x1
    79c0:	40b405b3          	sub	a1,s0,a1
    79c4:	e505b583          	ld	a1,-432(a1) # e50 <.LBB64_3+0xc38>
    79c8:	017585b3          	add	a1,a1,s7
    79cc:	00b50533          	add	a0,a0,a1
    79d0:	42555513          	srai	a0,a0,0x25
    79d4:	00a025b3          	sgtz	a1,a0
    79d8:	40b005b3          	neg	a1,a1
    79dc:	00a5f533          	and	a0,a1,a0
    79e0:	01954463          	blt	a0,s9,79e8 <.LBB64_564>
    79e4:	0ff00513          	li	a0,255

00000000000079e8 <.LBB64_564>:
    79e8:	eca43c23          	sd	a0,-296(s0)
    79ec:	00001537          	lui	a0,0x1
    79f0:	40a40533          	sub	a0,s0,a0
    79f4:	e6853503          	ld	a0,-408(a0) # e68 <.LBB64_3+0xc50>
    79f8:	03850533          	mul	a0,a0,s8
    79fc:	000015b7          	lui	a1,0x1
    7a00:	40b405b3          	sub	a1,s0,a1
    7a04:	e605b583          	ld	a1,-416(a1) # e60 <.LBB64_3+0xc48>
    7a08:	017585b3          	add	a1,a1,s7
    7a0c:	00b50533          	add	a0,a0,a1
    7a10:	42555513          	srai	a0,a0,0x25
    7a14:	00a025b3          	sgtz	a1,a0
    7a18:	40b005b3          	neg	a1,a1
    7a1c:	00a5f533          	and	a0,a1,a0
    7a20:	01954463          	blt	a0,s9,7a28 <.LBB64_566>
    7a24:	0ff00513          	li	a0,255

0000000000007a28 <.LBB64_566>:
    7a28:	eca43823          	sd	a0,-304(s0)
    7a2c:	00001537          	lui	a0,0x1
    7a30:	40a40533          	sub	a0,s0,a0
    7a34:	e7853503          	ld	a0,-392(a0) # e78 <.LBB64_3+0xc60>
    7a38:	03850533          	mul	a0,a0,s8
    7a3c:	000015b7          	lui	a1,0x1
    7a40:	40b405b3          	sub	a1,s0,a1
    7a44:	e705b583          	ld	a1,-400(a1) # e70 <.LBB64_3+0xc58>
    7a48:	017585b3          	add	a1,a1,s7
    7a4c:	00b50533          	add	a0,a0,a1
    7a50:	42555513          	srai	a0,a0,0x25
    7a54:	00a025b3          	sgtz	a1,a0
    7a58:	40b005b3          	neg	a1,a1
    7a5c:	00a5f533          	and	a0,a1,a0
    7a60:	01954463          	blt	a0,s9,7a68 <.LBB64_568>
    7a64:	0ff00513          	li	a0,255

0000000000007a68 <.LBB64_568>:
    7a68:	eaa43423          	sd	a0,-344(s0)
    7a6c:	00001537          	lui	a0,0x1
    7a70:	40a40533          	sub	a0,s0,a0
    7a74:	e8853503          	ld	a0,-376(a0) # e88 <.LBB64_3+0xc70>
    7a78:	03850533          	mul	a0,a0,s8
    7a7c:	000015b7          	lui	a1,0x1
    7a80:	40b405b3          	sub	a1,s0,a1
    7a84:	e805b583          	ld	a1,-384(a1) # e80 <.LBB64_3+0xc68>
    7a88:	017585b3          	add	a1,a1,s7
    7a8c:	00b50533          	add	a0,a0,a1
    7a90:	42555513          	srai	a0,a0,0x25
    7a94:	00a025b3          	sgtz	a1,a0
    7a98:	40b005b3          	neg	a1,a1
    7a9c:	00a5f533          	and	a0,a1,a0
    7aa0:	01954463          	blt	a0,s9,7aa8 <.LBB64_570>
    7aa4:	0ff00513          	li	a0,255

0000000000007aa8 <.LBB64_570>:
    7aa8:	e6a43c23          	sd	a0,-392(s0)
    7aac:	00001537          	lui	a0,0x1
    7ab0:	40a40533          	sub	a0,s0,a0
    7ab4:	e9853503          	ld	a0,-360(a0) # e98 <.LBB64_3+0xc80>
    7ab8:	03850533          	mul	a0,a0,s8
    7abc:	000015b7          	lui	a1,0x1
    7ac0:	40b405b3          	sub	a1,s0,a1
    7ac4:	e905b583          	ld	a1,-368(a1) # e90 <.LBB64_3+0xc78>
    7ac8:	017585b3          	add	a1,a1,s7
    7acc:	00b50533          	add	a0,a0,a1
    7ad0:	42555513          	srai	a0,a0,0x25
    7ad4:	00a025b3          	sgtz	a1,a0
    7ad8:	40b005b3          	neg	a1,a1
    7adc:	00a5f533          	and	a0,a1,a0
    7ae0:	01954463          	blt	a0,s9,7ae8 <.LBB64_572>
    7ae4:	0ff00513          	li	a0,255

0000000000007ae8 <.LBB64_572>:
    7ae8:	e4a43c23          	sd	a0,-424(s0)
    7aec:	00001537          	lui	a0,0x1
    7af0:	40a40533          	sub	a0,s0,a0
    7af4:	ea853503          	ld	a0,-344(a0) # ea8 <.LBB64_3+0xc90>
    7af8:	03850533          	mul	a0,a0,s8
    7afc:	000015b7          	lui	a1,0x1
    7b00:	40b405b3          	sub	a1,s0,a1
    7b04:	ea05b583          	ld	a1,-352(a1) # ea0 <.LBB64_3+0xc88>
    7b08:	017585b3          	add	a1,a1,s7
    7b0c:	00b50533          	add	a0,a0,a1
    7b10:	42555513          	srai	a0,a0,0x25
    7b14:	00a025b3          	sgtz	a1,a0
    7b18:	40b005b3          	neg	a1,a1
    7b1c:	00a5f533          	and	a0,a1,a0
    7b20:	01954463          	blt	a0,s9,7b28 <.LBB64_574>
    7b24:	0ff00513          	li	a0,255

0000000000007b28 <.LBB64_574>:
    7b28:	e2a43423          	sd	a0,-472(s0)
    7b2c:	00001537          	lui	a0,0x1
    7b30:	40a40533          	sub	a0,s0,a0
    7b34:	eb853503          	ld	a0,-328(a0) # eb8 <.LBB64_3+0xca0>
    7b38:	03850533          	mul	a0,a0,s8
    7b3c:	000015b7          	lui	a1,0x1
    7b40:	40b405b3          	sub	a1,s0,a1
    7b44:	eb05b583          	ld	a1,-336(a1) # eb0 <.LBB64_3+0xc98>
    7b48:	017585b3          	add	a1,a1,s7
    7b4c:	00b50533          	add	a0,a0,a1
    7b50:	42555513          	srai	a0,a0,0x25
    7b54:	00a025b3          	sgtz	a1,a0
    7b58:	40b005b3          	neg	a1,a1
    7b5c:	00a5f533          	and	a0,a1,a0
    7b60:	01954463          	blt	a0,s9,7b68 <.LBB64_576>
    7b64:	0ff00513          	li	a0,255

0000000000007b68 <.LBB64_576>:
    7b68:	e2a43023          	sd	a0,-480(s0)
    7b6c:	00001537          	lui	a0,0x1
    7b70:	40a40533          	sub	a0,s0,a0
    7b74:	ec853503          	ld	a0,-312(a0) # ec8 <.LBB64_3+0xcb0>
    7b78:	03850533          	mul	a0,a0,s8
    7b7c:	000015b7          	lui	a1,0x1
    7b80:	40b405b3          	sub	a1,s0,a1
    7b84:	ec05b583          	ld	a1,-320(a1) # ec0 <.LBB64_3+0xca8>
    7b88:	017585b3          	add	a1,a1,s7
    7b8c:	00b50533          	add	a0,a0,a1
    7b90:	42555513          	srai	a0,a0,0x25
    7b94:	00a025b3          	sgtz	a1,a0
    7b98:	40b005b3          	neg	a1,a1
    7b9c:	00a5f533          	and	a0,a1,a0
    7ba0:	01954463          	blt	a0,s9,7ba8 <.LBB64_578>
    7ba4:	0ff00513          	li	a0,255

0000000000007ba8 <.LBB64_578>:
    7ba8:	e0a43c23          	sd	a0,-488(s0)
    7bac:	00001537          	lui	a0,0x1
    7bb0:	40a40533          	sub	a0,s0,a0
    7bb4:	ed853503          	ld	a0,-296(a0) # ed8 <.LBB64_3+0xcc0>
    7bb8:	03850533          	mul	a0,a0,s8
    7bbc:	000015b7          	lui	a1,0x1
    7bc0:	40b405b3          	sub	a1,s0,a1
    7bc4:	ed05b583          	ld	a1,-304(a1) # ed0 <.LBB64_3+0xcb8>
    7bc8:	017585b3          	add	a1,a1,s7
    7bcc:	00b50533          	add	a0,a0,a1
    7bd0:	42555513          	srai	a0,a0,0x25
    7bd4:	00a025b3          	sgtz	a1,a0
    7bd8:	40b005b3          	neg	a1,a1
    7bdc:	00a5f533          	and	a0,a1,a0
    7be0:	01954463          	blt	a0,s9,7be8 <.LBB64_580>
    7be4:	0ff00513          	li	a0,255

0000000000007be8 <.LBB64_580>:
    7be8:	e0a43823          	sd	a0,-496(s0)
    7bec:	00001537          	lui	a0,0x1
    7bf0:	40a40533          	sub	a0,s0,a0
    7bf4:	ee853503          	ld	a0,-280(a0) # ee8 <.LBB64_3+0xcd0>
    7bf8:	03850533          	mul	a0,a0,s8
    7bfc:	017705b3          	add	a1,a4,s7
    7c00:	00b50533          	add	a0,a0,a1
    7c04:	42555513          	srai	a0,a0,0x25
    7c08:	00a025b3          	sgtz	a1,a0
    7c0c:	40b005b3          	neg	a1,a1
    7c10:	00a5f533          	and	a0,a1,a0
    7c14:	01954463          	blt	a0,s9,7c1c <.LBB64_582>
    7c18:	0ff00513          	li	a0,255

0000000000007c1c <.LBB64_582>:
    7c1c:	e0a43423          	sd	a0,-504(s0)
    7c20:	00001537          	lui	a0,0x1
    7c24:	40a40533          	sub	a0,s0,a0
    7c28:	ef853503          	ld	a0,-264(a0) # ef8 <.LBB64_3+0xce0>
    7c2c:	03850533          	mul	a0,a0,s8
    7c30:	000015b7          	lui	a1,0x1
    7c34:	40b405b3          	sub	a1,s0,a1
    7c38:	ef05b583          	ld	a1,-272(a1) # ef0 <.LBB64_3+0xcd8>
    7c3c:	017585b3          	add	a1,a1,s7
    7c40:	00b50533          	add	a0,a0,a1
    7c44:	42555513          	srai	a0,a0,0x25
    7c48:	00a025b3          	sgtz	a1,a0
    7c4c:	40b005b3          	neg	a1,a1
    7c50:	00a5f533          	and	a0,a1,a0
    7c54:	01954463          	blt	a0,s9,7c5c <.LBB64_584>
    7c58:	0ff00513          	li	a0,255

0000000000007c5c <.LBB64_584>:
    7c5c:	e0a43023          	sd	a0,-512(s0)
    7c60:	00001537          	lui	a0,0x1
    7c64:	40a40533          	sub	a0,s0,a0
    7c68:	f0853503          	ld	a0,-248(a0) # f08 <.LBB64_3+0xcf0>
    7c6c:	03850533          	mul	a0,a0,s8
    7c70:	000015b7          	lui	a1,0x1
    7c74:	40b405b3          	sub	a1,s0,a1
    7c78:	f005b583          	ld	a1,-256(a1) # f00 <.LBB64_3+0xce8>
    7c7c:	017585b3          	add	a1,a1,s7
    7c80:	00b50533          	add	a0,a0,a1
    7c84:	42555513          	srai	a0,a0,0x25
    7c88:	00a025b3          	sgtz	a1,a0
    7c8c:	40b005b3          	neg	a1,a1
    7c90:	00a5f533          	and	a0,a1,a0
    7c94:	01954463          	blt	a0,s9,7c9c <.LBB64_586>
    7c98:	0ff00513          	li	a0,255

0000000000007c9c <.LBB64_586>:
    7c9c:	dea43c23          	sd	a0,-520(s0)
    7ca0:	00001537          	lui	a0,0x1
    7ca4:	40a40533          	sub	a0,s0,a0
    7ca8:	f1853503          	ld	a0,-232(a0) # f18 <.LBB64_3+0xd00>
    7cac:	03850533          	mul	a0,a0,s8
    7cb0:	000015b7          	lui	a1,0x1
    7cb4:	40b405b3          	sub	a1,s0,a1
    7cb8:	f105b583          	ld	a1,-240(a1) # f10 <.LBB64_3+0xcf8>
    7cbc:	017585b3          	add	a1,a1,s7
    7cc0:	00b50533          	add	a0,a0,a1
    7cc4:	42555513          	srai	a0,a0,0x25
    7cc8:	00a025b3          	sgtz	a1,a0
    7ccc:	40b005b3          	neg	a1,a1
    7cd0:	00a5f533          	and	a0,a1,a0
    7cd4:	01954463          	blt	a0,s9,7cdc <.LBB64_588>
    7cd8:	0ff00513          	li	a0,255

0000000000007cdc <.LBB64_588>:
    7cdc:	dea43823          	sd	a0,-528(s0)
    7ce0:	00001537          	lui	a0,0x1
    7ce4:	40a40533          	sub	a0,s0,a0
    7ce8:	f2853503          	ld	a0,-216(a0) # f28 <.LBB64_3+0xd10>
    7cec:	03850533          	mul	a0,a0,s8
    7cf0:	000015b7          	lui	a1,0x1
    7cf4:	40b405b3          	sub	a1,s0,a1
    7cf8:	f205b583          	ld	a1,-224(a1) # f20 <.LBB64_3+0xd08>
    7cfc:	017585b3          	add	a1,a1,s7
    7d00:	00b50533          	add	a0,a0,a1
    7d04:	42555513          	srai	a0,a0,0x25
    7d08:	00a025b3          	sgtz	a1,a0
    7d0c:	40b005b3          	neg	a1,a1
    7d10:	00a5f533          	and	a0,a1,a0
    7d14:	01954463          	blt	a0,s9,7d1c <.LBB64_590>
    7d18:	0ff00513          	li	a0,255

0000000000007d1c <.LBB64_590>:
    7d1c:	dea43423          	sd	a0,-536(s0)
    7d20:	00001537          	lui	a0,0x1
    7d24:	40a40533          	sub	a0,s0,a0
    7d28:	f3853503          	ld	a0,-200(a0) # f38 <.LBB64_3+0xd20>
    7d2c:	03850533          	mul	a0,a0,s8
    7d30:	000015b7          	lui	a1,0x1
    7d34:	40b405b3          	sub	a1,s0,a1
    7d38:	f305b583          	ld	a1,-208(a1) # f30 <.LBB64_3+0xd18>
    7d3c:	017585b3          	add	a1,a1,s7
    7d40:	00b50533          	add	a0,a0,a1
    7d44:	42555513          	srai	a0,a0,0x25
    7d48:	00a025b3          	sgtz	a1,a0
    7d4c:	40b005b3          	neg	a1,a1
    7d50:	00a5f533          	and	a0,a1,a0
    7d54:	01954463          	blt	a0,s9,7d5c <.LBB64_592>
    7d58:	0ff00513          	li	a0,255

0000000000007d5c <.LBB64_592>:
    7d5c:	dca43c23          	sd	a0,-552(s0)
    7d60:	00001537          	lui	a0,0x1
    7d64:	40a40533          	sub	a0,s0,a0
    7d68:	f6853503          	ld	a0,-152(a0) # f68 <.LBB64_3+0xd50>
    7d6c:	03850533          	mul	a0,a0,s8
    7d70:	000015b7          	lui	a1,0x1
    7d74:	40b405b3          	sub	a1,s0,a1
    7d78:	f485b583          	ld	a1,-184(a1) # f48 <.LBB64_3+0xd30>
    7d7c:	017585b3          	add	a1,a1,s7
    7d80:	00b50533          	add	a0,a0,a1
    7d84:	42555513          	srai	a0,a0,0x25
    7d88:	00a025b3          	sgtz	a1,a0
    7d8c:	40b005b3          	neg	a1,a1
    7d90:	00a5f533          	and	a0,a1,a0
    7d94:	01954463          	blt	a0,s9,7d9c <.LBB64_594>
    7d98:	0ff00513          	li	a0,255

0000000000007d9c <.LBB64_594>:
    7d9c:	dca43823          	sd	a0,-560(s0)
    7da0:	00001537          	lui	a0,0x1
    7da4:	40a40533          	sub	a0,s0,a0
    7da8:	fa853503          	ld	a0,-88(a0) # fa8 <.LBB64_3+0xd90>
    7dac:	03850533          	mul	a0,a0,s8
    7db0:	000015b7          	lui	a1,0x1
    7db4:	40b405b3          	sub	a1,s0,a1
    7db8:	f885b583          	ld	a1,-120(a1) # f88 <.LBB64_3+0xd70>
    7dbc:	017585b3          	add	a1,a1,s7
    7dc0:	00b50533          	add	a0,a0,a1
    7dc4:	42555513          	srai	a0,a0,0x25
    7dc8:	00a025b3          	sgtz	a1,a0
    7dcc:	40b005b3          	neg	a1,a1
    7dd0:	00a5f533          	and	a0,a1,a0
    7dd4:	01954463          	blt	a0,s9,7ddc <.LBB64_596>
    7dd8:	0ff00513          	li	a0,255

0000000000007ddc <.LBB64_596>:
    7ddc:	b8a43423          	sd	a0,-1144(s0)
    7de0:	00001537          	lui	a0,0x1
    7de4:	40a40533          	sub	a0,s0,a0
    7de8:	fe853503          	ld	a0,-24(a0) # fe8 <.LBB64_3+0xdd0>
    7dec:	03850533          	mul	a0,a0,s8
    7df0:	000015b7          	lui	a1,0x1
    7df4:	40b405b3          	sub	a1,s0,a1
    7df8:	fd05b583          	ld	a1,-48(a1) # fd0 <.LBB64_3+0xdb8>
    7dfc:	017585b3          	add	a1,a1,s7
    7e00:	00b50533          	add	a0,a0,a1
    7e04:	42555513          	srai	a0,a0,0x25
    7e08:	00a025b3          	sgtz	a1,a0
    7e0c:	40b005b3          	neg	a1,a1
    7e10:	00a5f533          	and	a0,a1,a0
    7e14:	01954463          	blt	a0,s9,7e1c <.LBB64_598>
    7e18:	0ff00513          	li	a0,255

0000000000007e1c <.LBB64_598>:
    7e1c:	b4a43023          	sd	a0,-1216(s0)
    7e20:	00001537          	lui	a0,0x1
    7e24:	40a40533          	sub	a0,s0,a0
    7e28:	00853503          	ld	a0,8(a0) # 1008 <.LBB64_3+0xdf0>
    7e2c:	03850533          	mul	a0,a0,s8
    7e30:	000015b7          	lui	a1,0x1
    7e34:	40b405b3          	sub	a1,s0,a1
    7e38:	0005b583          	ld	a1,0(a1) # 1000 <.LBB64_3+0xde8>
    7e3c:	017585b3          	add	a1,a1,s7
    7e40:	00b50533          	add	a0,a0,a1
    7e44:	42555513          	srai	a0,a0,0x25
    7e48:	00a025b3          	sgtz	a1,a0
    7e4c:	40b005b3          	neg	a1,a1
    7e50:	00a5f533          	and	a0,a1,a0
    7e54:	01954463          	blt	a0,s9,7e5c <.LBB64_600>
    7e58:	0ff00513          	li	a0,255

0000000000007e5c <.LBB64_600>:
    7e5c:	aea43423          	sd	a0,-1304(s0)
    7e60:	00001537          	lui	a0,0x1
    7e64:	40a40533          	sub	a0,s0,a0
    7e68:	01853503          	ld	a0,24(a0) # 1018 <.LBB64_3+0xe00>
    7e6c:	03850533          	mul	a0,a0,s8
    7e70:	000015b7          	lui	a1,0x1
    7e74:	40b405b3          	sub	a1,s0,a1
    7e78:	0105b583          	ld	a1,16(a1) # 1010 <.LBB64_3+0xdf8>
    7e7c:	017585b3          	add	a1,a1,s7
    7e80:	00b50533          	add	a0,a0,a1
    7e84:	42555513          	srai	a0,a0,0x25
    7e88:	00a025b3          	sgtz	a1,a0
    7e8c:	40b005b3          	neg	a1,a1
    7e90:	00a5f533          	and	a0,a1,a0
    7e94:	01954463          	blt	a0,s9,7e9c <.LBB64_602>
    7e98:	0ff00513          	li	a0,255

0000000000007e9c <.LBB64_602>:
    7e9c:	aaa43423          	sd	a0,-1368(s0)
    7ea0:	00001537          	lui	a0,0x1
    7ea4:	40a40533          	sub	a0,s0,a0
    7ea8:	02853503          	ld	a0,40(a0) # 1028 <.LBB64_3+0xe10>
    7eac:	03850533          	mul	a0,a0,s8
    7eb0:	000015b7          	lui	a1,0x1
    7eb4:	40b405b3          	sub	a1,s0,a1
    7eb8:	0205b583          	ld	a1,32(a1) # 1020 <.LBB64_3+0xe08>
    7ebc:	017585b3          	add	a1,a1,s7
    7ec0:	00b50533          	add	a0,a0,a1
    7ec4:	42555513          	srai	a0,a0,0x25
    7ec8:	00a025b3          	sgtz	a1,a0
    7ecc:	40b005b3          	neg	a1,a1
    7ed0:	00a5f533          	and	a0,a1,a0
    7ed4:	01954463          	blt	a0,s9,7edc <.LBB64_604>
    7ed8:	0ff00513          	li	a0,255

0000000000007edc <.LBB64_604>:
    7edc:	a6a43023          	sd	a0,-1440(s0)
    7ee0:	00001537          	lui	a0,0x1
    7ee4:	40a40533          	sub	a0,s0,a0
    7ee8:	03853503          	ld	a0,56(a0) # 1038 <.LBB64_3+0xe20>
    7eec:	03850533          	mul	a0,a0,s8
    7ef0:	000015b7          	lui	a1,0x1
    7ef4:	40b405b3          	sub	a1,s0,a1
    7ef8:	0305b583          	ld	a1,48(a1) # 1030 <.LBB64_3+0xe18>
    7efc:	017585b3          	add	a1,a1,s7
    7f00:	00b50533          	add	a0,a0,a1
    7f04:	42555513          	srai	a0,a0,0x25
    7f08:	00a025b3          	sgtz	a1,a0
    7f0c:	40b005b3          	neg	a1,a1
    7f10:	00a5f533          	and	a0,a1,a0
    7f14:	01954463          	blt	a0,s9,7f1c <.LBB64_606>
    7f18:	0ff00513          	li	a0,255

0000000000007f1c <.LBB64_606>:
    7f1c:	a2a43023          	sd	a0,-1504(s0)
    7f20:	00001537          	lui	a0,0x1
    7f24:	40a40533          	sub	a0,s0,a0
    7f28:	04853503          	ld	a0,72(a0) # 1048 <.LBB64_3+0xe30>
    7f2c:	03850533          	mul	a0,a0,s8
    7f30:	000015b7          	lui	a1,0x1
    7f34:	40b405b3          	sub	a1,s0,a1
    7f38:	0405b583          	ld	a1,64(a1) # 1040 <.LBB64_3+0xe28>
    7f3c:	017585b3          	add	a1,a1,s7
    7f40:	00b50533          	add	a0,a0,a1
    7f44:	42555513          	srai	a0,a0,0x25
    7f48:	00a025b3          	sgtz	a1,a0
    7f4c:	40b005b3          	neg	a1,a1
    7f50:	00a5f533          	and	a0,a1,a0
    7f54:	01954463          	blt	a0,s9,7f5c <.LBB64_608>
    7f58:	0ff00513          	li	a0,255

0000000000007f5c <.LBB64_608>:
    7f5c:	9ea43023          	sd	a0,-1568(s0)
    7f60:	00001537          	lui	a0,0x1
    7f64:	40a40533          	sub	a0,s0,a0
    7f68:	05853503          	ld	a0,88(a0) # 1058 <.LBB64_3+0xe40>
    7f6c:	03850533          	mul	a0,a0,s8
    7f70:	000015b7          	lui	a1,0x1
    7f74:	40b405b3          	sub	a1,s0,a1
    7f78:	0505b583          	ld	a1,80(a1) # 1050 <.LBB64_3+0xe38>
    7f7c:	017585b3          	add	a1,a1,s7
    7f80:	00b50533          	add	a0,a0,a1
    7f84:	42555513          	srai	a0,a0,0x25
    7f88:	00a025b3          	sgtz	a1,a0
    7f8c:	40b005b3          	neg	a1,a1
    7f90:	00a5f533          	and	a0,a1,a0
    7f94:	01954463          	blt	a0,s9,7f9c <.LBB64_610>
    7f98:	0ff00513          	li	a0,255

0000000000007f9c <.LBB64_610>:
    7f9c:	98a43c23          	sd	a0,-1640(s0)
    7fa0:	00001537          	lui	a0,0x1
    7fa4:	40a40533          	sub	a0,s0,a0
    7fa8:	06853503          	ld	a0,104(a0) # 1068 <.LBB64_3+0xe50>
    7fac:	03850533          	mul	a0,a0,s8
    7fb0:	000015b7          	lui	a1,0x1
    7fb4:	40b405b3          	sub	a1,s0,a1
    7fb8:	0605b583          	ld	a1,96(a1) # 1060 <.LBB64_3+0xe48>
    7fbc:	017585b3          	add	a1,a1,s7
    7fc0:	00b50533          	add	a0,a0,a1
    7fc4:	42555513          	srai	a0,a0,0x25
    7fc8:	00a025b3          	sgtz	a1,a0
    7fcc:	40b005b3          	neg	a1,a1
    7fd0:	00a5f533          	and	a0,a1,a0
    7fd4:	01954463          	blt	a0,s9,7fdc <.LBB64_612>
    7fd8:	0ff00513          	li	a0,255

0000000000007fdc <.LBB64_612>:
    7fdc:	94a43c23          	sd	a0,-1704(s0)
    7fe0:	00001537          	lui	a0,0x1
    7fe4:	40a40533          	sub	a0,s0,a0
    7fe8:	07853503          	ld	a0,120(a0) # 1078 <.LBB64_3+0xe60>
    7fec:	03850533          	mul	a0,a0,s8
    7ff0:	000015b7          	lui	a1,0x1
    7ff4:	40b405b3          	sub	a1,s0,a1
    7ff8:	0705b583          	ld	a1,112(a1) # 1070 <.LBB64_3+0xe58>
    7ffc:	017585b3          	add	a1,a1,s7
    8000:	00b50533          	add	a0,a0,a1
    8004:	42555513          	srai	a0,a0,0x25
    8008:	00a025b3          	sgtz	a1,a0
    800c:	40b005b3          	neg	a1,a1
    8010:	00a5f533          	and	a0,a1,a0
    8014:	01954463          	blt	a0,s9,801c <.LBB64_614>
    8018:	0ff00513          	li	a0,255

000000000000801c <.LBB64_614>:
    801c:	92a43023          	sd	a0,-1760(s0)
    8020:	00001537          	lui	a0,0x1
    8024:	40a40533          	sub	a0,s0,a0
    8028:	08853503          	ld	a0,136(a0) # 1088 <.LBB64_3+0xe70>
    802c:	03850533          	mul	a0,a0,s8
    8030:	000015b7          	lui	a1,0x1
    8034:	40b405b3          	sub	a1,s0,a1
    8038:	0805b583          	ld	a1,128(a1) # 1080 <.LBB64_3+0xe68>
    803c:	017585b3          	add	a1,a1,s7
    8040:	00b50533          	add	a0,a0,a1
    8044:	42555513          	srai	a0,a0,0x25
    8048:	00a025b3          	sgtz	a1,a0
    804c:	40b005b3          	neg	a1,a1
    8050:	00a5f533          	and	a0,a1,a0
    8054:	01954463          	blt	a0,s9,805c <.LBB64_616>
    8058:	0ff00513          	li	a0,255

000000000000805c <.LBB64_616>:
    805c:	8ca43c23          	sd	a0,-1832(s0)
    8060:	00001537          	lui	a0,0x1
    8064:	40a40533          	sub	a0,s0,a0
    8068:	09853503          	ld	a0,152(a0) # 1098 <.LBB64_3+0xe80>
    806c:	03850533          	mul	a0,a0,s8
    8070:	000015b7          	lui	a1,0x1
    8074:	40b405b3          	sub	a1,s0,a1
    8078:	0905b583          	ld	a1,144(a1) # 1090 <.LBB64_3+0xe78>
    807c:	017585b3          	add	a1,a1,s7
    8080:	00b50533          	add	a0,a0,a1
    8084:	42555513          	srai	a0,a0,0x25
    8088:	00a025b3          	sgtz	a1,a0
    808c:	40b005b3          	neg	a1,a1
    8090:	00a5f533          	and	a0,a1,a0
    8094:	01954463          	blt	a0,s9,809c <.LBB64_618>
    8098:	0ff00513          	li	a0,255

000000000000809c <.LBB64_618>:
    809c:	88a43c23          	sd	a0,-1896(s0)
    80a0:	00001537          	lui	a0,0x1
    80a4:	40a40533          	sub	a0,s0,a0
    80a8:	0a853503          	ld	a0,168(a0) # 10a8 <.LBB64_3+0xe90>
    80ac:	03850533          	mul	a0,a0,s8
    80b0:	000015b7          	lui	a1,0x1
    80b4:	40b405b3          	sub	a1,s0,a1
    80b8:	0a05b583          	ld	a1,160(a1) # 10a0 <.LBB64_3+0xe88>
    80bc:	017585b3          	add	a1,a1,s7
    80c0:	00b50533          	add	a0,a0,a1
    80c4:	42555513          	srai	a0,a0,0x25
    80c8:	00a025b3          	sgtz	a1,a0
    80cc:	40b005b3          	neg	a1,a1
    80d0:	00a5f533          	and	a0,a1,a0
    80d4:	01954463          	blt	a0,s9,80dc <.LBB64_620>
    80d8:	0ff00513          	li	a0,255

00000000000080dc <.LBB64_620>:
    80dc:	84a43c23          	sd	a0,-1960(s0)
    80e0:	81043503          	ld	a0,-2032(s0)
    80e4:	03850533          	mul	a0,a0,s8
    80e8:	000015b7          	lui	a1,0x1
    80ec:	40b405b3          	sub	a1,s0,a1
    80f0:	0b05b583          	ld	a1,176(a1) # 10b0 <.LBB64_3+0xe98>
    80f4:	017585b3          	add	a1,a1,s7
    80f8:	00b50533          	add	a0,a0,a1
    80fc:	42555513          	srai	a0,a0,0x25
    8100:	00a025b3          	sgtz	a1,a0
    8104:	40b005b3          	neg	a1,a1
    8108:	00a5f533          	and	a0,a1,a0
    810c:	01954463          	blt	a0,s9,8114 <.LBB64_622>
    8110:	0ff00513          	li	a0,255

0000000000008114 <.LBB64_622>:
    8114:	80a43823          	sd	a0,-2032(s0)
    8118:	00001537          	lui	a0,0x1
    811c:	40a40533          	sub	a0,s0,a0
    8120:	7d853503          	ld	a0,2008(a0) # 17d8 <.LBB64_5+0xd0>
    8124:	03850533          	mul	a0,a0,s8
    8128:	000015b7          	lui	a1,0x1
    812c:	40b405b3          	sub	a1,s0,a1
    8130:	0b85b583          	ld	a1,184(a1) # 10b8 <.LBB64_3+0xea0>
    8134:	017585b3          	add	a1,a1,s7
    8138:	00b50533          	add	a0,a0,a1
    813c:	42555513          	srai	a0,a0,0x25
    8140:	00a025b3          	sgtz	a1,a0
    8144:	40b005b3          	neg	a1,a1
    8148:	00a5f533          	and	a0,a1,a0
    814c:	01954463          	blt	a0,s9,8154 <.LBB64_624>
    8150:	0ff00513          	li	a0,255

0000000000008154 <.LBB64_624>:
    8154:	000015b7          	lui	a1,0x1
    8158:	40b405b3          	sub	a1,s0,a1
    815c:	7ca5bc23          	sd	a0,2008(a1) # 17d8 <.LBB64_5+0xd0>
    8160:	00001537          	lui	a0,0x1
    8164:	40a40533          	sub	a0,s0,a0
    8168:	79853503          	ld	a0,1944(a0) # 1798 <.LBB64_5+0x90>
    816c:	03850533          	mul	a0,a0,s8
    8170:	000015b7          	lui	a1,0x1
    8174:	40b405b3          	sub	a1,s0,a1
    8178:	0c05b583          	ld	a1,192(a1) # 10c0 <.LBB64_3+0xea8>
    817c:	017585b3          	add	a1,a1,s7
    8180:	00b50533          	add	a0,a0,a1
    8184:	42555513          	srai	a0,a0,0x25
    8188:	00a025b3          	sgtz	a1,a0
    818c:	40b005b3          	neg	a1,a1
    8190:	00a5f533          	and	a0,a1,a0
    8194:	01954463          	blt	a0,s9,819c <.LBB64_626>
    8198:	0ff00513          	li	a0,255

000000000000819c <.LBB64_626>:
    819c:	000015b7          	lui	a1,0x1
    81a0:	40b405b3          	sub	a1,s0,a1
    81a4:	78a5bc23          	sd	a0,1944(a1) # 1798 <.LBB64_5+0x90>
    81a8:	00001537          	lui	a0,0x1
    81ac:	40a40533          	sub	a0,s0,a0
    81b0:	0d053503          	ld	a0,208(a0) # 10d0 <.LBB64_3+0xeb8>
    81b4:	03850533          	mul	a0,a0,s8
    81b8:	000015b7          	lui	a1,0x1
    81bc:	40b405b3          	sub	a1,s0,a1
    81c0:	0c85b583          	ld	a1,200(a1) # 10c8 <.LBB64_3+0xeb0>
    81c4:	017585b3          	add	a1,a1,s7
    81c8:	00b50533          	add	a0,a0,a1
    81cc:	42555513          	srai	a0,a0,0x25
    81d0:	00a025b3          	sgtz	a1,a0
    81d4:	40b005b3          	neg	a1,a1
    81d8:	00a5f533          	and	a0,a1,a0
    81dc:	01954463          	blt	a0,s9,81e4 <.LBB64_628>
    81e0:	0ff00513          	li	a0,255

00000000000081e4 <.LBB64_628>:
    81e4:	000015b7          	lui	a1,0x1
    81e8:	40b405b3          	sub	a1,s0,a1
    81ec:	76a5bc23          	sd	a0,1912(a1) # 1778 <.LBB64_5+0x70>
    81f0:	00001537          	lui	a0,0x1
    81f4:	40a40533          	sub	a0,s0,a0
    81f8:	0e053503          	ld	a0,224(a0) # 10e0 <.LBB64_3+0xec8>
    81fc:	03850533          	mul	a0,a0,s8
    8200:	000015b7          	lui	a1,0x1
    8204:	40b405b3          	sub	a1,s0,a1
    8208:	0d85b583          	ld	a1,216(a1) # 10d8 <.LBB64_3+0xec0>
    820c:	017585b3          	add	a1,a1,s7
    8210:	00b50533          	add	a0,a0,a1
    8214:	42555513          	srai	a0,a0,0x25
    8218:	00a025b3          	sgtz	a1,a0
    821c:	40b005b3          	neg	a1,a1
    8220:	00a5f533          	and	a0,a1,a0
    8224:	01954463          	blt	a0,s9,822c <.LBB64_630>
    8228:	0ff00513          	li	a0,255

000000000000822c <.LBB64_630>:
    822c:	000015b7          	lui	a1,0x1
    8230:	40b405b3          	sub	a1,s0,a1
    8234:	76a5b823          	sd	a0,1904(a1) # 1770 <.LBB64_5+0x68>
    8238:	00001537          	lui	a0,0x1
    823c:	40a40533          	sub	a0,s0,a0
    8240:	0f053503          	ld	a0,240(a0) # 10f0 <.LBB64_3+0xed8>
    8244:	03850533          	mul	a0,a0,s8
    8248:	000015b7          	lui	a1,0x1
    824c:	40b405b3          	sub	a1,s0,a1
    8250:	0e85b583          	ld	a1,232(a1) # 10e8 <.LBB64_3+0xed0>
    8254:	017585b3          	add	a1,a1,s7
    8258:	00b50533          	add	a0,a0,a1
    825c:	42555513          	srai	a0,a0,0x25
    8260:	00a025b3          	sgtz	a1,a0
    8264:	40b005b3          	neg	a1,a1
    8268:	00a5f533          	and	a0,a1,a0
    826c:	01954463          	blt	a0,s9,8274 <.LBB64_632>
    8270:	0ff00513          	li	a0,255

0000000000008274 <.LBB64_632>:
    8274:	000015b7          	lui	a1,0x1
    8278:	40b405b3          	sub	a1,s0,a1
    827c:	76a5b423          	sd	a0,1896(a1) # 1768 <.LBB64_5+0x60>
    8280:	00001537          	lui	a0,0x1
    8284:	40a40533          	sub	a0,s0,a0
    8288:	10053503          	ld	a0,256(a0) # 1100 <.LBB64_3+0xee8>
    828c:	03850533          	mul	a0,a0,s8
    8290:	000015b7          	lui	a1,0x1
    8294:	40b405b3          	sub	a1,s0,a1
    8298:	0f85b583          	ld	a1,248(a1) # 10f8 <.LBB64_3+0xee0>
    829c:	017585b3          	add	a1,a1,s7
    82a0:	00b50533          	add	a0,a0,a1
    82a4:	42555513          	srai	a0,a0,0x25
    82a8:	00a025b3          	sgtz	a1,a0
    82ac:	40b005b3          	neg	a1,a1
    82b0:	00a5f533          	and	a0,a1,a0
    82b4:	01954463          	blt	a0,s9,82bc <.LBB64_634>
    82b8:	0ff00513          	li	a0,255

00000000000082bc <.LBB64_634>:
    82bc:	000015b7          	lui	a1,0x1
    82c0:	40b405b3          	sub	a1,s0,a1
    82c4:	76a5b023          	sd	a0,1888(a1) # 1760 <.LBB64_5+0x58>
    82c8:	00001537          	lui	a0,0x1
    82cc:	40a40533          	sub	a0,s0,a0
    82d0:	11053503          	ld	a0,272(a0) # 1110 <.LBB64_3+0xef8>
    82d4:	03850533          	mul	a0,a0,s8
    82d8:	000015b7          	lui	a1,0x1
    82dc:	40b405b3          	sub	a1,s0,a1
    82e0:	1085b583          	ld	a1,264(a1) # 1108 <.LBB64_3+0xef0>
    82e4:	017585b3          	add	a1,a1,s7
    82e8:	00b50533          	add	a0,a0,a1
    82ec:	42555513          	srai	a0,a0,0x25
    82f0:	00a025b3          	sgtz	a1,a0
    82f4:	40b005b3          	neg	a1,a1
    82f8:	00a5f533          	and	a0,a1,a0
    82fc:	01954463          	blt	a0,s9,8304 <.LBB64_636>
    8300:	0ff00513          	li	a0,255

0000000000008304 <.LBB64_636>:
    8304:	000015b7          	lui	a1,0x1
    8308:	40b405b3          	sub	a1,s0,a1
    830c:	74a5bc23          	sd	a0,1880(a1) # 1758 <.LBB64_5+0x50>
    8310:	00001537          	lui	a0,0x1
    8314:	40a40533          	sub	a0,s0,a0
    8318:	12053503          	ld	a0,288(a0) # 1120 <.LBB64_3+0xf08>
    831c:	03850533          	mul	a0,a0,s8
    8320:	000015b7          	lui	a1,0x1
    8324:	40b405b3          	sub	a1,s0,a1
    8328:	1185b583          	ld	a1,280(a1) # 1118 <.LBB64_3+0xf00>
    832c:	017585b3          	add	a1,a1,s7
    8330:	00b50533          	add	a0,a0,a1
    8334:	42555513          	srai	a0,a0,0x25
    8338:	00a025b3          	sgtz	a1,a0
    833c:	40b005b3          	neg	a1,a1
    8340:	00a5f533          	and	a0,a1,a0
    8344:	01954463          	blt	a0,s9,834c <.LBB64_638>
    8348:	0ff00513          	li	a0,255

000000000000834c <.LBB64_638>:
    834c:	000015b7          	lui	a1,0x1
    8350:	40b405b3          	sub	a1,s0,a1
    8354:	74a5b823          	sd	a0,1872(a1) # 1750 <.LBB64_5+0x48>
    8358:	00001537          	lui	a0,0x1
    835c:	40a40533          	sub	a0,s0,a0
    8360:	13053503          	ld	a0,304(a0) # 1130 <.LBB64_3+0xf18>
    8364:	03850533          	mul	a0,a0,s8
    8368:	000015b7          	lui	a1,0x1
    836c:	40b405b3          	sub	a1,s0,a1
    8370:	1285b583          	ld	a1,296(a1) # 1128 <.LBB64_3+0xf10>
    8374:	017585b3          	add	a1,a1,s7
    8378:	00b50533          	add	a0,a0,a1
    837c:	42555513          	srai	a0,a0,0x25
    8380:	00a025b3          	sgtz	a1,a0
    8384:	40b005b3          	neg	a1,a1
    8388:	00a5f533          	and	a0,a1,a0
    838c:	01954463          	blt	a0,s9,8394 <.LBB64_640>
    8390:	0ff00513          	li	a0,255

0000000000008394 <.LBB64_640>:
    8394:	000015b7          	lui	a1,0x1
    8398:	40b405b3          	sub	a1,s0,a1
    839c:	74a5b423          	sd	a0,1864(a1) # 1748 <.LBB64_5+0x40>
    83a0:	00001537          	lui	a0,0x1
    83a4:	40a40533          	sub	a0,s0,a0
    83a8:	14053503          	ld	a0,320(a0) # 1140 <.LBB64_3+0xf28>
    83ac:	03850533          	mul	a0,a0,s8
    83b0:	000015b7          	lui	a1,0x1
    83b4:	40b405b3          	sub	a1,s0,a1
    83b8:	1385b583          	ld	a1,312(a1) # 1138 <.LBB64_3+0xf20>
    83bc:	017585b3          	add	a1,a1,s7
    83c0:	00b50533          	add	a0,a0,a1
    83c4:	42555513          	srai	a0,a0,0x25
    83c8:	00a025b3          	sgtz	a1,a0
    83cc:	40b005b3          	neg	a1,a1
    83d0:	00a5f533          	and	a0,a1,a0
    83d4:	01954463          	blt	a0,s9,83dc <.LBB64_642>
    83d8:	0ff00513          	li	a0,255

00000000000083dc <.LBB64_642>:
    83dc:	000015b7          	lui	a1,0x1
    83e0:	40b405b3          	sub	a1,s0,a1
    83e4:	74a5b023          	sd	a0,1856(a1) # 1740 <.LBB64_5+0x38>
    83e8:	00001537          	lui	a0,0x1
    83ec:	40a40533          	sub	a0,s0,a0
    83f0:	15053503          	ld	a0,336(a0) # 1150 <.LBB64_3+0xf38>
    83f4:	03850533          	mul	a0,a0,s8
    83f8:	000015b7          	lui	a1,0x1
    83fc:	40b405b3          	sub	a1,s0,a1
    8400:	1485b583          	ld	a1,328(a1) # 1148 <.LBB64_3+0xf30>
    8404:	017585b3          	add	a1,a1,s7
    8408:	00b50533          	add	a0,a0,a1
    840c:	42555513          	srai	a0,a0,0x25
    8410:	00a025b3          	sgtz	a1,a0
    8414:	40b005b3          	neg	a1,a1
    8418:	00a5f533          	and	a0,a1,a0
    841c:	01954463          	blt	a0,s9,8424 <.LBB64_644>
    8420:	0ff00513          	li	a0,255

0000000000008424 <.LBB64_644>:
    8424:	000015b7          	lui	a1,0x1
    8428:	40b405b3          	sub	a1,s0,a1
    842c:	72a5bc23          	sd	a0,1848(a1) # 1738 <.LBB64_5+0x30>
    8430:	00001537          	lui	a0,0x1
    8434:	40a40533          	sub	a0,s0,a0
    8438:	16053503          	ld	a0,352(a0) # 1160 <.LBB64_3+0xf48>
    843c:	03850533          	mul	a0,a0,s8
    8440:	000015b7          	lui	a1,0x1
    8444:	40b405b3          	sub	a1,s0,a1
    8448:	1585b583          	ld	a1,344(a1) # 1158 <.LBB64_3+0xf40>
    844c:	017585b3          	add	a1,a1,s7
    8450:	00b50533          	add	a0,a0,a1
    8454:	42555513          	srai	a0,a0,0x25
    8458:	00a025b3          	sgtz	a1,a0
    845c:	40b005b3          	neg	a1,a1
    8460:	00a5f533          	and	a0,a1,a0
    8464:	01954463          	blt	a0,s9,846c <.LBB64_646>
    8468:	0ff00513          	li	a0,255

000000000000846c <.LBB64_646>:
    846c:	000015b7          	lui	a1,0x1
    8470:	40b405b3          	sub	a1,s0,a1
    8474:	72a5b823          	sd	a0,1840(a1) # 1730 <.LBB64_5+0x28>
    8478:	00001537          	lui	a0,0x1
    847c:	40a40533          	sub	a0,s0,a0
    8480:	17053503          	ld	a0,368(a0) # 1170 <.LBB64_4+0x4>
    8484:	03850533          	mul	a0,a0,s8
    8488:	000015b7          	lui	a1,0x1
    848c:	40b405b3          	sub	a1,s0,a1
    8490:	1685b583          	ld	a1,360(a1) # 1168 <.LBB64_3+0xf50>
    8494:	017585b3          	add	a1,a1,s7
    8498:	00b50533          	add	a0,a0,a1
    849c:	42555513          	srai	a0,a0,0x25
    84a0:	00a025b3          	sgtz	a1,a0
    84a4:	40b005b3          	neg	a1,a1
    84a8:	00a5f533          	and	a0,a1,a0
    84ac:	01954463          	blt	a0,s9,84b4 <.LBB64_648>
    84b0:	0ff00513          	li	a0,255

00000000000084b4 <.LBB64_648>:
    84b4:	000015b7          	lui	a1,0x1
    84b8:	40b405b3          	sub	a1,s0,a1
    84bc:	72a5b423          	sd	a0,1832(a1) # 1728 <.LBB64_5+0x20>
    84c0:	00001537          	lui	a0,0x1
    84c4:	40a40533          	sub	a0,s0,a0
    84c8:	18053503          	ld	a0,384(a0) # 1180 <.LBB64_4+0x14>
    84cc:	03850533          	mul	a0,a0,s8
    84d0:	000015b7          	lui	a1,0x1
    84d4:	40b405b3          	sub	a1,s0,a1
    84d8:	1785b583          	ld	a1,376(a1) # 1178 <.LBB64_4+0xc>
    84dc:	017585b3          	add	a1,a1,s7
    84e0:	00b50533          	add	a0,a0,a1
    84e4:	42555513          	srai	a0,a0,0x25
    84e8:	00a025b3          	sgtz	a1,a0
    84ec:	40b005b3          	neg	a1,a1
    84f0:	00a5f533          	and	a0,a1,a0
    84f4:	01954463          	blt	a0,s9,84fc <.LBB64_650>
    84f8:	0ff00513          	li	a0,255

00000000000084fc <.LBB64_650>:
    84fc:	000015b7          	lui	a1,0x1
    8500:	40b405b3          	sub	a1,s0,a1
    8504:	72a5b023          	sd	a0,1824(a1) # 1720 <.LBB64_5+0x18>
    8508:	00001537          	lui	a0,0x1
    850c:	40a40533          	sub	a0,s0,a0
    8510:	19053503          	ld	a0,400(a0) # 1190 <.LBB64_4+0x24>
    8514:	03850533          	mul	a0,a0,s8
    8518:	000015b7          	lui	a1,0x1
    851c:	40b405b3          	sub	a1,s0,a1
    8520:	1885b583          	ld	a1,392(a1) # 1188 <.LBB64_4+0x1c>
    8524:	017585b3          	add	a1,a1,s7
    8528:	00b50533          	add	a0,a0,a1
    852c:	42555513          	srai	a0,a0,0x25
    8530:	00a025b3          	sgtz	a1,a0
    8534:	40b005b3          	neg	a1,a1
    8538:	00a5f533          	and	a0,a1,a0
    853c:	01954463          	blt	a0,s9,8544 <.LBB64_652>
    8540:	0ff00513          	li	a0,255

0000000000008544 <.LBB64_652>:
    8544:	000015b7          	lui	a1,0x1
    8548:	40b405b3          	sub	a1,s0,a1
    854c:	70a5bc23          	sd	a0,1816(a1) # 1718 <.LBB64_5+0x10>
    8550:	00001537          	lui	a0,0x1
    8554:	40a40533          	sub	a0,s0,a0
    8558:	1a053503          	ld	a0,416(a0) # 11a0 <.LBB64_4+0x34>
    855c:	03850533          	mul	a0,a0,s8
    8560:	000015b7          	lui	a1,0x1
    8564:	40b405b3          	sub	a1,s0,a1
    8568:	1985b583          	ld	a1,408(a1) # 1198 <.LBB64_4+0x2c>
    856c:	017585b3          	add	a1,a1,s7
    8570:	00b50533          	add	a0,a0,a1
    8574:	42555513          	srai	a0,a0,0x25
    8578:	00a025b3          	sgtz	a1,a0
    857c:	40b005b3          	neg	a1,a1
    8580:	00a5f533          	and	a0,a1,a0
    8584:	01954463          	blt	a0,s9,858c <.LBB64_654>
    8588:	0ff00513          	li	a0,255

000000000000858c <.LBB64_654>:
    858c:	000015b7          	lui	a1,0x1
    8590:	40b405b3          	sub	a1,s0,a1
    8594:	70a5b823          	sd	a0,1808(a1) # 1710 <.LBB64_5+0x8>
    8598:	00001537          	lui	a0,0x1
    859c:	40a40533          	sub	a0,s0,a0
    85a0:	1b053503          	ld	a0,432(a0) # 11b0 <.LBB64_4+0x44>
    85a4:	03850533          	mul	a0,a0,s8
    85a8:	000015b7          	lui	a1,0x1
    85ac:	40b405b3          	sub	a1,s0,a1
    85b0:	1a85b583          	ld	a1,424(a1) # 11a8 <.LBB64_4+0x3c>
    85b4:	017585b3          	add	a1,a1,s7
    85b8:	00b50533          	add	a0,a0,a1
    85bc:	42555513          	srai	a0,a0,0x25
    85c0:	00a025b3          	sgtz	a1,a0
    85c4:	40b005b3          	neg	a1,a1
    85c8:	00a5f533          	and	a0,a1,a0
    85cc:	01954463          	blt	a0,s9,85d4 <.LBB64_656>
    85d0:	0ff00513          	li	a0,255

00000000000085d4 <.LBB64_656>:
    85d4:	000015b7          	lui	a1,0x1
    85d8:	40b405b3          	sub	a1,s0,a1
    85dc:	70a5b423          	sd	a0,1800(a1) # 1708 <.LBB64_5>
    85e0:	00001537          	lui	a0,0x1
    85e4:	40a40533          	sub	a0,s0,a0
    85e8:	1c053503          	ld	a0,448(a0) # 11c0 <.LBB64_4+0x54>
    85ec:	03850533          	mul	a0,a0,s8
    85f0:	000015b7          	lui	a1,0x1
    85f4:	40b405b3          	sub	a1,s0,a1
    85f8:	1b85b583          	ld	a1,440(a1) # 11b8 <.LBB64_4+0x4c>
    85fc:	017585b3          	add	a1,a1,s7
    8600:	00b50533          	add	a0,a0,a1
    8604:	42555513          	srai	a0,a0,0x25
    8608:	00a025b3          	sgtz	a1,a0
    860c:	40b005b3          	neg	a1,a1
    8610:	00a5f533          	and	a0,a1,a0
    8614:	01954463          	blt	a0,s9,861c <.LBB64_658>
    8618:	0ff00513          	li	a0,255

000000000000861c <.LBB64_658>:
    861c:	000015b7          	lui	a1,0x1
    8620:	40b405b3          	sub	a1,s0,a1
    8624:	70a5b023          	sd	a0,1792(a1) # 1700 <.LBB64_4+0x594>
    8628:	00001537          	lui	a0,0x1
    862c:	40a40533          	sub	a0,s0,a0
    8630:	1d053503          	ld	a0,464(a0) # 11d0 <.LBB64_4+0x64>
    8634:	03850533          	mul	a0,a0,s8
    8638:	000015b7          	lui	a1,0x1
    863c:	40b405b3          	sub	a1,s0,a1
    8640:	1c85b583          	ld	a1,456(a1) # 11c8 <.LBB64_4+0x5c>
    8644:	017585b3          	add	a1,a1,s7
    8648:	00b50533          	add	a0,a0,a1
    864c:	42555513          	srai	a0,a0,0x25
    8650:	00a025b3          	sgtz	a1,a0
    8654:	40b005b3          	neg	a1,a1
    8658:	00a5f533          	and	a0,a1,a0
    865c:	01954463          	blt	a0,s9,8664 <.LBB64_660>
    8660:	0ff00513          	li	a0,255

0000000000008664 <.LBB64_660>:
    8664:	000015b7          	lui	a1,0x1
    8668:	40b405b3          	sub	a1,s0,a1
    866c:	6ea5bc23          	sd	a0,1784(a1) # 16f8 <.LBB64_4+0x58c>
    8670:	00001537          	lui	a0,0x1
    8674:	40a40533          	sub	a0,s0,a0
    8678:	1e053503          	ld	a0,480(a0) # 11e0 <.LBB64_4+0x74>
    867c:	03850533          	mul	a0,a0,s8
    8680:	000015b7          	lui	a1,0x1
    8684:	40b405b3          	sub	a1,s0,a1
    8688:	1d85b583          	ld	a1,472(a1) # 11d8 <.LBB64_4+0x6c>
    868c:	017585b3          	add	a1,a1,s7
    8690:	00b50533          	add	a0,a0,a1
    8694:	42555513          	srai	a0,a0,0x25
    8698:	00a025b3          	sgtz	a1,a0
    869c:	40b005b3          	neg	a1,a1
    86a0:	00a5f533          	and	a0,a1,a0
    86a4:	01954463          	blt	a0,s9,86ac <.LBB64_662>
    86a8:	0ff00513          	li	a0,255

00000000000086ac <.LBB64_662>:
    86ac:	000015b7          	lui	a1,0x1
    86b0:	40b405b3          	sub	a1,s0,a1
    86b4:	6ea5b823          	sd	a0,1776(a1) # 16f0 <.LBB64_4+0x584>
    86b8:	00001537          	lui	a0,0x1
    86bc:	40a40533          	sub	a0,s0,a0
    86c0:	1f053503          	ld	a0,496(a0) # 11f0 <.LBB64_4+0x84>
    86c4:	03850533          	mul	a0,a0,s8
    86c8:	000015b7          	lui	a1,0x1
    86cc:	40b405b3          	sub	a1,s0,a1
    86d0:	1e85b583          	ld	a1,488(a1) # 11e8 <.LBB64_4+0x7c>
    86d4:	017585b3          	add	a1,a1,s7
    86d8:	00b50533          	add	a0,a0,a1
    86dc:	42555513          	srai	a0,a0,0x25
    86e0:	00a025b3          	sgtz	a1,a0
    86e4:	40b005b3          	neg	a1,a1
    86e8:	00a5f533          	and	a0,a1,a0
    86ec:	01954463          	blt	a0,s9,86f4 <.LBB64_664>
    86f0:	0ff00513          	li	a0,255

00000000000086f4 <.LBB64_664>:
    86f4:	000015b7          	lui	a1,0x1
    86f8:	40b405b3          	sub	a1,s0,a1
    86fc:	6ea5b423          	sd	a0,1768(a1) # 16e8 <.LBB64_4+0x57c>
    8700:	00001537          	lui	a0,0x1
    8704:	40a40533          	sub	a0,s0,a0
    8708:	20053503          	ld	a0,512(a0) # 1200 <.LBB64_4+0x94>
    870c:	03850533          	mul	a0,a0,s8
    8710:	000015b7          	lui	a1,0x1
    8714:	40b405b3          	sub	a1,s0,a1
    8718:	1f85b583          	ld	a1,504(a1) # 11f8 <.LBB64_4+0x8c>
    871c:	017585b3          	add	a1,a1,s7
    8720:	00b50533          	add	a0,a0,a1
    8724:	42555513          	srai	a0,a0,0x25
    8728:	00a025b3          	sgtz	a1,a0
    872c:	40b005b3          	neg	a1,a1
    8730:	00a5f533          	and	a0,a1,a0
    8734:	01954463          	blt	a0,s9,873c <.LBB64_666>
    8738:	0ff00513          	li	a0,255

000000000000873c <.LBB64_666>:
    873c:	000015b7          	lui	a1,0x1
    8740:	40b405b3          	sub	a1,s0,a1
    8744:	6ea5b023          	sd	a0,1760(a1) # 16e0 <.LBB64_4+0x574>
    8748:	00001537          	lui	a0,0x1
    874c:	40a40533          	sub	a0,s0,a0
    8750:	21053503          	ld	a0,528(a0) # 1210 <.LBB64_4+0xa4>
    8754:	03850533          	mul	a0,a0,s8
    8758:	000015b7          	lui	a1,0x1
    875c:	40b405b3          	sub	a1,s0,a1
    8760:	2085b583          	ld	a1,520(a1) # 1208 <.LBB64_4+0x9c>
    8764:	017585b3          	add	a1,a1,s7
    8768:	00b50533          	add	a0,a0,a1
    876c:	42555513          	srai	a0,a0,0x25
    8770:	00a025b3          	sgtz	a1,a0
    8774:	40b005b3          	neg	a1,a1
    8778:	00a5f533          	and	a0,a1,a0
    877c:	01954463          	blt	a0,s9,8784 <.LBB64_668>
    8780:	0ff00513          	li	a0,255

0000000000008784 <.LBB64_668>:
    8784:	000015b7          	lui	a1,0x1
    8788:	40b405b3          	sub	a1,s0,a1
    878c:	6ca5bc23          	sd	a0,1752(a1) # 16d8 <.LBB64_4+0x56c>
    8790:	00001537          	lui	a0,0x1
    8794:	40a40533          	sub	a0,s0,a0
    8798:	22053503          	ld	a0,544(a0) # 1220 <.LBB64_4+0xb4>
    879c:	03850533          	mul	a0,a0,s8
    87a0:	000015b7          	lui	a1,0x1
    87a4:	40b405b3          	sub	a1,s0,a1
    87a8:	2185b583          	ld	a1,536(a1) # 1218 <.LBB64_4+0xac>
    87ac:	017585b3          	add	a1,a1,s7
    87b0:	00b50533          	add	a0,a0,a1
    87b4:	42555513          	srai	a0,a0,0x25
    87b8:	00a025b3          	sgtz	a1,a0
    87bc:	40b005b3          	neg	a1,a1
    87c0:	00a5f533          	and	a0,a1,a0
    87c4:	01954463          	blt	a0,s9,87cc <.LBB64_670>
    87c8:	0ff00513          	li	a0,255

00000000000087cc <.LBB64_670>:
    87cc:	000015b7          	lui	a1,0x1
    87d0:	40b405b3          	sub	a1,s0,a1
    87d4:	6ca5b823          	sd	a0,1744(a1) # 16d0 <.LBB64_4+0x564>
    87d8:	00001537          	lui	a0,0x1
    87dc:	40a40533          	sub	a0,s0,a0
    87e0:	23053503          	ld	a0,560(a0) # 1230 <.LBB64_4+0xc4>
    87e4:	03850533          	mul	a0,a0,s8
    87e8:	000015b7          	lui	a1,0x1
    87ec:	40b405b3          	sub	a1,s0,a1
    87f0:	2285b583          	ld	a1,552(a1) # 1228 <.LBB64_4+0xbc>
    87f4:	017585b3          	add	a1,a1,s7
    87f8:	00b50533          	add	a0,a0,a1
    87fc:	42555513          	srai	a0,a0,0x25
    8800:	00a025b3          	sgtz	a1,a0
    8804:	40b005b3          	neg	a1,a1
    8808:	00a5f533          	and	a0,a1,a0
    880c:	01954463          	blt	a0,s9,8814 <.LBB64_672>
    8810:	0ff00513          	li	a0,255

0000000000008814 <.LBB64_672>:
    8814:	000015b7          	lui	a1,0x1
    8818:	40b405b3          	sub	a1,s0,a1
    881c:	6ca5b423          	sd	a0,1736(a1) # 16c8 <.LBB64_4+0x55c>
    8820:	00001537          	lui	a0,0x1
    8824:	40a40533          	sub	a0,s0,a0
    8828:	24053503          	ld	a0,576(a0) # 1240 <.LBB64_4+0xd4>
    882c:	03850533          	mul	a0,a0,s8
    8830:	000015b7          	lui	a1,0x1
    8834:	40b405b3          	sub	a1,s0,a1
    8838:	2385b583          	ld	a1,568(a1) # 1238 <.LBB64_4+0xcc>
    883c:	017585b3          	add	a1,a1,s7
    8840:	00b50533          	add	a0,a0,a1
    8844:	42555513          	srai	a0,a0,0x25
    8848:	00a025b3          	sgtz	a1,a0
    884c:	40b005b3          	neg	a1,a1
    8850:	00a5f533          	and	a0,a1,a0
    8854:	01954463          	blt	a0,s9,885c <.LBB64_674>
    8858:	0ff00513          	li	a0,255

000000000000885c <.LBB64_674>:
    885c:	000015b7          	lui	a1,0x1
    8860:	40b405b3          	sub	a1,s0,a1
    8864:	6ca5b023          	sd	a0,1728(a1) # 16c0 <.LBB64_4+0x554>
    8868:	00001537          	lui	a0,0x1
    886c:	40a40533          	sub	a0,s0,a0
    8870:	25053503          	ld	a0,592(a0) # 1250 <.LBB64_4+0xe4>
    8874:	03850533          	mul	a0,a0,s8
    8878:	000015b7          	lui	a1,0x1
    887c:	40b405b3          	sub	a1,s0,a1
    8880:	2485b583          	ld	a1,584(a1) # 1248 <.LBB64_4+0xdc>
    8884:	017585b3          	add	a1,a1,s7
    8888:	00b50533          	add	a0,a0,a1
    888c:	42555513          	srai	a0,a0,0x25
    8890:	00a025b3          	sgtz	a1,a0
    8894:	40b005b3          	neg	a1,a1
    8898:	00a5f533          	and	a0,a1,a0
    889c:	01954463          	blt	a0,s9,88a4 <.LBB64_676>
    88a0:	0ff00513          	li	a0,255

00000000000088a4 <.LBB64_676>:
    88a4:	000015b7          	lui	a1,0x1
    88a8:	40b405b3          	sub	a1,s0,a1
    88ac:	6aa5bc23          	sd	a0,1720(a1) # 16b8 <.LBB64_4+0x54c>
    88b0:	00001537          	lui	a0,0x1
    88b4:	40a40533          	sub	a0,s0,a0
    88b8:	26053503          	ld	a0,608(a0) # 1260 <.LBB64_4+0xf4>
    88bc:	03850533          	mul	a0,a0,s8
    88c0:	000015b7          	lui	a1,0x1
    88c4:	40b405b3          	sub	a1,s0,a1
    88c8:	2585b583          	ld	a1,600(a1) # 1258 <.LBB64_4+0xec>
    88cc:	017585b3          	add	a1,a1,s7
    88d0:	00b50533          	add	a0,a0,a1
    88d4:	42555513          	srai	a0,a0,0x25
    88d8:	00a025b3          	sgtz	a1,a0
    88dc:	40b005b3          	neg	a1,a1
    88e0:	00a5f533          	and	a0,a1,a0
    88e4:	01954463          	blt	a0,s9,88ec <.LBB64_678>
    88e8:	0ff00513          	li	a0,255

00000000000088ec <.LBB64_678>:
    88ec:	000015b7          	lui	a1,0x1
    88f0:	40b405b3          	sub	a1,s0,a1
    88f4:	6aa5b823          	sd	a0,1712(a1) # 16b0 <.LBB64_4+0x544>
    88f8:	00001537          	lui	a0,0x1
    88fc:	40a40533          	sub	a0,s0,a0
    8900:	27053503          	ld	a0,624(a0) # 1270 <.LBB64_4+0x104>
    8904:	03850533          	mul	a0,a0,s8
    8908:	000015b7          	lui	a1,0x1
    890c:	40b405b3          	sub	a1,s0,a1
    8910:	2685b583          	ld	a1,616(a1) # 1268 <.LBB64_4+0xfc>
    8914:	017585b3          	add	a1,a1,s7
    8918:	00b50533          	add	a0,a0,a1
    891c:	42555513          	srai	a0,a0,0x25
    8920:	00a025b3          	sgtz	a1,a0
    8924:	40b005b3          	neg	a1,a1
    8928:	00a5f533          	and	a0,a1,a0
    892c:	01954463          	blt	a0,s9,8934 <.LBB64_680>
    8930:	0ff00513          	li	a0,255

0000000000008934 <.LBB64_680>:
    8934:	000015b7          	lui	a1,0x1
    8938:	40b405b3          	sub	a1,s0,a1
    893c:	6aa5b423          	sd	a0,1704(a1) # 16a8 <.LBB64_4+0x53c>
    8940:	00001537          	lui	a0,0x1
    8944:	40a40533          	sub	a0,s0,a0
    8948:	28053503          	ld	a0,640(a0) # 1280 <.LBB64_4+0x114>
    894c:	03850533          	mul	a0,a0,s8
    8950:	000015b7          	lui	a1,0x1
    8954:	40b405b3          	sub	a1,s0,a1
    8958:	2785b583          	ld	a1,632(a1) # 1278 <.LBB64_4+0x10c>
    895c:	017585b3          	add	a1,a1,s7
    8960:	00b50533          	add	a0,a0,a1
    8964:	42555513          	srai	a0,a0,0x25
    8968:	00a025b3          	sgtz	a1,a0
    896c:	40b005b3          	neg	a1,a1
    8970:	00a5f533          	and	a0,a1,a0
    8974:	01954463          	blt	a0,s9,897c <.LBB64_682>
    8978:	0ff00513          	li	a0,255

000000000000897c <.LBB64_682>:
    897c:	000015b7          	lui	a1,0x1
    8980:	40b405b3          	sub	a1,s0,a1
    8984:	6aa5b023          	sd	a0,1696(a1) # 16a0 <.LBB64_4+0x534>
    8988:	00001537          	lui	a0,0x1
    898c:	40a40533          	sub	a0,s0,a0
    8990:	29053503          	ld	a0,656(a0) # 1290 <.LBB64_4+0x124>
    8994:	03850533          	mul	a0,a0,s8
    8998:	000015b7          	lui	a1,0x1
    899c:	40b405b3          	sub	a1,s0,a1
    89a0:	2885b583          	ld	a1,648(a1) # 1288 <.LBB64_4+0x11c>
    89a4:	017585b3          	add	a1,a1,s7
    89a8:	00b50533          	add	a0,a0,a1
    89ac:	42555513          	srai	a0,a0,0x25
    89b0:	00a025b3          	sgtz	a1,a0
    89b4:	40b005b3          	neg	a1,a1
    89b8:	00a5f533          	and	a0,a1,a0
    89bc:	01954463          	blt	a0,s9,89c4 <.LBB64_684>
    89c0:	0ff00513          	li	a0,255

00000000000089c4 <.LBB64_684>:
    89c4:	000015b7          	lui	a1,0x1
    89c8:	40b405b3          	sub	a1,s0,a1
    89cc:	68a5bc23          	sd	a0,1688(a1) # 1698 <.LBB64_4+0x52c>
    89d0:	00001537          	lui	a0,0x1
    89d4:	40a40533          	sub	a0,s0,a0
    89d8:	2a053503          	ld	a0,672(a0) # 12a0 <.LBB64_4+0x134>
    89dc:	03850533          	mul	a0,a0,s8
    89e0:	000015b7          	lui	a1,0x1
    89e4:	40b405b3          	sub	a1,s0,a1
    89e8:	2985b583          	ld	a1,664(a1) # 1298 <.LBB64_4+0x12c>
    89ec:	017585b3          	add	a1,a1,s7
    89f0:	00b50533          	add	a0,a0,a1
    89f4:	42555513          	srai	a0,a0,0x25
    89f8:	00a025b3          	sgtz	a1,a0
    89fc:	40b005b3          	neg	a1,a1
    8a00:	00a5f533          	and	a0,a1,a0
    8a04:	01954463          	blt	a0,s9,8a0c <.LBB64_686>
    8a08:	0ff00513          	li	a0,255

0000000000008a0c <.LBB64_686>:
    8a0c:	000015b7          	lui	a1,0x1
    8a10:	40b405b3          	sub	a1,s0,a1
    8a14:	68a5b823          	sd	a0,1680(a1) # 1690 <.LBB64_4+0x524>
    8a18:	00001537          	lui	a0,0x1
    8a1c:	40a40533          	sub	a0,s0,a0
    8a20:	2b053503          	ld	a0,688(a0) # 12b0 <.LBB64_4+0x144>
    8a24:	03850533          	mul	a0,a0,s8
    8a28:	000015b7          	lui	a1,0x1
    8a2c:	40b405b3          	sub	a1,s0,a1
    8a30:	2a85b583          	ld	a1,680(a1) # 12a8 <.LBB64_4+0x13c>
    8a34:	017585b3          	add	a1,a1,s7
    8a38:	00b50533          	add	a0,a0,a1
    8a3c:	42555513          	srai	a0,a0,0x25
    8a40:	00a025b3          	sgtz	a1,a0
    8a44:	40b005b3          	neg	a1,a1
    8a48:	00a5f533          	and	a0,a1,a0
    8a4c:	01954463          	blt	a0,s9,8a54 <.LBB64_688>
    8a50:	0ff00513          	li	a0,255

0000000000008a54 <.LBB64_688>:
    8a54:	000015b7          	lui	a1,0x1
    8a58:	40b405b3          	sub	a1,s0,a1
    8a5c:	66a5bc23          	sd	a0,1656(a1) # 1678 <.LBB64_4+0x50c>
    8a60:	00001537          	lui	a0,0x1
    8a64:	40a40533          	sub	a0,s0,a0
    8a68:	2c053503          	ld	a0,704(a0) # 12c0 <.LBB64_4+0x154>
    8a6c:	03850533          	mul	a0,a0,s8
    8a70:	000015b7          	lui	a1,0x1
    8a74:	40b405b3          	sub	a1,s0,a1
    8a78:	2b85b583          	ld	a1,696(a1) # 12b8 <.LBB64_4+0x14c>
    8a7c:	017585b3          	add	a1,a1,s7
    8a80:	00b50533          	add	a0,a0,a1
    8a84:	42555513          	srai	a0,a0,0x25
    8a88:	00a025b3          	sgtz	a1,a0
    8a8c:	40b005b3          	neg	a1,a1
    8a90:	00a5f533          	and	a0,a1,a0
    8a94:	01954463          	blt	a0,s9,8a9c <.LBB64_690>
    8a98:	0ff00513          	li	a0,255

0000000000008a9c <.LBB64_690>:
    8a9c:	000015b7          	lui	a1,0x1
    8aa0:	40b405b3          	sub	a1,s0,a1
    8aa4:	66a5b823          	sd	a0,1648(a1) # 1670 <.LBB64_4+0x504>
    8aa8:	00001537          	lui	a0,0x1
    8aac:	40a40533          	sub	a0,s0,a0
    8ab0:	2d053503          	ld	a0,720(a0) # 12d0 <.LBB64_4+0x164>
    8ab4:	03850533          	mul	a0,a0,s8
    8ab8:	000015b7          	lui	a1,0x1
    8abc:	40b405b3          	sub	a1,s0,a1
    8ac0:	2c85b583          	ld	a1,712(a1) # 12c8 <.LBB64_4+0x15c>
    8ac4:	017585b3          	add	a1,a1,s7
    8ac8:	00b50533          	add	a0,a0,a1
    8acc:	42555513          	srai	a0,a0,0x25
    8ad0:	00a025b3          	sgtz	a1,a0
    8ad4:	40b005b3          	neg	a1,a1
    8ad8:	00a5f533          	and	a0,a1,a0
    8adc:	01954463          	blt	a0,s9,8ae4 <.LBB64_692>
    8ae0:	0ff00513          	li	a0,255

0000000000008ae4 <.LBB64_692>:
    8ae4:	000015b7          	lui	a1,0x1
    8ae8:	40b405b3          	sub	a1,s0,a1
    8aec:	2ca5b823          	sd	a0,720(a1) # 12d0 <.LBB64_4+0x164>
    8af0:	00001537          	lui	a0,0x1
    8af4:	40a40533          	sub	a0,s0,a0
    8af8:	2e053503          	ld	a0,736(a0) # 12e0 <.LBB64_4+0x174>
    8afc:	03850533          	mul	a0,a0,s8
    8b00:	000015b7          	lui	a1,0x1
    8b04:	40b405b3          	sub	a1,s0,a1
    8b08:	2d85b583          	ld	a1,728(a1) # 12d8 <.LBB64_4+0x16c>
    8b0c:	017585b3          	add	a1,a1,s7
    8b10:	00b50533          	add	a0,a0,a1
    8b14:	42555513          	srai	a0,a0,0x25
    8b18:	00a025b3          	sgtz	a1,a0
    8b1c:	40b005b3          	neg	a1,a1
    8b20:	00a5f533          	and	a0,a1,a0
    8b24:	01954463          	blt	a0,s9,8b2c <.LBB64_694>
    8b28:	0ff00513          	li	a0,255

0000000000008b2c <.LBB64_694>:
    8b2c:	000015b7          	lui	a1,0x1
    8b30:	40b405b3          	sub	a1,s0,a1
    8b34:	2ea5b023          	sd	a0,736(a1) # 12e0 <.LBB64_4+0x174>
    8b38:	00001537          	lui	a0,0x1
    8b3c:	40a40533          	sub	a0,s0,a0
    8b40:	2f053503          	ld	a0,752(a0) # 12f0 <.LBB64_4+0x184>
    8b44:	03850533          	mul	a0,a0,s8
    8b48:	000015b7          	lui	a1,0x1
    8b4c:	40b405b3          	sub	a1,s0,a1
    8b50:	2e85b583          	ld	a1,744(a1) # 12e8 <.LBB64_4+0x17c>
    8b54:	017585b3          	add	a1,a1,s7
    8b58:	00b50533          	add	a0,a0,a1
    8b5c:	42555513          	srai	a0,a0,0x25
    8b60:	00a025b3          	sgtz	a1,a0
    8b64:	40b005b3          	neg	a1,a1
    8b68:	00a5f533          	and	a0,a1,a0
    8b6c:	01954463          	blt	a0,s9,8b74 <.LBB64_696>
    8b70:	0ff00513          	li	a0,255

0000000000008b74 <.LBB64_696>:
    8b74:	000015b7          	lui	a1,0x1
    8b78:	40b405b3          	sub	a1,s0,a1
    8b7c:	2ea5b823          	sd	a0,752(a1) # 12f0 <.LBB64_4+0x184>
    8b80:	00001537          	lui	a0,0x1
    8b84:	40a40533          	sub	a0,s0,a0
    8b88:	30053503          	ld	a0,768(a0) # 1300 <.LBB64_4+0x194>
    8b8c:	03850533          	mul	a0,a0,s8
    8b90:	000015b7          	lui	a1,0x1
    8b94:	40b405b3          	sub	a1,s0,a1
    8b98:	2f85b583          	ld	a1,760(a1) # 12f8 <.LBB64_4+0x18c>
    8b9c:	017585b3          	add	a1,a1,s7
    8ba0:	00b50533          	add	a0,a0,a1
    8ba4:	42555513          	srai	a0,a0,0x25
    8ba8:	00a025b3          	sgtz	a1,a0
    8bac:	40b005b3          	neg	a1,a1
    8bb0:	00a5f533          	and	a0,a1,a0
    8bb4:	01954463          	blt	a0,s9,8bbc <.LBB64_698>
    8bb8:	0ff00513          	li	a0,255

0000000000008bbc <.LBB64_698>:
    8bbc:	000015b7          	lui	a1,0x1
    8bc0:	40b405b3          	sub	a1,s0,a1
    8bc4:	30a5b023          	sd	a0,768(a1) # 1300 <.LBB64_4+0x194>
    8bc8:	00001537          	lui	a0,0x1
    8bcc:	40a40533          	sub	a0,s0,a0
    8bd0:	31053503          	ld	a0,784(a0) # 1310 <.LBB64_4+0x1a4>
    8bd4:	03850533          	mul	a0,a0,s8
    8bd8:	000015b7          	lui	a1,0x1
    8bdc:	40b405b3          	sub	a1,s0,a1
    8be0:	3085b583          	ld	a1,776(a1) # 1308 <.LBB64_4+0x19c>
    8be4:	017585b3          	add	a1,a1,s7
    8be8:	00b50533          	add	a0,a0,a1
    8bec:	42555513          	srai	a0,a0,0x25
    8bf0:	00a025b3          	sgtz	a1,a0
    8bf4:	40b005b3          	neg	a1,a1
    8bf8:	00a5f533          	and	a0,a1,a0
    8bfc:	01954463          	blt	a0,s9,8c04 <.LBB64_700>
    8c00:	0ff00513          	li	a0,255

0000000000008c04 <.LBB64_700>:
    8c04:	000015b7          	lui	a1,0x1
    8c08:	40b405b3          	sub	a1,s0,a1
    8c0c:	30a5b823          	sd	a0,784(a1) # 1310 <.LBB64_4+0x1a4>
    8c10:	00001537          	lui	a0,0x1
    8c14:	40a40533          	sub	a0,s0,a0
    8c18:	32053503          	ld	a0,800(a0) # 1320 <.LBB64_4+0x1b4>
    8c1c:	03850533          	mul	a0,a0,s8
    8c20:	000015b7          	lui	a1,0x1
    8c24:	40b405b3          	sub	a1,s0,a1
    8c28:	3185b583          	ld	a1,792(a1) # 1318 <.LBB64_4+0x1ac>
    8c2c:	017585b3          	add	a1,a1,s7
    8c30:	00b50533          	add	a0,a0,a1
    8c34:	42555513          	srai	a0,a0,0x25
    8c38:	00a025b3          	sgtz	a1,a0
    8c3c:	40b005b3          	neg	a1,a1
    8c40:	00a5f533          	and	a0,a1,a0
    8c44:	01954463          	blt	a0,s9,8c4c <.LBB64_702>
    8c48:	0ff00513          	li	a0,255

0000000000008c4c <.LBB64_702>:
    8c4c:	000015b7          	lui	a1,0x1
    8c50:	40b405b3          	sub	a1,s0,a1
    8c54:	32a5b023          	sd	a0,800(a1) # 1320 <.LBB64_4+0x1b4>
    8c58:	00001537          	lui	a0,0x1
    8c5c:	40a40533          	sub	a0,s0,a0
    8c60:	33053503          	ld	a0,816(a0) # 1330 <.LBB64_4+0x1c4>
    8c64:	03850533          	mul	a0,a0,s8
    8c68:	000015b7          	lui	a1,0x1
    8c6c:	40b405b3          	sub	a1,s0,a1
    8c70:	3285b583          	ld	a1,808(a1) # 1328 <.LBB64_4+0x1bc>
    8c74:	017585b3          	add	a1,a1,s7
    8c78:	00b50533          	add	a0,a0,a1
    8c7c:	42555513          	srai	a0,a0,0x25
    8c80:	00a025b3          	sgtz	a1,a0
    8c84:	40b005b3          	neg	a1,a1
    8c88:	00a5f533          	and	a0,a1,a0
    8c8c:	01954463          	blt	a0,s9,8c94 <.LBB64_704>
    8c90:	0ff00513          	li	a0,255

0000000000008c94 <.LBB64_704>:
    8c94:	000015b7          	lui	a1,0x1
    8c98:	40b405b3          	sub	a1,s0,a1
    8c9c:	32a5b823          	sd	a0,816(a1) # 1330 <.LBB64_4+0x1c4>
    8ca0:	00001537          	lui	a0,0x1
    8ca4:	40a40533          	sub	a0,s0,a0
    8ca8:	34053503          	ld	a0,832(a0) # 1340 <.LBB64_4+0x1d4>
    8cac:	03850533          	mul	a0,a0,s8
    8cb0:	000015b7          	lui	a1,0x1
    8cb4:	40b405b3          	sub	a1,s0,a1
    8cb8:	3385b583          	ld	a1,824(a1) # 1338 <.LBB64_4+0x1cc>
    8cbc:	017585b3          	add	a1,a1,s7
    8cc0:	00b50533          	add	a0,a0,a1
    8cc4:	42555513          	srai	a0,a0,0x25
    8cc8:	00a025b3          	sgtz	a1,a0
    8ccc:	40b005b3          	neg	a1,a1
    8cd0:	00a5f533          	and	a0,a1,a0
    8cd4:	01954463          	blt	a0,s9,8cdc <.LBB64_706>
    8cd8:	0ff00513          	li	a0,255

0000000000008cdc <.LBB64_706>:
    8cdc:	000015b7          	lui	a1,0x1
    8ce0:	40b405b3          	sub	a1,s0,a1
    8ce4:	34a5b023          	sd	a0,832(a1) # 1340 <.LBB64_4+0x1d4>
    8ce8:	00001537          	lui	a0,0x1
    8cec:	40a40533          	sub	a0,s0,a0
    8cf0:	35053503          	ld	a0,848(a0) # 1350 <.LBB64_4+0x1e4>
    8cf4:	03850533          	mul	a0,a0,s8
    8cf8:	000015b7          	lui	a1,0x1
    8cfc:	40b405b3          	sub	a1,s0,a1
    8d00:	3485b583          	ld	a1,840(a1) # 1348 <.LBB64_4+0x1dc>
    8d04:	017585b3          	add	a1,a1,s7
    8d08:	00b50533          	add	a0,a0,a1
    8d0c:	42555513          	srai	a0,a0,0x25
    8d10:	00a025b3          	sgtz	a1,a0
    8d14:	40b005b3          	neg	a1,a1
    8d18:	00a5f533          	and	a0,a1,a0
    8d1c:	01954463          	blt	a0,s9,8d24 <.LBB64_708>
    8d20:	0ff00513          	li	a0,255

0000000000008d24 <.LBB64_708>:
    8d24:	000015b7          	lui	a1,0x1
    8d28:	40b405b3          	sub	a1,s0,a1
    8d2c:	34a5b823          	sd	a0,848(a1) # 1350 <.LBB64_4+0x1e4>
    8d30:	00001537          	lui	a0,0x1
    8d34:	40a40533          	sub	a0,s0,a0
    8d38:	36053503          	ld	a0,864(a0) # 1360 <.LBB64_4+0x1f4>
    8d3c:	03850533          	mul	a0,a0,s8
    8d40:	000015b7          	lui	a1,0x1
    8d44:	40b405b3          	sub	a1,s0,a1
    8d48:	3585b583          	ld	a1,856(a1) # 1358 <.LBB64_4+0x1ec>
    8d4c:	017585b3          	add	a1,a1,s7
    8d50:	00b50533          	add	a0,a0,a1
    8d54:	42555513          	srai	a0,a0,0x25
    8d58:	00a025b3          	sgtz	a1,a0
    8d5c:	40b005b3          	neg	a1,a1
    8d60:	00a5f533          	and	a0,a1,a0
    8d64:	01954463          	blt	a0,s9,8d6c <.LBB64_710>
    8d68:	0ff00513          	li	a0,255

0000000000008d6c <.LBB64_710>:
    8d6c:	000015b7          	lui	a1,0x1
    8d70:	40b405b3          	sub	a1,s0,a1
    8d74:	36a5b023          	sd	a0,864(a1) # 1360 <.LBB64_4+0x1f4>
    8d78:	00001537          	lui	a0,0x1
    8d7c:	40a40533          	sub	a0,s0,a0
    8d80:	37053503          	ld	a0,880(a0) # 1370 <.LBB64_4+0x204>
    8d84:	03850533          	mul	a0,a0,s8
    8d88:	000015b7          	lui	a1,0x1
    8d8c:	40b405b3          	sub	a1,s0,a1
    8d90:	3685b583          	ld	a1,872(a1) # 1368 <.LBB64_4+0x1fc>
    8d94:	017585b3          	add	a1,a1,s7
    8d98:	00b50533          	add	a0,a0,a1
    8d9c:	42555513          	srai	a0,a0,0x25
    8da0:	00a025b3          	sgtz	a1,a0
    8da4:	40b005b3          	neg	a1,a1
    8da8:	00a5f533          	and	a0,a1,a0
    8dac:	01954463          	blt	a0,s9,8db4 <.LBB64_712>
    8db0:	0ff00513          	li	a0,255

0000000000008db4 <.LBB64_712>:
    8db4:	000015b7          	lui	a1,0x1
    8db8:	40b405b3          	sub	a1,s0,a1
    8dbc:	36a5b823          	sd	a0,880(a1) # 1370 <.LBB64_4+0x204>
    8dc0:	00001537          	lui	a0,0x1
    8dc4:	40a40533          	sub	a0,s0,a0
    8dc8:	38053503          	ld	a0,896(a0) # 1380 <.LBB64_4+0x214>
    8dcc:	03850533          	mul	a0,a0,s8
    8dd0:	000015b7          	lui	a1,0x1
    8dd4:	40b405b3          	sub	a1,s0,a1
    8dd8:	3785b583          	ld	a1,888(a1) # 1378 <.LBB64_4+0x20c>
    8ddc:	017585b3          	add	a1,a1,s7
    8de0:	00b50533          	add	a0,a0,a1
    8de4:	42555513          	srai	a0,a0,0x25
    8de8:	00a025b3          	sgtz	a1,a0
    8dec:	40b005b3          	neg	a1,a1
    8df0:	00a5f533          	and	a0,a1,a0
    8df4:	01954463          	blt	a0,s9,8dfc <.LBB64_714>
    8df8:	0ff00513          	li	a0,255

0000000000008dfc <.LBB64_714>:
    8dfc:	000015b7          	lui	a1,0x1
    8e00:	40b405b3          	sub	a1,s0,a1
    8e04:	38a5b023          	sd	a0,896(a1) # 1380 <.LBB64_4+0x214>
    8e08:	00001537          	lui	a0,0x1
    8e0c:	40a40533          	sub	a0,s0,a0
    8e10:	39053503          	ld	a0,912(a0) # 1390 <.LBB64_4+0x224>
    8e14:	03850533          	mul	a0,a0,s8
    8e18:	000015b7          	lui	a1,0x1
    8e1c:	40b405b3          	sub	a1,s0,a1
    8e20:	3885b583          	ld	a1,904(a1) # 1388 <.LBB64_4+0x21c>
    8e24:	017585b3          	add	a1,a1,s7
    8e28:	00b50533          	add	a0,a0,a1
    8e2c:	42555513          	srai	a0,a0,0x25
    8e30:	00a025b3          	sgtz	a1,a0
    8e34:	40b005b3          	neg	a1,a1
    8e38:	00a5f533          	and	a0,a1,a0
    8e3c:	01954463          	blt	a0,s9,8e44 <.LBB64_716>
    8e40:	0ff00513          	li	a0,255

0000000000008e44 <.LBB64_716>:
    8e44:	000015b7          	lui	a1,0x1
    8e48:	40b405b3          	sub	a1,s0,a1
    8e4c:	38a5b823          	sd	a0,912(a1) # 1390 <.LBB64_4+0x224>
    8e50:	00001537          	lui	a0,0x1
    8e54:	40a40533          	sub	a0,s0,a0
    8e58:	3a053503          	ld	a0,928(a0) # 13a0 <.LBB64_4+0x234>
    8e5c:	03850533          	mul	a0,a0,s8
    8e60:	000015b7          	lui	a1,0x1
    8e64:	40b405b3          	sub	a1,s0,a1
    8e68:	3985b583          	ld	a1,920(a1) # 1398 <.LBB64_4+0x22c>
    8e6c:	017585b3          	add	a1,a1,s7
    8e70:	00b50533          	add	a0,a0,a1
    8e74:	42555513          	srai	a0,a0,0x25
    8e78:	00a025b3          	sgtz	a1,a0
    8e7c:	40b005b3          	neg	a1,a1
    8e80:	00a5f533          	and	a0,a1,a0
    8e84:	01954463          	blt	a0,s9,8e8c <.LBB64_718>
    8e88:	0ff00513          	li	a0,255

0000000000008e8c <.LBB64_718>:
    8e8c:	000015b7          	lui	a1,0x1
    8e90:	40b405b3          	sub	a1,s0,a1
    8e94:	3aa5b023          	sd	a0,928(a1) # 13a0 <.LBB64_4+0x234>
    8e98:	00001537          	lui	a0,0x1
    8e9c:	40a40533          	sub	a0,s0,a0
    8ea0:	3b053503          	ld	a0,944(a0) # 13b0 <.LBB64_4+0x244>
    8ea4:	03850533          	mul	a0,a0,s8
    8ea8:	000015b7          	lui	a1,0x1
    8eac:	40b405b3          	sub	a1,s0,a1
    8eb0:	3a85b583          	ld	a1,936(a1) # 13a8 <.LBB64_4+0x23c>
    8eb4:	017585b3          	add	a1,a1,s7
    8eb8:	00b50533          	add	a0,a0,a1
    8ebc:	42555513          	srai	a0,a0,0x25
    8ec0:	00a025b3          	sgtz	a1,a0
    8ec4:	40b005b3          	neg	a1,a1
    8ec8:	00a5f533          	and	a0,a1,a0
    8ecc:	01954463          	blt	a0,s9,8ed4 <.LBB64_720>
    8ed0:	0ff00513          	li	a0,255

0000000000008ed4 <.LBB64_720>:
    8ed4:	000015b7          	lui	a1,0x1
    8ed8:	40b405b3          	sub	a1,s0,a1
    8edc:	3aa5b823          	sd	a0,944(a1) # 13b0 <.LBB64_4+0x244>
    8ee0:	00001537          	lui	a0,0x1
    8ee4:	40a40533          	sub	a0,s0,a0
    8ee8:	3c053503          	ld	a0,960(a0) # 13c0 <.LBB64_4+0x254>
    8eec:	03850533          	mul	a0,a0,s8
    8ef0:	000015b7          	lui	a1,0x1
    8ef4:	40b405b3          	sub	a1,s0,a1
    8ef8:	3b85b583          	ld	a1,952(a1) # 13b8 <.LBB64_4+0x24c>
    8efc:	017585b3          	add	a1,a1,s7
    8f00:	00b50533          	add	a0,a0,a1
    8f04:	42555513          	srai	a0,a0,0x25
    8f08:	00a025b3          	sgtz	a1,a0
    8f0c:	40b005b3          	neg	a1,a1
    8f10:	00a5f533          	and	a0,a1,a0
    8f14:	01954463          	blt	a0,s9,8f1c <.LBB64_722>
    8f18:	0ff00513          	li	a0,255

0000000000008f1c <.LBB64_722>:
    8f1c:	000015b7          	lui	a1,0x1
    8f20:	40b405b3          	sub	a1,s0,a1
    8f24:	3ca5b023          	sd	a0,960(a1) # 13c0 <.LBB64_4+0x254>
    8f28:	00001537          	lui	a0,0x1
    8f2c:	40a40533          	sub	a0,s0,a0
    8f30:	3d053503          	ld	a0,976(a0) # 13d0 <.LBB64_4+0x264>
    8f34:	03850533          	mul	a0,a0,s8
    8f38:	000015b7          	lui	a1,0x1
    8f3c:	40b405b3          	sub	a1,s0,a1
    8f40:	3c85b583          	ld	a1,968(a1) # 13c8 <.LBB64_4+0x25c>
    8f44:	017585b3          	add	a1,a1,s7
    8f48:	00b50533          	add	a0,a0,a1
    8f4c:	42555513          	srai	a0,a0,0x25
    8f50:	00a025b3          	sgtz	a1,a0
    8f54:	40b005b3          	neg	a1,a1
    8f58:	00a5f533          	and	a0,a1,a0
    8f5c:	01954463          	blt	a0,s9,8f64 <.LBB64_724>
    8f60:	0ff00513          	li	a0,255

0000000000008f64 <.LBB64_724>:
    8f64:	000015b7          	lui	a1,0x1
    8f68:	40b405b3          	sub	a1,s0,a1
    8f6c:	3ca5b823          	sd	a0,976(a1) # 13d0 <.LBB64_4+0x264>
    8f70:	00001537          	lui	a0,0x1
    8f74:	40a40533          	sub	a0,s0,a0
    8f78:	3e053503          	ld	a0,992(a0) # 13e0 <.LBB64_4+0x274>
    8f7c:	03850533          	mul	a0,a0,s8
    8f80:	000015b7          	lui	a1,0x1
    8f84:	40b405b3          	sub	a1,s0,a1
    8f88:	3d85b583          	ld	a1,984(a1) # 13d8 <.LBB64_4+0x26c>
    8f8c:	017585b3          	add	a1,a1,s7
    8f90:	00b50533          	add	a0,a0,a1
    8f94:	42555513          	srai	a0,a0,0x25
    8f98:	00a025b3          	sgtz	a1,a0
    8f9c:	40b005b3          	neg	a1,a1
    8fa0:	00a5f533          	and	a0,a1,a0
    8fa4:	01954463          	blt	a0,s9,8fac <.LBB64_726>
    8fa8:	0ff00513          	li	a0,255

0000000000008fac <.LBB64_726>:
    8fac:	000015b7          	lui	a1,0x1
    8fb0:	40b405b3          	sub	a1,s0,a1
    8fb4:	3ea5b023          	sd	a0,992(a1) # 13e0 <.LBB64_4+0x274>
    8fb8:	00001537          	lui	a0,0x1
    8fbc:	40a40533          	sub	a0,s0,a0
    8fc0:	3f053503          	ld	a0,1008(a0) # 13f0 <.LBB64_4+0x284>
    8fc4:	03850533          	mul	a0,a0,s8
    8fc8:	000015b7          	lui	a1,0x1
    8fcc:	40b405b3          	sub	a1,s0,a1
    8fd0:	3e85b583          	ld	a1,1000(a1) # 13e8 <.LBB64_4+0x27c>
    8fd4:	017585b3          	add	a1,a1,s7
    8fd8:	00b50533          	add	a0,a0,a1
    8fdc:	42555513          	srai	a0,a0,0x25
    8fe0:	00a025b3          	sgtz	a1,a0
    8fe4:	40b005b3          	neg	a1,a1
    8fe8:	00a5f533          	and	a0,a1,a0
    8fec:	01954463          	blt	a0,s9,8ff4 <.LBB64_728>
    8ff0:	0ff00513          	li	a0,255

0000000000008ff4 <.LBB64_728>:
    8ff4:	000015b7          	lui	a1,0x1
    8ff8:	40b405b3          	sub	a1,s0,a1
    8ffc:	3ea5b823          	sd	a0,1008(a1) # 13f0 <.LBB64_4+0x284>
    9000:	00001537          	lui	a0,0x1
    9004:	40a40533          	sub	a0,s0,a0
    9008:	40053503          	ld	a0,1024(a0) # 1400 <.LBB64_4+0x294>
    900c:	03850533          	mul	a0,a0,s8
    9010:	000015b7          	lui	a1,0x1
    9014:	40b405b3          	sub	a1,s0,a1
    9018:	3f85b583          	ld	a1,1016(a1) # 13f8 <.LBB64_4+0x28c>
    901c:	017585b3          	add	a1,a1,s7
    9020:	00b50533          	add	a0,a0,a1
    9024:	42555513          	srai	a0,a0,0x25
    9028:	00a025b3          	sgtz	a1,a0
    902c:	40b005b3          	neg	a1,a1
    9030:	00a5f533          	and	a0,a1,a0
    9034:	01954463          	blt	a0,s9,903c <.LBB64_730>
    9038:	0ff00513          	li	a0,255

000000000000903c <.LBB64_730>:
    903c:	000015b7          	lui	a1,0x1
    9040:	40b405b3          	sub	a1,s0,a1
    9044:	40a5b023          	sd	a0,1024(a1) # 1400 <.LBB64_4+0x294>
    9048:	00001537          	lui	a0,0x1
    904c:	40a40533          	sub	a0,s0,a0
    9050:	41053503          	ld	a0,1040(a0) # 1410 <.LBB64_4+0x2a4>
    9054:	03850533          	mul	a0,a0,s8
    9058:	000015b7          	lui	a1,0x1
    905c:	40b405b3          	sub	a1,s0,a1
    9060:	4085b583          	ld	a1,1032(a1) # 1408 <.LBB64_4+0x29c>
    9064:	017585b3          	add	a1,a1,s7
    9068:	00b50533          	add	a0,a0,a1
    906c:	42555513          	srai	a0,a0,0x25
    9070:	00a025b3          	sgtz	a1,a0
    9074:	40b005b3          	neg	a1,a1
    9078:	00a5f533          	and	a0,a1,a0
    907c:	01954463          	blt	a0,s9,9084 <.LBB64_732>
    9080:	0ff00513          	li	a0,255

0000000000009084 <.LBB64_732>:
    9084:	000015b7          	lui	a1,0x1
    9088:	40b405b3          	sub	a1,s0,a1
    908c:	40a5b823          	sd	a0,1040(a1) # 1410 <.LBB64_4+0x2a4>
    9090:	00001537          	lui	a0,0x1
    9094:	40a40533          	sub	a0,s0,a0
    9098:	42053503          	ld	a0,1056(a0) # 1420 <.LBB64_4+0x2b4>
    909c:	03850533          	mul	a0,a0,s8
    90a0:	000015b7          	lui	a1,0x1
    90a4:	40b405b3          	sub	a1,s0,a1
    90a8:	4185b583          	ld	a1,1048(a1) # 1418 <.LBB64_4+0x2ac>
    90ac:	017585b3          	add	a1,a1,s7
    90b0:	00b50533          	add	a0,a0,a1
    90b4:	42555513          	srai	a0,a0,0x25
    90b8:	00a025b3          	sgtz	a1,a0
    90bc:	40b005b3          	neg	a1,a1
    90c0:	00a5f533          	and	a0,a1,a0
    90c4:	01954463          	blt	a0,s9,90cc <.LBB64_734>
    90c8:	0ff00513          	li	a0,255

00000000000090cc <.LBB64_734>:
    90cc:	000015b7          	lui	a1,0x1
    90d0:	40b405b3          	sub	a1,s0,a1
    90d4:	42a5b023          	sd	a0,1056(a1) # 1420 <.LBB64_4+0x2b4>
    90d8:	00001537          	lui	a0,0x1
    90dc:	40a40533          	sub	a0,s0,a0
    90e0:	43053503          	ld	a0,1072(a0) # 1430 <.LBB64_4+0x2c4>
    90e4:	03850533          	mul	a0,a0,s8
    90e8:	000015b7          	lui	a1,0x1
    90ec:	40b405b3          	sub	a1,s0,a1
    90f0:	4285b583          	ld	a1,1064(a1) # 1428 <.LBB64_4+0x2bc>
    90f4:	017585b3          	add	a1,a1,s7
    90f8:	00b50533          	add	a0,a0,a1
    90fc:	42555513          	srai	a0,a0,0x25
    9100:	00a025b3          	sgtz	a1,a0
    9104:	40b005b3          	neg	a1,a1
    9108:	00a5f533          	and	a0,a1,a0
    910c:	01954463          	blt	a0,s9,9114 <.LBB64_736>
    9110:	0ff00513          	li	a0,255

0000000000009114 <.LBB64_736>:
    9114:	000015b7          	lui	a1,0x1
    9118:	40b405b3          	sub	a1,s0,a1
    911c:	42a5b823          	sd	a0,1072(a1) # 1430 <.LBB64_4+0x2c4>
    9120:	00001537          	lui	a0,0x1
    9124:	40a40533          	sub	a0,s0,a0
    9128:	44053503          	ld	a0,1088(a0) # 1440 <.LBB64_4+0x2d4>
    912c:	03850533          	mul	a0,a0,s8
    9130:	000015b7          	lui	a1,0x1
    9134:	40b405b3          	sub	a1,s0,a1
    9138:	4385b583          	ld	a1,1080(a1) # 1438 <.LBB64_4+0x2cc>
    913c:	017585b3          	add	a1,a1,s7
    9140:	00b50533          	add	a0,a0,a1
    9144:	42555513          	srai	a0,a0,0x25
    9148:	00a025b3          	sgtz	a1,a0
    914c:	40b005b3          	neg	a1,a1
    9150:	00a5f533          	and	a0,a1,a0
    9154:	01954463          	blt	a0,s9,915c <.LBB64_738>
    9158:	0ff00513          	li	a0,255

000000000000915c <.LBB64_738>:
    915c:	000015b7          	lui	a1,0x1
    9160:	40b405b3          	sub	a1,s0,a1
    9164:	44a5b023          	sd	a0,1088(a1) # 1440 <.LBB64_4+0x2d4>
    9168:	00001537          	lui	a0,0x1
    916c:	40a40533          	sub	a0,s0,a0
    9170:	45053503          	ld	a0,1104(a0) # 1450 <.LBB64_4+0x2e4>
    9174:	03850533          	mul	a0,a0,s8
    9178:	000015b7          	lui	a1,0x1
    917c:	40b405b3          	sub	a1,s0,a1
    9180:	4485b583          	ld	a1,1096(a1) # 1448 <.LBB64_4+0x2dc>
    9184:	017585b3          	add	a1,a1,s7
    9188:	00b50533          	add	a0,a0,a1
    918c:	42555513          	srai	a0,a0,0x25
    9190:	00a025b3          	sgtz	a1,a0
    9194:	40b005b3          	neg	a1,a1
    9198:	00a5f533          	and	a0,a1,a0
    919c:	01954463          	blt	a0,s9,91a4 <.LBB64_740>
    91a0:	0ff00513          	li	a0,255

00000000000091a4 <.LBB64_740>:
    91a4:	000015b7          	lui	a1,0x1
    91a8:	40b405b3          	sub	a1,s0,a1
    91ac:	44a5b823          	sd	a0,1104(a1) # 1450 <.LBB64_4+0x2e4>
    91b0:	00001537          	lui	a0,0x1
    91b4:	40a40533          	sub	a0,s0,a0
    91b8:	46053503          	ld	a0,1120(a0) # 1460 <.LBB64_4+0x2f4>
    91bc:	03850533          	mul	a0,a0,s8
    91c0:	000015b7          	lui	a1,0x1
    91c4:	40b405b3          	sub	a1,s0,a1
    91c8:	4585b583          	ld	a1,1112(a1) # 1458 <.LBB64_4+0x2ec>
    91cc:	017585b3          	add	a1,a1,s7
    91d0:	00b50533          	add	a0,a0,a1
    91d4:	42555513          	srai	a0,a0,0x25
    91d8:	00a025b3          	sgtz	a1,a0
    91dc:	40b005b3          	neg	a1,a1
    91e0:	00a5f533          	and	a0,a1,a0
    91e4:	01954463          	blt	a0,s9,91ec <.LBB64_742>
    91e8:	0ff00513          	li	a0,255

00000000000091ec <.LBB64_742>:
    91ec:	000015b7          	lui	a1,0x1
    91f0:	40b405b3          	sub	a1,s0,a1
    91f4:	46a5b023          	sd	a0,1120(a1) # 1460 <.LBB64_4+0x2f4>
    91f8:	00001537          	lui	a0,0x1
    91fc:	40a40533          	sub	a0,s0,a0
    9200:	47053503          	ld	a0,1136(a0) # 1470 <.LBB64_4+0x304>
    9204:	03850533          	mul	a0,a0,s8
    9208:	000015b7          	lui	a1,0x1
    920c:	40b405b3          	sub	a1,s0,a1
    9210:	4685b583          	ld	a1,1128(a1) # 1468 <.LBB64_4+0x2fc>
    9214:	017585b3          	add	a1,a1,s7
    9218:	00b50533          	add	a0,a0,a1
    921c:	42555513          	srai	a0,a0,0x25
    9220:	00a025b3          	sgtz	a1,a0
    9224:	40b005b3          	neg	a1,a1
    9228:	00a5f533          	and	a0,a1,a0
    922c:	01954463          	blt	a0,s9,9234 <.LBB64_744>
    9230:	0ff00513          	li	a0,255

0000000000009234 <.LBB64_744>:
    9234:	000015b7          	lui	a1,0x1
    9238:	40b405b3          	sub	a1,s0,a1
    923c:	46a5b823          	sd	a0,1136(a1) # 1470 <.LBB64_4+0x304>
    9240:	00001537          	lui	a0,0x1
    9244:	40a40533          	sub	a0,s0,a0
    9248:	48053503          	ld	a0,1152(a0) # 1480 <.LBB64_4+0x314>
    924c:	03850533          	mul	a0,a0,s8
    9250:	000015b7          	lui	a1,0x1
    9254:	40b405b3          	sub	a1,s0,a1
    9258:	4785b583          	ld	a1,1144(a1) # 1478 <.LBB64_4+0x30c>
    925c:	017585b3          	add	a1,a1,s7
    9260:	00b50533          	add	a0,a0,a1
    9264:	42555513          	srai	a0,a0,0x25
    9268:	00a025b3          	sgtz	a1,a0
    926c:	40b005b3          	neg	a1,a1
    9270:	00a5f533          	and	a0,a1,a0
    9274:	01954463          	blt	a0,s9,927c <.LBB64_746>
    9278:	0ff00513          	li	a0,255

000000000000927c <.LBB64_746>:
    927c:	000015b7          	lui	a1,0x1
    9280:	40b405b3          	sub	a1,s0,a1
    9284:	48a5b023          	sd	a0,1152(a1) # 1480 <.LBB64_4+0x314>
    9288:	00001537          	lui	a0,0x1
    928c:	40a40533          	sub	a0,s0,a0
    9290:	49053503          	ld	a0,1168(a0) # 1490 <.LBB64_4+0x324>
    9294:	03850533          	mul	a0,a0,s8
    9298:	000015b7          	lui	a1,0x1
    929c:	40b405b3          	sub	a1,s0,a1
    92a0:	4885b583          	ld	a1,1160(a1) # 1488 <.LBB64_4+0x31c>
    92a4:	017585b3          	add	a1,a1,s7
    92a8:	00b50533          	add	a0,a0,a1
    92ac:	42555513          	srai	a0,a0,0x25
    92b0:	00a025b3          	sgtz	a1,a0
    92b4:	40b005b3          	neg	a1,a1
    92b8:	00a5f533          	and	a0,a1,a0
    92bc:	01954463          	blt	a0,s9,92c4 <.LBB64_748>
    92c0:	0ff00513          	li	a0,255

00000000000092c4 <.LBB64_748>:
    92c4:	000015b7          	lui	a1,0x1
    92c8:	40b405b3          	sub	a1,s0,a1
    92cc:	48a5b823          	sd	a0,1168(a1) # 1490 <.LBB64_4+0x324>
    92d0:	00001537          	lui	a0,0x1
    92d4:	40a40533          	sub	a0,s0,a0
    92d8:	4a053503          	ld	a0,1184(a0) # 14a0 <.LBB64_4+0x334>
    92dc:	03850533          	mul	a0,a0,s8
    92e0:	000015b7          	lui	a1,0x1
    92e4:	40b405b3          	sub	a1,s0,a1
    92e8:	4985b583          	ld	a1,1176(a1) # 1498 <.LBB64_4+0x32c>
    92ec:	017585b3          	add	a1,a1,s7
    92f0:	00b50533          	add	a0,a0,a1
    92f4:	42555513          	srai	a0,a0,0x25
    92f8:	00a025b3          	sgtz	a1,a0
    92fc:	40b005b3          	neg	a1,a1
    9300:	00a5f533          	and	a0,a1,a0
    9304:	01954463          	blt	a0,s9,930c <.LBB64_750>
    9308:	0ff00513          	li	a0,255

000000000000930c <.LBB64_750>:
    930c:	000015b7          	lui	a1,0x1
    9310:	40b405b3          	sub	a1,s0,a1
    9314:	4aa5b023          	sd	a0,1184(a1) # 14a0 <.LBB64_4+0x334>
    9318:	00001537          	lui	a0,0x1
    931c:	40a40533          	sub	a0,s0,a0
    9320:	4b053503          	ld	a0,1200(a0) # 14b0 <.LBB64_4+0x344>
    9324:	03850533          	mul	a0,a0,s8
    9328:	000015b7          	lui	a1,0x1
    932c:	40b405b3          	sub	a1,s0,a1
    9330:	4a85b583          	ld	a1,1192(a1) # 14a8 <.LBB64_4+0x33c>
    9334:	017585b3          	add	a1,a1,s7
    9338:	00b50533          	add	a0,a0,a1
    933c:	42555513          	srai	a0,a0,0x25
    9340:	00a025b3          	sgtz	a1,a0
    9344:	40b005b3          	neg	a1,a1
    9348:	00a5f533          	and	a0,a1,a0
    934c:	01954463          	blt	a0,s9,9354 <.LBB64_752>
    9350:	0ff00513          	li	a0,255

0000000000009354 <.LBB64_752>:
    9354:	000015b7          	lui	a1,0x1
    9358:	40b405b3          	sub	a1,s0,a1
    935c:	4aa5b823          	sd	a0,1200(a1) # 14b0 <.LBB64_4+0x344>
    9360:	00001537          	lui	a0,0x1
    9364:	40a40533          	sub	a0,s0,a0
    9368:	4c053503          	ld	a0,1216(a0) # 14c0 <.LBB64_4+0x354>
    936c:	03850533          	mul	a0,a0,s8
    9370:	000015b7          	lui	a1,0x1
    9374:	40b405b3          	sub	a1,s0,a1
    9378:	4b85b583          	ld	a1,1208(a1) # 14b8 <.LBB64_4+0x34c>
    937c:	017585b3          	add	a1,a1,s7
    9380:	00b50533          	add	a0,a0,a1
    9384:	42555513          	srai	a0,a0,0x25
    9388:	00a025b3          	sgtz	a1,a0
    938c:	40b005b3          	neg	a1,a1
    9390:	00a5f533          	and	a0,a1,a0
    9394:	01954463          	blt	a0,s9,939c <.LBB64_754>
    9398:	0ff00513          	li	a0,255

000000000000939c <.LBB64_754>:
    939c:	000015b7          	lui	a1,0x1
    93a0:	40b405b3          	sub	a1,s0,a1
    93a4:	4ca5b023          	sd	a0,1216(a1) # 14c0 <.LBB64_4+0x354>
    93a8:	00001537          	lui	a0,0x1
    93ac:	40a40533          	sub	a0,s0,a0
    93b0:	4d053503          	ld	a0,1232(a0) # 14d0 <.LBB64_4+0x364>
    93b4:	03850533          	mul	a0,a0,s8
    93b8:	000015b7          	lui	a1,0x1
    93bc:	40b405b3          	sub	a1,s0,a1
    93c0:	4c85b583          	ld	a1,1224(a1) # 14c8 <.LBB64_4+0x35c>
    93c4:	017585b3          	add	a1,a1,s7
    93c8:	00b50533          	add	a0,a0,a1
    93cc:	42555513          	srai	a0,a0,0x25
    93d0:	00a025b3          	sgtz	a1,a0
    93d4:	40b005b3          	neg	a1,a1
    93d8:	00a5f533          	and	a0,a1,a0
    93dc:	01954463          	blt	a0,s9,93e4 <.LBB64_756>
    93e0:	0ff00513          	li	a0,255

00000000000093e4 <.LBB64_756>:
    93e4:	000015b7          	lui	a1,0x1
    93e8:	40b405b3          	sub	a1,s0,a1
    93ec:	4ca5b823          	sd	a0,1232(a1) # 14d0 <.LBB64_4+0x364>
    93f0:	00001537          	lui	a0,0x1
    93f4:	40a40533          	sub	a0,s0,a0
    93f8:	4e053503          	ld	a0,1248(a0) # 14e0 <.LBB64_4+0x374>
    93fc:	03850533          	mul	a0,a0,s8
    9400:	000015b7          	lui	a1,0x1
    9404:	40b405b3          	sub	a1,s0,a1
    9408:	4d85b583          	ld	a1,1240(a1) # 14d8 <.LBB64_4+0x36c>
    940c:	017585b3          	add	a1,a1,s7
    9410:	00b50533          	add	a0,a0,a1
    9414:	42555513          	srai	a0,a0,0x25
    9418:	00a025b3          	sgtz	a1,a0
    941c:	40b005b3          	neg	a1,a1
    9420:	00a5f533          	and	a0,a1,a0
    9424:	01954463          	blt	a0,s9,942c <.LBB64_758>
    9428:	0ff00513          	li	a0,255

000000000000942c <.LBB64_758>:
    942c:	000015b7          	lui	a1,0x1
    9430:	40b405b3          	sub	a1,s0,a1
    9434:	4ea5b023          	sd	a0,1248(a1) # 14e0 <.LBB64_4+0x374>
    9438:	00001537          	lui	a0,0x1
    943c:	40a40533          	sub	a0,s0,a0
    9440:	4f053503          	ld	a0,1264(a0) # 14f0 <.LBB64_4+0x384>
    9444:	03850533          	mul	a0,a0,s8
    9448:	000015b7          	lui	a1,0x1
    944c:	40b405b3          	sub	a1,s0,a1
    9450:	4e85b583          	ld	a1,1256(a1) # 14e8 <.LBB64_4+0x37c>
    9454:	017585b3          	add	a1,a1,s7
    9458:	00b50533          	add	a0,a0,a1
    945c:	42555513          	srai	a0,a0,0x25
    9460:	00a025b3          	sgtz	a1,a0
    9464:	40b005b3          	neg	a1,a1
    9468:	00a5f533          	and	a0,a1,a0
    946c:	01954463          	blt	a0,s9,9474 <.LBB64_760>
    9470:	0ff00513          	li	a0,255

0000000000009474 <.LBB64_760>:
    9474:	000015b7          	lui	a1,0x1
    9478:	40b405b3          	sub	a1,s0,a1
    947c:	4ea5b823          	sd	a0,1264(a1) # 14f0 <.LBB64_4+0x384>
    9480:	00001537          	lui	a0,0x1
    9484:	40a40533          	sub	a0,s0,a0
    9488:	50053503          	ld	a0,1280(a0) # 1500 <.LBB64_4+0x394>
    948c:	03850533          	mul	a0,a0,s8
    9490:	000015b7          	lui	a1,0x1
    9494:	40b405b3          	sub	a1,s0,a1
    9498:	4f85b583          	ld	a1,1272(a1) # 14f8 <.LBB64_4+0x38c>
    949c:	017585b3          	add	a1,a1,s7
    94a0:	00b50533          	add	a0,a0,a1
    94a4:	42555513          	srai	a0,a0,0x25
    94a8:	00a025b3          	sgtz	a1,a0
    94ac:	40b005b3          	neg	a1,a1
    94b0:	00a5f533          	and	a0,a1,a0
    94b4:	01954463          	blt	a0,s9,94bc <.LBB64_762>
    94b8:	0ff00513          	li	a0,255

00000000000094bc <.LBB64_762>:
    94bc:	000015b7          	lui	a1,0x1
    94c0:	40b405b3          	sub	a1,s0,a1
    94c4:	50a5b023          	sd	a0,1280(a1) # 1500 <.LBB64_4+0x394>
    94c8:	00001537          	lui	a0,0x1
    94cc:	40a40533          	sub	a0,s0,a0
    94d0:	51053503          	ld	a0,1296(a0) # 1510 <.LBB64_4+0x3a4>
    94d4:	03850533          	mul	a0,a0,s8
    94d8:	000015b7          	lui	a1,0x1
    94dc:	40b405b3          	sub	a1,s0,a1
    94e0:	5085b583          	ld	a1,1288(a1) # 1508 <.LBB64_4+0x39c>
    94e4:	017585b3          	add	a1,a1,s7
    94e8:	00b50533          	add	a0,a0,a1
    94ec:	42555513          	srai	a0,a0,0x25
    94f0:	00a025b3          	sgtz	a1,a0
    94f4:	40b005b3          	neg	a1,a1
    94f8:	00a5f533          	and	a0,a1,a0
    94fc:	01954463          	blt	a0,s9,9504 <.LBB64_764>
    9500:	0ff00513          	li	a0,255

0000000000009504 <.LBB64_764>:
    9504:	000015b7          	lui	a1,0x1
    9508:	40b405b3          	sub	a1,s0,a1
    950c:	50a5b823          	sd	a0,1296(a1) # 1510 <.LBB64_4+0x3a4>
    9510:	00001537          	lui	a0,0x1
    9514:	40a40533          	sub	a0,s0,a0
    9518:	52053503          	ld	a0,1312(a0) # 1520 <.LBB64_4+0x3b4>
    951c:	03850533          	mul	a0,a0,s8
    9520:	000015b7          	lui	a1,0x1
    9524:	40b405b3          	sub	a1,s0,a1
    9528:	5185b583          	ld	a1,1304(a1) # 1518 <.LBB64_4+0x3ac>
    952c:	017585b3          	add	a1,a1,s7
    9530:	00b50533          	add	a0,a0,a1
    9534:	42555513          	srai	a0,a0,0x25
    9538:	00a025b3          	sgtz	a1,a0
    953c:	40b005b3          	neg	a1,a1
    9540:	00a5f533          	and	a0,a1,a0
    9544:	01954463          	blt	a0,s9,954c <.LBB64_766>
    9548:	0ff00513          	li	a0,255

000000000000954c <.LBB64_766>:
    954c:	000015b7          	lui	a1,0x1
    9550:	40b405b3          	sub	a1,s0,a1
    9554:	52a5b023          	sd	a0,1312(a1) # 1520 <.LBB64_4+0x3b4>
    9558:	00001537          	lui	a0,0x1
    955c:	40a40533          	sub	a0,s0,a0
    9560:	53053503          	ld	a0,1328(a0) # 1530 <.LBB64_4+0x3c4>
    9564:	03850533          	mul	a0,a0,s8
    9568:	000015b7          	lui	a1,0x1
    956c:	40b405b3          	sub	a1,s0,a1
    9570:	5285b583          	ld	a1,1320(a1) # 1528 <.LBB64_4+0x3bc>
    9574:	017585b3          	add	a1,a1,s7
    9578:	00b50533          	add	a0,a0,a1
    957c:	42555513          	srai	a0,a0,0x25
    9580:	00a025b3          	sgtz	a1,a0
    9584:	40b005b3          	neg	a1,a1
    9588:	00a5f533          	and	a0,a1,a0
    958c:	01954463          	blt	a0,s9,9594 <.LBB64_768>
    9590:	0ff00513          	li	a0,255

0000000000009594 <.LBB64_768>:
    9594:	000015b7          	lui	a1,0x1
    9598:	40b405b3          	sub	a1,s0,a1
    959c:	52a5b823          	sd	a0,1328(a1) # 1530 <.LBB64_4+0x3c4>
    95a0:	00001537          	lui	a0,0x1
    95a4:	40a40533          	sub	a0,s0,a0
    95a8:	54053503          	ld	a0,1344(a0) # 1540 <.LBB64_4+0x3d4>
    95ac:	03850533          	mul	a0,a0,s8
    95b0:	000015b7          	lui	a1,0x1
    95b4:	40b405b3          	sub	a1,s0,a1
    95b8:	5385b583          	ld	a1,1336(a1) # 1538 <.LBB64_4+0x3cc>
    95bc:	017585b3          	add	a1,a1,s7
    95c0:	00b50533          	add	a0,a0,a1
    95c4:	42555513          	srai	a0,a0,0x25
    95c8:	00a025b3          	sgtz	a1,a0
    95cc:	40b005b3          	neg	a1,a1
    95d0:	00a5f533          	and	a0,a1,a0
    95d4:	01954463          	blt	a0,s9,95dc <.LBB64_770>
    95d8:	0ff00513          	li	a0,255

00000000000095dc <.LBB64_770>:
    95dc:	000015b7          	lui	a1,0x1
    95e0:	40b405b3          	sub	a1,s0,a1
    95e4:	54a5b023          	sd	a0,1344(a1) # 1540 <.LBB64_4+0x3d4>
    95e8:	00001537          	lui	a0,0x1
    95ec:	40a40533          	sub	a0,s0,a0
    95f0:	55053503          	ld	a0,1360(a0) # 1550 <.LBB64_4+0x3e4>
    95f4:	03850533          	mul	a0,a0,s8
    95f8:	000015b7          	lui	a1,0x1
    95fc:	40b405b3          	sub	a1,s0,a1
    9600:	5485b583          	ld	a1,1352(a1) # 1548 <.LBB64_4+0x3dc>
    9604:	017585b3          	add	a1,a1,s7
    9608:	00b50533          	add	a0,a0,a1
    960c:	42555513          	srai	a0,a0,0x25
    9610:	00a025b3          	sgtz	a1,a0
    9614:	40b005b3          	neg	a1,a1
    9618:	00a5f533          	and	a0,a1,a0
    961c:	01954463          	blt	a0,s9,9624 <.LBB64_772>
    9620:	0ff00513          	li	a0,255

0000000000009624 <.LBB64_772>:
    9624:	000015b7          	lui	a1,0x1
    9628:	40b405b3          	sub	a1,s0,a1
    962c:	54a5b823          	sd	a0,1360(a1) # 1550 <.LBB64_4+0x3e4>
    9630:	00001537          	lui	a0,0x1
    9634:	40a40533          	sub	a0,s0,a0
    9638:	56053503          	ld	a0,1376(a0) # 1560 <.LBB64_4+0x3f4>
    963c:	03850533          	mul	a0,a0,s8
    9640:	000015b7          	lui	a1,0x1
    9644:	40b405b3          	sub	a1,s0,a1
    9648:	5585b583          	ld	a1,1368(a1) # 1558 <.LBB64_4+0x3ec>
    964c:	017585b3          	add	a1,a1,s7
    9650:	00b50533          	add	a0,a0,a1
    9654:	42555513          	srai	a0,a0,0x25
    9658:	00a025b3          	sgtz	a1,a0
    965c:	40b005b3          	neg	a1,a1
    9660:	00a5f533          	and	a0,a1,a0
    9664:	01954463          	blt	a0,s9,966c <.LBB64_774>
    9668:	0ff00513          	li	a0,255

000000000000966c <.LBB64_774>:
    966c:	000015b7          	lui	a1,0x1
    9670:	40b405b3          	sub	a1,s0,a1
    9674:	56a5b023          	sd	a0,1376(a1) # 1560 <.LBB64_4+0x3f4>
    9678:	00001537          	lui	a0,0x1
    967c:	40a40533          	sub	a0,s0,a0
    9680:	57053503          	ld	a0,1392(a0) # 1570 <.LBB64_4+0x404>
    9684:	03850533          	mul	a0,a0,s8
    9688:	000015b7          	lui	a1,0x1
    968c:	40b405b3          	sub	a1,s0,a1
    9690:	5685b583          	ld	a1,1384(a1) # 1568 <.LBB64_4+0x3fc>
    9694:	017585b3          	add	a1,a1,s7
    9698:	00b50533          	add	a0,a0,a1
    969c:	42555513          	srai	a0,a0,0x25
    96a0:	00a025b3          	sgtz	a1,a0
    96a4:	40b005b3          	neg	a1,a1
    96a8:	00a5f533          	and	a0,a1,a0
    96ac:	01954463          	blt	a0,s9,96b4 <.LBB64_776>
    96b0:	0ff00513          	li	a0,255

00000000000096b4 <.LBB64_776>:
    96b4:	000015b7          	lui	a1,0x1
    96b8:	40b405b3          	sub	a1,s0,a1
    96bc:	56a5b823          	sd	a0,1392(a1) # 1570 <.LBB64_4+0x404>
    96c0:	00001537          	lui	a0,0x1
    96c4:	40a40533          	sub	a0,s0,a0
    96c8:	58053503          	ld	a0,1408(a0) # 1580 <.LBB64_4+0x414>
    96cc:	03850533          	mul	a0,a0,s8
    96d0:	000015b7          	lui	a1,0x1
    96d4:	40b405b3          	sub	a1,s0,a1
    96d8:	5785b583          	ld	a1,1400(a1) # 1578 <.LBB64_4+0x40c>
    96dc:	017585b3          	add	a1,a1,s7
    96e0:	00b50533          	add	a0,a0,a1
    96e4:	42555513          	srai	a0,a0,0x25
    96e8:	00a025b3          	sgtz	a1,a0
    96ec:	40b005b3          	neg	a1,a1
    96f0:	00a5f533          	and	a0,a1,a0
    96f4:	01954463          	blt	a0,s9,96fc <.LBB64_778>
    96f8:	0ff00513          	li	a0,255

00000000000096fc <.LBB64_778>:
    96fc:	000015b7          	lui	a1,0x1
    9700:	40b405b3          	sub	a1,s0,a1
    9704:	58a5b023          	sd	a0,1408(a1) # 1580 <.LBB64_4+0x414>
    9708:	00001537          	lui	a0,0x1
    970c:	40a40533          	sub	a0,s0,a0
    9710:	59053503          	ld	a0,1424(a0) # 1590 <.LBB64_4+0x424>
    9714:	03850533          	mul	a0,a0,s8
    9718:	000015b7          	lui	a1,0x1
    971c:	40b405b3          	sub	a1,s0,a1
    9720:	5885b583          	ld	a1,1416(a1) # 1588 <.LBB64_4+0x41c>
    9724:	017585b3          	add	a1,a1,s7
    9728:	00b50533          	add	a0,a0,a1
    972c:	42555513          	srai	a0,a0,0x25
    9730:	00a025b3          	sgtz	a1,a0
    9734:	40b005b3          	neg	a1,a1
    9738:	00a5f533          	and	a0,a1,a0
    973c:	01954463          	blt	a0,s9,9744 <.LBB64_780>
    9740:	0ff00513          	li	a0,255

0000000000009744 <.LBB64_780>:
    9744:	000015b7          	lui	a1,0x1
    9748:	40b405b3          	sub	a1,s0,a1
    974c:	58a5b823          	sd	a0,1424(a1) # 1590 <.LBB64_4+0x424>
    9750:	00001537          	lui	a0,0x1
    9754:	40a40533          	sub	a0,s0,a0
    9758:	5a053503          	ld	a0,1440(a0) # 15a0 <.LBB64_4+0x434>
    975c:	03850533          	mul	a0,a0,s8
    9760:	000015b7          	lui	a1,0x1
    9764:	40b405b3          	sub	a1,s0,a1
    9768:	5985b583          	ld	a1,1432(a1) # 1598 <.LBB64_4+0x42c>
    976c:	017585b3          	add	a1,a1,s7
    9770:	00b50533          	add	a0,a0,a1
    9774:	42555513          	srai	a0,a0,0x25
    9778:	00a025b3          	sgtz	a1,a0
    977c:	40b005b3          	neg	a1,a1
    9780:	00a5f533          	and	a0,a1,a0
    9784:	01954463          	blt	a0,s9,978c <.LBB64_782>
    9788:	0ff00513          	li	a0,255

000000000000978c <.LBB64_782>:
    978c:	000015b7          	lui	a1,0x1
    9790:	40b405b3          	sub	a1,s0,a1
    9794:	5aa5b023          	sd	a0,1440(a1) # 15a0 <.LBB64_4+0x434>
    9798:	00001537          	lui	a0,0x1
    979c:	40a40533          	sub	a0,s0,a0
    97a0:	5b053503          	ld	a0,1456(a0) # 15b0 <.LBB64_4+0x444>
    97a4:	03850533          	mul	a0,a0,s8
    97a8:	000015b7          	lui	a1,0x1
    97ac:	40b405b3          	sub	a1,s0,a1
    97b0:	5a85b583          	ld	a1,1448(a1) # 15a8 <.LBB64_4+0x43c>
    97b4:	017585b3          	add	a1,a1,s7
    97b8:	00b50533          	add	a0,a0,a1
    97bc:	42555513          	srai	a0,a0,0x25
    97c0:	00a025b3          	sgtz	a1,a0
    97c4:	40b005b3          	neg	a1,a1
    97c8:	00a5f533          	and	a0,a1,a0
    97cc:	01954463          	blt	a0,s9,97d4 <.LBB64_784>
    97d0:	0ff00513          	li	a0,255

00000000000097d4 <.LBB64_784>:
    97d4:	000015b7          	lui	a1,0x1
    97d8:	40b405b3          	sub	a1,s0,a1
    97dc:	5aa5b823          	sd	a0,1456(a1) # 15b0 <.LBB64_4+0x444>
    97e0:	00001537          	lui	a0,0x1
    97e4:	40a40533          	sub	a0,s0,a0
    97e8:	5c053503          	ld	a0,1472(a0) # 15c0 <.LBB64_4+0x454>
    97ec:	03850533          	mul	a0,a0,s8
    97f0:	000015b7          	lui	a1,0x1
    97f4:	40b405b3          	sub	a1,s0,a1
    97f8:	5b85b583          	ld	a1,1464(a1) # 15b8 <.LBB64_4+0x44c>
    97fc:	017585b3          	add	a1,a1,s7
    9800:	00b50533          	add	a0,a0,a1
    9804:	42555513          	srai	a0,a0,0x25
    9808:	00a025b3          	sgtz	a1,a0
    980c:	40b005b3          	neg	a1,a1
    9810:	00a5f533          	and	a0,a1,a0
    9814:	01954463          	blt	a0,s9,981c <.LBB64_786>
    9818:	0ff00513          	li	a0,255

000000000000981c <.LBB64_786>:
    981c:	000015b7          	lui	a1,0x1
    9820:	40b405b3          	sub	a1,s0,a1
    9824:	5ca5b023          	sd	a0,1472(a1) # 15c0 <.LBB64_4+0x454>
    9828:	00001537          	lui	a0,0x1
    982c:	40a40533          	sub	a0,s0,a0
    9830:	5d053503          	ld	a0,1488(a0) # 15d0 <.LBB64_4+0x464>
    9834:	03850533          	mul	a0,a0,s8
    9838:	000015b7          	lui	a1,0x1
    983c:	40b405b3          	sub	a1,s0,a1
    9840:	5c85b583          	ld	a1,1480(a1) # 15c8 <.LBB64_4+0x45c>
    9844:	017585b3          	add	a1,a1,s7
    9848:	00b50533          	add	a0,a0,a1
    984c:	42555513          	srai	a0,a0,0x25
    9850:	00a025b3          	sgtz	a1,a0
    9854:	40b005b3          	neg	a1,a1
    9858:	00a5f533          	and	a0,a1,a0
    985c:	01954463          	blt	a0,s9,9864 <.LBB64_788>
    9860:	0ff00513          	li	a0,255

0000000000009864 <.LBB64_788>:
    9864:	000015b7          	lui	a1,0x1
    9868:	40b405b3          	sub	a1,s0,a1
    986c:	5ca5b823          	sd	a0,1488(a1) # 15d0 <.LBB64_4+0x464>
    9870:	00001537          	lui	a0,0x1
    9874:	40a40533          	sub	a0,s0,a0
    9878:	5e053503          	ld	a0,1504(a0) # 15e0 <.LBB64_4+0x474>
    987c:	03850533          	mul	a0,a0,s8
    9880:	000015b7          	lui	a1,0x1
    9884:	40b405b3          	sub	a1,s0,a1
    9888:	5d85b583          	ld	a1,1496(a1) # 15d8 <.LBB64_4+0x46c>
    988c:	017585b3          	add	a1,a1,s7
    9890:	00b50533          	add	a0,a0,a1
    9894:	42555513          	srai	a0,a0,0x25
    9898:	00a025b3          	sgtz	a1,a0
    989c:	40b005b3          	neg	a1,a1
    98a0:	00a5f533          	and	a0,a1,a0
    98a4:	01954463          	blt	a0,s9,98ac <.LBB64_790>
    98a8:	0ff00513          	li	a0,255

00000000000098ac <.LBB64_790>:
    98ac:	000015b7          	lui	a1,0x1
    98b0:	40b405b3          	sub	a1,s0,a1
    98b4:	5ea5b023          	sd	a0,1504(a1) # 15e0 <.LBB64_4+0x474>
    98b8:	00001537          	lui	a0,0x1
    98bc:	40a40533          	sub	a0,s0,a0
    98c0:	5f053503          	ld	a0,1520(a0) # 15f0 <.LBB64_4+0x484>
    98c4:	03850533          	mul	a0,a0,s8
    98c8:	000015b7          	lui	a1,0x1
    98cc:	40b405b3          	sub	a1,s0,a1
    98d0:	5e85b583          	ld	a1,1512(a1) # 15e8 <.LBB64_4+0x47c>
    98d4:	017585b3          	add	a1,a1,s7
    98d8:	00b50533          	add	a0,a0,a1
    98dc:	42555513          	srai	a0,a0,0x25
    98e0:	00a025b3          	sgtz	a1,a0
    98e4:	40b005b3          	neg	a1,a1
    98e8:	00a5f533          	and	a0,a1,a0
    98ec:	01954463          	blt	a0,s9,98f4 <.LBB64_792>
    98f0:	0ff00513          	li	a0,255

00000000000098f4 <.LBB64_792>:
    98f4:	000015b7          	lui	a1,0x1
    98f8:	40b405b3          	sub	a1,s0,a1
    98fc:	5ea5b823          	sd	a0,1520(a1) # 15f0 <.LBB64_4+0x484>
    9900:	00001537          	lui	a0,0x1
    9904:	40a40533          	sub	a0,s0,a0
    9908:	60053503          	ld	a0,1536(a0) # 1600 <.LBB64_4+0x494>
    990c:	03850533          	mul	a0,a0,s8
    9910:	000015b7          	lui	a1,0x1
    9914:	40b405b3          	sub	a1,s0,a1
    9918:	5f85b583          	ld	a1,1528(a1) # 15f8 <.LBB64_4+0x48c>
    991c:	017585b3          	add	a1,a1,s7
    9920:	00b50533          	add	a0,a0,a1
    9924:	42555513          	srai	a0,a0,0x25
    9928:	00a025b3          	sgtz	a1,a0
    992c:	40b005b3          	neg	a1,a1
    9930:	00a5f533          	and	a0,a1,a0
    9934:	01954463          	blt	a0,s9,993c <.LBB64_794>
    9938:	0ff00513          	li	a0,255

000000000000993c <.LBB64_794>:
    993c:	000015b7          	lui	a1,0x1
    9940:	40b405b3          	sub	a1,s0,a1
    9944:	60a5b023          	sd	a0,1536(a1) # 1600 <.LBB64_4+0x494>
    9948:	00001537          	lui	a0,0x1
    994c:	40a40533          	sub	a0,s0,a0
    9950:	61053503          	ld	a0,1552(a0) # 1610 <.LBB64_4+0x4a4>
    9954:	03850533          	mul	a0,a0,s8
    9958:	000015b7          	lui	a1,0x1
    995c:	40b405b3          	sub	a1,s0,a1
    9960:	6085b583          	ld	a1,1544(a1) # 1608 <.LBB64_4+0x49c>
    9964:	017585b3          	add	a1,a1,s7
    9968:	00b50533          	add	a0,a0,a1
    996c:	42555513          	srai	a0,a0,0x25
    9970:	00a025b3          	sgtz	a1,a0
    9974:	40b005b3          	neg	a1,a1
    9978:	00a5f533          	and	a0,a1,a0
    997c:	01954463          	blt	a0,s9,9984 <.LBB64_796>
    9980:	0ff00513          	li	a0,255

0000000000009984 <.LBB64_796>:
    9984:	000015b7          	lui	a1,0x1
    9988:	40b405b3          	sub	a1,s0,a1
    998c:	60a5b823          	sd	a0,1552(a1) # 1610 <.LBB64_4+0x4a4>
    9990:	00001537          	lui	a0,0x1
    9994:	40a40533          	sub	a0,s0,a0
    9998:	62053503          	ld	a0,1568(a0) # 1620 <.LBB64_4+0x4b4>
    999c:	03850533          	mul	a0,a0,s8
    99a0:	000015b7          	lui	a1,0x1
    99a4:	40b405b3          	sub	a1,s0,a1
    99a8:	6185b583          	ld	a1,1560(a1) # 1618 <.LBB64_4+0x4ac>
    99ac:	017585b3          	add	a1,a1,s7
    99b0:	00b50533          	add	a0,a0,a1
    99b4:	42555513          	srai	a0,a0,0x25
    99b8:	00a025b3          	sgtz	a1,a0
    99bc:	40b005b3          	neg	a1,a1
    99c0:	00a5f533          	and	a0,a1,a0
    99c4:	01954463          	blt	a0,s9,99cc <.LBB64_798>
    99c8:	0ff00513          	li	a0,255

00000000000099cc <.LBB64_798>:
    99cc:	000015b7          	lui	a1,0x1
    99d0:	40b405b3          	sub	a1,s0,a1
    99d4:	62a5b023          	sd	a0,1568(a1) # 1620 <.LBB64_4+0x4b4>
    99d8:	00001537          	lui	a0,0x1
    99dc:	40a40533          	sub	a0,s0,a0
    99e0:	63053503          	ld	a0,1584(a0) # 1630 <.LBB64_4+0x4c4>
    99e4:	03850533          	mul	a0,a0,s8
    99e8:	000015b7          	lui	a1,0x1
    99ec:	40b405b3          	sub	a1,s0,a1
    99f0:	6285b583          	ld	a1,1576(a1) # 1628 <.LBB64_4+0x4bc>
    99f4:	017585b3          	add	a1,a1,s7
    99f8:	00b50533          	add	a0,a0,a1
    99fc:	42555513          	srai	a0,a0,0x25
    9a00:	00a025b3          	sgtz	a1,a0
    9a04:	40b005b3          	neg	a1,a1
    9a08:	00a5f533          	and	a0,a1,a0
    9a0c:	01954463          	blt	a0,s9,9a14 <.LBB64_800>
    9a10:	0ff00513          	li	a0,255

0000000000009a14 <.LBB64_800>:
    9a14:	000015b7          	lui	a1,0x1
    9a18:	40b405b3          	sub	a1,s0,a1
    9a1c:	62a5b823          	sd	a0,1584(a1) # 1630 <.LBB64_4+0x4c4>
    9a20:	00001537          	lui	a0,0x1
    9a24:	40a40533          	sub	a0,s0,a0
    9a28:	64053503          	ld	a0,1600(a0) # 1640 <.LBB64_4+0x4d4>
    9a2c:	03850533          	mul	a0,a0,s8
    9a30:	000015b7          	lui	a1,0x1
    9a34:	40b405b3          	sub	a1,s0,a1
    9a38:	6385b583          	ld	a1,1592(a1) # 1638 <.LBB64_4+0x4cc>
    9a3c:	017585b3          	add	a1,a1,s7
    9a40:	00b50533          	add	a0,a0,a1
    9a44:	42555513          	srai	a0,a0,0x25
    9a48:	00a025b3          	sgtz	a1,a0
    9a4c:	40b005b3          	neg	a1,a1
    9a50:	00a5f533          	and	a0,a1,a0
    9a54:	01954463          	blt	a0,s9,9a5c <.LBB64_802>
    9a58:	0ff00513          	li	a0,255

0000000000009a5c <.LBB64_802>:
    9a5c:	000015b7          	lui	a1,0x1
    9a60:	40b405b3          	sub	a1,s0,a1
    9a64:	64a5b023          	sd	a0,1600(a1) # 1640 <.LBB64_4+0x4d4>
    9a68:	00001537          	lui	a0,0x1
    9a6c:	40a40533          	sub	a0,s0,a0
    9a70:	68053503          	ld	a0,1664(a0) # 1680 <.LBB64_4+0x514>
    9a74:	03850533          	mul	a0,a0,s8
    9a78:	000015b7          	lui	a1,0x1
    9a7c:	40b405b3          	sub	a1,s0,a1
    9a80:	6485b583          	ld	a1,1608(a1) # 1648 <.LBB64_4+0x4dc>
    9a84:	017585b3          	add	a1,a1,s7
    9a88:	00b50533          	add	a0,a0,a1
    9a8c:	42555513          	srai	a0,a0,0x25
    9a90:	00a025b3          	sgtz	a1,a0
    9a94:	40b005b3          	neg	a1,a1
    9a98:	00a5f533          	and	a0,a1,a0
    9a9c:	01954463          	blt	a0,s9,9aa4 <.LBB64_804>
    9aa0:	0ff00513          	li	a0,255

0000000000009aa4 <.LBB64_804>:
    9aa4:	000015b7          	lui	a1,0x1
    9aa8:	40b405b3          	sub	a1,s0,a1
    9aac:	68a5b023          	sd	a0,1664(a1) # 1680 <.LBB64_4+0x514>
    9ab0:	00001537          	lui	a0,0x1
    9ab4:	40a40533          	sub	a0,s0,a0
    9ab8:	68853503          	ld	a0,1672(a0) # 1688 <.LBB64_4+0x51c>
    9abc:	03850533          	mul	a0,a0,s8
    9ac0:	af843583          	ld	a1,-1288(s0)
    9ac4:	017585b3          	add	a1,a1,s7
    9ac8:	00b50533          	add	a0,a0,a1
    9acc:	42555513          	srai	a0,a0,0x25
    9ad0:	00a025b3          	sgtz	a1,a0
    9ad4:	40b005b3          	neg	a1,a1
    9ad8:	00a5f533          	and	a0,a1,a0
    9adc:	01954463          	blt	a0,s9,9ae4 <.LBB64_806>
    9ae0:	0ff00513          	li	a0,255

0000000000009ae4 <.LBB64_806>:
    9ae4:	aea43c23          	sd	a0,-1288(s0)
    9ae8:	00001537          	lui	a0,0x1
    9aec:	40a40533          	sub	a0,s0,a0
    9af0:	78853503          	ld	a0,1928(a0) # 1788 <.LBB64_5+0x80>
    9af4:	03850533          	mul	a0,a0,s8
    9af8:	000015b7          	lui	a1,0x1
    9afc:	40b405b3          	sub	a1,s0,a1
    9b00:	7805b583          	ld	a1,1920(a1) # 1780 <.LBB64_5+0x78>
    9b04:	017585b3          	add	a1,a1,s7
    9b08:	00b50533          	add	a0,a0,a1
    9b0c:	42555513          	srai	a0,a0,0x25
    9b10:	00a025b3          	sgtz	a1,a0
    9b14:	40b005b3          	neg	a1,a1
    9b18:	00a5f533          	and	a0,a1,a0
    9b1c:	01954463          	blt	a0,s9,9b24 <.LBB64_808>
    9b20:	0ff00513          	li	a0,255

0000000000009b24 <.LBB64_808>:
    9b24:	000015b7          	lui	a1,0x1
    9b28:	40b405b3          	sub	a1,s0,a1
    9b2c:	78a5b423          	sd	a0,1928(a1) # 1788 <.LBB64_5+0x80>
    9b30:	00001537          	lui	a0,0x1
    9b34:	40a40533          	sub	a0,s0,a0
    9b38:	79053503          	ld	a0,1936(a0) # 1790 <.LBB64_5+0x88>
    9b3c:	03850533          	mul	a0,a0,s8
    9b40:	b0843583          	ld	a1,-1272(s0)
    9b44:	017585b3          	add	a1,a1,s7
    9b48:	00b50533          	add	a0,a0,a1
    9b4c:	42555513          	srai	a0,a0,0x25
    9b50:	00a025b3          	sgtz	a1,a0
    9b54:	40b005b3          	neg	a1,a1
    9b58:	00a5f533          	and	a0,a1,a0
    9b5c:	01954463          	blt	a0,s9,9b64 <.LBB64_810>
    9b60:	0ff00513          	li	a0,255

0000000000009b64 <.LBB64_810>:
    9b64:	b0a43423          	sd	a0,-1272(s0)
    9b68:	00001537          	lui	a0,0x1
    9b6c:	40a40533          	sub	a0,s0,a0
    9b70:	7a853503          	ld	a0,1960(a0) # 17a8 <.LBB64_5+0xa0>
    9b74:	03850533          	mul	a0,a0,s8
    9b78:	000015b7          	lui	a1,0x1
    9b7c:	40b405b3          	sub	a1,s0,a1
    9b80:	7a05b583          	ld	a1,1952(a1) # 17a0 <.LBB64_5+0x98>
    9b84:	017585b3          	add	a1,a1,s7
    9b88:	00b50533          	add	a0,a0,a1
    9b8c:	42555513          	srai	a0,a0,0x25
    9b90:	00a025b3          	sgtz	a1,a0
    9b94:	40b005b3          	neg	a1,a1
    9b98:	00a5f533          	and	a0,a1,a0
    9b9c:	01954463          	blt	a0,s9,9ba4 <.LBB64_812>
    9ba0:	0ff00513          	li	a0,255

0000000000009ba4 <.LBB64_812>:
    9ba4:	000015b7          	lui	a1,0x1
    9ba8:	40b405b3          	sub	a1,s0,a1
    9bac:	7aa5b423          	sd	a0,1960(a1) # 17a8 <.LBB64_5+0xa0>
    9bb0:	00001537          	lui	a0,0x1
    9bb4:	40a40533          	sub	a0,s0,a0
    9bb8:	7b853503          	ld	a0,1976(a0) # 17b8 <.LBB64_5+0xb0>
    9bbc:	03850533          	mul	a0,a0,s8
    9bc0:	000015b7          	lui	a1,0x1
    9bc4:	40b405b3          	sub	a1,s0,a1
    9bc8:	7b05b583          	ld	a1,1968(a1) # 17b0 <.LBB64_5+0xa8>
    9bcc:	017585b3          	add	a1,a1,s7
    9bd0:	00b50533          	add	a0,a0,a1
    9bd4:	42555513          	srai	a0,a0,0x25
    9bd8:	00a025b3          	sgtz	a1,a0
    9bdc:	40b005b3          	neg	a1,a1
    9be0:	00a5f533          	and	a0,a1,a0
    9be4:	01954463          	blt	a0,s9,9bec <.LBB64_814>
    9be8:	0ff00513          	li	a0,255

0000000000009bec <.LBB64_814>:
    9bec:	000015b7          	lui	a1,0x1
    9bf0:	40b405b3          	sub	a1,s0,a1
    9bf4:	7aa5bc23          	sd	a0,1976(a1) # 17b8 <.LBB64_5+0xb0>
    9bf8:	00001537          	lui	a0,0x1
    9bfc:	40a40533          	sub	a0,s0,a0
    9c00:	7c853503          	ld	a0,1992(a0) # 17c8 <.LBB64_5+0xc0>
    9c04:	03850533          	mul	a0,a0,s8
    9c08:	000015b7          	lui	a1,0x1
    9c0c:	40b405b3          	sub	a1,s0,a1
    9c10:	7c05b583          	ld	a1,1984(a1) # 17c0 <.LBB64_5+0xb8>
    9c14:	017585b3          	add	a1,a1,s7
    9c18:	00b50533          	add	a0,a0,a1
    9c1c:	42555513          	srai	a0,a0,0x25
    9c20:	00a025b3          	sgtz	a1,a0
    9c24:	40b005b3          	neg	a1,a1
    9c28:	00a5f533          	and	a0,a1,a0
    9c2c:	01954463          	blt	a0,s9,9c34 <.LBB64_816>
    9c30:	0ff00513          	li	a0,255

0000000000009c34 <.LBB64_816>:
    9c34:	000015b7          	lui	a1,0x1
    9c38:	40b405b3          	sub	a1,s0,a1
    9c3c:	7ca5b423          	sd	a0,1992(a1) # 17c8 <.LBB64_5+0xc0>
    9c40:	00001537          	lui	a0,0x1
    9c44:	40a40533          	sub	a0,s0,a0
    9c48:	7e053503          	ld	a0,2016(a0) # 17e0 <.LBB64_5+0xd8>
    9c4c:	03850533          	mul	a0,a0,s8
    9c50:	000015b7          	lui	a1,0x1
    9c54:	40b405b3          	sub	a1,s0,a1
    9c58:	7d05b583          	ld	a1,2000(a1) # 17d0 <.LBB64_5+0xc8>
    9c5c:	017585b3          	add	a1,a1,s7
    9c60:	00b50533          	add	a0,a0,a1
    9c64:	42555513          	srai	a0,a0,0x25
    9c68:	00a025b3          	sgtz	a1,a0
    9c6c:	40b005b3          	neg	a1,a1
    9c70:	00a5f533          	and	a0,a1,a0
    9c74:	01954463          	blt	a0,s9,9c7c <.LBB64_818>
    9c78:	0ff00513          	li	a0,255

0000000000009c7c <.LBB64_818>:
    9c7c:	000015b7          	lui	a1,0x1
    9c80:	40b405b3          	sub	a1,s0,a1
    9c84:	7ea5b023          	sd	a0,2016(a1) # 17e0 <.LBB64_5+0xd8>
    9c88:	00001537          	lui	a0,0x1
    9c8c:	40a40533          	sub	a0,s0,a0
    9c90:	7f053503          	ld	a0,2032(a0) # 17f0 <.LBB64_5+0xe8>
    9c94:	03850533          	mul	a0,a0,s8
    9c98:	000015b7          	lui	a1,0x1
    9c9c:	40b405b3          	sub	a1,s0,a1
    9ca0:	7e85b583          	ld	a1,2024(a1) # 17e8 <.LBB64_5+0xe0>
    9ca4:	017585b3          	add	a1,a1,s7
    9ca8:	00b50533          	add	a0,a0,a1
    9cac:	42555513          	srai	a0,a0,0x25
    9cb0:	00a025b3          	sgtz	a1,a0
    9cb4:	40b005b3          	neg	a1,a1
    9cb8:	00a5f533          	and	a0,a1,a0
    9cbc:	01954463          	blt	a0,s9,9cc4 <.LBB64_820>
    9cc0:	0ff00513          	li	a0,255

0000000000009cc4 <.LBB64_820>:
    9cc4:	000015b7          	lui	a1,0x1
    9cc8:	40b405b3          	sub	a1,s0,a1
    9ccc:	7ea5b823          	sd	a0,2032(a1) # 17f0 <.LBB64_5+0xe8>
    9cd0:	00001537          	lui	a0,0x1
    9cd4:	40a40533          	sub	a0,s0,a0
    9cd8:	7f853503          	ld	a0,2040(a0) # 17f8 <.LBB64_5+0xf0>
    9cdc:	03850533          	mul	a0,a0,s8
    9ce0:	b3843583          	ld	a1,-1224(s0)
    9ce4:	017585b3          	add	a1,a1,s7
    9ce8:	00b50533          	add	a0,a0,a1
    9cec:	42555513          	srai	a0,a0,0x25
    9cf0:	00a025b3          	sgtz	a1,a0
    9cf4:	40b005b3          	neg	a1,a1
    9cf8:	00a5f533          	and	a0,a1,a0
    9cfc:	01954463          	blt	a0,s9,9d04 <.LBB64_822>
    9d00:	0ff00513          	li	a0,255

0000000000009d04 <.LBB64_822>:
    9d04:	b2a43c23          	sd	a0,-1224(s0)
    9d08:	80843503          	ld	a0,-2040(s0)
    9d0c:	03850533          	mul	a0,a0,s8
    9d10:	80043583          	ld	a1,-2048(s0)
    9d14:	017585b3          	add	a1,a1,s7
    9d18:	00b50533          	add	a0,a0,a1
    9d1c:	42555513          	srai	a0,a0,0x25
    9d20:	00a025b3          	sgtz	a1,a0
    9d24:	40b005b3          	neg	a1,a1
    9d28:	00a5f533          	and	a0,a1,a0
    9d2c:	01954463          	blt	a0,s9,9d34 <.LBB64_824>
    9d30:	0ff00513          	li	a0,255

0000000000009d34 <.LBB64_824>:
    9d34:	80a43423          	sd	a0,-2040(s0)
    9d38:	82043503          	ld	a0,-2016(s0)
    9d3c:	03850533          	mul	a0,a0,s8
    9d40:	81843583          	ld	a1,-2024(s0)
    9d44:	017585b3          	add	a1,a1,s7
    9d48:	00b50533          	add	a0,a0,a1
    9d4c:	42555513          	srai	a0,a0,0x25
    9d50:	00a025b3          	sgtz	a1,a0
    9d54:	40b005b3          	neg	a1,a1
    9d58:	00a5f533          	and	a0,a1,a0
    9d5c:	01954463          	blt	a0,s9,9d64 <.LBB64_826>
    9d60:	0ff00513          	li	a0,255

0000000000009d64 <.LBB64_826>:
    9d64:	82a43023          	sd	a0,-2016(s0)
    9d68:	83043503          	ld	a0,-2000(s0)
    9d6c:	03850533          	mul	a0,a0,s8
    9d70:	82843583          	ld	a1,-2008(s0)
    9d74:	017585b3          	add	a1,a1,s7
    9d78:	00b50533          	add	a0,a0,a1
    9d7c:	42555513          	srai	a0,a0,0x25
    9d80:	00a025b3          	sgtz	a1,a0
    9d84:	40b005b3          	neg	a1,a1
    9d88:	00a5f533          	and	a0,a1,a0
    9d8c:	01954463          	blt	a0,s9,9d94 <.LBB64_828>
    9d90:	0ff00513          	li	a0,255

0000000000009d94 <.LBB64_828>:
    9d94:	82a43823          	sd	a0,-2000(s0)
    9d98:	84043503          	ld	a0,-1984(s0)
    9d9c:	03850533          	mul	a0,a0,s8
    9da0:	83843583          	ld	a1,-1992(s0)
    9da4:	017585b3          	add	a1,a1,s7
    9da8:	00b50533          	add	a0,a0,a1
    9dac:	42555513          	srai	a0,a0,0x25
    9db0:	00a025b3          	sgtz	a1,a0
    9db4:	40b005b3          	neg	a1,a1
    9db8:	00a5f533          	and	a0,a1,a0
    9dbc:	01954463          	blt	a0,s9,9dc4 <.LBB64_830>
    9dc0:	0ff00513          	li	a0,255

0000000000009dc4 <.LBB64_830>:
    9dc4:	84a43023          	sd	a0,-1984(s0)
    9dc8:	85043503          	ld	a0,-1968(s0)
    9dcc:	03850533          	mul	a0,a0,s8
    9dd0:	84843583          	ld	a1,-1976(s0)
    9dd4:	017585b3          	add	a1,a1,s7
    9dd8:	00b50533          	add	a0,a0,a1
    9ddc:	42555513          	srai	a0,a0,0x25
    9de0:	00a025b3          	sgtz	a1,a0
    9de4:	40b005b3          	neg	a1,a1
    9de8:	00a5f533          	and	a0,a1,a0
    9dec:	01954463          	blt	a0,s9,9df4 <.LBB64_832>
    9df0:	0ff00513          	li	a0,255

0000000000009df4 <.LBB64_832>:
    9df4:	84a43823          	sd	a0,-1968(s0)
    9df8:	86843503          	ld	a0,-1944(s0)
    9dfc:	03850533          	mul	a0,a0,s8
    9e00:	86043583          	ld	a1,-1952(s0)
    9e04:	017585b3          	add	a1,a1,s7
    9e08:	00b50533          	add	a0,a0,a1
    9e0c:	42555513          	srai	a0,a0,0x25
    9e10:	00a025b3          	sgtz	a1,a0
    9e14:	40b005b3          	neg	a1,a1
    9e18:	00a5f533          	and	a0,a1,a0
    9e1c:	01954463          	blt	a0,s9,9e24 <.LBB64_834>
    9e20:	0ff00513          	li	a0,255

0000000000009e24 <.LBB64_834>:
    9e24:	86a43423          	sd	a0,-1944(s0)
    9e28:	87843503          	ld	a0,-1928(s0)
    9e2c:	03850533          	mul	a0,a0,s8
    9e30:	87043583          	ld	a1,-1936(s0)
    9e34:	017585b3          	add	a1,a1,s7
    9e38:	00b50533          	add	a0,a0,a1
    9e3c:	42555513          	srai	a0,a0,0x25
    9e40:	00a025b3          	sgtz	a1,a0
    9e44:	40b005b3          	neg	a1,a1
    9e48:	00a5f533          	and	a0,a1,a0
    9e4c:	01954463          	blt	a0,s9,9e54 <.LBB64_836>
    9e50:	0ff00513          	li	a0,255

0000000000009e54 <.LBB64_836>:
    9e54:	86a43c23          	sd	a0,-1928(s0)
    9e58:	88843503          	ld	a0,-1912(s0)
    9e5c:	03850533          	mul	a0,a0,s8
    9e60:	88043583          	ld	a1,-1920(s0)
    9e64:	017585b3          	add	a1,a1,s7
    9e68:	00b50533          	add	a0,a0,a1
    9e6c:	42555513          	srai	a0,a0,0x25
    9e70:	00a025b3          	sgtz	a1,a0
    9e74:	40b005b3          	neg	a1,a1
    9e78:	00a5f533          	and	a0,a1,a0
    9e7c:	01954463          	blt	a0,s9,9e84 <.LBB64_838>
    9e80:	0ff00513          	li	a0,255

0000000000009e84 <.LBB64_838>:
    9e84:	88a43423          	sd	a0,-1912(s0)
    9e88:	8a043503          	ld	a0,-1888(s0)
    9e8c:	03850533          	mul	a0,a0,s8
    9e90:	89043583          	ld	a1,-1904(s0)
    9e94:	017585b3          	add	a1,a1,s7
    9e98:	00b50533          	add	a0,a0,a1
    9e9c:	42555513          	srai	a0,a0,0x25
    9ea0:	00a025b3          	sgtz	a1,a0
    9ea4:	40b005b3          	neg	a1,a1
    9ea8:	00a5f533          	and	a0,a1,a0
    9eac:	01954463          	blt	a0,s9,9eb4 <.LBB64_840>
    9eb0:	0ff00513          	li	a0,255

0000000000009eb4 <.LBB64_840>:
    9eb4:	8aa43023          	sd	a0,-1888(s0)
    9eb8:	8b043503          	ld	a0,-1872(s0)
    9ebc:	03850533          	mul	a0,a0,s8
    9ec0:	8a843583          	ld	a1,-1880(s0)
    9ec4:	017585b3          	add	a1,a1,s7
    9ec8:	00b50533          	add	a0,a0,a1
    9ecc:	42555513          	srai	a0,a0,0x25
    9ed0:	00a025b3          	sgtz	a1,a0
    9ed4:	40b005b3          	neg	a1,a1
    9ed8:	00a5f533          	and	a0,a1,a0
    9edc:	01954463          	blt	a0,s9,9ee4 <.LBB64_842>
    9ee0:	0ff00513          	li	a0,255

0000000000009ee4 <.LBB64_842>:
    9ee4:	8aa43823          	sd	a0,-1872(s0)
    9ee8:	8c043503          	ld	a0,-1856(s0)
    9eec:	03850533          	mul	a0,a0,s8
    9ef0:	8b843583          	ld	a1,-1864(s0)
    9ef4:	017585b3          	add	a1,a1,s7
    9ef8:	00b50533          	add	a0,a0,a1
    9efc:	42555513          	srai	a0,a0,0x25
    9f00:	00a025b3          	sgtz	a1,a0
    9f04:	40b005b3          	neg	a1,a1
    9f08:	00a5f533          	and	a0,a1,a0
    9f0c:	01954463          	blt	a0,s9,9f14 <.LBB64_844>
    9f10:	0ff00513          	li	a0,255

0000000000009f14 <.LBB64_844>:
    9f14:	8ca43023          	sd	a0,-1856(s0)
    9f18:	8d043503          	ld	a0,-1840(s0)
    9f1c:	03850533          	mul	a0,a0,s8
    9f20:	8c843583          	ld	a1,-1848(s0)
    9f24:	017585b3          	add	a1,a1,s7
    9f28:	00b50533          	add	a0,a0,a1
    9f2c:	42555513          	srai	a0,a0,0x25
    9f30:	00a025b3          	sgtz	a1,a0
    9f34:	40b005b3          	neg	a1,a1
    9f38:	00a5f533          	and	a0,a1,a0
    9f3c:	01954463          	blt	a0,s9,9f44 <.LBB64_846>
    9f40:	0ff00513          	li	a0,255

0000000000009f44 <.LBB64_846>:
    9f44:	8ca43823          	sd	a0,-1840(s0)
    9f48:	8e843503          	ld	a0,-1816(s0)
    9f4c:	03850533          	mul	a0,a0,s8
    9f50:	8e043583          	ld	a1,-1824(s0)
    9f54:	017585b3          	add	a1,a1,s7
    9f58:	00b50533          	add	a0,a0,a1
    9f5c:	42555513          	srai	a0,a0,0x25
    9f60:	00a025b3          	sgtz	a1,a0
    9f64:	40b005b3          	neg	a1,a1
    9f68:	00a5f533          	and	a0,a1,a0
    9f6c:	01954463          	blt	a0,s9,9f74 <.LBB64_848>
    9f70:	0ff00513          	li	a0,255

0000000000009f74 <.LBB64_848>:
    9f74:	8ea43423          	sd	a0,-1816(s0)
    9f78:	8f843503          	ld	a0,-1800(s0)
    9f7c:	03850533          	mul	a0,a0,s8
    9f80:	8f043583          	ld	a1,-1808(s0)
    9f84:	017585b3          	add	a1,a1,s7
    9f88:	00b50533          	add	a0,a0,a1
    9f8c:	42555513          	srai	a0,a0,0x25
    9f90:	00a025b3          	sgtz	a1,a0
    9f94:	40b005b3          	neg	a1,a1
    9f98:	00a5f533          	and	a0,a1,a0
    9f9c:	01954463          	blt	a0,s9,9fa4 <.LBB64_850>
    9fa0:	0ff00513          	li	a0,255

0000000000009fa4 <.LBB64_850>:
    9fa4:	8ea43c23          	sd	a0,-1800(s0)
    9fa8:	90843503          	ld	a0,-1784(s0)
    9fac:	03850533          	mul	a0,a0,s8
    9fb0:	90043583          	ld	a1,-1792(s0)
    9fb4:	017585b3          	add	a1,a1,s7
    9fb8:	00b50533          	add	a0,a0,a1
    9fbc:	42555513          	srai	a0,a0,0x25
    9fc0:	00a025b3          	sgtz	a1,a0
    9fc4:	40b005b3          	neg	a1,a1
    9fc8:	00a5f533          	and	a0,a1,a0
    9fcc:	01954463          	blt	a0,s9,9fd4 <.LBB64_852>
    9fd0:	0ff00513          	li	a0,255

0000000000009fd4 <.LBB64_852>:
    9fd4:	90a43423          	sd	a0,-1784(s0)
    9fd8:	91843503          	ld	a0,-1768(s0)
    9fdc:	03850533          	mul	a0,a0,s8
    9fe0:	91043583          	ld	a1,-1776(s0)
    9fe4:	017585b3          	add	a1,a1,s7
    9fe8:	00b50533          	add	a0,a0,a1
    9fec:	42555513          	srai	a0,a0,0x25
    9ff0:	00a025b3          	sgtz	a1,a0
    9ff4:	40b005b3          	neg	a1,a1
    9ff8:	00a5f533          	and	a0,a1,a0
    9ffc:	01954463          	blt	a0,s9,a004 <.LBB64_854>
    a000:	0ff00513          	li	a0,255

000000000000a004 <.LBB64_854>:
    a004:	90a43c23          	sd	a0,-1768(s0)
    a008:	93043503          	ld	a0,-1744(s0)
    a00c:	03850533          	mul	a0,a0,s8
    a010:	92843583          	ld	a1,-1752(s0)
    a014:	017585b3          	add	a1,a1,s7
    a018:	00b50533          	add	a0,a0,a1
    a01c:	42555513          	srai	a0,a0,0x25
    a020:	00a025b3          	sgtz	a1,a0
    a024:	40b005b3          	neg	a1,a1
    a028:	00a5f533          	and	a0,a1,a0
    a02c:	01954463          	blt	a0,s9,a034 <.LBB64_856>
    a030:	0ff00513          	li	a0,255

000000000000a034 <.LBB64_856>:
    a034:	92a43823          	sd	a0,-1744(s0)
    a038:	94043503          	ld	a0,-1728(s0)
    a03c:	03850533          	mul	a0,a0,s8
    a040:	93843583          	ld	a1,-1736(s0)
    a044:	017585b3          	add	a1,a1,s7
    a048:	00b50533          	add	a0,a0,a1
    a04c:	42555513          	srai	a0,a0,0x25
    a050:	00a025b3          	sgtz	a1,a0
    a054:	40b005b3          	neg	a1,a1
    a058:	00a5f533          	and	a0,a1,a0
    a05c:	01954463          	blt	a0,s9,a064 <.LBB64_858>
    a060:	0ff00513          	li	a0,255

000000000000a064 <.LBB64_858>:
    a064:	94a43023          	sd	a0,-1728(s0)
    a068:	94843503          	ld	a0,-1720(s0)
    a06c:	03850533          	mul	a0,a0,s8
    a070:	bd043583          	ld	a1,-1072(s0)
    a074:	017585b3          	add	a1,a1,s7
    a078:	00b50533          	add	a0,a0,a1
    a07c:	42555513          	srai	a0,a0,0x25
    a080:	00a025b3          	sgtz	a1,a0
    a084:	40b005b3          	neg	a1,a1
    a088:	00a5f533          	and	a0,a1,a0
    a08c:	01954463          	blt	a0,s9,a094 <.LBB64_860>
    a090:	0ff00513          	li	a0,255

000000000000a094 <.LBB64_860>:
    a094:	bca43823          	sd	a0,-1072(s0)
    a098:	96043503          	ld	a0,-1696(s0)
    a09c:	03850533          	mul	a0,a0,s8
    a0a0:	95043583          	ld	a1,-1712(s0)
    a0a4:	017585b3          	add	a1,a1,s7
    a0a8:	00b50533          	add	a0,a0,a1
    a0ac:	42555513          	srai	a0,a0,0x25
    a0b0:	00a025b3          	sgtz	a1,a0
    a0b4:	40b005b3          	neg	a1,a1
    a0b8:	00a5f533          	and	a0,a1,a0
    a0bc:	01954463          	blt	a0,s9,a0c4 <.LBB64_862>
    a0c0:	0ff00513          	li	a0,255

000000000000a0c4 <.LBB64_862>:
    a0c4:	96a43023          	sd	a0,-1696(s0)
    a0c8:	97043503          	ld	a0,-1680(s0)
    a0cc:	03850533          	mul	a0,a0,s8
    a0d0:	96843583          	ld	a1,-1688(s0)
    a0d4:	017585b3          	add	a1,a1,s7
    a0d8:	00b50533          	add	a0,a0,a1
    a0dc:	42555513          	srai	a0,a0,0x25
    a0e0:	00a025b3          	sgtz	a1,a0
    a0e4:	40b005b3          	neg	a1,a1
    a0e8:	00a5f533          	and	a0,a1,a0
    a0ec:	01954463          	blt	a0,s9,a0f4 <.LBB64_864>
    a0f0:	0ff00513          	li	a0,255

000000000000a0f4 <.LBB64_864>:
    a0f4:	96a43823          	sd	a0,-1680(s0)
    a0f8:	98043503          	ld	a0,-1664(s0)
    a0fc:	03850533          	mul	a0,a0,s8
    a100:	97843583          	ld	a1,-1672(s0)
    a104:	017585b3          	add	a1,a1,s7
    a108:	00b50533          	add	a0,a0,a1
    a10c:	42555513          	srai	a0,a0,0x25
    a110:	00a025b3          	sgtz	a1,a0
    a114:	40b005b3          	neg	a1,a1
    a118:	00a5f533          	and	a0,a1,a0
    a11c:	01954463          	blt	a0,s9,a124 <.LBB64_866>
    a120:	0ff00513          	li	a0,255

000000000000a124 <.LBB64_866>:
    a124:	98a43023          	sd	a0,-1664(s0)
    a128:	99043503          	ld	a0,-1648(s0)
    a12c:	03850533          	mul	a0,a0,s8
    a130:	98843583          	ld	a1,-1656(s0)
    a134:	017585b3          	add	a1,a1,s7
    a138:	00b50533          	add	a0,a0,a1
    a13c:	42555513          	srai	a0,a0,0x25
    a140:	00a025b3          	sgtz	a1,a0
    a144:	40b005b3          	neg	a1,a1
    a148:	00a5f533          	and	a0,a1,a0
    a14c:	01954463          	blt	a0,s9,a154 <.LBB64_868>
    a150:	0ff00513          	li	a0,255

000000000000a154 <.LBB64_868>:
    a154:	98a43823          	sd	a0,-1648(s0)
    a158:	9a843503          	ld	a0,-1624(s0)
    a15c:	03850533          	mul	a0,a0,s8
    a160:	9a043583          	ld	a1,-1632(s0)
    a164:	017585b3          	add	a1,a1,s7
    a168:	00b50533          	add	a0,a0,a1
    a16c:	42555513          	srai	a0,a0,0x25
    a170:	00a025b3          	sgtz	a1,a0
    a174:	40b005b3          	neg	a1,a1
    a178:	00a5f533          	and	a0,a1,a0
    a17c:	01954463          	blt	a0,s9,a184 <.LBB64_870>
    a180:	0ff00513          	li	a0,255

000000000000a184 <.LBB64_870>:
    a184:	9aa43423          	sd	a0,-1624(s0)
    a188:	9b843503          	ld	a0,-1608(s0)
    a18c:	03850533          	mul	a0,a0,s8
    a190:	9b043583          	ld	a1,-1616(s0)
    a194:	017585b3          	add	a1,a1,s7
    a198:	00b50533          	add	a0,a0,a1
    a19c:	42555513          	srai	a0,a0,0x25
    a1a0:	00a025b3          	sgtz	a1,a0
    a1a4:	40b005b3          	neg	a1,a1
    a1a8:	00a5f533          	and	a0,a1,a0
    a1ac:	01954463          	blt	a0,s9,a1b4 <.LBB64_872>
    a1b0:	0ff00513          	li	a0,255

000000000000a1b4 <.LBB64_872>:
    a1b4:	9aa43c23          	sd	a0,-1608(s0)
    a1b8:	9c843503          	ld	a0,-1592(s0)
    a1bc:	03850533          	mul	a0,a0,s8
    a1c0:	9c043583          	ld	a1,-1600(s0)
    a1c4:	017585b3          	add	a1,a1,s7
    a1c8:	00b50533          	add	a0,a0,a1
    a1cc:	42555513          	srai	a0,a0,0x25
    a1d0:	00a025b3          	sgtz	a1,a0
    a1d4:	40b005b3          	neg	a1,a1
    a1d8:	00a5f533          	and	a0,a1,a0
    a1dc:	01954463          	blt	a0,s9,a1e4 <.LBB64_874>
    a1e0:	0ff00513          	li	a0,255

000000000000a1e4 <.LBB64_874>:
    a1e4:	9ca43423          	sd	a0,-1592(s0)
    a1e8:	9d843503          	ld	a0,-1576(s0)
    a1ec:	03850533          	mul	a0,a0,s8
    a1f0:	9d043583          	ld	a1,-1584(s0)
    a1f4:	017585b3          	add	a1,a1,s7
    a1f8:	00b50533          	add	a0,a0,a1
    a1fc:	42555513          	srai	a0,a0,0x25
    a200:	00a025b3          	sgtz	a1,a0
    a204:	40b005b3          	neg	a1,a1
    a208:	00a5f533          	and	a0,a1,a0
    a20c:	01954463          	blt	a0,s9,a214 <.LBB64_876>
    a210:	0ff00513          	li	a0,255

000000000000a214 <.LBB64_876>:
    a214:	9ca43c23          	sd	a0,-1576(s0)
    a218:	9f043503          	ld	a0,-1552(s0)
    a21c:	03850533          	mul	a0,a0,s8
    a220:	9e843583          	ld	a1,-1560(s0)
    a224:	017585b3          	add	a1,a1,s7
    a228:	00b50533          	add	a0,a0,a1
    a22c:	42555513          	srai	a0,a0,0x25
    a230:	00a025b3          	sgtz	a1,a0
    a234:	40b005b3          	neg	a1,a1
    a238:	00a5f533          	and	a0,a1,a0
    a23c:	01954463          	blt	a0,s9,a244 <.LBB64_878>
    a240:	0ff00513          	li	a0,255

000000000000a244 <.LBB64_878>:
    a244:	9ea43823          	sd	a0,-1552(s0)
    a248:	a0043503          	ld	a0,-1536(s0)
    a24c:	03850533          	mul	a0,a0,s8
    a250:	9f843583          	ld	a1,-1544(s0)
    a254:	017585b3          	add	a1,a1,s7
    a258:	00b50533          	add	a0,a0,a1
    a25c:	42555513          	srai	a0,a0,0x25
    a260:	00a025b3          	sgtz	a1,a0
    a264:	40b005b3          	neg	a1,a1
    a268:	00a5f533          	and	a0,a1,a0
    a26c:	01954463          	blt	a0,s9,a274 <.LBB64_880>
    a270:	0ff00513          	li	a0,255

000000000000a274 <.LBB64_880>:
    a274:	a0a43023          	sd	a0,-1536(s0)
    a278:	a1043503          	ld	a0,-1520(s0)
    a27c:	03850533          	mul	a0,a0,s8
    a280:	a0843583          	ld	a1,-1528(s0)
    a284:	017585b3          	add	a1,a1,s7
    a288:	00b50533          	add	a0,a0,a1
    a28c:	42555513          	srai	a0,a0,0x25
    a290:	00a025b3          	sgtz	a1,a0
    a294:	40b005b3          	neg	a1,a1
    a298:	00a5f533          	and	a0,a1,a0
    a29c:	01954463          	blt	a0,s9,a2a4 <.LBB64_882>
    a2a0:	0ff00513          	li	a0,255

000000000000a2a4 <.LBB64_882>:
    a2a4:	a0a43823          	sd	a0,-1520(s0)
    a2a8:	a2843503          	ld	a0,-1496(s0)
    a2ac:	03850533          	mul	a0,a0,s8
    a2b0:	a1843583          	ld	a1,-1512(s0)
    a2b4:	017585b3          	add	a1,a1,s7
    a2b8:	00b50533          	add	a0,a0,a1
    a2bc:	42555513          	srai	a0,a0,0x25
    a2c0:	00a025b3          	sgtz	a1,a0
    a2c4:	40b005b3          	neg	a1,a1
    a2c8:	00a5f533          	and	a0,a1,a0
    a2cc:	01954463          	blt	a0,s9,a2d4 <.LBB64_884>
    a2d0:	0ff00513          	li	a0,255

000000000000a2d4 <.LBB64_884>:
    a2d4:	a2a43423          	sd	a0,-1496(s0)
    a2d8:	a3843503          	ld	a0,-1480(s0)
    a2dc:	03850533          	mul	a0,a0,s8
    a2e0:	a3043583          	ld	a1,-1488(s0)
    a2e4:	017585b3          	add	a1,a1,s7
    a2e8:	00b50533          	add	a0,a0,a1
    a2ec:	42555513          	srai	a0,a0,0x25
    a2f0:	00a025b3          	sgtz	a1,a0
    a2f4:	40b005b3          	neg	a1,a1
    a2f8:	00a5f533          	and	a0,a1,a0
    a2fc:	01954463          	blt	a0,s9,a304 <.LBB64_886>
    a300:	0ff00513          	li	a0,255

000000000000a304 <.LBB64_886>:
    a304:	a2a43c23          	sd	a0,-1480(s0)
    a308:	a4843503          	ld	a0,-1464(s0)
    a30c:	03850533          	mul	a0,a0,s8
    a310:	a4043583          	ld	a1,-1472(s0)
    a314:	017585b3          	add	a1,a1,s7
    a318:	00b50533          	add	a0,a0,a1
    a31c:	42555513          	srai	a0,a0,0x25
    a320:	00a025b3          	sgtz	a1,a0
    a324:	40b005b3          	neg	a1,a1
    a328:	00a5f533          	and	a0,a1,a0
    a32c:	01954463          	blt	a0,s9,a334 <.LBB64_888>
    a330:	0ff00513          	li	a0,255

000000000000a334 <.LBB64_888>:
    a334:	a4a43423          	sd	a0,-1464(s0)
    a338:	a5843503          	ld	a0,-1448(s0)
    a33c:	03850533          	mul	a0,a0,s8
    a340:	a5043583          	ld	a1,-1456(s0)
    a344:	017585b3          	add	a1,a1,s7
    a348:	00b50533          	add	a0,a0,a1
    a34c:	42555513          	srai	a0,a0,0x25
    a350:	00a025b3          	sgtz	a1,a0
    a354:	40b005b3          	neg	a1,a1
    a358:	00a5f533          	and	a0,a1,a0
    a35c:	01954463          	blt	a0,s9,a364 <.LBB64_890>
    a360:	0ff00513          	li	a0,255

000000000000a364 <.LBB64_890>:
    a364:	a4a43c23          	sd	a0,-1448(s0)
    a368:	a7043503          	ld	a0,-1424(s0)
    a36c:	03850533          	mul	a0,a0,s8
    a370:	a6843583          	ld	a1,-1432(s0)
    a374:	017585b3          	add	a1,a1,s7
    a378:	00b50533          	add	a0,a0,a1
    a37c:	42555513          	srai	a0,a0,0x25
    a380:	00a025b3          	sgtz	a1,a0
    a384:	40b005b3          	neg	a1,a1
    a388:	00a5f533          	and	a0,a1,a0
    a38c:	01954463          	blt	a0,s9,a394 <.LBB64_892>
    a390:	0ff00513          	li	a0,255

000000000000a394 <.LBB64_892>:
    a394:	a6a43823          	sd	a0,-1424(s0)
    a398:	a8043503          	ld	a0,-1408(s0)
    a39c:	03850533          	mul	a0,a0,s8
    a3a0:	a7843583          	ld	a1,-1416(s0)
    a3a4:	017585b3          	add	a1,a1,s7
    a3a8:	00b50533          	add	a0,a0,a1
    a3ac:	42555513          	srai	a0,a0,0x25
    a3b0:	00a025b3          	sgtz	a1,a0
    a3b4:	40b005b3          	neg	a1,a1
    a3b8:	00a5f533          	and	a0,a1,a0
    a3bc:	01954463          	blt	a0,s9,a3c4 <.LBB64_894>
    a3c0:	0ff00513          	li	a0,255

000000000000a3c4 <.LBB64_894>:
    a3c4:	a8a43023          	sd	a0,-1408(s0)
    a3c8:	a9043503          	ld	a0,-1392(s0)
    a3cc:	03850533          	mul	a0,a0,s8
    a3d0:	a8843583          	ld	a1,-1400(s0)
    a3d4:	017585b3          	add	a1,a1,s7
    a3d8:	00b50533          	add	a0,a0,a1
    a3dc:	42555513          	srai	a0,a0,0x25
    a3e0:	00a025b3          	sgtz	a1,a0
    a3e4:	40b005b3          	neg	a1,a1
    a3e8:	00a5f533          	and	a0,a1,a0
    a3ec:	01954463          	blt	a0,s9,a3f4 <.LBB64_896>
    a3f0:	0ff00513          	li	a0,255

000000000000a3f4 <.LBB64_896>:
    a3f4:	a8a43823          	sd	a0,-1392(s0)
    a3f8:	aa043503          	ld	a0,-1376(s0)
    a3fc:	03850533          	mul	a0,a0,s8
    a400:	a9843583          	ld	a1,-1384(s0)
    a404:	017585b3          	add	a1,a1,s7
    a408:	00b50533          	add	a0,a0,a1
    a40c:	42555513          	srai	a0,a0,0x25
    a410:	00a025b3          	sgtz	a1,a0
    a414:	40b005b3          	neg	a1,a1
    a418:	00a5f533          	and	a0,a1,a0
    a41c:	01954463          	blt	a0,s9,a424 <.LBB64_898>
    a420:	0ff00513          	li	a0,255

000000000000a424 <.LBB64_898>:
    a424:	aaa43023          	sd	a0,-1376(s0)
    a428:	ab843503          	ld	a0,-1352(s0)
    a42c:	03850533          	mul	a0,a0,s8
    a430:	ab043583          	ld	a1,-1360(s0)
    a434:	017585b3          	add	a1,a1,s7
    a438:	00b50533          	add	a0,a0,a1
    a43c:	42555513          	srai	a0,a0,0x25
    a440:	00a025b3          	sgtz	a1,a0
    a444:	40b005b3          	neg	a1,a1
    a448:	00a5f533          	and	a0,a1,a0
    a44c:	01954463          	blt	a0,s9,a454 <.LBB64_900>
    a450:	0ff00513          	li	a0,255

000000000000a454 <.LBB64_900>:
    a454:	aaa43c23          	sd	a0,-1352(s0)
    a458:	ac843503          	ld	a0,-1336(s0)
    a45c:	03850533          	mul	a0,a0,s8
    a460:	ac043583          	ld	a1,-1344(s0)
    a464:	017585b3          	add	a1,a1,s7
    a468:	00b50533          	add	a0,a0,a1
    a46c:	42555513          	srai	a0,a0,0x25
    a470:	00a025b3          	sgtz	a1,a0
    a474:	40b005b3          	neg	a1,a1
    a478:	00a5f533          	and	a0,a1,a0
    a47c:	01954463          	blt	a0,s9,a484 <.LBB64_902>
    a480:	0ff00513          	li	a0,255

000000000000a484 <.LBB64_902>:
    a484:	aca43423          	sd	a0,-1336(s0)
    a488:	ad843503          	ld	a0,-1320(s0)
    a48c:	03850533          	mul	a0,a0,s8
    a490:	ad043583          	ld	a1,-1328(s0)
    a494:	017585b3          	add	a1,a1,s7
    a498:	00b50533          	add	a0,a0,a1
    a49c:	42555513          	srai	a0,a0,0x25
    a4a0:	00a025b3          	sgtz	a1,a0
    a4a4:	40b005b3          	neg	a1,a1
    a4a8:	00a5f533          	and	a0,a1,a0
    a4ac:	01954463          	blt	a0,s9,a4b4 <.LBB64_904>
    a4b0:	0ff00513          	li	a0,255

000000000000a4b4 <.LBB64_904>:
    a4b4:	aca43c23          	sd	a0,-1320(s0)
    a4b8:	af043503          	ld	a0,-1296(s0)
    a4bc:	03850533          	mul	a0,a0,s8
    a4c0:	ae043583          	ld	a1,-1312(s0)
    a4c4:	017585b3          	add	a1,a1,s7
    a4c8:	00b50533          	add	a0,a0,a1
    a4cc:	42555513          	srai	a0,a0,0x25
    a4d0:	00a025b3          	sgtz	a1,a0
    a4d4:	40b005b3          	neg	a1,a1
    a4d8:	00a5f533          	and	a0,a1,a0
    a4dc:	01954463          	blt	a0,s9,a4e4 <.LBB64_906>
    a4e0:	0ff00513          	li	a0,255

000000000000a4e4 <.LBB64_906>:
    a4e4:	aea43823          	sd	a0,-1296(s0)
    a4e8:	b1043503          	ld	a0,-1264(s0)
    a4ec:	03850533          	mul	a0,a0,s8
    a4f0:	b0043583          	ld	a1,-1280(s0)
    a4f4:	017585b3          	add	a1,a1,s7
    a4f8:	00b50533          	add	a0,a0,a1
    a4fc:	42555513          	srai	a0,a0,0x25
    a500:	00a025b3          	sgtz	a1,a0
    a504:	40b005b3          	neg	a1,a1
    a508:	00a5f533          	and	a0,a1,a0
    a50c:	01954463          	blt	a0,s9,a514 <.LBB64_908>
    a510:	0ff00513          	li	a0,255

000000000000a514 <.LBB64_908>:
    a514:	b0a43823          	sd	a0,-1264(s0)
    a518:	b2043503          	ld	a0,-1248(s0)
    a51c:	03850533          	mul	a0,a0,s8
    a520:	b1843583          	ld	a1,-1256(s0)
    a524:	017585b3          	add	a1,a1,s7
    a528:	00b50533          	add	a0,a0,a1
    a52c:	42555513          	srai	a0,a0,0x25
    a530:	00a025b3          	sgtz	a1,a0
    a534:	40b005b3          	neg	a1,a1
    a538:	00a5f533          	and	a0,a1,a0
    a53c:	01954463          	blt	a0,s9,a544 <.LBB64_910>
    a540:	0ff00513          	li	a0,255

000000000000a544 <.LBB64_910>:
    a544:	b2a43023          	sd	a0,-1248(s0)
    a548:	b3043503          	ld	a0,-1232(s0)
    a54c:	03850533          	mul	a0,a0,s8
    a550:	b2843583          	ld	a1,-1240(s0)
    a554:	017585b3          	add	a1,a1,s7
    a558:	00b50533          	add	a0,a0,a1
    a55c:	42555513          	srai	a0,a0,0x25
    a560:	00a025b3          	sgtz	a1,a0
    a564:	40b005b3          	neg	a1,a1
    a568:	00a5f533          	and	a0,a1,a0
    a56c:	01954463          	blt	a0,s9,a574 <.LBB64_912>
    a570:	0ff00513          	li	a0,255

000000000000a574 <.LBB64_912>:
    a574:	b2a43823          	sd	a0,-1232(s0)
    a578:	b5043503          	ld	a0,-1200(s0)
    a57c:	03850533          	mul	a0,a0,s8
    a580:	b4843583          	ld	a1,-1208(s0)
    a584:	017585b3          	add	a1,a1,s7
    a588:	00b50533          	add	a0,a0,a1
    a58c:	42555513          	srai	a0,a0,0x25
    a590:	00a025b3          	sgtz	a1,a0
    a594:	40b005b3          	neg	a1,a1
    a598:	00a5f533          	and	a0,a1,a0
    a59c:	01954463          	blt	a0,s9,a5a4 <.LBB64_914>
    a5a0:	0ff00513          	li	a0,255

000000000000a5a4 <.LBB64_914>:
    a5a4:	b4a43823          	sd	a0,-1200(s0)
    a5a8:	b6043503          	ld	a0,-1184(s0)
    a5ac:	03850533          	mul	a0,a0,s8
    a5b0:	b5843583          	ld	a1,-1192(s0)
    a5b4:	017585b3          	add	a1,a1,s7
    a5b8:	00b50533          	add	a0,a0,a1
    a5bc:	42555513          	srai	a0,a0,0x25
    a5c0:	00a025b3          	sgtz	a1,a0
    a5c4:	40b005b3          	neg	a1,a1
    a5c8:	00a5f533          	and	a0,a1,a0
    a5cc:	01954463          	blt	a0,s9,a5d4 <.LBB64_916>
    a5d0:	0ff00513          	li	a0,255

000000000000a5d4 <.LBB64_916>:
    a5d4:	b6a43023          	sd	a0,-1184(s0)
    a5d8:	b7043503          	ld	a0,-1168(s0)
    a5dc:	03850533          	mul	a0,a0,s8
    a5e0:	b6843583          	ld	a1,-1176(s0)
    a5e4:	017585b3          	add	a1,a1,s7
    a5e8:	00b50533          	add	a0,a0,a1
    a5ec:	42555513          	srai	a0,a0,0x25
    a5f0:	00a025b3          	sgtz	a1,a0
    a5f4:	40b005b3          	neg	a1,a1
    a5f8:	00a5f533          	and	a0,a1,a0
    a5fc:	01954463          	blt	a0,s9,a604 <.LBB64_918>
    a600:	0ff00513          	li	a0,255

000000000000a604 <.LBB64_918>:
    a604:	b6a43823          	sd	a0,-1168(s0)
    a608:	b8043503          	ld	a0,-1152(s0)
    a60c:	03850533          	mul	a0,a0,s8
    a610:	b7843583          	ld	a1,-1160(s0)
    a614:	017585b3          	add	a1,a1,s7
    a618:	00b50533          	add	a0,a0,a1
    a61c:	42555513          	srai	a0,a0,0x25
    a620:	00a025b3          	sgtz	a1,a0
    a624:	40b005b3          	neg	a1,a1
    a628:	00a5f533          	and	a0,a1,a0
    a62c:	01954463          	blt	a0,s9,a634 <.LBB64_920>
    a630:	0ff00513          	li	a0,255

000000000000a634 <.LBB64_920>:
    a634:	b8a43023          	sd	a0,-1152(s0)
    a638:	b9843503          	ld	a0,-1128(s0)
    a63c:	03850533          	mul	a0,a0,s8
    a640:	b9043583          	ld	a1,-1136(s0)
    a644:	017585b3          	add	a1,a1,s7
    a648:	00b50533          	add	a0,a0,a1
    a64c:	42555513          	srai	a0,a0,0x25
    a650:	00a025b3          	sgtz	a1,a0
    a654:	40b005b3          	neg	a1,a1
    a658:	00a5f533          	and	a0,a1,a0
    a65c:	01954463          	blt	a0,s9,a664 <.LBB64_922>
    a660:	0ff00513          	li	a0,255

000000000000a664 <.LBB64_922>:
    a664:	b8a43c23          	sd	a0,-1128(s0)
    a668:	ba843503          	ld	a0,-1112(s0)
    a66c:	03850533          	mul	a0,a0,s8
    a670:	ba043583          	ld	a1,-1120(s0)
    a674:	017585b3          	add	a1,a1,s7
    a678:	00b50533          	add	a0,a0,a1
    a67c:	42555513          	srai	a0,a0,0x25
    a680:	00a025b3          	sgtz	a1,a0
    a684:	40b005b3          	neg	a1,a1
    a688:	00a5f533          	and	a0,a1,a0
    a68c:	01954463          	blt	a0,s9,a694 <.LBB64_924>
    a690:	0ff00513          	li	a0,255

000000000000a694 <.LBB64_924>:
    a694:	baa43423          	sd	a0,-1112(s0)
    a698:	bb843503          	ld	a0,-1096(s0)
    a69c:	03850533          	mul	a0,a0,s8
    a6a0:	bb043583          	ld	a1,-1104(s0)
    a6a4:	017585b3          	add	a1,a1,s7
    a6a8:	00b50533          	add	a0,a0,a1
    a6ac:	42555513          	srai	a0,a0,0x25
    a6b0:	00a025b3          	sgtz	a1,a0
    a6b4:	40b005b3          	neg	a1,a1
    a6b8:	00a5f533          	and	a0,a1,a0
    a6bc:	01954463          	blt	a0,s9,a6c4 <.LBB64_926>
    a6c0:	0ff00513          	li	a0,255

000000000000a6c4 <.LBB64_926>:
    a6c4:	baa43c23          	sd	a0,-1096(s0)
    a6c8:	bc843503          	ld	a0,-1080(s0)
    a6cc:	03850533          	mul	a0,a0,s8
    a6d0:	bc043583          	ld	a1,-1088(s0)
    a6d4:	017585b3          	add	a1,a1,s7
    a6d8:	00b50533          	add	a0,a0,a1
    a6dc:	42555513          	srai	a0,a0,0x25
    a6e0:	00a025b3          	sgtz	a1,a0
    a6e4:	40b005b3          	neg	a1,a1
    a6e8:	00a5f533          	and	a0,a1,a0
    a6ec:	01954463          	blt	a0,s9,a6f4 <.LBB64_928>
    a6f0:	0ff00513          	li	a0,255

000000000000a6f4 <.LBB64_928>:
    a6f4:	bca43423          	sd	a0,-1080(s0)
    a6f8:	be043503          	ld	a0,-1056(s0)
    a6fc:	03850533          	mul	a0,a0,s8
    a700:	bd843583          	ld	a1,-1064(s0)
    a704:	017585b3          	add	a1,a1,s7
    a708:	00b50533          	add	a0,a0,a1
    a70c:	42555513          	srai	a0,a0,0x25
    a710:	00a025b3          	sgtz	a1,a0
    a714:	40b005b3          	neg	a1,a1
    a718:	00a5f533          	and	a0,a1,a0
    a71c:	01954463          	blt	a0,s9,a724 <.LBB64_930>
    a720:	0ff00513          	li	a0,255

000000000000a724 <.LBB64_930>:
    a724:	bea43023          	sd	a0,-1056(s0)
    a728:	bf043503          	ld	a0,-1040(s0)
    a72c:	03850533          	mul	a0,a0,s8
    a730:	be843583          	ld	a1,-1048(s0)
    a734:	017585b3          	add	a1,a1,s7
    a738:	00b50533          	add	a0,a0,a1
    a73c:	42555513          	srai	a0,a0,0x25
    a740:	00a025b3          	sgtz	a1,a0
    a744:	40b005b3          	neg	a1,a1
    a748:	00a5f533          	and	a0,a1,a0
    a74c:	01954463          	blt	a0,s9,a754 <.LBB64_932>
    a750:	0ff00513          	li	a0,255

000000000000a754 <.LBB64_932>:
    a754:	bea43823          	sd	a0,-1040(s0)
    a758:	c0043503          	ld	a0,-1024(s0)
    a75c:	03850533          	mul	a0,a0,s8
    a760:	bf843583          	ld	a1,-1032(s0)
    a764:	017585b3          	add	a1,a1,s7
    a768:	00b50533          	add	a0,a0,a1
    a76c:	42555513          	srai	a0,a0,0x25
    a770:	00a025b3          	sgtz	a1,a0
    a774:	40b005b3          	neg	a1,a1
    a778:	00a5f533          	and	a0,a1,a0
    a77c:	01954463          	blt	a0,s9,a784 <.LBB64_934>
    a780:	0ff00513          	li	a0,255

000000000000a784 <.LBB64_934>:
    a784:	c0a43023          	sd	a0,-1024(s0)
    a788:	c1043503          	ld	a0,-1008(s0)
    a78c:	03850533          	mul	a0,a0,s8
    a790:	c0843583          	ld	a1,-1016(s0)
    a794:	017585b3          	add	a1,a1,s7
    a798:	00b50533          	add	a0,a0,a1
    a79c:	42555513          	srai	a0,a0,0x25
    a7a0:	00a025b3          	sgtz	a1,a0
    a7a4:	40b005b3          	neg	a1,a1
    a7a8:	00a5f533          	and	a0,a1,a0
    a7ac:	01954463          	blt	a0,s9,a7b4 <.LBB64_936>
    a7b0:	0ff00513          	li	a0,255

000000000000a7b4 <.LBB64_936>:
    a7b4:	c0a43823          	sd	a0,-1008(s0)
    a7b8:	c2043503          	ld	a0,-992(s0)
    a7bc:	03850533          	mul	a0,a0,s8
    a7c0:	c1843583          	ld	a1,-1000(s0)
    a7c4:	017585b3          	add	a1,a1,s7
    a7c8:	00b50533          	add	a0,a0,a1
    a7cc:	42555513          	srai	a0,a0,0x25
    a7d0:	00a025b3          	sgtz	a1,a0
    a7d4:	40b005b3          	neg	a1,a1
    a7d8:	00a5f533          	and	a0,a1,a0
    a7dc:	01954463          	blt	a0,s9,a7e4 <.LBB64_938>
    a7e0:	0ff00513          	li	a0,255

000000000000a7e4 <.LBB64_938>:
    a7e4:	c2a43023          	sd	a0,-992(s0)
    a7e8:	c3043503          	ld	a0,-976(s0)
    a7ec:	03850533          	mul	a0,a0,s8
    a7f0:	c2843583          	ld	a1,-984(s0)
    a7f4:	017585b3          	add	a1,a1,s7
    a7f8:	00b50533          	add	a0,a0,a1
    a7fc:	42555513          	srai	a0,a0,0x25
    a800:	00a025b3          	sgtz	a1,a0
    a804:	40b005b3          	neg	a1,a1
    a808:	00a5f533          	and	a0,a1,a0
    a80c:	01954463          	blt	a0,s9,a814 <.LBB64_940>
    a810:	0ff00513          	li	a0,255

000000000000a814 <.LBB64_940>:
    a814:	c2a43823          	sd	a0,-976(s0)
    a818:	c4043503          	ld	a0,-960(s0)
    a81c:	03850533          	mul	a0,a0,s8
    a820:	c3843583          	ld	a1,-968(s0)
    a824:	017585b3          	add	a1,a1,s7
    a828:	00b50533          	add	a0,a0,a1
    a82c:	42555513          	srai	a0,a0,0x25
    a830:	00a025b3          	sgtz	a1,a0
    a834:	40b005b3          	neg	a1,a1
    a838:	00a5f533          	and	a0,a1,a0
    a83c:	01954463          	blt	a0,s9,a844 <.LBB64_942>
    a840:	0ff00513          	li	a0,255

000000000000a844 <.LBB64_942>:
    a844:	c4a43023          	sd	a0,-960(s0)
    a848:	c5043503          	ld	a0,-944(s0)
    a84c:	03850533          	mul	a0,a0,s8
    a850:	c4843583          	ld	a1,-952(s0)
    a854:	017585b3          	add	a1,a1,s7
    a858:	00b50533          	add	a0,a0,a1
    a85c:	42555513          	srai	a0,a0,0x25
    a860:	00a025b3          	sgtz	a1,a0
    a864:	40b005b3          	neg	a1,a1
    a868:	00a5f533          	and	a0,a1,a0
    a86c:	01954463          	blt	a0,s9,a874 <.LBB64_944>
    a870:	0ff00513          	li	a0,255

000000000000a874 <.LBB64_944>:
    a874:	c4a43823          	sd	a0,-944(s0)
    a878:	c6043503          	ld	a0,-928(s0)
    a87c:	03850533          	mul	a0,a0,s8
    a880:	c5843583          	ld	a1,-936(s0)
    a884:	017585b3          	add	a1,a1,s7
    a888:	00b50533          	add	a0,a0,a1
    a88c:	42555513          	srai	a0,a0,0x25
    a890:	00a025b3          	sgtz	a1,a0
    a894:	40b005b3          	neg	a1,a1
    a898:	00a5f533          	and	a0,a1,a0
    a89c:	01954463          	blt	a0,s9,a8a4 <.LBB64_946>
    a8a0:	0ff00513          	li	a0,255

000000000000a8a4 <.LBB64_946>:
    a8a4:	c6a43023          	sd	a0,-928(s0)
    a8a8:	c7043503          	ld	a0,-912(s0)
    a8ac:	03850533          	mul	a0,a0,s8
    a8b0:	c6843583          	ld	a1,-920(s0)
    a8b4:	017585b3          	add	a1,a1,s7
    a8b8:	00b50533          	add	a0,a0,a1
    a8bc:	42555513          	srai	a0,a0,0x25
    a8c0:	00a025b3          	sgtz	a1,a0
    a8c4:	40b005b3          	neg	a1,a1
    a8c8:	00a5f533          	and	a0,a1,a0
    a8cc:	01954463          	blt	a0,s9,a8d4 <.LBB64_948>
    a8d0:	0ff00513          	li	a0,255

000000000000a8d4 <.LBB64_948>:
    a8d4:	c6a43823          	sd	a0,-912(s0)
    a8d8:	c8043503          	ld	a0,-896(s0)
    a8dc:	03850533          	mul	a0,a0,s8
    a8e0:	c7843583          	ld	a1,-904(s0)
    a8e4:	017585b3          	add	a1,a1,s7
    a8e8:	00b50533          	add	a0,a0,a1
    a8ec:	42555513          	srai	a0,a0,0x25
    a8f0:	00a025b3          	sgtz	a1,a0
    a8f4:	40b005b3          	neg	a1,a1
    a8f8:	00a5f533          	and	a0,a1,a0
    a8fc:	01954463          	blt	a0,s9,a904 <.LBB64_950>
    a900:	0ff00513          	li	a0,255

000000000000a904 <.LBB64_950>:
    a904:	c8a43023          	sd	a0,-896(s0)
    a908:	c9043503          	ld	a0,-880(s0)
    a90c:	03850533          	mul	a0,a0,s8
    a910:	c8843583          	ld	a1,-888(s0)
    a914:	017585b3          	add	a1,a1,s7
    a918:	00b50533          	add	a0,a0,a1
    a91c:	42555513          	srai	a0,a0,0x25
    a920:	00a025b3          	sgtz	a1,a0
    a924:	40b005b3          	neg	a1,a1
    a928:	00a5f533          	and	a0,a1,a0
    a92c:	01954463          	blt	a0,s9,a934 <.LBB64_952>
    a930:	0ff00513          	li	a0,255

000000000000a934 <.LBB64_952>:
    a934:	c8a43823          	sd	a0,-880(s0)
    a938:	ca043503          	ld	a0,-864(s0)
    a93c:	03850533          	mul	a0,a0,s8
    a940:	c9843583          	ld	a1,-872(s0)
    a944:	017585b3          	add	a1,a1,s7
    a948:	00b50533          	add	a0,a0,a1
    a94c:	42555513          	srai	a0,a0,0x25
    a950:	00a025b3          	sgtz	a1,a0
    a954:	40b005b3          	neg	a1,a1
    a958:	00a5f533          	and	a0,a1,a0
    a95c:	01954463          	blt	a0,s9,a964 <.LBB64_954>
    a960:	0ff00513          	li	a0,255

000000000000a964 <.LBB64_954>:
    a964:	caa43023          	sd	a0,-864(s0)
    a968:	cb043503          	ld	a0,-848(s0)
    a96c:	03850533          	mul	a0,a0,s8
    a970:	ca843583          	ld	a1,-856(s0)
    a974:	017585b3          	add	a1,a1,s7
    a978:	00b50533          	add	a0,a0,a1
    a97c:	42555513          	srai	a0,a0,0x25
    a980:	00a025b3          	sgtz	a1,a0
    a984:	40b005b3          	neg	a1,a1
    a988:	00a5f533          	and	a0,a1,a0
    a98c:	01954463          	blt	a0,s9,a994 <.LBB64_956>
    a990:	0ff00513          	li	a0,255

000000000000a994 <.LBB64_956>:
    a994:	caa43823          	sd	a0,-848(s0)
    a998:	cc043503          	ld	a0,-832(s0)
    a99c:	03850533          	mul	a0,a0,s8
    a9a0:	cb843583          	ld	a1,-840(s0)
    a9a4:	017585b3          	add	a1,a1,s7
    a9a8:	00b50533          	add	a0,a0,a1
    a9ac:	42555513          	srai	a0,a0,0x25
    a9b0:	00a025b3          	sgtz	a1,a0
    a9b4:	40b005b3          	neg	a1,a1
    a9b8:	00a5f533          	and	a0,a1,a0
    a9bc:	01954463          	blt	a0,s9,a9c4 <.LBB64_958>
    a9c0:	0ff00513          	li	a0,255

000000000000a9c4 <.LBB64_958>:
    a9c4:	cca43023          	sd	a0,-832(s0)
    a9c8:	cd043503          	ld	a0,-816(s0)
    a9cc:	03850533          	mul	a0,a0,s8
    a9d0:	cc843583          	ld	a1,-824(s0)
    a9d4:	017585b3          	add	a1,a1,s7
    a9d8:	00b50533          	add	a0,a0,a1
    a9dc:	42555513          	srai	a0,a0,0x25
    a9e0:	00a025b3          	sgtz	a1,a0
    a9e4:	40b005b3          	neg	a1,a1
    a9e8:	00a5f533          	and	a0,a1,a0
    a9ec:	01954463          	blt	a0,s9,a9f4 <.LBB64_960>
    a9f0:	0ff00513          	li	a0,255

000000000000a9f4 <.LBB64_960>:
    a9f4:	cca43823          	sd	a0,-816(s0)
    a9f8:	ce043503          	ld	a0,-800(s0)
    a9fc:	03850533          	mul	a0,a0,s8
    aa00:	cd843583          	ld	a1,-808(s0)
    aa04:	017585b3          	add	a1,a1,s7
    aa08:	00b50533          	add	a0,a0,a1
    aa0c:	42555513          	srai	a0,a0,0x25
    aa10:	00a025b3          	sgtz	a1,a0
    aa14:	40b005b3          	neg	a1,a1
    aa18:	00a5f533          	and	a0,a1,a0
    aa1c:	01954463          	blt	a0,s9,aa24 <.LBB64_962>
    aa20:	0ff00513          	li	a0,255

000000000000aa24 <.LBB64_962>:
    aa24:	cea43023          	sd	a0,-800(s0)
    aa28:	cf043503          	ld	a0,-784(s0)
    aa2c:	03850533          	mul	a0,a0,s8
    aa30:	ce843583          	ld	a1,-792(s0)
    aa34:	017585b3          	add	a1,a1,s7
    aa38:	00b50533          	add	a0,a0,a1
    aa3c:	42555513          	srai	a0,a0,0x25
    aa40:	00a025b3          	sgtz	a1,a0
    aa44:	40b005b3          	neg	a1,a1
    aa48:	00a5f533          	and	a0,a1,a0
    aa4c:	01954463          	blt	a0,s9,aa54 <.LBB64_964>
    aa50:	0ff00513          	li	a0,255

000000000000aa54 <.LBB64_964>:
    aa54:	cea43823          	sd	a0,-784(s0)
    aa58:	d0043503          	ld	a0,-768(s0)
    aa5c:	03850533          	mul	a0,a0,s8
    aa60:	cf843583          	ld	a1,-776(s0)
    aa64:	017585b3          	add	a1,a1,s7
    aa68:	00b50533          	add	a0,a0,a1
    aa6c:	42555513          	srai	a0,a0,0x25
    aa70:	00a025b3          	sgtz	a1,a0
    aa74:	40b005b3          	neg	a1,a1
    aa78:	00a5f533          	and	a0,a1,a0
    aa7c:	01954463          	blt	a0,s9,aa84 <.LBB64_966>
    aa80:	0ff00513          	li	a0,255

000000000000aa84 <.LBB64_966>:
    aa84:	d0a43023          	sd	a0,-768(s0)
    aa88:	d1043503          	ld	a0,-752(s0)
    aa8c:	03850533          	mul	a0,a0,s8
    aa90:	d0843583          	ld	a1,-760(s0)
    aa94:	017585b3          	add	a1,a1,s7
    aa98:	00b50533          	add	a0,a0,a1
    aa9c:	42555513          	srai	a0,a0,0x25
    aaa0:	00a025b3          	sgtz	a1,a0
    aaa4:	40b005b3          	neg	a1,a1
    aaa8:	00a5f533          	and	a0,a1,a0
    aaac:	01954463          	blt	a0,s9,aab4 <.LBB64_968>
    aab0:	0ff00513          	li	a0,255

000000000000aab4 <.LBB64_968>:
    aab4:	d0a43823          	sd	a0,-752(s0)
    aab8:	d2043503          	ld	a0,-736(s0)
    aabc:	03850533          	mul	a0,a0,s8
    aac0:	d1843583          	ld	a1,-744(s0)
    aac4:	017585b3          	add	a1,a1,s7
    aac8:	00b50533          	add	a0,a0,a1
    aacc:	42555513          	srai	a0,a0,0x25
    aad0:	00a025b3          	sgtz	a1,a0
    aad4:	40b005b3          	neg	a1,a1
    aad8:	00a5f533          	and	a0,a1,a0
    aadc:	01954463          	blt	a0,s9,aae4 <.LBB64_970>
    aae0:	0ff00513          	li	a0,255

000000000000aae4 <.LBB64_970>:
    aae4:	d2a43023          	sd	a0,-736(s0)
    aae8:	d3043503          	ld	a0,-720(s0)
    aaec:	03850533          	mul	a0,a0,s8
    aaf0:	d2843583          	ld	a1,-728(s0)
    aaf4:	017585b3          	add	a1,a1,s7
    aaf8:	00b50533          	add	a0,a0,a1
    aafc:	42555513          	srai	a0,a0,0x25
    ab00:	00a025b3          	sgtz	a1,a0
    ab04:	40b005b3          	neg	a1,a1
    ab08:	00a5f533          	and	a0,a1,a0
    ab0c:	01954463          	blt	a0,s9,ab14 <.LBB64_972>
    ab10:	0ff00513          	li	a0,255

000000000000ab14 <.LBB64_972>:
    ab14:	d2a43823          	sd	a0,-720(s0)
    ab18:	d4043503          	ld	a0,-704(s0)
    ab1c:	03850533          	mul	a0,a0,s8
    ab20:	d3843583          	ld	a1,-712(s0)
    ab24:	017585b3          	add	a1,a1,s7
    ab28:	00b50533          	add	a0,a0,a1
    ab2c:	42555513          	srai	a0,a0,0x25
    ab30:	00a025b3          	sgtz	a1,a0
    ab34:	40b005b3          	neg	a1,a1
    ab38:	00a5f533          	and	a0,a1,a0
    ab3c:	01954463          	blt	a0,s9,ab44 <.LBB64_974>
    ab40:	0ff00513          	li	a0,255

000000000000ab44 <.LBB64_974>:
    ab44:	d4a43023          	sd	a0,-704(s0)
    ab48:	d4843503          	ld	a0,-696(s0)
    ab4c:	03850533          	mul	a0,a0,s8
    ab50:	e8043583          	ld	a1,-384(s0)
    ab54:	017585b3          	add	a1,a1,s7
    ab58:	00b50533          	add	a0,a0,a1
    ab5c:	42555513          	srai	a0,a0,0x25
    ab60:	00a025b3          	sgtz	a1,a0
    ab64:	40b005b3          	neg	a1,a1
    ab68:	00a5f533          	and	a0,a1,a0
    ab6c:	01954463          	blt	a0,s9,ab74 <.LBB64_976>
    ab70:	0ff00513          	li	a0,255

000000000000ab74 <.LBB64_976>:
    ab74:	e8a43023          	sd	a0,-384(s0)
    ab78:	d5043503          	ld	a0,-688(s0)
    ab7c:	03850533          	mul	a0,a0,s8
    ab80:	017685b3          	add	a1,a3,s7
    ab84:	00b50533          	add	a0,a0,a1
    ab88:	42555513          	srai	a0,a0,0x25
    ab8c:	00a025b3          	sgtz	a1,a0
    ab90:	40b005b3          	neg	a1,a1
    ab94:	00a5f533          	and	a0,a1,a0
    ab98:	01954463          	blt	a0,s9,aba0 <.LBB64_978>
    ab9c:	0ff00513          	li	a0,255

000000000000aba0 <.LBB64_978>:
    aba0:	d4a43823          	sd	a0,-688(s0)
    aba4:	d6043503          	ld	a0,-672(s0)
    aba8:	03850533          	mul	a0,a0,s8
    abac:	d5843583          	ld	a1,-680(s0)
    abb0:	017585b3          	add	a1,a1,s7
    abb4:	00b50533          	add	a0,a0,a1
    abb8:	42555513          	srai	a0,a0,0x25
    abbc:	00a025b3          	sgtz	a1,a0
    abc0:	40b005b3          	neg	a1,a1
    abc4:	00a5f533          	and	a0,a1,a0
    abc8:	01954463          	blt	a0,s9,abd0 <.LBB64_980>
    abcc:	0ff00513          	li	a0,255

000000000000abd0 <.LBB64_980>:
    abd0:	d6a43023          	sd	a0,-672(s0)
    abd4:	d7043503          	ld	a0,-656(s0)
    abd8:	03850533          	mul	a0,a0,s8
    abdc:	d6843583          	ld	a1,-664(s0)
    abe0:	017585b3          	add	a1,a1,s7
    abe4:	00b50533          	add	a0,a0,a1
    abe8:	42555513          	srai	a0,a0,0x25
    abec:	00a025b3          	sgtz	a1,a0
    abf0:	40b005b3          	neg	a1,a1
    abf4:	00a5f533          	and	a0,a1,a0
    abf8:	01954463          	blt	a0,s9,ac00 <.LBB64_982>
    abfc:	0ff00513          	li	a0,255

000000000000ac00 <.LBB64_982>:
    ac00:	d6a43823          	sd	a0,-656(s0)
    ac04:	d7843503          	ld	a0,-648(s0)
    ac08:	03850533          	mul	a0,a0,s8
    ac0c:	017785b3          	add	a1,a5,s7
    ac10:	00b50533          	add	a0,a0,a1
    ac14:	42555513          	srai	a0,a0,0x25
    ac18:	00a025b3          	sgtz	a1,a0
    ac1c:	40b005b3          	neg	a1,a1
    ac20:	00a5f533          	and	a0,a1,a0
    ac24:	01954463          	blt	a0,s9,ac2c <.LBB64_984>
    ac28:	0ff00513          	li	a0,255

000000000000ac2c <.LBB64_984>:
    ac2c:	d6a43c23          	sd	a0,-648(s0)
    ac30:	038d8533          	mul	a0,s11,s8
    ac34:	017085b3          	add	a1,ra,s7
    ac38:	00b50533          	add	a0,a0,a1
    ac3c:	42555513          	srai	a0,a0,0x25
    ac40:	00a025b3          	sgtz	a1,a0
    ac44:	40b005b3          	neg	a1,a1
    ac48:	00a5fdb3          	and	s11,a1,a0
    ac4c:	019dc463          	blt	s11,s9,ac54 <.LBB64_986>
    ac50:	0ff00d93          	li	s11,255

000000000000ac54 <.LBB64_986>:
    ac54:	00060093          	mv	ra,a2
    ac58:	d8843503          	ld	a0,-632(s0)
    ac5c:	03850533          	mul	a0,a0,s8
    ac60:	d8043583          	ld	a1,-640(s0)
    ac64:	017585b3          	add	a1,a1,s7
    ac68:	00b50533          	add	a0,a0,a1
    ac6c:	42555513          	srai	a0,a0,0x25
    ac70:	00a025b3          	sgtz	a1,a0
    ac74:	40b005b3          	neg	a1,a1
    ac78:	00a5f533          	and	a0,a1,a0
    ac7c:	01954463          	blt	a0,s9,ac84 <.LBB64_988>
    ac80:	0ff00513          	li	a0,255

000000000000ac84 <.LBB64_988>:
    ac84:	d9843583          	ld	a1,-616(s0)
    ac88:	038585b3          	mul	a1,a1,s8
    ac8c:	d9043603          	ld	a2,-624(s0)
    ac90:	01760633          	add	a2,a2,s7
    ac94:	00c585b3          	add	a1,a1,a2
    ac98:	4255d593          	srai	a1,a1,0x25
    ac9c:	00b02633          	sgtz	a2,a1
    aca0:	40c00633          	neg	a2,a2
    aca4:	00b675b3          	and	a1,a2,a1
    aca8:	0195c463          	blt	a1,s9,acb0 <.LBB64_990>
    acac:	0ff00593          	li	a1,255

000000000000acb0 <.LBB64_990>:
    acb0:	da043603          	ld	a2,-608(s0)
    acb4:	03860633          	mul	a2,a2,s8
    acb8:	017806b3          	add	a3,a6,s7
    acbc:	00d60633          	add	a2,a2,a3
    acc0:	42565613          	srai	a2,a2,0x25
    acc4:	00c026b3          	sgtz	a3,a2
    acc8:	40d006b3          	neg	a3,a3
    accc:	00c6f633          	and	a2,a3,a2
    acd0:	01964463          	blt	a2,s9,acd8 <.LBB64_992>
    acd4:	0ff00613          	li	a2,255

000000000000acd8 <.LBB64_992>:
    acd8:	da843683          	ld	a3,-600(s0)
    acdc:	038686b3          	mul	a3,a3,s8
    ace0:	01788733          	add	a4,a7,s7
    ace4:	00e686b3          	add	a3,a3,a4
    ace8:	4256d693          	srai	a3,a3,0x25
    acec:	00d02733          	sgtz	a4,a3
    acf0:	40e00733          	neg	a4,a4
    acf4:	00d776b3          	and	a3,a4,a3
    acf8:	0196c463          	blt	a3,s9,ad00 <.LBB64_994>
    acfc:	0ff00693          	li	a3,255

000000000000ad00 <.LBB64_994>:
    ad00:	db043703          	ld	a4,-592(s0)
    ad04:	03870733          	mul	a4,a4,s8
    ad08:	017f87b3          	add	a5,t6,s7
    ad0c:	00f70733          	add	a4,a4,a5
    ad10:	42575713          	srai	a4,a4,0x25
    ad14:	00e027b3          	sgtz	a5,a4
    ad18:	40f007b3          	neg	a5,a5
    ad1c:	00e7f733          	and	a4,a5,a4
    ad20:	01974463          	blt	a4,s9,ad28 <.LBB64_996>
    ad24:	0ff00713          	li	a4,255

000000000000ad28 <.LBB64_996>:
    ad28:	db843783          	ld	a5,-584(s0)
    ad2c:	038787b3          	mul	a5,a5,s8
    ad30:	01738833          	add	a6,t2,s7
    ad34:	010787b3          	add	a5,a5,a6
    ad38:	4257d793          	srai	a5,a5,0x25
    ad3c:	00f02833          	sgtz	a6,a5
    ad40:	41000833          	neg	a6,a6
    ad44:	00f877b3          	and	a5,a6,a5
    ad48:	0197c463          	blt	a5,s9,ad50 <.LBB64_998>
    ad4c:	0ff00793          	li	a5,255

000000000000ad50 <.LBB64_998>:
    ad50:	00028f93          	mv	t6,t0
    ad54:	dc043803          	ld	a6,-576(s0)
    ad58:	03880833          	mul	a6,a6,s8
    ad5c:	017308b3          	add	a7,t1,s7
    ad60:	01180833          	add	a6,a6,a7
    ad64:	42585813          	srai	a6,a6,0x25
    ad68:	010028b3          	sgtz	a7,a6
    ad6c:	411008b3          	neg	a7,a7
    ad70:	0108f833          	and	a6,a7,a6
    ad74:	01984463          	blt	a6,s9,ad7c <.LBB64_1000>
    ad78:	0ff00813          	li	a6,255

000000000000ad7c <.LBB64_1000>:
    ad7c:	dc843883          	ld	a7,-568(s0)
    ad80:	038888b3          	mul	a7,a7,s8
    ad84:	de043283          	ld	t0,-544(s0)
    ad88:	017282b3          	add	t0,t0,s7
    ad8c:	005888b3          	add	a7,a7,t0
    ad90:	4258d893          	srai	a7,a7,0x25
    ad94:	011022b3          	sgtz	t0,a7
    ad98:	405002b3          	neg	t0,t0
    ad9c:	0112f8b3          	and	a7,t0,a7
    ada0:	0198c463          	blt	a7,s9,ada8 <.LBB64_1002>
    ada4:	0ff00893          	li	a7,255

000000000000ada8 <.LBB64_1002>:
    ada8:	e3843283          	ld	t0,-456(s0)
    adac:	038282b3          	mul	t0,t0,s8
    adb0:	e3043303          	ld	t1,-464(s0)
    adb4:	01730333          	add	t1,t1,s7
    adb8:	006282b3          	add	t0,t0,t1
    adbc:	4252d293          	srai	t0,t0,0x25
    adc0:	00502333          	sgtz	t1,t0
    adc4:	40600333          	neg	t1,t1
    adc8:	005372b3          	and	t0,t1,t0
    adcc:	0192c463          	blt	t0,s9,add4 <.LBB64_1004>
    add0:	0ff00293          	li	t0,255

000000000000add4 <.LBB64_1004>:
    add4:	e4843303          	ld	t1,-440(s0)
    add8:	03830333          	mul	t1,t1,s8
    addc:	e4043383          	ld	t2,-448(s0)
    ade0:	017383b3          	add	t2,t2,s7
    ade4:	00730333          	add	t1,t1,t2
    ade8:	42535313          	srai	t1,t1,0x25
    adec:	006023b3          	sgtz	t2,t1
    adf0:	407003b3          	neg	t2,t2
    adf4:	0063f333          	and	t1,t2,t1
    adf8:	01934463          	blt	t1,s9,ae00 <.LBB64_1006>
    adfc:	0ff00313          	li	t1,255

000000000000ae00 <.LBB64_1006>:
    ae00:	038e03b3          	mul	t2,t3,s8
    ae04:	e5043e03          	ld	t3,-432(s0)
    ae08:	017e0e33          	add	t3,t3,s7
    ae0c:	01c383b3          	add	t2,t2,t3
    ae10:	4253d393          	srai	t2,t2,0x25
    ae14:	00702e33          	sgtz	t3,t2
    ae18:	41c00e33          	neg	t3,t3
    ae1c:	007e73b3          	and	t2,t3,t2
    ae20:	0193c463          	blt	t2,s9,ae28 <.LBB64_1008>
    ae24:	0ff00393          	li	t2,255

000000000000ae28 <.LBB64_1008>:
    ae28:	038e8e33          	mul	t3,t4,s8
    ae2c:	e6043e83          	ld	t4,-416(s0)
    ae30:	017e8eb3          	add	t4,t4,s7
    ae34:	01de0e33          	add	t3,t3,t4
    ae38:	425e5e13          	srai	t3,t3,0x25
    ae3c:	01c02eb3          	sgtz	t4,t3
    ae40:	41d00eb3          	neg	t4,t4
    ae44:	01cefe33          	and	t3,t4,t3
    ae48:	019e4463          	blt	t3,s9,ae50 <.LBB64_1010>
    ae4c:	0ff00e13          	li	t3,255

000000000000ae50 <.LBB64_1010>:
    ae50:	038f0eb3          	mul	t4,t5,s8
    ae54:	e6843f03          	ld	t5,-408(s0)
    ae58:	017f0f33          	add	t5,t5,s7
    ae5c:	01ee8eb3          	add	t4,t4,t5
    ae60:	425ede93          	srai	t4,t4,0x25
    ae64:	01d02f33          	sgtz	t5,t4
    ae68:	41e00f33          	neg	t5,t5
    ae6c:	01df7eb3          	and	t4,t5,t4
    ae70:	019ec463          	blt	t4,s9,ae78 <.LBB64_1012>
    ae74:	0ff00e93          	li	t4,255

000000000000ae78 <.LBB64_1012>:
    ae78:	e7043f03          	ld	t5,-400(s0)
    ae7c:	038f0f33          	mul	t5,t5,s8
    ae80:	017f8fb3          	add	t6,t6,s7
    ae84:	01ff0f33          	add	t5,t5,t6
    ae88:	425f5f13          	srai	t5,t5,0x25
    ae8c:	01e02fb3          	sgtz	t6,t5
    ae90:	41f00fb3          	neg	t6,t6
    ae94:	01efff33          	and	t5,t6,t5
    ae98:	019f4463          	blt	t5,s9,aea0 <.LBB64_1014>
    ae9c:	0ff00f13          	li	t5,255

000000000000aea0 <.LBB64_1014>:
    aea0:	03848fb3          	mul	t6,s1,s8
    aea4:	e8843483          	ld	s1,-376(s0)
    aea8:	017484b3          	add	s1,s1,s7
    aeac:	009f8fb3          	add	t6,t6,s1
    aeb0:	425fdf93          	srai	t6,t6,0x25
    aeb4:	01f024b3          	sgtz	s1,t6
    aeb8:	409004b3          	neg	s1,s1
    aebc:	01f4ffb3          	and	t6,s1,t6
    aec0:	019fc463          	blt	t6,s9,aec8 <.LBB64_1016>
    aec4:	0ff00f93          	li	t6,255

000000000000aec8 <.LBB64_1016>:
    aec8:	038904b3          	mul	s1,s2,s8
    aecc:	e9043903          	ld	s2,-368(s0)
    aed0:	01790933          	add	s2,s2,s7
    aed4:	012484b3          	add	s1,s1,s2
    aed8:	4254d493          	srai	s1,s1,0x25
    aedc:	00902933          	sgtz	s2,s1
    aee0:	41200933          	neg	s2,s2
    aee4:	009974b3          	and	s1,s2,s1
    aee8:	0194c463          	blt	s1,s9,aef0 <.LBB64_1018>
    aeec:	0ff00493          	li	s1,255

000000000000aef0 <.LBB64_1018>:
    aef0:	03898933          	mul	s2,s3,s8
    aef4:	e9843983          	ld	s3,-360(s0)
    aef8:	017989b3          	add	s3,s3,s7
    aefc:	01390933          	add	s2,s2,s3
    af00:	42595913          	srai	s2,s2,0x25
    af04:	012029b3          	sgtz	s3,s2
    af08:	413009b3          	neg	s3,s3
    af0c:	0129f933          	and	s2,s3,s2
    af10:	01994463          	blt	s2,s9,af18 <.LBB64_1020>
    af14:	0ff00913          	li	s2,255

000000000000af18 <.LBB64_1020>:
    af18:	038a09b3          	mul	s3,s4,s8
    af1c:	ea043a03          	ld	s4,-352(s0)
    af20:	017a0a33          	add	s4,s4,s7
    af24:	014989b3          	add	s3,s3,s4
    af28:	4259d993          	srai	s3,s3,0x25
    af2c:	01302a33          	sgtz	s4,s3
    af30:	41400a33          	neg	s4,s4
    af34:	013a79b3          	and	s3,s4,s3
    af38:	0199c463          	blt	s3,s9,af40 <.LBB64_1022>
    af3c:	0ff00993          	li	s3,255

000000000000af40 <.LBB64_1022>:
    af40:	038a8a33          	mul	s4,s5,s8
    af44:	eb043a83          	ld	s5,-336(s0)
    af48:	017a8ab3          	add	s5,s5,s7
    af4c:	015a0a33          	add	s4,s4,s5
    af50:	425a5a13          	srai	s4,s4,0x25
    af54:	01402ab3          	sgtz	s5,s4
    af58:	41500ab3          	neg	s5,s5
    af5c:	014afa33          	and	s4,s5,s4
    af60:	019a4463          	blt	s4,s9,af68 <.LBB64_1024>
    af64:	0ff00a13          	li	s4,255

000000000000af68 <.LBB64_1024>:
    af68:	038b0ab3          	mul	s5,s6,s8
    af6c:	eb843b03          	ld	s6,-328(s0)
    af70:	017b0b33          	add	s6,s6,s7
    af74:	016a8ab3          	add	s5,s5,s6
    af78:	425ada93          	srai	s5,s5,0x25
    af7c:	01502b33          	sgtz	s6,s5
    af80:	41600b33          	neg	s6,s6
    af84:	015b7ab3          	and	s5,s6,s5
    af88:	019ac463          	blt	s5,s9,af90 <.LBB64_1026>
    af8c:	0ff00a93          	li	s5,255

000000000000af90 <.LBB64_1026>:
    af90:	ec843b03          	ld	s6,-312(s0)
    af94:	038b0b33          	mul	s6,s6,s8
    af98:	01708bb3          	add	s7,ra,s7
    af9c:	017b0b33          	add	s6,s6,s7
    afa0:	425b5b13          	srai	s6,s6,0x25
    afa4:	01602bb3          	sgtz	s7,s6
    afa8:	41700bb3          	neg	s7,s7
    afac:	016bfb33          	and	s6,s7,s6
    afb0:	019b4463          	blt	s6,s9,afb8 <.LBB64_1028>
    afb4:	0ff00b13          	li	s6,255

000000000000afb8 <.LBB64_1028>:
    afb8:	ec043b83          	ld	s7,-320(s0)
    afbc:	038b8bb3          	mul	s7,s7,s8
    afc0:	00001c37          	lui	s8,0x1
    afc4:	41840c33          	sub	s8,s0,s8
    afc8:	658c3c03          	ld	s8,1624(s8) # 1658 <.LBB64_4+0x4ec>
    afcc:	ee843083          	ld	ra,-280(s0)
    afd0:	01808c33          	add	s8,ra,s8
    afd4:	018b8bb3          	add	s7,s7,s8
    afd8:	425bdb93          	srai	s7,s7,0x25
    afdc:	01702c33          	sgtz	s8,s7
    afe0:	41800c33          	neg	s8,s8
    afe4:	017c7bb3          	and	s7,s8,s7
    afe8:	019bd463          	bge	s7,s9,aff0 <.LBB64_1029>
    afec:	a2cf506f          	j	218 <.LBB64_3>

000000000000aff0 <.LBB64_1029>:
    aff0:	0ff00b93          	li	s7,255
    aff4:	a24f506f          	j	218 <.LBB64_3>

000000000000aff8 <.LBB64_1030>:
    aff8:	00000513          	li	a0,0
    affc:	000165b7          	lui	a1,0x16
    b000:	a005859b          	addiw	a1,a1,-1536 # 15a00 <.LBB45_2356>
    b004:	00001637          	lui	a2,0x1
    b008:	40c40633          	sub	a2,s0,a2
    b00c:	d1863603          	ld	a2,-744(a2) # d18 <.LBB64_3+0xb00>
    b010:	00b605b3          	add	a1,a2,a1
    b014:	00001637          	lui	a2,0x1
    b018:	40c40633          	sub	a2,s0,a2
    b01c:	5eb63023          	sd	a1,1504(a2) # 15e0 <.LBB64_4+0x474>
    b020:	5f7b05b7          	lui	a1,0x5f7b0
    b024:	9d65859b          	addiw	a1,a1,-1578 # 5f7af9d6 <.Lfunc_end80+0x5f78700a>
    b028:	00001637          	lui	a2,0x1
    b02c:	40c40633          	sub	a2,s0,a2
    b030:	5cb63c23          	sd	a1,1496(a2) # 15d8 <.LBB64_4+0x46c>
    b034:	00100593          	li	a1,1
    b038:	02459593          	slli	a1,a1,0x24
    b03c:	a6b43423          	sd	a1,-1432(s0)
    b040:	6000006f          	j	b640 <.LBB64_1032>

000000000000b044 <.LBB64_1031>:
    b044:	f4043503          	ld	a0,-192(s0)
    b048:	08054c93          	xori	s9,a0,128
    b04c:	00001537          	lui	a0,0x1
    b050:	40a40533          	sub	a0,s0,a0
    b054:	d0853e83          	ld	t4,-760(a0) # d08 <.LBB64_3+0xaf0>
    b058:	a7843603          	ld	a2,-1416(s0)
    b05c:	00ce8eb3          	add	t4,t4,a2
    b060:	00012537          	lui	a0,0x12
    b064:	00ae89b3          	add	s3,t4,a0
    b068:	019981a3          	sb	s9,3(s3) # ffffffffc0000003 <.Lfunc_end80+0xffffffffbffd7637>
    b06c:	f8043c83          	ld	s9,-128(s0)
    b070:	080ccc93          	xori	s9,s9,128
    b074:	01998123          	sb	s9,2(s3)
    b078:	f7843c83          	ld	s9,-136(s0)
    b07c:	080ccc93          	xori	s9,s9,128
    b080:	019980a3          	sb	s9,1(s3)
    b084:	f7043c83          	ld	s9,-144(s0)
    b088:	080ccc93          	xori	s9,s9,128
    b08c:	01998023          	sb	s9,0(s3)
    b090:	f6843c83          	ld	s9,-152(s0)
    b094:	080ccc93          	xori	s9,s9,128
    b098:	01998223          	sb	s9,4(s3)
    b09c:	f6043c83          	ld	s9,-160(s0)
    b0a0:	080ccc93          	xori	s9,s9,128
    b0a4:	019982a3          	sb	s9,5(s3)
    b0a8:	f5843c83          	ld	s9,-168(s0)
    b0ac:	080ccc93          	xori	s9,s9,128
    b0b0:	01998323          	sb	s9,6(s3)
    b0b4:	f5043c83          	ld	s9,-176(s0)
    b0b8:	080ccc93          	xori	s9,s9,128
    b0bc:	019983a3          	sb	s9,7(s3)
    b0c0:	f4843c83          	ld	s9,-184(s0)
    b0c4:	080ccc93          	xori	s9,s9,128
    b0c8:	01998423          	sb	s9,8(s3)
    b0cc:	f3843c83          	ld	s9,-200(s0)
    b0d0:	080ccc93          	xori	s9,s9,128
    b0d4:	019984a3          	sb	s9,9(s3)
    b0d8:	f3043c83          	ld	s9,-208(s0)
    b0dc:	080ccc93          	xori	s9,s9,128
    b0e0:	01998523          	sb	s9,10(s3)
    b0e4:	f2843c83          	ld	s9,-216(s0)
    b0e8:	080ccc93          	xori	s9,s9,128
    b0ec:	019985a3          	sb	s9,11(s3)
    b0f0:	f0043c83          	ld	s9,-256(s0)
    b0f4:	080ccc93          	xori	s9,s9,128
    b0f8:	01998623          	sb	s9,12(s3)
    b0fc:	ee043c83          	ld	s9,-288(s0)
    b100:	080ccc93          	xori	s9,s9,128
    b104:	019986a3          	sb	s9,13(s3)
    b108:	ec043c83          	ld	s9,-320(s0)
    b10c:	080ccc93          	xori	s9,s9,128
    b110:	01998723          	sb	s9,14(s3)
    b114:	eb043c83          	ld	s9,-336(s0)
    b118:	080ccc93          	xori	s9,s9,128
    b11c:	019987a3          	sb	s9,15(s3)
    b120:	ea843c83          	ld	s9,-344(s0)
    b124:	080ccc93          	xori	s9,s9,128
    b128:	01998823          	sb	s9,16(s3)
    b12c:	ea043c83          	ld	s9,-352(s0)
    b130:	080ccc93          	xori	s9,s9,128
    b134:	019988a3          	sb	s9,17(s3)
    b138:	e9843c83          	ld	s9,-360(s0)
    b13c:	080ccc93          	xori	s9,s9,128
    b140:	01998923          	sb	s9,18(s3)
    b144:	e9043c83          	ld	s9,-368(s0)
    b148:	080ccc93          	xori	s9,s9,128
    b14c:	019989a3          	sb	s9,19(s3)
    b150:	e8843c83          	ld	s9,-376(s0)
    b154:	080ccc93          	xori	s9,s9,128
    b158:	01998a23          	sb	s9,20(s3)
    b15c:	d1043c83          	ld	s9,-752(s0)
    b160:	080ccc93          	xori	s9,s9,128
    b164:	01998aa3          	sb	s9,21(s3)
    b168:	cd043c83          	ld	s9,-816(s0)
    b16c:	080ccc93          	xori	s9,s9,128
    b170:	01998b23          	sb	s9,22(s3)
    b174:	c8843c83          	ld	s9,-888(s0)
    b178:	080ccc93          	xori	s9,s9,128
    b17c:	01998ba3          	sb	s9,23(s3)
    b180:	c4843c83          	ld	s9,-952(s0)
    b184:	080ccc93          	xori	s9,s9,128
    b188:	01998c23          	sb	s9,24(s3)
    b18c:	c2043c83          	ld	s9,-992(s0)
    b190:	080ccc93          	xori	s9,s9,128
    b194:	01998ca3          	sb	s9,25(s3)
    b198:	bc843c83          	ld	s9,-1080(s0)
    b19c:	080ccc93          	xori	s9,s9,128
    b1a0:	01998d23          	sb	s9,26(s3)
    b1a4:	bc043c83          	ld	s9,-1088(s0)
    b1a8:	080ccc93          	xori	s9,s9,128
    b1ac:	01998da3          	sb	s9,27(s3)
    b1b0:	bb843c83          	ld	s9,-1096(s0)
    b1b4:	080ccc93          	xori	s9,s9,128
    b1b8:	01998e23          	sb	s9,28(s3)
    b1bc:	bb043c83          	ld	s9,-1104(s0)
    b1c0:	080ccc93          	xori	s9,s9,128
    b1c4:	01998ea3          	sb	s9,29(s3)
    b1c8:	ba843c83          	ld	s9,-1112(s0)
    b1cc:	080ccc93          	xori	s9,s9,128
    b1d0:	01998f23          	sb	s9,30(s3)
    b1d4:	b9843c83          	ld	s9,-1128(s0)
    b1d8:	080ccc93          	xori	s9,s9,128
    b1dc:	01998fa3          	sb	s9,31(s3)
    b1e0:	b8843983          	ld	s3,-1144(s0)
    b1e4:	0809cc93          	xori	s9,s3,128
    b1e8:	1805099b          	addiw	s3,a0,384 # 12180 <.LBB45_2048>
    b1ec:	013e89b3          	add	s3,t4,s3
    b1f0:	019981a3          	sb	s9,3(s3)
    b1f4:	b8043c83          	ld	s9,-1152(s0)
    b1f8:	080ccc93          	xori	s9,s9,128
    b1fc:	01998123          	sb	s9,2(s3)
    b200:	b7843c83          	ld	s9,-1160(s0)
    b204:	080ccc93          	xori	s9,s9,128
    b208:	019980a3          	sb	s9,1(s3)
    b20c:	b7043c83          	ld	s9,-1168(s0)
    b210:	080ccc93          	xori	s9,s9,128
    b214:	01998023          	sb	s9,0(s3)
    b218:	b6843c83          	ld	s9,-1176(s0)
    b21c:	080ccc93          	xori	s9,s9,128
    b220:	01998223          	sb	s9,4(s3)
    b224:	b6043c83          	ld	s9,-1184(s0)
    b228:	080ccc93          	xori	s9,s9,128
    b22c:	019982a3          	sb	s9,5(s3)
    b230:	b5843c83          	ld	s9,-1192(s0)
    b234:	080ccc93          	xori	s9,s9,128
    b238:	01998323          	sb	s9,6(s3)
    b23c:	b5043c83          	ld	s9,-1200(s0)
    b240:	080ccc93          	xori	s9,s9,128
    b244:	019983a3          	sb	s9,7(s3)
    b248:	b4843c83          	ld	s9,-1208(s0)
    b24c:	080ccc93          	xori	s9,s9,128
    b250:	01998423          	sb	s9,8(s3)
    b254:	b4043c83          	ld	s9,-1216(s0)
    b258:	080ccc93          	xori	s9,s9,128
    b25c:	019984a3          	sb	s9,9(s3)
    b260:	b3843c83          	ld	s9,-1224(s0)
    b264:	080ccc93          	xori	s9,s9,128
    b268:	01998523          	sb	s9,10(s3)
    b26c:	b3043c83          	ld	s9,-1232(s0)
    b270:	080ccc93          	xori	s9,s9,128
    b274:	019985a3          	sb	s9,11(s3)
    b278:	b2843c83          	ld	s9,-1240(s0)
    b27c:	080ccc93          	xori	s9,s9,128
    b280:	01998623          	sb	s9,12(s3)
    b284:	b1843c83          	ld	s9,-1256(s0)
    b288:	080ccc93          	xori	s9,s9,128
    b28c:	019986a3          	sb	s9,13(s3)
    b290:	b1043c83          	ld	s9,-1264(s0)
    b294:	080ccc93          	xori	s9,s9,128
    b298:	01998723          	sb	s9,14(s3)
    b29c:	b0843c83          	ld	s9,-1272(s0)
    b2a0:	080ccc93          	xori	s9,s9,128
    b2a4:	019987a3          	sb	s9,15(s3)
    b2a8:	b0043c83          	ld	s9,-1280(s0)
    b2ac:	080ccc93          	xori	s9,s9,128
    b2b0:	01998823          	sb	s9,16(s3)
    b2b4:	af843c83          	ld	s9,-1288(s0)
    b2b8:	080ccc93          	xori	s9,s9,128
    b2bc:	019988a3          	sb	s9,17(s3)
    b2c0:	af043c83          	ld	s9,-1296(s0)
    b2c4:	080ccc93          	xori	s9,s9,128
    b2c8:	01998923          	sb	s9,18(s3)
    b2cc:	ae843c83          	ld	s9,-1304(s0)
    b2d0:	080ccc93          	xori	s9,s9,128
    b2d4:	019989a3          	sb	s9,19(s3)
    b2d8:	ae043c83          	ld	s9,-1312(s0)
    b2dc:	080ccc93          	xori	s9,s9,128
    b2e0:	01998a23          	sb	s9,20(s3)
    b2e4:	ad843c83          	ld	s9,-1320(s0)
    b2e8:	080ccc93          	xori	s9,s9,128
    b2ec:	01998aa3          	sb	s9,21(s3)
    b2f0:	ad043c83          	ld	s9,-1328(s0)
    b2f4:	080ccc93          	xori	s9,s9,128
    b2f8:	01998b23          	sb	s9,22(s3)
    b2fc:	ac843c83          	ld	s9,-1336(s0)
    b300:	080ccc93          	xori	s9,s9,128
    b304:	01998ba3          	sb	s9,23(s3)
    b308:	ac043c83          	ld	s9,-1344(s0)
    b30c:	080ccc93          	xori	s9,s9,128
    b310:	01998c23          	sb	s9,24(s3)
    b314:	ab843c83          	ld	s9,-1352(s0)
    b318:	080ccc93          	xori	s9,s9,128
    b31c:	01998ca3          	sb	s9,25(s3)
    b320:	ab043c83          	ld	s9,-1360(s0)
    b324:	080ccc93          	xori	s9,s9,128
    b328:	01998d23          	sb	s9,26(s3)
    b32c:	aa843c83          	ld	s9,-1368(s0)
    b330:	080ccc93          	xori	s9,s9,128
    b334:	01998da3          	sb	s9,27(s3)
    b338:	aa043c83          	ld	s9,-1376(s0)
    b33c:	080ccc93          	xori	s9,s9,128
    b340:	01998e23          	sb	s9,28(s3)
    b344:	a9843c83          	ld	s9,-1384(s0)
    b348:	080ccc93          	xori	s9,s9,128
    b34c:	01998ea3          	sb	s9,29(s3)
    b350:	a9043c83          	ld	s9,-1392(s0)
    b354:	080ccc93          	xori	s9,s9,128
    b358:	01998f23          	sb	s9,30(s3)
    b35c:	a8843c83          	ld	s9,-1400(s0)
    b360:	080ccc93          	xori	s9,s9,128
    b364:	01998fa3          	sb	s9,31(s3)
    b368:	a8043983          	ld	s3,-1408(s0)
    b36c:	0809cc93          	xori	s9,s3,128
    b370:	3005099b          	addiw	s3,a0,768
    b374:	013e89b3          	add	s3,t4,s3
    b378:	019981a3          	sb	s9,3(s3)
    b37c:	a7043c83          	ld	s9,-1424(s0)
    b380:	080ccc93          	xori	s9,s9,128
    b384:	01998123          	sb	s9,2(s3)
    b388:	a0843c83          	ld	s9,-1528(s0)
    b38c:	080ccc93          	xori	s9,s9,128
    b390:	019980a3          	sb	s9,1(s3)
    b394:	a1843c83          	ld	s9,-1512(s0)
    b398:	080ccc93          	xori	s9,s9,128
    b39c:	01998023          	sb	s9,0(s3)
    b3a0:	d5843c83          	ld	s9,-680(s0)
    b3a4:	080ccc93          	xori	s9,s9,128
    b3a8:	01998223          	sb	s9,4(s3)
    b3ac:	a3043c83          	ld	s9,-1488(s0)
    b3b0:	080ccc93          	xori	s9,s9,128
    b3b4:	019982a3          	sb	s9,5(s3)
    b3b8:	a4043c83          	ld	s9,-1472(s0)
    b3bc:	080ccc93          	xori	s9,s9,128
    b3c0:	01998323          	sb	s9,6(s3)
    b3c4:	a5043c83          	ld	s9,-1456(s0)
    b3c8:	080ccc93          	xori	s9,s9,128
    b3cc:	019983a3          	sb	s9,7(s3)
    b3d0:	a6043c83          	ld	s9,-1440(s0)
    b3d4:	080ccc93          	xori	s9,s9,128
    b3d8:	01998423          	sb	s9,8(s3)
    b3dc:	b9043c83          	ld	s9,-1136(s0)
    b3e0:	080ccc93          	xori	s9,s9,128
    b3e4:	019984a3          	sb	s9,9(s3)
    b3e8:	bd043c83          	ld	s9,-1072(s0)
    b3ec:	080ccc93          	xori	s9,s9,128
    b3f0:	01998523          	sb	s9,10(s3)
    b3f4:	be043c83          	ld	s9,-1056(s0)
    b3f8:	080ccc93          	xori	s9,s9,128
    b3fc:	019985a3          	sb	s9,11(s3)
    b400:	bf043c83          	ld	s9,-1040(s0)
    b404:	080ccc93          	xori	s9,s9,128
    b408:	01998623          	sb	s9,12(s3)
    b40c:	c0043c83          	ld	s9,-1024(s0)
    b410:	080ccc93          	xori	s9,s9,128
    b414:	019986a3          	sb	s9,13(s3)
    b418:	c1043c83          	ld	s9,-1008(s0)
    b41c:	080ccc93          	xori	s9,s9,128
    b420:	01998723          	sb	s9,14(s3)
    b424:	c2843c83          	ld	s9,-984(s0)
    b428:	080ccc93          	xori	s9,s9,128
    b42c:	019987a3          	sb	s9,15(s3)
    b430:	c3843c83          	ld	s9,-968(s0)
    b434:	080ccc93          	xori	s9,s9,128
    b438:	01998823          	sb	s9,16(s3)
    b43c:	c5043c83          	ld	s9,-944(s0)
    b440:	080ccc93          	xori	s9,s9,128
    b444:	019988a3          	sb	s9,17(s3)
    b448:	c6043c83          	ld	s9,-928(s0)
    b44c:	080ccc93          	xori	s9,s9,128
    b450:	01998923          	sb	s9,18(s3)
    b454:	c7043c83          	ld	s9,-912(s0)
    b458:	080ccc93          	xori	s9,s9,128
    b45c:	019989a3          	sb	s9,19(s3)
    b460:	c8043c83          	ld	s9,-896(s0)
    b464:	080ccc93          	xori	s9,s9,128
    b468:	01998a23          	sb	s9,20(s3)
    b46c:	c9843c83          	ld	s9,-872(s0)
    b470:	080ccc93          	xori	s9,s9,128
    b474:	01998aa3          	sb	s9,21(s3)
    b478:	ca843c83          	ld	s9,-856(s0)
    b47c:	080ccc93          	xori	s9,s9,128
    b480:	01998b23          	sb	s9,22(s3)
    b484:	cb843c83          	ld	s9,-840(s0)
    b488:	080ccc93          	xori	s9,s9,128
    b48c:	01998ba3          	sb	s9,23(s3)
    b490:	cc843c83          	ld	s9,-824(s0)
    b494:	080ccc93          	xori	s9,s9,128
    b498:	01998c23          	sb	s9,24(s3)
    b49c:	ce043c83          	ld	s9,-800(s0)
    b4a0:	080ccc93          	xori	s9,s9,128
    b4a4:	01998ca3          	sb	s9,25(s3)
    b4a8:	cf043c83          	ld	s9,-784(s0)
    b4ac:	080ccc93          	xori	s9,s9,128
    b4b0:	01998d23          	sb	s9,26(s3)
    b4b4:	d0043c83          	ld	s9,-768(s0)
    b4b8:	080ccc93          	xori	s9,s9,128
    b4bc:	01998da3          	sb	s9,27(s3)
    b4c0:	d1843c83          	ld	s9,-744(s0)
    b4c4:	080ccc93          	xori	s9,s9,128
    b4c8:	01998e23          	sb	s9,28(s3)
    b4cc:	d2843c83          	ld	s9,-728(s0)
    b4d0:	080ccc93          	xori	s9,s9,128
    b4d4:	01998ea3          	sb	s9,29(s3)
    b4d8:	d3843c83          	ld	s9,-712(s0)
    b4dc:	080ccc93          	xori	s9,s9,128
    b4e0:	01998f23          	sb	s9,30(s3)
    b4e4:	d4843c83          	ld	s9,-696(s0)
    b4e8:	080ccc93          	xori	s9,s9,128
    b4ec:	01998fa3          	sb	s9,31(s3)
    b4f0:	4805099b          	addiw	s3,a0,1152
    b4f4:	013e89b3          	add	s3,t4,s3
    b4f8:	d6043503          	ld	a0,-672(s0)
    b4fc:	08054e93          	xori	t4,a0,128
    b500:	01d981a3          	sb	t4,3(s3)
    b504:	d7043503          	ld	a0,-656(s0)
    b508:	08054e93          	xori	t4,a0,128
    b50c:	01d98123          	sb	t4,2(s3)
    b510:	f8843503          	ld	a0,-120(s0)
    b514:	08054e93          	xori	t4,a0,128
    b518:	01d980a3          	sb	t4,1(s3)
    b51c:	d8043503          	ld	a0,-640(s0)
    b520:	08054e93          	xori	t4,a0,128
    b524:	01d98023          	sb	t4,0(s3)
    b528:	d8843503          	ld	a0,-632(s0)
    b52c:	08054e93          	xori	t4,a0,128
    b530:	01d98223          	sb	t4,4(s3)
    b534:	d9843503          	ld	a0,-616(s0)
    b538:	08054e93          	xori	t4,a0,128
    b53c:	01d982a3          	sb	t4,5(s3)
    b540:	da043503          	ld	a0,-608(s0)
    b544:	08054e93          	xori	t4,a0,128
    b548:	01d98323          	sb	t4,6(s3)
    b54c:	db043503          	ld	a0,-592(s0)
    b550:	08054e93          	xori	t4,a0,128
    b554:	01d983a3          	sb	t4,7(s3)
    b558:	dc043503          	ld	a0,-576(s0)
    b55c:	08054513          	xori	a0,a0,128
    b560:	00a98423          	sb	a0,8(s3)
    b564:	dd043503          	ld	a0,-560(s0)
    b568:	08054513          	xori	a0,a0,128
    b56c:	00a984a3          	sb	a0,9(s3)
    b570:	0805c513          	xori	a0,a1,128
    b574:	00a98523          	sb	a0,10(s3)
    b578:	0806c513          	xori	a0,a3,128
    b57c:	00a985a3          	sb	a0,11(s3)
    b580:	08074513          	xori	a0,a4,128
    b584:	00a98623          	sb	a0,12(s3)
    b588:	0807c513          	xori	a0,a5,128
    b58c:	00a986a3          	sb	a0,13(s3)
    b590:	08084513          	xori	a0,a6,128
    b594:	00a98723          	sb	a0,14(s3)
    b598:	0808c513          	xori	a0,a7,128
    b59c:	00a987a3          	sb	a0,15(s3)
    b5a0:	0802c513          	xori	a0,t0,128
    b5a4:	00a98823          	sb	a0,16(s3)
    b5a8:	08034513          	xori	a0,t1,128
    b5ac:	00a988a3          	sb	a0,17(s3)
    b5b0:	0803c513          	xori	a0,t2,128
    b5b4:	00a98923          	sb	a0,18(s3)
    b5b8:	080e4513          	xori	a0,t3,128
    b5bc:	00a989a3          	sb	a0,19(s3)
    b5c0:	08094513          	xori	a0,s2,128
    b5c4:	00a98a23          	sb	a0,20(s3)
    b5c8:	080dc513          	xori	a0,s11,128
    b5cc:	00a98aa3          	sb	a0,21(s3)
    b5d0:	080d4513          	xori	a0,s10,128
    b5d4:	00a98b23          	sb	a0,22(s3)
    b5d8:	080ac513          	xori	a0,s5,128
    b5dc:	00a98ba3          	sb	a0,23(s3)
    b5e0:	080a4513          	xori	a0,s4,128
    b5e4:	00a98c23          	sb	a0,24(s3)
    b5e8:	080f4513          	xori	a0,t5,128
    b5ec:	00a98ca3          	sb	a0,25(s3)
    b5f0:	080c4513          	xori	a0,s8,128
    b5f4:	00a98d23          	sb	a0,26(s3)
    b5f8:	0804c513          	xori	a0,s1,128
    b5fc:	00a98da3          	sb	a0,27(s3)
    b600:	080b4513          	xori	a0,s6,128
    b604:	00a98e23          	sb	a0,28(s3)
    b608:	080fc513          	xori	a0,t6,128
    b60c:	00a98ea3          	sb	a0,29(s3)
    b610:	0800c513          	xori	a0,ra,128
    b614:	00a98f23          	sb	a0,30(s3)
    b618:	080bc513          	xori	a0,s7,128
    b61c:	00a98fa3          	sb	a0,31(s3)
    b620:	02060513          	addi	a0,a2,32
    b624:	000015b7          	lui	a1,0x1
    b628:	40b405b3          	sub	a1,s0,a1
    b62c:	d105b383          	ld	t2,-752(a1) # d10 <.LBB64_3+0xaf8>
    b630:	02038393          	addi	t2,t2,32
    b634:	16000593          	li	a1,352
    b638:	00b66463          	bltu	a2,a1,b640 <.LBB64_1032>
    b63c:	2e80406f          	j	f924 <.LBB64_1546>

000000000000b640 <.LBB64_1032>:
    b640:	e4043423          	sd	zero,-440(s0)
    b644:	e4043023          	sd	zero,-448(s0)
    b648:	e2043c23          	sd	zero,-456(s0)
    b64c:	e2043823          	sd	zero,-464(s0)
    b650:	b8043023          	sd	zero,-1152(s0)
    b654:	c2043023          	sd	zero,-992(s0)
    b658:	e6043023          	sd	zero,-416(s0)
    b65c:	e4043823          	sd	zero,-432(s0)
    b660:	e6043423          	sd	zero,-408(s0)
    b664:	00000d93          	li	s11,0
    b668:	e6043823          	sd	zero,-400(s0)
    b66c:	e6043c23          	sd	zero,-392(s0)
    b670:	e8043023          	sd	zero,-384(s0)
    b674:	e4043c23          	sd	zero,-424(s0)
    b678:	00000613          	li	a2,0
    b67c:	00000993          	li	s3,0
    b680:	00000f93          	li	t6,0
    b684:	00000913          	li	s2,0
    b688:	00000f13          	li	t5,0
    b68c:	00000e93          	li	t4,0
    b690:	00000e13          	li	t3,0
    b694:	00000293          	li	t0,0
    b698:	00000b93          	li	s7,0
    b69c:	00000593          	li	a1,0
    b6a0:	00000813          	li	a6,0
    b6a4:	00000793          	li	a5,0
    b6a8:	00000713          	li	a4,0
    b6ac:	00000d13          	li	s10,0
    b6b0:	00000693          	li	a3,0
    b6b4:	00000a13          	li	s4,0
    b6b8:	00000a93          	li	s5,0
    b6bc:	00000b13          	li	s6,0
    b6c0:	d4043823          	sd	zero,-688(s0)
    b6c4:	d4043423          	sd	zero,-696(s0)
    b6c8:	d4043023          	sd	zero,-704(s0)
    b6cc:	d2043c23          	sd	zero,-712(s0)
    b6d0:	d4043c23          	sd	zero,-680(s0)
    b6d4:	ba043023          	sd	zero,-1120(s0)
    b6d8:	d6043023          	sd	zero,-672(s0)
    b6dc:	d6043423          	sd	zero,-664(s0)
    b6e0:	d6043823          	sd	zero,-656(s0)
    b6e4:	d6043c23          	sd	zero,-648(s0)
    b6e8:	d8043023          	sd	zero,-640(s0)
    b6ec:	d8043423          	sd	zero,-632(s0)
    b6f0:	d8043823          	sd	zero,-624(s0)
    b6f4:	d8043c23          	sd	zero,-616(s0)
    b6f8:	da043023          	sd	zero,-608(s0)
    b6fc:	da043423          	sd	zero,-600(s0)
    b700:	da043823          	sd	zero,-592(s0)
    b704:	da043c23          	sd	zero,-584(s0)
    b708:	dc043023          	sd	zero,-576(s0)
    b70c:	dc043423          	sd	zero,-568(s0)
    b710:	dc043823          	sd	zero,-560(s0)
    b714:	dc043c23          	sd	zero,-552(s0)
    b718:	de043023          	sd	zero,-544(s0)
    b71c:	de043423          	sd	zero,-536(s0)
    b720:	de043823          	sd	zero,-528(s0)
    b724:	de043c23          	sd	zero,-520(s0)
    b728:	e0043023          	sd	zero,-512(s0)
    b72c:	e0043423          	sd	zero,-504(s0)
    b730:	e0043823          	sd	zero,-496(s0)
    b734:	e0043c23          	sd	zero,-488(s0)
    b738:	e2043023          	sd	zero,-480(s0)
    b73c:	e2043423          	sd	zero,-472(s0)
    b740:	c4043823          	sd	zero,-944(s0)
    b744:	c4043423          	sd	zero,-952(s0)
    b748:	c4043023          	sd	zero,-960(s0)
    b74c:	c2043c23          	sd	zero,-968(s0)
    b750:	c4043c23          	sd	zero,-936(s0)
    b754:	c6043023          	sd	zero,-928(s0)
    b758:	c6043423          	sd	zero,-920(s0)
    b75c:	c6043823          	sd	zero,-912(s0)
    b760:	c6043c23          	sd	zero,-904(s0)
    b764:	c8043023          	sd	zero,-896(s0)
    b768:	c8043423          	sd	zero,-888(s0)
    b76c:	c8043823          	sd	zero,-880(s0)
    b770:	c8043c23          	sd	zero,-872(s0)
    b774:	ca043023          	sd	zero,-864(s0)
    b778:	ca043423          	sd	zero,-856(s0)
    b77c:	ca043823          	sd	zero,-848(s0)
    b780:	ca043c23          	sd	zero,-840(s0)
    b784:	cc043023          	sd	zero,-832(s0)
    b788:	cc043423          	sd	zero,-824(s0)
    b78c:	cc043823          	sd	zero,-816(s0)
    b790:	cc043c23          	sd	zero,-808(s0)
    b794:	ce043023          	sd	zero,-800(s0)
    b798:	ce043423          	sd	zero,-792(s0)
    b79c:	ce043823          	sd	zero,-784(s0)
    b7a0:	ce043c23          	sd	zero,-776(s0)
    b7a4:	d0043023          	sd	zero,-768(s0)
    b7a8:	d0043423          	sd	zero,-760(s0)
    b7ac:	d0043823          	sd	zero,-752(s0)
    b7b0:	d0043c23          	sd	zero,-744(s0)
    b7b4:	d2043023          	sd	zero,-736(s0)
    b7b8:	d2043423          	sd	zero,-728(s0)
    b7bc:	d2043823          	sd	zero,-720(s0)
    b7c0:	b6043823          	sd	zero,-1168(s0)
    b7c4:	b6043423          	sd	zero,-1176(s0)
    b7c8:	b6043023          	sd	zero,-1184(s0)
    b7cc:	b6043c23          	sd	zero,-1160(s0)
    b7d0:	b4043c23          	sd	zero,-1192(s0)
    b7d4:	b4043823          	sd	zero,-1200(s0)
    b7d8:	b4043423          	sd	zero,-1208(s0)
    b7dc:	b4043023          	sd	zero,-1216(s0)
    b7e0:	b2043c23          	sd	zero,-1224(s0)
    b7e4:	b2043823          	sd	zero,-1232(s0)
    b7e8:	b2043423          	sd	zero,-1240(s0)
    b7ec:	b8043423          	sd	zero,-1144(s0)
    b7f0:	b8043c23          	sd	zero,-1128(s0)
    b7f4:	ba043423          	sd	zero,-1112(s0)
    b7f8:	ba043823          	sd	zero,-1104(s0)
    b7fc:	ba043c23          	sd	zero,-1096(s0)
    b800:	bc043023          	sd	zero,-1088(s0)
    b804:	bc043423          	sd	zero,-1080(s0)
    b808:	bc043823          	sd	zero,-1072(s0)
    b80c:	bc043c23          	sd	zero,-1064(s0)
    b810:	be043023          	sd	zero,-1056(s0)
    b814:	be043423          	sd	zero,-1048(s0)
    b818:	be043823          	sd	zero,-1040(s0)
    b81c:	be043c23          	sd	zero,-1032(s0)
    b820:	c0043023          	sd	zero,-1024(s0)
    b824:	00000093          	li	ra,0
    b828:	c0043423          	sd	zero,-1016(s0)
    b82c:	c0043823          	sd	zero,-1008(s0)
    b830:	c0043c23          	sd	zero,-1000(s0)
    b834:	b8043823          	sd	zero,-1136(s0)
    b838:	c2043423          	sd	zero,-984(s0)
    b83c:	c2043823          	sd	zero,-976(s0)
    b840:	a6a43c23          	sd	a0,-1416(s0)
    b844:	00006537          	lui	a0,0x6
    b848:	000018b7          	lui	a7,0x1
    b84c:	411408b3          	sub	a7,s0,a7
    b850:	5e08b303          	ld	t1,1504(a7) # 15e0 <.LBB64_4+0x474>
    b854:	000018b7          	lui	a7,0x1
    b858:	411408b3          	sub	a7,s0,a7
    b85c:	d078b823          	sd	t2,-752(a7) # d10 <.LBB64_3+0xaf8>

000000000000b860 <.LBB64_1033>:
    b860:	f8643423          	sd	t1,-120(s0)
    b864:	b0a43c23          	sd	a0,-1256(s0)
    b868:	eb643c23          	sd	s6,-328(s0)
    b86c:	ed543023          	sd	s5,-320(s0)
    b870:	eb443423          	sd	s4,-344(s0)
    b874:	ead43823          	sd	a3,-336(s0)
    b878:	f3b43823          	sd	s11,-208(s0)
    b87c:	f2c43c23          	sd	a2,-200(s0)
    b880:	f5343023          	sd	s3,-192(s0)
    b884:	f5f43423          	sd	t6,-184(s0)
    b888:	f5243823          	sd	s2,-176(s0)
    b88c:	f5e43c23          	sd	t5,-168(s0)
    b890:	f7d43023          	sd	t4,-160(s0)
    b894:	f7c43423          	sd	t3,-152(s0)
    b898:	f6543823          	sd	t0,-144(s0)
    b89c:	f7743c23          	sd	s7,-136(s0)
    b8a0:	f8b43023          	sd	a1,-128(s0)
    b8a4:	e9043423          	sd	a6,-376(s0)
    b8a8:	e8f43823          	sd	a5,-368(s0)
    b8ac:	e8e43c23          	sd	a4,-360(s0)
    b8b0:	eba43023          	sd	s10,-352(s0)
    b8b4:	f4030683          	lb	a3,-192(t1)
    b8b8:	00238503          	lb	a0,2(t2)
    b8bc:	eca43c23          	sd	a0,-296(s0)
    b8c0:	00138603          	lb	a2,1(t2)
    b8c4:	f0c43423          	sd	a2,-248(s0)
    b8c8:	00038703          	lb	a4,0(t2)
    b8cc:	f0e43023          	sd	a4,-256(s0)
    b8d0:	00338783          	lb	a5,3(t2)
    b8d4:	00438803          	lb	a6,4(t2)
    b8d8:	00538283          	lb	t0,5(t2)
    b8dc:	00638e03          	lb	t3,6(t2)
    b8e0:	efc43c23          	sd	t3,-264(s0)
    b8e4:	00738e83          	lb	t4,7(t2)
    b8e8:	efd43823          	sd	t4,-272(s0)
    b8ec:	00838303          	lb	t1,8(t2)
    b8f0:	ee643423          	sd	t1,-280(s0)
    b8f4:	00938d83          	lb	s11,9(t2)
    b8f8:	00a38b83          	lb	s7,10(t2)
    b8fc:	00b38583          	lb	a1,11(t2)
    b900:	ecb43423          	sd	a1,-312(s0)
    b904:	00c38483          	lb	s1,12(t2)
    b908:	ee943023          	sd	s1,-288(s0)
    b90c:	00d38f83          	lb	t6,13(t2)
    b910:	adf43c23          	sd	t6,-1320(s0)
    b914:	00e38c83          	lb	s9,14(t2)
    b918:	af943023          	sd	s9,-1312(s0)
    b91c:	00f38883          	lb	a7,15(t2)
    b920:	01038903          	lb	s2,16(t2)
    b924:	af243423          	sd	s2,-1304(s0)
    b928:	01138f03          	lb	t5,17(t2)
    b92c:	afe43823          	sd	t5,-1296(s0)
    b930:	01238a03          	lb	s4,18(t2)
    b934:	b1443023          	sd	s4,-1280(s0)
    b938:	01338983          	lb	s3,19(t2)
    b93c:	af343c23          	sd	s3,-1288(s0)
    b940:	01438d03          	lb	s10,20(t2)
    b944:	b1a43423          	sd	s10,-1272(s0)
    b948:	01538b03          	lb	s6,21(t2)
    b94c:	01638c03          	lb	s8,22(t2)
    b950:	b1843823          	sd	s8,-1264(s0)
    b954:	01738a83          	lb	s5,23(t2)
    b958:	01838583          	lb	a1,24(t2)
    b95c:	ecb43823          	sd	a1,-304(s0)
    b960:	02a68533          	mul	a0,a3,a0
    b964:	b6043583          	ld	a1,-1184(s0)
    b968:	00b505b3          	add	a1,a0,a1
    b96c:	b6b43023          	sd	a1,-1184(s0)
    b970:	02c68533          	mul	a0,a3,a2
    b974:	b6843583          	ld	a1,-1176(s0)
    b978:	00b505b3          	add	a1,a0,a1
    b97c:	b6b43423          	sd	a1,-1176(s0)
    b980:	02e68533          	mul	a0,a3,a4
    b984:	b7043583          	ld	a1,-1168(s0)
    b988:	00b505b3          	add	a1,a0,a1
    b98c:	b6b43823          	sd	a1,-1168(s0)
    b990:	02f68533          	mul	a0,a3,a5
    b994:	b7843583          	ld	a1,-1160(s0)
    b998:	00b505b3          	add	a1,a0,a1
    b99c:	b6b43c23          	sd	a1,-1160(s0)
    b9a0:	03068533          	mul	a0,a3,a6
    b9a4:	b5843583          	ld	a1,-1192(s0)
    b9a8:	00b505b3          	add	a1,a0,a1
    b9ac:	b4b43c23          	sd	a1,-1192(s0)
    b9b0:	02568533          	mul	a0,a3,t0
    b9b4:	b5043583          	ld	a1,-1200(s0)
    b9b8:	00b505b3          	add	a1,a0,a1
    b9bc:	b4b43823          	sd	a1,-1200(s0)
    b9c0:	03c68533          	mul	a0,a3,t3
    b9c4:	b4843583          	ld	a1,-1208(s0)
    b9c8:	00b505b3          	add	a1,a0,a1
    b9cc:	b4b43423          	sd	a1,-1208(s0)
    b9d0:	03d68533          	mul	a0,a3,t4
    b9d4:	b4043583          	ld	a1,-1216(s0)
    b9d8:	00b505b3          	add	a1,a0,a1
    b9dc:	b4b43023          	sd	a1,-1216(s0)
    b9e0:	02668533          	mul	a0,a3,t1
    b9e4:	b3843583          	ld	a1,-1224(s0)
    b9e8:	00b505b3          	add	a1,a0,a1
    b9ec:	b2b43c23          	sd	a1,-1224(s0)
    b9f0:	abb43823          	sd	s11,-1360(s0)
    b9f4:	03b68533          	mul	a0,a3,s11
    b9f8:	b3043583          	ld	a1,-1232(s0)
    b9fc:	00b505b3          	add	a1,a0,a1
    ba00:	b2b43823          	sd	a1,-1232(s0)
    ba04:	ab743423          	sd	s7,-1368(s0)
    ba08:	03768533          	mul	a0,a3,s7
    ba0c:	b2843583          	ld	a1,-1240(s0)
    ba10:	00b505b3          	add	a1,a0,a1
    ba14:	b2b43423          	sd	a1,-1240(s0)
    ba18:	ec843303          	ld	t1,-312(s0)
    ba1c:	02668533          	mul	a0,a3,t1
    ba20:	b8843583          	ld	a1,-1144(s0)
    ba24:	00b505b3          	add	a1,a0,a1
    ba28:	b8b43423          	sd	a1,-1144(s0)
    ba2c:	02968533          	mul	a0,a3,s1
    ba30:	b9843583          	ld	a1,-1128(s0)
    ba34:	00b505b3          	add	a1,a0,a1
    ba38:	b8b43c23          	sd	a1,-1128(s0)
    ba3c:	03f68533          	mul	a0,a3,t6
    ba40:	ba843583          	ld	a1,-1112(s0)
    ba44:	00b505b3          	add	a1,a0,a1
    ba48:	bab43423          	sd	a1,-1112(s0)
    ba4c:	03968533          	mul	a0,a3,s9
    ba50:	bb043583          	ld	a1,-1104(s0)
    ba54:	00b505b3          	add	a1,a0,a1
    ba58:	bab43823          	sd	a1,-1104(s0)
    ba5c:	03168533          	mul	a0,a3,a7
    ba60:	00088c93          	mv	s9,a7
    ba64:	bb843583          	ld	a1,-1096(s0)
    ba68:	00b505b3          	add	a1,a0,a1
    ba6c:	bab43c23          	sd	a1,-1096(s0)
    ba70:	03268533          	mul	a0,a3,s2
    ba74:	bc043583          	ld	a1,-1088(s0)
    ba78:	00b505b3          	add	a1,a0,a1
    ba7c:	bcb43023          	sd	a1,-1088(s0)
    ba80:	03e68533          	mul	a0,a3,t5
    ba84:	bc843583          	ld	a1,-1080(s0)
    ba88:	00b505b3          	add	a1,a0,a1
    ba8c:	bcb43423          	sd	a1,-1080(s0)
    ba90:	03468533          	mul	a0,a3,s4
    ba94:	bd043583          	ld	a1,-1072(s0)
    ba98:	00b505b3          	add	a1,a0,a1
    ba9c:	bcb43823          	sd	a1,-1072(s0)
    baa0:	03368533          	mul	a0,a3,s3
    baa4:	bd843583          	ld	a1,-1064(s0)
    baa8:	00b505b3          	add	a1,a0,a1
    baac:	bcb43c23          	sd	a1,-1064(s0)
    bab0:	03a68533          	mul	a0,a3,s10
    bab4:	be043583          	ld	a1,-1056(s0)
    bab8:	00b505b3          	add	a1,a0,a1
    babc:	beb43023          	sd	a1,-1056(s0)
    bac0:	03668533          	mul	a0,a3,s6
    bac4:	ad643023          	sd	s6,-1344(s0)
    bac8:	be843583          	ld	a1,-1048(s0)
    bacc:	00b505b3          	add	a1,a0,a1
    bad0:	beb43423          	sd	a1,-1048(s0)
    bad4:	03868533          	mul	a0,a3,s8
    bad8:	bf043583          	ld	a1,-1040(s0)
    badc:	00b505b3          	add	a1,a0,a1
    bae0:	beb43823          	sd	a1,-1040(s0)
    bae4:	03568533          	mul	a0,a3,s5
    bae8:	bf843583          	ld	a1,-1032(s0)
    baec:	00b505b3          	add	a1,a0,a1
    baf0:	beb43c23          	sd	a1,-1032(s0)
    baf4:	01938503          	lb	a0,25(t2)
    baf8:	aca43823          	sd	a0,-1328(s0)
    bafc:	ed043983          	ld	s3,-304(s0)
    bb00:	033685b3          	mul	a1,a3,s3
    bb04:	c0043603          	ld	a2,-1024(s0)
    bb08:	00c58633          	add	a2,a1,a2
    bb0c:	c0c43023          	sd	a2,-1024(s0)
    bb10:	01a38603          	lb	a2,26(t2)
    bb14:	02a685b3          	mul	a1,a3,a0
    bb18:	001580b3          	add	ra,a1,ra
    bb1c:	b2143023          	sd	ra,-1248(s0)
    bb20:	01b38503          	lb	a0,27(t2)
    bb24:	aca43423          	sd	a0,-1336(s0)
    bb28:	02c685b3          	mul	a1,a3,a2
    bb2c:	00060093          	mv	ra,a2
    bb30:	aac43c23          	sd	a2,-1352(s0)
    bb34:	c0843603          	ld	a2,-1016(s0)
    bb38:	00c58633          	add	a2,a1,a2
    bb3c:	c0c43423          	sd	a2,-1016(s0)
    bb40:	01c38703          	lb	a4,28(t2)
    bb44:	f2e43423          	sd	a4,-216(s0)
    bb48:	02a685b3          	mul	a1,a3,a0
    bb4c:	c1043603          	ld	a2,-1008(s0)
    bb50:	00c58633          	add	a2,a1,a2
    bb54:	c0c43823          	sd	a2,-1008(s0)
    bb58:	01d38503          	lb	a0,29(t2)
    bb5c:	f2a43023          	sd	a0,-224(s0)
    bb60:	02e685b3          	mul	a1,a3,a4
    bb64:	c1843603          	ld	a2,-1000(s0)
    bb68:	00c58633          	add	a2,a1,a2
    bb6c:	c0c43c23          	sd	a2,-1000(s0)
    bb70:	01e38583          	lb	a1,30(t2)
    bb74:	f0b43823          	sd	a1,-240(s0)
    bb78:	02a68633          	mul	a2,a3,a0
    bb7c:	b9043703          	ld	a4,-1136(s0)
    bb80:	00e60733          	add	a4,a2,a4
    bb84:	b8e43823          	sd	a4,-1136(s0)
    bb88:	01f38503          	lb	a0,31(t2)
    bb8c:	f0a43c23          	sd	a0,-232(s0)
    bb90:	f8843703          	ld	a4,-120(s0)
    bb94:	f8070703          	lb	a4,-128(a4)
    bb98:	02b68eb3          	mul	t4,a3,a1
    bb9c:	c2843e03          	ld	t3,-984(s0)
    bba0:	01ce8e33          	add	t3,t4,t3
    bba4:	c3c43423          	sd	t3,-984(s0)
    bba8:	02a686b3          	mul	a3,a3,a0
    bbac:	c3043e03          	ld	t3,-976(s0)
    bbb0:	01c68e33          	add	t3,a3,t3
    bbb4:	c3c43823          	sd	t3,-976(s0)
    bbb8:	ed843483          	ld	s1,-296(s0)
    bbbc:	029706b3          	mul	a3,a4,s1
    bbc0:	c4043e03          	ld	t3,-960(s0)
    bbc4:	01c68e33          	add	t3,a3,t3
    bbc8:	c5c43023          	sd	t3,-960(s0)
    bbcc:	f0843503          	ld	a0,-248(s0)
    bbd0:	02a706b3          	mul	a3,a4,a0
    bbd4:	c4843e03          	ld	t3,-952(s0)
    bbd8:	01c68e33          	add	t3,a3,t3
    bbdc:	c5c43423          	sd	t3,-952(s0)
    bbe0:	f0043583          	ld	a1,-256(s0)
    bbe4:	02b706b3          	mul	a3,a4,a1
    bbe8:	c5043e03          	ld	t3,-944(s0)
    bbec:	01c68e33          	add	t3,a3,t3
    bbf0:	c5c43823          	sd	t3,-944(s0)
    bbf4:	aaf43023          	sd	a5,-1376(s0)
    bbf8:	02f706b3          	mul	a3,a4,a5
    bbfc:	c3843e03          	ld	t3,-968(s0)
    bc00:	01c68e33          	add	t3,a3,t3
    bc04:	c3c43c23          	sd	t3,-968(s0)
    bc08:	00080613          	mv	a2,a6
    bc0c:	a9043c23          	sd	a6,-1384(s0)
    bc10:	030706b3          	mul	a3,a4,a6
    bc14:	c5843e03          	ld	t3,-936(s0)
    bc18:	01c68e33          	add	t3,a3,t3
    bc1c:	c5c43c23          	sd	t3,-936(s0)
    bc20:	00028813          	mv	a6,t0
    bc24:	a8543823          	sd	t0,-1392(s0)
    bc28:	025706b3          	mul	a3,a4,t0
    bc2c:	c6043e03          	ld	t3,-928(s0)
    bc30:	01c68e33          	add	t3,a3,t3
    bc34:	c7c43023          	sd	t3,-928(s0)
    bc38:	ef843883          	ld	a7,-264(s0)
    bc3c:	031706b3          	mul	a3,a4,a7
    bc40:	c6843e03          	ld	t3,-920(s0)
    bc44:	01c68e33          	add	t3,a3,t3
    bc48:	c7c43423          	sd	t3,-920(s0)
    bc4c:	ef043283          	ld	t0,-272(s0)
    bc50:	025706b3          	mul	a3,a4,t0
    bc54:	c7043e03          	ld	t3,-912(s0)
    bc58:	01c68e33          	add	t3,a3,t3
    bc5c:	c7c43823          	sd	t3,-912(s0)
    bc60:	ee843f03          	ld	t5,-280(s0)
    bc64:	03e706b3          	mul	a3,a4,t5
    bc68:	c7843e03          	ld	t3,-904(s0)
    bc6c:	01c68e33          	add	t3,a3,t3
    bc70:	c7c43c23          	sd	t3,-904(s0)
    bc74:	03b706b3          	mul	a3,a4,s11
    bc78:	c8043e03          	ld	t3,-896(s0)
    bc7c:	01c68e33          	add	t3,a3,t3
    bc80:	c9c43023          	sd	t3,-896(s0)
    bc84:	037706b3          	mul	a3,a4,s7
    bc88:	c8843e03          	ld	t3,-888(s0)
    bc8c:	01c68e33          	add	t3,a3,t3
    bc90:	c9c43423          	sd	t3,-888(s0)
    bc94:	026706b3          	mul	a3,a4,t1
    bc98:	c9043e03          	ld	t3,-880(s0)
    bc9c:	01c68e33          	add	t3,a3,t3
    bca0:	c9c43823          	sd	t3,-880(s0)
    bca4:	ee043f83          	ld	t6,-288(s0)
    bca8:	03f706b3          	mul	a3,a4,t6
    bcac:	c9843e03          	ld	t3,-872(s0)
    bcb0:	01c68e33          	add	t3,a3,t3
    bcb4:	c9c43c23          	sd	t3,-872(s0)
    bcb8:	ad843903          	ld	s2,-1320(s0)
    bcbc:	032706b3          	mul	a3,a4,s2
    bcc0:	ca043e03          	ld	t3,-864(s0)
    bcc4:	01c68e33          	add	t3,a3,t3
    bcc8:	cbc43023          	sd	t3,-864(s0)
    bccc:	ae043a03          	ld	s4,-1312(s0)
    bcd0:	034706b3          	mul	a3,a4,s4
    bcd4:	ca843e03          	ld	t3,-856(s0)
    bcd8:	01c68e33          	add	t3,a3,t3
    bcdc:	cbc43423          	sd	t3,-856(s0)
    bce0:	000c8d93          	mv	s11,s9
    bce4:	039706b3          	mul	a3,a4,s9
    bce8:	cb043e03          	ld	t3,-848(s0)
    bcec:	01c68e33          	add	t3,a3,t3
    bcf0:	cbc43823          	sd	t3,-848(s0)
    bcf4:	ae843b83          	ld	s7,-1304(s0)
    bcf8:	037706b3          	mul	a3,a4,s7
    bcfc:	cb843e03          	ld	t3,-840(s0)
    bd00:	01c68e33          	add	t3,a3,t3
    bd04:	cbc43c23          	sd	t3,-840(s0)
    bd08:	af043c83          	ld	s9,-1296(s0)
    bd0c:	039706b3          	mul	a3,a4,s9
    bd10:	cc043e03          	ld	t3,-832(s0)
    bd14:	01c68e33          	add	t3,a3,t3
    bd18:	cdc43023          	sd	t3,-832(s0)
    bd1c:	b0043d03          	ld	s10,-1280(s0)
    bd20:	03a706b3          	mul	a3,a4,s10
    bd24:	cc843e03          	ld	t3,-824(s0)
    bd28:	01c68e33          	add	t3,a3,t3
    bd2c:	cdc43423          	sd	t3,-824(s0)
    bd30:	af843303          	ld	t1,-1288(s0)
    bd34:	026706b3          	mul	a3,a4,t1
    bd38:	cd043e03          	ld	t3,-816(s0)
    bd3c:	01c68e33          	add	t3,a3,t3
    bd40:	cdc43823          	sd	t3,-816(s0)
    bd44:	b0843c03          	ld	s8,-1272(s0)
    bd48:	038706b3          	mul	a3,a4,s8
    bd4c:	cd843e03          	ld	t3,-808(s0)
    bd50:	01c68e33          	add	t3,a3,t3
    bd54:	cdc43c23          	sd	t3,-808(s0)
    bd58:	036706b3          	mul	a3,a4,s6
    bd5c:	ce043e03          	ld	t3,-800(s0)
    bd60:	01c68e33          	add	t3,a3,t3
    bd64:	cfc43023          	sd	t3,-800(s0)
    bd68:	b1043b03          	ld	s6,-1264(s0)
    bd6c:	036706b3          	mul	a3,a4,s6
    bd70:	ce843e03          	ld	t3,-792(s0)
    bd74:	01c68e33          	add	t3,a3,t3
    bd78:	cfc43423          	sd	t3,-792(s0)
    bd7c:	035706b3          	mul	a3,a4,s5
    bd80:	cf043e03          	ld	t3,-784(s0)
    bd84:	01c68e33          	add	t3,a3,t3
    bd88:	cfc43823          	sd	t3,-784(s0)
    bd8c:	033706b3          	mul	a3,a4,s3
    bd90:	cf843e03          	ld	t3,-776(s0)
    bd94:	01c68e33          	add	t3,a3,t3
    bd98:	cfc43c23          	sd	t3,-776(s0)
    bd9c:	ad043983          	ld	s3,-1328(s0)
    bda0:	033706b3          	mul	a3,a4,s3
    bda4:	d0043e03          	ld	t3,-768(s0)
    bda8:	01c68e33          	add	t3,a3,t3
    bdac:	d1c43023          	sd	t3,-768(s0)
    bdb0:	021706b3          	mul	a3,a4,ra
    bdb4:	d0843e03          	ld	t3,-760(s0)
    bdb8:	01c68e33          	add	t3,a3,t3
    bdbc:	d1c43423          	sd	t3,-760(s0)
    bdc0:	ac843083          	ld	ra,-1336(s0)
    bdc4:	021706b3          	mul	a3,a4,ra
    bdc8:	d1043e03          	ld	t3,-752(s0)
    bdcc:	01c68e33          	add	t3,a3,t3
    bdd0:	d1c43823          	sd	t3,-752(s0)
    bdd4:	f2843683          	ld	a3,-216(s0)
    bdd8:	02d706b3          	mul	a3,a4,a3
    bddc:	d1843e03          	ld	t3,-744(s0)
    bde0:	01c68e33          	add	t3,a3,t3
    bde4:	d1c43c23          	sd	t3,-744(s0)
    bde8:	f2043683          	ld	a3,-224(s0)
    bdec:	02d706b3          	mul	a3,a4,a3
    bdf0:	d2043e03          	ld	t3,-736(s0)
    bdf4:	01c68e33          	add	t3,a3,t3
    bdf8:	d3c43023          	sd	t3,-736(s0)
    bdfc:	f8843683          	ld	a3,-120(s0)
    be00:	fc068683          	lb	a3,-64(a3)
    be04:	f1043e03          	ld	t3,-240(s0)
    be08:	03c70eb3          	mul	t4,a4,t3
    be0c:	d2843e03          	ld	t3,-728(s0)
    be10:	01ce8e33          	add	t3,t4,t3
    be14:	d3c43423          	sd	t3,-728(s0)
    be18:	f1843e03          	ld	t3,-232(s0)
    be1c:	03c70733          	mul	a4,a4,t3
    be20:	d3043e03          	ld	t3,-720(s0)
    be24:	01c70e33          	add	t3,a4,t3
    be28:	d3c43823          	sd	t3,-720(s0)
    be2c:	02968733          	mul	a4,a3,s1
    be30:	d4043e03          	ld	t3,-704(s0)
    be34:	01c70e33          	add	t3,a4,t3
    be38:	d5c43023          	sd	t3,-704(s0)
    be3c:	02a68733          	mul	a4,a3,a0
    be40:	d4843e03          	ld	t3,-696(s0)
    be44:	01c70e33          	add	t3,a4,t3
    be48:	d5c43423          	sd	t3,-696(s0)
    be4c:	02b68733          	mul	a4,a3,a1
    be50:	d5043e03          	ld	t3,-688(s0)
    be54:	01c70e33          	add	t3,a4,t3
    be58:	d5c43823          	sd	t3,-688(s0)
    be5c:	02f68733          	mul	a4,a3,a5
    be60:	d3843e03          	ld	t3,-712(s0)
    be64:	01c70e33          	add	t3,a4,t3
    be68:	d3c43c23          	sd	t3,-712(s0)
    be6c:	02c68733          	mul	a4,a3,a2
    be70:	d5843e03          	ld	t3,-680(s0)
    be74:	01c70e33          	add	t3,a4,t3
    be78:	d5c43c23          	sd	t3,-680(s0)
    be7c:	03068733          	mul	a4,a3,a6
    be80:	ba043e03          	ld	t3,-1120(s0)
    be84:	01c70e33          	add	t3,a4,t3
    be88:	bbc43023          	sd	t3,-1120(s0)
    be8c:	03168733          	mul	a4,a3,a7
    be90:	d6043e03          	ld	t3,-672(s0)
    be94:	01c70e33          	add	t3,a4,t3
    be98:	d7c43023          	sd	t3,-672(s0)
    be9c:	02568733          	mul	a4,a3,t0
    bea0:	d6843e03          	ld	t3,-664(s0)
    bea4:	01c70e33          	add	t3,a4,t3
    bea8:	d7c43423          	sd	t3,-664(s0)
    beac:	03e68733          	mul	a4,a3,t5
    beb0:	d7043e03          	ld	t3,-656(s0)
    beb4:	01c70e33          	add	t3,a4,t3
    beb8:	d7c43823          	sd	t3,-656(s0)
    bebc:	ab043803          	ld	a6,-1360(s0)
    bec0:	03068733          	mul	a4,a3,a6
    bec4:	d7843e03          	ld	t3,-648(s0)
    bec8:	01c70e33          	add	t3,a4,t3
    becc:	d7c43c23          	sd	t3,-648(s0)
    bed0:	aa843783          	ld	a5,-1368(s0)
    bed4:	02f68733          	mul	a4,a3,a5
    bed8:	d8043e03          	ld	t3,-640(s0)
    bedc:	01c70e33          	add	t3,a4,t3
    bee0:	d9c43023          	sd	t3,-640(s0)
    bee4:	ec843603          	ld	a2,-312(s0)
    bee8:	02c68733          	mul	a4,a3,a2
    beec:	d8843e03          	ld	t3,-632(s0)
    bef0:	01c70e33          	add	t3,a4,t3
    bef4:	d9c43423          	sd	t3,-632(s0)
    bef8:	03f68733          	mul	a4,a3,t6
    befc:	d9043e03          	ld	t3,-624(s0)
    bf00:	01c70e33          	add	t3,a4,t3
    bf04:	d9c43823          	sd	t3,-624(s0)
    bf08:	03268733          	mul	a4,a3,s2
    bf0c:	d9843e03          	ld	t3,-616(s0)
    bf10:	01c70e33          	add	t3,a4,t3
    bf14:	d9c43c23          	sd	t3,-616(s0)
    bf18:	03468733          	mul	a4,a3,s4
    bf1c:	000a0f93          	mv	t6,s4
    bf20:	da043e03          	ld	t3,-608(s0)
    bf24:	01c70e33          	add	t3,a4,t3
    bf28:	dbc43023          	sd	t3,-608(s0)
    bf2c:	000d8a13          	mv	s4,s11
    bf30:	03b68733          	mul	a4,a3,s11
    bf34:	da843e03          	ld	t3,-600(s0)
    bf38:	01c70e33          	add	t3,a4,t3
    bf3c:	dbc43423          	sd	t3,-600(s0)
    bf40:	03768733          	mul	a4,a3,s7
    bf44:	000b8d93          	mv	s11,s7
    bf48:	db043e03          	ld	t3,-592(s0)
    bf4c:	01c70e33          	add	t3,a4,t3
    bf50:	dbc43823          	sd	t3,-592(s0)
    bf54:	03968733          	mul	a4,a3,s9
    bf58:	000c8293          	mv	t0,s9
    bf5c:	db843e03          	ld	t3,-584(s0)
    bf60:	01c70e33          	add	t3,a4,t3
    bf64:	dbc43c23          	sd	t3,-584(s0)
    bf68:	000d0b93          	mv	s7,s10
    bf6c:	03a68733          	mul	a4,a3,s10
    bf70:	dc043e03          	ld	t3,-576(s0)
    bf74:	01c70e33          	add	t3,a4,t3
    bf78:	ddc43023          	sd	t3,-576(s0)
    bf7c:	02668733          	mul	a4,a3,t1
    bf80:	dc843e03          	ld	t3,-568(s0)
    bf84:	01c70e33          	add	t3,a4,t3
    bf88:	ddc43423          	sd	t3,-568(s0)
    bf8c:	000c0c93          	mv	s9,s8
    bf90:	03868733          	mul	a4,a3,s8
    bf94:	dd043e03          	ld	t3,-560(s0)
    bf98:	01c70e33          	add	t3,a4,t3
    bf9c:	ddc43823          	sd	t3,-560(s0)
    bfa0:	ac043f03          	ld	t5,-1344(s0)
    bfa4:	03e68733          	mul	a4,a3,t5
    bfa8:	dd843e03          	ld	t3,-552(s0)
    bfac:	01c70e33          	add	t3,a4,t3
    bfb0:	ddc43c23          	sd	t3,-552(s0)
    bfb4:	000b0593          	mv	a1,s6
    bfb8:	03668733          	mul	a4,a3,s6
    bfbc:	de043e03          	ld	t3,-544(s0)
    bfc0:	01c70e33          	add	t3,a4,t3
    bfc4:	dfc43023          	sd	t3,-544(s0)
    bfc8:	000a8513          	mv	a0,s5
    bfcc:	03568733          	mul	a4,a3,s5
    bfd0:	de843e03          	ld	t3,-536(s0)
    bfd4:	01c70e33          	add	t3,a4,t3
    bfd8:	dfc43423          	sd	t3,-536(s0)
    bfdc:	ed043883          	ld	a7,-304(s0)
    bfe0:	03168733          	mul	a4,a3,a7
    bfe4:	df043e03          	ld	t3,-528(s0)
    bfe8:	01c70e33          	add	t3,a4,t3
    bfec:	dfc43823          	sd	t3,-528(s0)
    bff0:	00098493          	mv	s1,s3
    bff4:	03368733          	mul	a4,a3,s3
    bff8:	df843e03          	ld	t3,-520(s0)
    bffc:	01c70e33          	add	t3,a4,t3
    c000:	dfc43c23          	sd	t3,-520(s0)
    c004:	ab843983          	ld	s3,-1352(s0)
    c008:	03368733          	mul	a4,a3,s3
    c00c:	e0043e03          	ld	t3,-512(s0)
    c010:	01c70e33          	add	t3,a4,t3
    c014:	e1c43023          	sd	t3,-512(s0)
    c018:	02168733          	mul	a4,a3,ra
    c01c:	e0843e03          	ld	t3,-504(s0)
    c020:	01c70e33          	add	t3,a4,t3
    c024:	e1c43423          	sd	t3,-504(s0)
    c028:	f2843b03          	ld	s6,-216(s0)
    c02c:	03668733          	mul	a4,a3,s6
    c030:	e1043e03          	ld	t3,-496(s0)
    c034:	01c70e33          	add	t3,a4,t3
    c038:	e1c43823          	sd	t3,-496(s0)
    c03c:	f2043c03          	ld	s8,-224(s0)
    c040:	03868733          	mul	a4,a3,s8
    c044:	e1843e03          	ld	t3,-488(s0)
    c048:	01c70e33          	add	t3,a4,t3
    c04c:	e1c43c23          	sd	t3,-488(s0)
    c050:	f8843703          	ld	a4,-120(s0)
    c054:	00070e83          	lb	t4,0(a4)
    c058:	f1043d03          	ld	s10,-240(s0)
    c05c:	03a68733          	mul	a4,a3,s10
    c060:	e2043e03          	ld	t3,-480(s0)
    c064:	01c70e33          	add	t3,a4,t3
    c068:	e3c43023          	sd	t3,-480(s0)
    c06c:	f1843e03          	ld	t3,-232(s0)
    c070:	03c686b3          	mul	a3,a3,t3
    c074:	e2843703          	ld	a4,-472(s0)
    c078:	00e68733          	add	a4,a3,a4
    c07c:	e2e43423          	sd	a4,-472(s0)
    c080:	03ce86b3          	mul	a3,t4,t3
    c084:	f0d43c23          	sd	a3,-232(s0)
    c088:	03ae86b3          	mul	a3,t4,s10
    c08c:	f0d43823          	sd	a3,-240(s0)
    c090:	038e86b3          	mul	a3,t4,s8
    c094:	f2d43023          	sd	a3,-224(s0)
    c098:	036e86b3          	mul	a3,t4,s6
    c09c:	a8d43423          	sd	a3,-1400(s0)
    c0a0:	021e86b3          	mul	a3,t4,ra
    c0a4:	acd43423          	sd	a3,-1336(s0)
    c0a8:	033e86b3          	mul	a3,t4,s3
    c0ac:	aad43c23          	sd	a3,-1352(s0)
    c0b0:	029e86b3          	mul	a3,t4,s1
    c0b4:	f2d43423          	sd	a3,-216(s0)
    c0b8:	031e86b3          	mul	a3,t4,a7
    c0bc:	ecd43823          	sd	a3,-304(s0)
    c0c0:	035e86b3          	mul	a3,t4,s5
    c0c4:	02be88b3          	mul	a7,t4,a1
    c0c8:	03ee8d33          	mul	s10,t4,t5
    c0cc:	039e8cb3          	mul	s9,t4,s9
    c0d0:	026e8c33          	mul	s8,t4,t1
    c0d4:	037e8bb3          	mul	s7,t4,s7
    c0d8:	025e8b33          	mul	s6,t4,t0
    c0dc:	03be8ab3          	mul	s5,t4,s11
    c0e0:	034e8a33          	mul	s4,t4,s4
    c0e4:	03fe89b3          	mul	s3,t4,t6
    c0e8:	032e8933          	mul	s2,t4,s2
    c0ec:	ee043503          	ld	a0,-288(s0)
    c0f0:	02ae84b3          	mul	s1,t4,a0
    c0f4:	02ce8fb3          	mul	t6,t4,a2
    c0f8:	02fe8f33          	mul	t5,t4,a5
    c0fc:	030e8db3          	mul	s11,t4,a6
    c100:	ee843503          	ld	a0,-280(s0)
    c104:	02ae80b3          	mul	ra,t4,a0
    c108:	ef043503          	ld	a0,-272(s0)
    c10c:	02ae8e33          	mul	t3,t4,a0
    c110:	ef843503          	ld	a0,-264(s0)
    c114:	02ae8633          	mul	a2,t4,a0
    c118:	a9043503          	ld	a0,-1392(s0)
    c11c:	02ae85b3          	mul	a1,t4,a0
    c120:	a9843503          	ld	a0,-1384(s0)
    c124:	02ae8533          	mul	a0,t4,a0
    c128:	aa043703          	ld	a4,-1376(s0)
    c12c:	02ee82b3          	mul	t0,t4,a4
    c130:	f0043703          	ld	a4,-256(s0)
    c134:	02ee8833          	mul	a6,t4,a4
    c138:	f0843703          	ld	a4,-248(s0)
    c13c:	02ee87b3          	mul	a5,t4,a4
    c140:	ed843703          	ld	a4,-296(s0)
    c144:	02ee8eb3          	mul	t4,t4,a4
    c148:	e3843703          	ld	a4,-456(s0)
    c14c:	00ee8733          	add	a4,t4,a4
    c150:	e2e43c23          	sd	a4,-456(s0)
    c154:	e4043e83          	ld	t4,-448(s0)
    c158:	01d78eb3          	add	t4,a5,t4
    c15c:	e5d43023          	sd	t4,-448(s0)
    c160:	e9043783          	ld	a5,-368(s0)
    c164:	e4843e83          	ld	t4,-440(s0)
    c168:	01d80eb3          	add	t4,a6,t4
    c16c:	e5d43423          	sd	t4,-440(s0)
    c170:	e8843803          	ld	a6,-376(s0)
    c174:	e3043703          	ld	a4,-464(s0)
    c178:	00e28733          	add	a4,t0,a4
    c17c:	e2e43823          	sd	a4,-464(s0)
    c180:	b8043703          	ld	a4,-1152(s0)
    c184:	00e50733          	add	a4,a0,a4
    c188:	b8e43023          	sd	a4,-1152(s0)
    c18c:	c2043503          	ld	a0,-992(s0)
    c190:	00a58533          	add	a0,a1,a0
    c194:	c2a43023          	sd	a0,-992(s0)
    c198:	e6043503          	ld	a0,-416(s0)
    c19c:	00a60533          	add	a0,a2,a0
    c1a0:	e6a43023          	sd	a0,-416(s0)
    c1a4:	e5043503          	ld	a0,-432(s0)
    c1a8:	00ae0533          	add	a0,t3,a0
    c1ac:	e4a43823          	sd	a0,-432(s0)
    c1b0:	e6843503          	ld	a0,-408(s0)
    c1b4:	00a08533          	add	a0,ra,a0
    c1b8:	e6a43423          	sd	a0,-408(s0)
    c1bc:	f3043503          	ld	a0,-208(s0)
    c1c0:	00ad8533          	add	a0,s11,a0
    c1c4:	f2a43823          	sd	a0,-208(s0)
    c1c8:	f3043d83          	ld	s11,-208(s0)
    c1cc:	e7043503          	ld	a0,-400(s0)
    c1d0:	00af0533          	add	a0,t5,a0
    c1d4:	e6a43823          	sd	a0,-400(s0)
    c1d8:	e7843503          	ld	a0,-392(s0)
    c1dc:	00af8533          	add	a0,t6,a0
    c1e0:	e6a43c23          	sd	a0,-392(s0)
    c1e4:	e8043503          	ld	a0,-384(s0)
    c1e8:	00a48533          	add	a0,s1,a0
    c1ec:	e8a43023          	sd	a0,-384(s0)
    c1f0:	e5843503          	ld	a0,-424(s0)
    c1f4:	00a90533          	add	a0,s2,a0
    c1f8:	e4a43c23          	sd	a0,-424(s0)
    c1fc:	f3843503          	ld	a0,-200(s0)
    c200:	00a98533          	add	a0,s3,a0
    c204:	f2a43c23          	sd	a0,-200(s0)
    c208:	f3843603          	ld	a2,-200(s0)
    c20c:	f4043503          	ld	a0,-192(s0)
    c210:	00aa0533          	add	a0,s4,a0
    c214:	ea843a03          	ld	s4,-344(s0)
    c218:	f4a43023          	sd	a0,-192(s0)
    c21c:	f4043983          	ld	s3,-192(s0)
    c220:	f4843503          	ld	a0,-184(s0)
    c224:	00aa8533          	add	a0,s5,a0
    c228:	ec043a83          	ld	s5,-320(s0)
    c22c:	f4a43423          	sd	a0,-184(s0)
    c230:	f4843f83          	ld	t6,-184(s0)
    c234:	f5043503          	ld	a0,-176(s0)
    c238:	00ab0533          	add	a0,s6,a0
    c23c:	eb843b03          	ld	s6,-328(s0)
    c240:	f4a43823          	sd	a0,-176(s0)
    c244:	f5043903          	ld	s2,-176(s0)
    c248:	f5843503          	ld	a0,-168(s0)
    c24c:	00ab8533          	add	a0,s7,a0
    c250:	f4a43c23          	sd	a0,-168(s0)
    c254:	f5843f03          	ld	t5,-168(s0)
    c258:	f6043503          	ld	a0,-160(s0)
    c25c:	00ac0533          	add	a0,s8,a0
    c260:	f6a43023          	sd	a0,-160(s0)
    c264:	f6043e83          	ld	t4,-160(s0)
    c268:	f6843503          	ld	a0,-152(s0)
    c26c:	00ac8533          	add	a0,s9,a0
    c270:	f6a43423          	sd	a0,-152(s0)
    c274:	f6843e03          	ld	t3,-152(s0)
    c278:	f7043503          	ld	a0,-144(s0)
    c27c:	00ad0533          	add	a0,s10,a0
    c280:	f6a43823          	sd	a0,-144(s0)
    c284:	f7043283          	ld	t0,-144(s0)
    c288:	f7843503          	ld	a0,-136(s0)
    c28c:	00a88533          	add	a0,a7,a0
    c290:	b2043083          	ld	ra,-1248(s0)
    c294:	f6a43c23          	sd	a0,-136(s0)
    c298:	f7843b83          	ld	s7,-136(s0)
    c29c:	f8043503          	ld	a0,-128(s0)
    c2a0:	00a68533          	add	a0,a3,a0
    c2a4:	f8843303          	ld	t1,-120(s0)
    c2a8:	f8a43023          	sd	a0,-128(s0)
    c2ac:	b1843503          	ld	a0,-1256(s0)
    c2b0:	f8043583          	ld	a1,-128(s0)
    c2b4:	ed043683          	ld	a3,-304(s0)
    c2b8:	01068833          	add	a6,a3,a6
    c2bc:	eb043683          	ld	a3,-336(s0)
    c2c0:	f2843703          	ld	a4,-216(s0)
    c2c4:	00f707b3          	add	a5,a4,a5
    c2c8:	e9843703          	ld	a4,-360(s0)
    c2cc:	ea043d03          	ld	s10,-352(s0)
    c2d0:	ab843883          	ld	a7,-1352(s0)
    c2d4:	00e88733          	add	a4,a7,a4
    c2d8:	ac843883          	ld	a7,-1336(s0)
    c2dc:	01a88d33          	add	s10,a7,s10
    c2e0:	a8843883          	ld	a7,-1400(s0)
    c2e4:	00d886b3          	add	a3,a7,a3
    c2e8:	f2043883          	ld	a7,-224(s0)
    c2ec:	01488a33          	add	s4,a7,s4
    c2f0:	f1043883          	ld	a7,-240(s0)
    c2f4:	01588ab3          	add	s5,a7,s5
    c2f8:	f1843883          	ld	a7,-232(s0)
    c2fc:	01688b33          	add	s6,a7,s6
    c300:	18038393          	addi	t2,t2,384
    c304:	e8050513          	addi	a0,a0,-384 # 5e80 <.LBB64_316+0xc>
    c308:	00130313          	addi	t1,t1,1
    c30c:	d4051a63          	bnez	a0,b860 <.LBB64_1033>
    c310:	b6043f03          	ld	t5,-1184(s0)
    c314:	b6843c03          	ld	s8,-1176(s0)
    c318:	b7043b83          	ld	s7,-1168(s0)
    c31c:	b5843983          	ld	s3,-1192(s0)
    c320:	b5043e83          	ld	t4,-1200(s0)
    c324:	b4843e03          	ld	t3,-1208(s0)
    c328:	b4043383          	ld	t2,-1216(s0)
    c32c:	b3843303          	ld	t1,-1224(s0)
    c330:	b3043d83          	ld	s11,-1232(s0)
    c334:	b2843c83          	ld	s9,-1240(s0)
    c338:	ead43823          	sd	a3,-336(s0)
    c33c:	eb443423          	sd	s4,-344(s0)
    c340:	ed543023          	sd	s5,-320(s0)
    c344:	eb643c23          	sd	s6,-328(s0)
    c348:	a7843583          	ld	a1,-1416(s0)
    c34c:	00259593          	slli	a1,a1,0x2
    c350:	00001537          	lui	a0,0x1
    c354:	40a40533          	sub	a0,s0,a0
    c358:	d7053503          	ld	a0,-656(a0) # d70 <.LBB64_3+0xb58>
    c35c:	00b50533          	add	a0,a0,a1
    c360:	00001637          	lui	a2,0x1
    c364:	40c40633          	sub	a2,s0,a2
    c368:	d6863603          	ld	a2,-664(a2) # d68 <.LBB64_3+0xb50>
    c36c:	00b605b3          	add	a1,a2,a1
    c370:	00c5a603          	lw	a2,12(a1)
    c374:	00c52883          	lw	a7,12(a0)
    c378:	000016b7          	lui	a3,0x1
    c37c:	40d406b3          	sub	a3,s0,a3
    c380:	d186b683          	ld	a3,-744(a3) # d18 <.LBB64_3+0xb00>
    c384:	3006a283          	lw	t0,768(a3)
    c388:	00261693          	slli	a3,a2,0x2
    c38c:	b1143823          	sd	a7,-1264(s0)
    c390:	b7843603          	ld	a2,-1160(s0)
    c394:	01160633          	add	a2,a2,a7
    c398:	b0d43423          	sd	a3,-1272(s0)
    c39c:	00d60633          	add	a2,a2,a3
    c3a0:	00560633          	add	a2,a2,t0
    c3a4:	1006061b          	addiw	a2,a2,256
    c3a8:	400006b7          	lui	a3,0x40000
    c3ac:	82c43823          	sd	a2,-2000(s0)
    c3b0:	00065463          	bgez	a2,c3b8 <.LBB64_1036>
    c3b4:	c00006b7          	lui	a3,0xc0000

000000000000c3b8 <.LBB64_1036>:
    c3b8:	00001637          	lui	a2,0x1
    c3bc:	40c40633          	sub	a2,s0,a2
    c3c0:	7ed63c23          	sd	a3,2040(a2) # 17f8 <.LBB64_5+0xf0>
    c3c4:	0085a603          	lw	a2,8(a1)
    c3c8:	00852683          	lw	a3,8(a0)
    c3cc:	00261893          	slli	a7,a2,0x2
    c3d0:	b0d43023          	sd	a3,-1280(s0)
    c3d4:	00df0633          	add	a2,t5,a3
    c3d8:	af143c23          	sd	a7,-1288(s0)
    c3dc:	01160633          	add	a2,a2,a7
    c3e0:	00560633          	add	a2,a2,t0
    c3e4:	1006061b          	addiw	a2,a2,256
    c3e8:	400006b7          	lui	a3,0x40000
    c3ec:	82c43023          	sd	a2,-2016(s0)
    c3f0:	00030493          	mv	s1,t1
    c3f4:	00038913          	mv	s2,t2
    c3f8:	000e0f93          	mv	t6,t3
    c3fc:	000e8f13          	mv	t5,t4
    c400:	00065463          	bgez	a2,c408 <.LBB64_1038>
    c404:	c00006b7          	lui	a3,0xc0000

000000000000c408 <.LBB64_1038>:
    c408:	0045a603          	lw	a2,4(a1)
    c40c:	00452883          	lw	a7,4(a0)
    c410:	00261313          	slli	t1,a2,0x2
    c414:	af143823          	sd	a7,-1296(s0)
    c418:	011c0633          	add	a2,s8,a7
    c41c:	ae643423          	sd	t1,-1304(s0)
    c420:	00660633          	add	a2,a2,t1
    c424:	00560633          	add	a2,a2,t0
    c428:	1006061b          	addiw	a2,a2,256
    c42c:	400008b7          	lui	a7,0x40000
    c430:	80c43c23          	sd	a2,-2024(s0)
    c434:	00065463          	bgez	a2,c43c <.LBB64_1040>
    c438:	c00008b7          	lui	a7,0xc0000

000000000000c43c <.LBB64_1040>:
    c43c:	0005a603          	lw	a2,0(a1)
    c440:	00052303          	lw	t1,0(a0)
    c444:	00261393          	slli	t2,a2,0x2
    c448:	ae643023          	sd	t1,-1312(s0)
    c44c:	006b8633          	add	a2,s7,t1
    c450:	ac743c23          	sd	t2,-1320(s0)
    c454:	00760633          	add	a2,a2,t2
    c458:	00560633          	add	a2,a2,t0
    c45c:	1006061b          	addiw	a2,a2,256
    c460:	40000337          	lui	t1,0x40000
    c464:	80c43023          	sd	a2,-2048(s0)
    c468:	00065463          	bgez	a2,c470 <.LBB64_1042>
    c46c:	c0000337          	lui	t1,0xc0000

000000000000c470 <.LBB64_1042>:
    c470:	0105a603          	lw	a2,16(a1)
    c474:	01052383          	lw	t2,16(a0)
    c478:	00261e13          	slli	t3,a2,0x2
    c47c:	ac743823          	sd	t2,-1328(s0)
    c480:	00798633          	add	a2,s3,t2
    c484:	adc43423          	sd	t3,-1336(s0)
    c488:	01c60633          	add	a2,a2,t3
    c48c:	00560633          	add	a2,a2,t0
    c490:	1006061b          	addiw	a2,a2,256
    c494:	400003b7          	lui	t2,0x40000
    c498:	00001e37          	lui	t3,0x1
    c49c:	41c40e33          	sub	t3,s0,t3
    c4a0:	7ece3023          	sd	a2,2016(t3) # 17e0 <.LBB64_5+0xd8>
    c4a4:	00065463          	bgez	a2,c4ac <.LBB64_1044>
    c4a8:	c00003b7          	lui	t2,0xc0000

000000000000c4ac <.LBB64_1044>:
    c4ac:	0145a603          	lw	a2,20(a1)
    c4b0:	01452e03          	lw	t3,20(a0)
    c4b4:	00261e93          	slli	t4,a2,0x2
    c4b8:	adc43023          	sd	t3,-1344(s0)
    c4bc:	01cf0633          	add	a2,t5,t3
    c4c0:	abd43c23          	sd	t4,-1352(s0)
    c4c4:	01d60633          	add	a2,a2,t4
    c4c8:	00560633          	add	a2,a2,t0
    c4cc:	1006061b          	addiw	a2,a2,256
    c4d0:	40000e37          	lui	t3,0x40000
    c4d4:	00001eb7          	lui	t4,0x1
    c4d8:	41d40eb3          	sub	t4,s0,t4
    c4dc:	7cceb823          	sd	a2,2000(t4) # 17d0 <.LBB64_5+0xc8>
    c4e0:	00065463          	bgez	a2,c4e8 <.LBB64_1046>
    c4e4:	c0000e37          	lui	t3,0xc0000

000000000000c4e8 <.LBB64_1046>:
    c4e8:	0185a603          	lw	a2,24(a1)
    c4ec:	01852e83          	lw	t4,24(a0)
    c4f0:	00261f13          	slli	t5,a2,0x2
    c4f4:	abd43823          	sd	t4,-1360(s0)
    c4f8:	01df8633          	add	a2,t6,t4
    c4fc:	abe43423          	sd	t5,-1368(s0)
    c500:	01e60633          	add	a2,a2,t5
    c504:	00560633          	add	a2,a2,t0
    c508:	1006061b          	addiw	a2,a2,256
    c50c:	40000eb7          	lui	t4,0x40000
    c510:	00001f37          	lui	t5,0x1
    c514:	41e40f33          	sub	t5,s0,t5
    c518:	7acf3c23          	sd	a2,1976(t5) # 17b8 <.LBB64_5+0xb0>
    c51c:	00065463          	bgez	a2,c524 <.LBB64_1048>
    c520:	c0000eb7          	lui	t4,0xc0000

000000000000c524 <.LBB64_1048>:
    c524:	01c5a603          	lw	a2,28(a1)
    c528:	01c52f03          	lw	t5,28(a0)
    c52c:	00261f93          	slli	t6,a2,0x2
    c530:	abe43023          	sd	t5,-1376(s0)
    c534:	01e90633          	add	a2,s2,t5
    c538:	a9f43c23          	sd	t6,-1384(s0)
    c53c:	01f60633          	add	a2,a2,t6
    c540:	00560633          	add	a2,a2,t0
    c544:	1006061b          	addiw	a2,a2,256
    c548:	40000f37          	lui	t5,0x40000
    c54c:	00001fb7          	lui	t6,0x1
    c550:	41f40fb3          	sub	t6,s0,t6
    c554:	7acfb023          	sd	a2,1952(t6) # 17a0 <.LBB64_5+0x98>
    c558:	00065463          	bgez	a2,c560 <.LBB64_1050>
    c55c:	c0000f37          	lui	t5,0xc0000

000000000000c560 <.LBB64_1050>:
    c560:	00001637          	lui	a2,0x1
    c564:	40c40633          	sub	a2,s0,a2
    c568:	79e63023          	sd	t5,1920(a2) # 1780 <.LBB64_5+0x78>
    c56c:	00001637          	lui	a2,0x1
    c570:	40c40633          	sub	a2,s0,a2
    c574:	79d63c23          	sd	t4,1944(a2) # 1798 <.LBB64_5+0x90>
    c578:	00001637          	lui	a2,0x1
    c57c:	40c40633          	sub	a2,s0,a2
    c580:	7bc63823          	sd	t3,1968(a2) # 17b0 <.LBB64_5+0xa8>
    c584:	00001637          	lui	a2,0x1
    c588:	40c40633          	sub	a2,s0,a2
    c58c:	7c763023          	sd	t2,1984(a2) # 17c0 <.LBB64_5+0xb8>
    c590:	00001637          	lui	a2,0x1
    c594:	40c40633          	sub	a2,s0,a2
    c598:	7c663c23          	sd	t1,2008(a2) # 17d8 <.LBB64_5+0xd0>
    c59c:	00001637          	lui	a2,0x1
    c5a0:	40c40633          	sub	a2,s0,a2
    c5a4:	7f163823          	sd	a7,2032(a2) # 17f0 <.LBB64_5+0xe8>
    c5a8:	80d43423          	sd	a3,-2040(s0)
    c5ac:	e9043423          	sd	a6,-376(s0)
    c5b0:	e8f43823          	sd	a5,-368(s0)
    c5b4:	e8e43c23          	sd	a4,-360(s0)
    c5b8:	eba43023          	sd	s10,-352(s0)
    c5bc:	0205a603          	lw	a2,32(a1)
    c5c0:	02052683          	lw	a3,32(a0)
    c5c4:	00261713          	slli	a4,a2,0x2
    c5c8:	a8d43823          	sd	a3,-1392(s0)
    c5cc:	00d48633          	add	a2,s1,a3
    c5d0:	a8e43423          	sd	a4,-1400(s0)
    c5d4:	00e60633          	add	a2,a2,a4
    c5d8:	00560633          	add	a2,a2,t0
    c5dc:	1006061b          	addiw	a2,a2,256
    c5e0:	400006b7          	lui	a3,0x40000
    c5e4:	00001737          	lui	a4,0x1
    c5e8:	40e40733          	sub	a4,s0,a4
    c5ec:	78c73823          	sd	a2,1936(a4) # 1790 <.LBB64_5+0x88>
    c5f0:	00065463          	bgez	a2,c5f8 <.LBB64_1052>
    c5f4:	c00006b7          	lui	a3,0xc0000

000000000000c5f8 <.LBB64_1052>:
    c5f8:	00001637          	lui	a2,0x1
    c5fc:	40c40633          	sub	a2,s0,a2
    c600:	76d63c23          	sd	a3,1912(a2) # 1778 <.LBB64_5+0x70>
    c604:	07c52603          	lw	a2,124(a0)
    c608:	f2c43023          	sd	a2,-224(s0)
    c60c:	07852603          	lw	a2,120(a0)
    c610:	f0c43c23          	sd	a2,-232(s0)
    c614:	07452603          	lw	a2,116(a0)
    c618:	f0c43823          	sd	a2,-240(s0)
    c61c:	07052603          	lw	a2,112(a0)
    c620:	f0c43423          	sd	a2,-248(s0)
    c624:	06c52603          	lw	a2,108(a0)
    c628:	f0c43023          	sd	a2,-256(s0)
    c62c:	06852603          	lw	a2,104(a0)
    c630:	eec43c23          	sd	a2,-264(s0)
    c634:	06452603          	lw	a2,100(a0)
    c638:	eec43823          	sd	a2,-272(s0)
    c63c:	06052603          	lw	a2,96(a0)
    c640:	eec43423          	sd	a2,-280(s0)
    c644:	05c52603          	lw	a2,92(a0)
    c648:	eec43023          	sd	a2,-288(s0)
    c64c:	05852603          	lw	a2,88(a0)
    c650:	ecc43c23          	sd	a2,-296(s0)
    c654:	05452603          	lw	a2,84(a0)
    c658:	ecc43823          	sd	a2,-304(s0)
    c65c:	05052603          	lw	a2,80(a0)
    c660:	ecc43423          	sd	a2,-312(s0)
    c664:	04c52603          	lw	a2,76(a0)
    c668:	b6c43c23          	sd	a2,-1160(s0)
    c66c:	04852603          	lw	a2,72(a0)
    c670:	b6c43823          	sd	a2,-1168(s0)
    c674:	04452603          	lw	a2,68(a0)
    c678:	b6c43423          	sd	a2,-1176(s0)
    c67c:	04052603          	lw	a2,64(a0)
    c680:	b6c43023          	sd	a2,-1184(s0)
    c684:	03c52603          	lw	a2,60(a0)
    c688:	b4c43c23          	sd	a2,-1192(s0)
    c68c:	03852603          	lw	a2,56(a0)
    c690:	b4c43823          	sd	a2,-1200(s0)
    c694:	03452603          	lw	a2,52(a0)
    c698:	b4c43423          	sd	a2,-1208(s0)
    c69c:	03052603          	lw	a2,48(a0)
    c6a0:	b4c43023          	sd	a2,-1216(s0)
    c6a4:	02c52603          	lw	a2,44(a0)
    c6a8:	b2c43c23          	sd	a2,-1224(s0)
    c6ac:	02852603          	lw	a2,40(a0)
    c6b0:	b0c43c23          	sd	a2,-1256(s0)
    c6b4:	02452b83          	lw	s7,36(a0)
    c6b8:	07c5a503          	lw	a0,124(a1)
    c6bc:	a6a43023          	sd	a0,-1440(s0)
    c6c0:	0785a503          	lw	a0,120(a1)
    c6c4:	a4a43c23          	sd	a0,-1448(s0)
    c6c8:	0745a503          	lw	a0,116(a1)
    c6cc:	a4a43823          	sd	a0,-1456(s0)
    c6d0:	0705a383          	lw	t2,112(a1)
    c6d4:	06c5a303          	lw	t1,108(a1)
    c6d8:	0685a783          	lw	a5,104(a1)
    c6dc:	0645a683          	lw	a3,100(a1)
    c6e0:	0605a503          	lw	a0,96(a1)
    c6e4:	05c5a603          	lw	a2,92(a1)
    c6e8:	0585a803          	lw	a6,88(a1)
    c6ec:	0545a883          	lw	a7,84(a1)
    c6f0:	0505a703          	lw	a4,80(a1)
    c6f4:	04c5ae03          	lw	t3,76(a1)
    c6f8:	0485ae83          	lw	t4,72(a1)
    c6fc:	0445af03          	lw	t5,68(a1)
    c700:	0405af83          	lw	t6,64(a1)
    c704:	03c5a483          	lw	s1,60(a1)
    c708:	0385a903          	lw	s2,56(a1)
    c70c:	0345aa03          	lw	s4,52(a1)
    c710:	0245a983          	lw	s3,36(a1)
    c714:	0305aa83          	lw	s5,48(a1)
    c718:	02c5ab03          	lw	s6,44(a1)
    c71c:	0285a583          	lw	a1,40(a1)
    c720:	00299c13          	slli	s8,s3,0x2
    c724:	a9743023          	sd	s7,-1408(s0)
    c728:	017d89b3          	add	s3,s11,s7
    c72c:	b3843823          	sd	s8,-1232(s0)
    c730:	01898bb3          	add	s7,s3,s8
    c734:	000019b7          	lui	s3,0x1
    c738:	413409b3          	sub	s3,s0,s3
    c73c:	d189bc03          	ld	s8,-744(s3) # d18 <.LBB64_3+0xb00>
    c740:	304c2983          	lw	s3,772(s8)
    c744:	308c2083          	lw	ra,776(s8)
    c748:	f8143423          	sd	ra,-120(s0)
    c74c:	30cc2c03          	lw	s8,780(s8)
    c750:	f3843423          	sd	s8,-216(s0)
    c754:	005b8bb3          	add	s7,s7,t0
    c758:	100b8b9b          	addiw	s7,s7,256 # ffffffffc0000100 <.Lfunc_end80+0xffffffffbffd7734>
    c75c:	40000c37          	lui	s8,0x40000
    c760:	00001d37          	lui	s10,0x1
    c764:	41a40d33          	sub	s10,s0,s10
    c768:	5f7d3823          	sd	s7,1520(s10) # 15f0 <.LBB64_4+0x484>
    c76c:	000bd463          	bgez	s7,c774 <.LBB64_1054>
    c770:	c0000c37          	lui	s8,0xc0000

000000000000c774 <.LBB64_1054>:
    c774:	00001bb7          	lui	s7,0x1
    c778:	41740bb3          	sub	s7,s0,s7
    c77c:	5f8bb423          	sd	s8,1512(s7) # 15e8 <.LBB64_4+0x47c>
    c780:	00259b93          	slli	s7,a1,0x2
    c784:	b1843583          	ld	a1,-1256(s0)
    c788:	00bc85b3          	add	a1,s9,a1
    c78c:	b3743423          	sd	s7,-1240(s0)
    c790:	017585b3          	add	a1,a1,s7
    c794:	005585b3          	add	a1,a1,t0
    c798:	1005859b          	addiw	a1,a1,256
    c79c:	40000bb7          	lui	s7,0x40000
    c7a0:	a7743823          	sd	s7,-1424(s0)
    c7a4:	a6843b83          	ld	s7,-1432(s0)
    c7a8:	b8043c03          	ld	s8,-1152(s0)
    c7ac:	00001cb7          	lui	s9,0x1
    c7b0:	41940cb3          	sub	s9,s0,s9
    c7b4:	5ebcbc23          	sd	a1,1528(s9) # 15f8 <.LBB64_4+0x48c>
    c7b8:	0005d663          	bgez	a1,c7c4 <.LBB64_1056>
    c7bc:	c00005b7          	lui	a1,0xc0000
    c7c0:	a6b43823          	sd	a1,-1424(s0)

000000000000c7c4 <.LBB64_1056>:
    c7c4:	002b1b13          	slli	s6,s6,0x2
    c7c8:	b3843583          	ld	a1,-1224(s0)
    c7cc:	b8843c83          	ld	s9,-1144(s0)
    c7d0:	00bc85b3          	add	a1,s9,a1
    c7d4:	b9643423          	sd	s6,-1144(s0)
    c7d8:	016585b3          	add	a1,a1,s6
    c7dc:	005585b3          	add	a1,a1,t0
    c7e0:	1005859b          	addiw	a1,a1,256 # ffffffffc0000100 <.Lfunc_end80+0xffffffffbffd7734>
    c7e4:	40000b37          	lui	s6,0x40000
    c7e8:	00001cb7          	lui	s9,0x1
    c7ec:	41940cb3          	sub	s9,s0,s9
    c7f0:	60bcb423          	sd	a1,1544(s9) # 1608 <.LBB64_4+0x49c>
    c7f4:	b9043d03          	ld	s10,-1136(s0)
    c7f8:	0005d463          	bgez	a1,c800 <.LBB64_1058>
    c7fc:	c0000b37          	lui	s6,0xc0000

000000000000c800 <.LBB64_1058>:
    c800:	000015b7          	lui	a1,0x1
    c804:	40b405b3          	sub	a1,s0,a1
    c808:	6165b023          	sd	s6,1536(a1) # 1600 <.LBB64_4+0x494>
    c80c:	002a9a93          	slli	s5,s5,0x2
    c810:	b4043583          	ld	a1,-1216(s0)
    c814:	b9843b03          	ld	s6,-1128(s0)
    c818:	00bb05b3          	add	a1,s6,a1
    c81c:	b9543c23          	sd	s5,-1128(s0)
    c820:	015585b3          	add	a1,a1,s5
    c824:	005585b3          	add	a1,a1,t0
    c828:	1005859b          	addiw	a1,a1,256
    c82c:	40000ab7          	lui	s5,0x40000
    c830:	ba043b03          	ld	s6,-1120(s0)
    c834:	00001cb7          	lui	s9,0x1
    c838:	41940cb3          	sub	s9,s0,s9
    c83c:	60bcbc23          	sd	a1,1560(s9) # 1618 <.LBB64_4+0x4ac>
    c840:	bb043c83          	ld	s9,-1104(s0)
    c844:	0005d463          	bgez	a1,c84c <.LBB64_1060>
    c848:	c0000ab7          	lui	s5,0xc0000

000000000000c84c <.LBB64_1060>:
    c84c:	000015b7          	lui	a1,0x1
    c850:	40b405b3          	sub	a1,s0,a1
    c854:	6155b823          	sd	s5,1552(a1) # 1610 <.LBB64_4+0x4a4>
    c858:	002a1a13          	slli	s4,s4,0x2
    c85c:	b4843583          	ld	a1,-1208(s0)
    c860:	ba843a83          	ld	s5,-1112(s0)
    c864:	00ba85b3          	add	a1,s5,a1
    c868:	bb443423          	sd	s4,-1112(s0)
    c86c:	014585b3          	add	a1,a1,s4
    c870:	005585b3          	add	a1,a1,t0
    c874:	1005859b          	addiw	a1,a1,256
    c878:	40000a37          	lui	s4,0x40000
    c87c:	c2043a83          	ld	s5,-992(s0)
    c880:	00001db7          	lui	s11,0x1
    c884:	41b40db3          	sub	s11,s0,s11
    c888:	62bdb423          	sd	a1,1576(s11) # 1628 <.LBB64_4+0x4bc>
    c88c:	c1843d83          	ld	s11,-1000(s0)
    c890:	0005d463          	bgez	a1,c898 <.LBB64_1062>
    c894:	c0000a37          	lui	s4,0xc0000

000000000000c898 <.LBB64_1062>:
    c898:	000015b7          	lui	a1,0x1
    c89c:	40b405b3          	sub	a1,s0,a1
    c8a0:	6345b023          	sd	s4,1568(a1) # 1620 <.LBB64_4+0x4b4>
    c8a4:	00291913          	slli	s2,s2,0x2
    c8a8:	b5043583          	ld	a1,-1200(s0)
    c8ac:	00bc85b3          	add	a1,s9,a1
    c8b0:	bb243823          	sd	s2,-1104(s0)
    c8b4:	012585b3          	add	a1,a1,s2
    c8b8:	005585b3          	add	a1,a1,t0
    c8bc:	1005859b          	addiw	a1,a1,256
    c8c0:	40000937          	lui	s2,0x40000
    c8c4:	00001a37          	lui	s4,0x1
    c8c8:	41440a33          	sub	s4,s0,s4
    c8cc:	62ba3c23          	sd	a1,1592(s4) # 1638 <.LBB64_4+0x4cc>
    c8d0:	c2843c83          	ld	s9,-984(s0)
    c8d4:	0005d463          	bgez	a1,c8dc <.LBB64_1064>
    c8d8:	c0000937          	lui	s2,0xc0000

000000000000c8dc <.LBB64_1064>:
    c8dc:	000015b7          	lui	a1,0x1
    c8e0:	40b405b3          	sub	a1,s0,a1
    c8e4:	6325b823          	sd	s2,1584(a1) # 1630 <.LBB64_4+0x4c4>
    c8e8:	00249913          	slli	s2,s1,0x2
    c8ec:	b5843583          	ld	a1,-1192(s0)
    c8f0:	bb843483          	ld	s1,-1096(s0)
    c8f4:	00b485b3          	add	a1,s1,a1
    c8f8:	bb243c23          	sd	s2,-1096(s0)
    c8fc:	012585b3          	add	a1,a1,s2
    c900:	005585b3          	add	a1,a1,t0
    c904:	1005859b          	addiw	a1,a1,256
    c908:	40000a37          	lui	s4,0x40000
    c90c:	e5043903          	ld	s2,-432(s0)
    c910:	000014b7          	lui	s1,0x1
    c914:	409404b3          	sub	s1,s0,s1
    c918:	64b4b423          	sd	a1,1608(s1) # 1648 <.LBB64_4+0x4dc>
    c91c:	0005d463          	bgez	a1,c924 <.LBB64_1066>
    c920:	c0000a37          	lui	s4,0xc0000

000000000000c924 <.LBB64_1066>:
    c924:	002f9f93          	slli	t6,t6,0x2
    c928:	b6043583          	ld	a1,-1184(s0)
    c92c:	bc043483          	ld	s1,-1088(s0)
    c930:	00b485b3          	add	a1,s1,a1
    c934:	bdf43023          	sd	t6,-1088(s0)
    c938:	01f585b3          	add	a1,a1,t6
    c93c:	005585b3          	add	a1,a1,t0
    c940:	1005859b          	addiw	a1,a1,256
    c944:	40000fb7          	lui	t6,0x40000
    c948:	000014b7          	lui	s1,0x1
    c94c:	409404b3          	sub	s1,s0,s1
    c950:	64b4bc23          	sd	a1,1624(s1) # 1658 <.LBB64_4+0x4ec>
    c954:	bd043483          	ld	s1,-1072(s0)
    c958:	0005d463          	bgez	a1,c960 <.LBB64_1068>
    c95c:	c0000fb7          	lui	t6,0xc0000

000000000000c960 <.LBB64_1068>:
    c960:	000015b7          	lui	a1,0x1
    c964:	40b405b3          	sub	a1,s0,a1
    c968:	65f5b823          	sd	t6,1616(a1) # 1650 <.LBB64_4+0x4e4>
    c96c:	002f1f93          	slli	t6,t5,0x2
    c970:	b6843583          	ld	a1,-1176(s0)
    c974:	bc843f03          	ld	t5,-1080(s0)
    c978:	00bf05b3          	add	a1,t5,a1
    c97c:	bdf43423          	sd	t6,-1080(s0)
    c980:	01f585b3          	add	a1,a1,t6
    c984:	005585b3          	add	a1,a1,t0
    c988:	1005859b          	addiw	a1,a1,256
    c98c:	40000fb7          	lui	t6,0x40000
    c990:	00001f37          	lui	t5,0x1
    c994:	41e40f33          	sub	t5,s0,t5
    c998:	66bf3423          	sd	a1,1640(t5) # 1668 <.LBB64_4+0x4fc>
    c99c:	0005d463          	bgez	a1,c9a4 <.LBB64_1070>
    c9a0:	c0000fb7          	lui	t6,0xc0000

000000000000c9a4 <.LBB64_1070>:
    c9a4:	002e9e93          	slli	t4,t4,0x2
    c9a8:	b7043583          	ld	a1,-1168(s0)
    c9ac:	00b485b3          	add	a1,s1,a1
    c9b0:	000e8493          	mv	s1,t4
    c9b4:	01d585b3          	add	a1,a1,t4
    c9b8:	005585b3          	add	a1,a1,t0
    c9bc:	1005859b          	addiw	a1,a1,256
    c9c0:	40000eb7          	lui	t4,0x40000
    c9c4:	00001f37          	lui	t5,0x1
    c9c8:	41e40f33          	sub	t5,s0,t5
    c9cc:	66bf3c23          	sd	a1,1656(t5) # 1678 <.LBB64_4+0x50c>
    c9d0:	0005d463          	bgez	a1,c9d8 <.LBB64_1072>
    c9d4:	c0000eb7          	lui	t4,0xc0000

000000000000c9d8 <.LBB64_1072>:
    c9d8:	000015b7          	lui	a1,0x1
    c9dc:	40b405b3          	sub	a1,s0,a1
    c9e0:	67f5b023          	sd	t6,1632(a1) # 1660 <.LBB64_4+0x4f4>
    c9e4:	000015b7          	lui	a1,0x1
    c9e8:	40b405b3          	sub	a1,s0,a1
    c9ec:	67d5b823          	sd	t4,1648(a1) # 1670 <.LBB64_4+0x504>
    c9f0:	002e1e93          	slli	t4,t3,0x2
    c9f4:	b7843583          	ld	a1,-1160(s0)
    c9f8:	bd843e03          	ld	t3,-1064(s0)
    c9fc:	00be05b3          	add	a1,t3,a1
    ca00:	000e8f13          	mv	t5,t4
    ca04:	01d585b3          	add	a1,a1,t4
    ca08:	005585b3          	add	a1,a1,t0
    ca0c:	1005859b          	addiw	a1,a1,256
    ca10:	40000e37          	lui	t3,0x40000
    ca14:	e7043e83          	ld	t4,-400(s0)
    ca18:	00001fb7          	lui	t6,0x1
    ca1c:	41f40fb3          	sub	t6,s0,t6
    ca20:	68bfb423          	sd	a1,1672(t6) # 1688 <.LBB64_4+0x51c>
    ca24:	0005d463          	bgez	a1,ca2c <.LBB64_1074>
    ca28:	c0000e37          	lui	t3,0xc0000

000000000000ca2c <.LBB64_1074>:
    ca2c:	000015b7          	lui	a1,0x1
    ca30:	40b405b3          	sub	a1,s0,a1
    ca34:	69c5b023          	sd	t3,1664(a1) # 1680 <.LBB64_4+0x514>
    ca38:	00271593          	slli	a1,a4,0x2
    ca3c:	ec843703          	ld	a4,-312(s0)
    ca40:	be043e03          	ld	t3,-1056(s0)
    ca44:	00ee0733          	add	a4,t3,a4
    ca48:	00b70733          	add	a4,a4,a1
    ca4c:	00570733          	add	a4,a4,t0
    ca50:	1007071b          	addiw	a4,a4,256
    ca54:	40000fb7          	lui	t6,0x40000
    ca58:	e8043e03          	ld	t3,-384(s0)
    ca5c:	000010b7          	lui	ra,0x1
    ca60:	401400b3          	sub	ra,s0,ra
    ca64:	68e0bc23          	sd	a4,1688(ra) # 1698 <.LBB64_4+0x52c>
    ca68:	00075463          	bgez	a4,ca70 <.LBB64_1076>
    ca6c:	c0000fb7          	lui	t6,0xc0000

000000000000ca70 <.LBB64_1076>:
    ca70:	00001737          	lui	a4,0x1
    ca74:	40e40733          	sub	a4,s0,a4
    ca78:	69f73823          	sd	t6,1680(a4) # 1690 <.LBB64_4+0x524>
    ca7c:	00289893          	slli	a7,a7,0x2
    ca80:	ed043703          	ld	a4,-304(s0)
    ca84:	be843f83          	ld	t6,-1048(s0)
    ca88:	00ef8733          	add	a4,t6,a4
    ca8c:	01170733          	add	a4,a4,a7
    ca90:	00570733          	add	a4,a4,t0
    ca94:	1007071b          	addiw	a4,a4,256
    ca98:	40000fb7          	lui	t6,0x40000
    ca9c:	000010b7          	lui	ra,0x1
    caa0:	401400b3          	sub	ra,s0,ra
    caa4:	6ae0b423          	sd	a4,1704(ra) # 16a8 <.LBB64_4+0x53c>
    caa8:	00075463          	bgez	a4,cab0 <.LBB64_1078>
    caac:	c0000fb7          	lui	t6,0xc0000

000000000000cab0 <.LBB64_1078>:
    cab0:	00001737          	lui	a4,0x1
    cab4:	40e40733          	sub	a4,s0,a4
    cab8:	6bf73023          	sd	t6,1696(a4) # 16a0 <.LBB64_4+0x534>
    cabc:	00281813          	slli	a6,a6,0x2
    cac0:	ed843703          	ld	a4,-296(s0)
    cac4:	bf043f83          	ld	t6,-1040(s0)
    cac8:	00ef8733          	add	a4,t6,a4
    cacc:	01070733          	add	a4,a4,a6
    cad0:	00570733          	add	a4,a4,t0
    cad4:	1007071b          	addiw	a4,a4,256
    cad8:	40000fb7          	lui	t6,0x40000
    cadc:	000010b7          	lui	ra,0x1
    cae0:	401400b3          	sub	ra,s0,ra
    cae4:	6ae0bc23          	sd	a4,1720(ra) # 16b8 <.LBB64_4+0x54c>
    cae8:	00075463          	bgez	a4,caf0 <.LBB64_1080>
    caec:	c0000fb7          	lui	t6,0xc0000

000000000000caf0 <.LBB64_1080>:
    caf0:	00001737          	lui	a4,0x1
    caf4:	40e40733          	sub	a4,s0,a4
    caf8:	6bf73823          	sd	t6,1712(a4) # 16b0 <.LBB64_4+0x544>
    cafc:	00261613          	slli	a2,a2,0x2
    cb00:	ee043703          	ld	a4,-288(s0)
    cb04:	bf843f83          	ld	t6,-1032(s0)
    cb08:	00ef8733          	add	a4,t6,a4
    cb0c:	00c70733          	add	a4,a4,a2
    cb10:	00570733          	add	a4,a4,t0
    cb14:	1007071b          	addiw	a4,a4,256
    cb18:	40000fb7          	lui	t6,0x40000
    cb1c:	000010b7          	lui	ra,0x1
    cb20:	401400b3          	sub	ra,s0,ra
    cb24:	6ce0b423          	sd	a4,1736(ra) # 16c8 <.LBB64_4+0x55c>
    cb28:	00075463          	bgez	a4,cb30 <.LBB64_1082>
    cb2c:	c0000fb7          	lui	t6,0xc0000

000000000000cb30 <.LBB64_1082>:
    cb30:	00001737          	lui	a4,0x1
    cb34:	40e40733          	sub	a4,s0,a4
    cb38:	6df73023          	sd	t6,1728(a4) # 16c0 <.LBB64_4+0x554>
    cb3c:	00251513          	slli	a0,a0,0x2
    cb40:	ee843703          	ld	a4,-280(s0)
    cb44:	c0043f83          	ld	t6,-1024(s0)
    cb48:	00ef8733          	add	a4,t6,a4
    cb4c:	00a70733          	add	a4,a4,a0
    cb50:	00570733          	add	a4,a4,t0
    cb54:	1007071b          	addiw	a4,a4,256
    cb58:	40000fb7          	lui	t6,0x40000
    cb5c:	000010b7          	lui	ra,0x1
    cb60:	401400b3          	sub	ra,s0,ra
    cb64:	6ce0bc23          	sd	a4,1752(ra) # 16d8 <.LBB64_4+0x56c>
    cb68:	00075463          	bgez	a4,cb70 <.LBB64_1084>
    cb6c:	c0000fb7          	lui	t6,0xc0000

000000000000cb70 <.LBB64_1084>:
    cb70:	00001737          	lui	a4,0x1
    cb74:	40e40733          	sub	a4,s0,a4
    cb78:	6df73823          	sd	t6,1744(a4) # 16d0 <.LBB64_4+0x564>
    cb7c:	00269693          	slli	a3,a3,0x2
    cb80:	ef043703          	ld	a4,-272(s0)
    cb84:	b2043f83          	ld	t6,-1248(s0)
    cb88:	00ef8733          	add	a4,t6,a4
    cb8c:	00d70733          	add	a4,a4,a3
    cb90:	00570733          	add	a4,a4,t0
    cb94:	1007071b          	addiw	a4,a4,256
    cb98:	40000fb7          	lui	t6,0x40000
    cb9c:	000010b7          	lui	ra,0x1
    cba0:	401400b3          	sub	ra,s0,ra
    cba4:	6ee0b423          	sd	a4,1768(ra) # 16e8 <.LBB64_4+0x57c>
    cba8:	00075463          	bgez	a4,cbb0 <.LBB64_1086>
    cbac:	c0000fb7          	lui	t6,0xc0000

000000000000cbb0 <.LBB64_1086>:
    cbb0:	00001737          	lui	a4,0x1
    cbb4:	40e40733          	sub	a4,s0,a4
    cbb8:	6ff73023          	sd	t6,1760(a4) # 16e0 <.LBB64_4+0x574>
    cbbc:	00279793          	slli	a5,a5,0x2
    cbc0:	ef843703          	ld	a4,-264(s0)
    cbc4:	c0843f83          	ld	t6,-1016(s0)
    cbc8:	00ef8733          	add	a4,t6,a4
    cbcc:	00f70733          	add	a4,a4,a5
    cbd0:	00570733          	add	a4,a4,t0
    cbd4:	1007071b          	addiw	a4,a4,256
    cbd8:	40000fb7          	lui	t6,0x40000
    cbdc:	000010b7          	lui	ra,0x1
    cbe0:	401400b3          	sub	ra,s0,ra
    cbe4:	6ee0bc23          	sd	a4,1784(ra) # 16f8 <.LBB64_4+0x58c>
    cbe8:	00075463          	bgez	a4,cbf0 <.LBB64_1088>
    cbec:	c0000fb7          	lui	t6,0xc0000

000000000000cbf0 <.LBB64_1088>:
    cbf0:	00001737          	lui	a4,0x1
    cbf4:	40e40733          	sub	a4,s0,a4
    cbf8:	6ff73823          	sd	t6,1776(a4) # 16f0 <.LBB64_4+0x584>
    cbfc:	00231313          	slli	t1,t1,0x2
    cc00:	f0043703          	ld	a4,-256(s0)
    cc04:	c1043f83          	ld	t6,-1008(s0)
    cc08:	00ef8733          	add	a4,t6,a4
    cc0c:	00670733          	add	a4,a4,t1
    cc10:	00570733          	add	a4,a4,t0
    cc14:	1007071b          	addiw	a4,a4,256
    cc18:	40000fb7          	lui	t6,0x40000
    cc1c:	000010b7          	lui	ra,0x1
    cc20:	401400b3          	sub	ra,s0,ra
    cc24:	70e0b423          	sd	a4,1800(ra) # 1708 <.LBB64_5>
    cc28:	00075463          	bgez	a4,cc30 <.LBB64_1090>
    cc2c:	c0000fb7          	lui	t6,0xc0000

000000000000cc30 <.LBB64_1090>:
    cc30:	00001737          	lui	a4,0x1
    cc34:	40e40733          	sub	a4,s0,a4
    cc38:	71f73023          	sd	t6,1792(a4) # 1700 <.LBB64_4+0x594>
    cc3c:	00239393          	slli	t2,t2,0x2
    cc40:	f0843703          	ld	a4,-248(s0)
    cc44:	00ed8733          	add	a4,s11,a4
    cc48:	00770733          	add	a4,a4,t2
    cc4c:	00570733          	add	a4,a4,t0
    cc50:	1007071b          	addiw	a4,a4,256
    cc54:	40000fb7          	lui	t6,0x40000
    cc58:	00001db7          	lui	s11,0x1
    cc5c:	41b40db3          	sub	s11,s0,s11
    cc60:	70edbc23          	sd	a4,1816(s11) # 1718 <.LBB64_5+0x10>
    cc64:	00075463          	bgez	a4,cc6c <.LBB64_1092>
    cc68:	c0000fb7          	lui	t6,0xc0000

000000000000cc6c <.LBB64_1092>:
    cc6c:	00001737          	lui	a4,0x1
    cc70:	40e40733          	sub	a4,s0,a4
    cc74:	71f73823          	sd	t6,1808(a4) # 1710 <.LBB64_5+0x8>
    cc78:	a5043d83          	ld	s11,-1456(s0)
    cc7c:	002d9d93          	slli	s11,s11,0x2
    cc80:	f1043703          	ld	a4,-240(s0)
    cc84:	00ed0733          	add	a4,s10,a4
    cc88:	01b70733          	add	a4,a4,s11
    cc8c:	00570733          	add	a4,a4,t0
    cc90:	1007071b          	addiw	a4,a4,256
    cc94:	40000fb7          	lui	t6,0x40000
    cc98:	00001d37          	lui	s10,0x1
    cc9c:	41a40d33          	sub	s10,s0,s10
    cca0:	72ed3423          	sd	a4,1832(s10) # 1728 <.LBB64_5+0x20>
    cca4:	00075463          	bgez	a4,ccac <.LBB64_1094>
    cca8:	c0000fb7          	lui	t6,0xc0000

000000000000ccac <.LBB64_1094>:
    ccac:	00001737          	lui	a4,0x1
    ccb0:	40e40733          	sub	a4,s0,a4
    ccb4:	73f73023          	sd	t6,1824(a4) # 1720 <.LBB64_5+0x18>
    ccb8:	a5843d03          	ld	s10,-1448(s0)
    ccbc:	002d1d13          	slli	s10,s10,0x2
    ccc0:	f1843703          	ld	a4,-232(s0)
    ccc4:	00ec8733          	add	a4,s9,a4
    ccc8:	01a70733          	add	a4,a4,s10
    cccc:	00570733          	add	a4,a4,t0
    ccd0:	1007071b          	addiw	a4,a4,256
    ccd4:	40000fb7          	lui	t6,0x40000
    ccd8:	00001cb7          	lui	s9,0x1
    ccdc:	41940cb3          	sub	s9,s0,s9
    cce0:	72ecbc23          	sd	a4,1848(s9) # 1738 <.LBB64_5+0x30>
    cce4:	c3043083          	ld	ra,-976(s0)
    cce8:	00075463          	bgez	a4,ccf0 <.LBB64_1096>
    ccec:	c0000fb7          	lui	t6,0xc0000

000000000000ccf0 <.LBB64_1096>:
    ccf0:	00001737          	lui	a4,0x1
    ccf4:	40e40733          	sub	a4,s0,a4
    ccf8:	65473023          	sd	s4,1600(a4) # 1640 <.LBB64_4+0x4d4>
    ccfc:	00001737          	lui	a4,0x1
    cd00:	40e40733          	sub	a4,s0,a4
    cd04:	73f73823          	sd	t6,1840(a4) # 1730 <.LBB64_5+0x28>
    cd08:	a6043c83          	ld	s9,-1440(s0)
    cd0c:	002c9c93          	slli	s9,s9,0x2
    cd10:	f2043703          	ld	a4,-224(s0)
    cd14:	00e08733          	add	a4,ra,a4
    cd18:	01970733          	add	a4,a4,s9
    cd1c:	00570733          	add	a4,a4,t0
    cd20:	1007071b          	addiw	a4,a4,256
    cd24:	400002b7          	lui	t0,0x40000
    cd28:	e4843083          	ld	ra,-440(s0)
    cd2c:	00001fb7          	lui	t6,0x1
    cd30:	41f40fb3          	sub	t6,s0,t6
    cd34:	74efb423          	sd	a4,1864(t6) # 1748 <.LBB64_5+0x40>
    cd38:	00075463          	bgez	a4,cd40 <.LBB64_1098>
    cd3c:	c00002b7          	lui	t0,0xc0000

000000000000cd40 <.LBB64_1098>:
    cd40:	f8a43823          	sd	a0,-112(s0)
    cd44:	00001537          	lui	a0,0x1
    cd48:	40a40533          	sub	a0,s0,a0
    cd4c:	74553023          	sd	t0,1856(a0) # 1740 <.LBB64_5+0x38>
    cd50:	c3843703          	ld	a4,-968(s0)
    cd54:	b1043283          	ld	t0,-1264(s0)
    cd58:	00570733          	add	a4,a4,t0
    cd5c:	b0843283          	ld	t0,-1272(s0)
    cd60:	00570733          	add	a4,a4,t0
    cd64:	01370733          	add	a4,a4,s3
    cd68:	1007071b          	addiw	a4,a4,256
    cd6c:	40000a37          	lui	s4,0x40000
    cd70:	e6843f83          	ld	t6,-408(s0)
    cd74:	d3843283          	ld	t0,-712(s0)
    cd78:	00001537          	lui	a0,0x1
    cd7c:	40a40533          	sub	a0,s0,a0
    cd80:	74e53c23          	sd	a4,1880(a0) # 1758 <.LBB64_5+0x50>
    cd84:	f9043503          	ld	a0,-112(s0)
    cd88:	00075463          	bgez	a4,cd90 <.LBB64_1100>
    cd8c:	c0000a37          	lui	s4,0xc0000

000000000000cd90 <.LBB64_1100>:
    cd90:	f8a43823          	sd	a0,-112(s0)
    cd94:	00001537          	lui	a0,0x1
    cd98:	40a40533          	sub	a0,s0,a0
    cd9c:	75453823          	sd	s4,1872(a0) # 1750 <.LBB64_5+0x48>
    cda0:	c4043703          	ld	a4,-960(s0)
    cda4:	b0043a03          	ld	s4,-1280(s0)
    cda8:	01470733          	add	a4,a4,s4
    cdac:	af843a03          	ld	s4,-1288(s0)
    cdb0:	01470733          	add	a4,a4,s4
    cdb4:	01370733          	add	a4,a4,s3
    cdb8:	1007071b          	addiw	a4,a4,256
    cdbc:	40000a37          	lui	s4,0x40000
    cdc0:	00001537          	lui	a0,0x1
    cdc4:	40a40533          	sub	a0,s0,a0
    cdc8:	76e53423          	sd	a4,1896(a0) # 1768 <.LBB64_5+0x60>
    cdcc:	f9043503          	ld	a0,-112(s0)
    cdd0:	00075463          	bgez	a4,cdd8 <.LBB64_1102>
    cdd4:	c0000a37          	lui	s4,0xc0000

000000000000cdd8 <.LBB64_1102>:
    cdd8:	f8a43823          	sd	a0,-112(s0)
    cddc:	00001537          	lui	a0,0x1
    cde0:	40a40533          	sub	a0,s0,a0
    cde4:	77453023          	sd	s4,1888(a0) # 1760 <.LBB64_5+0x58>
    cde8:	c4843703          	ld	a4,-952(s0)
    cdec:	af043a03          	ld	s4,-1296(s0)
    cdf0:	01470733          	add	a4,a4,s4
    cdf4:	ae843a03          	ld	s4,-1304(s0)
    cdf8:	01470733          	add	a4,a4,s4
    cdfc:	01370733          	add	a4,a4,s3
    ce00:	1007071b          	addiw	a4,a4,256
    ce04:	40000a37          	lui	s4,0x40000
    ce08:	00001537          	lui	a0,0x1
    ce0c:	40a40533          	sub	a0,s0,a0
    ce10:	78e53423          	sd	a4,1928(a0) # 1788 <.LBB64_5+0x80>
    ce14:	f9043503          	ld	a0,-112(s0)
    ce18:	00075463          	bgez	a4,ce20 <.LBB64_1104>
    ce1c:	c0000a37          	lui	s4,0xc0000

000000000000ce20 <.LBB64_1104>:
    ce20:	f8a43823          	sd	a0,-112(s0)
    ce24:	00001537          	lui	a0,0x1
    ce28:	40a40533          	sub	a0,s0,a0
    ce2c:	77453823          	sd	s4,1904(a0) # 1770 <.LBB64_5+0x68>
    ce30:	c5043703          	ld	a4,-944(s0)
    ce34:	ae043a03          	ld	s4,-1312(s0)
    ce38:	01470733          	add	a4,a4,s4
    ce3c:	ad843a03          	ld	s4,-1320(s0)
    ce40:	01470733          	add	a4,a4,s4
    ce44:	01370733          	add	a4,a4,s3
    ce48:	1007071b          	addiw	a4,a4,256
    ce4c:	40000a37          	lui	s4,0x40000
    ce50:	00001537          	lui	a0,0x1
    ce54:	40a40533          	sub	a0,s0,a0
    ce58:	7ce53423          	sd	a4,1992(a0) # 17c8 <.LBB64_5+0xc0>
    ce5c:	f9043503          	ld	a0,-112(s0)
    ce60:	00075463          	bgez	a4,ce68 <.LBB64_1106>
    ce64:	c0000a37          	lui	s4,0xc0000

000000000000ce68 <.LBB64_1106>:
    ce68:	00001737          	lui	a4,0x1
    ce6c:	40e40733          	sub	a4,s0,a4
    ce70:	7b473423          	sd	s4,1960(a4) # 17a8 <.LBB64_5+0xa0>
    ce74:	c5843703          	ld	a4,-936(s0)
    ce78:	ad043a03          	ld	s4,-1328(s0)
    ce7c:	01470733          	add	a4,a4,s4
    ce80:	ac843a03          	ld	s4,-1336(s0)
    ce84:	01470733          	add	a4,a4,s4
    ce88:	01370733          	add	a4,a4,s3
    ce8c:	1007071b          	addiw	a4,a4,256
    ce90:	40000a37          	lui	s4,0x40000
    ce94:	80e43823          	sd	a4,-2032(s0)
    ce98:	00075463          	bgez	a4,cea0 <.LBB64_1108>
    ce9c:	c0000a37          	lui	s4,0xc0000

000000000000cea0 <.LBB64_1108>:
    cea0:	00001737          	lui	a4,0x1
    cea4:	40e40733          	sub	a4,s0,a4
    cea8:	7f473423          	sd	s4,2024(a4) # 17e8 <.LBB64_5+0xe0>
    ceac:	c6043703          	ld	a4,-928(s0)
    ceb0:	ac043a03          	ld	s4,-1344(s0)
    ceb4:	01470733          	add	a4,a4,s4
    ceb8:	ab843a03          	ld	s4,-1352(s0)
    cebc:	01470733          	add	a4,a4,s4
    cec0:	01370733          	add	a4,a4,s3
    cec4:	1007071b          	addiw	a4,a4,256
    cec8:	40000a37          	lui	s4,0x40000
    cecc:	82e43c23          	sd	a4,-1992(s0)
    ced0:	00075463          	bgez	a4,ced8 <.LBB64_1110>
    ced4:	c0000a37          	lui	s4,0xc0000

000000000000ced8 <.LBB64_1110>:
    ced8:	83443423          	sd	s4,-2008(s0)
    cedc:	c6843703          	ld	a4,-920(s0)
    cee0:	ab043a03          	ld	s4,-1360(s0)
    cee4:	01470733          	add	a4,a4,s4
    cee8:	aa843a03          	ld	s4,-1368(s0)
    ceec:	01470733          	add	a4,a4,s4
    cef0:	01370733          	add	a4,a4,s3
    cef4:	1007071b          	addiw	a4,a4,256
    cef8:	40000a37          	lui	s4,0x40000
    cefc:	84e43423          	sd	a4,-1976(s0)
    cf00:	00075463          	bgez	a4,cf08 <.LBB64_1112>
    cf04:	c0000a37          	lui	s4,0xc0000

000000000000cf08 <.LBB64_1112>:
    cf08:	85443023          	sd	s4,-1984(s0)
    cf0c:	c7043703          	ld	a4,-912(s0)
    cf10:	aa043a03          	ld	s4,-1376(s0)
    cf14:	01470733          	add	a4,a4,s4
    cf18:	a9843a03          	ld	s4,-1384(s0)
    cf1c:	01470733          	add	a4,a4,s4
    cf20:	01370733          	add	a4,a4,s3
    cf24:	1007071b          	addiw	a4,a4,256
    cf28:	40000a37          	lui	s4,0x40000
    cf2c:	84e43c23          	sd	a4,-1960(s0)
    cf30:	00075463          	bgez	a4,cf38 <.LBB64_1114>
    cf34:	c0000a37          	lui	s4,0xc0000

000000000000cf38 <.LBB64_1114>:
    cf38:	85443823          	sd	s4,-1968(s0)
    cf3c:	c7843703          	ld	a4,-904(s0)
    cf40:	a9043a03          	ld	s4,-1392(s0)
    cf44:	01470733          	add	a4,a4,s4
    cf48:	a8843a03          	ld	s4,-1400(s0)
    cf4c:	01470733          	add	a4,a4,s4
    cf50:	01370733          	add	a4,a4,s3
    cf54:	1007071b          	addiw	a4,a4,256
    cf58:	40000a37          	lui	s4,0x40000
    cf5c:	86e43423          	sd	a4,-1944(s0)
    cf60:	00075463          	bgez	a4,cf68 <.LBB64_1116>
    cf64:	c0000a37          	lui	s4,0xc0000

000000000000cf68 <.LBB64_1116>:
    cf68:	87443023          	sd	s4,-1952(s0)
    cf6c:	c8043703          	ld	a4,-896(s0)
    cf70:	a8043a03          	ld	s4,-1408(s0)
    cf74:	01470733          	add	a4,a4,s4
    cf78:	b3043a03          	ld	s4,-1232(s0)
    cf7c:	01470733          	add	a4,a4,s4
    cf80:	01370733          	add	a4,a4,s3
    cf84:	1007071b          	addiw	a4,a4,256
    cf88:	40000a37          	lui	s4,0x40000
    cf8c:	86e43c23          	sd	a4,-1928(s0)
    cf90:	00075463          	bgez	a4,cf98 <.LBB64_1118>
    cf94:	c0000a37          	lui	s4,0xc0000

000000000000cf98 <.LBB64_1118>:
    cf98:	87443823          	sd	s4,-1936(s0)
    cf9c:	c8843703          	ld	a4,-888(s0)
    cfa0:	b1843a03          	ld	s4,-1256(s0)
    cfa4:	01470733          	add	a4,a4,s4
    cfa8:	b2843a03          	ld	s4,-1240(s0)
    cfac:	01470733          	add	a4,a4,s4
    cfb0:	01370733          	add	a4,a4,s3
    cfb4:	1007071b          	addiw	a4,a4,256
    cfb8:	40000a37          	lui	s4,0x40000
    cfbc:	88e43423          	sd	a4,-1912(s0)
    cfc0:	00075463          	bgez	a4,cfc8 <.LBB64_1120>
    cfc4:	c0000a37          	lui	s4,0xc0000

000000000000cfc8 <.LBB64_1120>:
    cfc8:	89443023          	sd	s4,-1920(s0)
    cfcc:	c9043703          	ld	a4,-880(s0)
    cfd0:	b3843a03          	ld	s4,-1224(s0)
    cfd4:	01470733          	add	a4,a4,s4
    cfd8:	b8843a03          	ld	s4,-1144(s0)
    cfdc:	01470733          	add	a4,a4,s4
    cfe0:	01370733          	add	a4,a4,s3
    cfe4:	1007071b          	addiw	a4,a4,256
    cfe8:	40000a37          	lui	s4,0x40000
    cfec:	88e43c23          	sd	a4,-1896(s0)
    cff0:	00075463          	bgez	a4,cff8 <.LBB64_1122>
    cff4:	c0000a37          	lui	s4,0xc0000

000000000000cff8 <.LBB64_1122>:
    cff8:	89443823          	sd	s4,-1904(s0)
    cffc:	c9843703          	ld	a4,-872(s0)
    d000:	b4043a03          	ld	s4,-1216(s0)
    d004:	01470733          	add	a4,a4,s4
    d008:	b9843a03          	ld	s4,-1128(s0)
    d00c:	01470733          	add	a4,a4,s4
    d010:	01370733          	add	a4,a4,s3
    d014:	1007071b          	addiw	a4,a4,256
    d018:	40000a37          	lui	s4,0x40000
    d01c:	8ae43423          	sd	a4,-1880(s0)
    d020:	00075463          	bgez	a4,d028 <.LBB64_1124>
    d024:	c0000a37          	lui	s4,0xc0000

000000000000d028 <.LBB64_1124>:
    d028:	8b443023          	sd	s4,-1888(s0)
    d02c:	ca043703          	ld	a4,-864(s0)
    d030:	b4843a03          	ld	s4,-1208(s0)
    d034:	01470733          	add	a4,a4,s4
    d038:	ba843a03          	ld	s4,-1112(s0)
    d03c:	01470733          	add	a4,a4,s4
    d040:	01370733          	add	a4,a4,s3
    d044:	1007071b          	addiw	a4,a4,256
    d048:	40000a37          	lui	s4,0x40000
    d04c:	8ae43c23          	sd	a4,-1864(s0)
    d050:	00075463          	bgez	a4,d058 <.LBB64_1126>
    d054:	c0000a37          	lui	s4,0xc0000

000000000000d058 <.LBB64_1126>:
    d058:	8b443823          	sd	s4,-1872(s0)
    d05c:	ca843703          	ld	a4,-856(s0)
    d060:	b5043a03          	ld	s4,-1200(s0)
    d064:	01470733          	add	a4,a4,s4
    d068:	bb043a03          	ld	s4,-1104(s0)
    d06c:	01470733          	add	a4,a4,s4
    d070:	01370733          	add	a4,a4,s3
    d074:	1007071b          	addiw	a4,a4,256
    d078:	40000a37          	lui	s4,0x40000
    d07c:	8ce43423          	sd	a4,-1848(s0)
    d080:	00075463          	bgez	a4,d088 <.LBB64_1128>
    d084:	c0000a37          	lui	s4,0xc0000

000000000000d088 <.LBB64_1128>:
    d088:	8d443023          	sd	s4,-1856(s0)
    d08c:	cb043703          	ld	a4,-848(s0)
    d090:	b5843a03          	ld	s4,-1192(s0)
    d094:	01470733          	add	a4,a4,s4
    d098:	bb843a03          	ld	s4,-1096(s0)
    d09c:	01470733          	add	a4,a4,s4
    d0a0:	01370733          	add	a4,a4,s3
    d0a4:	1007071b          	addiw	a4,a4,256
    d0a8:	40000a37          	lui	s4,0x40000
    d0ac:	8ce43c23          	sd	a4,-1832(s0)
    d0b0:	00075463          	bgez	a4,d0b8 <.LBB64_1130>
    d0b4:	c0000a37          	lui	s4,0xc0000

000000000000d0b8 <.LBB64_1130>:
    d0b8:	8d443823          	sd	s4,-1840(s0)
    d0bc:	cb843703          	ld	a4,-840(s0)
    d0c0:	b6043a03          	ld	s4,-1184(s0)
    d0c4:	01470733          	add	a4,a4,s4
    d0c8:	bc043a03          	ld	s4,-1088(s0)
    d0cc:	01470733          	add	a4,a4,s4
    d0d0:	01370733          	add	a4,a4,s3
    d0d4:	1007071b          	addiw	a4,a4,256
    d0d8:	40000a37          	lui	s4,0x40000
    d0dc:	8ee43423          	sd	a4,-1816(s0)
    d0e0:	00075463          	bgez	a4,d0e8 <.LBB64_1132>
    d0e4:	c0000a37          	lui	s4,0xc0000

000000000000d0e8 <.LBB64_1132>:
    d0e8:	8f443023          	sd	s4,-1824(s0)
    d0ec:	cc043703          	ld	a4,-832(s0)
    d0f0:	b6843a03          	ld	s4,-1176(s0)
    d0f4:	01470733          	add	a4,a4,s4
    d0f8:	bc843a03          	ld	s4,-1080(s0)
    d0fc:	01470733          	add	a4,a4,s4
    d100:	01370733          	add	a4,a4,s3
    d104:	1007071b          	addiw	a4,a4,256
    d108:	40000a37          	lui	s4,0x40000
    d10c:	8ee43c23          	sd	a4,-1800(s0)
    d110:	00075463          	bgez	a4,d118 <.LBB64_1134>
    d114:	c0000a37          	lui	s4,0xc0000

000000000000d118 <.LBB64_1134>:
    d118:	8f443823          	sd	s4,-1808(s0)
    d11c:	cc843703          	ld	a4,-824(s0)
    d120:	b7043a03          	ld	s4,-1168(s0)
    d124:	01470733          	add	a4,a4,s4
    d128:	00970733          	add	a4,a4,s1
    d12c:	01370733          	add	a4,a4,s3
    d130:	1007071b          	addiw	a4,a4,256
    d134:	40000a37          	lui	s4,0x40000
    d138:	90e43423          	sd	a4,-1784(s0)
    d13c:	00075463          	bgez	a4,d144 <.LBB64_1136>
    d140:	c0000a37          	lui	s4,0xc0000

000000000000d144 <.LBB64_1136>:
    d144:	91443023          	sd	s4,-1792(s0)
    d148:	cd043703          	ld	a4,-816(s0)
    d14c:	b7843a03          	ld	s4,-1160(s0)
    d150:	01470733          	add	a4,a4,s4
    d154:	01e70733          	add	a4,a4,t5
    d158:	01370733          	add	a4,a4,s3
    d15c:	1007071b          	addiw	a4,a4,256
    d160:	40000a37          	lui	s4,0x40000
    d164:	90e43c23          	sd	a4,-1768(s0)
    d168:	00075463          	bgez	a4,d170 <.LBB64_1138>
    d16c:	c0000a37          	lui	s4,0xc0000

000000000000d170 <.LBB64_1138>:
    d170:	91443823          	sd	s4,-1776(s0)
    d174:	cd843703          	ld	a4,-808(s0)
    d178:	ec843a03          	ld	s4,-312(s0)
    d17c:	01470733          	add	a4,a4,s4
    d180:	00b70733          	add	a4,a4,a1
    d184:	01370733          	add	a4,a4,s3
    d188:	1007071b          	addiw	a4,a4,256
    d18c:	40000a37          	lui	s4,0x40000
    d190:	92e43423          	sd	a4,-1752(s0)
    d194:	00075463          	bgez	a4,d19c <.LBB64_1140>
    d198:	c0000a37          	lui	s4,0xc0000

000000000000d19c <.LBB64_1140>:
    d19c:	93443023          	sd	s4,-1760(s0)
    d1a0:	ce043703          	ld	a4,-800(s0)
    d1a4:	ed043a03          	ld	s4,-304(s0)
    d1a8:	01470733          	add	a4,a4,s4
    d1ac:	01170733          	add	a4,a4,a7
    d1b0:	01370733          	add	a4,a4,s3
    d1b4:	1007071b          	addiw	a4,a4,256
    d1b8:	40000a37          	lui	s4,0x40000
    d1bc:	92e43c23          	sd	a4,-1736(s0)
    d1c0:	00075463          	bgez	a4,d1c8 <.LBB64_1142>
    d1c4:	c0000a37          	lui	s4,0xc0000

000000000000d1c8 <.LBB64_1142>:
    d1c8:	93443823          	sd	s4,-1744(s0)
    d1cc:	ce843703          	ld	a4,-792(s0)
    d1d0:	ed843a03          	ld	s4,-296(s0)
    d1d4:	01470733          	add	a4,a4,s4
    d1d8:	01070733          	add	a4,a4,a6
    d1dc:	01370733          	add	a4,a4,s3
    d1e0:	1007071b          	addiw	a4,a4,256
    d1e4:	40000a37          	lui	s4,0x40000
    d1e8:	94e43423          	sd	a4,-1720(s0)
    d1ec:	00075463          	bgez	a4,d1f4 <.LBB64_1144>
    d1f0:	c0000a37          	lui	s4,0xc0000

000000000000d1f4 <.LBB64_1144>:
    d1f4:	95443023          	sd	s4,-1728(s0)
    d1f8:	cf043703          	ld	a4,-784(s0)
    d1fc:	ee043a03          	ld	s4,-288(s0)
    d200:	01470733          	add	a4,a4,s4
    d204:	00c70733          	add	a4,a4,a2
    d208:	01370733          	add	a4,a4,s3
    d20c:	1007071b          	addiw	a4,a4,256
    d210:	40000a37          	lui	s4,0x40000
    d214:	94e43c23          	sd	a4,-1704(s0)
    d218:	00075463          	bgez	a4,d220 <.LBB64_1146>
    d21c:	c0000a37          	lui	s4,0xc0000

000000000000d220 <.LBB64_1146>:
    d220:	95443823          	sd	s4,-1712(s0)
    d224:	cf843703          	ld	a4,-776(s0)
    d228:	ee843a03          	ld	s4,-280(s0)
    d22c:	01470733          	add	a4,a4,s4
    d230:	00a70733          	add	a4,a4,a0
    d234:	01370733          	add	a4,a4,s3
    d238:	1007071b          	addiw	a4,a4,256
    d23c:	40000a37          	lui	s4,0x40000
    d240:	96e43423          	sd	a4,-1688(s0)
    d244:	00075463          	bgez	a4,d24c <.LBB64_1148>
    d248:	c0000a37          	lui	s4,0xc0000

000000000000d24c <.LBB64_1148>:
    d24c:	97443023          	sd	s4,-1696(s0)
    d250:	d0043703          	ld	a4,-768(s0)
    d254:	ef043a03          	ld	s4,-272(s0)
    d258:	01470733          	add	a4,a4,s4
    d25c:	00d70733          	add	a4,a4,a3
    d260:	01370733          	add	a4,a4,s3
    d264:	1007071b          	addiw	a4,a4,256
    d268:	40000a37          	lui	s4,0x40000
    d26c:	96e43c23          	sd	a4,-1672(s0)
    d270:	00075463          	bgez	a4,d278 <.LBB64_1150>
    d274:	c0000a37          	lui	s4,0xc0000

000000000000d278 <.LBB64_1150>:
    d278:	97443823          	sd	s4,-1680(s0)
    d27c:	d0843703          	ld	a4,-760(s0)
    d280:	ef843a03          	ld	s4,-264(s0)
    d284:	01470733          	add	a4,a4,s4
    d288:	00f70733          	add	a4,a4,a5
    d28c:	01370733          	add	a4,a4,s3
    d290:	1007071b          	addiw	a4,a4,256
    d294:	40000a37          	lui	s4,0x40000
    d298:	98e43423          	sd	a4,-1656(s0)
    d29c:	00075463          	bgez	a4,d2a4 <.LBB64_1152>
    d2a0:	c0000a37          	lui	s4,0xc0000

000000000000d2a4 <.LBB64_1152>:
    d2a4:	99443023          	sd	s4,-1664(s0)
    d2a8:	d1043703          	ld	a4,-752(s0)
    d2ac:	f0043a03          	ld	s4,-256(s0)
    d2b0:	01470733          	add	a4,a4,s4
    d2b4:	00670733          	add	a4,a4,t1
    d2b8:	01370733          	add	a4,a4,s3
    d2bc:	1007071b          	addiw	a4,a4,256
    d2c0:	40000a37          	lui	s4,0x40000
    d2c4:	98e43c23          	sd	a4,-1640(s0)
    d2c8:	00075463          	bgez	a4,d2d0 <.LBB64_1154>
    d2cc:	c0000a37          	lui	s4,0xc0000

000000000000d2d0 <.LBB64_1154>:
    d2d0:	99443823          	sd	s4,-1648(s0)
    d2d4:	d1843703          	ld	a4,-744(s0)
    d2d8:	f0843a03          	ld	s4,-248(s0)
    d2dc:	01470733          	add	a4,a4,s4
    d2e0:	00770733          	add	a4,a4,t2
    d2e4:	01370733          	add	a4,a4,s3
    d2e8:	1007071b          	addiw	a4,a4,256
    d2ec:	40000a37          	lui	s4,0x40000
    d2f0:	9ae43423          	sd	a4,-1624(s0)
    d2f4:	00075463          	bgez	a4,d2fc <.LBB64_1156>
    d2f8:	c0000a37          	lui	s4,0xc0000

000000000000d2fc <.LBB64_1156>:
    d2fc:	9b443023          	sd	s4,-1632(s0)
    d300:	d2043703          	ld	a4,-736(s0)
    d304:	f1043a03          	ld	s4,-240(s0)
    d308:	01470733          	add	a4,a4,s4
    d30c:	01b70733          	add	a4,a4,s11
    d310:	01370733          	add	a4,a4,s3
    d314:	1007071b          	addiw	a4,a4,256
    d318:	40000a37          	lui	s4,0x40000
    d31c:	9ae43c23          	sd	a4,-1608(s0)
    d320:	00075463          	bgez	a4,d328 <.LBB64_1158>
    d324:	c0000a37          	lui	s4,0xc0000

000000000000d328 <.LBB64_1158>:
    d328:	9b443823          	sd	s4,-1616(s0)
    d32c:	d2843703          	ld	a4,-728(s0)
    d330:	f1843a03          	ld	s4,-232(s0)
    d334:	01470733          	add	a4,a4,s4
    d338:	01a70733          	add	a4,a4,s10
    d33c:	01370733          	add	a4,a4,s3
    d340:	1007071b          	addiw	a4,a4,256
    d344:	40000a37          	lui	s4,0x40000
    d348:	9ce43423          	sd	a4,-1592(s0)
    d34c:	00075463          	bgez	a4,d354 <.LBB64_1160>
    d350:	c0000a37          	lui	s4,0xc0000

000000000000d354 <.LBB64_1160>:
    d354:	9d443023          	sd	s4,-1600(s0)
    d358:	d3043703          	ld	a4,-720(s0)
    d35c:	f2043a03          	ld	s4,-224(s0)
    d360:	01470733          	add	a4,a4,s4
    d364:	01970733          	add	a4,a4,s9
    d368:	01370733          	add	a4,a4,s3
    d36c:	1007071b          	addiw	a4,a4,256
    d370:	400009b7          	lui	s3,0x40000
    d374:	9ce43c23          	sd	a4,-1576(s0)
    d378:	00075463          	bgez	a4,d380 <.LBB64_1162>
    d37c:	c00009b7          	lui	s3,0xc0000

000000000000d380 <.LBB64_1162>:
    d380:	9d343823          	sd	s3,-1584(s0)
    d384:	b1043703          	ld	a4,-1264(s0)
    d388:	00e28733          	add	a4,t0,a4
    d38c:	b0843283          	ld	t0,-1272(s0)
    d390:	00570733          	add	a4,a4,t0
    d394:	f8843283          	ld	t0,-120(s0)
    d398:	00570733          	add	a4,a4,t0
    d39c:	1007071b          	addiw	a4,a4,256
    d3a0:	40000a37          	lui	s4,0x40000
    d3a4:	f3843283          	ld	t0,-200(s0)
    d3a8:	e6043983          	ld	s3,-416(s0)
    d3ac:	9ee43423          	sd	a4,-1560(s0)
    d3b0:	00075463          	bgez	a4,d3b8 <.LBB64_1164>
    d3b4:	c0000a37          	lui	s4,0xc0000

000000000000d3b8 <.LBB64_1164>:
    d3b8:	9f443023          	sd	s4,-1568(s0)
    d3bc:	d4043703          	ld	a4,-704(s0)
    d3c0:	b0043a03          	ld	s4,-1280(s0)
    d3c4:	01470733          	add	a4,a4,s4
    d3c8:	af843a03          	ld	s4,-1288(s0)
    d3cc:	01470733          	add	a4,a4,s4
    d3d0:	f8843a03          	ld	s4,-120(s0)
    d3d4:	01470733          	add	a4,a4,s4
    d3d8:	1007071b          	addiw	a4,a4,256
    d3dc:	40000a37          	lui	s4,0x40000
    d3e0:	9ee43c23          	sd	a4,-1544(s0)
    d3e4:	00075463          	bgez	a4,d3ec <.LBB64_1166>
    d3e8:	c0000a37          	lui	s4,0xc0000

000000000000d3ec <.LBB64_1166>:
    d3ec:	9f443823          	sd	s4,-1552(s0)
    d3f0:	d4843703          	ld	a4,-696(s0)
    d3f4:	af043a03          	ld	s4,-1296(s0)
    d3f8:	01470733          	add	a4,a4,s4
    d3fc:	ae843a03          	ld	s4,-1304(s0)
    d400:	01470733          	add	a4,a4,s4
    d404:	f8843a03          	ld	s4,-120(s0)
    d408:	01470733          	add	a4,a4,s4
    d40c:	1007071b          	addiw	a4,a4,256
    d410:	40000a37          	lui	s4,0x40000
    d414:	a0e43423          	sd	a4,-1528(s0)
    d418:	00075463          	bgez	a4,d420 <.LBB64_1168>
    d41c:	c0000a37          	lui	s4,0xc0000

000000000000d420 <.LBB64_1168>:
    d420:	a1443023          	sd	s4,-1536(s0)
    d424:	d5043703          	ld	a4,-688(s0)
    d428:	ae043a03          	ld	s4,-1312(s0)
    d42c:	01470733          	add	a4,a4,s4
    d430:	ad843a03          	ld	s4,-1320(s0)
    d434:	01470733          	add	a4,a4,s4
    d438:	f8843a03          	ld	s4,-120(s0)
    d43c:	01470733          	add	a4,a4,s4
    d440:	1007071b          	addiw	a4,a4,256
    d444:	40000a37          	lui	s4,0x40000
    d448:	a0e43c23          	sd	a4,-1512(s0)
    d44c:	00075463          	bgez	a4,d454 <.LBB64_1170>
    d450:	c0000a37          	lui	s4,0xc0000

000000000000d454 <.LBB64_1170>:
    d454:	a1443823          	sd	s4,-1520(s0)
    d458:	d5843703          	ld	a4,-680(s0)
    d45c:	ad043a03          	ld	s4,-1328(s0)
    d460:	01470733          	add	a4,a4,s4
    d464:	ac843a03          	ld	s4,-1336(s0)
    d468:	01470733          	add	a4,a4,s4
    d46c:	f8843a03          	ld	s4,-120(s0)
    d470:	01470733          	add	a4,a4,s4
    d474:	1007071b          	addiw	a4,a4,256
    d478:	40000a37          	lui	s4,0x40000
    d47c:	d5443c23          	sd	s4,-680(s0)
    d480:	a2e43023          	sd	a4,-1504(s0)
    d484:	00075663          	bgez	a4,d490 <.LBB64_1172>
    d488:	c0000737          	lui	a4,0xc0000
    d48c:	d4e43c23          	sd	a4,-680(s0)

000000000000d490 <.LBB64_1172>:
    d490:	ac043703          	ld	a4,-1344(s0)
    d494:	00eb0733          	add	a4,s6,a4
    d498:	ab843a03          	ld	s4,-1352(s0)
    d49c:	01470733          	add	a4,a4,s4
    d4a0:	f8843a03          	ld	s4,-120(s0)
    d4a4:	01470733          	add	a4,a4,s4
    d4a8:	1007071b          	addiw	a4,a4,256 # ffffffffc0000100 <.Lfunc_end80+0xffffffffbffd7734>
    d4ac:	40000b37          	lui	s6,0x40000
    d4b0:	a2e43823          	sd	a4,-1488(s0)
    d4b4:	00075463          	bgez	a4,d4bc <.LBB64_1174>
    d4b8:	c0000b37          	lui	s6,0xc0000

000000000000d4bc <.LBB64_1174>:
    d4bc:	a3643423          	sd	s6,-1496(s0)
    d4c0:	d6043703          	ld	a4,-672(s0)
    d4c4:	ab043a03          	ld	s4,-1360(s0)
    d4c8:	01470733          	add	a4,a4,s4
    d4cc:	aa843a03          	ld	s4,-1368(s0)
    d4d0:	01470733          	add	a4,a4,s4
    d4d4:	f8843a03          	ld	s4,-120(s0)
    d4d8:	01470733          	add	a4,a4,s4
    d4dc:	1007071b          	addiw	a4,a4,256
    d4e0:	40000b37          	lui	s6,0x40000
    d4e4:	a4e43023          	sd	a4,-1472(s0)
    d4e8:	00075463          	bgez	a4,d4f0 <.LBB64_1176>
    d4ec:	c0000b37          	lui	s6,0xc0000

000000000000d4f0 <.LBB64_1176>:
    d4f0:	a3643c23          	sd	s6,-1480(s0)
    d4f4:	d6843703          	ld	a4,-664(s0)
    d4f8:	aa043a03          	ld	s4,-1376(s0)
    d4fc:	01470733          	add	a4,a4,s4
    d500:	a9843a03          	ld	s4,-1384(s0)
    d504:	01470733          	add	a4,a4,s4
    d508:	f8843a03          	ld	s4,-120(s0)
    d50c:	01470733          	add	a4,a4,s4
    d510:	1007071b          	addiw	a4,a4,256
    d514:	40000b37          	lui	s6,0x40000
    d518:	a4e43823          	sd	a4,-1456(s0)
    d51c:	00075463          	bgez	a4,d524 <.LBB64_1178>
    d520:	c0000b37          	lui	s6,0xc0000

000000000000d524 <.LBB64_1178>:
    d524:	a5643423          	sd	s6,-1464(s0)
    d528:	d7043703          	ld	a4,-656(s0)
    d52c:	a9043a03          	ld	s4,-1392(s0)
    d530:	01470733          	add	a4,a4,s4
    d534:	a8843a03          	ld	s4,-1400(s0)
    d538:	01470733          	add	a4,a4,s4
    d53c:	f8843a03          	ld	s4,-120(s0)
    d540:	01470733          	add	a4,a4,s4
    d544:	1007071b          	addiw	a4,a4,256
    d548:	40000b37          	lui	s6,0x40000
    d54c:	a6e43023          	sd	a4,-1440(s0)
    d550:	00075463          	bgez	a4,d558 <.LBB64_1180>
    d554:	c0000b37          	lui	s6,0xc0000

000000000000d558 <.LBB64_1180>:
    d558:	a5643c23          	sd	s6,-1448(s0)
    d55c:	d7843703          	ld	a4,-648(s0)
    d560:	a8043a03          	ld	s4,-1408(s0)
    d564:	01470733          	add	a4,a4,s4
    d568:	b3043a03          	ld	s4,-1232(s0)
    d56c:	01470733          	add	a4,a4,s4
    d570:	f8843a03          	ld	s4,-120(s0)
    d574:	01470733          	add	a4,a4,s4
    d578:	1007071b          	addiw	a4,a4,256
    d57c:	40000b37          	lui	s6,0x40000
    d580:	b8e43823          	sd	a4,-1136(s0)
    d584:	00075463          	bgez	a4,d58c <.LBB64_1182>
    d588:	c0000b37          	lui	s6,0xc0000

000000000000d58c <.LBB64_1182>:
    d58c:	b3643023          	sd	s6,-1248(s0)
    d590:	d8043703          	ld	a4,-640(s0)
    d594:	b1843a03          	ld	s4,-1256(s0)
    d598:	01470733          	add	a4,a4,s4
    d59c:	b2843a03          	ld	s4,-1240(s0)
    d5a0:	01470733          	add	a4,a4,s4
    d5a4:	f8843a03          	ld	s4,-120(s0)
    d5a8:	01470733          	add	a4,a4,s4
    d5ac:	1007071b          	addiw	a4,a4,256
    d5b0:	40000b37          	lui	s6,0x40000
    d5b4:	bce43823          	sd	a4,-1072(s0)
    d5b8:	00075463          	bgez	a4,d5c0 <.LBB64_1184>
    d5bc:	c0000b37          	lui	s6,0xc0000

000000000000d5c0 <.LBB64_1184>:
    d5c0:	bb643023          	sd	s6,-1120(s0)
    d5c4:	d8843703          	ld	a4,-632(s0)
    d5c8:	b3843a03          	ld	s4,-1224(s0)
    d5cc:	01470733          	add	a4,a4,s4
    d5d0:	b8843a03          	ld	s4,-1144(s0)
    d5d4:	01470733          	add	a4,a4,s4
    d5d8:	f8843a03          	ld	s4,-120(s0)
    d5dc:	01470733          	add	a4,a4,s4
    d5e0:	1007071b          	addiw	a4,a4,256
    d5e4:	40000b37          	lui	s6,0x40000
    d5e8:	bee43023          	sd	a4,-1056(s0)
    d5ec:	00075463          	bgez	a4,d5f4 <.LBB64_1186>
    d5f0:	c0000b37          	lui	s6,0xc0000

000000000000d5f4 <.LBB64_1186>:
    d5f4:	bd643c23          	sd	s6,-1064(s0)
    d5f8:	d9043703          	ld	a4,-624(s0)
    d5fc:	b4043a03          	ld	s4,-1216(s0)
    d600:	01470733          	add	a4,a4,s4
    d604:	b9843a03          	ld	s4,-1128(s0)
    d608:	01470733          	add	a4,a4,s4
    d60c:	f8843a03          	ld	s4,-120(s0)
    d610:	01470733          	add	a4,a4,s4
    d614:	1007071b          	addiw	a4,a4,256
    d618:	40000b37          	lui	s6,0x40000
    d61c:	bee43823          	sd	a4,-1040(s0)
    d620:	00075463          	bgez	a4,d628 <.LBB64_1188>
    d624:	c0000b37          	lui	s6,0xc0000

000000000000d628 <.LBB64_1188>:
    d628:	bf643423          	sd	s6,-1048(s0)
    d62c:	d9843703          	ld	a4,-616(s0)
    d630:	b4843a03          	ld	s4,-1208(s0)
    d634:	01470733          	add	a4,a4,s4
    d638:	ba843a03          	ld	s4,-1112(s0)
    d63c:	01470733          	add	a4,a4,s4
    d640:	f8843a03          	ld	s4,-120(s0)
    d644:	01470733          	add	a4,a4,s4
    d648:	1007071b          	addiw	a4,a4,256
    d64c:	40000b37          	lui	s6,0x40000
    d650:	c0e43023          	sd	a4,-1024(s0)
    d654:	00075463          	bgez	a4,d65c <.LBB64_1190>
    d658:	c0000b37          	lui	s6,0xc0000

000000000000d65c <.LBB64_1190>:
    d65c:	bf643c23          	sd	s6,-1032(s0)
    d660:	da043703          	ld	a4,-608(s0)
    d664:	b5043a03          	ld	s4,-1200(s0)
    d668:	01470733          	add	a4,a4,s4
    d66c:	bb043a03          	ld	s4,-1104(s0)
    d670:	01470733          	add	a4,a4,s4
    d674:	f8843a03          	ld	s4,-120(s0)
    d678:	01470733          	add	a4,a4,s4
    d67c:	1007071b          	addiw	a4,a4,256
    d680:	40000b37          	lui	s6,0x40000
    d684:	c0e43823          	sd	a4,-1008(s0)
    d688:	00075463          	bgez	a4,d690 <.LBB64_1192>
    d68c:	c0000b37          	lui	s6,0xc0000

000000000000d690 <.LBB64_1192>:
    d690:	c1643423          	sd	s6,-1016(s0)
    d694:	da843703          	ld	a4,-600(s0)
    d698:	b5843a03          	ld	s4,-1192(s0)
    d69c:	01470733          	add	a4,a4,s4
    d6a0:	bb843a03          	ld	s4,-1096(s0)
    d6a4:	01470733          	add	a4,a4,s4
    d6a8:	f8843a03          	ld	s4,-120(s0)
    d6ac:	01470733          	add	a4,a4,s4
    d6b0:	1007071b          	addiw	a4,a4,256
    d6b4:	40000b37          	lui	s6,0x40000
    d6b8:	c2e43423          	sd	a4,-984(s0)
    d6bc:	00075463          	bgez	a4,d6c4 <.LBB64_1194>
    d6c0:	c0000b37          	lui	s6,0xc0000

000000000000d6c4 <.LBB64_1194>:
    d6c4:	c1643c23          	sd	s6,-1000(s0)
    d6c8:	db043703          	ld	a4,-592(s0)
    d6cc:	b6043a03          	ld	s4,-1184(s0)
    d6d0:	01470733          	add	a4,a4,s4
    d6d4:	bc043a03          	ld	s4,-1088(s0)
    d6d8:	01470733          	add	a4,a4,s4
    d6dc:	f8843a03          	ld	s4,-120(s0)
    d6e0:	01470733          	add	a4,a4,s4
    d6e4:	1007071b          	addiw	a4,a4,256
    d6e8:	40000b37          	lui	s6,0x40000
    d6ec:	c2e43c23          	sd	a4,-968(s0)
    d6f0:	00075463          	bgez	a4,d6f8 <.LBB64_1196>
    d6f4:	c0000b37          	lui	s6,0xc0000

000000000000d6f8 <.LBB64_1196>:
    d6f8:	c3643823          	sd	s6,-976(s0)
    d6fc:	db843703          	ld	a4,-584(s0)
    d700:	b6843a03          	ld	s4,-1176(s0)
    d704:	01470733          	add	a4,a4,s4
    d708:	bc843a03          	ld	s4,-1080(s0)
    d70c:	01470733          	add	a4,a4,s4
    d710:	f8843a03          	ld	s4,-120(s0)
    d714:	01470733          	add	a4,a4,s4
    d718:	1007071b          	addiw	a4,a4,256
    d71c:	40000b37          	lui	s6,0x40000
    d720:	c4e43823          	sd	a4,-944(s0)
    d724:	00075463          	bgez	a4,d72c <.LBB64_1198>
    d728:	c0000b37          	lui	s6,0xc0000

000000000000d72c <.LBB64_1198>:
    d72c:	c5643023          	sd	s6,-960(s0)
    d730:	dc043703          	ld	a4,-576(s0)
    d734:	b7043a03          	ld	s4,-1168(s0)
    d738:	01470733          	add	a4,a4,s4
    d73c:	00970733          	add	a4,a4,s1
    d740:	f8843a03          	ld	s4,-120(s0)
    d744:	01470733          	add	a4,a4,s4
    d748:	1007071b          	addiw	a4,a4,256
    d74c:	40000b37          	lui	s6,0x40000
    d750:	c6e43023          	sd	a4,-928(s0)
    d754:	00075463          	bgez	a4,d75c <.LBB64_1200>
    d758:	c0000b37          	lui	s6,0xc0000

000000000000d75c <.LBB64_1200>:
    d75c:	c5643c23          	sd	s6,-936(s0)
    d760:	dc843703          	ld	a4,-568(s0)
    d764:	b7843a03          	ld	s4,-1160(s0)
    d768:	01470733          	add	a4,a4,s4
    d76c:	01e70733          	add	a4,a4,t5
    d770:	f8843a03          	ld	s4,-120(s0)
    d774:	01470733          	add	a4,a4,s4
    d778:	1007071b          	addiw	a4,a4,256
    d77c:	40000b37          	lui	s6,0x40000
    d780:	c6e43823          	sd	a4,-912(s0)
    d784:	00075463          	bgez	a4,d78c <.LBB64_1202>
    d788:	c0000b37          	lui	s6,0xc0000

000000000000d78c <.LBB64_1202>:
    d78c:	c7643423          	sd	s6,-920(s0)
    d790:	dd043703          	ld	a4,-560(s0)
    d794:	ec843a03          	ld	s4,-312(s0)
    d798:	01470733          	add	a4,a4,s4
    d79c:	00b70733          	add	a4,a4,a1
    d7a0:	f8843a03          	ld	s4,-120(s0)
    d7a4:	01470733          	add	a4,a4,s4
    d7a8:	1007071b          	addiw	a4,a4,256
    d7ac:	40000b37          	lui	s6,0x40000
    d7b0:	c8e43023          	sd	a4,-896(s0)
    d7b4:	00075463          	bgez	a4,d7bc <.LBB64_1204>
    d7b8:	c0000b37          	lui	s6,0xc0000

000000000000d7bc <.LBB64_1204>:
    d7bc:	c7643c23          	sd	s6,-904(s0)
    d7c0:	dd843703          	ld	a4,-552(s0)
    d7c4:	ed043a03          	ld	s4,-304(s0)
    d7c8:	01470733          	add	a4,a4,s4
    d7cc:	01170733          	add	a4,a4,a7
    d7d0:	f8843a03          	ld	s4,-120(s0)
    d7d4:	01470733          	add	a4,a4,s4
    d7d8:	1007071b          	addiw	a4,a4,256
    d7dc:	40000b37          	lui	s6,0x40000
    d7e0:	c8e43c23          	sd	a4,-872(s0)
    d7e4:	00075463          	bgez	a4,d7ec <.LBB64_1206>
    d7e8:	c0000b37          	lui	s6,0xc0000

000000000000d7ec <.LBB64_1206>:
    d7ec:	c9643823          	sd	s6,-880(s0)
    d7f0:	de043703          	ld	a4,-544(s0)
    d7f4:	ed843a03          	ld	s4,-296(s0)
    d7f8:	01470733          	add	a4,a4,s4
    d7fc:	01070733          	add	a4,a4,a6
    d800:	f8843a03          	ld	s4,-120(s0)
    d804:	01470733          	add	a4,a4,s4
    d808:	1007071b          	addiw	a4,a4,256
    d80c:	40000b37          	lui	s6,0x40000
    d810:	cae43423          	sd	a4,-856(s0)
    d814:	00075463          	bgez	a4,d81c <.LBB64_1208>
    d818:	c0000b37          	lui	s6,0xc0000

000000000000d81c <.LBB64_1208>:
    d81c:	cb643023          	sd	s6,-864(s0)
    d820:	de843703          	ld	a4,-536(s0)
    d824:	ee043a03          	ld	s4,-288(s0)
    d828:	01470733          	add	a4,a4,s4
    d82c:	00c70733          	add	a4,a4,a2
    d830:	f8843a03          	ld	s4,-120(s0)
    d834:	01470733          	add	a4,a4,s4
    d838:	1007071b          	addiw	a4,a4,256
    d83c:	40000b37          	lui	s6,0x40000
    d840:	cae43c23          	sd	a4,-840(s0)
    d844:	00075463          	bgez	a4,d84c <.LBB64_1210>
    d848:	c0000b37          	lui	s6,0xc0000

000000000000d84c <.LBB64_1210>:
    d84c:	cb643823          	sd	s6,-848(s0)
    d850:	df043703          	ld	a4,-528(s0)
    d854:	ee843a03          	ld	s4,-280(s0)
    d858:	01470733          	add	a4,a4,s4
    d85c:	00a70733          	add	a4,a4,a0
    d860:	f8843a03          	ld	s4,-120(s0)
    d864:	01470733          	add	a4,a4,s4
    d868:	1007071b          	addiw	a4,a4,256
    d86c:	40000b37          	lui	s6,0x40000
    d870:	cce43423          	sd	a4,-824(s0)
    d874:	00075463          	bgez	a4,d87c <.LBB64_1212>
    d878:	c0000b37          	lui	s6,0xc0000

000000000000d87c <.LBB64_1212>:
    d87c:	cd643023          	sd	s6,-832(s0)
    d880:	df843703          	ld	a4,-520(s0)
    d884:	ef043a03          	ld	s4,-272(s0)
    d888:	01470733          	add	a4,a4,s4
    d88c:	00d70733          	add	a4,a4,a3
    d890:	f8843a03          	ld	s4,-120(s0)
    d894:	01470733          	add	a4,a4,s4
    d898:	1007071b          	addiw	a4,a4,256
    d89c:	40000b37          	lui	s6,0x40000
    d8a0:	cee43023          	sd	a4,-800(s0)
    d8a4:	00075463          	bgez	a4,d8ac <.LBB64_1214>
    d8a8:	c0000b37          	lui	s6,0xc0000

000000000000d8ac <.LBB64_1214>:
    d8ac:	cd643c23          	sd	s6,-808(s0)
    d8b0:	e0043703          	ld	a4,-512(s0)
    d8b4:	ef843a03          	ld	s4,-264(s0)
    d8b8:	01470733          	add	a4,a4,s4
    d8bc:	00f70733          	add	a4,a4,a5
    d8c0:	f8843a03          	ld	s4,-120(s0)
    d8c4:	01470733          	add	a4,a4,s4
    d8c8:	1007071b          	addiw	a4,a4,256
    d8cc:	40000b37          	lui	s6,0x40000
    d8d0:	cee43823          	sd	a4,-784(s0)
    d8d4:	00075463          	bgez	a4,d8dc <.LBB64_1216>
    d8d8:	c0000b37          	lui	s6,0xc0000

000000000000d8dc <.LBB64_1216>:
    d8dc:	cf643423          	sd	s6,-792(s0)
    d8e0:	e0843703          	ld	a4,-504(s0)
    d8e4:	f0043a03          	ld	s4,-256(s0)
    d8e8:	01470733          	add	a4,a4,s4
    d8ec:	00670733          	add	a4,a4,t1
    d8f0:	f8843a03          	ld	s4,-120(s0)
    d8f4:	01470733          	add	a4,a4,s4
    d8f8:	1007071b          	addiw	a4,a4,256
    d8fc:	40000b37          	lui	s6,0x40000
    d900:	d0e43023          	sd	a4,-768(s0)
    d904:	00075463          	bgez	a4,d90c <.LBB64_1218>
    d908:	c0000b37          	lui	s6,0xc0000

000000000000d90c <.LBB64_1218>:
    d90c:	cf643c23          	sd	s6,-776(s0)
    d910:	e1043703          	ld	a4,-496(s0)
    d914:	f0843a03          	ld	s4,-248(s0)
    d918:	01470733          	add	a4,a4,s4
    d91c:	00770733          	add	a4,a4,t2
    d920:	f8843a03          	ld	s4,-120(s0)
    d924:	01470733          	add	a4,a4,s4
    d928:	1007071b          	addiw	a4,a4,256
    d92c:	40000b37          	lui	s6,0x40000
    d930:	d0e43c23          	sd	a4,-744(s0)
    d934:	00075463          	bgez	a4,d93c <.LBB64_1220>
    d938:	c0000b37          	lui	s6,0xc0000

000000000000d93c <.LBB64_1220>:
    d93c:	d1643423          	sd	s6,-760(s0)
    d940:	e1843703          	ld	a4,-488(s0)
    d944:	f1043a03          	ld	s4,-240(s0)
    d948:	01470733          	add	a4,a4,s4
    d94c:	01b70733          	add	a4,a4,s11
    d950:	f8843a03          	ld	s4,-120(s0)
    d954:	01470733          	add	a4,a4,s4
    d958:	1007071b          	addiw	a4,a4,256
    d95c:	40000b37          	lui	s6,0x40000
    d960:	d2e43423          	sd	a4,-728(s0)
    d964:	00075463          	bgez	a4,d96c <.LBB64_1222>
    d968:	c0000b37          	lui	s6,0xc0000

000000000000d96c <.LBB64_1222>:
    d96c:	d3643023          	sd	s6,-736(s0)
    d970:	e2043703          	ld	a4,-480(s0)
    d974:	f1843a03          	ld	s4,-232(s0)
    d978:	01470733          	add	a4,a4,s4
    d97c:	01a70733          	add	a4,a4,s10
    d980:	f8843a03          	ld	s4,-120(s0)
    d984:	01470733          	add	a4,a4,s4
    d988:	1007071b          	addiw	a4,a4,256
    d98c:	40000b37          	lui	s6,0x40000
    d990:	d2e43c23          	sd	a4,-712(s0)
    d994:	00075463          	bgez	a4,d99c <.LBB64_1224>
    d998:	c0000b37          	lui	s6,0xc0000

000000000000d99c <.LBB64_1224>:
    d99c:	d3643823          	sd	s6,-720(s0)
    d9a0:	e2843703          	ld	a4,-472(s0)
    d9a4:	f2043a03          	ld	s4,-224(s0)
    d9a8:	01470733          	add	a4,a4,s4
    d9ac:	01970733          	add	a4,a4,s9
    d9b0:	f8843a03          	ld	s4,-120(s0)
    d9b4:	01470733          	add	a4,a4,s4
    d9b8:	1007071b          	addiw	a4,a4,256
    d9bc:	40000b37          	lui	s6,0x40000
    d9c0:	d4e43423          	sd	a4,-696(s0)
    d9c4:	00075463          	bgez	a4,d9cc <.LBB64_1226>
    d9c8:	c0000b37          	lui	s6,0xc0000

000000000000d9cc <.LBB64_1226>:
    d9cc:	d5643023          	sd	s6,-704(s0)
    d9d0:	e3043703          	ld	a4,-464(s0)
    d9d4:	b1043a03          	ld	s4,-1264(s0)
    d9d8:	01470733          	add	a4,a4,s4
    d9dc:	b0843a03          	ld	s4,-1272(s0)
    d9e0:	01470733          	add	a4,a4,s4
    d9e4:	f2843a03          	ld	s4,-216(s0)
    d9e8:	01470733          	add	a4,a4,s4
    d9ec:	1007071b          	addiw	a4,a4,256
    d9f0:	40000b37          	lui	s6,0x40000
    d9f4:	d6e43023          	sd	a4,-672(s0)
    d9f8:	00075463          	bgez	a4,da00 <.LBB64_1228>
    d9fc:	c0000b37          	lui	s6,0xc0000

000000000000da00 <.LBB64_1228>:
    da00:	d5643823          	sd	s6,-688(s0)
    da04:	e3843703          	ld	a4,-456(s0)
    da08:	b0043a03          	ld	s4,-1280(s0)
    da0c:	01470733          	add	a4,a4,s4
    da10:	af843a03          	ld	s4,-1288(s0)
    da14:	01470733          	add	a4,a4,s4
    da18:	f2843a03          	ld	s4,-216(s0)
    da1c:	01470733          	add	a4,a4,s4
    da20:	1007071b          	addiw	a4,a4,256
    da24:	40000b37          	lui	s6,0x40000
    da28:	d6e43823          	sd	a4,-656(s0)
    da2c:	00075463          	bgez	a4,da34 <.LBB64_1230>
    da30:	c0000b37          	lui	s6,0xc0000

000000000000da34 <.LBB64_1230>:
    da34:	d7643423          	sd	s6,-664(s0)
    da38:	e4043703          	ld	a4,-448(s0)
    da3c:	af043a03          	ld	s4,-1296(s0)
    da40:	01470733          	add	a4,a4,s4
    da44:	ae843a03          	ld	s4,-1304(s0)
    da48:	01470733          	add	a4,a4,s4
    da4c:	f2843a03          	ld	s4,-216(s0)
    da50:	01470733          	add	a4,a4,s4
    da54:	1007071b          	addiw	a4,a4,256
    da58:	40000b37          	lui	s6,0x40000
    da5c:	f9643423          	sd	s6,-120(s0)
    da60:	d6e43c23          	sd	a4,-648(s0)
    da64:	00075663          	bgez	a4,da70 <.LBB64_1232>
    da68:	c0000737          	lui	a4,0xc0000
    da6c:	f8e43423          	sd	a4,-120(s0)

000000000000da70 <.LBB64_1232>:
    da70:	ae043703          	ld	a4,-1312(s0)
    da74:	00e08733          	add	a4,ra,a4
    da78:	ad843a03          	ld	s4,-1320(s0)
    da7c:	01470733          	add	a4,a4,s4
    da80:	f2843b03          	ld	s6,-216(s0)
    da84:	01670733          	add	a4,a4,s6
    da88:	1007071b          	addiw	a4,a4,256 # ffffffffc0000100 <.Lfunc_end80+0xffffffffbffd7734>
    da8c:	400000b7          	lui	ra,0x40000
    da90:	d8e43023          	sd	a4,-640(s0)
    da94:	00075463          	bgez	a4,da9c <.LBB64_1234>
    da98:	c00000b7          	lui	ra,0xc0000

000000000000da9c <.LBB64_1234>:
    da9c:	ad043703          	ld	a4,-1328(s0)
    daa0:	00ec0733          	add	a4,s8,a4
    daa4:	ac843a03          	ld	s4,-1336(s0)
    daa8:	01470733          	add	a4,a4,s4
    daac:	01670733          	add	a4,a4,s6
    dab0:	1007071b          	addiw	a4,a4,256
    dab4:	40000c37          	lui	s8,0x40000
    dab8:	d8e43423          	sd	a4,-632(s0)
    dabc:	00075463          	bgez	a4,dac4 <.LBB64_1236>
    dac0:	c0000c37          	lui	s8,0xc0000

000000000000dac4 <.LBB64_1236>:
    dac4:	ac043703          	ld	a4,-1344(s0)
    dac8:	00ea8733          	add	a4,s5,a4
    dacc:	ab843a03          	ld	s4,-1352(s0)
    dad0:	01470733          	add	a4,a4,s4
    dad4:	01670733          	add	a4,a4,s6
    dad8:	1007071b          	addiw	a4,a4,256
    dadc:	40000ab7          	lui	s5,0x40000
    dae0:	d8e43c23          	sd	a4,-616(s0)
    dae4:	00075463          	bgez	a4,daec <.LBB64_1238>
    dae8:	c0000ab7          	lui	s5,0xc0000

000000000000daec <.LBB64_1238>:
    daec:	ab043703          	ld	a4,-1360(s0)
    daf0:	00e98733          	add	a4,s3,a4
    daf4:	aa843983          	ld	s3,-1368(s0)
    daf8:	01370733          	add	a4,a4,s3
    dafc:	01670733          	add	a4,a4,s6
    db00:	1007071b          	addiw	a4,a4,256
    db04:	400009b7          	lui	s3,0x40000
    db08:	dae43023          	sd	a4,-608(s0)
    db0c:	00075463          	bgez	a4,db14 <.LBB64_1240>
    db10:	c00009b7          	lui	s3,0xc0000

000000000000db14 <.LBB64_1240>:
    db14:	aa043703          	ld	a4,-1376(s0)
    db18:	00e90733          	add	a4,s2,a4
    db1c:	a9843903          	ld	s2,-1384(s0)
    db20:	01270733          	add	a4,a4,s2
    db24:	01670733          	add	a4,a4,s6
    db28:	1007071b          	addiw	a4,a4,256
    db2c:	40000937          	lui	s2,0x40000
    db30:	dae43823          	sd	a4,-592(s0)
    db34:	00075463          	bgez	a4,db3c <.LBB64_1242>
    db38:	c0000937          	lui	s2,0xc0000

000000000000db3c <.LBB64_1242>:
    db3c:	a9043703          	ld	a4,-1392(s0)
    db40:	00ef8733          	add	a4,t6,a4
    db44:	a8843f83          	ld	t6,-1400(s0)
    db48:	01f70733          	add	a4,a4,t6
    db4c:	01670733          	add	a4,a4,s6
    db50:	1007071b          	addiw	a4,a4,256
    db54:	40000fb7          	lui	t6,0x40000
    db58:	dce43023          	sd	a4,-576(s0)
    db5c:	00075463          	bgez	a4,db64 <.LBB64_1244>
    db60:	c0000fb7          	lui	t6,0xc0000

000000000000db64 <.LBB64_1244>:
    db64:	dbf43c23          	sd	t6,-584(s0)
    db68:	f3043703          	ld	a4,-208(s0)
    db6c:	a8043f83          	ld	t6,-1408(s0)
    db70:	01f70733          	add	a4,a4,t6
    db74:	b3043f83          	ld	t6,-1232(s0)
    db78:	01f70733          	add	a4,a4,t6
    db7c:	01670733          	add	a4,a4,s6
    db80:	1007071b          	addiw	a4,a4,256
    db84:	40000fb7          	lui	t6,0x40000
    db88:	dce43823          	sd	a4,-560(s0)
    db8c:	00075463          	bgez	a4,db94 <.LBB64_1246>
    db90:	c0000fb7          	lui	t6,0xc0000

000000000000db94 <.LBB64_1246>:
    db94:	b1843703          	ld	a4,-1256(s0)
    db98:	00ee8733          	add	a4,t4,a4
    db9c:	b2843e83          	ld	t4,-1240(s0)
    dba0:	01d70733          	add	a4,a4,t4
    dba4:	01670733          	add	a4,a4,s6
    dba8:	1007071b          	addiw	a4,a4,256
    dbac:	40000eb7          	lui	t4,0x40000
    dbb0:	dee43023          	sd	a4,-544(s0)
    dbb4:	00075463          	bgez	a4,dbbc <.LBB64_1248>
    dbb8:	c0000eb7          	lui	t4,0xc0000

000000000000dbbc <.LBB64_1248>:
    dbbc:	ddd43c23          	sd	t4,-552(s0)
    dbc0:	b3843703          	ld	a4,-1224(s0)
    dbc4:	e7843e83          	ld	t4,-392(s0)
    dbc8:	00ee8733          	add	a4,t4,a4
    dbcc:	b8843e83          	ld	t4,-1144(s0)
    dbd0:	01d70733          	add	a4,a4,t4
    dbd4:	01670733          	add	a4,a4,s6
    dbd8:	1007071b          	addiw	a4,a4,256
    dbdc:	40000eb7          	lui	t4,0x40000
    dbe0:	dee43823          	sd	a4,-528(s0)
    dbe4:	00075463          	bgez	a4,dbec <.LBB64_1250>
    dbe8:	c0000eb7          	lui	t4,0xc0000

000000000000dbec <.LBB64_1250>:
    dbec:	b4043703          	ld	a4,-1216(s0)
    dbf0:	00ee0733          	add	a4,t3,a4
    dbf4:	b9843e03          	ld	t3,-1128(s0)
    dbf8:	01c70733          	add	a4,a4,t3
    dbfc:	01670733          	add	a4,a4,s6
    dc00:	1007071b          	addiw	a4,a4,256
    dc04:	40000e37          	lui	t3,0x40000
    dc08:	e0e43023          	sd	a4,-512(s0)
    dc0c:	00075463          	bgez	a4,dc14 <.LBB64_1252>
    dc10:	c0000e37          	lui	t3,0xc0000

000000000000dc14 <.LBB64_1252>:
    dc14:	dfc43c23          	sd	t3,-520(s0)
    dc18:	b4843703          	ld	a4,-1208(s0)
    dc1c:	e5843e03          	ld	t3,-424(s0)
    dc20:	00ee0733          	add	a4,t3,a4
    dc24:	ba843e03          	ld	t3,-1112(s0)
    dc28:	01c70733          	add	a4,a4,t3
    dc2c:	01670733          	add	a4,a4,s6
    dc30:	1007071b          	addiw	a4,a4,256
    dc34:	40000e37          	lui	t3,0x40000
    dc38:	e0e43823          	sd	a4,-496(s0)
    dc3c:	00075463          	bgez	a4,dc44 <.LBB64_1254>
    dc40:	c0000e37          	lui	t3,0xc0000

000000000000dc44 <.LBB64_1254>:
    dc44:	dfd43423          	sd	t4,-536(s0)
    dc48:	b5043703          	ld	a4,-1200(s0)
    dc4c:	00e28733          	add	a4,t0,a4
    dc50:	bb043283          	ld	t0,-1104(s0)
    dc54:	00570733          	add	a4,a4,t0
    dc58:	01670733          	add	a4,a4,s6
    dc5c:	1007071b          	addiw	a4,a4,256
    dc60:	400002b7          	lui	t0,0x40000
    dc64:	e2e43023          	sd	a4,-480(s0)
    dc68:	00075463          	bgez	a4,dc70 <.LBB64_1256>
    dc6c:	c00002b7          	lui	t0,0xc0000

000000000000dc70 <.LBB64_1256>:
    dc70:	e0543c23          	sd	t0,-488(s0)
    dc74:	f4043703          	ld	a4,-192(s0)
    dc78:	b5843283          	ld	t0,-1192(s0)
    dc7c:	00570733          	add	a4,a4,t0
    dc80:	bb843283          	ld	t0,-1096(s0)
    dc84:	00570733          	add	a4,a4,t0
    dc88:	01670733          	add	a4,a4,s6
    dc8c:	1007071b          	addiw	a4,a4,256
    dc90:	40000eb7          	lui	t4,0x40000
    dc94:	e2e43423          	sd	a4,-472(s0)
    dc98:	00075463          	bgez	a4,dca0 <.LBB64_1258>
    dc9c:	c0000eb7          	lui	t4,0xc0000

000000000000dca0 <.LBB64_1258>:
    dca0:	b6043703          	ld	a4,-1184(s0)
    dca4:	f4843283          	ld	t0,-184(s0)
    dca8:	00e28733          	add	a4,t0,a4
    dcac:	bc043283          	ld	t0,-1088(s0)
    dcb0:	00570733          	add	a4,a4,t0
    dcb4:	01670733          	add	a4,a4,s6
    dcb8:	1007071b          	addiw	a4,a4,256
    dcbc:	400002b7          	lui	t0,0x40000
    dcc0:	e2e43c23          	sd	a4,-456(s0)
    dcc4:	00075463          	bgez	a4,dccc <.LBB64_1260>
    dcc8:	c00002b7          	lui	t0,0xc0000

000000000000dccc <.LBB64_1260>:
    dccc:	ddf43423          	sd	t6,-568(s0)
    dcd0:	e2543823          	sd	t0,-464(s0)
    dcd4:	f5043703          	ld	a4,-176(s0)
    dcd8:	b6843283          	ld	t0,-1176(s0)
    dcdc:	00570733          	add	a4,a4,t0
    dce0:	bc843283          	ld	t0,-1080(s0)
    dce4:	00570733          	add	a4,a4,t0
    dce8:	01670733          	add	a4,a4,s6
    dcec:	1007071b          	addiw	a4,a4,256
    dcf0:	400002b7          	lui	t0,0x40000
    dcf4:	e4e43423          	sd	a4,-440(s0)
    dcf8:	00075463          	bgez	a4,dd00 <.LBB64_1262>
    dcfc:	c00002b7          	lui	t0,0xc0000

000000000000dd00 <.LBB64_1262>:
    dd00:	e1c43423          	sd	t3,-504(s0)
    dd04:	f5843703          	ld	a4,-168(s0)
    dd08:	b7043e03          	ld	t3,-1168(s0)
    dd0c:	01c70733          	add	a4,a4,t3
    dd10:	00970733          	add	a4,a4,s1
    dd14:	01670733          	add	a4,a4,s6
    dd18:	1007071b          	addiw	a4,a4,256
    dd1c:	40000fb7          	lui	t6,0x40000
    dd20:	e4e43823          	sd	a4,-432(s0)
    dd24:	00075463          	bgez	a4,dd2c <.LBB64_1264>
    dd28:	c0000fb7          	lui	t6,0xc0000

000000000000dd2c <.LBB64_1264>:
    dd2c:	db243423          	sd	s2,-600(s0)
    dd30:	e4543023          	sd	t0,-448(s0)
    dd34:	b7843703          	ld	a4,-1160(s0)
    dd38:	f6043283          	ld	t0,-160(s0)
    dd3c:	00e28733          	add	a4,t0,a4
    dd40:	01e70733          	add	a4,a4,t5
    dd44:	01670733          	add	a4,a4,s6
    dd48:	1007071b          	addiw	a4,a4,256
    dd4c:	40000e37          	lui	t3,0x40000
    dd50:	e6e43023          	sd	a4,-416(s0)
    dd54:	00075463          	bgez	a4,dd5c <.LBB64_1266>
    dd58:	c0000e37          	lui	t3,0xc0000

000000000000dd5c <.LBB64_1266>:
    dd5c:	f6843703          	ld	a4,-152(s0)
    dd60:	ec843283          	ld	t0,-312(s0)
    dd64:	00570733          	add	a4,a4,t0
    dd68:	00b705b3          	add	a1,a4,a1
    dd6c:	016585b3          	add	a1,a1,s6
    dd70:	1005891b          	addiw	s2,a1,256
    dd74:	400002b7          	lui	t0,0x40000
    dd78:	00095463          	bgez	s2,dd80 <.LBB64_1268>
    dd7c:	c00002b7          	lui	t0,0xc0000

000000000000dd80 <.LBB64_1268>:
    dd80:	f7043583          	ld	a1,-144(s0)
    dd84:	ed043703          	ld	a4,-304(s0)
    dd88:	00e585b3          	add	a1,a1,a4
    dd8c:	011585b3          	add	a1,a1,a7
    dd90:	016585b3          	add	a1,a1,s6
    dd94:	1005859b          	addiw	a1,a1,256
    dd98:	400008b7          	lui	a7,0x40000
    dd9c:	ea043703          	ld	a4,-352(s0)
    dda0:	e6b43c23          	sd	a1,-392(s0)
    dda4:	0005d463          	bgez	a1,ddac <.LBB64_1270>
    dda8:	c00008b7          	lui	a7,0xc0000

000000000000ddac <.LBB64_1270>:
    ddac:	d9543823          	sd	s5,-624(s0)
    ddb0:	f7843583          	ld	a1,-136(s0)
    ddb4:	ed843f03          	ld	t5,-296(s0)
    ddb8:	01e585b3          	add	a1,a1,t5
    ddbc:	010585b3          	add	a1,a1,a6
    ddc0:	016585b3          	add	a1,a1,s6
    ddc4:	1005859b          	addiw	a1,a1,256
    ddc8:	40000837          	lui	a6,0x40000
    ddcc:	ecb43423          	sd	a1,-312(s0)
    ddd0:	0005d463          	bgez	a1,ddd8 <.LBB64_1272>
    ddd4:	c0000837          	lui	a6,0xc0000

000000000000ddd8 <.LBB64_1272>:
    ddd8:	e6543423          	sd	t0,-408(s0)
    dddc:	e7143823          	sd	a7,-400(s0)
    dde0:	e9043023          	sd	a6,-384(s0)
    dde4:	f8043583          	ld	a1,-128(s0)
    dde8:	ee043803          	ld	a6,-288(s0)
    ddec:	010585b3          	add	a1,a1,a6
    ddf0:	00c585b3          	add	a1,a1,a2
    ddf4:	016585b3          	add	a1,a1,s6
    ddf8:	10058a9b          	addiw	s5,a1,256
    ddfc:	40000637          	lui	a2,0x40000
    de00:	e8843583          	ld	a1,-376(s0)
    de04:	000ad463          	bgez	s5,de0c <.LBB64_1274>
    de08:	c0000637          	lui	a2,0xc0000

000000000000de0c <.LBB64_1274>:
    de0c:	00008893          	mv	a7,ra
    de10:	e5c43c23          	sd	t3,-424(s0)
    de14:	ecc43823          	sd	a2,-304(s0)
    de18:	ee843603          	ld	a2,-280(s0)
    de1c:	00c585b3          	add	a1,a1,a2
    de20:	00a58533          	add	a0,a1,a0
    de24:	01650533          	add	a0,a0,s6
    de28:	10050a1b          	addiw	s4,a0,256
    de2c:	40000f37          	lui	t5,0x40000
    de30:	ea843603          	ld	a2,-344(s0)
    de34:	000e8293          	mv	t0,t4
    de38:	000a5463          	bgez	s4,de40 <.LBB64_1276>
    de3c:	c0000f37          	lui	t5,0xc0000

000000000000de40 <.LBB64_1276>:
    de40:	000c0813          	mv	a6,s8
    de44:	e9043503          	ld	a0,-368(s0)
    de48:	ef043583          	ld	a1,-272(s0)
    de4c:	00b50533          	add	a0,a0,a1
    de50:	00d50533          	add	a0,a0,a3
    de54:	01650533          	add	a0,a0,s6
    de58:	1005051b          	addiw	a0,a0,256
    de5c:	40000eb7          	lui	t4,0x40000
    de60:	eb843083          	ld	ra,-328(s0)
    de64:	ec043583          	ld	a1,-320(s0)
    de68:	eca43c23          	sd	a0,-296(s0)
    de6c:	000f8e13          	mv	t3,t6
    de70:	00055463          	bgez	a0,de78 <.LBB64_1278>
    de74:	c0000eb7          	lui	t4,0xc0000

000000000000de78 <.LBB64_1278>:
    de78:	e9843503          	ld	a0,-360(s0)
    de7c:	ef843683          	ld	a3,-264(s0)
    de80:	00d50533          	add	a0,a0,a3
    de84:	00f50533          	add	a0,a0,a5
    de88:	01650533          	add	a0,a0,s6
    de8c:	10050c1b          	addiw	s8,a0,256
    de90:	400007b7          	lui	a5,0x40000
    de94:	eb043683          	ld	a3,-336(s0)
    de98:	000c5463          	bgez	s8,dea0 <.LBB64_1280>
    de9c:	c00007b7          	lui	a5,0xc0000

000000000000dea0 <.LBB64_1280>:
    dea0:	f0043503          	ld	a0,-256(s0)
    dea4:	00a70533          	add	a0,a4,a0
    dea8:	00650533          	add	a0,a0,t1
    deac:	01650533          	add	a0,a0,s6
    deb0:	1005049b          	addiw	s1,a0,256
    deb4:	40000537          	lui	a0,0x40000
    deb8:	0004d463          	bgez	s1,dec0 <.LBB64_1282>
    debc:	c0000537          	lui	a0,0xc0000

000000000000dec0 <.LBB64_1282>:
    dec0:	eef43423          	sd	a5,-280(s0)
    dec4:	eea43823          	sd	a0,-272(s0)
    dec8:	f0843503          	ld	a0,-248(s0)
    decc:	00a68533          	add	a0,a3,a0
    ded0:	00750533          	add	a0,a0,t2
    ded4:	01650533          	add	a0,a0,s6
    ded8:	10050b1b          	addiw	s6,a0,256 # ffffffffc0000100 <.Lfunc_end80+0xffffffffbffd7734>
    dedc:	40000537          	lui	a0,0x40000
    dee0:	000016b7          	lui	a3,0x1
    dee4:	40d406b3          	sub	a3,s0,a3
    dee8:	7d86b703          	ld	a4,2008(a3) # 17d8 <.LBB64_5+0xd0>
    deec:	000b5463          	bgez	s6,def4 <.LBB64_1284>
    def0:	c0000537          	lui	a0,0xc0000

000000000000def4 <.LBB64_1284>:
    def4:	eea43c23          	sd	a0,-264(s0)
    def8:	f1043503          	ld	a0,-240(s0)
    defc:	00a60533          	add	a0,a2,a0
    df00:	01b50533          	add	a0,a0,s11
    df04:	f2843603          	ld	a2,-216(s0)
    df08:	00c50533          	add	a0,a0,a2
    df0c:	1005051b          	addiw	a0,a0,256 # ffffffffc0000100 <.Lfunc_end80+0xffffffffbffd7734>
    df10:	40000fb7          	lui	t6,0x40000
    df14:	f0a43423          	sd	a0,-248(s0)
    df18:	00001637          	lui	a2,0x1
    df1c:	40c40633          	sub	a2,s0,a2
    df20:	7f863683          	ld	a3,2040(a2) # 17f8 <.LBB64_5+0xf0>
    df24:	00001637          	lui	a2,0x1
    df28:	40c40633          	sub	a2,s0,a2
    df2c:	7c063783          	ld	a5,1984(a2) # 17c0 <.LBB64_5+0xb8>
    df30:	00055463          	bgez	a0,df38 <.LBB64_1286>
    df34:	c0000fb7          	lui	t6,0xc0000

000000000000df38 <.LBB64_1286>:
    df38:	f1843503          	ld	a0,-232(s0)
    df3c:	00a58533          	add	a0,a1,a0
    df40:	01a50533          	add	a0,a0,s10
    df44:	f2843583          	ld	a1,-216(s0)
    df48:	00b50533          	add	a0,a0,a1
    df4c:	1005051b          	addiw	a0,a0,256
    df50:	400005b7          	lui	a1,0x40000
    df54:	f0a43c23          	sd	a0,-232(s0)
    df58:	00055463          	bgez	a0,df60 <.LBB64_1288>
    df5c:	c00005b7          	lui	a1,0xc0000

000000000000df60 <.LBB64_1288>:
    df60:	00098613          	mv	a2,s3
    df64:	f0b43823          	sd	a1,-240(s0)
    df68:	f2043503          	ld	a0,-224(s0)
    df6c:	00a08533          	add	a0,ra,a0
    df70:	01950533          	add	a0,a0,s9
    df74:	f2843583          	ld	a1,-216(s0)
    df78:	00b50533          	add	a0,a0,a1
    df7c:	1005051b          	addiw	a0,a0,256
    df80:	400005b7          	lui	a1,0x40000
    df84:	f2a43023          	sd	a0,-224(s0)
    df88:	00055463          	bgez	a0,df90 <.LBB64_1290>
    df8c:	c00005b7          	lui	a1,0xc0000

000000000000df90 <.LBB64_1290>:
    df90:	eab43c23          	sd	a1,-328(s0)
    df94:	00001537          	lui	a0,0x1
    df98:	40a40533          	sub	a0,s0,a0
    df9c:	5d853c83          	ld	s9,1496(a0) # 15d8 <.LBB64_4+0x46c>
    dfa0:	83043503          	ld	a0,-2000(s0)
    dfa4:	03950533          	mul	a0,a0,s9
    dfa8:	017685b3          	add	a1,a3,s7
    dfac:	00b50533          	add	a0,a0,a1
    dfb0:	42555513          	srai	a0,a0,0x25
    dfb4:	00a025b3          	sgtz	a1,a0
    dfb8:	40b005b3          	neg	a1,a1
    dfbc:	00a5f533          	and	a0,a1,a0
    dfc0:	0ff00993          	li	s3,255
    dfc4:	00088693          	mv	a3,a7
    dfc8:	01354463          	blt	a0,s3,dfd0 <.LBB64_1292>
    dfcc:	0ff00513          	li	a0,255

000000000000dfd0 <.LBB64_1292>:
    dfd0:	f4a43023          	sd	a0,-192(s0)
    dfd4:	82043503          	ld	a0,-2016(s0)
    dfd8:	03950533          	mul	a0,a0,s9
    dfdc:	80843583          	ld	a1,-2040(s0)
    dfe0:	017585b3          	add	a1,a1,s7
    dfe4:	00b50533          	add	a0,a0,a1
    dfe8:	42555513          	srai	a0,a0,0x25
    dfec:	00a025b3          	sgtz	a1,a0
    dff0:	40b005b3          	neg	a1,a1
    dff4:	00a5f533          	and	a0,a1,a0
    dff8:	000015b7          	lui	a1,0x1
    dffc:	40b405b3          	sub	a1,s0,a1
    e000:	7f05b583          	ld	a1,2032(a1) # 17f0 <.LBB64_5+0xe8>
    e004:	01354463          	blt	a0,s3,e00c <.LBB64_1294>
    e008:	0ff00513          	li	a0,255

000000000000e00c <.LBB64_1294>:
    e00c:	f8a43023          	sd	a0,-128(s0)
    e010:	81843503          	ld	a0,-2024(s0)
    e014:	03950533          	mul	a0,a0,s9
    e018:	017585b3          	add	a1,a1,s7
    e01c:	00b50533          	add	a0,a0,a1
    e020:	42555513          	srai	a0,a0,0x25
    e024:	00a025b3          	sgtz	a1,a0
    e028:	40b005b3          	neg	a1,a1
    e02c:	00a5f533          	and	a0,a1,a0
    e030:	01354463          	blt	a0,s3,e038 <.LBB64_1296>
    e034:	0ff00513          	li	a0,255

000000000000e038 <.LBB64_1296>:
    e038:	f6a43c23          	sd	a0,-136(s0)
    e03c:	80043503          	ld	a0,-2048(s0)
    e040:	03950533          	mul	a0,a0,s9
    e044:	017705b3          	add	a1,a4,s7
    e048:	00b50533          	add	a0,a0,a1
    e04c:	42555513          	srai	a0,a0,0x25
    e050:	00a025b3          	sgtz	a1,a0
    e054:	40b005b3          	neg	a1,a1
    e058:	00a5f533          	and	a0,a1,a0
    e05c:	01354463          	blt	a0,s3,e064 <.LBB64_1298>
    e060:	0ff00513          	li	a0,255

000000000000e064 <.LBB64_1298>:
    e064:	f6a43823          	sd	a0,-144(s0)
    e068:	00001537          	lui	a0,0x1
    e06c:	40a40533          	sub	a0,s0,a0
    e070:	7e053503          	ld	a0,2016(a0) # 17e0 <.LBB64_5+0xd8>
    e074:	03950533          	mul	a0,a0,s9
    e078:	017785b3          	add	a1,a5,s7
    e07c:	00b50533          	add	a0,a0,a1
    e080:	42555513          	srai	a0,a0,0x25
    e084:	00a025b3          	sgtz	a1,a0
    e088:	40b005b3          	neg	a1,a1
    e08c:	00a5f533          	and	a0,a1,a0
    e090:	01354463          	blt	a0,s3,e098 <.LBB64_1300>
    e094:	0ff00513          	li	a0,255

000000000000e098 <.LBB64_1300>:
    e098:	f6a43423          	sd	a0,-152(s0)
    e09c:	00001537          	lui	a0,0x1
    e0a0:	40a40533          	sub	a0,s0,a0
    e0a4:	7d053503          	ld	a0,2000(a0) # 17d0 <.LBB64_5+0xc8>
    e0a8:	03950533          	mul	a0,a0,s9
    e0ac:	000015b7          	lui	a1,0x1
    e0b0:	40b405b3          	sub	a1,s0,a1
    e0b4:	7b05b583          	ld	a1,1968(a1) # 17b0 <.LBB64_5+0xa8>
    e0b8:	017585b3          	add	a1,a1,s7
    e0bc:	00b50533          	add	a0,a0,a1
    e0c0:	42555513          	srai	a0,a0,0x25
    e0c4:	00a025b3          	sgtz	a1,a0
    e0c8:	40b005b3          	neg	a1,a1
    e0cc:	00a5f533          	and	a0,a1,a0
    e0d0:	01354463          	blt	a0,s3,e0d8 <.LBB64_1302>
    e0d4:	0ff00513          	li	a0,255

000000000000e0d8 <.LBB64_1302>:
    e0d8:	f6a43023          	sd	a0,-160(s0)
    e0dc:	00001537          	lui	a0,0x1
    e0e0:	40a40533          	sub	a0,s0,a0
    e0e4:	7b853503          	ld	a0,1976(a0) # 17b8 <.LBB64_5+0xb0>
    e0e8:	03950533          	mul	a0,a0,s9
    e0ec:	000015b7          	lui	a1,0x1
    e0f0:	40b405b3          	sub	a1,s0,a1
    e0f4:	7985b583          	ld	a1,1944(a1) # 1798 <.LBB64_5+0x90>
    e0f8:	017585b3          	add	a1,a1,s7
    e0fc:	00b50533          	add	a0,a0,a1
    e100:	42555513          	srai	a0,a0,0x25
    e104:	00a025b3          	sgtz	a1,a0
    e108:	40b005b3          	neg	a1,a1
    e10c:	00a5f533          	and	a0,a1,a0
    e110:	01354463          	blt	a0,s3,e118 <.LBB64_1304>
    e114:	0ff00513          	li	a0,255

000000000000e118 <.LBB64_1304>:
    e118:	f4a43c23          	sd	a0,-168(s0)
    e11c:	00001537          	lui	a0,0x1
    e120:	40a40533          	sub	a0,s0,a0
    e124:	7a053503          	ld	a0,1952(a0) # 17a0 <.LBB64_5+0x98>
    e128:	03950533          	mul	a0,a0,s9
    e12c:	000015b7          	lui	a1,0x1
    e130:	40b405b3          	sub	a1,s0,a1
    e134:	7805b583          	ld	a1,1920(a1) # 1780 <.LBB64_5+0x78>
    e138:	017585b3          	add	a1,a1,s7
    e13c:	00b50533          	add	a0,a0,a1
    e140:	42555513          	srai	a0,a0,0x25
    e144:	00a025b3          	sgtz	a1,a0
    e148:	40b005b3          	neg	a1,a1
    e14c:	00a5f533          	and	a0,a1,a0
    e150:	01354463          	blt	a0,s3,e158 <.LBB64_1306>
    e154:	0ff00513          	li	a0,255

000000000000e158 <.LBB64_1306>:
    e158:	f4a43823          	sd	a0,-176(s0)
    e15c:	00001537          	lui	a0,0x1
    e160:	40a40533          	sub	a0,s0,a0
    e164:	79053503          	ld	a0,1936(a0) # 1790 <.LBB64_5+0x88>
    e168:	03950533          	mul	a0,a0,s9
    e16c:	000015b7          	lui	a1,0x1
    e170:	40b405b3          	sub	a1,s0,a1
    e174:	7785b583          	ld	a1,1912(a1) # 1778 <.LBB64_5+0x70>
    e178:	017585b3          	add	a1,a1,s7
    e17c:	00b50533          	add	a0,a0,a1
    e180:	42555513          	srai	a0,a0,0x25
    e184:	00a025b3          	sgtz	a1,a0
    e188:	40b005b3          	neg	a1,a1
    e18c:	00a5f533          	and	a0,a1,a0
    e190:	01354463          	blt	a0,s3,e198 <.LBB64_1308>
    e194:	0ff00513          	li	a0,255

000000000000e198 <.LBB64_1308>:
    e198:	f4a43423          	sd	a0,-184(s0)
    e19c:	00001537          	lui	a0,0x1
    e1a0:	40a40533          	sub	a0,s0,a0
    e1a4:	5f053503          	ld	a0,1520(a0) # 15f0 <.LBB64_4+0x484>
    e1a8:	03950533          	mul	a0,a0,s9
    e1ac:	000015b7          	lui	a1,0x1
    e1b0:	40b405b3          	sub	a1,s0,a1
    e1b4:	5e85b583          	ld	a1,1512(a1) # 15e8 <.LBB64_4+0x47c>
    e1b8:	017585b3          	add	a1,a1,s7
    e1bc:	00b50533          	add	a0,a0,a1
    e1c0:	42555513          	srai	a0,a0,0x25
    e1c4:	00a025b3          	sgtz	a1,a0
    e1c8:	40b005b3          	neg	a1,a1
    e1cc:	00a5f533          	and	a0,a1,a0
    e1d0:	01354463          	blt	a0,s3,e1d8 <.LBB64_1310>
    e1d4:	0ff00513          	li	a0,255

000000000000e1d8 <.LBB64_1310>:
    e1d8:	f2a43c23          	sd	a0,-200(s0)
    e1dc:	00001537          	lui	a0,0x1
    e1e0:	40a40533          	sub	a0,s0,a0
    e1e4:	5f853503          	ld	a0,1528(a0) # 15f8 <.LBB64_4+0x48c>
    e1e8:	03950533          	mul	a0,a0,s9
    e1ec:	a7043583          	ld	a1,-1424(s0)
    e1f0:	017585b3          	add	a1,a1,s7
    e1f4:	00b50533          	add	a0,a0,a1
    e1f8:	42555513          	srai	a0,a0,0x25
    e1fc:	00a025b3          	sgtz	a1,a0
    e200:	40b005b3          	neg	a1,a1
    e204:	00a5f533          	and	a0,a1,a0
    e208:	01354463          	blt	a0,s3,e210 <.LBB64_1312>
    e20c:	0ff00513          	li	a0,255

000000000000e210 <.LBB64_1312>:
    e210:	f2a43823          	sd	a0,-208(s0)
    e214:	00001537          	lui	a0,0x1
    e218:	40a40533          	sub	a0,s0,a0
    e21c:	60853503          	ld	a0,1544(a0) # 1608 <.LBB64_4+0x49c>
    e220:	03950533          	mul	a0,a0,s9
    e224:	000015b7          	lui	a1,0x1
    e228:	40b405b3          	sub	a1,s0,a1
    e22c:	6005b583          	ld	a1,1536(a1) # 1600 <.LBB64_4+0x494>
    e230:	017585b3          	add	a1,a1,s7
    e234:	00b50533          	add	a0,a0,a1
    e238:	42555513          	srai	a0,a0,0x25
    e23c:	00a025b3          	sgtz	a1,a0
    e240:	40b005b3          	neg	a1,a1
    e244:	00a5f533          	and	a0,a1,a0
    e248:	01354463          	blt	a0,s3,e250 <.LBB64_1314>
    e24c:	0ff00513          	li	a0,255

000000000000e250 <.LBB64_1314>:
    e250:	f2a43423          	sd	a0,-216(s0)
    e254:	00001537          	lui	a0,0x1
    e258:	40a40533          	sub	a0,s0,a0
    e25c:	61853503          	ld	a0,1560(a0) # 1618 <.LBB64_4+0x4ac>
    e260:	03950533          	mul	a0,a0,s9
    e264:	000015b7          	lui	a1,0x1
    e268:	40b405b3          	sub	a1,s0,a1
    e26c:	6105b583          	ld	a1,1552(a1) # 1610 <.LBB64_4+0x4a4>
    e270:	017585b3          	add	a1,a1,s7
    e274:	00b50533          	add	a0,a0,a1
    e278:	42555513          	srai	a0,a0,0x25
    e27c:	00a025b3          	sgtz	a1,a0
    e280:	40b005b3          	neg	a1,a1
    e284:	00a5f533          	and	a0,a1,a0
    e288:	01354463          	blt	a0,s3,e290 <.LBB64_1316>
    e28c:	0ff00513          	li	a0,255

000000000000e290 <.LBB64_1316>:
    e290:	f0a43023          	sd	a0,-256(s0)
    e294:	00001537          	lui	a0,0x1
    e298:	40a40533          	sub	a0,s0,a0
    e29c:	62853503          	ld	a0,1576(a0) # 1628 <.LBB64_4+0x4bc>
    e2a0:	03950533          	mul	a0,a0,s9
    e2a4:	000015b7          	lui	a1,0x1
    e2a8:	40b405b3          	sub	a1,s0,a1
    e2ac:	6205b583          	ld	a1,1568(a1) # 1620 <.LBB64_4+0x4b4>
    e2b0:	017585b3          	add	a1,a1,s7
    e2b4:	00b50533          	add	a0,a0,a1
    e2b8:	42555513          	srai	a0,a0,0x25
    e2bc:	00a025b3          	sgtz	a1,a0
    e2c0:	40b005b3          	neg	a1,a1
    e2c4:	00a5f533          	and	a0,a1,a0
    e2c8:	01354463          	blt	a0,s3,e2d0 <.LBB64_1318>
    e2cc:	0ff00513          	li	a0,255

000000000000e2d0 <.LBB64_1318>:
    e2d0:	eea43023          	sd	a0,-288(s0)
    e2d4:	00001537          	lui	a0,0x1
    e2d8:	40a40533          	sub	a0,s0,a0
    e2dc:	63853503          	ld	a0,1592(a0) # 1638 <.LBB64_4+0x4cc>
    e2e0:	03950533          	mul	a0,a0,s9
    e2e4:	000015b7          	lui	a1,0x1
    e2e8:	40b405b3          	sub	a1,s0,a1
    e2ec:	6305b583          	ld	a1,1584(a1) # 1630 <.LBB64_4+0x4c4>
    e2f0:	017585b3          	add	a1,a1,s7
    e2f4:	00b50533          	add	a0,a0,a1
    e2f8:	42555513          	srai	a0,a0,0x25
    e2fc:	00a025b3          	sgtz	a1,a0
    e300:	40b005b3          	neg	a1,a1
    e304:	00a5f533          	and	a0,a1,a0
    e308:	01354463          	blt	a0,s3,e310 <.LBB64_1320>
    e30c:	0ff00513          	li	a0,255

000000000000e310 <.LBB64_1320>:
    e310:	eca43023          	sd	a0,-320(s0)
    e314:	00001537          	lui	a0,0x1
    e318:	40a40533          	sub	a0,s0,a0
    e31c:	64853503          	ld	a0,1608(a0) # 1648 <.LBB64_4+0x4dc>
    e320:	03950533          	mul	a0,a0,s9
    e324:	000015b7          	lui	a1,0x1
    e328:	40b405b3          	sub	a1,s0,a1
    e32c:	6405b583          	ld	a1,1600(a1) # 1640 <.LBB64_4+0x4d4>
    e330:	017585b3          	add	a1,a1,s7
    e334:	00b50533          	add	a0,a0,a1
    e338:	42555513          	srai	a0,a0,0x25
    e33c:	00a025b3          	sgtz	a1,a0
    e340:	40b005b3          	neg	a1,a1
    e344:	00a5f533          	and	a0,a1,a0
    e348:	01354463          	blt	a0,s3,e350 <.LBB64_1322>
    e34c:	0ff00513          	li	a0,255

000000000000e350 <.LBB64_1322>:
    e350:	eaa43823          	sd	a0,-336(s0)
    e354:	00001537          	lui	a0,0x1
    e358:	40a40533          	sub	a0,s0,a0
    e35c:	65853503          	ld	a0,1624(a0) # 1658 <.LBB64_4+0x4ec>
    e360:	03950533          	mul	a0,a0,s9
    e364:	000015b7          	lui	a1,0x1
    e368:	40b405b3          	sub	a1,s0,a1
    e36c:	6505b583          	ld	a1,1616(a1) # 1650 <.LBB64_4+0x4e4>
    e370:	017585b3          	add	a1,a1,s7
    e374:	00b50533          	add	a0,a0,a1
    e378:	42555513          	srai	a0,a0,0x25
    e37c:	00a025b3          	sgtz	a1,a0
    e380:	40b005b3          	neg	a1,a1
    e384:	00a5f533          	and	a0,a1,a0
    e388:	01354463          	blt	a0,s3,e390 <.LBB64_1324>
    e38c:	0ff00513          	li	a0,255

000000000000e390 <.LBB64_1324>:
    e390:	eaa43423          	sd	a0,-344(s0)
    e394:	00001537          	lui	a0,0x1
    e398:	40a40533          	sub	a0,s0,a0
    e39c:	66853503          	ld	a0,1640(a0) # 1668 <.LBB64_4+0x4fc>
    e3a0:	03950533          	mul	a0,a0,s9
    e3a4:	000015b7          	lui	a1,0x1
    e3a8:	40b405b3          	sub	a1,s0,a1
    e3ac:	6605b583          	ld	a1,1632(a1) # 1660 <.LBB64_4+0x4f4>
    e3b0:	017585b3          	add	a1,a1,s7
    e3b4:	00b50533          	add	a0,a0,a1
    e3b8:	42555513          	srai	a0,a0,0x25
    e3bc:	00a025b3          	sgtz	a1,a0
    e3c0:	40b005b3          	neg	a1,a1
    e3c4:	00a5f533          	and	a0,a1,a0
    e3c8:	01354463          	blt	a0,s3,e3d0 <.LBB64_1326>
    e3cc:	0ff00513          	li	a0,255

000000000000e3d0 <.LBB64_1326>:
    e3d0:	eaa43023          	sd	a0,-352(s0)
    e3d4:	00001537          	lui	a0,0x1
    e3d8:	40a40533          	sub	a0,s0,a0
    e3dc:	67853503          	ld	a0,1656(a0) # 1678 <.LBB64_4+0x50c>
    e3e0:	03950533          	mul	a0,a0,s9
    e3e4:	000015b7          	lui	a1,0x1
    e3e8:	40b405b3          	sub	a1,s0,a1
    e3ec:	6705b583          	ld	a1,1648(a1) # 1670 <.LBB64_4+0x504>
    e3f0:	017585b3          	add	a1,a1,s7
    e3f4:	00b50533          	add	a0,a0,a1
    e3f8:	42555513          	srai	a0,a0,0x25
    e3fc:	00a025b3          	sgtz	a1,a0
    e400:	40b005b3          	neg	a1,a1
    e404:	00a5f533          	and	a0,a1,a0
    e408:	01354463          	blt	a0,s3,e410 <.LBB64_1328>
    e40c:	0ff00513          	li	a0,255

000000000000e410 <.LBB64_1328>:
    e410:	e8a43c23          	sd	a0,-360(s0)
    e414:	00001537          	lui	a0,0x1
    e418:	40a40533          	sub	a0,s0,a0
    e41c:	68853503          	ld	a0,1672(a0) # 1688 <.LBB64_4+0x51c>
    e420:	03950533          	mul	a0,a0,s9
    e424:	000015b7          	lui	a1,0x1
    e428:	40b405b3          	sub	a1,s0,a1
    e42c:	6805b583          	ld	a1,1664(a1) # 1680 <.LBB64_4+0x514>
    e430:	017585b3          	add	a1,a1,s7
    e434:	00b50533          	add	a0,a0,a1
    e438:	42555513          	srai	a0,a0,0x25
    e43c:	00a025b3          	sgtz	a1,a0
    e440:	40b005b3          	neg	a1,a1
    e444:	00a5f533          	and	a0,a1,a0
    e448:	01354463          	blt	a0,s3,e450 <.LBB64_1330>
    e44c:	0ff00513          	li	a0,255

000000000000e450 <.LBB64_1330>:
    e450:	e8a43823          	sd	a0,-368(s0)
    e454:	00001537          	lui	a0,0x1
    e458:	40a40533          	sub	a0,s0,a0
    e45c:	69853503          	ld	a0,1688(a0) # 1698 <.LBB64_4+0x52c>
    e460:	03950533          	mul	a0,a0,s9
    e464:	000015b7          	lui	a1,0x1
    e468:	40b405b3          	sub	a1,s0,a1
    e46c:	6905b583          	ld	a1,1680(a1) # 1690 <.LBB64_4+0x524>
    e470:	017585b3          	add	a1,a1,s7
    e474:	00b50533          	add	a0,a0,a1
    e478:	42555513          	srai	a0,a0,0x25
    e47c:	00a025b3          	sgtz	a1,a0
    e480:	40b005b3          	neg	a1,a1
    e484:	00a5f533          	and	a0,a1,a0
    e488:	01354463          	blt	a0,s3,e490 <.LBB64_1332>
    e48c:	0ff00513          	li	a0,255

000000000000e490 <.LBB64_1332>:
    e490:	e8a43423          	sd	a0,-376(s0)
    e494:	00001537          	lui	a0,0x1
    e498:	40a40533          	sub	a0,s0,a0
    e49c:	6a853503          	ld	a0,1704(a0) # 16a8 <.LBB64_4+0x53c>
    e4a0:	03950533          	mul	a0,a0,s9
    e4a4:	000015b7          	lui	a1,0x1
    e4a8:	40b405b3          	sub	a1,s0,a1
    e4ac:	6a05b583          	ld	a1,1696(a1) # 16a0 <.LBB64_4+0x534>
    e4b0:	017585b3          	add	a1,a1,s7
    e4b4:	00b50533          	add	a0,a0,a1
    e4b8:	42555513          	srai	a0,a0,0x25
    e4bc:	00a025b3          	sgtz	a1,a0
    e4c0:	40b005b3          	neg	a1,a1
    e4c4:	00a5f533          	and	a0,a1,a0
    e4c8:	01354463          	blt	a0,s3,e4d0 <.LBB64_1334>
    e4cc:	0ff00513          	li	a0,255

000000000000e4d0 <.LBB64_1334>:
    e4d0:	d0a43823          	sd	a0,-752(s0)
    e4d4:	00001537          	lui	a0,0x1
    e4d8:	40a40533          	sub	a0,s0,a0
    e4dc:	6b853503          	ld	a0,1720(a0) # 16b8 <.LBB64_4+0x54c>
    e4e0:	03950533          	mul	a0,a0,s9
    e4e4:	000015b7          	lui	a1,0x1
    e4e8:	40b405b3          	sub	a1,s0,a1
    e4ec:	6b05b583          	ld	a1,1712(a1) # 16b0 <.LBB64_4+0x544>
    e4f0:	017585b3          	add	a1,a1,s7
    e4f4:	00b50533          	add	a0,a0,a1
    e4f8:	42555513          	srai	a0,a0,0x25
    e4fc:	00a025b3          	sgtz	a1,a0
    e500:	40b005b3          	neg	a1,a1
    e504:	00a5f533          	and	a0,a1,a0
    e508:	01354463          	blt	a0,s3,e510 <.LBB64_1336>
    e50c:	0ff00513          	li	a0,255

000000000000e510 <.LBB64_1336>:
    e510:	cca43823          	sd	a0,-816(s0)
    e514:	00001537          	lui	a0,0x1
    e518:	40a40533          	sub	a0,s0,a0
    e51c:	6c853503          	ld	a0,1736(a0) # 16c8 <.LBB64_4+0x55c>
    e520:	03950533          	mul	a0,a0,s9
    e524:	000015b7          	lui	a1,0x1
    e528:	40b405b3          	sub	a1,s0,a1
    e52c:	6c05b583          	ld	a1,1728(a1) # 16c0 <.LBB64_4+0x554>
    e530:	017585b3          	add	a1,a1,s7
    e534:	00b50533          	add	a0,a0,a1
    e538:	42555513          	srai	a0,a0,0x25
    e53c:	00a025b3          	sgtz	a1,a0
    e540:	40b005b3          	neg	a1,a1
    e544:	00a5f533          	and	a0,a1,a0
    e548:	01354463          	blt	a0,s3,e550 <.LBB64_1338>
    e54c:	0ff00513          	li	a0,255

000000000000e550 <.LBB64_1338>:
    e550:	c8a43423          	sd	a0,-888(s0)
    e554:	00001537          	lui	a0,0x1
    e558:	40a40533          	sub	a0,s0,a0
    e55c:	6d853503          	ld	a0,1752(a0) # 16d8 <.LBB64_4+0x56c>
    e560:	03950533          	mul	a0,a0,s9
    e564:	000015b7          	lui	a1,0x1
    e568:	40b405b3          	sub	a1,s0,a1
    e56c:	6d05b583          	ld	a1,1744(a1) # 16d0 <.LBB64_4+0x564>
    e570:	017585b3          	add	a1,a1,s7
    e574:	00b50533          	add	a0,a0,a1
    e578:	42555513          	srai	a0,a0,0x25
    e57c:	00a025b3          	sgtz	a1,a0
    e580:	40b005b3          	neg	a1,a1
    e584:	00a5f533          	and	a0,a1,a0
    e588:	01354463          	blt	a0,s3,e590 <.LBB64_1340>
    e58c:	0ff00513          	li	a0,255

000000000000e590 <.LBB64_1340>:
    e590:	c4a43423          	sd	a0,-952(s0)
    e594:	00001537          	lui	a0,0x1
    e598:	40a40533          	sub	a0,s0,a0
    e59c:	6e853503          	ld	a0,1768(a0) # 16e8 <.LBB64_4+0x57c>
    e5a0:	03950533          	mul	a0,a0,s9
    e5a4:	000015b7          	lui	a1,0x1
    e5a8:	40b405b3          	sub	a1,s0,a1
    e5ac:	6e05b583          	ld	a1,1760(a1) # 16e0 <.LBB64_4+0x574>
    e5b0:	017585b3          	add	a1,a1,s7
    e5b4:	00b50533          	add	a0,a0,a1
    e5b8:	42555513          	srai	a0,a0,0x25
    e5bc:	00a025b3          	sgtz	a1,a0
    e5c0:	40b005b3          	neg	a1,a1
    e5c4:	00a5f533          	and	a0,a1,a0
    e5c8:	01354463          	blt	a0,s3,e5d0 <.LBB64_1342>
    e5cc:	0ff00513          	li	a0,255

000000000000e5d0 <.LBB64_1342>:
    e5d0:	c2a43023          	sd	a0,-992(s0)
    e5d4:	00001537          	lui	a0,0x1
    e5d8:	40a40533          	sub	a0,s0,a0
    e5dc:	6f853503          	ld	a0,1784(a0) # 16f8 <.LBB64_4+0x58c>
    e5e0:	03950533          	mul	a0,a0,s9
    e5e4:	000015b7          	lui	a1,0x1
    e5e8:	40b405b3          	sub	a1,s0,a1
    e5ec:	6f05b583          	ld	a1,1776(a1) # 16f0 <.LBB64_4+0x584>
    e5f0:	017585b3          	add	a1,a1,s7
    e5f4:	00b50533          	add	a0,a0,a1
    e5f8:	42555513          	srai	a0,a0,0x25
    e5fc:	00a025b3          	sgtz	a1,a0
    e600:	40b005b3          	neg	a1,a1
    e604:	00a5f533          	and	a0,a1,a0
    e608:	01354463          	blt	a0,s3,e610 <.LBB64_1344>
    e60c:	0ff00513          	li	a0,255

000000000000e610 <.LBB64_1344>:
    e610:	bca43423          	sd	a0,-1080(s0)
    e614:	00001537          	lui	a0,0x1
    e618:	40a40533          	sub	a0,s0,a0
    e61c:	70853503          	ld	a0,1800(a0) # 1708 <.LBB64_5>
    e620:	03950533          	mul	a0,a0,s9
    e624:	000015b7          	lui	a1,0x1
    e628:	40b405b3          	sub	a1,s0,a1
    e62c:	7005b583          	ld	a1,1792(a1) # 1700 <.LBB64_4+0x594>
    e630:	017585b3          	add	a1,a1,s7
    e634:	00b50533          	add	a0,a0,a1
    e638:	42555513          	srai	a0,a0,0x25
    e63c:	00a025b3          	sgtz	a1,a0
    e640:	40b005b3          	neg	a1,a1
    e644:	00a5f533          	and	a0,a1,a0
    e648:	01354463          	blt	a0,s3,e650 <.LBB64_1346>
    e64c:	0ff00513          	li	a0,255

000000000000e650 <.LBB64_1346>:
    e650:	bca43023          	sd	a0,-1088(s0)
    e654:	00001537          	lui	a0,0x1
    e658:	40a40533          	sub	a0,s0,a0
    e65c:	71853503          	ld	a0,1816(a0) # 1718 <.LBB64_5+0x10>
    e660:	03950533          	mul	a0,a0,s9
    e664:	000015b7          	lui	a1,0x1
    e668:	40b405b3          	sub	a1,s0,a1
    e66c:	7105b583          	ld	a1,1808(a1) # 1710 <.LBB64_5+0x8>
    e670:	017585b3          	add	a1,a1,s7
    e674:	00b50533          	add	a0,a0,a1
    e678:	42555513          	srai	a0,a0,0x25
    e67c:	00a025b3          	sgtz	a1,a0
    e680:	40b005b3          	neg	a1,a1
    e684:	00a5f533          	and	a0,a1,a0
    e688:	01354463          	blt	a0,s3,e690 <.LBB64_1348>
    e68c:	0ff00513          	li	a0,255

000000000000e690 <.LBB64_1348>:
    e690:	baa43c23          	sd	a0,-1096(s0)
    e694:	00001537          	lui	a0,0x1
    e698:	40a40533          	sub	a0,s0,a0
    e69c:	72853503          	ld	a0,1832(a0) # 1728 <.LBB64_5+0x20>
    e6a0:	03950533          	mul	a0,a0,s9
    e6a4:	000015b7          	lui	a1,0x1
    e6a8:	40b405b3          	sub	a1,s0,a1
    e6ac:	7205b583          	ld	a1,1824(a1) # 1720 <.LBB64_5+0x18>
    e6b0:	017585b3          	add	a1,a1,s7
    e6b4:	00b50533          	add	a0,a0,a1
    e6b8:	42555513          	srai	a0,a0,0x25
    e6bc:	00a025b3          	sgtz	a1,a0
    e6c0:	40b005b3          	neg	a1,a1
    e6c4:	00a5f533          	and	a0,a1,a0
    e6c8:	01354463          	blt	a0,s3,e6d0 <.LBB64_1350>
    e6cc:	0ff00513          	li	a0,255

000000000000e6d0 <.LBB64_1350>:
    e6d0:	baa43823          	sd	a0,-1104(s0)
    e6d4:	00001537          	lui	a0,0x1
    e6d8:	40a40533          	sub	a0,s0,a0
    e6dc:	73853503          	ld	a0,1848(a0) # 1738 <.LBB64_5+0x30>
    e6e0:	03950533          	mul	a0,a0,s9
    e6e4:	000015b7          	lui	a1,0x1
    e6e8:	40b405b3          	sub	a1,s0,a1
    e6ec:	7305b583          	ld	a1,1840(a1) # 1730 <.LBB64_5+0x28>
    e6f0:	017585b3          	add	a1,a1,s7
    e6f4:	00b50533          	add	a0,a0,a1
    e6f8:	42555513          	srai	a0,a0,0x25
    e6fc:	00a025b3          	sgtz	a1,a0
    e700:	40b005b3          	neg	a1,a1
    e704:	00a5f533          	and	a0,a1,a0
    e708:	01354463          	blt	a0,s3,e710 <.LBB64_1352>
    e70c:	0ff00513          	li	a0,255

000000000000e710 <.LBB64_1352>:
    e710:	baa43423          	sd	a0,-1112(s0)
    e714:	00001537          	lui	a0,0x1
    e718:	40a40533          	sub	a0,s0,a0
    e71c:	74853503          	ld	a0,1864(a0) # 1748 <.LBB64_5+0x40>
    e720:	03950533          	mul	a0,a0,s9
    e724:	000015b7          	lui	a1,0x1
    e728:	40b405b3          	sub	a1,s0,a1
    e72c:	7405b583          	ld	a1,1856(a1) # 1740 <.LBB64_5+0x38>
    e730:	017585b3          	add	a1,a1,s7
    e734:	00b50533          	add	a0,a0,a1
    e738:	42555513          	srai	a0,a0,0x25
    e73c:	00a025b3          	sgtz	a1,a0
    e740:	40b005b3          	neg	a1,a1
    e744:	00a5f533          	and	a0,a1,a0
    e748:	01354463          	blt	a0,s3,e750 <.LBB64_1354>
    e74c:	0ff00513          	li	a0,255

000000000000e750 <.LBB64_1354>:
    e750:	b8a43c23          	sd	a0,-1128(s0)
    e754:	00001537          	lui	a0,0x1
    e758:	40a40533          	sub	a0,s0,a0
    e75c:	75853503          	ld	a0,1880(a0) # 1758 <.LBB64_5+0x50>
    e760:	03950533          	mul	a0,a0,s9
    e764:	000015b7          	lui	a1,0x1
    e768:	40b405b3          	sub	a1,s0,a1
    e76c:	7505b583          	ld	a1,1872(a1) # 1750 <.LBB64_5+0x48>
    e770:	017585b3          	add	a1,a1,s7
    e774:	00b50533          	add	a0,a0,a1
    e778:	42555513          	srai	a0,a0,0x25
    e77c:	00a025b3          	sgtz	a1,a0
    e780:	40b005b3          	neg	a1,a1
    e784:	00a5f533          	and	a0,a1,a0
    e788:	01354463          	blt	a0,s3,e790 <.LBB64_1356>
    e78c:	0ff00513          	li	a0,255

000000000000e790 <.LBB64_1356>:
    e790:	b8a43423          	sd	a0,-1144(s0)
    e794:	00001537          	lui	a0,0x1
    e798:	40a40533          	sub	a0,s0,a0
    e79c:	76853503          	ld	a0,1896(a0) # 1768 <.LBB64_5+0x60>
    e7a0:	03950533          	mul	a0,a0,s9
    e7a4:	000015b7          	lui	a1,0x1
    e7a8:	40b405b3          	sub	a1,s0,a1
    e7ac:	7605b583          	ld	a1,1888(a1) # 1760 <.LBB64_5+0x58>
    e7b0:	017585b3          	add	a1,a1,s7
    e7b4:	00b50533          	add	a0,a0,a1
    e7b8:	42555513          	srai	a0,a0,0x25
    e7bc:	00a025b3          	sgtz	a1,a0
    e7c0:	40b005b3          	neg	a1,a1
    e7c4:	00a5f533          	and	a0,a1,a0
    e7c8:	01354463          	blt	a0,s3,e7d0 <.LBB64_1358>
    e7cc:	0ff00513          	li	a0,255

000000000000e7d0 <.LBB64_1358>:
    e7d0:	b8a43023          	sd	a0,-1152(s0)
    e7d4:	00001537          	lui	a0,0x1
    e7d8:	40a40533          	sub	a0,s0,a0
    e7dc:	78853503          	ld	a0,1928(a0) # 1788 <.LBB64_5+0x80>
    e7e0:	03950533          	mul	a0,a0,s9
    e7e4:	000015b7          	lui	a1,0x1
    e7e8:	40b405b3          	sub	a1,s0,a1
    e7ec:	7705b583          	ld	a1,1904(a1) # 1770 <.LBB64_5+0x68>
    e7f0:	017585b3          	add	a1,a1,s7
    e7f4:	00b50533          	add	a0,a0,a1
    e7f8:	42555513          	srai	a0,a0,0x25
    e7fc:	00a025b3          	sgtz	a1,a0
    e800:	40b005b3          	neg	a1,a1
    e804:	00a5f533          	and	a0,a1,a0
    e808:	01354463          	blt	a0,s3,e810 <.LBB64_1360>
    e80c:	0ff00513          	li	a0,255

000000000000e810 <.LBB64_1360>:
    e810:	b6a43c23          	sd	a0,-1160(s0)
    e814:	00001537          	lui	a0,0x1
    e818:	40a40533          	sub	a0,s0,a0
    e81c:	7c853503          	ld	a0,1992(a0) # 17c8 <.LBB64_5+0xc0>
    e820:	03950533          	mul	a0,a0,s9
    e824:	000015b7          	lui	a1,0x1
    e828:	40b405b3          	sub	a1,s0,a1
    e82c:	7a85b583          	ld	a1,1960(a1) # 17a8 <.LBB64_5+0xa0>
    e830:	017585b3          	add	a1,a1,s7
    e834:	00b50533          	add	a0,a0,a1
    e838:	42555513          	srai	a0,a0,0x25
    e83c:	00a025b3          	sgtz	a1,a0
    e840:	40b005b3          	neg	a1,a1
    e844:	00a5f533          	and	a0,a1,a0
    e848:	01354463          	blt	a0,s3,e850 <.LBB64_1362>
    e84c:	0ff00513          	li	a0,255

000000000000e850 <.LBB64_1362>:
    e850:	b6a43823          	sd	a0,-1168(s0)
    e854:	81043503          	ld	a0,-2032(s0)
    e858:	03950533          	mul	a0,a0,s9
    e85c:	000015b7          	lui	a1,0x1
    e860:	40b405b3          	sub	a1,s0,a1
    e864:	7e85b583          	ld	a1,2024(a1) # 17e8 <.LBB64_5+0xe0>
    e868:	017585b3          	add	a1,a1,s7
    e86c:	00b50533          	add	a0,a0,a1
    e870:	42555513          	srai	a0,a0,0x25
    e874:	00a025b3          	sgtz	a1,a0
    e878:	40b005b3          	neg	a1,a1
    e87c:	00a5f533          	and	a0,a1,a0
    e880:	01354463          	blt	a0,s3,e888 <.LBB64_1364>
    e884:	0ff00513          	li	a0,255

000000000000e888 <.LBB64_1364>:
    e888:	b6a43423          	sd	a0,-1176(s0)
    e88c:	83843503          	ld	a0,-1992(s0)
    e890:	03950533          	mul	a0,a0,s9
    e894:	82843583          	ld	a1,-2008(s0)
    e898:	017585b3          	add	a1,a1,s7
    e89c:	00b50533          	add	a0,a0,a1
    e8a0:	42555513          	srai	a0,a0,0x25
    e8a4:	00a025b3          	sgtz	a1,a0
    e8a8:	40b005b3          	neg	a1,a1
    e8ac:	00a5f533          	and	a0,a1,a0
    e8b0:	01354463          	blt	a0,s3,e8b8 <.LBB64_1366>
    e8b4:	0ff00513          	li	a0,255

000000000000e8b8 <.LBB64_1366>:
    e8b8:	b6a43023          	sd	a0,-1184(s0)
    e8bc:	84843503          	ld	a0,-1976(s0)
    e8c0:	03950533          	mul	a0,a0,s9
    e8c4:	84043583          	ld	a1,-1984(s0)
    e8c8:	017585b3          	add	a1,a1,s7
    e8cc:	00b50533          	add	a0,a0,a1
    e8d0:	42555513          	srai	a0,a0,0x25
    e8d4:	00a025b3          	sgtz	a1,a0
    e8d8:	40b005b3          	neg	a1,a1
    e8dc:	00a5f533          	and	a0,a1,a0
    e8e0:	01354463          	blt	a0,s3,e8e8 <.LBB64_1368>
    e8e4:	0ff00513          	li	a0,255

000000000000e8e8 <.LBB64_1368>:
    e8e8:	b4a43c23          	sd	a0,-1192(s0)
    e8ec:	85843503          	ld	a0,-1960(s0)
    e8f0:	03950533          	mul	a0,a0,s9
    e8f4:	85043583          	ld	a1,-1968(s0)
    e8f8:	017585b3          	add	a1,a1,s7
    e8fc:	00b50533          	add	a0,a0,a1
    e900:	42555513          	srai	a0,a0,0x25
    e904:	00a025b3          	sgtz	a1,a0
    e908:	40b005b3          	neg	a1,a1
    e90c:	00a5f533          	and	a0,a1,a0
    e910:	01354463          	blt	a0,s3,e918 <.LBB64_1370>
    e914:	0ff00513          	li	a0,255

000000000000e918 <.LBB64_1370>:
    e918:	b4a43823          	sd	a0,-1200(s0)
    e91c:	86843503          	ld	a0,-1944(s0)
    e920:	03950533          	mul	a0,a0,s9
    e924:	86043583          	ld	a1,-1952(s0)
    e928:	017585b3          	add	a1,a1,s7
    e92c:	00b50533          	add	a0,a0,a1
    e930:	42555513          	srai	a0,a0,0x25
    e934:	00a025b3          	sgtz	a1,a0
    e938:	40b005b3          	neg	a1,a1
    e93c:	00a5f533          	and	a0,a1,a0
    e940:	01354463          	blt	a0,s3,e948 <.LBB64_1372>
    e944:	0ff00513          	li	a0,255

000000000000e948 <.LBB64_1372>:
    e948:	b4a43423          	sd	a0,-1208(s0)
    e94c:	87843503          	ld	a0,-1928(s0)
    e950:	03950533          	mul	a0,a0,s9
    e954:	87043583          	ld	a1,-1936(s0)
    e958:	017585b3          	add	a1,a1,s7
    e95c:	00b50533          	add	a0,a0,a1
    e960:	42555513          	srai	a0,a0,0x25
    e964:	00a025b3          	sgtz	a1,a0
    e968:	40b005b3          	neg	a1,a1
    e96c:	00a5f533          	and	a0,a1,a0
    e970:	01354463          	blt	a0,s3,e978 <.LBB64_1374>
    e974:	0ff00513          	li	a0,255

000000000000e978 <.LBB64_1374>:
    e978:	b4a43023          	sd	a0,-1216(s0)
    e97c:	88843503          	ld	a0,-1912(s0)
    e980:	03950533          	mul	a0,a0,s9
    e984:	88043583          	ld	a1,-1920(s0)
    e988:	017585b3          	add	a1,a1,s7
    e98c:	00b50533          	add	a0,a0,a1
    e990:	42555513          	srai	a0,a0,0x25
    e994:	00a025b3          	sgtz	a1,a0
    e998:	40b005b3          	neg	a1,a1
    e99c:	00a5f533          	and	a0,a1,a0
    e9a0:	01354463          	blt	a0,s3,e9a8 <.LBB64_1376>
    e9a4:	0ff00513          	li	a0,255

000000000000e9a8 <.LBB64_1376>:
    e9a8:	b2a43c23          	sd	a0,-1224(s0)
    e9ac:	89843503          	ld	a0,-1896(s0)
    e9b0:	03950533          	mul	a0,a0,s9
    e9b4:	89043583          	ld	a1,-1904(s0)
    e9b8:	017585b3          	add	a1,a1,s7
    e9bc:	00b50533          	add	a0,a0,a1
    e9c0:	42555513          	srai	a0,a0,0x25
    e9c4:	00a025b3          	sgtz	a1,a0
    e9c8:	40b005b3          	neg	a1,a1
    e9cc:	00a5f533          	and	a0,a1,a0
    e9d0:	01354463          	blt	a0,s3,e9d8 <.LBB64_1378>
    e9d4:	0ff00513          	li	a0,255

000000000000e9d8 <.LBB64_1378>:
    e9d8:	b2a43823          	sd	a0,-1232(s0)
    e9dc:	8a843503          	ld	a0,-1880(s0)
    e9e0:	03950533          	mul	a0,a0,s9
    e9e4:	8a043583          	ld	a1,-1888(s0)
    e9e8:	017585b3          	add	a1,a1,s7
    e9ec:	00b50533          	add	a0,a0,a1
    e9f0:	42555513          	srai	a0,a0,0x25
    e9f4:	00a025b3          	sgtz	a1,a0
    e9f8:	40b005b3          	neg	a1,a1
    e9fc:	00a5f533          	and	a0,a1,a0
    ea00:	01354463          	blt	a0,s3,ea08 <.LBB64_1380>
    ea04:	0ff00513          	li	a0,255

000000000000ea08 <.LBB64_1380>:
    ea08:	b2a43423          	sd	a0,-1240(s0)
    ea0c:	8b843503          	ld	a0,-1864(s0)
    ea10:	03950533          	mul	a0,a0,s9
    ea14:	8b043583          	ld	a1,-1872(s0)
    ea18:	017585b3          	add	a1,a1,s7
    ea1c:	00b50533          	add	a0,a0,a1
    ea20:	42555513          	srai	a0,a0,0x25
    ea24:	00a025b3          	sgtz	a1,a0
    ea28:	40b005b3          	neg	a1,a1
    ea2c:	00a5f533          	and	a0,a1,a0
    ea30:	01354463          	blt	a0,s3,ea38 <.LBB64_1382>
    ea34:	0ff00513          	li	a0,255

000000000000ea38 <.LBB64_1382>:
    ea38:	b0a43c23          	sd	a0,-1256(s0)
    ea3c:	8c843503          	ld	a0,-1848(s0)
    ea40:	03950533          	mul	a0,a0,s9
    ea44:	8c043583          	ld	a1,-1856(s0)
    ea48:	017585b3          	add	a1,a1,s7
    ea4c:	00b50533          	add	a0,a0,a1
    ea50:	42555513          	srai	a0,a0,0x25
    ea54:	00a025b3          	sgtz	a1,a0
    ea58:	40b005b3          	neg	a1,a1
    ea5c:	00a5f533          	and	a0,a1,a0
    ea60:	01354463          	blt	a0,s3,ea68 <.LBB64_1384>
    ea64:	0ff00513          	li	a0,255

000000000000ea68 <.LBB64_1384>:
    ea68:	b0a43823          	sd	a0,-1264(s0)
    ea6c:	8d843503          	ld	a0,-1832(s0)
    ea70:	03950533          	mul	a0,a0,s9
    ea74:	8d043583          	ld	a1,-1840(s0)
    ea78:	017585b3          	add	a1,a1,s7
    ea7c:	00b50533          	add	a0,a0,a1
    ea80:	42555513          	srai	a0,a0,0x25
    ea84:	00a025b3          	sgtz	a1,a0
    ea88:	40b005b3          	neg	a1,a1
    ea8c:	00a5f533          	and	a0,a1,a0
    ea90:	01354463          	blt	a0,s3,ea98 <.LBB64_1386>
    ea94:	0ff00513          	li	a0,255

000000000000ea98 <.LBB64_1386>:
    ea98:	b0a43423          	sd	a0,-1272(s0)
    ea9c:	8e843503          	ld	a0,-1816(s0)
    eaa0:	03950533          	mul	a0,a0,s9
    eaa4:	8e043583          	ld	a1,-1824(s0)
    eaa8:	017585b3          	add	a1,a1,s7
    eaac:	00b50533          	add	a0,a0,a1
    eab0:	42555513          	srai	a0,a0,0x25
    eab4:	00a025b3          	sgtz	a1,a0
    eab8:	40b005b3          	neg	a1,a1
    eabc:	00a5f533          	and	a0,a1,a0
    eac0:	01354463          	blt	a0,s3,eac8 <.LBB64_1388>
    eac4:	0ff00513          	li	a0,255

000000000000eac8 <.LBB64_1388>:
    eac8:	b0a43023          	sd	a0,-1280(s0)
    eacc:	8f843503          	ld	a0,-1800(s0)
    ead0:	03950533          	mul	a0,a0,s9
    ead4:	8f043583          	ld	a1,-1808(s0)
    ead8:	017585b3          	add	a1,a1,s7
    eadc:	00b50533          	add	a0,a0,a1
    eae0:	42555513          	srai	a0,a0,0x25
    eae4:	00a025b3          	sgtz	a1,a0
    eae8:	40b005b3          	neg	a1,a1
    eaec:	00a5f533          	and	a0,a1,a0
    eaf0:	01354463          	blt	a0,s3,eaf8 <.LBB64_1390>
    eaf4:	0ff00513          	li	a0,255

000000000000eaf8 <.LBB64_1390>:
    eaf8:	aea43c23          	sd	a0,-1288(s0)
    eafc:	90843503          	ld	a0,-1784(s0)
    eb00:	03950533          	mul	a0,a0,s9
    eb04:	90043583          	ld	a1,-1792(s0)
    eb08:	017585b3          	add	a1,a1,s7
    eb0c:	00b50533          	add	a0,a0,a1
    eb10:	42555513          	srai	a0,a0,0x25
    eb14:	00a025b3          	sgtz	a1,a0
    eb18:	40b005b3          	neg	a1,a1
    eb1c:	00a5f533          	and	a0,a1,a0
    eb20:	01354463          	blt	a0,s3,eb28 <.LBB64_1392>
    eb24:	0ff00513          	li	a0,255

000000000000eb28 <.LBB64_1392>:
    eb28:	aea43823          	sd	a0,-1296(s0)
    eb2c:	91843503          	ld	a0,-1768(s0)
    eb30:	03950533          	mul	a0,a0,s9
    eb34:	91043583          	ld	a1,-1776(s0)
    eb38:	017585b3          	add	a1,a1,s7
    eb3c:	00b50533          	add	a0,a0,a1
    eb40:	42555513          	srai	a0,a0,0x25
    eb44:	00a025b3          	sgtz	a1,a0
    eb48:	40b005b3          	neg	a1,a1
    eb4c:	00a5f533          	and	a0,a1,a0
    eb50:	01354463          	blt	a0,s3,eb58 <.LBB64_1394>
    eb54:	0ff00513          	li	a0,255

000000000000eb58 <.LBB64_1394>:
    eb58:	aea43423          	sd	a0,-1304(s0)
    eb5c:	92843503          	ld	a0,-1752(s0)
    eb60:	03950533          	mul	a0,a0,s9
    eb64:	92043583          	ld	a1,-1760(s0)
    eb68:	017585b3          	add	a1,a1,s7
    eb6c:	00b50533          	add	a0,a0,a1
    eb70:	42555513          	srai	a0,a0,0x25
    eb74:	00a025b3          	sgtz	a1,a0
    eb78:	40b005b3          	neg	a1,a1
    eb7c:	00a5f533          	and	a0,a1,a0
    eb80:	01354463          	blt	a0,s3,eb88 <.LBB64_1396>
    eb84:	0ff00513          	li	a0,255

000000000000eb88 <.LBB64_1396>:
    eb88:	aea43023          	sd	a0,-1312(s0)
    eb8c:	93843503          	ld	a0,-1736(s0)
    eb90:	03950533          	mul	a0,a0,s9
    eb94:	93043583          	ld	a1,-1744(s0)
    eb98:	017585b3          	add	a1,a1,s7
    eb9c:	00b50533          	add	a0,a0,a1
    eba0:	42555513          	srai	a0,a0,0x25
    eba4:	00a025b3          	sgtz	a1,a0
    eba8:	40b005b3          	neg	a1,a1
    ebac:	00a5f533          	and	a0,a1,a0
    ebb0:	01354463          	blt	a0,s3,ebb8 <.LBB64_1398>
    ebb4:	0ff00513          	li	a0,255

000000000000ebb8 <.LBB64_1398>:
    ebb8:	aca43c23          	sd	a0,-1320(s0)
    ebbc:	94843503          	ld	a0,-1720(s0)
    ebc0:	03950533          	mul	a0,a0,s9
    ebc4:	94043583          	ld	a1,-1728(s0)
    ebc8:	017585b3          	add	a1,a1,s7
    ebcc:	00b50533          	add	a0,a0,a1
    ebd0:	42555513          	srai	a0,a0,0x25
    ebd4:	00a025b3          	sgtz	a1,a0
    ebd8:	40b005b3          	neg	a1,a1
    ebdc:	00a5f533          	and	a0,a1,a0
    ebe0:	01354463          	blt	a0,s3,ebe8 <.LBB64_1400>
    ebe4:	0ff00513          	li	a0,255

000000000000ebe8 <.LBB64_1400>:
    ebe8:	aca43823          	sd	a0,-1328(s0)
    ebec:	95843503          	ld	a0,-1704(s0)
    ebf0:	03950533          	mul	a0,a0,s9
    ebf4:	95043583          	ld	a1,-1712(s0)
    ebf8:	017585b3          	add	a1,a1,s7
    ebfc:	00b50533          	add	a0,a0,a1
    ec00:	42555513          	srai	a0,a0,0x25
    ec04:	00a025b3          	sgtz	a1,a0
    ec08:	40b005b3          	neg	a1,a1
    ec0c:	00a5f533          	and	a0,a1,a0
    ec10:	01354463          	blt	a0,s3,ec18 <.LBB64_1402>
    ec14:	0ff00513          	li	a0,255

000000000000ec18 <.LBB64_1402>:
    ec18:	aca43423          	sd	a0,-1336(s0)
    ec1c:	96843503          	ld	a0,-1688(s0)
    ec20:	03950533          	mul	a0,a0,s9
    ec24:	96043583          	ld	a1,-1696(s0)
    ec28:	017585b3          	add	a1,a1,s7
    ec2c:	00b50533          	add	a0,a0,a1
    ec30:	42555513          	srai	a0,a0,0x25
    ec34:	00a025b3          	sgtz	a1,a0
    ec38:	40b005b3          	neg	a1,a1
    ec3c:	00a5f533          	and	a0,a1,a0
    ec40:	01354463          	blt	a0,s3,ec48 <.LBB64_1404>
    ec44:	0ff00513          	li	a0,255

000000000000ec48 <.LBB64_1404>:
    ec48:	aca43023          	sd	a0,-1344(s0)
    ec4c:	97843503          	ld	a0,-1672(s0)
    ec50:	03950533          	mul	a0,a0,s9
    ec54:	97043583          	ld	a1,-1680(s0)
    ec58:	017585b3          	add	a1,a1,s7
    ec5c:	00b50533          	add	a0,a0,a1
    ec60:	42555513          	srai	a0,a0,0x25
    ec64:	00a025b3          	sgtz	a1,a0
    ec68:	40b005b3          	neg	a1,a1
    ec6c:	00a5f533          	and	a0,a1,a0
    ec70:	01354463          	blt	a0,s3,ec78 <.LBB64_1406>
    ec74:	0ff00513          	li	a0,255

000000000000ec78 <.LBB64_1406>:
    ec78:	aaa43c23          	sd	a0,-1352(s0)
    ec7c:	98843503          	ld	a0,-1656(s0)
    ec80:	03950533          	mul	a0,a0,s9
    ec84:	98043583          	ld	a1,-1664(s0)
    ec88:	017585b3          	add	a1,a1,s7
    ec8c:	00b50533          	add	a0,a0,a1
    ec90:	42555513          	srai	a0,a0,0x25
    ec94:	00a025b3          	sgtz	a1,a0
    ec98:	40b005b3          	neg	a1,a1
    ec9c:	00a5f533          	and	a0,a1,a0
    eca0:	01354463          	blt	a0,s3,eca8 <.LBB64_1408>
    eca4:	0ff00513          	li	a0,255

000000000000eca8 <.LBB64_1408>:
    eca8:	aaa43823          	sd	a0,-1360(s0)
    ecac:	99843503          	ld	a0,-1640(s0)
    ecb0:	03950533          	mul	a0,a0,s9
    ecb4:	99043583          	ld	a1,-1648(s0)
    ecb8:	017585b3          	add	a1,a1,s7
    ecbc:	00b50533          	add	a0,a0,a1
    ecc0:	42555513          	srai	a0,a0,0x25
    ecc4:	00a025b3          	sgtz	a1,a0
    ecc8:	40b005b3          	neg	a1,a1
    eccc:	00a5f533          	and	a0,a1,a0
    ecd0:	01354463          	blt	a0,s3,ecd8 <.LBB64_1410>
    ecd4:	0ff00513          	li	a0,255

000000000000ecd8 <.LBB64_1410>:
    ecd8:	aaa43423          	sd	a0,-1368(s0)
    ecdc:	9a843503          	ld	a0,-1624(s0)
    ece0:	03950533          	mul	a0,a0,s9
    ece4:	9a043583          	ld	a1,-1632(s0)
    ece8:	017585b3          	add	a1,a1,s7
    ecec:	00b50533          	add	a0,a0,a1
    ecf0:	42555513          	srai	a0,a0,0x25
    ecf4:	00a025b3          	sgtz	a1,a0
    ecf8:	40b005b3          	neg	a1,a1
    ecfc:	00a5f533          	and	a0,a1,a0
    ed00:	01354463          	blt	a0,s3,ed08 <.LBB64_1412>
    ed04:	0ff00513          	li	a0,255

000000000000ed08 <.LBB64_1412>:
    ed08:	aaa43023          	sd	a0,-1376(s0)
    ed0c:	9b843503          	ld	a0,-1608(s0)
    ed10:	03950533          	mul	a0,a0,s9
    ed14:	9b043583          	ld	a1,-1616(s0)
    ed18:	017585b3          	add	a1,a1,s7
    ed1c:	00b50533          	add	a0,a0,a1
    ed20:	42555513          	srai	a0,a0,0x25
    ed24:	00a025b3          	sgtz	a1,a0
    ed28:	40b005b3          	neg	a1,a1
    ed2c:	00a5f533          	and	a0,a1,a0
    ed30:	01354463          	blt	a0,s3,ed38 <.LBB64_1414>
    ed34:	0ff00513          	li	a0,255

000000000000ed38 <.LBB64_1414>:
    ed38:	a8a43c23          	sd	a0,-1384(s0)
    ed3c:	9c843503          	ld	a0,-1592(s0)
    ed40:	03950533          	mul	a0,a0,s9
    ed44:	9c043583          	ld	a1,-1600(s0)
    ed48:	017585b3          	add	a1,a1,s7
    ed4c:	00b50533          	add	a0,a0,a1
    ed50:	42555513          	srai	a0,a0,0x25
    ed54:	00a025b3          	sgtz	a1,a0
    ed58:	40b005b3          	neg	a1,a1
    ed5c:	00a5f533          	and	a0,a1,a0
    ed60:	01354463          	blt	a0,s3,ed68 <.LBB64_1416>
    ed64:	0ff00513          	li	a0,255

000000000000ed68 <.LBB64_1416>:
    ed68:	a8a43823          	sd	a0,-1392(s0)
    ed6c:	9d843503          	ld	a0,-1576(s0)
    ed70:	03950533          	mul	a0,a0,s9
    ed74:	9d043583          	ld	a1,-1584(s0)
    ed78:	017585b3          	add	a1,a1,s7
    ed7c:	00b50533          	add	a0,a0,a1
    ed80:	42555513          	srai	a0,a0,0x25
    ed84:	00a025b3          	sgtz	a1,a0
    ed88:	40b005b3          	neg	a1,a1
    ed8c:	00a5f533          	and	a0,a1,a0
    ed90:	01354463          	blt	a0,s3,ed98 <.LBB64_1418>
    ed94:	0ff00513          	li	a0,255

000000000000ed98 <.LBB64_1418>:
    ed98:	a8a43423          	sd	a0,-1400(s0)
    ed9c:	9e843503          	ld	a0,-1560(s0)
    eda0:	03950533          	mul	a0,a0,s9
    eda4:	9e043583          	ld	a1,-1568(s0)
    eda8:	017585b3          	add	a1,a1,s7
    edac:	00b50533          	add	a0,a0,a1
    edb0:	42555513          	srai	a0,a0,0x25
    edb4:	00a025b3          	sgtz	a1,a0
    edb8:	40b005b3          	neg	a1,a1
    edbc:	00a5f533          	and	a0,a1,a0
    edc0:	01354463          	blt	a0,s3,edc8 <.LBB64_1420>
    edc4:	0ff00513          	li	a0,255

000000000000edc8 <.LBB64_1420>:
    edc8:	a8a43023          	sd	a0,-1408(s0)
    edcc:	9f843503          	ld	a0,-1544(s0)
    edd0:	03950533          	mul	a0,a0,s9
    edd4:	9f043583          	ld	a1,-1552(s0)
    edd8:	017585b3          	add	a1,a1,s7
    eddc:	00b50533          	add	a0,a0,a1
    ede0:	42555513          	srai	a0,a0,0x25
    ede4:	00a025b3          	sgtz	a1,a0
    ede8:	40b005b3          	neg	a1,a1
    edec:	00a5f533          	and	a0,a1,a0
    edf0:	01354463          	blt	a0,s3,edf8 <.LBB64_1422>
    edf4:	0ff00513          	li	a0,255

000000000000edf8 <.LBB64_1422>:
    edf8:	a6a43823          	sd	a0,-1424(s0)
    edfc:	a0843503          	ld	a0,-1528(s0)
    ee00:	03950533          	mul	a0,a0,s9
    ee04:	a0043583          	ld	a1,-1536(s0)
    ee08:	017585b3          	add	a1,a1,s7
    ee0c:	00b50533          	add	a0,a0,a1
    ee10:	42555513          	srai	a0,a0,0x25
    ee14:	00a025b3          	sgtz	a1,a0
    ee18:	40b005b3          	neg	a1,a1
    ee1c:	00a5f533          	and	a0,a1,a0
    ee20:	01354463          	blt	a0,s3,ee28 <.LBB64_1424>
    ee24:	0ff00513          	li	a0,255

000000000000ee28 <.LBB64_1424>:
    ee28:	a0a43423          	sd	a0,-1528(s0)
    ee2c:	a1843503          	ld	a0,-1512(s0)
    ee30:	03950533          	mul	a0,a0,s9
    ee34:	a1043583          	ld	a1,-1520(s0)
    ee38:	017585b3          	add	a1,a1,s7
    ee3c:	00b50533          	add	a0,a0,a1
    ee40:	42555513          	srai	a0,a0,0x25
    ee44:	00a025b3          	sgtz	a1,a0
    ee48:	40b005b3          	neg	a1,a1
    ee4c:	00a5f533          	and	a0,a1,a0
    ee50:	01354463          	blt	a0,s3,ee58 <.LBB64_1426>
    ee54:	0ff00513          	li	a0,255

000000000000ee58 <.LBB64_1426>:
    ee58:	a0a43c23          	sd	a0,-1512(s0)
    ee5c:	a2043503          	ld	a0,-1504(s0)
    ee60:	03950533          	mul	a0,a0,s9
    ee64:	d5843583          	ld	a1,-680(s0)
    ee68:	017585b3          	add	a1,a1,s7
    ee6c:	00b50533          	add	a0,a0,a1
    ee70:	42555513          	srai	a0,a0,0x25
    ee74:	00a025b3          	sgtz	a1,a0
    ee78:	40b005b3          	neg	a1,a1
    ee7c:	00a5f533          	and	a0,a1,a0
    ee80:	01354463          	blt	a0,s3,ee88 <.LBB64_1428>
    ee84:	0ff00513          	li	a0,255

000000000000ee88 <.LBB64_1428>:
    ee88:	d4a43c23          	sd	a0,-680(s0)
    ee8c:	a3043503          	ld	a0,-1488(s0)
    ee90:	03950533          	mul	a0,a0,s9
    ee94:	a2843583          	ld	a1,-1496(s0)
    ee98:	017585b3          	add	a1,a1,s7
    ee9c:	00b50533          	add	a0,a0,a1
    eea0:	42555513          	srai	a0,a0,0x25
    eea4:	00a025b3          	sgtz	a1,a0
    eea8:	40b005b3          	neg	a1,a1
    eeac:	00a5f533          	and	a0,a1,a0
    eeb0:	01354463          	blt	a0,s3,eeb8 <.LBB64_1430>
    eeb4:	0ff00513          	li	a0,255

000000000000eeb8 <.LBB64_1430>:
    eeb8:	a2a43823          	sd	a0,-1488(s0)
    eebc:	a4043503          	ld	a0,-1472(s0)
    eec0:	03950533          	mul	a0,a0,s9
    eec4:	a3843583          	ld	a1,-1480(s0)
    eec8:	017585b3          	add	a1,a1,s7
    eecc:	00b50533          	add	a0,a0,a1
    eed0:	42555513          	srai	a0,a0,0x25
    eed4:	00a025b3          	sgtz	a1,a0
    eed8:	40b005b3          	neg	a1,a1
    eedc:	00a5f533          	and	a0,a1,a0
    eee0:	01354463          	blt	a0,s3,eee8 <.LBB64_1432>
    eee4:	0ff00513          	li	a0,255

000000000000eee8 <.LBB64_1432>:
    eee8:	a4a43023          	sd	a0,-1472(s0)
    eeec:	a5043503          	ld	a0,-1456(s0)
    eef0:	03950533          	mul	a0,a0,s9
    eef4:	a4843583          	ld	a1,-1464(s0)
    eef8:	017585b3          	add	a1,a1,s7
    eefc:	00b50533          	add	a0,a0,a1
    ef00:	42555513          	srai	a0,a0,0x25
    ef04:	00a025b3          	sgtz	a1,a0
    ef08:	40b005b3          	neg	a1,a1
    ef0c:	00a5f533          	and	a0,a1,a0
    ef10:	01354463          	blt	a0,s3,ef18 <.LBB64_1434>
    ef14:	0ff00513          	li	a0,255

000000000000ef18 <.LBB64_1434>:
    ef18:	a4a43823          	sd	a0,-1456(s0)
    ef1c:	a6043503          	ld	a0,-1440(s0)
    ef20:	03950533          	mul	a0,a0,s9
    ef24:	a5843583          	ld	a1,-1448(s0)
    ef28:	017585b3          	add	a1,a1,s7
    ef2c:	00b50533          	add	a0,a0,a1
    ef30:	42555513          	srai	a0,a0,0x25
    ef34:	00a025b3          	sgtz	a1,a0
    ef38:	40b005b3          	neg	a1,a1
    ef3c:	00a5f533          	and	a0,a1,a0
    ef40:	01354463          	blt	a0,s3,ef48 <.LBB64_1436>
    ef44:	0ff00513          	li	a0,255

000000000000ef48 <.LBB64_1436>:
    ef48:	a6a43023          	sd	a0,-1440(s0)
    ef4c:	b9043503          	ld	a0,-1136(s0)
    ef50:	03950533          	mul	a0,a0,s9
    ef54:	b2043583          	ld	a1,-1248(s0)
    ef58:	017585b3          	add	a1,a1,s7
    ef5c:	00b50533          	add	a0,a0,a1
    ef60:	42555513          	srai	a0,a0,0x25
    ef64:	00a025b3          	sgtz	a1,a0
    ef68:	40b005b3          	neg	a1,a1
    ef6c:	00a5f533          	and	a0,a1,a0
    ef70:	01354463          	blt	a0,s3,ef78 <.LBB64_1438>
    ef74:	0ff00513          	li	a0,255

000000000000ef78 <.LBB64_1438>:
    ef78:	b8a43823          	sd	a0,-1136(s0)
    ef7c:	bd043503          	ld	a0,-1072(s0)
    ef80:	03950533          	mul	a0,a0,s9
    ef84:	ba043583          	ld	a1,-1120(s0)
    ef88:	017585b3          	add	a1,a1,s7
    ef8c:	00b50533          	add	a0,a0,a1
    ef90:	42555513          	srai	a0,a0,0x25
    ef94:	00a025b3          	sgtz	a1,a0
    ef98:	40b005b3          	neg	a1,a1
    ef9c:	00a5f533          	and	a0,a1,a0
    efa0:	01354463          	blt	a0,s3,efa8 <.LBB64_1440>
    efa4:	0ff00513          	li	a0,255

000000000000efa8 <.LBB64_1440>:
    efa8:	bca43823          	sd	a0,-1072(s0)
    efac:	be043503          	ld	a0,-1056(s0)
    efb0:	03950533          	mul	a0,a0,s9
    efb4:	bd843583          	ld	a1,-1064(s0)
    efb8:	017585b3          	add	a1,a1,s7
    efbc:	00b50533          	add	a0,a0,a1
    efc0:	42555513          	srai	a0,a0,0x25
    efc4:	00a025b3          	sgtz	a1,a0
    efc8:	40b005b3          	neg	a1,a1
    efcc:	00a5f533          	and	a0,a1,a0
    efd0:	01354463          	blt	a0,s3,efd8 <.LBB64_1442>
    efd4:	0ff00513          	li	a0,255

000000000000efd8 <.LBB64_1442>:
    efd8:	bea43023          	sd	a0,-1056(s0)
    efdc:	bf043503          	ld	a0,-1040(s0)
    efe0:	03950533          	mul	a0,a0,s9
    efe4:	be843583          	ld	a1,-1048(s0)
    efe8:	017585b3          	add	a1,a1,s7
    efec:	00b50533          	add	a0,a0,a1
    eff0:	42555513          	srai	a0,a0,0x25
    eff4:	00a025b3          	sgtz	a1,a0
    eff8:	40b005b3          	neg	a1,a1
    effc:	00a5f533          	and	a0,a1,a0
    f000:	01354463          	blt	a0,s3,f008 <.LBB64_1444>
    f004:	0ff00513          	li	a0,255

000000000000f008 <.LBB64_1444>:
    f008:	bea43823          	sd	a0,-1040(s0)
    f00c:	c0043503          	ld	a0,-1024(s0)
    f010:	03950533          	mul	a0,a0,s9
    f014:	bf843583          	ld	a1,-1032(s0)
    f018:	017585b3          	add	a1,a1,s7
    f01c:	00b50533          	add	a0,a0,a1
    f020:	42555513          	srai	a0,a0,0x25
    f024:	00a025b3          	sgtz	a1,a0
    f028:	40b005b3          	neg	a1,a1
    f02c:	00a5f533          	and	a0,a1,a0
    f030:	01354463          	blt	a0,s3,f038 <.LBB64_1446>
    f034:	0ff00513          	li	a0,255

000000000000f038 <.LBB64_1446>:
    f038:	c0a43023          	sd	a0,-1024(s0)
    f03c:	c1043503          	ld	a0,-1008(s0)
    f040:	03950533          	mul	a0,a0,s9
    f044:	c0843583          	ld	a1,-1016(s0)
    f048:	017585b3          	add	a1,a1,s7
    f04c:	00b50533          	add	a0,a0,a1
    f050:	42555513          	srai	a0,a0,0x25
    f054:	00a025b3          	sgtz	a1,a0
    f058:	40b005b3          	neg	a1,a1
    f05c:	00a5f533          	and	a0,a1,a0
    f060:	01354463          	blt	a0,s3,f068 <.LBB64_1448>
    f064:	0ff00513          	li	a0,255

000000000000f068 <.LBB64_1448>:
    f068:	c0a43823          	sd	a0,-1008(s0)
    f06c:	c2843503          	ld	a0,-984(s0)
    f070:	03950533          	mul	a0,a0,s9
    f074:	c1843583          	ld	a1,-1000(s0)
    f078:	017585b3          	add	a1,a1,s7
    f07c:	00b50533          	add	a0,a0,a1
    f080:	42555513          	srai	a0,a0,0x25
    f084:	00a025b3          	sgtz	a1,a0
    f088:	40b005b3          	neg	a1,a1
    f08c:	00a5f533          	and	a0,a1,a0
    f090:	01354463          	blt	a0,s3,f098 <.LBB64_1450>
    f094:	0ff00513          	li	a0,255

000000000000f098 <.LBB64_1450>:
    f098:	c2a43423          	sd	a0,-984(s0)
    f09c:	c3843503          	ld	a0,-968(s0)
    f0a0:	03950533          	mul	a0,a0,s9
    f0a4:	c3043583          	ld	a1,-976(s0)
    f0a8:	017585b3          	add	a1,a1,s7
    f0ac:	00b50533          	add	a0,a0,a1
    f0b0:	42555513          	srai	a0,a0,0x25
    f0b4:	00a025b3          	sgtz	a1,a0
    f0b8:	40b005b3          	neg	a1,a1
    f0bc:	00a5f533          	and	a0,a1,a0
    f0c0:	01354463          	blt	a0,s3,f0c8 <.LBB64_1452>
    f0c4:	0ff00513          	li	a0,255

000000000000f0c8 <.LBB64_1452>:
    f0c8:	c2a43c23          	sd	a0,-968(s0)
    f0cc:	c5043503          	ld	a0,-944(s0)
    f0d0:	03950533          	mul	a0,a0,s9
    f0d4:	c4043583          	ld	a1,-960(s0)
    f0d8:	017585b3          	add	a1,a1,s7
    f0dc:	00b50533          	add	a0,a0,a1
    f0e0:	42555513          	srai	a0,a0,0x25
    f0e4:	00a025b3          	sgtz	a1,a0
    f0e8:	40b005b3          	neg	a1,a1
    f0ec:	00a5f533          	and	a0,a1,a0
    f0f0:	01354463          	blt	a0,s3,f0f8 <.LBB64_1454>
    f0f4:	0ff00513          	li	a0,255

000000000000f0f8 <.LBB64_1454>:
    f0f8:	c4a43823          	sd	a0,-944(s0)
    f0fc:	c6043503          	ld	a0,-928(s0)
    f100:	03950533          	mul	a0,a0,s9
    f104:	c5843583          	ld	a1,-936(s0)
    f108:	017585b3          	add	a1,a1,s7
    f10c:	00b50533          	add	a0,a0,a1
    f110:	42555513          	srai	a0,a0,0x25
    f114:	00a025b3          	sgtz	a1,a0
    f118:	40b005b3          	neg	a1,a1
    f11c:	00a5f533          	and	a0,a1,a0
    f120:	01354463          	blt	a0,s3,f128 <.LBB64_1456>
    f124:	0ff00513          	li	a0,255

000000000000f128 <.LBB64_1456>:
    f128:	c6a43023          	sd	a0,-928(s0)
    f12c:	c7043503          	ld	a0,-912(s0)
    f130:	03950533          	mul	a0,a0,s9
    f134:	c6843583          	ld	a1,-920(s0)
    f138:	017585b3          	add	a1,a1,s7
    f13c:	00b50533          	add	a0,a0,a1
    f140:	42555513          	srai	a0,a0,0x25
    f144:	00a025b3          	sgtz	a1,a0
    f148:	40b005b3          	neg	a1,a1
    f14c:	00a5f533          	and	a0,a1,a0
    f150:	01354463          	blt	a0,s3,f158 <.LBB64_1458>
    f154:	0ff00513          	li	a0,255

000000000000f158 <.LBB64_1458>:
    f158:	c6a43823          	sd	a0,-912(s0)
    f15c:	c8043503          	ld	a0,-896(s0)
    f160:	03950533          	mul	a0,a0,s9
    f164:	c7843583          	ld	a1,-904(s0)
    f168:	017585b3          	add	a1,a1,s7
    f16c:	00b50533          	add	a0,a0,a1
    f170:	42555513          	srai	a0,a0,0x25
    f174:	00a025b3          	sgtz	a1,a0
    f178:	40b005b3          	neg	a1,a1
    f17c:	00a5f533          	and	a0,a1,a0
    f180:	01354463          	blt	a0,s3,f188 <.LBB64_1460>
    f184:	0ff00513          	li	a0,255

000000000000f188 <.LBB64_1460>:
    f188:	c8a43023          	sd	a0,-896(s0)
    f18c:	c9843503          	ld	a0,-872(s0)
    f190:	03950533          	mul	a0,a0,s9
    f194:	c9043583          	ld	a1,-880(s0)
    f198:	017585b3          	add	a1,a1,s7
    f19c:	00b50533          	add	a0,a0,a1
    f1a0:	42555513          	srai	a0,a0,0x25
    f1a4:	00a025b3          	sgtz	a1,a0
    f1a8:	40b005b3          	neg	a1,a1
    f1ac:	00a5f533          	and	a0,a1,a0
    f1b0:	01354463          	blt	a0,s3,f1b8 <.LBB64_1462>
    f1b4:	0ff00513          	li	a0,255

000000000000f1b8 <.LBB64_1462>:
    f1b8:	c8a43c23          	sd	a0,-872(s0)
    f1bc:	ca843503          	ld	a0,-856(s0)
    f1c0:	03950533          	mul	a0,a0,s9
    f1c4:	ca043583          	ld	a1,-864(s0)
    f1c8:	017585b3          	add	a1,a1,s7
    f1cc:	00b50533          	add	a0,a0,a1
    f1d0:	42555513          	srai	a0,a0,0x25
    f1d4:	00a025b3          	sgtz	a1,a0
    f1d8:	40b005b3          	neg	a1,a1
    f1dc:	00a5f533          	and	a0,a1,a0
    f1e0:	01354463          	blt	a0,s3,f1e8 <.LBB64_1464>
    f1e4:	0ff00513          	li	a0,255

000000000000f1e8 <.LBB64_1464>:
    f1e8:	caa43423          	sd	a0,-856(s0)
    f1ec:	cb843503          	ld	a0,-840(s0)
    f1f0:	03950533          	mul	a0,a0,s9
    f1f4:	cb043583          	ld	a1,-848(s0)
    f1f8:	017585b3          	add	a1,a1,s7
    f1fc:	00b50533          	add	a0,a0,a1
    f200:	42555513          	srai	a0,a0,0x25
    f204:	00a025b3          	sgtz	a1,a0
    f208:	40b005b3          	neg	a1,a1
    f20c:	00a5f533          	and	a0,a1,a0
    f210:	01354463          	blt	a0,s3,f218 <.LBB64_1466>
    f214:	0ff00513          	li	a0,255

000000000000f218 <.LBB64_1466>:
    f218:	caa43c23          	sd	a0,-840(s0)
    f21c:	cc843503          	ld	a0,-824(s0)
    f220:	03950533          	mul	a0,a0,s9
    f224:	cc043583          	ld	a1,-832(s0)
    f228:	017585b3          	add	a1,a1,s7
    f22c:	00b50533          	add	a0,a0,a1
    f230:	42555513          	srai	a0,a0,0x25
    f234:	00a025b3          	sgtz	a1,a0
    f238:	40b005b3          	neg	a1,a1
    f23c:	00a5f533          	and	a0,a1,a0
    f240:	01354463          	blt	a0,s3,f248 <.LBB64_1468>
    f244:	0ff00513          	li	a0,255

000000000000f248 <.LBB64_1468>:
    f248:	cca43423          	sd	a0,-824(s0)
    f24c:	ce043503          	ld	a0,-800(s0)
    f250:	03950533          	mul	a0,a0,s9
    f254:	cd843583          	ld	a1,-808(s0)
    f258:	017585b3          	add	a1,a1,s7
    f25c:	00b50533          	add	a0,a0,a1
    f260:	42555513          	srai	a0,a0,0x25
    f264:	00a025b3          	sgtz	a1,a0
    f268:	40b005b3          	neg	a1,a1
    f26c:	00a5f533          	and	a0,a1,a0
    f270:	01354463          	blt	a0,s3,f278 <.LBB64_1470>
    f274:	0ff00513          	li	a0,255

000000000000f278 <.LBB64_1470>:
    f278:	cea43023          	sd	a0,-800(s0)
    f27c:	cf043503          	ld	a0,-784(s0)
    f280:	03950533          	mul	a0,a0,s9
    f284:	ce843583          	ld	a1,-792(s0)
    f288:	017585b3          	add	a1,a1,s7
    f28c:	00b50533          	add	a0,a0,a1
    f290:	42555513          	srai	a0,a0,0x25
    f294:	00a025b3          	sgtz	a1,a0
    f298:	40b005b3          	neg	a1,a1
    f29c:	00a5f533          	and	a0,a1,a0
    f2a0:	01354463          	blt	a0,s3,f2a8 <.LBB64_1472>
    f2a4:	0ff00513          	li	a0,255

000000000000f2a8 <.LBB64_1472>:
    f2a8:	cea43823          	sd	a0,-784(s0)
    f2ac:	d0043503          	ld	a0,-768(s0)
    f2b0:	03950533          	mul	a0,a0,s9
    f2b4:	cf843583          	ld	a1,-776(s0)
    f2b8:	017585b3          	add	a1,a1,s7
    f2bc:	00b50533          	add	a0,a0,a1
    f2c0:	42555513          	srai	a0,a0,0x25
    f2c4:	00a025b3          	sgtz	a1,a0
    f2c8:	40b005b3          	neg	a1,a1
    f2cc:	00a5f533          	and	a0,a1,a0
    f2d0:	01354463          	blt	a0,s3,f2d8 <.LBB64_1474>
    f2d4:	0ff00513          	li	a0,255

000000000000f2d8 <.LBB64_1474>:
    f2d8:	d0a43023          	sd	a0,-768(s0)
    f2dc:	d1843503          	ld	a0,-744(s0)
    f2e0:	03950533          	mul	a0,a0,s9
    f2e4:	d0843583          	ld	a1,-760(s0)
    f2e8:	017585b3          	add	a1,a1,s7
    f2ec:	00b50533          	add	a0,a0,a1
    f2f0:	42555513          	srai	a0,a0,0x25
    f2f4:	00a025b3          	sgtz	a1,a0
    f2f8:	40b005b3          	neg	a1,a1
    f2fc:	00a5f533          	and	a0,a1,a0
    f300:	01354463          	blt	a0,s3,f308 <.LBB64_1476>
    f304:	0ff00513          	li	a0,255

000000000000f308 <.LBB64_1476>:
    f308:	d0a43c23          	sd	a0,-744(s0)
    f30c:	d2843503          	ld	a0,-728(s0)
    f310:	03950533          	mul	a0,a0,s9
    f314:	d2043583          	ld	a1,-736(s0)
    f318:	017585b3          	add	a1,a1,s7
    f31c:	00b50533          	add	a0,a0,a1
    f320:	42555513          	srai	a0,a0,0x25
    f324:	00a025b3          	sgtz	a1,a0
    f328:	40b005b3          	neg	a1,a1
    f32c:	00a5f533          	and	a0,a1,a0
    f330:	01354463          	blt	a0,s3,f338 <.LBB64_1478>
    f334:	0ff00513          	li	a0,255

000000000000f338 <.LBB64_1478>:
    f338:	d2a43423          	sd	a0,-728(s0)
    f33c:	d3843503          	ld	a0,-712(s0)
    f340:	03950533          	mul	a0,a0,s9
    f344:	d3043583          	ld	a1,-720(s0)
    f348:	017585b3          	add	a1,a1,s7
    f34c:	00b50533          	add	a0,a0,a1
    f350:	42555513          	srai	a0,a0,0x25
    f354:	00a025b3          	sgtz	a1,a0
    f358:	40b005b3          	neg	a1,a1
    f35c:	00a5f533          	and	a0,a1,a0
    f360:	01354463          	blt	a0,s3,f368 <.LBB64_1480>
    f364:	0ff00513          	li	a0,255

000000000000f368 <.LBB64_1480>:
    f368:	d2a43c23          	sd	a0,-712(s0)
    f36c:	d4843503          	ld	a0,-696(s0)
    f370:	03950533          	mul	a0,a0,s9
    f374:	d4043583          	ld	a1,-704(s0)
    f378:	017585b3          	add	a1,a1,s7
    f37c:	00b50533          	add	a0,a0,a1
    f380:	42555513          	srai	a0,a0,0x25
    f384:	00a025b3          	sgtz	a1,a0
    f388:	40b005b3          	neg	a1,a1
    f38c:	00a5f533          	and	a0,a1,a0
    f390:	01354463          	blt	a0,s3,f398 <.LBB64_1482>
    f394:	0ff00513          	li	a0,255

000000000000f398 <.LBB64_1482>:
    f398:	d4a43423          	sd	a0,-696(s0)
    f39c:	d6043503          	ld	a0,-672(s0)
    f3a0:	03950533          	mul	a0,a0,s9
    f3a4:	d5043583          	ld	a1,-688(s0)
    f3a8:	017585b3          	add	a1,a1,s7
    f3ac:	00b50533          	add	a0,a0,a1
    f3b0:	42555513          	srai	a0,a0,0x25
    f3b4:	00a025b3          	sgtz	a1,a0
    f3b8:	40b005b3          	neg	a1,a1
    f3bc:	00a5f533          	and	a0,a1,a0
    f3c0:	01354463          	blt	a0,s3,f3c8 <.LBB64_1484>
    f3c4:	0ff00513          	li	a0,255

000000000000f3c8 <.LBB64_1484>:
    f3c8:	d6a43023          	sd	a0,-672(s0)
    f3cc:	d7043503          	ld	a0,-656(s0)
    f3d0:	03950533          	mul	a0,a0,s9
    f3d4:	d6843583          	ld	a1,-664(s0)
    f3d8:	017585b3          	add	a1,a1,s7
    f3dc:	00b50533          	add	a0,a0,a1
    f3e0:	42555513          	srai	a0,a0,0x25
    f3e4:	00a025b3          	sgtz	a1,a0
    f3e8:	40b005b3          	neg	a1,a1
    f3ec:	00a5f533          	and	a0,a1,a0
    f3f0:	01354463          	blt	a0,s3,f3f8 <.LBB64_1486>
    f3f4:	0ff00513          	li	a0,255

000000000000f3f8 <.LBB64_1486>:
    f3f8:	d6a43823          	sd	a0,-656(s0)
    f3fc:	d7843503          	ld	a0,-648(s0)
    f400:	03950533          	mul	a0,a0,s9
    f404:	f8843583          	ld	a1,-120(s0)
    f408:	017585b3          	add	a1,a1,s7
    f40c:	00b50533          	add	a0,a0,a1
    f410:	42555513          	srai	a0,a0,0x25
    f414:	00a025b3          	sgtz	a1,a0
    f418:	40b005b3          	neg	a1,a1
    f41c:	00a5f533          	and	a0,a1,a0
    f420:	01354463          	blt	a0,s3,f428 <.LBB64_1488>
    f424:	0ff00513          	li	a0,255

000000000000f428 <.LBB64_1488>:
    f428:	f8a43423          	sd	a0,-120(s0)
    f42c:	d8043503          	ld	a0,-640(s0)
    f430:	03950533          	mul	a0,a0,s9
    f434:	017685b3          	add	a1,a3,s7
    f438:	00b50533          	add	a0,a0,a1
    f43c:	42555513          	srai	a0,a0,0x25
    f440:	00a025b3          	sgtz	a1,a0
    f444:	40b005b3          	neg	a1,a1
    f448:	00a5f533          	and	a0,a1,a0
    f44c:	01354463          	blt	a0,s3,f454 <.LBB64_1490>
    f450:	0ff00513          	li	a0,255

000000000000f454 <.LBB64_1490>:
    f454:	d8a43023          	sd	a0,-640(s0)
    f458:	d8843503          	ld	a0,-632(s0)
    f45c:	03950533          	mul	a0,a0,s9
    f460:	017805b3          	add	a1,a6,s7
    f464:	00b50533          	add	a0,a0,a1
    f468:	42555513          	srai	a0,a0,0x25
    f46c:	00a025b3          	sgtz	a1,a0
    f470:	40b005b3          	neg	a1,a1
    f474:	00a5f533          	and	a0,a1,a0
    f478:	01354463          	blt	a0,s3,f480 <.LBB64_1492>
    f47c:	0ff00513          	li	a0,255

000000000000f480 <.LBB64_1492>:
    f480:	d8a43423          	sd	a0,-632(s0)
    f484:	d9843503          	ld	a0,-616(s0)
    f488:	03950533          	mul	a0,a0,s9
    f48c:	d9043583          	ld	a1,-624(s0)
    f490:	017585b3          	add	a1,a1,s7
    f494:	00b50533          	add	a0,a0,a1
    f498:	42555513          	srai	a0,a0,0x25
    f49c:	00a025b3          	sgtz	a1,a0
    f4a0:	40b005b3          	neg	a1,a1
    f4a4:	00a5f533          	and	a0,a1,a0
    f4a8:	01354463          	blt	a0,s3,f4b0 <.LBB64_1494>
    f4ac:	0ff00513          	li	a0,255

000000000000f4b0 <.LBB64_1494>:
    f4b0:	d8a43c23          	sd	a0,-616(s0)
    f4b4:	da043503          	ld	a0,-608(s0)
    f4b8:	03950533          	mul	a0,a0,s9
    f4bc:	017605b3          	add	a1,a2,s7
    f4c0:	00b50533          	add	a0,a0,a1
    f4c4:	42555513          	srai	a0,a0,0x25
    f4c8:	00a025b3          	sgtz	a1,a0
    f4cc:	40b005b3          	neg	a1,a1
    f4d0:	00a5f533          	and	a0,a1,a0
    f4d4:	01354463          	blt	a0,s3,f4dc <.LBB64_1496>
    f4d8:	0ff00513          	li	a0,255

000000000000f4dc <.LBB64_1496>:
    f4dc:	daa43023          	sd	a0,-608(s0)
    f4e0:	db043503          	ld	a0,-592(s0)
    f4e4:	03950533          	mul	a0,a0,s9
    f4e8:	da843583          	ld	a1,-600(s0)
    f4ec:	017585b3          	add	a1,a1,s7
    f4f0:	00b50533          	add	a0,a0,a1
    f4f4:	42555513          	srai	a0,a0,0x25
    f4f8:	00a025b3          	sgtz	a1,a0
    f4fc:	40b005b3          	neg	a1,a1
    f500:	00a5f533          	and	a0,a1,a0
    f504:	01354463          	blt	a0,s3,f50c <.LBB64_1498>
    f508:	0ff00513          	li	a0,255

000000000000f50c <.LBB64_1498>:
    f50c:	daa43823          	sd	a0,-592(s0)
    f510:	dc043503          	ld	a0,-576(s0)
    f514:	03950533          	mul	a0,a0,s9
    f518:	db843583          	ld	a1,-584(s0)
    f51c:	017585b3          	add	a1,a1,s7
    f520:	00b50533          	add	a0,a0,a1
    f524:	42555513          	srai	a0,a0,0x25
    f528:	00a025b3          	sgtz	a1,a0
    f52c:	40b005b3          	neg	a1,a1
    f530:	00a5f533          	and	a0,a1,a0
    f534:	01354463          	blt	a0,s3,f53c <.LBB64_1500>
    f538:	0ff00513          	li	a0,255

000000000000f53c <.LBB64_1500>:
    f53c:	dca43023          	sd	a0,-576(s0)
    f540:	dd043503          	ld	a0,-560(s0)
    f544:	039505b3          	mul	a1,a0,s9
    f548:	dc843603          	ld	a2,-568(s0)
    f54c:	01760633          	add	a2,a2,s7
    f550:	00c585b3          	add	a1,a1,a2
    f554:	4255d593          	srai	a1,a1,0x25
    f558:	00b02633          	sgtz	a2,a1
    f55c:	40c00633          	neg	a2,a2
    f560:	00b675b3          	and	a1,a2,a1
    f564:	0135c463          	blt	a1,s3,f56c <.LBB64_1502>
    f568:	0ff00593          	li	a1,255

000000000000f56c <.LBB64_1502>:
    f56c:	dcb43823          	sd	a1,-560(s0)
    f570:	de043503          	ld	a0,-544(s0)
    f574:	03950633          	mul	a2,a0,s9
    f578:	dd843683          	ld	a3,-552(s0)
    f57c:	017686b3          	add	a3,a3,s7
    f580:	00d60633          	add	a2,a2,a3
    f584:	42565613          	srai	a2,a2,0x25
    f588:	00c026b3          	sgtz	a3,a2
    f58c:	40d006b3          	neg	a3,a3
    f590:	00c6f5b3          	and	a1,a3,a2
    f594:	0135c463          	blt	a1,s3,f59c <.LBB64_1504>
    f598:	0ff00593          	li	a1,255

000000000000f59c <.LBB64_1504>:
    f59c:	df043503          	ld	a0,-528(s0)
    f5a0:	039506b3          	mul	a3,a0,s9
    f5a4:	de843703          	ld	a4,-536(s0)
    f5a8:	01770733          	add	a4,a4,s7
    f5ac:	00e686b3          	add	a3,a3,a4
    f5b0:	4256d693          	srai	a3,a3,0x25
    f5b4:	00d02733          	sgtz	a4,a3
    f5b8:	40e00733          	neg	a4,a4
    f5bc:	00d776b3          	and	a3,a4,a3
    f5c0:	0136c463          	blt	a3,s3,f5c8 <.LBB64_1506>
    f5c4:	0ff00693          	li	a3,255

000000000000f5c8 <.LBB64_1506>:
    f5c8:	e0043503          	ld	a0,-512(s0)
    f5cc:	03950733          	mul	a4,a0,s9
    f5d0:	df843783          	ld	a5,-520(s0)
    f5d4:	017787b3          	add	a5,a5,s7
    f5d8:	00f70733          	add	a4,a4,a5
    f5dc:	42575713          	srai	a4,a4,0x25
    f5e0:	00e027b3          	sgtz	a5,a4
    f5e4:	40f007b3          	neg	a5,a5
    f5e8:	00e7f733          	and	a4,a5,a4
    f5ec:	01374463          	blt	a4,s3,f5f4 <.LBB64_1508>
    f5f0:	0ff00713          	li	a4,255

000000000000f5f4 <.LBB64_1508>:
    f5f4:	e1043503          	ld	a0,-496(s0)
    f5f8:	039507b3          	mul	a5,a0,s9
    f5fc:	e0843803          	ld	a6,-504(s0)
    f600:	01780833          	add	a6,a6,s7
    f604:	010787b3          	add	a5,a5,a6
    f608:	4257d793          	srai	a5,a5,0x25
    f60c:	00f02833          	sgtz	a6,a5
    f610:	41000833          	neg	a6,a6
    f614:	00f877b3          	and	a5,a6,a5
    f618:	0137c463          	blt	a5,s3,f620 <.LBB64_1510>
    f61c:	0ff00793          	li	a5,255

000000000000f620 <.LBB64_1510>:
    f620:	e2043503          	ld	a0,-480(s0)
    f624:	03950833          	mul	a6,a0,s9
    f628:	e1843883          	ld	a7,-488(s0)
    f62c:	017888b3          	add	a7,a7,s7
    f630:	01180833          	add	a6,a6,a7
    f634:	42585813          	srai	a6,a6,0x25
    f638:	010028b3          	sgtz	a7,a6
    f63c:	411008b3          	neg	a7,a7
    f640:	0108f833          	and	a6,a7,a6
    f644:	01384463          	blt	a6,s3,f64c <.LBB64_1512>
    f648:	0ff00813          	li	a6,255

000000000000f64c <.LBB64_1512>:
    f64c:	e2843503          	ld	a0,-472(s0)
    f650:	039508b3          	mul	a7,a0,s9
    f654:	017282b3          	add	t0,t0,s7
    f658:	005888b3          	add	a7,a7,t0
    f65c:	4258d893          	srai	a7,a7,0x25
    f660:	011022b3          	sgtz	t0,a7
    f664:	405002b3          	neg	t0,t0
    f668:	0112f8b3          	and	a7,t0,a7
    f66c:	0138c463          	blt	a7,s3,f674 <.LBB64_1514>
    f670:	0ff00893          	li	a7,255

000000000000f674 <.LBB64_1514>:
    f674:	e3843503          	ld	a0,-456(s0)
    f678:	039502b3          	mul	t0,a0,s9
    f67c:	e3043303          	ld	t1,-464(s0)
    f680:	01730333          	add	t1,t1,s7
    f684:	006282b3          	add	t0,t0,t1
    f688:	4252d293          	srai	t0,t0,0x25
    f68c:	00502333          	sgtz	t1,t0
    f690:	40600333          	neg	t1,t1
    f694:	005372b3          	and	t0,t1,t0
    f698:	0132c463          	blt	t0,s3,f6a0 <.LBB64_1516>
    f69c:	0ff00293          	li	t0,255

000000000000f6a0 <.LBB64_1516>:
    f6a0:	e4843503          	ld	a0,-440(s0)
    f6a4:	03950333          	mul	t1,a0,s9
    f6a8:	e4043383          	ld	t2,-448(s0)
    f6ac:	017383b3          	add	t2,t2,s7
    f6b0:	00730333          	add	t1,t1,t2
    f6b4:	42535313          	srai	t1,t1,0x25
    f6b8:	006023b3          	sgtz	t2,t1
    f6bc:	407003b3          	neg	t2,t2
    f6c0:	0063f333          	and	t1,t2,t1
    f6c4:	01334463          	blt	t1,s3,f6cc <.LBB64_1518>
    f6c8:	0ff00313          	li	t1,255

000000000000f6cc <.LBB64_1518>:
    f6cc:	e5043503          	ld	a0,-432(s0)
    f6d0:	039503b3          	mul	t2,a0,s9
    f6d4:	017e0e33          	add	t3,t3,s7
    f6d8:	01c383b3          	add	t2,t2,t3
    f6dc:	4253d393          	srai	t2,t2,0x25
    f6e0:	00702e33          	sgtz	t3,t2
    f6e4:	41c00e33          	neg	t3,t3
    f6e8:	007e73b3          	and	t2,t3,t2
    f6ec:	0133c463          	blt	t2,s3,f6f4 <.LBB64_1520>
    f6f0:	0ff00393          	li	t2,255

000000000000f6f4 <.LBB64_1520>:
    f6f4:	000f0513          	mv	a0,t5
    f6f8:	000e8613          	mv	a2,t4
    f6fc:	e6043e03          	ld	t3,-416(s0)
    f700:	039e0e33          	mul	t3,t3,s9
    f704:	e5843e83          	ld	t4,-424(s0)
    f708:	017e8eb3          	add	t4,t4,s7
    f70c:	01de0e33          	add	t3,t3,t4
    f710:	425e5e13          	srai	t3,t3,0x25
    f714:	01c02eb3          	sgtz	t4,t3
    f718:	41d00eb3          	neg	t4,t4
    f71c:	01cefe33          	and	t3,t4,t3
    f720:	013e4463          	blt	t3,s3,f728 <.LBB64_1522>
    f724:	0ff00e13          	li	t3,255

000000000000f728 <.LBB64_1522>:
    f728:	03990eb3          	mul	t4,s2,s9
    f72c:	e6843f03          	ld	t5,-408(s0)
    f730:	017f0f33          	add	t5,t5,s7
    f734:	01ee8eb3          	add	t4,t4,t5
    f738:	425ede93          	srai	t4,t4,0x25
    f73c:	01d02f33          	sgtz	t5,t4
    f740:	41e00f33          	neg	t5,t5
    f744:	01df7933          	and	s2,t5,t4
    f748:	01394463          	blt	s2,s3,f750 <.LBB64_1524>
    f74c:	0ff00913          	li	s2,255

000000000000f750 <.LBB64_1524>:
    f750:	e7843e83          	ld	t4,-392(s0)
    f754:	039e8eb3          	mul	t4,t4,s9
    f758:	e7043f03          	ld	t5,-400(s0)
    f75c:	017f0f33          	add	t5,t5,s7
    f760:	01ee8eb3          	add	t4,t4,t5
    f764:	425ede93          	srai	t4,t4,0x25
    f768:	01d02f33          	sgtz	t5,t4
    f76c:	41e00f33          	neg	t5,t5
    f770:	01df7db3          	and	s11,t5,t4
    f774:	013dc463          	blt	s11,s3,f77c <.LBB64_1526>
    f778:	0ff00d93          	li	s11,255

000000000000f77c <.LBB64_1526>:
    f77c:	ec843e83          	ld	t4,-312(s0)
    f780:	039e8eb3          	mul	t4,t4,s9
    f784:	e8043f03          	ld	t5,-384(s0)
    f788:	017f0f33          	add	t5,t5,s7
    f78c:	01ee8eb3          	add	t4,t4,t5
    f790:	425ede93          	srai	t4,t4,0x25
    f794:	01d02f33          	sgtz	t5,t4
    f798:	41e00f33          	neg	t5,t5
    f79c:	01df7d33          	and	s10,t5,t4
    f7a0:	013d4463          	blt	s10,s3,f7a8 <.LBB64_1528>
    f7a4:	0ff00d13          	li	s10,255

000000000000f7a8 <.LBB64_1528>:
    f7a8:	039a8eb3          	mul	t4,s5,s9
    f7ac:	ed043f03          	ld	t5,-304(s0)
    f7b0:	017f0f33          	add	t5,t5,s7
    f7b4:	01ee8eb3          	add	t4,t4,t5
    f7b8:	425ede93          	srai	t4,t4,0x25
    f7bc:	01d02f33          	sgtz	t5,t4
    f7c0:	41e00f33          	neg	t5,t5
    f7c4:	01df7ab3          	and	s5,t5,t4
    f7c8:	013ac463          	blt	s5,s3,f7d0 <.LBB64_1530>
    f7cc:	0ff00a93          	li	s5,255

000000000000f7d0 <.LBB64_1530>:
    f7d0:	039a0eb3          	mul	t4,s4,s9
    f7d4:	01750f33          	add	t5,a0,s7
    f7d8:	01ee8eb3          	add	t4,t4,t5
    f7dc:	425ede93          	srai	t4,t4,0x25
    f7e0:	01d02f33          	sgtz	t5,t4
    f7e4:	41e00f33          	neg	t5,t5
    f7e8:	01df7a33          	and	s4,t5,t4
    f7ec:	013a4463          	blt	s4,s3,f7f4 <.LBB64_1532>
    f7f0:	0ff00a13          	li	s4,255

000000000000f7f4 <.LBB64_1532>:
    f7f4:	000f8093          	mv	ra,t6
    f7f8:	ed843503          	ld	a0,-296(s0)
    f7fc:	03950eb3          	mul	t4,a0,s9
    f800:	01760f33          	add	t5,a2,s7
    f804:	01ee8eb3          	add	t4,t4,t5
    f808:	425ede93          	srai	t4,t4,0x25
    f80c:	01d02f33          	sgtz	t5,t4
    f810:	41e00f33          	neg	t5,t5
    f814:	01df7f33          	and	t5,t5,t4
    f818:	013f4463          	blt	t5,s3,f820 <.LBB64_1534>
    f81c:	0ff00f13          	li	t5,255

000000000000f820 <.LBB64_1534>:
    f820:	039c0eb3          	mul	t4,s8,s9
    f824:	ee843f83          	ld	t6,-280(s0)
    f828:	017f8fb3          	add	t6,t6,s7
    f82c:	01fe8eb3          	add	t4,t4,t6
    f830:	425ede93          	srai	t4,t4,0x25
    f834:	01d02fb3          	sgtz	t6,t4
    f838:	41f00fb3          	neg	t6,t6
    f83c:	01dffc33          	and	s8,t6,t4
    f840:	013c4463          	blt	s8,s3,f848 <.LBB64_1536>
    f844:	0ff00c13          	li	s8,255

000000000000f848 <.LBB64_1536>:
    f848:	03948eb3          	mul	t4,s1,s9
    f84c:	ef043f83          	ld	t6,-272(s0)
    f850:	017f8fb3          	add	t6,t6,s7
    f854:	01fe8eb3          	add	t4,t4,t6
    f858:	425ede93          	srai	t4,t4,0x25
    f85c:	01d02fb3          	sgtz	t6,t4
    f860:	41f00fb3          	neg	t6,t6
    f864:	01dff4b3          	and	s1,t6,t4
    f868:	0134c463          	blt	s1,s3,f870 <.LBB64_1538>
    f86c:	0ff00493          	li	s1,255

000000000000f870 <.LBB64_1538>:
    f870:	039b0eb3          	mul	t4,s6,s9
    f874:	ef843f83          	ld	t6,-264(s0)
    f878:	017f8fb3          	add	t6,t6,s7
    f87c:	01fe8eb3          	add	t4,t4,t6
    f880:	425ede93          	srai	t4,t4,0x25
    f884:	01d02fb3          	sgtz	t6,t4
    f888:	41f00fb3          	neg	t6,t6
    f88c:	01dffb33          	and	s6,t6,t4
    f890:	013b4463          	blt	s6,s3,f898 <.LBB64_1540>
    f894:	0ff00b13          	li	s6,255

000000000000f898 <.LBB64_1540>:
    f898:	eb843503          	ld	a0,-328(s0)
    f89c:	f0843603          	ld	a2,-248(s0)
    f8a0:	03960eb3          	mul	t4,a2,s9
    f8a4:	01708fb3          	add	t6,ra,s7
    f8a8:	01fe8eb3          	add	t4,t4,t6
    f8ac:	425ede93          	srai	t4,t4,0x25
    f8b0:	01d02fb3          	sgtz	t6,t4
    f8b4:	41f00fb3          	neg	t6,t6
    f8b8:	01dfffb3          	and	t6,t6,t4
    f8bc:	013fc463          	blt	t6,s3,f8c4 <.LBB64_1542>
    f8c0:	0ff00f93          	li	t6,255

000000000000f8c4 <.LBB64_1542>:
    f8c4:	f1843603          	ld	a2,-232(s0)
    f8c8:	03960eb3          	mul	t4,a2,s9
    f8cc:	f1043603          	ld	a2,-240(s0)
    f8d0:	01760bb3          	add	s7,a2,s7
    f8d4:	017e8eb3          	add	t4,t4,s7
    f8d8:	425ede93          	srai	t4,t4,0x25
    f8dc:	01d02bb3          	sgtz	s7,t4
    f8e0:	41700bb3          	neg	s7,s7
    f8e4:	01dbf0b3          	and	ra,s7,t4
    f8e8:	0130c463          	blt	ra,s3,f8f0 <.LBB64_1544>
    f8ec:	0ff00093          	li	ra,255

000000000000f8f0 <.LBB64_1544>:
    f8f0:	f2043603          	ld	a2,-224(s0)
    f8f4:	03960eb3          	mul	t4,a2,s9
    f8f8:	a6843b83          	ld	s7,-1432(s0)
    f8fc:	01750bb3          	add	s7,a0,s7
    f900:	017e8eb3          	add	t4,t4,s7
    f904:	425ede93          	srai	t4,t4,0x25
    f908:	01d02bb3          	sgtz	s7,t4
    f90c:	41700bb3          	neg	s7,s7
    f910:	01dbfbb3          	and	s7,s7,t4
    f914:	013bd463          	bge	s7,s3,f91c <.LBB64_1545>
    f918:	f2cfb06f          	j	b044 <.LBB64_1031>

000000000000f91c <.LBB64_1545>:
    f91c:	0ff00b93          	li	s7,255
    f920:	f24fb06f          	j	b044 <.LBB64_1031>

000000000000f924 <.LBB64_1546>:
    f924:	00000513          	li	a0,0
    f928:	7f010113          	addi	sp,sp,2032
    f92c:	32010113          	addi	sp,sp,800
    f930:	7e813083          	ld	ra,2024(sp)
    f934:	7e013403          	ld	s0,2016(sp)
    f938:	7d813483          	ld	s1,2008(sp)
    f93c:	7d013903          	ld	s2,2000(sp)
    f940:	7c813983          	ld	s3,1992(sp)
    f944:	7c013a03          	ld	s4,1984(sp)
    f948:	7b813a83          	ld	s5,1976(sp)
    f94c:	7b013b03          	ld	s6,1968(sp)
    f950:	7a813b83          	ld	s7,1960(sp)
    f954:	7a013c03          	ld	s8,1952(sp)
    f958:	79813c83          	ld	s9,1944(sp)
    f95c:	79013d03          	ld	s10,1936(sp)
    f960:	78813d83          	ld	s11,1928(sp)
    f964:	7f010113          	addi	sp,sp,2032
    f968:	00008067          	ret
