
code.o:     file format elf64-littleriscv


Disassembly of section .text.main_dispatch_81_matmul_196x64x384_i8xi8xi32:

0000000000000000 <main_dispatch_81_matmul_196x64x384_i8xi8xi32>:
       0:	f1501173          	csrrw	sp,0xf15,zero

0000000000000004 <.Lfunc_begin66>:
       4:	81010113          	addi	sp,sp,-2032
       8:	7e113423          	sd	ra,2024(sp)
       c:	7e813023          	sd	s0,2016(sp)
      10:	7c913c23          	sd	s1,2008(sp)
      14:	7d213823          	sd	s2,2000(sp)
      18:	7d313423          	sd	s3,1992(sp)
      1c:	7d413023          	sd	s4,1984(sp)
      20:	7b513c23          	sd	s5,1976(sp)
      24:	7b613823          	sd	s6,1968(sp)
      28:	7b713423          	sd	s7,1960(sp)
      2c:	7b813023          	sd	s8,1952(sp)
      30:	79913c23          	sd	s9,1944(sp)
      34:	79a13823          	sd	s10,1936(sp)
      38:	79b13423          	sd	s11,1928(sp)
      3c:	7f010413          	addi	s0,sp,2032
      40:	00002537          	lui	a0,0x2
      44:	8405051b          	addiw	a0,a0,-1984 # 1840 <.LBB66_5+0x404>
      48:	40a10133          	sub	sp,sp,a0
      4c:	0205b583          	ld	a1,32(a1)
      50:	00000513          	li	a0,0
      54:	0085b603          	ld	a2,8(a1)
      58:	0005b703          	ld	a4,0(a1)
      5c:	000536b7          	lui	a3,0x53
      60:	d806869b          	addiw	a3,a3,-640 # 52d80 <.Lfunc_end80+0x2a3b4>
      64:	00d606b3          	add	a3,a2,a3
      68:	000027b7          	lui	a5,0x2
      6c:	40f407b3          	sub	a5,s0,a5
      70:	06d7b023          	sd	a3,96(a5) # 2060 <.LBB66_5+0xc24>
      74:	000126b7          	lui	a3,0x12
      78:	6006869b          	addiw	a3,a3,1536 # 12600 <.LBB66_2093+0x2c>
      7c:	00d706b3          	add	a3,a4,a3
      80:	000027b7          	lui	a5,0x2
      84:	40f407b3          	sub	a5,s0,a5
      88:	fed7b023          	sd	a3,-32(a5) # 1fe0 <.LBB66_5+0xba4>
      8c:	000596b7          	lui	a3,0x59
      90:	d806869b          	addiw	a3,a3,-640 # 58d80 <.Lfunc_end80+0x303b4>
      94:	00d60633          	add	a2,a2,a3
      98:	000026b7          	lui	a3,0x2
      9c:	40d406b3          	sub	a3,s0,a3
      a0:	04c6bc23          	sd	a2,88(a3) # 2058 <.LBB66_5+0xc1c>
      a4:	00013637          	lui	a2,0x13
      a8:	9406061b          	addiw	a2,a2,-1728 # 12940 <.LBB66_2109+0x2c>
      ac:	0105b583          	ld	a1,16(a1)
      b0:	00c70633          	add	a2,a4,a2
      b4:	000026b7          	lui	a3,0x2
      b8:	40d406b3          	sub	a3,s0,a3
      bc:	04c6b823          	sd	a2,80(a3) # 2050 <.LBB66_5+0xc14>
      c0:	00016637          	lui	a2,0x16
      c4:	a406061b          	addiw	a2,a2,-1472 # 15a40 <.LBB66_2387+0x34>
      c8:	00c585b3          	add	a1,a1,a2
      cc:	00002637          	lui	a2,0x2
      d0:	40c40633          	sub	a2,s0,a2
      d4:	04b63423          	sd	a1,72(a2) # 2048 <.LBB66_5+0xc0c>
      d8:	000025b7          	lui	a1,0x2
      dc:	40b405b3          	sub	a1,s0,a1
      e0:	fce5bc23          	sd	a4,-40(a1) # 1fd8 <.LBB66_5+0xb9c>
      e4:	60070593          	addi	a1,a4,1536
      e8:	00002637          	lui	a2,0x2
      ec:	40c40633          	sub	a2,s0,a2
      f0:	06b63423          	sd	a1,104(a2) # 2068 <.LBB66_5+0xc2c>
      f4:	608185b7          	lui	a1,0x60818
      f8:	9635859b          	addiw	a1,a1,-1693 # 60817963 <.Lfunc_end80+0x607eef97>
      fc:	00002637          	lui	a2,0x2
     100:	40c40633          	sub	a2,s0,a2
     104:	feb63c23          	sd	a1,-8(a2) # 1ff8 <.LBB66_5+0xbbc>
     108:	321695b7          	lui	a1,0x32169
     10c:	3a55859b          	addiw	a1,a1,933 # 321693a5 <.Lfunc_end80+0x321409d9>
     110:	01559593          	slli	a1,a1,0x15
     114:	00001637          	lui	a2,0x1
     118:	40c40633          	sub	a2,s0,a2
     11c:	66b63023          	sd	a1,1632(a2) # 1660 <.LBB66_5+0x224>
     120:	00300593          	li	a1,3
     124:	01e59593          	slli	a1,a1,0x1e
     128:	00002637          	lui	a2,0x2
     12c:	40c40633          	sub	a2,s0,a2
     130:	feb63823          	sd	a1,-16(a2) # 1ff0 <.LBB66_5+0xbb4>
     134:	2590f5b7          	lui	a1,0x2590f
     138:	00259593          	slli	a1,a1,0x2
     13c:	aef58593          	addi	a1,a1,-1297 # 2590eaef <.Lfunc_end80+0x258e6123>
     140:	01659593          	slli	a1,a1,0x16
     144:	00001637          	lui	a2,0x1
     148:	40c40633          	sub	a2,s0,a2
     14c:	64b63c23          	sd	a1,1624(a2) # 1658 <.LBB66_5+0x21c>
     150:	7408b5b7          	lui	a1,0x7408b
     154:	27f5859b          	addiw	a1,a1,639 # 7408b27f <.Lfunc_end80+0x740628b3>
     158:	f6b43c23          	sd	a1,-136(s0)
     15c:	0400006f          	j	19c <.LBB66_2>

0000000000000160 <.LBB66_1>:
     160:	00002537          	lui	a0,0x2
     164:	40a40533          	sub	a0,s0,a0
     168:	fe853603          	ld	a2,-24(a0) # 1fe8 <.LBB66_5+0xbac>
     16c:	00860513          	addi	a0,a2,8
     170:	000025b7          	lui	a1,0x2
     174:	40b405b3          	sub	a1,s0,a1
     178:	0685b583          	ld	a1,104(a1) # 2068 <.LBB66_5+0xc2c>
     17c:	7ff58593          	addi	a1,a1,2047
     180:	40158593          	addi	a1,a1,1025
     184:	000026b7          	lui	a3,0x2
     188:	40d406b3          	sub	a3,s0,a3
     18c:	06b6b423          	sd	a1,104(a3) # 2068 <.LBB66_5+0xc2c>
     190:	0b800593          	li	a1,184
     194:	00b66463          	bltu	a2,a1,19c <.LBB66_2>
     198:	05d1b06f          	j	1b9f4 <.LBB66_3590>

000000000000019c <.LBB66_2>:
     19c:	00000693          	li	a3,0
     1a0:	00050613          	mv	a2,a0
     1a4:	00251513          	slli	a0,a0,0x2
     1a8:	000025b7          	lui	a1,0x2
     1ac:	40b405b3          	sub	a1,s0,a1
     1b0:	fe05b583          	ld	a1,-32(a1) # 1fe0 <.LBB66_5+0xba4>
     1b4:	00a58533          	add	a0,a1,a0
     1b8:	000015b7          	lui	a1,0x1
     1bc:	40b405b3          	sub	a1,s0,a1
     1c0:	04a5b823          	sd	a0,80(a1) # 1050 <.LBB66_4+0x1ac>
     1c4:	00002537          	lui	a0,0x2
     1c8:	40a40533          	sub	a0,s0,a0
     1cc:	fec53423          	sd	a2,-24(a0) # 1fe8 <.LBB66_5+0xbac>
     1d0:	00661613          	slli	a2,a2,0x6
     1d4:	04060513          	addi	a0,a2,64
     1d8:	000025b7          	lui	a1,0x2
     1dc:	40b405b3          	sub	a1,s0,a1
     1e0:	02a5b823          	sd	a0,48(a1) # 2030 <.LBB66_5+0xbf4>
     1e4:	08060513          	addi	a0,a2,128
     1e8:	000025b7          	lui	a1,0x2
     1ec:	40b405b3          	sub	a1,s0,a1
     1f0:	02a5b423          	sd	a0,40(a1) # 2028 <.LBB66_5+0xbec>
     1f4:	0c060513          	addi	a0,a2,192
     1f8:	000025b7          	lui	a1,0x2
     1fc:	40b405b3          	sub	a1,s0,a1
     200:	02a5b023          	sd	a0,32(a1) # 2020 <.LBB66_5+0xbe4>
     204:	10060513          	addi	a0,a2,256
     208:	000025b7          	lui	a1,0x2
     20c:	40b405b3          	sub	a1,s0,a1
     210:	00a5bc23          	sd	a0,24(a1) # 2018 <.LBB66_5+0xbdc>
     214:	14060513          	addi	a0,a2,320
     218:	000025b7          	lui	a1,0x2
     21c:	40b405b3          	sub	a1,s0,a1
     220:	00a5b823          	sd	a0,16(a1) # 2010 <.LBB66_5+0xbd4>
     224:	18060513          	addi	a0,a2,384
     228:	000025b7          	lui	a1,0x2
     22c:	40b405b3          	sub	a1,s0,a1
     230:	00a5b423          	sd	a0,8(a1) # 2008 <.LBB66_5+0xbcc>
     234:	00002537          	lui	a0,0x2
     238:	40a40533          	sub	a0,s0,a0
     23c:	02c53c23          	sd	a2,56(a0) # 2038 <.LBB66_5+0xbfc>
     240:	1c060513          	addi	a0,a2,448
     244:	000025b7          	lui	a1,0x2
     248:	40b405b3          	sub	a1,s0,a1
     24c:	00a5b023          	sd	a0,0(a1) # 2000 <.LBB66_5+0xbc4>
     250:	00100593          	li	a1,1
     254:	4510006f          	j	ea4 <.LBB66_4>

0000000000000258 <.LBB66_3>:
     258:	8d843c23          	sd	s8,-1832(s0)
     25c:	ff8d8b93          	addi	s7,s11,-8
     260:	000023b7          	lui	t2,0x2
     264:	407403b3          	sub	t2,s0,t2
     268:	0483bd83          	ld	s11,72(t2) # 2048 <.LBB66_5+0xc0c>
     26c:	000013b7          	lui	t2,0x1
     270:	407403b3          	sub	t2,s0,t2
     274:	0083bc03          	ld	s8,8(t2) # 1008 <.LBB66_4+0x164>
     278:	018d8c33          	add	s8,s11,s8
     27c:	017c01a3          	sb	s7,3(s8)
     280:	e4843b83          	ld	s7,-440(s0)
     284:	ff8b8b93          	addi	s7,s7,-8
     288:	017c0123          	sb	s7,2(s8)
     28c:	e5843b83          	ld	s7,-424(s0)
     290:	ff8b8b93          	addi	s7,s7,-8
     294:	017c00a3          	sb	s7,1(s8)
     298:	e6843b83          	ld	s7,-408(s0)
     29c:	ff8b8b93          	addi	s7,s7,-8
     2a0:	017c0023          	sb	s7,0(s8)
     2a4:	e7843b83          	ld	s7,-392(s0)
     2a8:	ff8b8b93          	addi	s7,s7,-8
     2ac:	017c0223          	sb	s7,4(s8)
     2b0:	e8843b83          	ld	s7,-376(s0)
     2b4:	ff8b8b93          	addi	s7,s7,-8
     2b8:	017c02a3          	sb	s7,5(s8)
     2bc:	e9843b83          	ld	s7,-360(s0)
     2c0:	ff8b8b93          	addi	s7,s7,-8
     2c4:	017c0323          	sb	s7,6(s8)
     2c8:	ea843b83          	ld	s7,-344(s0)
     2cc:	ff8b8b93          	addi	s7,s7,-8
     2d0:	017c03a3          	sb	s7,7(s8)
     2d4:	eb843b83          	ld	s7,-328(s0)
     2d8:	ff8b8b93          	addi	s7,s7,-8
     2dc:	017c0423          	sb	s7,8(s8)
     2e0:	ec843b83          	ld	s7,-312(s0)
     2e4:	ff8b8b93          	addi	s7,s7,-8
     2e8:	017c04a3          	sb	s7,9(s8)
     2ec:	ed843b83          	ld	s7,-296(s0)
     2f0:	ff8b8b93          	addi	s7,s7,-8
     2f4:	017c0523          	sb	s7,10(s8)
     2f8:	ee043b83          	ld	s7,-288(s0)
     2fc:	ff8b8b93          	addi	s7,s7,-8
     300:	017c05a3          	sb	s7,11(s8)
     304:	ee843b83          	ld	s7,-280(s0)
     308:	ff8b8b93          	addi	s7,s7,-8
     30c:	017c0623          	sb	s7,12(s8)
     310:	ef043b83          	ld	s7,-272(s0)
     314:	ff8b8b93          	addi	s7,s7,-8
     318:	017c06a3          	sb	s7,13(s8)
     31c:	ef843b83          	ld	s7,-264(s0)
     320:	ff8b8b93          	addi	s7,s7,-8
     324:	017c0723          	sb	s7,14(s8)
     328:	f0043b83          	ld	s7,-256(s0)
     32c:	ff8b8b93          	addi	s7,s7,-8
     330:	017c07a3          	sb	s7,15(s8)
     334:	f0843b83          	ld	s7,-248(s0)
     338:	ff8b8b93          	addi	s7,s7,-8
     33c:	017c0823          	sb	s7,16(s8)
     340:	f1043b83          	ld	s7,-240(s0)
     344:	ff8b8b93          	addi	s7,s7,-8
     348:	017c08a3          	sb	s7,17(s8)
     34c:	f1843b83          	ld	s7,-232(s0)
     350:	ff8b8b93          	addi	s7,s7,-8
     354:	017c0923          	sb	s7,18(s8)
     358:	f2043b83          	ld	s7,-224(s0)
     35c:	ff8b8b93          	addi	s7,s7,-8
     360:	017c09a3          	sb	s7,19(s8)
     364:	f2843b83          	ld	s7,-216(s0)
     368:	ff8b8b93          	addi	s7,s7,-8
     36c:	017c0a23          	sb	s7,20(s8)
     370:	f3043b83          	ld	s7,-208(s0)
     374:	ff8b8b93          	addi	s7,s7,-8
     378:	017c0aa3          	sb	s7,21(s8)
     37c:	f3843b83          	ld	s7,-200(s0)
     380:	ff8b8b93          	addi	s7,s7,-8
     384:	017c0b23          	sb	s7,22(s8)
     388:	f4043b83          	ld	s7,-192(s0)
     38c:	ff8b8b93          	addi	s7,s7,-8
     390:	017c0ba3          	sb	s7,23(s8)
     394:	f4843b83          	ld	s7,-184(s0)
     398:	ff8b8b93          	addi	s7,s7,-8
     39c:	017c0c23          	sb	s7,24(s8)
     3a0:	f5043b83          	ld	s7,-176(s0)
     3a4:	ff8b8b93          	addi	s7,s7,-8
     3a8:	017c0ca3          	sb	s7,25(s8)
     3ac:	f5843b83          	ld	s7,-168(s0)
     3b0:	ff8b8b93          	addi	s7,s7,-8
     3b4:	017c0d23          	sb	s7,26(s8)
     3b8:	f6043b83          	ld	s7,-160(s0)
     3bc:	ff8b8b93          	addi	s7,s7,-8
     3c0:	017c0da3          	sb	s7,27(s8)
     3c4:	f6843b83          	ld	s7,-152(s0)
     3c8:	ff8b8b93          	addi	s7,s7,-8
     3cc:	017c0e23          	sb	s7,28(s8)
     3d0:	f7043b83          	ld	s7,-144(s0)
     3d4:	ff8b8b93          	addi	s7,s7,-8
     3d8:	017c0ea3          	sb	s7,29(s8)
     3dc:	f8043b83          	ld	s7,-128(s0)
     3e0:	ff8b8b93          	addi	s7,s7,-8
     3e4:	017c0f23          	sb	s7,30(s8)
     3e8:	f8843b83          	ld	s7,-120(s0)
     3ec:	ff8b8b93          	addi	s7,s7,-8
     3f0:	017c0fa3          	sb	s7,31(s8)
     3f4:	d4043c03          	ld	s8,-704(s0)
     3f8:	ff8c0c13          	addi	s8,s8,-8
     3fc:	000013b7          	lui	t2,0x1
     400:	407403b3          	sub	t2,s0,t2
     404:	0103bb83          	ld	s7,16(t2) # 1010 <.LBB66_4+0x16c>
     408:	017d8bb3          	add	s7,s11,s7
     40c:	018b8fa3          	sb	s8,31(s7)
     410:	d5043c03          	ld	s8,-688(s0)
     414:	ff8c0c13          	addi	s8,s8,-8
     418:	018b8f23          	sb	s8,30(s7)
     41c:	d6043c03          	ld	s8,-672(s0)
     420:	ff8c0c13          	addi	s8,s8,-8
     424:	018b8ea3          	sb	s8,29(s7)
     428:	d7043c03          	ld	s8,-656(s0)
     42c:	ff8c0c13          	addi	s8,s8,-8
     430:	018b8e23          	sb	s8,28(s7)
     434:	d8043c03          	ld	s8,-640(s0)
     438:	ff8c0c13          	addi	s8,s8,-8
     43c:	018b8da3          	sb	s8,27(s7)
     440:	d9043c03          	ld	s8,-624(s0)
     444:	ff8c0c13          	addi	s8,s8,-8
     448:	018b8d23          	sb	s8,26(s7)
     44c:	da043c03          	ld	s8,-608(s0)
     450:	ff8c0c13          	addi	s8,s8,-8
     454:	018b8ca3          	sb	s8,25(s7)
     458:	db043c03          	ld	s8,-592(s0)
     45c:	ff8c0c13          	addi	s8,s8,-8
     460:	018b8c23          	sb	s8,24(s7)
     464:	dc043c03          	ld	s8,-576(s0)
     468:	ff8c0c13          	addi	s8,s8,-8
     46c:	018b8ba3          	sb	s8,23(s7)
     470:	dd043c03          	ld	s8,-560(s0)
     474:	ff8c0c13          	addi	s8,s8,-8
     478:	018b8b23          	sb	s8,22(s7)
     47c:	de043c03          	ld	s8,-544(s0)
     480:	ff8c0c13          	addi	s8,s8,-8
     484:	018b8aa3          	sb	s8,21(s7)
     488:	de843c03          	ld	s8,-536(s0)
     48c:	ff8c0c13          	addi	s8,s8,-8
     490:	018b8a23          	sb	s8,20(s7)
     494:	df043c03          	ld	s8,-528(s0)
     498:	ff8c0c13          	addi	s8,s8,-8
     49c:	018b89a3          	sb	s8,19(s7)
     4a0:	df843c03          	ld	s8,-520(s0)
     4a4:	ff8c0c13          	addi	s8,s8,-8
     4a8:	018b8923          	sb	s8,18(s7)
     4ac:	e0043c03          	ld	s8,-512(s0)
     4b0:	ff8c0c13          	addi	s8,s8,-8
     4b4:	018b88a3          	sb	s8,17(s7)
     4b8:	e0843c03          	ld	s8,-504(s0)
     4bc:	ff8c0c13          	addi	s8,s8,-8
     4c0:	018b8823          	sb	s8,16(s7)
     4c4:	e1043c03          	ld	s8,-496(s0)
     4c8:	ff8c0c13          	addi	s8,s8,-8
     4cc:	018b87a3          	sb	s8,15(s7)
     4d0:	e1843c03          	ld	s8,-488(s0)
     4d4:	ff8c0c13          	addi	s8,s8,-8
     4d8:	018b8723          	sb	s8,14(s7)
     4dc:	e2043c03          	ld	s8,-480(s0)
     4e0:	ff8c0c13          	addi	s8,s8,-8
     4e4:	018b86a3          	sb	s8,13(s7)
     4e8:	e2843c03          	ld	s8,-472(s0)
     4ec:	ff8c0c13          	addi	s8,s8,-8
     4f0:	018b8623          	sb	s8,12(s7)
     4f4:	e3043c03          	ld	s8,-464(s0)
     4f8:	ff8c0c13          	addi	s8,s8,-8
     4fc:	018b85a3          	sb	s8,11(s7)
     500:	e3843c03          	ld	s8,-456(s0)
     504:	ff8c0c13          	addi	s8,s8,-8
     508:	018b8523          	sb	s8,10(s7)
     50c:	e4043c03          	ld	s8,-448(s0)
     510:	ff8c0c13          	addi	s8,s8,-8
     514:	018b84a3          	sb	s8,9(s7)
     518:	e5043c03          	ld	s8,-432(s0)
     51c:	ff8c0c13          	addi	s8,s8,-8
     520:	018b8423          	sb	s8,8(s7)
     524:	e6043c03          	ld	s8,-416(s0)
     528:	ff8c0c13          	addi	s8,s8,-8
     52c:	018b83a3          	sb	s8,7(s7)
     530:	e7043c03          	ld	s8,-400(s0)
     534:	ff8c0c13          	addi	s8,s8,-8
     538:	018b8323          	sb	s8,6(s7)
     53c:	e8043c03          	ld	s8,-384(s0)
     540:	ff8c0c13          	addi	s8,s8,-8
     544:	018b82a3          	sb	s8,5(s7)
     548:	e9043c03          	ld	s8,-368(s0)
     54c:	ff8c0c13          	addi	s8,s8,-8
     550:	018b8223          	sb	s8,4(s7)
     554:	ea043c03          	ld	s8,-352(s0)
     558:	ff8c0c13          	addi	s8,s8,-8
     55c:	018b81a3          	sb	s8,3(s7)
     560:	eb043c03          	ld	s8,-336(s0)
     564:	ff8c0c13          	addi	s8,s8,-8
     568:	018b8123          	sb	s8,2(s7)
     56c:	ec043c03          	ld	s8,-320(s0)
     570:	ff8c0c13          	addi	s8,s8,-8
     574:	018b80a3          	sb	s8,1(s7)
     578:	ed043c03          	ld	s8,-304(s0)
     57c:	ff8c0c13          	addi	s8,s8,-8
     580:	018b8023          	sb	s8,0(s7)
     584:	c4043c03          	ld	s8,-960(s0)
     588:	ff8c0c13          	addi	s8,s8,-8
     58c:	000013b7          	lui	t2,0x1
     590:	407403b3          	sub	t2,s0,t2
     594:	0183bb83          	ld	s7,24(t2) # 1018 <.LBB66_4+0x174>
     598:	017d8bb3          	add	s7,s11,s7
     59c:	018b8fa3          	sb	s8,31(s7)
     5a0:	c5043c03          	ld	s8,-944(s0)
     5a4:	ff8c0c13          	addi	s8,s8,-8
     5a8:	018b8f23          	sb	s8,30(s7)
     5ac:	c6043c03          	ld	s8,-928(s0)
     5b0:	ff8c0c13          	addi	s8,s8,-8
     5b4:	018b8ea3          	sb	s8,29(s7)
     5b8:	c7043c03          	ld	s8,-912(s0)
     5bc:	ff8c0c13          	addi	s8,s8,-8
     5c0:	018b8e23          	sb	s8,28(s7)
     5c4:	c8043c03          	ld	s8,-896(s0)
     5c8:	ff8c0c13          	addi	s8,s8,-8
     5cc:	018b8da3          	sb	s8,27(s7)
     5d0:	c9043c03          	ld	s8,-880(s0)
     5d4:	ff8c0c13          	addi	s8,s8,-8
     5d8:	018b8d23          	sb	s8,26(s7)
     5dc:	ca043c03          	ld	s8,-864(s0)
     5e0:	ff8c0c13          	addi	s8,s8,-8
     5e4:	018b8ca3          	sb	s8,25(s7)
     5e8:	cb043c03          	ld	s8,-848(s0)
     5ec:	ff8c0c13          	addi	s8,s8,-8
     5f0:	018b8c23          	sb	s8,24(s7)
     5f4:	cc043c03          	ld	s8,-832(s0)
     5f8:	ff8c0c13          	addi	s8,s8,-8
     5fc:	018b8ba3          	sb	s8,23(s7)
     600:	cd043c03          	ld	s8,-816(s0)
     604:	ff8c0c13          	addi	s8,s8,-8
     608:	018b8b23          	sb	s8,22(s7)
     60c:	ce043c03          	ld	s8,-800(s0)
     610:	ff8c0c13          	addi	s8,s8,-8
     614:	018b8aa3          	sb	s8,21(s7)
     618:	ce843c03          	ld	s8,-792(s0)
     61c:	ff8c0c13          	addi	s8,s8,-8
     620:	018b8a23          	sb	s8,20(s7)
     624:	cf043c03          	ld	s8,-784(s0)
     628:	ff8c0c13          	addi	s8,s8,-8
     62c:	018b89a3          	sb	s8,19(s7)
     630:	cf843c03          	ld	s8,-776(s0)
     634:	ff8c0c13          	addi	s8,s8,-8
     638:	018b8923          	sb	s8,18(s7)
     63c:	d0043c03          	ld	s8,-768(s0)
     640:	ff8c0c13          	addi	s8,s8,-8
     644:	018b88a3          	sb	s8,17(s7)
     648:	d0843c03          	ld	s8,-760(s0)
     64c:	ff8c0c13          	addi	s8,s8,-8
     650:	018b8823          	sb	s8,16(s7)
     654:	d1043c03          	ld	s8,-752(s0)
     658:	ff8c0c13          	addi	s8,s8,-8
     65c:	018b87a3          	sb	s8,15(s7)
     660:	d1843c03          	ld	s8,-744(s0)
     664:	ff8c0c13          	addi	s8,s8,-8
     668:	018b8723          	sb	s8,14(s7)
     66c:	d2043c03          	ld	s8,-736(s0)
     670:	ff8c0c13          	addi	s8,s8,-8
     674:	018b86a3          	sb	s8,13(s7)
     678:	d2843c03          	ld	s8,-728(s0)
     67c:	ff8c0c13          	addi	s8,s8,-8
     680:	018b8623          	sb	s8,12(s7)
     684:	d3043c03          	ld	s8,-720(s0)
     688:	ff8c0c13          	addi	s8,s8,-8
     68c:	018b85a3          	sb	s8,11(s7)
     690:	d3843c03          	ld	s8,-712(s0)
     694:	ff8c0c13          	addi	s8,s8,-8
     698:	018b8523          	sb	s8,10(s7)
     69c:	d4843c03          	ld	s8,-696(s0)
     6a0:	ff8c0c13          	addi	s8,s8,-8
     6a4:	018b84a3          	sb	s8,9(s7)
     6a8:	d5843c03          	ld	s8,-680(s0)
     6ac:	ff8c0c13          	addi	s8,s8,-8
     6b0:	018b8423          	sb	s8,8(s7)
     6b4:	d6843c03          	ld	s8,-664(s0)
     6b8:	ff8c0c13          	addi	s8,s8,-8
     6bc:	018b83a3          	sb	s8,7(s7)
     6c0:	d7843c03          	ld	s8,-648(s0)
     6c4:	ff8c0c13          	addi	s8,s8,-8
     6c8:	018b8323          	sb	s8,6(s7)
     6cc:	d8843c03          	ld	s8,-632(s0)
     6d0:	ff8c0c13          	addi	s8,s8,-8
     6d4:	018b82a3          	sb	s8,5(s7)
     6d8:	d9843c03          	ld	s8,-616(s0)
     6dc:	ff8c0c13          	addi	s8,s8,-8
     6e0:	018b8223          	sb	s8,4(s7)
     6e4:	da843c03          	ld	s8,-600(s0)
     6e8:	ff8c0c13          	addi	s8,s8,-8
     6ec:	018b81a3          	sb	s8,3(s7)
     6f0:	db843c03          	ld	s8,-584(s0)
     6f4:	ff8c0c13          	addi	s8,s8,-8
     6f8:	018b8123          	sb	s8,2(s7)
     6fc:	dc843c03          	ld	s8,-568(s0)
     700:	ff8c0c13          	addi	s8,s8,-8
     704:	018b80a3          	sb	s8,1(s7)
     708:	dd843c03          	ld	s8,-552(s0)
     70c:	ff8c0c13          	addi	s8,s8,-8
     710:	018b8023          	sb	s8,0(s7)
     714:	b4043c03          	ld	s8,-1216(s0)
     718:	ff8c0c13          	addi	s8,s8,-8
     71c:	000013b7          	lui	t2,0x1
     720:	407403b3          	sub	t2,s0,t2
     724:	0203bb83          	ld	s7,32(t2) # 1020 <.LBB66_4+0x17c>
     728:	017d8bb3          	add	s7,s11,s7
     72c:	018b8fa3          	sb	s8,31(s7)
     730:	b5043c03          	ld	s8,-1200(s0)
     734:	ff8c0c13          	addi	s8,s8,-8
     738:	018b8f23          	sb	s8,30(s7)
     73c:	b6043c03          	ld	s8,-1184(s0)
     740:	ff8c0c13          	addi	s8,s8,-8
     744:	018b8ea3          	sb	s8,29(s7)
     748:	b7043c03          	ld	s8,-1168(s0)
     74c:	ff8c0c13          	addi	s8,s8,-8
     750:	018b8e23          	sb	s8,28(s7)
     754:	b8043c03          	ld	s8,-1152(s0)
     758:	ff8c0c13          	addi	s8,s8,-8
     75c:	018b8da3          	sb	s8,27(s7)
     760:	b9043c03          	ld	s8,-1136(s0)
     764:	ff8c0c13          	addi	s8,s8,-8
     768:	018b8d23          	sb	s8,26(s7)
     76c:	ba043c03          	ld	s8,-1120(s0)
     770:	ff8c0c13          	addi	s8,s8,-8
     774:	018b8ca3          	sb	s8,25(s7)
     778:	bb043c03          	ld	s8,-1104(s0)
     77c:	ff8c0c13          	addi	s8,s8,-8
     780:	018b8c23          	sb	s8,24(s7)
     784:	bc043c03          	ld	s8,-1088(s0)
     788:	ff8c0c13          	addi	s8,s8,-8
     78c:	018b8ba3          	sb	s8,23(s7)
     790:	bd043c03          	ld	s8,-1072(s0)
     794:	ff8c0c13          	addi	s8,s8,-8
     798:	018b8b23          	sb	s8,22(s7)
     79c:	be043c03          	ld	s8,-1056(s0)
     7a0:	ff8c0c13          	addi	s8,s8,-8
     7a4:	018b8aa3          	sb	s8,21(s7)
     7a8:	be843c03          	ld	s8,-1048(s0)
     7ac:	ff8c0c13          	addi	s8,s8,-8
     7b0:	018b8a23          	sb	s8,20(s7)
     7b4:	bf043c03          	ld	s8,-1040(s0)
     7b8:	ff8c0c13          	addi	s8,s8,-8
     7bc:	018b89a3          	sb	s8,19(s7)
     7c0:	bf843c03          	ld	s8,-1032(s0)
     7c4:	ff8c0c13          	addi	s8,s8,-8
     7c8:	018b8923          	sb	s8,18(s7)
     7cc:	c0043c03          	ld	s8,-1024(s0)
     7d0:	ff8c0c13          	addi	s8,s8,-8
     7d4:	018b88a3          	sb	s8,17(s7)
     7d8:	c0843c03          	ld	s8,-1016(s0)
     7dc:	ff8c0c13          	addi	s8,s8,-8
     7e0:	018b8823          	sb	s8,16(s7)
     7e4:	c1043c03          	ld	s8,-1008(s0)
     7e8:	ff8c0c13          	addi	s8,s8,-8
     7ec:	018b87a3          	sb	s8,15(s7)
     7f0:	c1843c03          	ld	s8,-1000(s0)
     7f4:	ff8c0c13          	addi	s8,s8,-8
     7f8:	018b8723          	sb	s8,14(s7)
     7fc:	c2043c03          	ld	s8,-992(s0)
     800:	ff8c0c13          	addi	s8,s8,-8
     804:	018b86a3          	sb	s8,13(s7)
     808:	c2843c03          	ld	s8,-984(s0)
     80c:	ff8c0c13          	addi	s8,s8,-8
     810:	018b8623          	sb	s8,12(s7)
     814:	c3043c03          	ld	s8,-976(s0)
     818:	ff8c0c13          	addi	s8,s8,-8
     81c:	018b85a3          	sb	s8,11(s7)
     820:	c3843c03          	ld	s8,-968(s0)
     824:	ff8c0c13          	addi	s8,s8,-8
     828:	018b8523          	sb	s8,10(s7)
     82c:	c4843c03          	ld	s8,-952(s0)
     830:	ff8c0c13          	addi	s8,s8,-8
     834:	018b84a3          	sb	s8,9(s7)
     838:	c5843c03          	ld	s8,-936(s0)
     83c:	ff8c0c13          	addi	s8,s8,-8
     840:	018b8423          	sb	s8,8(s7)
     844:	c6843c03          	ld	s8,-920(s0)
     848:	ff8c0c13          	addi	s8,s8,-8
     84c:	018b83a3          	sb	s8,7(s7)
     850:	c7843c03          	ld	s8,-904(s0)
     854:	ff8c0c13          	addi	s8,s8,-8
     858:	018b8323          	sb	s8,6(s7)
     85c:	c8843c03          	ld	s8,-888(s0)
     860:	ff8c0c13          	addi	s8,s8,-8
     864:	018b82a3          	sb	s8,5(s7)
     868:	c9843c03          	ld	s8,-872(s0)
     86c:	ff8c0c13          	addi	s8,s8,-8
     870:	018b8223          	sb	s8,4(s7)
     874:	ca843c03          	ld	s8,-856(s0)
     878:	ff8c0c13          	addi	s8,s8,-8
     87c:	018b81a3          	sb	s8,3(s7)
     880:	cb843c03          	ld	s8,-840(s0)
     884:	ff8c0c13          	addi	s8,s8,-8
     888:	018b8123          	sb	s8,2(s7)
     88c:	cc843c03          	ld	s8,-824(s0)
     890:	ff8c0c13          	addi	s8,s8,-8
     894:	018b80a3          	sb	s8,1(s7)
     898:	cd843c03          	ld	s8,-808(s0)
     89c:	ff8c0c13          	addi	s8,s8,-8
     8a0:	018b8023          	sb	s8,0(s7)
     8a4:	a4043c03          	ld	s8,-1472(s0)
     8a8:	ff8c0c13          	addi	s8,s8,-8
     8ac:	000013b7          	lui	t2,0x1
     8b0:	407403b3          	sub	t2,s0,t2
     8b4:	0283bb83          	ld	s7,40(t2) # 1028 <.LBB66_4+0x184>
     8b8:	017d8bb3          	add	s7,s11,s7
     8bc:	018b8fa3          	sb	s8,31(s7)
     8c0:	a5043c03          	ld	s8,-1456(s0)
     8c4:	ff8c0c13          	addi	s8,s8,-8
     8c8:	018b8f23          	sb	s8,30(s7)
     8cc:	a6043c03          	ld	s8,-1440(s0)
     8d0:	ff8c0c13          	addi	s8,s8,-8
     8d4:	018b8ea3          	sb	s8,29(s7)
     8d8:	a7043c03          	ld	s8,-1424(s0)
     8dc:	ff8c0c13          	addi	s8,s8,-8
     8e0:	018b8e23          	sb	s8,28(s7)
     8e4:	a8043c03          	ld	s8,-1408(s0)
     8e8:	ff8c0c13          	addi	s8,s8,-8
     8ec:	018b8da3          	sb	s8,27(s7)
     8f0:	a9043c03          	ld	s8,-1392(s0)
     8f4:	ff8c0c13          	addi	s8,s8,-8
     8f8:	018b8d23          	sb	s8,26(s7)
     8fc:	aa043c03          	ld	s8,-1376(s0)
     900:	ff8c0c13          	addi	s8,s8,-8
     904:	018b8ca3          	sb	s8,25(s7)
     908:	ab043c03          	ld	s8,-1360(s0)
     90c:	ff8c0c13          	addi	s8,s8,-8
     910:	018b8c23          	sb	s8,24(s7)
     914:	ac043c03          	ld	s8,-1344(s0)
     918:	ff8c0c13          	addi	s8,s8,-8
     91c:	018b8ba3          	sb	s8,23(s7)
     920:	ad043c03          	ld	s8,-1328(s0)
     924:	ff8c0c13          	addi	s8,s8,-8
     928:	018b8b23          	sb	s8,22(s7)
     92c:	ae043c03          	ld	s8,-1312(s0)
     930:	ff8c0c13          	addi	s8,s8,-8
     934:	018b8aa3          	sb	s8,21(s7)
     938:	ae843c03          	ld	s8,-1304(s0)
     93c:	ff8c0c13          	addi	s8,s8,-8
     940:	018b8a23          	sb	s8,20(s7)
     944:	af043c03          	ld	s8,-1296(s0)
     948:	ff8c0c13          	addi	s8,s8,-8
     94c:	018b89a3          	sb	s8,19(s7)
     950:	af843c03          	ld	s8,-1288(s0)
     954:	ff8c0c13          	addi	s8,s8,-8
     958:	018b8923          	sb	s8,18(s7)
     95c:	b0043c03          	ld	s8,-1280(s0)
     960:	ff8c0c13          	addi	s8,s8,-8
     964:	018b88a3          	sb	s8,17(s7)
     968:	b0843c03          	ld	s8,-1272(s0)
     96c:	ff8c0c13          	addi	s8,s8,-8
     970:	018b8823          	sb	s8,16(s7)
     974:	b1043c03          	ld	s8,-1264(s0)
     978:	ff8c0c13          	addi	s8,s8,-8
     97c:	018b87a3          	sb	s8,15(s7)
     980:	b1843c03          	ld	s8,-1256(s0)
     984:	ff8c0c13          	addi	s8,s8,-8
     988:	018b8723          	sb	s8,14(s7)
     98c:	b2043c03          	ld	s8,-1248(s0)
     990:	ff8c0c13          	addi	s8,s8,-8
     994:	018b86a3          	sb	s8,13(s7)
     998:	b2843c03          	ld	s8,-1240(s0)
     99c:	ff8c0c13          	addi	s8,s8,-8
     9a0:	018b8623          	sb	s8,12(s7)
     9a4:	b3043c03          	ld	s8,-1232(s0)
     9a8:	ff8c0c13          	addi	s8,s8,-8
     9ac:	018b85a3          	sb	s8,11(s7)
     9b0:	b3843c03          	ld	s8,-1224(s0)
     9b4:	ff8c0c13          	addi	s8,s8,-8
     9b8:	018b8523          	sb	s8,10(s7)
     9bc:	b4843c03          	ld	s8,-1208(s0)
     9c0:	ff8c0c13          	addi	s8,s8,-8
     9c4:	018b84a3          	sb	s8,9(s7)
     9c8:	b5843c03          	ld	s8,-1192(s0)
     9cc:	ff8c0c13          	addi	s8,s8,-8
     9d0:	018b8423          	sb	s8,8(s7)
     9d4:	b6843c03          	ld	s8,-1176(s0)
     9d8:	ff8c0c13          	addi	s8,s8,-8
     9dc:	018b83a3          	sb	s8,7(s7)
     9e0:	b7843c03          	ld	s8,-1160(s0)
     9e4:	ff8c0c13          	addi	s8,s8,-8
     9e8:	018b8323          	sb	s8,6(s7)
     9ec:	b8843c03          	ld	s8,-1144(s0)
     9f0:	ff8c0c13          	addi	s8,s8,-8
     9f4:	018b82a3          	sb	s8,5(s7)
     9f8:	b9843c03          	ld	s8,-1128(s0)
     9fc:	ff8c0c13          	addi	s8,s8,-8
     a00:	018b8223          	sb	s8,4(s7)
     a04:	ba843c03          	ld	s8,-1112(s0)
     a08:	ff8c0c13          	addi	s8,s8,-8
     a0c:	018b81a3          	sb	s8,3(s7)
     a10:	bb843c03          	ld	s8,-1096(s0)
     a14:	ff8c0c13          	addi	s8,s8,-8
     a18:	018b8123          	sb	s8,2(s7)
     a1c:	bc843c03          	ld	s8,-1080(s0)
     a20:	ff8c0c13          	addi	s8,s8,-8
     a24:	018b80a3          	sb	s8,1(s7)
     a28:	bd843c03          	ld	s8,-1064(s0)
     a2c:	ff8c0c13          	addi	s8,s8,-8
     a30:	018b8023          	sb	s8,0(s7)
     a34:	94043c03          	ld	s8,-1728(s0)
     a38:	ff8c0c13          	addi	s8,s8,-8
     a3c:	000013b7          	lui	t2,0x1
     a40:	407403b3          	sub	t2,s0,t2
     a44:	0303bb83          	ld	s7,48(t2) # 1030 <.LBB66_4+0x18c>
     a48:	017d8bb3          	add	s7,s11,s7
     a4c:	018b8fa3          	sb	s8,31(s7)
     a50:	95043c03          	ld	s8,-1712(s0)
     a54:	ff8c0c13          	addi	s8,s8,-8
     a58:	018b8f23          	sb	s8,30(s7)
     a5c:	96043c03          	ld	s8,-1696(s0)
     a60:	ff8c0c13          	addi	s8,s8,-8
     a64:	018b8ea3          	sb	s8,29(s7)
     a68:	97043c03          	ld	s8,-1680(s0)
     a6c:	ff8c0c13          	addi	s8,s8,-8
     a70:	018b8e23          	sb	s8,28(s7)
     a74:	98043c03          	ld	s8,-1664(s0)
     a78:	ff8c0c13          	addi	s8,s8,-8
     a7c:	018b8da3          	sb	s8,27(s7)
     a80:	99043c03          	ld	s8,-1648(s0)
     a84:	ff8c0c13          	addi	s8,s8,-8
     a88:	018b8d23          	sb	s8,26(s7)
     a8c:	9a043c03          	ld	s8,-1632(s0)
     a90:	ff8c0c13          	addi	s8,s8,-8
     a94:	018b8ca3          	sb	s8,25(s7)
     a98:	9b043c03          	ld	s8,-1616(s0)
     a9c:	ff8c0c13          	addi	s8,s8,-8
     aa0:	018b8c23          	sb	s8,24(s7)
     aa4:	9c043c03          	ld	s8,-1600(s0)
     aa8:	ff8c0c13          	addi	s8,s8,-8
     aac:	018b8ba3          	sb	s8,23(s7)
     ab0:	9d043c03          	ld	s8,-1584(s0)
     ab4:	ff8c0c13          	addi	s8,s8,-8
     ab8:	018b8b23          	sb	s8,22(s7)
     abc:	9e043c03          	ld	s8,-1568(s0)
     ac0:	ff8c0c13          	addi	s8,s8,-8
     ac4:	018b8aa3          	sb	s8,21(s7)
     ac8:	9e843c03          	ld	s8,-1560(s0)
     acc:	ff8c0c13          	addi	s8,s8,-8
     ad0:	018b8a23          	sb	s8,20(s7)
     ad4:	9f043c03          	ld	s8,-1552(s0)
     ad8:	ff8c0c13          	addi	s8,s8,-8
     adc:	018b89a3          	sb	s8,19(s7)
     ae0:	9f843c03          	ld	s8,-1544(s0)
     ae4:	ff8c0c13          	addi	s8,s8,-8
     ae8:	018b8923          	sb	s8,18(s7)
     aec:	a0043c03          	ld	s8,-1536(s0)
     af0:	ff8c0c13          	addi	s8,s8,-8
     af4:	018b88a3          	sb	s8,17(s7)
     af8:	a0843c03          	ld	s8,-1528(s0)
     afc:	ff8c0c13          	addi	s8,s8,-8
     b00:	018b8823          	sb	s8,16(s7)
     b04:	a1043c03          	ld	s8,-1520(s0)
     b08:	ff8c0c13          	addi	s8,s8,-8
     b0c:	018b87a3          	sb	s8,15(s7)
     b10:	a1843c03          	ld	s8,-1512(s0)
     b14:	ff8c0c13          	addi	s8,s8,-8
     b18:	018b8723          	sb	s8,14(s7)
     b1c:	a2043c03          	ld	s8,-1504(s0)
     b20:	ff8c0c13          	addi	s8,s8,-8
     b24:	018b86a3          	sb	s8,13(s7)
     b28:	a2843c03          	ld	s8,-1496(s0)
     b2c:	ff8c0c13          	addi	s8,s8,-8
     b30:	018b8623          	sb	s8,12(s7)
     b34:	a3043c03          	ld	s8,-1488(s0)
     b38:	ff8c0c13          	addi	s8,s8,-8
     b3c:	018b85a3          	sb	s8,11(s7)
     b40:	a3843c03          	ld	s8,-1480(s0)
     b44:	ff8c0c13          	addi	s8,s8,-8
     b48:	018b8523          	sb	s8,10(s7)
     b4c:	a4843c03          	ld	s8,-1464(s0)
     b50:	ff8c0c13          	addi	s8,s8,-8
     b54:	018b84a3          	sb	s8,9(s7)
     b58:	a5843c03          	ld	s8,-1448(s0)
     b5c:	ff8c0c13          	addi	s8,s8,-8
     b60:	018b8423          	sb	s8,8(s7)
     b64:	a6843c03          	ld	s8,-1432(s0)
     b68:	ff8c0c13          	addi	s8,s8,-8
     b6c:	018b83a3          	sb	s8,7(s7)
     b70:	a7843c03          	ld	s8,-1416(s0)
     b74:	ff8c0c13          	addi	s8,s8,-8
     b78:	018b8323          	sb	s8,6(s7)
     b7c:	a8843c03          	ld	s8,-1400(s0)
     b80:	ff8c0c13          	addi	s8,s8,-8
     b84:	018b82a3          	sb	s8,5(s7)
     b88:	a9843c03          	ld	s8,-1384(s0)
     b8c:	ff8c0c13          	addi	s8,s8,-8
     b90:	018b8223          	sb	s8,4(s7)
     b94:	aa843c03          	ld	s8,-1368(s0)
     b98:	ff8c0c13          	addi	s8,s8,-8
     b9c:	018b81a3          	sb	s8,3(s7)
     ba0:	ab843c03          	ld	s8,-1352(s0)
     ba4:	ff8c0c13          	addi	s8,s8,-8
     ba8:	018b8123          	sb	s8,2(s7)
     bac:	ac843c03          	ld	s8,-1336(s0)
     bb0:	ff8c0c13          	addi	s8,s8,-8
     bb4:	018b80a3          	sb	s8,1(s7)
     bb8:	ad843c03          	ld	s8,-1320(s0)
     bbc:	ff8c0c13          	addi	s8,s8,-8
     bc0:	018b8023          	sb	s8,0(s7)
     bc4:	ff850b93          	addi	s7,a0,-8
     bc8:	00001537          	lui	a0,0x1
     bcc:	40a40533          	sub	a0,s0,a0
     bd0:	03853503          	ld	a0,56(a0) # 1038 <.LBB66_4+0x194>
     bd4:	00ad8533          	add	a0,s11,a0
     bd8:	01750fa3          	sb	s7,31(a0)
     bdc:	85843b83          	ld	s7,-1960(s0)
     be0:	ff8b8b93          	addi	s7,s7,-8
     be4:	01750f23          	sb	s7,30(a0)
     be8:	86843b83          	ld	s7,-1944(s0)
     bec:	ff8b8b93          	addi	s7,s7,-8
     bf0:	01750ea3          	sb	s7,29(a0)
     bf4:	87843b83          	ld	s7,-1928(s0)
     bf8:	ff8b8b93          	addi	s7,s7,-8
     bfc:	01750e23          	sb	s7,28(a0)
     c00:	88843b83          	ld	s7,-1912(s0)
     c04:	ff8b8b93          	addi	s7,s7,-8
     c08:	01750da3          	sb	s7,27(a0)
     c0c:	89843b83          	ld	s7,-1896(s0)
     c10:	ff8b8b93          	addi	s7,s7,-8
     c14:	01750d23          	sb	s7,26(a0)
     c18:	8a843b83          	ld	s7,-1880(s0)
     c1c:	ff8b8b93          	addi	s7,s7,-8
     c20:	01750ca3          	sb	s7,25(a0)
     c24:	8b843b83          	ld	s7,-1864(s0)
     c28:	ff8b8b93          	addi	s7,s7,-8
     c2c:	01750c23          	sb	s7,24(a0)
     c30:	ff858b93          	addi	s7,a1,-8
     c34:	01750ba3          	sb	s7,23(a0)
     c38:	8d043b83          	ld	s7,-1840(s0)
     c3c:	ff8b8b93          	addi	s7,s7,-8
     c40:	01750b23          	sb	s7,22(a0)
     c44:	8e043b83          	ld	s7,-1824(s0)
     c48:	ff8b8b93          	addi	s7,s7,-8
     c4c:	01750aa3          	sb	s7,21(a0)
     c50:	8e843b83          	ld	s7,-1816(s0)
     c54:	ff8b8b93          	addi	s7,s7,-8
     c58:	01750a23          	sb	s7,20(a0)
     c5c:	8f043b83          	ld	s7,-1808(s0)
     c60:	ff8b8b93          	addi	s7,s7,-8
     c64:	017509a3          	sb	s7,19(a0)
     c68:	8f843b83          	ld	s7,-1800(s0)
     c6c:	ff8b8b93          	addi	s7,s7,-8
     c70:	01750923          	sb	s7,18(a0)
     c74:	90043b83          	ld	s7,-1792(s0)
     c78:	ff8b8b93          	addi	s7,s7,-8
     c7c:	017508a3          	sb	s7,17(a0)
     c80:	90843b83          	ld	s7,-1784(s0)
     c84:	ff8b8b93          	addi	s7,s7,-8
     c88:	01750823          	sb	s7,16(a0)
     c8c:	91043b83          	ld	s7,-1776(s0)
     c90:	ff8b8b93          	addi	s7,s7,-8
     c94:	017507a3          	sb	s7,15(a0)
     c98:	91843b83          	ld	s7,-1768(s0)
     c9c:	ff8b8b93          	addi	s7,s7,-8
     ca0:	01750723          	sb	s7,14(a0)
     ca4:	92043b83          	ld	s7,-1760(s0)
     ca8:	ff8b8b93          	addi	s7,s7,-8
     cac:	017506a3          	sb	s7,13(a0)
     cb0:	92843b83          	ld	s7,-1752(s0)
     cb4:	ff8b8b93          	addi	s7,s7,-8
     cb8:	01750623          	sb	s7,12(a0)
     cbc:	93043b83          	ld	s7,-1744(s0)
     cc0:	ff8b8b93          	addi	s7,s7,-8
     cc4:	017505a3          	sb	s7,11(a0)
     cc8:	93843b83          	ld	s7,-1736(s0)
     ccc:	ff8b8b93          	addi	s7,s7,-8
     cd0:	01750523          	sb	s7,10(a0)
     cd4:	94843b83          	ld	s7,-1720(s0)
     cd8:	ff8b8b93          	addi	s7,s7,-8
     cdc:	017504a3          	sb	s7,9(a0)
     ce0:	95843b83          	ld	s7,-1704(s0)
     ce4:	ff8b8b93          	addi	s7,s7,-8
     ce8:	01750423          	sb	s7,8(a0)
     cec:	96843b83          	ld	s7,-1688(s0)
     cf0:	ff8b8b93          	addi	s7,s7,-8
     cf4:	017503a3          	sb	s7,7(a0)
     cf8:	97843b83          	ld	s7,-1672(s0)
     cfc:	ff8b8b93          	addi	s7,s7,-8
     d00:	01750323          	sb	s7,6(a0)
     d04:	98843b83          	ld	s7,-1656(s0)
     d08:	ff8b8b93          	addi	s7,s7,-8
     d0c:	017502a3          	sb	s7,5(a0)
     d10:	99843b83          	ld	s7,-1640(s0)
     d14:	ff8b8b93          	addi	s7,s7,-8
     d18:	01750223          	sb	s7,4(a0)
     d1c:	9a843b83          	ld	s7,-1624(s0)
     d20:	ff8b8b93          	addi	s7,s7,-8
     d24:	017501a3          	sb	s7,3(a0)
     d28:	9b843b83          	ld	s7,-1608(s0)
     d2c:	ff8b8b93          	addi	s7,s7,-8
     d30:	01750123          	sb	s7,2(a0)
     d34:	9c843b83          	ld	s7,-1592(s0)
     d38:	ff8b8b93          	addi	s7,s7,-8
     d3c:	017500a3          	sb	s7,1(a0)
     d40:	9d843b83          	ld	s7,-1576(s0)
     d44:	ff8b8b93          	addi	s7,s7,-8
     d48:	01750023          	sb	s7,0(a0)
     d4c:	ff8b0b13          	addi	s6,s6,-8
     d50:	00001537          	lui	a0,0x1
     d54:	40a40533          	sub	a0,s0,a0
     d58:	04053503          	ld	a0,64(a0) # 1040 <.LBB66_4+0x19c>
     d5c:	00ad8533          	add	a0,s11,a0
     d60:	01650fa3          	sb	s6,31(a0)
     d64:	ff808093          	addi	ra,ra,-8
     d68:	00150f23          	sb	ra,30(a0)
     d6c:	ff8d0d13          	addi	s10,s10,-8
     d70:	01a50ea3          	sb	s10,29(a0)
     d74:	ff8c8c93          	addi	s9,s9,-8
     d78:	01950e23          	sb	s9,28(a0)
     d7c:	ff8a8a93          	addi	s5,s5,-8
     d80:	01550da3          	sb	s5,27(a0)
     d84:	ff8a0a13          	addi	s4,s4,-8
     d88:	01450d23          	sb	s4,26(a0)
     d8c:	ff8e8e93          	addi	t4,t4,-8
     d90:	01d50ca3          	sb	t4,25(a0)
     d94:	ff898993          	addi	s3,s3,-8
     d98:	01350c23          	sb	s3,24(a0)
     d9c:	ff890913          	addi	s2,s2,-8
     da0:	01250ba3          	sb	s2,23(a0)
     da4:	ff8e0e13          	addi	t3,t3,-8
     da8:	01c50b23          	sb	t3,22(a0)
     dac:	ff830313          	addi	t1,t1,-8
     db0:	00650aa3          	sb	t1,21(a0)
     db4:	ff828293          	addi	t0,t0,-8
     db8:	00550a23          	sb	t0,20(a0)
     dbc:	ff8f8f93          	addi	t6,t6,-8
     dc0:	01f509a3          	sb	t6,19(a0)
     dc4:	ff880813          	addi	a6,a6,-8
     dc8:	01050923          	sb	a6,18(a0)
     dcc:	ff848493          	addi	s1,s1,-8
     dd0:	009508a3          	sb	s1,17(a0)
     dd4:	ff8f0f13          	addi	t5,t5,-8
     dd8:	01e50823          	sb	t5,16(a0)
     ddc:	ff888893          	addi	a7,a7,-8
     de0:	011507a3          	sb	a7,15(a0)
     de4:	ff878793          	addi	a5,a5,-8
     de8:	00f50723          	sb	a5,14(a0)
     dec:	ff870713          	addi	a4,a4,-8
     df0:	00e506a3          	sb	a4,13(a0)
     df4:	ff868693          	addi	a3,a3,-8
     df8:	00d50623          	sb	a3,12(a0)
     dfc:	ff860613          	addi	a2,a2,-8
     e00:	00c505a3          	sb	a2,11(a0)
     e04:	84843583          	ld	a1,-1976(s0)
     e08:	ff858593          	addi	a1,a1,-8
     e0c:	00b50523          	sb	a1,10(a0)
     e10:	85043383          	ld	t2,-1968(s0)
     e14:	ff838393          	addi	t2,t2,-8
     e18:	007504a3          	sb	t2,9(a0)
     e1c:	86043583          	ld	a1,-1952(s0)
     e20:	ff858593          	addi	a1,a1,-8
     e24:	00b50423          	sb	a1,8(a0)
     e28:	87043583          	ld	a1,-1936(s0)
     e2c:	ff858593          	addi	a1,a1,-8
     e30:	00b503a3          	sb	a1,7(a0)
     e34:	88043583          	ld	a1,-1920(s0)
     e38:	ff858593          	addi	a1,a1,-8
     e3c:	00b50323          	sb	a1,6(a0)
     e40:	89043583          	ld	a1,-1904(s0)
     e44:	ff858593          	addi	a1,a1,-8
     e48:	00b502a3          	sb	a1,5(a0)
     e4c:	8a043583          	ld	a1,-1888(s0)
     e50:	ff858593          	addi	a1,a1,-8
     e54:	00b50223          	sb	a1,4(a0)
     e58:	8b043583          	ld	a1,-1872(s0)
     e5c:	ff858593          	addi	a1,a1,-8
     e60:	00b501a3          	sb	a1,3(a0)
     e64:	8c043583          	ld	a1,-1856(s0)
     e68:	ff858593          	addi	a1,a1,-8
     e6c:	00b50123          	sb	a1,2(a0)
     e70:	8c843583          	ld	a1,-1848(s0)
     e74:	ff858593          	addi	a1,a1,-8
     e78:	00b500a3          	sb	a1,1(a0)
     e7c:	8d843583          	ld	a1,-1832(s0)
     e80:	ff858593          	addi	a1,a1,-8
     e84:	00b50023          	sb	a1,0(a0)
     e88:	00001537          	lui	a0,0x1
     e8c:	40a40533          	sub	a0,s0,a0
     e90:	04853503          	ld	a0,72(a0) # 1048 <.LBB66_4+0x1a4>
     e94:	00157513          	andi	a0,a0,1
     e98:	02000693          	li	a3,32
     e9c:	00000593          	li	a1,0
     ea0:	ac050063          	beqz	a0,160 <.LBB66_1>

0000000000000ea4 <.LBB66_4>:
     ea4:	00001537          	lui	a0,0x1
     ea8:	40a40533          	sub	a0,s0,a0
     eac:	04b53423          	sd	a1,72(a0) # 1048 <.LBB66_4+0x1a4>
     eb0:	00002537          	lui	a0,0x2
     eb4:	40a40533          	sub	a0,s0,a0
     eb8:	06053503          	ld	a0,96(a0) # 2060 <.LBB66_5+0xc24>
     ebc:	000015b7          	lui	a1,0x1
     ec0:	40b405b3          	sub	a1,s0,a1
     ec4:	5ed5b023          	sd	a3,1504(a1) # 15e0 <.LBB66_5+0x1a4>
     ec8:	00d509b3          	add	s3,a0,a3
     ecc:	00006a37          	lui	s4,0x6
     ed0:	00002537          	lui	a0,0x2
     ed4:	40a40533          	sub	a0,s0,a0
     ed8:	06853b03          	ld	s6,104(a0) # 2068 <.LBB66_5+0xc2c>
     edc:	00001537          	lui	a0,0x1
     ee0:	40a40533          	sub	a0,s0,a0
     ee4:	78053023          	sd	zero,1920(a0) # 1780 <.LBB66_5+0x344>
     ee8:	00001537          	lui	a0,0x1
     eec:	40a40533          	sub	a0,s0,a0
     ef0:	78053423          	sd	zero,1928(a0) # 1788 <.LBB66_5+0x34c>
     ef4:	00001537          	lui	a0,0x1
     ef8:	40a40533          	sub	a0,s0,a0
     efc:	78053c23          	sd	zero,1944(a0) # 1798 <.LBB66_5+0x35c>
     f00:	00000b93          	li	s7,0
     f04:	00001537          	lui	a0,0x1
     f08:	40a40533          	sub	a0,s0,a0
     f0c:	76053c23          	sd	zero,1912(a0) # 1778 <.LBB66_5+0x33c>
     f10:	00001537          	lui	a0,0x1
     f14:	40a40533          	sub	a0,s0,a0
     f18:	76053823          	sd	zero,1904(a0) # 1770 <.LBB66_5+0x334>
     f1c:	00001537          	lui	a0,0x1
     f20:	40a40533          	sub	a0,s0,a0
     f24:	76053423          	sd	zero,1896(a0) # 1768 <.LBB66_5+0x32c>
     f28:	00001537          	lui	a0,0x1
     f2c:	40a40533          	sub	a0,s0,a0
     f30:	76053023          	sd	zero,1888(a0) # 1760 <.LBB66_5+0x324>
     f34:	00001537          	lui	a0,0x1
     f38:	40a40533          	sub	a0,s0,a0
     f3c:	74053c23          	sd	zero,1880(a0) # 1758 <.LBB66_5+0x31c>
     f40:	00001537          	lui	a0,0x1
     f44:	40a40533          	sub	a0,s0,a0
     f48:	74053823          	sd	zero,1872(a0) # 1750 <.LBB66_5+0x314>
     f4c:	00001537          	lui	a0,0x1
     f50:	40a40533          	sub	a0,s0,a0
     f54:	74053423          	sd	zero,1864(a0) # 1748 <.LBB66_5+0x30c>
     f58:	00001537          	lui	a0,0x1
     f5c:	40a40533          	sub	a0,s0,a0
     f60:	74053023          	sd	zero,1856(a0) # 1740 <.LBB66_5+0x304>
     f64:	00001537          	lui	a0,0x1
     f68:	40a40533          	sub	a0,s0,a0
     f6c:	72053c23          	sd	zero,1848(a0) # 1738 <.LBB66_5+0x2fc>
     f70:	00001537          	lui	a0,0x1
     f74:	40a40533          	sub	a0,s0,a0
     f78:	72053823          	sd	zero,1840(a0) # 1730 <.LBB66_5+0x2f4>
     f7c:	00001537          	lui	a0,0x1
     f80:	40a40533          	sub	a0,s0,a0
     f84:	72053423          	sd	zero,1832(a0) # 1728 <.LBB66_5+0x2ec>
     f88:	00001537          	lui	a0,0x1
     f8c:	40a40533          	sub	a0,s0,a0
     f90:	72053023          	sd	zero,1824(a0) # 1720 <.LBB66_5+0x2e4>
     f94:	00001537          	lui	a0,0x1
     f98:	40a40533          	sub	a0,s0,a0
     f9c:	70053c23          	sd	zero,1816(a0) # 1718 <.LBB66_5+0x2dc>
     fa0:	00001537          	lui	a0,0x1
     fa4:	40a40533          	sub	a0,s0,a0
     fa8:	70053823          	sd	zero,1808(a0) # 1710 <.LBB66_5+0x2d4>
     fac:	00001537          	lui	a0,0x1
     fb0:	40a40533          	sub	a0,s0,a0
     fb4:	70053423          	sd	zero,1800(a0) # 1708 <.LBB66_5+0x2cc>
     fb8:	00001537          	lui	a0,0x1
     fbc:	40a40533          	sub	a0,s0,a0
     fc0:	70053023          	sd	zero,1792(a0) # 1700 <.LBB66_5+0x2c4>
     fc4:	00001537          	lui	a0,0x1
     fc8:	40a40533          	sub	a0,s0,a0
     fcc:	6e053c23          	sd	zero,1784(a0) # 16f8 <.LBB66_5+0x2bc>
     fd0:	00001537          	lui	a0,0x1
     fd4:	40a40533          	sub	a0,s0,a0
     fd8:	6e053823          	sd	zero,1776(a0) # 16f0 <.LBB66_5+0x2b4>
     fdc:	00001537          	lui	a0,0x1
     fe0:	40a40533          	sub	a0,s0,a0
     fe4:	6e053423          	sd	zero,1768(a0) # 16e8 <.LBB66_5+0x2ac>
     fe8:	00001537          	lui	a0,0x1
     fec:	40a40533          	sub	a0,s0,a0
     ff0:	6a053423          	sd	zero,1704(a0) # 16a8 <.LBB66_5+0x26c>
     ff4:	00001537          	lui	a0,0x1
     ff8:	40a40533          	sub	a0,s0,a0
     ffc:	6e053023          	sd	zero,1760(a0) # 16e0 <.LBB66_5+0x2a4>
    1000:	00001537          	lui	a0,0x1
    1004:	40a40533          	sub	a0,s0,a0
    1008:	6c053c23          	sd	zero,1752(a0) # 16d8 <.LBB66_5+0x29c>
    100c:	00001537          	lui	a0,0x1
    1010:	40a40533          	sub	a0,s0,a0
    1014:	6c053823          	sd	zero,1744(a0) # 16d0 <.LBB66_5+0x294>
    1018:	00001537          	lui	a0,0x1
    101c:	40a40533          	sub	a0,s0,a0
    1020:	6c053423          	sd	zero,1736(a0) # 16c8 <.LBB66_5+0x28c>
    1024:	00001537          	lui	a0,0x1
    1028:	40a40533          	sub	a0,s0,a0
    102c:	6c053023          	sd	zero,1728(a0) # 16c0 <.LBB66_5+0x284>
    1030:	00001537          	lui	a0,0x1
    1034:	40a40533          	sub	a0,s0,a0
    1038:	6a053c23          	sd	zero,1720(a0) # 16b8 <.LBB66_5+0x27c>
    103c:	00001537          	lui	a0,0x1
    1040:	40a40533          	sub	a0,s0,a0
    1044:	6a053023          	sd	zero,1696(a0) # 16a0 <.LBB66_5+0x264>
    1048:	00001537          	lui	a0,0x1
    104c:	40a40533          	sub	a0,s0,a0
    1050:	6a053823          	sd	zero,1712(a0) # 16b0 <.LBB66_5+0x274>
    1054:	00001537          	lui	a0,0x1
    1058:	40a40533          	sub	a0,s0,a0
    105c:	78053823          	sd	zero,1936(a0) # 1790 <.LBB66_5+0x354>
    1060:	00001537          	lui	a0,0x1
    1064:	40a40533          	sub	a0,s0,a0
    1068:	7a053023          	sd	zero,1952(a0) # 17a0 <.LBB66_5+0x364>
    106c:	00001537          	lui	a0,0x1
    1070:	40a40533          	sub	a0,s0,a0
    1074:	7a053423          	sd	zero,1960(a0) # 17a8 <.LBB66_5+0x36c>
    1078:	00001537          	lui	a0,0x1
    107c:	40a40533          	sub	a0,s0,a0
    1080:	7a053823          	sd	zero,1968(a0) # 17b0 <.LBB66_5+0x374>
    1084:	00001537          	lui	a0,0x1
    1088:	40a40533          	sub	a0,s0,a0
    108c:	7a053c23          	sd	zero,1976(a0) # 17b8 <.LBB66_5+0x37c>
    1090:	00001537          	lui	a0,0x1
    1094:	40a40533          	sub	a0,s0,a0
    1098:	7c053023          	sd	zero,1984(a0) # 17c0 <.LBB66_5+0x384>
    109c:	00001537          	lui	a0,0x1
    10a0:	40a40533          	sub	a0,s0,a0
    10a4:	7c053423          	sd	zero,1992(a0) # 17c8 <.LBB66_5+0x38c>
    10a8:	00001537          	lui	a0,0x1
    10ac:	40a40533          	sub	a0,s0,a0
    10b0:	7c053823          	sd	zero,2000(a0) # 17d0 <.LBB66_5+0x394>
    10b4:	00001537          	lui	a0,0x1
    10b8:	40a40533          	sub	a0,s0,a0
    10bc:	7c053c23          	sd	zero,2008(a0) # 17d8 <.LBB66_5+0x39c>
    10c0:	00001537          	lui	a0,0x1
    10c4:	40a40533          	sub	a0,s0,a0
    10c8:	7e053023          	sd	zero,2016(a0) # 17e0 <.LBB66_5+0x3a4>
    10cc:	00001537          	lui	a0,0x1
    10d0:	40a40533          	sub	a0,s0,a0
    10d4:	7e053423          	sd	zero,2024(a0) # 17e8 <.LBB66_5+0x3ac>
    10d8:	00001537          	lui	a0,0x1
    10dc:	40a40533          	sub	a0,s0,a0
    10e0:	7e053823          	sd	zero,2032(a0) # 17f0 <.LBB66_5+0x3b4>
    10e4:	00001537          	lui	a0,0x1
    10e8:	40a40533          	sub	a0,s0,a0
    10ec:	7e053c23          	sd	zero,2040(a0) # 17f8 <.LBB66_5+0x3bc>
    10f0:	80043023          	sd	zero,-2048(s0)
    10f4:	80043423          	sd	zero,-2040(s0)
    10f8:	80043823          	sd	zero,-2032(s0)
    10fc:	80043c23          	sd	zero,-2024(s0)
    1100:	82043023          	sd	zero,-2016(s0)
    1104:	82043423          	sd	zero,-2008(s0)
    1108:	82043823          	sd	zero,-2000(s0)
    110c:	82043c23          	sd	zero,-1992(s0)
    1110:	84043023          	sd	zero,-1984(s0)
    1114:	84043423          	sd	zero,-1976(s0)
    1118:	84043823          	sd	zero,-1968(s0)
    111c:	84043c23          	sd	zero,-1960(s0)
    1120:	86043023          	sd	zero,-1952(s0)
    1124:	86043423          	sd	zero,-1944(s0)
    1128:	86043823          	sd	zero,-1936(s0)
    112c:	86043c23          	sd	zero,-1928(s0)
    1130:	88043023          	sd	zero,-1920(s0)
    1134:	88043423          	sd	zero,-1912(s0)
    1138:	88043823          	sd	zero,-1904(s0)
    113c:	88043c23          	sd	zero,-1896(s0)
    1140:	8a043023          	sd	zero,-1888(s0)
    1144:	8a043423          	sd	zero,-1880(s0)
    1148:	8a043823          	sd	zero,-1872(s0)
    114c:	8a043c23          	sd	zero,-1864(s0)
    1150:	8c043023          	sd	zero,-1856(s0)
    1154:	8c043423          	sd	zero,-1848(s0)
    1158:	8c043823          	sd	zero,-1840(s0)
    115c:	8c043c23          	sd	zero,-1832(s0)
    1160:	8e043023          	sd	zero,-1824(s0)
    1164:	8e043423          	sd	zero,-1816(s0)
    1168:	8e043823          	sd	zero,-1808(s0)
    116c:	8e043c23          	sd	zero,-1800(s0)
    1170:	90043023          	sd	zero,-1792(s0)
    1174:	90043423          	sd	zero,-1784(s0)
    1178:	90043823          	sd	zero,-1776(s0)
    117c:	90043c23          	sd	zero,-1768(s0)
    1180:	92043023          	sd	zero,-1760(s0)
    1184:	92043423          	sd	zero,-1752(s0)
    1188:	92043823          	sd	zero,-1744(s0)
    118c:	92043c23          	sd	zero,-1736(s0)
    1190:	94043023          	sd	zero,-1728(s0)
    1194:	94043423          	sd	zero,-1720(s0)
    1198:	94043823          	sd	zero,-1712(s0)
    119c:	94043c23          	sd	zero,-1704(s0)
    11a0:	96043023          	sd	zero,-1696(s0)
    11a4:	96043423          	sd	zero,-1688(s0)
    11a8:	96043823          	sd	zero,-1680(s0)
    11ac:	96043c23          	sd	zero,-1672(s0)
    11b0:	98043023          	sd	zero,-1664(s0)
    11b4:	98043423          	sd	zero,-1656(s0)
    11b8:	98043823          	sd	zero,-1648(s0)
    11bc:	98043c23          	sd	zero,-1640(s0)
    11c0:	9a043023          	sd	zero,-1632(s0)
    11c4:	9a043423          	sd	zero,-1624(s0)
    11c8:	9a043823          	sd	zero,-1616(s0)
    11cc:	9a043c23          	sd	zero,-1608(s0)
    11d0:	9c043023          	sd	zero,-1600(s0)
    11d4:	9c043423          	sd	zero,-1592(s0)
    11d8:	9c043823          	sd	zero,-1584(s0)
    11dc:	9c043c23          	sd	zero,-1576(s0)
    11e0:	9e043023          	sd	zero,-1568(s0)
    11e4:	9e043423          	sd	zero,-1560(s0)
    11e8:	9e043823          	sd	zero,-1552(s0)
    11ec:	9e043c23          	sd	zero,-1544(s0)
    11f0:	a0043023          	sd	zero,-1536(s0)
    11f4:	a0043423          	sd	zero,-1528(s0)
    11f8:	a0043823          	sd	zero,-1520(s0)
    11fc:	a0043c23          	sd	zero,-1512(s0)
    1200:	a2043023          	sd	zero,-1504(s0)
    1204:	a2043423          	sd	zero,-1496(s0)
    1208:	a2043823          	sd	zero,-1488(s0)
    120c:	a2043c23          	sd	zero,-1480(s0)
    1210:	a4043023          	sd	zero,-1472(s0)
    1214:	a4043423          	sd	zero,-1464(s0)
    1218:	a4043823          	sd	zero,-1456(s0)
    121c:	a4043c23          	sd	zero,-1448(s0)
    1220:	a6043023          	sd	zero,-1440(s0)
    1224:	a6043423          	sd	zero,-1432(s0)
    1228:	a6043823          	sd	zero,-1424(s0)
    122c:	a6043c23          	sd	zero,-1416(s0)
    1230:	a8043023          	sd	zero,-1408(s0)
    1234:	a8043423          	sd	zero,-1400(s0)
    1238:	a8043823          	sd	zero,-1392(s0)
    123c:	a8043c23          	sd	zero,-1384(s0)
    1240:	aa043023          	sd	zero,-1376(s0)
    1244:	aa043423          	sd	zero,-1368(s0)
    1248:	aa043823          	sd	zero,-1360(s0)
    124c:	aa043c23          	sd	zero,-1352(s0)
    1250:	ac043023          	sd	zero,-1344(s0)
    1254:	ac043423          	sd	zero,-1336(s0)
    1258:	ac043823          	sd	zero,-1328(s0)
    125c:	ac043c23          	sd	zero,-1320(s0)
    1260:	ae043023          	sd	zero,-1312(s0)
    1264:	ae043423          	sd	zero,-1304(s0)
    1268:	ae043823          	sd	zero,-1296(s0)
    126c:	ae043c23          	sd	zero,-1288(s0)
    1270:	b0043023          	sd	zero,-1280(s0)
    1274:	b0043423          	sd	zero,-1272(s0)
    1278:	b0043823          	sd	zero,-1264(s0)
    127c:	b0043c23          	sd	zero,-1256(s0)
    1280:	b2043023          	sd	zero,-1248(s0)
    1284:	b2043423          	sd	zero,-1240(s0)
    1288:	b2043823          	sd	zero,-1232(s0)
    128c:	b2043c23          	sd	zero,-1224(s0)
    1290:	b4043023          	sd	zero,-1216(s0)
    1294:	b4043423          	sd	zero,-1208(s0)
    1298:	b4043823          	sd	zero,-1200(s0)
    129c:	b4043c23          	sd	zero,-1192(s0)
    12a0:	b6043023          	sd	zero,-1184(s0)
    12a4:	b6043423          	sd	zero,-1176(s0)
    12a8:	b6043823          	sd	zero,-1168(s0)
    12ac:	b6043c23          	sd	zero,-1160(s0)
    12b0:	b8043023          	sd	zero,-1152(s0)
    12b4:	b8043423          	sd	zero,-1144(s0)
    12b8:	b8043823          	sd	zero,-1136(s0)
    12bc:	b8043c23          	sd	zero,-1128(s0)
    12c0:	ba043023          	sd	zero,-1120(s0)
    12c4:	ba043423          	sd	zero,-1112(s0)
    12c8:	ba043823          	sd	zero,-1104(s0)
    12cc:	ba043c23          	sd	zero,-1096(s0)
    12d0:	bc043023          	sd	zero,-1088(s0)
    12d4:	bc043423          	sd	zero,-1080(s0)
    12d8:	bc043823          	sd	zero,-1072(s0)
    12dc:	bc043c23          	sd	zero,-1064(s0)
    12e0:	be043023          	sd	zero,-1056(s0)
    12e4:	be043423          	sd	zero,-1048(s0)
    12e8:	be043823          	sd	zero,-1040(s0)
    12ec:	be043c23          	sd	zero,-1032(s0)
    12f0:	c0043023          	sd	zero,-1024(s0)
    12f4:	c0043423          	sd	zero,-1016(s0)
    12f8:	c0043823          	sd	zero,-1008(s0)
    12fc:	c0043c23          	sd	zero,-1000(s0)
    1300:	c2043023          	sd	zero,-992(s0)
    1304:	c2043423          	sd	zero,-984(s0)
    1308:	c2043823          	sd	zero,-976(s0)
    130c:	c2043c23          	sd	zero,-968(s0)
    1310:	c4043023          	sd	zero,-960(s0)
    1314:	c4043423          	sd	zero,-952(s0)
    1318:	c4043823          	sd	zero,-944(s0)
    131c:	c4043c23          	sd	zero,-936(s0)
    1320:	c6043023          	sd	zero,-928(s0)
    1324:	c6043423          	sd	zero,-920(s0)
    1328:	c6043823          	sd	zero,-912(s0)
    132c:	c6043c23          	sd	zero,-904(s0)
    1330:	c8043023          	sd	zero,-896(s0)
    1334:	c8043423          	sd	zero,-888(s0)
    1338:	c8043823          	sd	zero,-880(s0)
    133c:	c8043c23          	sd	zero,-872(s0)
    1340:	ca043023          	sd	zero,-864(s0)
    1344:	ca043423          	sd	zero,-856(s0)
    1348:	ca043823          	sd	zero,-848(s0)
    134c:	ca043c23          	sd	zero,-840(s0)
    1350:	cc043023          	sd	zero,-832(s0)
    1354:	cc043423          	sd	zero,-824(s0)
    1358:	cc043823          	sd	zero,-816(s0)
    135c:	cc043c23          	sd	zero,-808(s0)
    1360:	ce043023          	sd	zero,-800(s0)
    1364:	ce043423          	sd	zero,-792(s0)
    1368:	ce043823          	sd	zero,-784(s0)
    136c:	ce043c23          	sd	zero,-776(s0)
    1370:	d0043023          	sd	zero,-768(s0)
    1374:	d0043423          	sd	zero,-760(s0)
    1378:	d0043823          	sd	zero,-752(s0)
    137c:	d0043c23          	sd	zero,-744(s0)
    1380:	d2043023          	sd	zero,-736(s0)
    1384:	d2043423          	sd	zero,-728(s0)
    1388:	d2043823          	sd	zero,-720(s0)
    138c:	d2043c23          	sd	zero,-712(s0)
    1390:	d4043023          	sd	zero,-704(s0)
    1394:	d4043423          	sd	zero,-696(s0)
    1398:	d4043823          	sd	zero,-688(s0)
    139c:	d4043c23          	sd	zero,-680(s0)
    13a0:	d6043023          	sd	zero,-672(s0)
    13a4:	d6043423          	sd	zero,-664(s0)
    13a8:	d6043823          	sd	zero,-656(s0)
    13ac:	d6043c23          	sd	zero,-648(s0)
    13b0:	d8043023          	sd	zero,-640(s0)
    13b4:	d8043423          	sd	zero,-632(s0)
    13b8:	d8043823          	sd	zero,-624(s0)
    13bc:	d8043c23          	sd	zero,-616(s0)
    13c0:	da043023          	sd	zero,-608(s0)
    13c4:	da043423          	sd	zero,-600(s0)
    13c8:	da043823          	sd	zero,-592(s0)
    13cc:	da043c23          	sd	zero,-584(s0)
    13d0:	dc043023          	sd	zero,-576(s0)
    13d4:	dc043423          	sd	zero,-568(s0)
    13d8:	dc043823          	sd	zero,-560(s0)
    13dc:	00000d13          	li	s10,0
    13e0:	dc043c23          	sd	zero,-552(s0)
    13e4:	de043023          	sd	zero,-544(s0)
    13e8:	00000093          	li	ra,0
    13ec:	00000d93          	li	s11,0
    13f0:	00000c93          	li	s9,0
    13f4:	00000a93          	li	s5,0
    13f8:	00000913          	li	s2,0
    13fc:	00000493          	li	s1,0
    1400:	00000f93          	li	t6,0
    1404:	00000f13          	li	t5,0
    1408:	00000e93          	li	t4,0
    140c:	00000293          	li	t0,0
    1410:	00000613          	li	a2,0
    1414:	00000593          	li	a1,0
    1418:	00000513          	li	a0,0
    141c:	00000e13          	li	t3,0
    1420:	00000393          	li	t2,0
    1424:	00000313          	li	t1,0
    1428:	00000893          	li	a7,0
    142c:	00000813          	li	a6,0
    1430:	00000793          	li	a5,0
    1434:	00000713          	li	a4,0
    1438:	00000693          	li	a3,0

000000000000143c <.LBB66_5>:
    143c:	efa43c23          	sd	s10,-264(s0)
    1440:	f9643023          	sd	s6,-128(s0)
    1444:	00001c37          	lui	s8,0x1
    1448:	41840c33          	sub	s8,s0,s8
    144c:	694c3823          	sd	s4,1680(s8) # 1690 <.LBB66_5+0x254>
    1450:	f9343423          	sd	s3,-120(s0)
    1454:	de143423          	sd	ra,-536(s0)
    1458:	dfb43823          	sd	s11,-528(s0)
    145c:	df943c23          	sd	s9,-520(s0)
    1460:	e1543023          	sd	s5,-512(s0)
    1464:	e1243423          	sd	s2,-504(s0)
    1468:	e0943823          	sd	s1,-496(s0)
    146c:	e1f43c23          	sd	t6,-488(s0)
    1470:	e3e43023          	sd	t5,-480(s0)
    1474:	e3d43423          	sd	t4,-472(s0)
    1478:	f0543023          	sd	t0,-256(s0)
    147c:	f0c43423          	sd	a2,-248(s0)
    1480:	f0b43823          	sd	a1,-240(s0)
    1484:	f0a43c23          	sd	a0,-232(s0)
    1488:	e3c43823          	sd	t3,-464(s0)
    148c:	e2743c23          	sd	t2,-456(s0)
    1490:	e4643023          	sd	t1,-448(s0)
    1494:	e5143423          	sd	a7,-440(s0)
    1498:	e5043823          	sd	a6,-432(s0)
    149c:	e4f43c23          	sd	a5,-424(s0)
    14a0:	e6e43023          	sd	a4,-416(s0)
    14a4:	e6d43423          	sd	a3,-408(s0)
    14a8:	a00b0503          	lb	a0,-1536(s6)
    14ac:	00298c83          	lb	s9,2(s3)
    14b0:	00198f03          	lb	t5,1(s3)
    14b4:	00098703          	lb	a4,0(s3)
    14b8:	f2e43c23          	sd	a4,-200(s0)
    14bc:	00398783          	lb	a5,3(s3)
    14c0:	f6f43823          	sd	a5,-144(s0)
    14c4:	00498803          	lb	a6,4(s3)
    14c8:	f3043423          	sd	a6,-216(s0)
    14cc:	00598a83          	lb	s5,5(s3)
    14d0:	f3543023          	sd	s5,-224(s0)
    14d4:	00698d83          	lb	s11,6(s3)
    14d8:	f7b43423          	sd	s11,-152(s0)
    14dc:	00798083          	lb	ra,7(s3)
    14e0:	f6143023          	sd	ra,-160(s0)
    14e4:	00898883          	lb	a7,8(s3)
    14e8:	f5143c23          	sd	a7,-168(s0)
    14ec:	00998d03          	lb	s10,9(s3)
    14f0:	00a98903          	lb	s2,10(s3)
    14f4:	00b98483          	lb	s1,11(s3)
    14f8:	00c98f83          	lb	t6,12(s3)
    14fc:	00d98c03          	lb	s8,13(s3)
    1500:	00e98283          	lb	t0,14(s3)
    1504:	00f98e03          	lb	t3,15(s3)
    1508:	01098303          	lb	t1,16(s3)
    150c:	01198383          	lb	t2,17(s3)
    1510:	01298a03          	lb	s4,18(s3)
    1514:	01398983          	lb	s3,19(s3)
    1518:	f8843583          	ld	a1,-120(s0)
    151c:	01458b03          	lb	s6,20(a1)
    1520:	f8843583          	ld	a1,-120(s0)
    1524:	01558583          	lb	a1,21(a1)
    1528:	eab43823          	sd	a1,-336(s0)
    152c:	f8843583          	ld	a1,-120(s0)
    1530:	01658583          	lb	a1,22(a1)
    1534:	e8b43823          	sd	a1,-368(s0)
    1538:	f8843583          	ld	a1,-120(s0)
    153c:	01758e83          	lb	t4,23(a1)
    1540:	edd43823          	sd	t4,-304(s0)
    1544:	f8843583          	ld	a1,-120(s0)
    1548:	01858583          	lb	a1,24(a1)
    154c:	f4b43023          	sd	a1,-192(s0)
    1550:	039505b3          	mul	a1,a0,s9
    1554:	eb943c23          	sd	s9,-328(s0)
    1558:	00001637          	lui	a2,0x1
    155c:	40c40633          	sub	a2,s0,a2
    1560:	79863603          	ld	a2,1944(a2) # 1798 <.LBB66_5+0x35c>
    1564:	00c58633          	add	a2,a1,a2
    1568:	000015b7          	lui	a1,0x1
    156c:	40b405b3          	sub	a1,s0,a1
    1570:	78c5bc23          	sd	a2,1944(a1) # 1798 <.LBB66_5+0x35c>
    1574:	03e505b3          	mul	a1,a0,t5
    1578:	f3e43823          	sd	t5,-208(s0)
    157c:	00001637          	lui	a2,0x1
    1580:	40c40633          	sub	a2,s0,a2
    1584:	78863603          	ld	a2,1928(a2) # 1788 <.LBB66_5+0x34c>
    1588:	00c58633          	add	a2,a1,a2
    158c:	000015b7          	lui	a1,0x1
    1590:	40b405b3          	sub	a1,s0,a1
    1594:	78c5b423          	sd	a2,1928(a1) # 1788 <.LBB66_5+0x34c>
    1598:	02e505b3          	mul	a1,a0,a4
    159c:	00001637          	lui	a2,0x1
    15a0:	40c40633          	sub	a2,s0,a2
    15a4:	78063603          	ld	a2,1920(a2) # 1780 <.LBB66_5+0x344>
    15a8:	00c58633          	add	a2,a1,a2
    15ac:	000015b7          	lui	a1,0x1
    15b0:	40b405b3          	sub	a1,s0,a1
    15b4:	78c5b023          	sd	a2,1920(a1) # 1780 <.LBB66_5+0x344>
    15b8:	02f505b3          	mul	a1,a0,a5
    15bc:	01758bb3          	add	s7,a1,s7
    15c0:	000015b7          	lui	a1,0x1
    15c4:	40b405b3          	sub	a1,s0,a1
    15c8:	6975bc23          	sd	s7,1688(a1) # 1698 <.LBB66_5+0x25c>
    15cc:	030505b3          	mul	a1,a0,a6
    15d0:	00001637          	lui	a2,0x1
    15d4:	40c40633          	sub	a2,s0,a2
    15d8:	77863603          	ld	a2,1912(a2) # 1778 <.LBB66_5+0x33c>
    15dc:	00c58633          	add	a2,a1,a2
    15e0:	000015b7          	lui	a1,0x1
    15e4:	40b405b3          	sub	a1,s0,a1
    15e8:	76c5bc23          	sd	a2,1912(a1) # 1778 <.LBB66_5+0x33c>
    15ec:	035505b3          	mul	a1,a0,s5
    15f0:	00001637          	lui	a2,0x1
    15f4:	40c40633          	sub	a2,s0,a2
    15f8:	77063603          	ld	a2,1904(a2) # 1770 <.LBB66_5+0x334>
    15fc:	00c58633          	add	a2,a1,a2
    1600:	000015b7          	lui	a1,0x1
    1604:	40b405b3          	sub	a1,s0,a1
    1608:	76c5b823          	sd	a2,1904(a1) # 1770 <.LBB66_5+0x334>
    160c:	03b505b3          	mul	a1,a0,s11
    1610:	00001637          	lui	a2,0x1
    1614:	40c40633          	sub	a2,s0,a2
    1618:	76863603          	ld	a2,1896(a2) # 1768 <.LBB66_5+0x32c>
    161c:	00c58633          	add	a2,a1,a2
    1620:	000015b7          	lui	a1,0x1
    1624:	40b405b3          	sub	a1,s0,a1
    1628:	76c5b423          	sd	a2,1896(a1) # 1768 <.LBB66_5+0x32c>
    162c:	021505b3          	mul	a1,a0,ra
    1630:	00001637          	lui	a2,0x1
    1634:	40c40633          	sub	a2,s0,a2
    1638:	76063603          	ld	a2,1888(a2) # 1760 <.LBB66_5+0x324>
    163c:	00c58633          	add	a2,a1,a2
    1640:	000015b7          	lui	a1,0x1
    1644:	40b405b3          	sub	a1,s0,a1
    1648:	76c5b023          	sd	a2,1888(a1) # 1760 <.LBB66_5+0x324>
    164c:	031505b3          	mul	a1,a0,a7
    1650:	00001637          	lui	a2,0x1
    1654:	40c40633          	sub	a2,s0,a2
    1658:	75863603          	ld	a2,1880(a2) # 1758 <.LBB66_5+0x31c>
    165c:	00c58633          	add	a2,a1,a2
    1660:	000015b7          	lui	a1,0x1
    1664:	40b405b3          	sub	a1,s0,a1
    1668:	74c5bc23          	sd	a2,1880(a1) # 1758 <.LBB66_5+0x31c>
    166c:	e7a43c23          	sd	s10,-392(s0)
    1670:	03a505b3          	mul	a1,a0,s10
    1674:	00001637          	lui	a2,0x1
    1678:	40c40633          	sub	a2,s0,a2
    167c:	75063603          	ld	a2,1872(a2) # 1750 <.LBB66_5+0x314>
    1680:	00c58633          	add	a2,a1,a2
    1684:	000015b7          	lui	a1,0x1
    1688:	40b405b3          	sub	a1,s0,a1
    168c:	74c5b823          	sd	a2,1872(a1) # 1750 <.LBB66_5+0x314>
    1690:	032505b3          	mul	a1,a0,s2
    1694:	00001637          	lui	a2,0x1
    1698:	40c40633          	sub	a2,s0,a2
    169c:	74863603          	ld	a2,1864(a2) # 1748 <.LBB66_5+0x30c>
    16a0:	00c58633          	add	a2,a1,a2
    16a4:	000015b7          	lui	a1,0x1
    16a8:	40b405b3          	sub	a1,s0,a1
    16ac:	74c5b423          	sd	a2,1864(a1) # 1748 <.LBB66_5+0x30c>
    16b0:	00048713          	mv	a4,s1
    16b4:	000015b7          	lui	a1,0x1
    16b8:	40b405b3          	sub	a1,s0,a1
    16bc:	6895b023          	sd	s1,1664(a1) # 1680 <.LBB66_5+0x244>
    16c0:	029505b3          	mul	a1,a0,s1
    16c4:	00001637          	lui	a2,0x1
    16c8:	40c40633          	sub	a2,s0,a2
    16cc:	74063603          	ld	a2,1856(a2) # 1740 <.LBB66_5+0x304>
    16d0:	00c58633          	add	a2,a1,a2
    16d4:	000015b7          	lui	a1,0x1
    16d8:	40b405b3          	sub	a1,s0,a1
    16dc:	74c5b023          	sd	a2,1856(a1) # 1740 <.LBB66_5+0x304>
    16e0:	e9f43023          	sd	t6,-384(s0)
    16e4:	03f505b3          	mul	a1,a0,t6
    16e8:	00001637          	lui	a2,0x1
    16ec:	40c40633          	sub	a2,s0,a2
    16f0:	73863603          	ld	a2,1848(a2) # 1738 <.LBB66_5+0x2fc>
    16f4:	00c58633          	add	a2,a1,a2
    16f8:	000015b7          	lui	a1,0x1
    16fc:	40b405b3          	sub	a1,s0,a1
    1700:	72c5bc23          	sd	a2,1848(a1) # 1738 <.LBB66_5+0x2fc>
    1704:	f5843823          	sd	s8,-176(s0)
    1708:	038505b3          	mul	a1,a0,s8
    170c:	00001637          	lui	a2,0x1
    1710:	40c40633          	sub	a2,s0,a2
    1714:	73063603          	ld	a2,1840(a2) # 1730 <.LBB66_5+0x2f4>
    1718:	00c58633          	add	a2,a1,a2
    171c:	000015b7          	lui	a1,0x1
    1720:	40b405b3          	sub	a1,s0,a1
    1724:	72c5b823          	sd	a2,1840(a1) # 1730 <.LBB66_5+0x2f4>
    1728:	00028793          	mv	a5,t0
    172c:	ea543423          	sd	t0,-344(s0)
    1730:	025505b3          	mul	a1,a0,t0
    1734:	00001637          	lui	a2,0x1
    1738:	40c40633          	sub	a2,s0,a2
    173c:	72863603          	ld	a2,1832(a2) # 1728 <.LBB66_5+0x2ec>
    1740:	00c58633          	add	a2,a1,a2
    1744:	000015b7          	lui	a1,0x1
    1748:	40b405b3          	sub	a1,s0,a1
    174c:	72c5b423          	sd	a2,1832(a1) # 1728 <.LBB66_5+0x2ec>
    1750:	f5c43423          	sd	t3,-184(s0)
    1754:	03c505b3          	mul	a1,a0,t3
    1758:	00001637          	lui	a2,0x1
    175c:	40c40633          	sub	a2,s0,a2
    1760:	72063603          	ld	a2,1824(a2) # 1720 <.LBB66_5+0x2e4>
    1764:	00c58633          	add	a2,a1,a2
    1768:	000015b7          	lui	a1,0x1
    176c:	40b405b3          	sub	a1,s0,a1
    1770:	72c5b023          	sd	a2,1824(a1) # 1720 <.LBB66_5+0x2e4>
    1774:	ee643823          	sd	t1,-272(s0)
    1778:	026505b3          	mul	a1,a0,t1
    177c:	00001637          	lui	a2,0x1
    1780:	40c40633          	sub	a2,s0,a2
    1784:	71863603          	ld	a2,1816(a2) # 1718 <.LBB66_5+0x2dc>
    1788:	00c58633          	add	a2,a1,a2
    178c:	000015b7          	lui	a1,0x1
    1790:	40b405b3          	sub	a1,s0,a1
    1794:	70c5bc23          	sd	a2,1816(a1) # 1718 <.LBB66_5+0x2dc>
    1798:	00038893          	mv	a7,t2
    179c:	027505b3          	mul	a1,a0,t2
    17a0:	00001637          	lui	a2,0x1
    17a4:	40c40633          	sub	a2,s0,a2
    17a8:	71063603          	ld	a2,1808(a2) # 1710 <.LBB66_5+0x2d4>
    17ac:	00c58633          	add	a2,a1,a2
    17b0:	000015b7          	lui	a1,0x1
    17b4:	40b405b3          	sub	a1,s0,a1
    17b8:	70c5b823          	sd	a2,1808(a1) # 1710 <.LBB66_5+0x2d4>
    17bc:	000a0293          	mv	t0,s4
    17c0:	034505b3          	mul	a1,a0,s4
    17c4:	00001637          	lui	a2,0x1
    17c8:	40c40633          	sub	a2,s0,a2
    17cc:	70863603          	ld	a2,1800(a2) # 1708 <.LBB66_5+0x2cc>
    17d0:	00c58633          	add	a2,a1,a2
    17d4:	000015b7          	lui	a1,0x1
    17d8:	40b405b3          	sub	a1,s0,a1
    17dc:	70c5b423          	sd	a2,1800(a1) # 1708 <.LBB66_5+0x2cc>
    17e0:	00098393          	mv	t2,s3
    17e4:	033505b3          	mul	a1,a0,s3
    17e8:	00001637          	lui	a2,0x1
    17ec:	40c40633          	sub	a2,s0,a2
    17f0:	70063603          	ld	a2,1792(a2) # 1700 <.LBB66_5+0x2c4>
    17f4:	00c58633          	add	a2,a1,a2
    17f8:	000015b7          	lui	a1,0x1
    17fc:	40b405b3          	sub	a1,s0,a1
    1800:	70c5b023          	sd	a2,1792(a1) # 1700 <.LBB66_5+0x2c4>
    1804:	000b0993          	mv	s3,s6
    1808:	036505b3          	mul	a1,a0,s6
    180c:	00001637          	lui	a2,0x1
    1810:	40c40633          	sub	a2,s0,a2
    1814:	6f863603          	ld	a2,1784(a2) # 16f8 <.LBB66_5+0x2bc>
    1818:	00c58633          	add	a2,a1,a2
    181c:	000015b7          	lui	a1,0x1
    1820:	40b405b3          	sub	a1,s0,a1
    1824:	6ec5bc23          	sd	a2,1784(a1) # 16f8 <.LBB66_5+0x2bc>
    1828:	eb043a03          	ld	s4,-336(s0)
    182c:	034505b3          	mul	a1,a0,s4
    1830:	00001637          	lui	a2,0x1
    1834:	40c40633          	sub	a2,s0,a2
    1838:	6f063603          	ld	a2,1776(a2) # 16f0 <.LBB66_5+0x2b4>
    183c:	00c58633          	add	a2,a1,a2
    1840:	000015b7          	lui	a1,0x1
    1844:	40b405b3          	sub	a1,s0,a1
    1848:	6ec5b823          	sd	a2,1776(a1) # 16f0 <.LBB66_5+0x2b4>
    184c:	e9043b03          	ld	s6,-368(s0)
    1850:	036505b3          	mul	a1,a0,s6
    1854:	00001637          	lui	a2,0x1
    1858:	40c40633          	sub	a2,s0,a2
    185c:	6e863603          	ld	a2,1768(a2) # 16e8 <.LBB66_5+0x2ac>
    1860:	00c58633          	add	a2,a1,a2
    1864:	000015b7          	lui	a1,0x1
    1868:	40b405b3          	sub	a1,s0,a1
    186c:	6ec5b423          	sd	a2,1768(a1) # 16e8 <.LBB66_5+0x2ac>
    1870:	03d505b3          	mul	a1,a0,t4
    1874:	00001637          	lui	a2,0x1
    1878:	40c40633          	sub	a2,s0,a2
    187c:	6a863603          	ld	a2,1704(a2) # 16a8 <.LBB66_5+0x26c>
    1880:	00c58633          	add	a2,a1,a2
    1884:	000015b7          	lui	a1,0x1
    1888:	40b405b3          	sub	a1,s0,a1
    188c:	6ac5b423          	sd	a2,1704(a1) # 16a8 <.LBB66_5+0x26c>
    1890:	f8843583          	ld	a1,-120(s0)
    1894:	01958683          	lb	a3,25(a1)
    1898:	ecd43423          	sd	a3,-312(s0)
    189c:	f4043483          	ld	s1,-192(s0)
    18a0:	029505b3          	mul	a1,a0,s1
    18a4:	00001637          	lui	a2,0x1
    18a8:	40c40633          	sub	a2,s0,a2
    18ac:	6e063603          	ld	a2,1760(a2) # 16e0 <.LBB66_5+0x2a4>
    18b0:	00c58633          	add	a2,a1,a2
    18b4:	000015b7          	lui	a1,0x1
    18b8:	40b405b3          	sub	a1,s0,a1
    18bc:	6ec5b023          	sd	a2,1760(a1) # 16e0 <.LBB66_5+0x2a4>
    18c0:	f8843583          	ld	a1,-120(s0)
    18c4:	01a58803          	lb	a6,26(a1)
    18c8:	02d505b3          	mul	a1,a0,a3
    18cc:	00001637          	lui	a2,0x1
    18d0:	40c40633          	sub	a2,s0,a2
    18d4:	6d863603          	ld	a2,1752(a2) # 16d8 <.LBB66_5+0x29c>
    18d8:	00c58633          	add	a2,a1,a2
    18dc:	000015b7          	lui	a1,0x1
    18e0:	40b405b3          	sub	a1,s0,a1
    18e4:	6cc5bc23          	sd	a2,1752(a1) # 16d8 <.LBB66_5+0x29c>
    18e8:	f8843583          	ld	a1,-120(s0)
    18ec:	01b58683          	lb	a3,27(a1)
    18f0:	030505b3          	mul	a1,a0,a6
    18f4:	00001637          	lui	a2,0x1
    18f8:	40c40633          	sub	a2,s0,a2
    18fc:	6d063603          	ld	a2,1744(a2) # 16d0 <.LBB66_5+0x294>
    1900:	00c58633          	add	a2,a1,a2
    1904:	000015b7          	lui	a1,0x1
    1908:	40b405b3          	sub	a1,s0,a1
    190c:	6cc5b823          	sd	a2,1744(a1) # 16d0 <.LBB66_5+0x294>
    1910:	f8843583          	ld	a1,-120(s0)
    1914:	01c58e83          	lb	t4,28(a1)
    1918:	edd43c23          	sd	t4,-296(s0)
    191c:	02d505b3          	mul	a1,a0,a3
    1920:	00001637          	lui	a2,0x1
    1924:	40c40633          	sub	a2,s0,a2
    1928:	6c863603          	ld	a2,1736(a2) # 16c8 <.LBB66_5+0x28c>
    192c:	00c58633          	add	a2,a1,a2
    1930:	000015b7          	lui	a1,0x1
    1934:	40b405b3          	sub	a1,s0,a1
    1938:	6cc5b423          	sd	a2,1736(a1) # 16c8 <.LBB66_5+0x28c>
    193c:	f8843583          	ld	a1,-120(s0)
    1940:	01d58a83          	lb	s5,29(a1)
    1944:	ed543023          	sd	s5,-320(s0)
    1948:	03d505b3          	mul	a1,a0,t4
    194c:	00001637          	lui	a2,0x1
    1950:	40c40633          	sub	a2,s0,a2
    1954:	6c063603          	ld	a2,1728(a2) # 16c0 <.LBB66_5+0x284>
    1958:	00c58633          	add	a2,a1,a2
    195c:	000015b7          	lui	a1,0x1
    1960:	40b405b3          	sub	a1,s0,a1
    1964:	6cc5b023          	sd	a2,1728(a1) # 16c0 <.LBB66_5+0x284>
    1968:	f8843583          	ld	a1,-120(s0)
    196c:	01e58b83          	lb	s7,30(a1)
    1970:	035505b3          	mul	a1,a0,s5
    1974:	00001637          	lui	a2,0x1
    1978:	40c40633          	sub	a2,s0,a2
    197c:	6b863603          	ld	a2,1720(a2) # 16b8 <.LBB66_5+0x27c>
    1980:	00c58633          	add	a2,a1,a2
    1984:	000015b7          	lui	a1,0x1
    1988:	40b405b3          	sub	a1,s0,a1
    198c:	6ac5bc23          	sd	a2,1720(a1) # 16b8 <.LBB66_5+0x27c>
    1990:	f8843583          	ld	a1,-120(s0)
    1994:	01f58583          	lb	a1,31(a1)
    1998:	eeb43023          	sd	a1,-288(s0)
    199c:	f8043603          	ld	a2,-128(s0)
    19a0:	b8060a83          	lb	s5,-1152(a2)
    19a4:	03750db3          	mul	s11,a0,s7
    19a8:	00001637          	lui	a2,0x1
    19ac:	40c40633          	sub	a2,s0,a2
    19b0:	6a063603          	ld	a2,1696(a2) # 16a0 <.LBB66_5+0x264>
    19b4:	00cd8633          	add	a2,s11,a2
    19b8:	00001eb7          	lui	t4,0x1
    19bc:	41d40eb3          	sub	t4,s0,t4
    19c0:	6aceb023          	sd	a2,1696(t4) # 16a0 <.LBB66_5+0x264>
    19c4:	02b50533          	mul	a0,a0,a1
    19c8:	000015b7          	lui	a1,0x1
    19cc:	40b405b3          	sub	a1,s0,a1
    19d0:	6b05b603          	ld	a2,1712(a1) # 16b0 <.LBB66_5+0x274>
    19d4:	00c50633          	add	a2,a0,a2
    19d8:	00001537          	lui	a0,0x1
    19dc:	40a40533          	sub	a0,s0,a0
    19e0:	6ac53823          	sd	a2,1712(a0) # 16b0 <.LBB66_5+0x274>
    19e4:	f3843583          	ld	a1,-200(s0)
    19e8:	02ba8533          	mul	a0,s5,a1
    19ec:	00001637          	lui	a2,0x1
    19f0:	40c40633          	sub	a2,s0,a2
    19f4:	79063603          	ld	a2,1936(a2) # 1790 <.LBB66_5+0x354>
    19f8:	00c50633          	add	a2,a0,a2
    19fc:	00001537          	lui	a0,0x1
    1a00:	40a40533          	sub	a0,s0,a0
    1a04:	78c53823          	sd	a2,1936(a0) # 1790 <.LBB66_5+0x354>
    1a08:	03ea8533          	mul	a0,s5,t5
    1a0c:	00001637          	lui	a2,0x1
    1a10:	40c40633          	sub	a2,s0,a2
    1a14:	7a063603          	ld	a2,1952(a2) # 17a0 <.LBB66_5+0x364>
    1a18:	00c50633          	add	a2,a0,a2
    1a1c:	00001537          	lui	a0,0x1
    1a20:	40a40533          	sub	a0,s0,a0
    1a24:	7ac53023          	sd	a2,1952(a0) # 17a0 <.LBB66_5+0x364>
    1a28:	039a8533          	mul	a0,s5,s9
    1a2c:	00001637          	lui	a2,0x1
    1a30:	40c40633          	sub	a2,s0,a2
    1a34:	7a863603          	ld	a2,1960(a2) # 17a8 <.LBB66_5+0x36c>
    1a38:	00c50633          	add	a2,a0,a2
    1a3c:	00001537          	lui	a0,0x1
    1a40:	40a40533          	sub	a0,s0,a0
    1a44:	7ac53423          	sd	a2,1960(a0) # 17a8 <.LBB66_5+0x36c>
    1a48:	f7043503          	ld	a0,-144(s0)
    1a4c:	02aa8533          	mul	a0,s5,a0
    1a50:	00001637          	lui	a2,0x1
    1a54:	40c40633          	sub	a2,s0,a2
    1a58:	7b063603          	ld	a2,1968(a2) # 17b0 <.LBB66_5+0x374>
    1a5c:	00c50633          	add	a2,a0,a2
    1a60:	00001537          	lui	a0,0x1
    1a64:	40a40533          	sub	a0,s0,a0
    1a68:	7ac53823          	sd	a2,1968(a0) # 17b0 <.LBB66_5+0x374>
    1a6c:	f2843e83          	ld	t4,-216(s0)
    1a70:	03da8533          	mul	a0,s5,t4
    1a74:	00001637          	lui	a2,0x1
    1a78:	40c40633          	sub	a2,s0,a2
    1a7c:	7b863603          	ld	a2,1976(a2) # 17b8 <.LBB66_5+0x37c>
    1a80:	00c50633          	add	a2,a0,a2
    1a84:	00001537          	lui	a0,0x1
    1a88:	40a40533          	sub	a0,s0,a0
    1a8c:	7ac53c23          	sd	a2,1976(a0) # 17b8 <.LBB66_5+0x37c>
    1a90:	f2043f03          	ld	t5,-224(s0)
    1a94:	03ea8533          	mul	a0,s5,t5
    1a98:	00001637          	lui	a2,0x1
    1a9c:	40c40633          	sub	a2,s0,a2
    1aa0:	7c063603          	ld	a2,1984(a2) # 17c0 <.LBB66_5+0x384>
    1aa4:	00c50633          	add	a2,a0,a2
    1aa8:	00001537          	lui	a0,0x1
    1aac:	40a40533          	sub	a0,s0,a0
    1ab0:	7cc53023          	sd	a2,1984(a0) # 17c0 <.LBB66_5+0x384>
    1ab4:	f6843503          	ld	a0,-152(s0)
    1ab8:	02aa8533          	mul	a0,s5,a0
    1abc:	00001637          	lui	a2,0x1
    1ac0:	40c40633          	sub	a2,s0,a2
    1ac4:	7c863603          	ld	a2,1992(a2) # 17c8 <.LBB66_5+0x38c>
    1ac8:	00c50633          	add	a2,a0,a2
    1acc:	00001537          	lui	a0,0x1
    1ad0:	40a40533          	sub	a0,s0,a0
    1ad4:	7cc53423          	sd	a2,1992(a0) # 17c8 <.LBB66_5+0x38c>
    1ad8:	f6043503          	ld	a0,-160(s0)
    1adc:	02aa8533          	mul	a0,s5,a0
    1ae0:	00001637          	lui	a2,0x1
    1ae4:	40c40633          	sub	a2,s0,a2
    1ae8:	7d063603          	ld	a2,2000(a2) # 17d0 <.LBB66_5+0x394>
    1aec:	00c50633          	add	a2,a0,a2
    1af0:	00001537          	lui	a0,0x1
    1af4:	40a40533          	sub	a0,s0,a0
    1af8:	7cc53823          	sd	a2,2000(a0) # 17d0 <.LBB66_5+0x394>
    1afc:	f5843503          	ld	a0,-168(s0)
    1b00:	02aa8533          	mul	a0,s5,a0
    1b04:	00001637          	lui	a2,0x1
    1b08:	40c40633          	sub	a2,s0,a2
    1b0c:	7d863603          	ld	a2,2008(a2) # 17d8 <.LBB66_5+0x39c>
    1b10:	00c50633          	add	a2,a0,a2
    1b14:	00001537          	lui	a0,0x1
    1b18:	40a40533          	sub	a0,s0,a0
    1b1c:	7cc53c23          	sd	a2,2008(a0) # 17d8 <.LBB66_5+0x39c>
    1b20:	03aa8533          	mul	a0,s5,s10
    1b24:	00001637          	lui	a2,0x1
    1b28:	40c40633          	sub	a2,s0,a2
    1b2c:	7e063603          	ld	a2,2016(a2) # 17e0 <.LBB66_5+0x3a4>
    1b30:	00c50633          	add	a2,a0,a2
    1b34:	00001537          	lui	a0,0x1
    1b38:	40a40533          	sub	a0,s0,a0
    1b3c:	7ec53023          	sd	a2,2016(a0) # 17e0 <.LBB66_5+0x3a4>
    1b40:	032a8533          	mul	a0,s5,s2
    1b44:	00001637          	lui	a2,0x1
    1b48:	40c40633          	sub	a2,s0,a2
    1b4c:	7e863603          	ld	a2,2024(a2) # 17e8 <.LBB66_5+0x3ac>
    1b50:	00c50633          	add	a2,a0,a2
    1b54:	00001537          	lui	a0,0x1
    1b58:	40a40533          	sub	a0,s0,a0
    1b5c:	7ec53423          	sd	a2,2024(a0) # 17e8 <.LBB66_5+0x3ac>
    1b60:	02ea8533          	mul	a0,s5,a4
    1b64:	00001637          	lui	a2,0x1
    1b68:	40c40633          	sub	a2,s0,a2
    1b6c:	7f063603          	ld	a2,2032(a2) # 17f0 <.LBB66_5+0x3b4>
    1b70:	00c50633          	add	a2,a0,a2
    1b74:	00001537          	lui	a0,0x1
    1b78:	40a40533          	sub	a0,s0,a0
    1b7c:	7ec53823          	sd	a2,2032(a0) # 17f0 <.LBB66_5+0x3b4>
    1b80:	03fa8533          	mul	a0,s5,t6
    1b84:	00001637          	lui	a2,0x1
    1b88:	40c40633          	sub	a2,s0,a2
    1b8c:	7f863603          	ld	a2,2040(a2) # 17f8 <.LBB66_5+0x3bc>
    1b90:	00c50633          	add	a2,a0,a2
    1b94:	00001537          	lui	a0,0x1
    1b98:	40a40533          	sub	a0,s0,a0
    1b9c:	7ec53c23          	sd	a2,2040(a0) # 17f8 <.LBB66_5+0x3bc>
    1ba0:	038a8533          	mul	a0,s5,s8
    1ba4:	80043603          	ld	a2,-2048(s0)
    1ba8:	00c50633          	add	a2,a0,a2
    1bac:	80c43023          	sd	a2,-2048(s0)
    1bb0:	02fa8533          	mul	a0,s5,a5
    1bb4:	80843603          	ld	a2,-2040(s0)
    1bb8:	00c50633          	add	a2,a0,a2
    1bbc:	80c43423          	sd	a2,-2040(s0)
    1bc0:	03ca8533          	mul	a0,s5,t3
    1bc4:	81043603          	ld	a2,-2032(s0)
    1bc8:	00c50633          	add	a2,a0,a2
    1bcc:	80c43823          	sd	a2,-2032(s0)
    1bd0:	026a8533          	mul	a0,s5,t1
    1bd4:	81843603          	ld	a2,-2024(s0)
    1bd8:	00c50633          	add	a2,a0,a2
    1bdc:	80c43c23          	sd	a2,-2024(s0)
    1be0:	031a8533          	mul	a0,s5,a7
    1be4:	00088313          	mv	t1,a7
    1be8:	e7143823          	sd	a7,-400(s0)
    1bec:	82043603          	ld	a2,-2016(s0)
    1bf0:	00c50633          	add	a2,a0,a2
    1bf4:	82c43023          	sd	a2,-2016(s0)
    1bf8:	025a8533          	mul	a0,s5,t0
    1bfc:	00028e13          	mv	t3,t0
    1c00:	00001637          	lui	a2,0x1
    1c04:	40c40633          	sub	a2,s0,a2
    1c08:	68563423          	sd	t0,1672(a2) # 1688 <.LBB66_5+0x24c>
    1c0c:	82843603          	ld	a2,-2008(s0)
    1c10:	00c50633          	add	a2,a0,a2
    1c14:	82c43423          	sd	a2,-2008(s0)
    1c18:	027a8533          	mul	a0,s5,t2
    1c1c:	e8743c23          	sd	t2,-360(s0)
    1c20:	83043603          	ld	a2,-2000(s0)
    1c24:	00c50633          	add	a2,a0,a2
    1c28:	82c43823          	sd	a2,-2000(s0)
    1c2c:	033a8533          	mul	a0,s5,s3
    1c30:	00098d13          	mv	s10,s3
    1c34:	e9343423          	sd	s3,-376(s0)
    1c38:	83843603          	ld	a2,-1992(s0)
    1c3c:	00c50633          	add	a2,a0,a2
    1c40:	82c43c23          	sd	a2,-1992(s0)
    1c44:	034a8533          	mul	a0,s5,s4
    1c48:	84043603          	ld	a2,-1984(s0)
    1c4c:	00c50633          	add	a2,a0,a2
    1c50:	84c43023          	sd	a2,-1984(s0)
    1c54:	036a8533          	mul	a0,s5,s6
    1c58:	84843603          	ld	a2,-1976(s0)
    1c5c:	00c50633          	add	a2,a0,a2
    1c60:	84c43423          	sd	a2,-1976(s0)
    1c64:	ed043c83          	ld	s9,-304(s0)
    1c68:	039a8533          	mul	a0,s5,s9
    1c6c:	85043603          	ld	a2,-1968(s0)
    1c70:	00c50633          	add	a2,a0,a2
    1c74:	84c43823          	sd	a2,-1968(s0)
    1c78:	029a8533          	mul	a0,s5,s1
    1c7c:	85843603          	ld	a2,-1960(s0)
    1c80:	00c50633          	add	a2,a0,a2
    1c84:	84c43c23          	sd	a2,-1960(s0)
    1c88:	ec843703          	ld	a4,-312(s0)
    1c8c:	02ea8533          	mul	a0,s5,a4
    1c90:	86043603          	ld	a2,-1952(s0)
    1c94:	00c50633          	add	a2,a0,a2
    1c98:	86c43023          	sd	a2,-1952(s0)
    1c9c:	eb043023          	sd	a6,-352(s0)
    1ca0:	030a8533          	mul	a0,s5,a6
    1ca4:	86843603          	ld	a2,-1944(s0)
    1ca8:	00c50633          	add	a2,a0,a2
    1cac:	86c43423          	sd	a2,-1944(s0)
    1cb0:	eed43423          	sd	a3,-280(s0)
    1cb4:	02da8533          	mul	a0,s5,a3
    1cb8:	87043603          	ld	a2,-1936(s0)
    1cbc:	00c50633          	add	a2,a0,a2
    1cc0:	86c43823          	sd	a2,-1936(s0)
    1cc4:	ed843503          	ld	a0,-296(s0)
    1cc8:	02aa8533          	mul	a0,s5,a0
    1ccc:	87843603          	ld	a2,-1928(s0)
    1cd0:	00c50633          	add	a2,a0,a2
    1cd4:	86c43c23          	sd	a2,-1928(s0)
    1cd8:	ec043083          	ld	ra,-320(s0)
    1cdc:	021a8533          	mul	a0,s5,ra
    1ce0:	88043603          	ld	a2,-1920(s0)
    1ce4:	00c50633          	add	a2,a0,a2
    1ce8:	88c43023          	sd	a2,-1920(s0)
    1cec:	f8043503          	ld	a0,-128(s0)
    1cf0:	d0050503          	lb	a0,-768(a0)
    1cf4:	037a8db3          	mul	s11,s5,s7
    1cf8:	00001637          	lui	a2,0x1
    1cfc:	40c40633          	sub	a2,s0,a2
    1d00:	67763c23          	sd	s7,1656(a2) # 1678 <.LBB66_5+0x23c>
    1d04:	88843603          	ld	a2,-1912(s0)
    1d08:	00cd8633          	add	a2,s11,a2
    1d0c:	88c43423          	sd	a2,-1912(s0)
    1d10:	ee043c03          	ld	s8,-288(s0)
    1d14:	038a8ab3          	mul	s5,s5,s8
    1d18:	89043603          	ld	a2,-1904(s0)
    1d1c:	00ca8633          	add	a2,s5,a2
    1d20:	88c43823          	sd	a2,-1904(s0)
    1d24:	02b50ab3          	mul	s5,a0,a1
    1d28:	89843603          	ld	a2,-1896(s0)
    1d2c:	00ca8633          	add	a2,s5,a2
    1d30:	88c43c23          	sd	a2,-1896(s0)
    1d34:	f3043983          	ld	s3,-208(s0)
    1d38:	03350ab3          	mul	s5,a0,s3
    1d3c:	8a043603          	ld	a2,-1888(s0)
    1d40:	00ca8633          	add	a2,s5,a2
    1d44:	8ac43023          	sd	a2,-1888(s0)
    1d48:	eb843f83          	ld	t6,-328(s0)
    1d4c:	03f50ab3          	mul	s5,a0,t6
    1d50:	8a843603          	ld	a2,-1880(s0)
    1d54:	00ca8633          	add	a2,s5,a2
    1d58:	8ac43423          	sd	a2,-1880(s0)
    1d5c:	f7043783          	ld	a5,-144(s0)
    1d60:	02f50ab3          	mul	s5,a0,a5
    1d64:	8b043603          	ld	a2,-1872(s0)
    1d68:	00ca8633          	add	a2,s5,a2
    1d6c:	8ac43823          	sd	a2,-1872(s0)
    1d70:	03d50ab3          	mul	s5,a0,t4
    1d74:	8b843603          	ld	a2,-1864(s0)
    1d78:	00ca8633          	add	a2,s5,a2
    1d7c:	8ac43c23          	sd	a2,-1864(s0)
    1d80:	03e50ab3          	mul	s5,a0,t5
    1d84:	8c043603          	ld	a2,-1856(s0)
    1d88:	00ca8633          	add	a2,s5,a2
    1d8c:	8cc43023          	sd	a2,-1856(s0)
    1d90:	f6843583          	ld	a1,-152(s0)
    1d94:	02b50ab3          	mul	s5,a0,a1
    1d98:	8c843603          	ld	a2,-1848(s0)
    1d9c:	00ca8633          	add	a2,s5,a2
    1da0:	8cc43423          	sd	a2,-1848(s0)
    1da4:	f6043883          	ld	a7,-160(s0)
    1da8:	03150ab3          	mul	s5,a0,a7
    1dac:	8d043603          	ld	a2,-1840(s0)
    1db0:	00ca8633          	add	a2,s5,a2
    1db4:	8cc43823          	sd	a2,-1840(s0)
    1db8:	f5843283          	ld	t0,-168(s0)
    1dbc:	02550ab3          	mul	s5,a0,t0
    1dc0:	8d843603          	ld	a2,-1832(s0)
    1dc4:	00ca8633          	add	a2,s5,a2
    1dc8:	8cc43c23          	sd	a2,-1832(s0)
    1dcc:	e7843e83          	ld	t4,-392(s0)
    1dd0:	03d50ab3          	mul	s5,a0,t4
    1dd4:	8e043603          	ld	a2,-1824(s0)
    1dd8:	00ca8633          	add	a2,s5,a2
    1ddc:	8ec43023          	sd	a2,-1824(s0)
    1de0:	03250ab3          	mul	s5,a0,s2
    1de4:	8e843603          	ld	a2,-1816(s0)
    1de8:	00ca8633          	add	a2,s5,a2
    1dec:	8ec43423          	sd	a2,-1816(s0)
    1df0:	00001637          	lui	a2,0x1
    1df4:	40c40633          	sub	a2,s0,a2
    1df8:	68063483          	ld	s1,1664(a2) # 1680 <.LBB66_5+0x244>
    1dfc:	02950ab3          	mul	s5,a0,s1
    1e00:	8f043603          	ld	a2,-1808(s0)
    1e04:	00ca8633          	add	a2,s5,a2
    1e08:	8ec43823          	sd	a2,-1808(s0)
    1e0c:	e8043f03          	ld	t5,-384(s0)
    1e10:	03e50ab3          	mul	s5,a0,t5
    1e14:	8f843603          	ld	a2,-1800(s0)
    1e18:	00ca8633          	add	a2,s5,a2
    1e1c:	8ec43c23          	sd	a2,-1800(s0)
    1e20:	f5043603          	ld	a2,-176(s0)
    1e24:	02c50ab3          	mul	s5,a0,a2
    1e28:	90043603          	ld	a2,-1792(s0)
    1e2c:	00ca8633          	add	a2,s5,a2
    1e30:	90c43023          	sd	a2,-1792(s0)
    1e34:	ea843603          	ld	a2,-344(s0)
    1e38:	02c50ab3          	mul	s5,a0,a2
    1e3c:	90843603          	ld	a2,-1784(s0)
    1e40:	00ca8633          	add	a2,s5,a2
    1e44:	90c43423          	sd	a2,-1784(s0)
    1e48:	f4843603          	ld	a2,-184(s0)
    1e4c:	02c50ab3          	mul	s5,a0,a2
    1e50:	91043603          	ld	a2,-1776(s0)
    1e54:	00ca8633          	add	a2,s5,a2
    1e58:	90c43823          	sd	a2,-1776(s0)
    1e5c:	ef043603          	ld	a2,-272(s0)
    1e60:	02c50ab3          	mul	s5,a0,a2
    1e64:	91843603          	ld	a2,-1768(s0)
    1e68:	00ca8633          	add	a2,s5,a2
    1e6c:	90c43c23          	sd	a2,-1768(s0)
    1e70:	02650ab3          	mul	s5,a0,t1
    1e74:	92043603          	ld	a2,-1760(s0)
    1e78:	00ca8633          	add	a2,s5,a2
    1e7c:	92c43023          	sd	a2,-1760(s0)
    1e80:	03c50ab3          	mul	s5,a0,t3
    1e84:	92843603          	ld	a2,-1752(s0)
    1e88:	00ca8633          	add	a2,s5,a2
    1e8c:	92c43423          	sd	a2,-1752(s0)
    1e90:	02750ab3          	mul	s5,a0,t2
    1e94:	93043603          	ld	a2,-1744(s0)
    1e98:	00ca8633          	add	a2,s5,a2
    1e9c:	92c43823          	sd	a2,-1744(s0)
    1ea0:	03a50ab3          	mul	s5,a0,s10
    1ea4:	93843603          	ld	a2,-1736(s0)
    1ea8:	00ca8633          	add	a2,s5,a2
    1eac:	92c43c23          	sd	a2,-1736(s0)
    1eb0:	03450ab3          	mul	s5,a0,s4
    1eb4:	94043603          	ld	a2,-1728(s0)
    1eb8:	00ca8633          	add	a2,s5,a2
    1ebc:	94c43023          	sd	a2,-1728(s0)
    1ec0:	03650ab3          	mul	s5,a0,s6
    1ec4:	000b0313          	mv	t1,s6
    1ec8:	94843603          	ld	a2,-1720(s0)
    1ecc:	00ca8633          	add	a2,s5,a2
    1ed0:	94c43423          	sd	a2,-1720(s0)
    1ed4:	03950ab3          	mul	s5,a0,s9
    1ed8:	000c8393          	mv	t2,s9
    1edc:	95043603          	ld	a2,-1712(s0)
    1ee0:	00ca8633          	add	a2,s5,a2
    1ee4:	94c43823          	sd	a2,-1712(s0)
    1ee8:	f4043b03          	ld	s6,-192(s0)
    1eec:	03650ab3          	mul	s5,a0,s6
    1ef0:	95843603          	ld	a2,-1704(s0)
    1ef4:	00ca8633          	add	a2,s5,a2
    1ef8:	94c43c23          	sd	a2,-1704(s0)
    1efc:	02e50ab3          	mul	s5,a0,a4
    1f00:	96043603          	ld	a2,-1696(s0)
    1f04:	00ca8633          	add	a2,s5,a2
    1f08:	96c43023          	sd	a2,-1696(s0)
    1f0c:	03050ab3          	mul	s5,a0,a6
    1f10:	96843603          	ld	a2,-1688(s0)
    1f14:	00ca8633          	add	a2,s5,a2
    1f18:	96c43423          	sd	a2,-1688(s0)
    1f1c:	02d50ab3          	mul	s5,a0,a3
    1f20:	97043603          	ld	a2,-1680(s0)
    1f24:	00ca8633          	add	a2,s5,a2
    1f28:	96c43823          	sd	a2,-1680(s0)
    1f2c:	ed843683          	ld	a3,-296(s0)
    1f30:	02d50ab3          	mul	s5,a0,a3
    1f34:	97843603          	ld	a2,-1672(s0)
    1f38:	00ca8633          	add	a2,s5,a2
    1f3c:	96c43c23          	sd	a2,-1672(s0)
    1f40:	02150ab3          	mul	s5,a0,ra
    1f44:	98043603          	ld	a2,-1664(s0)
    1f48:	00ca8633          	add	a2,s5,a2
    1f4c:	98c43023          	sd	a2,-1664(s0)
    1f50:	f8043603          	ld	a2,-128(s0)
    1f54:	e8060a83          	lb	s5,-384(a2)
    1f58:	03750db3          	mul	s11,a0,s7
    1f5c:	98843603          	ld	a2,-1656(s0)
    1f60:	00cd8633          	add	a2,s11,a2
    1f64:	98c43423          	sd	a2,-1656(s0)
    1f68:	03850533          	mul	a0,a0,s8
    1f6c:	99043603          	ld	a2,-1648(s0)
    1f70:	00c50633          	add	a2,a0,a2
    1f74:	98c43823          	sd	a2,-1648(s0)
    1f78:	f3843503          	ld	a0,-200(s0)
    1f7c:	02aa8533          	mul	a0,s5,a0
    1f80:	99843603          	ld	a2,-1640(s0)
    1f84:	00c50633          	add	a2,a0,a2
    1f88:	98c43c23          	sd	a2,-1640(s0)
    1f8c:	033a8533          	mul	a0,s5,s3
    1f90:	9a043603          	ld	a2,-1632(s0)
    1f94:	00c50633          	add	a2,a0,a2
    1f98:	9ac43023          	sd	a2,-1632(s0)
    1f9c:	000f8c93          	mv	s9,t6
    1fa0:	03fa8533          	mul	a0,s5,t6
    1fa4:	9a843603          	ld	a2,-1624(s0)
    1fa8:	00c50633          	add	a2,a0,a2
    1fac:	9ac43423          	sd	a2,-1624(s0)
    1fb0:	02fa8533          	mul	a0,s5,a5
    1fb4:	9b043603          	ld	a2,-1616(s0)
    1fb8:	00c50633          	add	a2,a0,a2
    1fbc:	9ac43823          	sd	a2,-1616(s0)
    1fc0:	f2843703          	ld	a4,-216(s0)
    1fc4:	02ea8533          	mul	a0,s5,a4
    1fc8:	9b843603          	ld	a2,-1608(s0)
    1fcc:	00c50633          	add	a2,a0,a2
    1fd0:	9ac43c23          	sd	a2,-1608(s0)
    1fd4:	f2043783          	ld	a5,-224(s0)
    1fd8:	02fa8533          	mul	a0,s5,a5
    1fdc:	9c043603          	ld	a2,-1600(s0)
    1fe0:	00c50633          	add	a2,a0,a2
    1fe4:	9cc43023          	sd	a2,-1600(s0)
    1fe8:	02ba8533          	mul	a0,s5,a1
    1fec:	9c843603          	ld	a2,-1592(s0)
    1ff0:	00c50633          	add	a2,a0,a2
    1ff4:	9cc43423          	sd	a2,-1592(s0)
    1ff8:	031a8533          	mul	a0,s5,a7
    1ffc:	9d043603          	ld	a2,-1584(s0)
    2000:	00c50633          	add	a2,a0,a2
    2004:	9cc43823          	sd	a2,-1584(s0)
    2008:	025a8533          	mul	a0,s5,t0
    200c:	9d843603          	ld	a2,-1576(s0)
    2010:	00c50633          	add	a2,a0,a2
    2014:	9cc43c23          	sd	a2,-1576(s0)
    2018:	000e8d13          	mv	s10,t4
    201c:	03da8533          	mul	a0,s5,t4
    2020:	9e043603          	ld	a2,-1568(s0)
    2024:	00c50633          	add	a2,a0,a2
    2028:	9ec43023          	sd	a2,-1568(s0)
    202c:	032a8533          	mul	a0,s5,s2
    2030:	9e843603          	ld	a2,-1560(s0)
    2034:	00c50633          	add	a2,a0,a2
    2038:	9ec43423          	sd	a2,-1560(s0)
    203c:	029a8533          	mul	a0,s5,s1
    2040:	9f043603          	ld	a2,-1552(s0)
    2044:	00c50633          	add	a2,a0,a2
    2048:	9ec43823          	sd	a2,-1552(s0)
    204c:	000f0f93          	mv	t6,t5
    2050:	03ea8533          	mul	a0,s5,t5
    2054:	9f843603          	ld	a2,-1544(s0)
    2058:	00c50633          	add	a2,a0,a2
    205c:	9ec43c23          	sd	a2,-1544(s0)
    2060:	f5043f03          	ld	t5,-176(s0)
    2064:	03ea8533          	mul	a0,s5,t5
    2068:	a0043603          	ld	a2,-1536(s0)
    206c:	00c50633          	add	a2,a0,a2
    2070:	a0c43023          	sd	a2,-1536(s0)
    2074:	ea843e83          	ld	t4,-344(s0)
    2078:	03da8533          	mul	a0,s5,t4
    207c:	a0843603          	ld	a2,-1528(s0)
    2080:	00c50633          	add	a2,a0,a2
    2084:	a0c43423          	sd	a2,-1528(s0)
    2088:	f4843e03          	ld	t3,-184(s0)
    208c:	03ca8533          	mul	a0,s5,t3
    2090:	a1043603          	ld	a2,-1520(s0)
    2094:	00c50633          	add	a2,a0,a2
    2098:	a0c43823          	sd	a2,-1520(s0)
    209c:	ef043083          	ld	ra,-272(s0)
    20a0:	021a8533          	mul	a0,s5,ra
    20a4:	a1843603          	ld	a2,-1512(s0)
    20a8:	00c50633          	add	a2,a0,a2
    20ac:	a0c43c23          	sd	a2,-1512(s0)
    20b0:	e7043883          	ld	a7,-400(s0)
    20b4:	031a8533          	mul	a0,s5,a7
    20b8:	a2043603          	ld	a2,-1504(s0)
    20bc:	00c50633          	add	a2,a0,a2
    20c0:	a2c43023          	sd	a2,-1504(s0)
    20c4:	00001537          	lui	a0,0x1
    20c8:	40a40533          	sub	a0,s0,a0
    20cc:	68853983          	ld	s3,1672(a0) # 1688 <.LBB66_5+0x24c>
    20d0:	033a8533          	mul	a0,s5,s3
    20d4:	a2843603          	ld	a2,-1496(s0)
    20d8:	00c50633          	add	a2,a0,a2
    20dc:	a2c43423          	sd	a2,-1496(s0)
    20e0:	e9843c03          	ld	s8,-360(s0)
    20e4:	038a8533          	mul	a0,s5,s8
    20e8:	a3043603          	ld	a2,-1488(s0)
    20ec:	00c50633          	add	a2,a0,a2
    20f0:	a2c43823          	sd	a2,-1488(s0)
    20f4:	e8843803          	ld	a6,-376(s0)
    20f8:	030a8533          	mul	a0,s5,a6
    20fc:	a3843603          	ld	a2,-1480(s0)
    2100:	00c50633          	add	a2,a0,a2
    2104:	a2c43c23          	sd	a2,-1480(s0)
    2108:	034a8533          	mul	a0,s5,s4
    210c:	a4043603          	ld	a2,-1472(s0)
    2110:	00c50633          	add	a2,a0,a2
    2114:	a4c43023          	sd	a2,-1472(s0)
    2118:	026a8533          	mul	a0,s5,t1
    211c:	00030293          	mv	t0,t1
    2120:	a4843603          	ld	a2,-1464(s0)
    2124:	00c50633          	add	a2,a0,a2
    2128:	a4c43423          	sd	a2,-1464(s0)
    212c:	027a8533          	mul	a0,s5,t2
    2130:	a5043603          	ld	a2,-1456(s0)
    2134:	00c50633          	add	a2,a0,a2
    2138:	a4c43823          	sd	a2,-1456(s0)
    213c:	036a8533          	mul	a0,s5,s6
    2140:	a5843603          	ld	a2,-1448(s0)
    2144:	00c50633          	add	a2,a0,a2
    2148:	a4c43c23          	sd	a2,-1448(s0)
    214c:	ec843303          	ld	t1,-312(s0)
    2150:	026a8533          	mul	a0,s5,t1
    2154:	a6043603          	ld	a2,-1440(s0)
    2158:	00c50633          	add	a2,a0,a2
    215c:	a6c43023          	sd	a2,-1440(s0)
    2160:	ea043503          	ld	a0,-352(s0)
    2164:	02aa8533          	mul	a0,s5,a0
    2168:	a6843603          	ld	a2,-1432(s0)
    216c:	00c50633          	add	a2,a0,a2
    2170:	a6c43423          	sd	a2,-1432(s0)
    2174:	ee843503          	ld	a0,-280(s0)
    2178:	02aa8533          	mul	a0,s5,a0
    217c:	a7043603          	ld	a2,-1424(s0)
    2180:	00c50633          	add	a2,a0,a2
    2184:	a6c43823          	sd	a2,-1424(s0)
    2188:	02da8533          	mul	a0,s5,a3
    218c:	a7843603          	ld	a2,-1416(s0)
    2190:	00c50633          	add	a2,a0,a2
    2194:	a6c43c23          	sd	a2,-1416(s0)
    2198:	ec043b83          	ld	s7,-320(s0)
    219c:	037a8533          	mul	a0,s5,s7
    21a0:	a8043603          	ld	a2,-1408(s0)
    21a4:	00c50633          	add	a2,a0,a2
    21a8:	a8c43023          	sd	a2,-1408(s0)
    21ac:	f8043503          	ld	a0,-128(s0)
    21b0:	00050503          	lb	a0,0(a0)
    21b4:	00001637          	lui	a2,0x1
    21b8:	40c40633          	sub	a2,s0,a2
    21bc:	67863b03          	ld	s6,1656(a2) # 1678 <.LBB66_5+0x23c>
    21c0:	036a8db3          	mul	s11,s5,s6
    21c4:	a8843603          	ld	a2,-1400(s0)
    21c8:	00cd8633          	add	a2,s11,a2
    21cc:	a8c43423          	sd	a2,-1400(s0)
    21d0:	ee043603          	ld	a2,-288(s0)
    21d4:	02ca8ab3          	mul	s5,s5,a2
    21d8:	a9043603          	ld	a2,-1392(s0)
    21dc:	00ca8633          	add	a2,s5,a2
    21e0:	a8c43823          	sd	a2,-1392(s0)
    21e4:	f3843683          	ld	a3,-200(s0)
    21e8:	02d50ab3          	mul	s5,a0,a3
    21ec:	a9843603          	ld	a2,-1384(s0)
    21f0:	00ca8633          	add	a2,s5,a2
    21f4:	a8c43c23          	sd	a2,-1384(s0)
    21f8:	f3043603          	ld	a2,-208(s0)
    21fc:	02c50ab3          	mul	s5,a0,a2
    2200:	aa043603          	ld	a2,-1376(s0)
    2204:	00ca8633          	add	a2,s5,a2
    2208:	aac43023          	sd	a2,-1376(s0)
    220c:	03950ab3          	mul	s5,a0,s9
    2210:	aa843603          	ld	a2,-1368(s0)
    2214:	00ca8633          	add	a2,s5,a2
    2218:	aac43423          	sd	a2,-1368(s0)
    221c:	f7043603          	ld	a2,-144(s0)
    2220:	02c50ab3          	mul	s5,a0,a2
    2224:	ab043603          	ld	a2,-1360(s0)
    2228:	00ca8633          	add	a2,s5,a2
    222c:	aac43823          	sd	a2,-1360(s0)
    2230:	02e50ab3          	mul	s5,a0,a4
    2234:	ab843603          	ld	a2,-1352(s0)
    2238:	00ca8633          	add	a2,s5,a2
    223c:	aac43c23          	sd	a2,-1352(s0)
    2240:	02f50ab3          	mul	s5,a0,a5
    2244:	ac043603          	ld	a2,-1344(s0)
    2248:	00ca8633          	add	a2,s5,a2
    224c:	acc43023          	sd	a2,-1344(s0)
    2250:	00058713          	mv	a4,a1
    2254:	02b50ab3          	mul	s5,a0,a1
    2258:	ac843603          	ld	a2,-1336(s0)
    225c:	00ca8633          	add	a2,s5,a2
    2260:	acc43423          	sd	a2,-1336(s0)
    2264:	f6043583          	ld	a1,-160(s0)
    2268:	02b50ab3          	mul	s5,a0,a1
    226c:	ad043603          	ld	a2,-1328(s0)
    2270:	00ca8633          	add	a2,s5,a2
    2274:	acc43823          	sd	a2,-1328(s0)
    2278:	f5843783          	ld	a5,-168(s0)
    227c:	02f50ab3          	mul	s5,a0,a5
    2280:	ad843603          	ld	a2,-1320(s0)
    2284:	00ca8633          	add	a2,s5,a2
    2288:	acc43c23          	sd	a2,-1320(s0)
    228c:	03a50ab3          	mul	s5,a0,s10
    2290:	ae043603          	ld	a2,-1312(s0)
    2294:	00ca8633          	add	a2,s5,a2
    2298:	aec43023          	sd	a2,-1312(s0)
    229c:	03250ab3          	mul	s5,a0,s2
    22a0:	ae843603          	ld	a2,-1304(s0)
    22a4:	00ca8633          	add	a2,s5,a2
    22a8:	aec43423          	sd	a2,-1304(s0)
    22ac:	02950ab3          	mul	s5,a0,s1
    22b0:	af043603          	ld	a2,-1296(s0)
    22b4:	00ca8633          	add	a2,s5,a2
    22b8:	aec43823          	sd	a2,-1296(s0)
    22bc:	03f50ab3          	mul	s5,a0,t6
    22c0:	af843603          	ld	a2,-1288(s0)
    22c4:	00ca8633          	add	a2,s5,a2
    22c8:	aec43c23          	sd	a2,-1288(s0)
    22cc:	03e50ab3          	mul	s5,a0,t5
    22d0:	b0043603          	ld	a2,-1280(s0)
    22d4:	00ca8633          	add	a2,s5,a2
    22d8:	b0c43023          	sd	a2,-1280(s0)
    22dc:	03d50ab3          	mul	s5,a0,t4
    22e0:	b0843603          	ld	a2,-1272(s0)
    22e4:	00ca8633          	add	a2,s5,a2
    22e8:	b0c43423          	sd	a2,-1272(s0)
    22ec:	03c50ab3          	mul	s5,a0,t3
    22f0:	b1043603          	ld	a2,-1264(s0)
    22f4:	00ca8633          	add	a2,s5,a2
    22f8:	b0c43823          	sd	a2,-1264(s0)
    22fc:	02150ab3          	mul	s5,a0,ra
    2300:	b1843603          	ld	a2,-1256(s0)
    2304:	00ca8633          	add	a2,s5,a2
    2308:	b0c43c23          	sd	a2,-1256(s0)
    230c:	00088a13          	mv	s4,a7
    2310:	03150ab3          	mul	s5,a0,a7
    2314:	b2043603          	ld	a2,-1248(s0)
    2318:	00ca8633          	add	a2,s5,a2
    231c:	b2c43023          	sd	a2,-1248(s0)
    2320:	03350ab3          	mul	s5,a0,s3
    2324:	b2843603          	ld	a2,-1240(s0)
    2328:	00ca8633          	add	a2,s5,a2
    232c:	b2c43423          	sd	a2,-1240(s0)
    2330:	03850ab3          	mul	s5,a0,s8
    2334:	b3043603          	ld	a2,-1232(s0)
    2338:	00ca8633          	add	a2,s5,a2
    233c:	b2c43823          	sd	a2,-1232(s0)
    2340:	03050ab3          	mul	s5,a0,a6
    2344:	b3843603          	ld	a2,-1224(s0)
    2348:	00ca8633          	add	a2,s5,a2
    234c:	b2c43c23          	sd	a2,-1224(s0)
    2350:	eb043083          	ld	ra,-336(s0)
    2354:	02150ab3          	mul	s5,a0,ra
    2358:	b4043603          	ld	a2,-1216(s0)
    235c:	00ca8633          	add	a2,s5,a2
    2360:	b4c43023          	sd	a2,-1216(s0)
    2364:	02550ab3          	mul	s5,a0,t0
    2368:	b4843603          	ld	a2,-1208(s0)
    236c:	00ca8633          	add	a2,s5,a2
    2370:	b4c43423          	sd	a2,-1208(s0)
    2374:	02750ab3          	mul	s5,a0,t2
    2378:	b5043603          	ld	a2,-1200(s0)
    237c:	00ca8633          	add	a2,s5,a2
    2380:	b4c43823          	sd	a2,-1200(s0)
    2384:	f4043603          	ld	a2,-192(s0)
    2388:	02c50ab3          	mul	s5,a0,a2
    238c:	b5843603          	ld	a2,-1192(s0)
    2390:	00ca8633          	add	a2,s5,a2
    2394:	b4c43c23          	sd	a2,-1192(s0)
    2398:	02650ab3          	mul	s5,a0,t1
    239c:	00030f93          	mv	t6,t1
    23a0:	b6043603          	ld	a2,-1184(s0)
    23a4:	00ca8633          	add	a2,s5,a2
    23a8:	b6c43023          	sd	a2,-1184(s0)
    23ac:	ea043883          	ld	a7,-352(s0)
    23b0:	03150ab3          	mul	s5,a0,a7
    23b4:	b6843603          	ld	a2,-1176(s0)
    23b8:	00ca8633          	add	a2,s5,a2
    23bc:	b6c43423          	sd	a2,-1176(s0)
    23c0:	ee843383          	ld	t2,-280(s0)
    23c4:	02750ab3          	mul	s5,a0,t2
    23c8:	b7043603          	ld	a2,-1168(s0)
    23cc:	00ca8633          	add	a2,s5,a2
    23d0:	b6c43823          	sd	a2,-1168(s0)
    23d4:	ed843e03          	ld	t3,-296(s0)
    23d8:	03c50ab3          	mul	s5,a0,t3
    23dc:	b7843603          	ld	a2,-1160(s0)
    23e0:	00ca8633          	add	a2,s5,a2
    23e4:	b6c43c23          	sd	a2,-1160(s0)
    23e8:	03750ab3          	mul	s5,a0,s7
    23ec:	b8043603          	ld	a2,-1152(s0)
    23f0:	00ca8633          	add	a2,s5,a2
    23f4:	b8c43023          	sd	a2,-1152(s0)
    23f8:	f8043603          	ld	a2,-128(s0)
    23fc:	18060a83          	lb	s5,384(a2)
    2400:	000b0b93          	mv	s7,s6
    2404:	03650db3          	mul	s11,a0,s6
    2408:	b8843603          	ld	a2,-1144(s0)
    240c:	00cd8633          	add	a2,s11,a2
    2410:	b8c43423          	sd	a2,-1144(s0)
    2414:	ee043c03          	ld	s8,-288(s0)
    2418:	03850533          	mul	a0,a0,s8
    241c:	b9043603          	ld	a2,-1136(s0)
    2420:	00c50633          	add	a2,a0,a2
    2424:	b8c43823          	sd	a2,-1136(s0)
    2428:	02da8533          	mul	a0,s5,a3
    242c:	00068f13          	mv	t5,a3
    2430:	b9843603          	ld	a2,-1128(s0)
    2434:	00c50633          	add	a2,a0,a2
    2438:	b8c43c23          	sd	a2,-1128(s0)
    243c:	f3043c83          	ld	s9,-208(s0)
    2440:	039a8533          	mul	a0,s5,s9
    2444:	ba043603          	ld	a2,-1120(s0)
    2448:	00c50633          	add	a2,a0,a2
    244c:	bac43023          	sd	a2,-1120(s0)
    2450:	eb843b03          	ld	s6,-328(s0)
    2454:	036a8533          	mul	a0,s5,s6
    2458:	ba843603          	ld	a2,-1112(s0)
    245c:	00c50633          	add	a2,a0,a2
    2460:	bac43423          	sd	a2,-1112(s0)
    2464:	f7043683          	ld	a3,-144(s0)
    2468:	02da8533          	mul	a0,s5,a3
    246c:	bb043603          	ld	a2,-1104(s0)
    2470:	00c50633          	add	a2,a0,a2
    2474:	bac43823          	sd	a2,-1104(s0)
    2478:	f2843803          	ld	a6,-216(s0)
    247c:	030a8533          	mul	a0,s5,a6
    2480:	bb843603          	ld	a2,-1096(s0)
    2484:	00c50633          	add	a2,a0,a2
    2488:	bac43c23          	sd	a2,-1096(s0)
    248c:	f2043303          	ld	t1,-224(s0)
    2490:	026a8533          	mul	a0,s5,t1
    2494:	bc043603          	ld	a2,-1088(s0)
    2498:	00c50633          	add	a2,a0,a2
    249c:	bcc43023          	sd	a2,-1088(s0)
    24a0:	02ea8533          	mul	a0,s5,a4
    24a4:	bc843603          	ld	a2,-1080(s0)
    24a8:	00c50633          	add	a2,a0,a2
    24ac:	bcc43423          	sd	a2,-1080(s0)
    24b0:	02ba8533          	mul	a0,s5,a1
    24b4:	bd043603          	ld	a2,-1072(s0)
    24b8:	00c50633          	add	a2,a0,a2
    24bc:	bcc43823          	sd	a2,-1072(s0)
    24c0:	02fa8533          	mul	a0,s5,a5
    24c4:	bd843603          	ld	a2,-1064(s0)
    24c8:	00c50633          	add	a2,a0,a2
    24cc:	bcc43c23          	sd	a2,-1064(s0)
    24d0:	03aa8533          	mul	a0,s5,s10
    24d4:	be043603          	ld	a2,-1056(s0)
    24d8:	00c50633          	add	a2,a0,a2
    24dc:	bec43023          	sd	a2,-1056(s0)
    24e0:	00001537          	lui	a0,0x1
    24e4:	40a40533          	sub	a0,s0,a0
    24e8:	67253823          	sd	s2,1648(a0) # 1670 <.LBB66_5+0x234>
    24ec:	032a8533          	mul	a0,s5,s2
    24f0:	be843603          	ld	a2,-1048(s0)
    24f4:	00c50633          	add	a2,a0,a2
    24f8:	bec43423          	sd	a2,-1048(s0)
    24fc:	029a8533          	mul	a0,s5,s1
    2500:	bf043603          	ld	a2,-1040(s0)
    2504:	00c50633          	add	a2,a0,a2
    2508:	bec43823          	sd	a2,-1040(s0)
    250c:	e8043783          	ld	a5,-384(s0)
    2510:	02fa8533          	mul	a0,s5,a5
    2514:	bf843603          	ld	a2,-1032(s0)
    2518:	00c50633          	add	a2,a0,a2
    251c:	bec43c23          	sd	a2,-1032(s0)
    2520:	f5043503          	ld	a0,-176(s0)
    2524:	02aa8533          	mul	a0,s5,a0
    2528:	c0043603          	ld	a2,-1024(s0)
    252c:	00c50633          	add	a2,a0,a2
    2530:	c0c43023          	sd	a2,-1024(s0)
    2534:	03da8533          	mul	a0,s5,t4
    2538:	c0843603          	ld	a2,-1016(s0)
    253c:	00c50633          	add	a2,a0,a2
    2540:	c0c43423          	sd	a2,-1016(s0)
    2544:	f4843503          	ld	a0,-184(s0)
    2548:	02aa8533          	mul	a0,s5,a0
    254c:	c1043603          	ld	a2,-1008(s0)
    2550:	00c50633          	add	a2,a0,a2
    2554:	c0c43823          	sd	a2,-1008(s0)
    2558:	ef043583          	ld	a1,-272(s0)
    255c:	02ba8533          	mul	a0,s5,a1
    2560:	c1843603          	ld	a2,-1000(s0)
    2564:	00c50633          	add	a2,a0,a2
    2568:	c0c43c23          	sd	a2,-1000(s0)
    256c:	034a8533          	mul	a0,s5,s4
    2570:	c2043603          	ld	a2,-992(s0)
    2574:	00c50633          	add	a2,a0,a2
    2578:	c2c43023          	sd	a2,-992(s0)
    257c:	033a8533          	mul	a0,s5,s3
    2580:	c2843603          	ld	a2,-984(s0)
    2584:	00c50633          	add	a2,a0,a2
    2588:	c2c43423          	sd	a2,-984(s0)
    258c:	e9843a03          	ld	s4,-360(s0)
    2590:	034a8533          	mul	a0,s5,s4
    2594:	c3043603          	ld	a2,-976(s0)
    2598:	00c50633          	add	a2,a0,a2
    259c:	c2c43823          	sd	a2,-976(s0)
    25a0:	e8843703          	ld	a4,-376(s0)
    25a4:	02ea8533          	mul	a0,s5,a4
    25a8:	c3843603          	ld	a2,-968(s0)
    25ac:	00c50633          	add	a2,a0,a2
    25b0:	c2c43c23          	sd	a2,-968(s0)
    25b4:	021a8533          	mul	a0,s5,ra
    25b8:	c4043603          	ld	a2,-960(s0)
    25bc:	00c50633          	add	a2,a0,a2
    25c0:	c4c43023          	sd	a2,-960(s0)
    25c4:	025a8533          	mul	a0,s5,t0
    25c8:	c4843603          	ld	a2,-952(s0)
    25cc:	00c50633          	add	a2,a0,a2
    25d0:	c4c43423          	sd	a2,-952(s0)
    25d4:	ed043503          	ld	a0,-304(s0)
    25d8:	02aa8533          	mul	a0,s5,a0
    25dc:	c5043603          	ld	a2,-944(s0)
    25e0:	00c50633          	add	a2,a0,a2
    25e4:	c4c43823          	sd	a2,-944(s0)
    25e8:	f4043283          	ld	t0,-192(s0)
    25ec:	025a8533          	mul	a0,s5,t0
    25f0:	c5843603          	ld	a2,-936(s0)
    25f4:	00c50633          	add	a2,a0,a2
    25f8:	c4c43c23          	sd	a2,-936(s0)
    25fc:	03fa8533          	mul	a0,s5,t6
    2600:	c6043603          	ld	a2,-928(s0)
    2604:	00c50633          	add	a2,a0,a2
    2608:	c6c43023          	sd	a2,-928(s0)
    260c:	031a8533          	mul	a0,s5,a7
    2610:	c6843603          	ld	a2,-920(s0)
    2614:	00c50633          	add	a2,a0,a2
    2618:	c6c43423          	sd	a2,-920(s0)
    261c:	027a8533          	mul	a0,s5,t2
    2620:	c7043603          	ld	a2,-912(s0)
    2624:	00c50633          	add	a2,a0,a2
    2628:	c6c43823          	sd	a2,-912(s0)
    262c:	03ca8533          	mul	a0,s5,t3
    2630:	c7843603          	ld	a2,-904(s0)
    2634:	00c50633          	add	a2,a0,a2
    2638:	c6c43c23          	sd	a2,-904(s0)
    263c:	ec043383          	ld	t2,-320(s0)
    2640:	027a8533          	mul	a0,s5,t2
    2644:	c8043603          	ld	a2,-896(s0)
    2648:	00c50633          	add	a2,a0,a2
    264c:	c8c43023          	sd	a2,-896(s0)
    2650:	f8043503          	ld	a0,-128(s0)
    2654:	30050503          	lb	a0,768(a0)
    2658:	037a8db3          	mul	s11,s5,s7
    265c:	c8843603          	ld	a2,-888(s0)
    2660:	00cd8633          	add	a2,s11,a2
    2664:	c8c43423          	sd	a2,-888(s0)
    2668:	038a8ab3          	mul	s5,s5,s8
    266c:	c9043603          	ld	a2,-880(s0)
    2670:	00ca8633          	add	a2,s5,a2
    2674:	c8c43823          	sd	a2,-880(s0)
    2678:	03e50ab3          	mul	s5,a0,t5
    267c:	c9843603          	ld	a2,-872(s0)
    2680:	00ca8633          	add	a2,s5,a2
    2684:	c8c43c23          	sd	a2,-872(s0)
    2688:	03950ab3          	mul	s5,a0,s9
    268c:	ca043603          	ld	a2,-864(s0)
    2690:	00ca8633          	add	a2,s5,a2
    2694:	cac43023          	sd	a2,-864(s0)
    2698:	03650ab3          	mul	s5,a0,s6
    269c:	ca843603          	ld	a2,-856(s0)
    26a0:	00ca8633          	add	a2,s5,a2
    26a4:	cac43423          	sd	a2,-856(s0)
    26a8:	02d50ab3          	mul	s5,a0,a3
    26ac:	cb043603          	ld	a2,-848(s0)
    26b0:	00ca8633          	add	a2,s5,a2
    26b4:	cac43823          	sd	a2,-848(s0)
    26b8:	03050ab3          	mul	s5,a0,a6
    26bc:	cb843603          	ld	a2,-840(s0)
    26c0:	00ca8633          	add	a2,s5,a2
    26c4:	cac43c23          	sd	a2,-840(s0)
    26c8:	02650ab3          	mul	s5,a0,t1
    26cc:	cc043603          	ld	a2,-832(s0)
    26d0:	00ca8633          	add	a2,s5,a2
    26d4:	ccc43023          	sd	a2,-832(s0)
    26d8:	f6843603          	ld	a2,-152(s0)
    26dc:	02c50ab3          	mul	s5,a0,a2
    26e0:	cc843603          	ld	a2,-824(s0)
    26e4:	00ca8633          	add	a2,s5,a2
    26e8:	ccc43423          	sd	a2,-824(s0)
    26ec:	f6043083          	ld	ra,-160(s0)
    26f0:	02150ab3          	mul	s5,a0,ra
    26f4:	cd043603          	ld	a2,-816(s0)
    26f8:	00ca8633          	add	a2,s5,a2
    26fc:	ccc43823          	sd	a2,-816(s0)
    2700:	f5843b03          	ld	s6,-168(s0)
    2704:	03650ab3          	mul	s5,a0,s6
    2708:	cd843603          	ld	a2,-808(s0)
    270c:	00ca8633          	add	a2,s5,a2
    2710:	ccc43c23          	sd	a2,-808(s0)
    2714:	03a50ab3          	mul	s5,a0,s10
    2718:	ce043603          	ld	a2,-800(s0)
    271c:	00ca8633          	add	a2,s5,a2
    2720:	cec43023          	sd	a2,-800(s0)
    2724:	03250ab3          	mul	s5,a0,s2
    2728:	ce843603          	ld	a2,-792(s0)
    272c:	00ca8633          	add	a2,s5,a2
    2730:	cec43423          	sd	a2,-792(s0)
    2734:	02950ab3          	mul	s5,a0,s1
    2738:	00048d13          	mv	s10,s1
    273c:	cf043603          	ld	a2,-784(s0)
    2740:	00ca8633          	add	a2,s5,a2
    2744:	cec43823          	sd	a2,-784(s0)
    2748:	02f50ab3          	mul	s5,a0,a5
    274c:	00078913          	mv	s2,a5
    2750:	cf843603          	ld	a2,-776(s0)
    2754:	00ca8633          	add	a2,s5,a2
    2758:	cec43c23          	sd	a2,-776(s0)
    275c:	f5043f03          	ld	t5,-176(s0)
    2760:	03e50ab3          	mul	s5,a0,t5
    2764:	d0043603          	ld	a2,-768(s0)
    2768:	00ca8633          	add	a2,s5,a2
    276c:	d0c43023          	sd	a2,-768(s0)
    2770:	03d50ab3          	mul	s5,a0,t4
    2774:	d0843603          	ld	a2,-760(s0)
    2778:	00ca8633          	add	a2,s5,a2
    277c:	d0c43423          	sd	a2,-760(s0)
    2780:	f4843303          	ld	t1,-184(s0)
    2784:	02650ab3          	mul	s5,a0,t1
    2788:	d1043603          	ld	a2,-752(s0)
    278c:	00ca8633          	add	a2,s5,a2
    2790:	d0c43823          	sd	a2,-752(s0)
    2794:	02b50ab3          	mul	s5,a0,a1
    2798:	00058493          	mv	s1,a1
    279c:	d1843603          	ld	a2,-744(s0)
    27a0:	00ca8633          	add	a2,s5,a2
    27a4:	d0c43c23          	sd	a2,-744(s0)
    27a8:	e7043783          	ld	a5,-400(s0)
    27ac:	02f50ab3          	mul	s5,a0,a5
    27b0:	d2043603          	ld	a2,-736(s0)
    27b4:	00ca8633          	add	a2,s5,a2
    27b8:	d2c43023          	sd	a2,-736(s0)
    27bc:	03350ab3          	mul	s5,a0,s3
    27c0:	00098f93          	mv	t6,s3
    27c4:	d2843603          	ld	a2,-728(s0)
    27c8:	00ca8633          	add	a2,s5,a2
    27cc:	d2c43423          	sd	a2,-728(s0)
    27d0:	03450ab3          	mul	s5,a0,s4
    27d4:	d3043603          	ld	a2,-720(s0)
    27d8:	00ca8633          	add	a2,s5,a2
    27dc:	d2c43823          	sd	a2,-720(s0)
    27e0:	02e50ab3          	mul	s5,a0,a4
    27e4:	d3843603          	ld	a2,-712(s0)
    27e8:	00ca8633          	add	a2,s5,a2
    27ec:	d2c43c23          	sd	a2,-712(s0)
    27f0:	eb043683          	ld	a3,-336(s0)
    27f4:	02d50ab3          	mul	s5,a0,a3
    27f8:	d4043603          	ld	a2,-704(s0)
    27fc:	00ca8633          	add	a2,s5,a2
    2800:	d4c43023          	sd	a2,-704(s0)
    2804:	e9043983          	ld	s3,-368(s0)
    2808:	03350ab3          	mul	s5,a0,s3
    280c:	d4843603          	ld	a2,-696(s0)
    2810:	00ca8633          	add	a2,s5,a2
    2814:	d4c43423          	sd	a2,-696(s0)
    2818:	ed043583          	ld	a1,-304(s0)
    281c:	02b50ab3          	mul	s5,a0,a1
    2820:	d5043603          	ld	a2,-688(s0)
    2824:	00ca8633          	add	a2,s5,a2
    2828:	d4c43823          	sd	a2,-688(s0)
    282c:	02550ab3          	mul	s5,a0,t0
    2830:	d5843603          	ld	a2,-680(s0)
    2834:	00ca8633          	add	a2,s5,a2
    2838:	d4c43c23          	sd	a2,-680(s0)
    283c:	ec843c83          	ld	s9,-312(s0)
    2840:	03950ab3          	mul	s5,a0,s9
    2844:	d6043603          	ld	a2,-672(s0)
    2848:	00ca8633          	add	a2,s5,a2
    284c:	d6c43023          	sd	a2,-672(s0)
    2850:	00088813          	mv	a6,a7
    2854:	03150ab3          	mul	s5,a0,a7
    2858:	d6843603          	ld	a2,-664(s0)
    285c:	00ca8633          	add	a2,s5,a2
    2860:	d6c43423          	sd	a2,-664(s0)
    2864:	ee843883          	ld	a7,-280(s0)
    2868:	03150ab3          	mul	s5,a0,a7
    286c:	d7043603          	ld	a2,-656(s0)
    2870:	00ca8633          	add	a2,s5,a2
    2874:	d6c43823          	sd	a2,-656(s0)
    2878:	03c50ab3          	mul	s5,a0,t3
    287c:	d7843603          	ld	a2,-648(s0)
    2880:	00ca8633          	add	a2,s5,a2
    2884:	d6c43c23          	sd	a2,-648(s0)
    2888:	02750ab3          	mul	s5,a0,t2
    288c:	d8043603          	ld	a2,-640(s0)
    2890:	00ca8633          	add	a2,s5,a2
    2894:	d8c43023          	sd	a2,-640(s0)
    2898:	f8043603          	ld	a2,-128(s0)
    289c:	48060a83          	lb	s5,1152(a2)
    28a0:	03750db3          	mul	s11,a0,s7
    28a4:	d8843603          	ld	a2,-632(s0)
    28a8:	00cd8633          	add	a2,s11,a2
    28ac:	d8c43423          	sd	a2,-632(s0)
    28b0:	03850533          	mul	a0,a0,s8
    28b4:	d9043603          	ld	a2,-624(s0)
    28b8:	00c50633          	add	a2,a0,a2
    28bc:	d8c43823          	sd	a2,-624(s0)
    28c0:	038a8533          	mul	a0,s5,s8
    28c4:	eea43023          	sd	a0,-288(s0)
    28c8:	037a8533          	mul	a0,s5,s7
    28cc:	00001637          	lui	a2,0x1
    28d0:	40c40633          	sub	a2,s0,a2
    28d4:	66a63c23          	sd	a0,1656(a2) # 1678 <.LBB66_5+0x23c>
    28d8:	027a8533          	mul	a0,s5,t2
    28dc:	eca43023          	sd	a0,-320(s0)
    28e0:	03ca8533          	mul	a0,s5,t3
    28e4:	eca43c23          	sd	a0,-296(s0)
    28e8:	031a8533          	mul	a0,s5,a7
    28ec:	00001637          	lui	a2,0x1
    28f0:	40c40633          	sub	a2,s0,a2
    28f4:	66a63423          	sd	a0,1640(a2) # 1668 <.LBB66_5+0x22c>
    28f8:	030a8533          	mul	a0,s5,a6
    28fc:	eea43423          	sd	a0,-280(s0)
    2900:	039a8533          	mul	a0,s5,s9
    2904:	eca43423          	sd	a0,-312(s0)
    2908:	025a8533          	mul	a0,s5,t0
    290c:	f4a43023          	sd	a0,-192(s0)
    2910:	02ba8bb3          	mul	s7,s5,a1
    2914:	033a8c33          	mul	s8,s5,s3
    2918:	02da8833          	mul	a6,s5,a3
    291c:	02ea89b3          	mul	s3,s5,a4
    2920:	034a83b3          	mul	t2,s5,s4
    2924:	03fa82b3          	mul	t0,s5,t6
    2928:	02fa88b3          	mul	a7,s5,a5
    292c:	029a8a33          	mul	s4,s5,s1
    2930:	026a8e33          	mul	t3,s5,t1
    2934:	03da8eb3          	mul	t4,s5,t4
    2938:	03ea8f33          	mul	t5,s5,t5
    293c:	032a8fb3          	mul	t6,s5,s2
    2940:	03aa84b3          	mul	s1,s5,s10
    2944:	00001537          	lui	a0,0x1
    2948:	40a40533          	sub	a0,s0,a0
    294c:	67053503          	ld	a0,1648(a0) # 1670 <.LBB66_5+0x234>
    2950:	02aa8933          	mul	s2,s5,a0
    2954:	e7843503          	ld	a0,-392(s0)
    2958:	02aa8cb3          	mul	s9,s5,a0
    295c:	036a8d33          	mul	s10,s5,s6
    2960:	021a8db3          	mul	s11,s5,ra
    2964:	f6843503          	ld	a0,-152(s0)
    2968:	02aa8733          	mul	a4,s5,a0
    296c:	f2043503          	ld	a0,-224(s0)
    2970:	02aa80b3          	mul	ra,s5,a0
    2974:	f2843503          	ld	a0,-216(s0)
    2978:	02aa86b3          	mul	a3,s5,a0
    297c:	f7043503          	ld	a0,-144(s0)
    2980:	02aa8633          	mul	a2,s5,a0
    2984:	eb843503          	ld	a0,-328(s0)
    2988:	02aa85b3          	mul	a1,s5,a0
    298c:	f3043503          	ld	a0,-208(s0)
    2990:	02aa8533          	mul	a0,s5,a0
    2994:	f3843783          	ld	a5,-200(s0)
    2998:	02fa8ab3          	mul	s5,s5,a5
    299c:	d9843783          	ld	a5,-616(s0)
    29a0:	00fa87b3          	add	a5,s5,a5
    29a4:	d8f43c23          	sd	a5,-616(s0)
    29a8:	e0043a83          	ld	s5,-512(s0)
    29ac:	da043783          	ld	a5,-608(s0)
    29b0:	00f507b3          	add	a5,a0,a5
    29b4:	daf43023          	sd	a5,-608(s0)
    29b8:	da843503          	ld	a0,-600(s0)
    29bc:	00a58533          	add	a0,a1,a0
    29c0:	daa43423          	sd	a0,-600(s0)
    29c4:	db043503          	ld	a0,-592(s0)
    29c8:	00a60533          	add	a0,a2,a0
    29cc:	daa43823          	sd	a0,-592(s0)
    29d0:	db843503          	ld	a0,-584(s0)
    29d4:	00a68533          	add	a0,a3,a0
    29d8:	daa43c23          	sd	a0,-584(s0)
    29dc:	dc043503          	ld	a0,-576(s0)
    29e0:	00a08533          	add	a0,ra,a0
    29e4:	dca43023          	sd	a0,-576(s0)
    29e8:	de843083          	ld	ra,-536(s0)
    29ec:	dc843503          	ld	a0,-568(s0)
    29f0:	00a70533          	add	a0,a4,a0
    29f4:	dca43423          	sd	a0,-568(s0)
    29f8:	dd043503          	ld	a0,-560(s0)
    29fc:	00ad8533          	add	a0,s11,a0
    2a00:	dca43823          	sd	a0,-560(s0)
    2a04:	df043d83          	ld	s11,-528(s0)
    2a08:	ef843503          	ld	a0,-264(s0)
    2a0c:	00ad0533          	add	a0,s10,a0
    2a10:	eea43c23          	sd	a0,-264(s0)
    2a14:	ef843d03          	ld	s10,-264(s0)
    2a18:	dd843503          	ld	a0,-552(s0)
    2a1c:	00ac8533          	add	a0,s9,a0
    2a20:	dca43c23          	sd	a0,-552(s0)
    2a24:	df843c83          	ld	s9,-520(s0)
    2a28:	de043503          	ld	a0,-544(s0)
    2a2c:	00a90533          	add	a0,s2,a0
    2a30:	dea43023          	sd	a0,-544(s0)
    2a34:	e0843903          	ld	s2,-504(s0)
    2a38:	001480b3          	add	ra,s1,ra
    2a3c:	e1043483          	ld	s1,-496(s0)
    2a40:	01bf8db3          	add	s11,t6,s11
    2a44:	e1843f83          	ld	t6,-488(s0)
    2a48:	019f0cb3          	add	s9,t5,s9
    2a4c:	e2043f03          	ld	t5,-480(s0)
    2a50:	015e8ab3          	add	s5,t4,s5
    2a54:	e2843e83          	ld	t4,-472(s0)
    2a58:	012e0933          	add	s2,t3,s2
    2a5c:	e3043e03          	ld	t3,-464(s0)
    2a60:	009a04b3          	add	s1,s4,s1
    2a64:	e4043303          	ld	t1,-448(s0)
    2a68:	01f88fb3          	add	t6,a7,t6
    2a6c:	e4843883          	ld	a7,-440(s0)
    2a70:	01e28f33          	add	t5,t0,t5
    2a74:	01d38eb3          	add	t4,t2,t4
    2a78:	e3843383          	ld	t2,-456(s0)
    2a7c:	f0043503          	ld	a0,-256(s0)
    2a80:	00a98533          	add	a0,s3,a0
    2a84:	f8843983          	ld	s3,-120(s0)
    2a88:	f0a43023          	sd	a0,-256(s0)
    2a8c:	f0043283          	ld	t0,-256(s0)
    2a90:	f0843503          	ld	a0,-248(s0)
    2a94:	00a80533          	add	a0,a6,a0
    2a98:	000015b7          	lui	a1,0x1
    2a9c:	40b405b3          	sub	a1,s0,a1
    2aa0:	6905ba03          	ld	s4,1680(a1) # 1690 <.LBB66_5+0x254>
    2aa4:	f0a43423          	sd	a0,-248(s0)
    2aa8:	f0843603          	ld	a2,-248(s0)
    2aac:	f1043503          	ld	a0,-240(s0)
    2ab0:	00ac0533          	add	a0,s8,a0
    2ab4:	f0a43823          	sd	a0,-240(s0)
    2ab8:	f1043583          	ld	a1,-240(s0)
    2abc:	f1843503          	ld	a0,-232(s0)
    2ac0:	00ab8533          	add	a0,s7,a0
    2ac4:	000016b7          	lui	a3,0x1
    2ac8:	40d406b3          	sub	a3,s0,a3
    2acc:	6986bb83          	ld	s7,1688(a3) # 1698 <.LBB66_5+0x25c>
    2ad0:	f0a43c23          	sd	a0,-232(s0)
    2ad4:	f1843503          	ld	a0,-232(s0)
    2ad8:	f4043683          	ld	a3,-192(s0)
    2adc:	01c68e33          	add	t3,a3,t3
    2ae0:	f8043b03          	ld	s6,-128(s0)
    2ae4:	ec843683          	ld	a3,-312(s0)
    2ae8:	007683b3          	add	t2,a3,t2
    2aec:	e5043803          	ld	a6,-432(s0)
    2af0:	ee843683          	ld	a3,-280(s0)
    2af4:	00668333          	add	t1,a3,t1
    2af8:	e5843783          	ld	a5,-424(s0)
    2afc:	e6043703          	ld	a4,-416(s0)
    2b00:	e6843683          	ld	a3,-408(s0)
    2b04:	00001c37          	lui	s8,0x1
    2b08:	41840c33          	sub	s8,s0,s8
    2b0c:	668c3c03          	ld	s8,1640(s8) # 1668 <.LBB66_5+0x22c>
    2b10:	011c08b3          	add	a7,s8,a7
    2b14:	ed843c03          	ld	s8,-296(s0)
    2b18:	010c0833          	add	a6,s8,a6
    2b1c:	ec043c03          	ld	s8,-320(s0)
    2b20:	00fc07b3          	add	a5,s8,a5
    2b24:	00001c37          	lui	s8,0x1
    2b28:	41840c33          	sub	s8,s0,s8
    2b2c:	678c3c03          	ld	s8,1656(s8) # 1678 <.LBB66_5+0x23c>
    2b30:	00ec0733          	add	a4,s8,a4
    2b34:	ee043c03          	ld	s8,-288(s0)
    2b38:	00dc06b3          	add	a3,s8,a3
    2b3c:	fc0a0a13          	addi	s4,s4,-64 # 5fc0 <.LBB66_228+0xc>
    2b40:	04098993          	addi	s3,s3,64
    2b44:	001b0b13          	addi	s6,s6,1
    2b48:	000a0463          	beqz	s4,2b50 <.LBB66_6>
    2b4c:	8f1fe06f          	j	143c <.LBB66_5>

0000000000002b50 <.LBB66_6>:
    2b50:	00001537          	lui	a0,0x1
    2b54:	40a40533          	sub	a0,s0,a0
    2b58:	6a053a03          	ld	s4,1696(a0) # 16a0 <.LBB66_5+0x264>
    2b5c:	00001537          	lui	a0,0x1
    2b60:	40a40533          	sub	a0,s0,a0
    2b64:	6a853c03          	ld	s8,1704(a0) # 16a8 <.LBB66_5+0x26c>
    2b68:	00001537          	lui	a0,0x1
    2b6c:	40a40533          	sub	a0,s0,a0
    2b70:	5e053b83          	ld	s7,1504(a0) # 15e0 <.LBB66_5+0x1a4>
    2b74:	002b9d13          	slli	s10,s7,0x2

0000000000002b78 <.Lpcrel_hi12>:
    2b78:	00000517          	auipc	a0,0x0
    2b7c:	00050593          	mv	a1,a0
    2b80:	00002537          	lui	a0,0x2
    2b84:	40a40533          	sub	a0,s0,a0
    2b88:	04b53023          	sd	a1,64(a0) # 2040 <.LBB66_5+0xc04>
    2b8c:	01a585b3          	add	a1,a1,s10
    2b90:	00001537          	lui	a0,0x1
    2b94:	40a40533          	sub	a0,s0,a0
    2b98:	05053503          	ld	a0,80(a0) # 1050 <.LBB66_4+0x1ac>
    2b9c:	00052b03          	lw	s6,0(a0)
    2ba0:	00002537          	lui	a0,0x2
    2ba4:	40a40533          	sub	a0,s0,a0
    2ba8:	05853503          	ld	a0,88(a0) # 2058 <.LBB66_5+0xc1c>
    2bac:	01a50d33          	add	s10,a0,s10
    2bb0:	07cd2503          	lw	a0,124(s10)
    2bb4:	07c5a603          	lw	a2,124(a1)
    2bb8:	004b1b13          	slli	s6,s6,0x4
    2bbc:	00751293          	slli	t0,a0,0x7
    2bc0:	eac43423          	sd	a2,-344(s0)
    2bc4:	00001537          	lui	a0,0x1
    2bc8:	40a40533          	sub	a0,s0,a0
    2bcc:	6b053503          	ld	a0,1712(a0) # 16b0 <.LBB66_5+0x274>
    2bd0:	00c50533          	add	a0,a0,a2
    2bd4:	ea543023          	sd	t0,-352(s0)
    2bd8:	00550533          	add	a0,a0,t0
    2bdc:	fff402b7          	lui	t0,0xfff40
    2be0:	405b063b          	subw	a2,s6,t0
    2be4:	40c5063b          	subw	a2,a0,a2
    2be8:	40000537          	lui	a0,0x40000
    2bec:	000019b7          	lui	s3,0x1
    2bf0:	413409b3          	sub	s3,s0,s3
    2bf4:	66a9bc23          	sd	a0,1656(s3) # 1678 <.LBB66_5+0x23c>
    2bf8:	000019b7          	lui	s3,0x1
    2bfc:	413409b3          	sub	s3,s0,s3
    2c00:	66c9b823          	sd	a2,1648(s3) # 1670 <.LBB66_5+0x234>
    2c04:	00065463          	bgez	a2,2c0c <.LBB66_8>
    2c08:	c0000537          	lui	a0,0xc0000

0000000000002c0c <.LBB66_8>:
    2c0c:	00001637          	lui	a2,0x1
    2c10:	40c40633          	sub	a2,s0,a2
    2c14:	66a63423          	sd	a0,1640(a2) # 1668 <.LBB66_5+0x22c>
    2c18:	078d2503          	lw	a0,120(s10)
    2c1c:	0785a603          	lw	a2,120(a1)
    2c20:	00751993          	slli	s3,a0,0x7
    2c24:	e8c43c23          	sd	a2,-360(s0)
    2c28:	00ca0533          	add	a0,s4,a2
    2c2c:	e9343823          	sd	s3,-368(s0)
    2c30:	01350533          	add	a0,a0,s3
    2c34:	405b063b          	subw	a2,s6,t0
    2c38:	40c5053b          	subw	a0,a0,a2
    2c3c:	40000637          	lui	a2,0x40000
    2c40:	000019b7          	lui	s3,0x1
    2c44:	413409b3          	sub	s3,s0,s3
    2c48:	64a9b823          	sd	a0,1616(s3) # 1650 <.LBB66_5+0x214>
    2c4c:	00055463          	bgez	a0,2c54 <.LBB66_10>
    2c50:	c0000637          	lui	a2,0xc0000

0000000000002c54 <.LBB66_10>:
    2c54:	00001537          	lui	a0,0x1
    2c58:	40a40533          	sub	a0,s0,a0
    2c5c:	64c53423          	sd	a2,1608(a0) # 1648 <.LBB66_5+0x20c>
    2c60:	074d2503          	lw	a0,116(s10)
    2c64:	0745a603          	lw	a2,116(a1)
    2c68:	00751993          	slli	s3,a0,0x7
    2c6c:	e8c43423          	sd	a2,-376(s0)
    2c70:	00001537          	lui	a0,0x1
    2c74:	40a40533          	sub	a0,s0,a0
    2c78:	6b853503          	ld	a0,1720(a0) # 16b8 <.LBB66_5+0x27c>
    2c7c:	00c50533          	add	a0,a0,a2
    2c80:	e9343023          	sd	s3,-384(s0)
    2c84:	01350533          	add	a0,a0,s3
    2c88:	405b063b          	subw	a2,s6,t0
    2c8c:	40c5053b          	subw	a0,a0,a2
    2c90:	40000637          	lui	a2,0x40000
    2c94:	000019b7          	lui	s3,0x1
    2c98:	413409b3          	sub	s3,s0,s3
    2c9c:	64a9b023          	sd	a0,1600(s3) # 1640 <.LBB66_5+0x204>
    2ca0:	00055463          	bgez	a0,2ca8 <.LBB66_12>
    2ca4:	c0000637          	lui	a2,0xc0000

0000000000002ca8 <.LBB66_12>:
    2ca8:	00001537          	lui	a0,0x1
    2cac:	40a40533          	sub	a0,s0,a0
    2cb0:	62c53c23          	sd	a2,1592(a0) # 1638 <.LBB66_5+0x1fc>
    2cb4:	070d2503          	lw	a0,112(s10)
    2cb8:	0705a603          	lw	a2,112(a1)
    2cbc:	00751993          	slli	s3,a0,0x7
    2cc0:	e6c43c23          	sd	a2,-392(s0)
    2cc4:	00001537          	lui	a0,0x1
    2cc8:	40a40533          	sub	a0,s0,a0
    2ccc:	6c053503          	ld	a0,1728(a0) # 16c0 <.LBB66_5+0x284>
    2cd0:	00c50533          	add	a0,a0,a2
    2cd4:	e7343823          	sd	s3,-400(s0)
    2cd8:	01350533          	add	a0,a0,s3
    2cdc:	405b063b          	subw	a2,s6,t0
    2ce0:	40c5053b          	subw	a0,a0,a2
    2ce4:	40000637          	lui	a2,0x40000
    2ce8:	000019b7          	lui	s3,0x1
    2cec:	413409b3          	sub	s3,s0,s3
    2cf0:	62a9b823          	sd	a0,1584(s3) # 1630 <.LBB66_5+0x1f4>
    2cf4:	00055463          	bgez	a0,2cfc <.LBB66_14>
    2cf8:	c0000637          	lui	a2,0xc0000

0000000000002cfc <.LBB66_14>:
    2cfc:	00001537          	lui	a0,0x1
    2d00:	40a40533          	sub	a0,s0,a0
    2d04:	62c53423          	sd	a2,1576(a0) # 1628 <.LBB66_5+0x1ec>
    2d08:	06cd2503          	lw	a0,108(s10)
    2d0c:	06c5a603          	lw	a2,108(a1)
    2d10:	00751993          	slli	s3,a0,0x7
    2d14:	00001537          	lui	a0,0x1
    2d18:	40a40533          	sub	a0,s0,a0
    2d1c:	6cc53023          	sd	a2,1728(a0) # 16c0 <.LBB66_5+0x284>
    2d20:	00001537          	lui	a0,0x1
    2d24:	40a40533          	sub	a0,s0,a0
    2d28:	6c853503          	ld	a0,1736(a0) # 16c8 <.LBB66_5+0x28c>
    2d2c:	00c50533          	add	a0,a0,a2
    2d30:	00001637          	lui	a2,0x1
    2d34:	40c40633          	sub	a2,s0,a2
    2d38:	6d363423          	sd	s3,1736(a2) # 16c8 <.LBB66_5+0x28c>
    2d3c:	01350533          	add	a0,a0,s3
    2d40:	405b063b          	subw	a2,s6,t0
    2d44:	40c5053b          	subw	a0,a0,a2
    2d48:	40000637          	lui	a2,0x40000
    2d4c:	000019b7          	lui	s3,0x1
    2d50:	413409b3          	sub	s3,s0,s3
    2d54:	62a9b023          	sd	a0,1568(s3) # 1620 <.LBB66_5+0x1e4>
    2d58:	00055463          	bgez	a0,2d60 <.LBB66_16>
    2d5c:	c0000637          	lui	a2,0xc0000

0000000000002d60 <.LBB66_16>:
    2d60:	00001537          	lui	a0,0x1
    2d64:	40a40533          	sub	a0,s0,a0
    2d68:	60c53c23          	sd	a2,1560(a0) # 1618 <.LBB66_5+0x1dc>
    2d6c:	068d2503          	lw	a0,104(s10)
    2d70:	0685a603          	lw	a2,104(a1)
    2d74:	00751993          	slli	s3,a0,0x7
    2d78:	00001537          	lui	a0,0x1
    2d7c:	40a40533          	sub	a0,s0,a0
    2d80:	6ac53c23          	sd	a2,1720(a0) # 16b8 <.LBB66_5+0x27c>
    2d84:	00001537          	lui	a0,0x1
    2d88:	40a40533          	sub	a0,s0,a0
    2d8c:	6d053503          	ld	a0,1744(a0) # 16d0 <.LBB66_5+0x294>
    2d90:	00c50533          	add	a0,a0,a2
    2d94:	00001637          	lui	a2,0x1
    2d98:	40c40633          	sub	a2,s0,a2
    2d9c:	6d363823          	sd	s3,1744(a2) # 16d0 <.LBB66_5+0x294>
    2da0:	01350533          	add	a0,a0,s3
    2da4:	405b063b          	subw	a2,s6,t0
    2da8:	40c5053b          	subw	a0,a0,a2
    2dac:	40000637          	lui	a2,0x40000
    2db0:	000019b7          	lui	s3,0x1
    2db4:	413409b3          	sub	s3,s0,s3
    2db8:	60a9b823          	sd	a0,1552(s3) # 1610 <.LBB66_5+0x1d4>
    2dbc:	00055463          	bgez	a0,2dc4 <.LBB66_18>
    2dc0:	c0000637          	lui	a2,0xc0000

0000000000002dc4 <.LBB66_18>:
    2dc4:	00001537          	lui	a0,0x1
    2dc8:	40a40533          	sub	a0,s0,a0
    2dcc:	60c53423          	sd	a2,1544(a0) # 1608 <.LBB66_5+0x1cc>
    2dd0:	064d2503          	lw	a0,100(s10)
    2dd4:	0645a603          	lw	a2,100(a1)
    2dd8:	00751993          	slli	s3,a0,0x7
    2ddc:	00001537          	lui	a0,0x1
    2de0:	40a40533          	sub	a0,s0,a0
    2de4:	6ac53823          	sd	a2,1712(a0) # 16b0 <.LBB66_5+0x274>
    2de8:	00001537          	lui	a0,0x1
    2dec:	40a40533          	sub	a0,s0,a0
    2df0:	6d853503          	ld	a0,1752(a0) # 16d8 <.LBB66_5+0x29c>
    2df4:	00c50533          	add	a0,a0,a2
    2df8:	00001637          	lui	a2,0x1
    2dfc:	40c40633          	sub	a2,s0,a2
    2e00:	6d363c23          	sd	s3,1752(a2) # 16d8 <.LBB66_5+0x29c>
    2e04:	01350533          	add	a0,a0,s3
    2e08:	405b063b          	subw	a2,s6,t0
    2e0c:	40c5053b          	subw	a0,a0,a2
    2e10:	40000637          	lui	a2,0x40000
    2e14:	000019b7          	lui	s3,0x1
    2e18:	413409b3          	sub	s3,s0,s3
    2e1c:	60a9b023          	sd	a0,1536(s3) # 1600 <.LBB66_5+0x1c4>
    2e20:	00055463          	bgez	a0,2e28 <.LBB66_20>
    2e24:	c0000637          	lui	a2,0xc0000

0000000000002e28 <.LBB66_20>:
    2e28:	00001537          	lui	a0,0x1
    2e2c:	40a40533          	sub	a0,s0,a0
    2e30:	5ec53c23          	sd	a2,1528(a0) # 15f8 <.LBB66_5+0x1bc>
    2e34:	e1543023          	sd	s5,-512(s0)
    2e38:	e3c43823          	sd	t3,-464(s0)
    2e3c:	e2743c23          	sd	t2,-456(s0)
    2e40:	e4643023          	sd	t1,-448(s0)
    2e44:	e5143423          	sd	a7,-440(s0)
    2e48:	e5043823          	sd	a6,-432(s0)
    2e4c:	e4f43c23          	sd	a5,-424(s0)
    2e50:	e6e43023          	sd	a4,-416(s0)
    2e54:	e6d43423          	sd	a3,-408(s0)
    2e58:	060d2503          	lw	a0,96(s10)
    2e5c:	0605a603          	lw	a2,96(a1)
    2e60:	00751693          	slli	a3,a0,0x7
    2e64:	00001537          	lui	a0,0x1
    2e68:	40a40533          	sub	a0,s0,a0
    2e6c:	6ac53023          	sd	a2,1696(a0) # 16a0 <.LBB66_5+0x264>
    2e70:	00001537          	lui	a0,0x1
    2e74:	40a40533          	sub	a0,s0,a0
    2e78:	6e053503          	ld	a0,1760(a0) # 16e0 <.LBB66_5+0x2a4>
    2e7c:	00c50533          	add	a0,a0,a2
    2e80:	00001637          	lui	a2,0x1
    2e84:	40c40633          	sub	a2,s0,a2
    2e88:	6ed63023          	sd	a3,1760(a2) # 16e0 <.LBB66_5+0x2a4>
    2e8c:	00d50533          	add	a0,a0,a3
    2e90:	405b063b          	subw	a2,s6,t0
    2e94:	40c5053b          	subw	a0,a0,a2
    2e98:	40000637          	lui	a2,0x40000
    2e9c:	000016b7          	lui	a3,0x1
    2ea0:	40d406b3          	sub	a3,s0,a3
    2ea4:	5ea6b823          	sd	a0,1520(a3) # 15f0 <.LBB66_5+0x1b4>
    2ea8:	000016b7          	lui	a3,0x1
    2eac:	40d406b3          	sub	a3,s0,a3
    2eb0:	6e86b983          	ld	s3,1768(a3) # 16e8 <.LBB66_5+0x2ac>
    2eb4:	00055463          	bgez	a0,2ebc <.LBB66_22>
    2eb8:	c0000637          	lui	a2,0xc0000

0000000000002ebc <.LBB66_22>:
    2ebc:	00001537          	lui	a0,0x1
    2ec0:	40a40533          	sub	a0,s0,a0
    2ec4:	5ec53423          	sd	a2,1512(a0) # 15e8 <.LBB66_5+0x1ac>
    2ec8:	de143423          	sd	ra,-536(s0)
    2ecc:	dfb43823          	sd	s11,-528(s0)
    2ed0:	df943c23          	sd	s9,-520(s0)
    2ed4:	e1243423          	sd	s2,-504(s0)
    2ed8:	e0943823          	sd	s1,-496(s0)
    2edc:	e1f43c23          	sd	t6,-488(s0)
    2ee0:	e3e43023          	sd	t5,-480(s0)
    2ee4:	e3d43423          	sd	t4,-472(s0)
    2ee8:	0585ae83          	lw	t4,88(a1)
    2eec:	05c5ae03          	lw	t3,92(a1)
    2ef0:	058d2603          	lw	a2,88(s10)
    2ef4:	05cd2783          	lw	a5,92(s10)
    2ef8:	00002537          	lui	a0,0x2
    2efc:	40a40533          	sub	a0,s0,a0
    2f00:	03853503          	ld	a0,56(a0) # 2038 <.LBB66_5+0xbfc>
    2f04:	00abe333          	or	t1,s7,a0
    2f08:	00002537          	lui	a0,0x2
    2f0c:	40a40533          	sub	a0,s0,a0
    2f10:	05053683          	ld	a3,80(a0) # 2050 <.LBB66_5+0xc14>
    2f14:	00001537          	lui	a0,0x1
    2f18:	40a40533          	sub	a0,s0,a0
    2f1c:	00653423          	sd	t1,8(a0) # 1008 <.LBB66_4+0x164>
    2f20:	00668333          	add	t1,a3,t1
    2f24:	00002537          	lui	a0,0x2
    2f28:	40a40533          	sub	a0,s0,a0
    2f2c:	03053503          	ld	a0,48(a0) # 2030 <.LBB66_5+0xbf4>
    2f30:	00abeab3          	or	s5,s7,a0
    2f34:	00001537          	lui	a0,0x1
    2f38:	40a40533          	sub	a0,s0,a0
    2f3c:	01553823          	sd	s5,16(a0) # 1010 <.LBB66_4+0x16c>
    2f40:	01568ab3          	add	s5,a3,s5
    2f44:	00002537          	lui	a0,0x2
    2f48:	40a40533          	sub	a0,s0,a0
    2f4c:	02853503          	ld	a0,40(a0) # 2028 <.LBB66_5+0xbec>
    2f50:	00abea33          	or	s4,s7,a0
    2f54:	00001537          	lui	a0,0x1
    2f58:	40a40533          	sub	a0,s0,a0
    2f5c:	01453c23          	sd	s4,24(a0) # 1018 <.LBB66_4+0x174>
    2f60:	01468a33          	add	s4,a3,s4
    2f64:	00002537          	lui	a0,0x2
    2f68:	40a40533          	sub	a0,s0,a0
    2f6c:	02053503          	ld	a0,32(a0) # 2020 <.LBB66_5+0xbe4>
    2f70:	00abe3b3          	or	t2,s7,a0
    2f74:	00001537          	lui	a0,0x1
    2f78:	40a40533          	sub	a0,s0,a0
    2f7c:	02753023          	sd	t2,32(a0) # 1020 <.LBB66_4+0x17c>
    2f80:	007683b3          	add	t2,a3,t2
    2f84:	00002537          	lui	a0,0x2
    2f88:	40a40533          	sub	a0,s0,a0
    2f8c:	01853503          	ld	a0,24(a0) # 2018 <.LBB66_5+0xbdc>
    2f90:	00abe833          	or	a6,s7,a0
    2f94:	00001537          	lui	a0,0x1
    2f98:	40a40533          	sub	a0,s0,a0
    2f9c:	03053423          	sd	a6,40(a0) # 1028 <.LBB66_4+0x184>
    2fa0:	01068833          	add	a6,a3,a6
    2fa4:	00002537          	lui	a0,0x2
    2fa8:	40a40533          	sub	a0,s0,a0
    2fac:	01053503          	ld	a0,16(a0) # 2010 <.LBB66_5+0xbd4>
    2fb0:	00abe733          	or	a4,s7,a0
    2fb4:	00001537          	lui	a0,0x1
    2fb8:	40a40533          	sub	a0,s0,a0
    2fbc:	02e53823          	sd	a4,48(a0) # 1030 <.LBB66_4+0x18c>
    2fc0:	00e68733          	add	a4,a3,a4
    2fc4:	00002537          	lui	a0,0x2
    2fc8:	40a40533          	sub	a0,s0,a0
    2fcc:	00853503          	ld	a0,8(a0) # 2008 <.LBB66_5+0xbcc>
    2fd0:	00abe533          	or	a0,s7,a0
    2fd4:	000018b7          	lui	a7,0x1
    2fd8:	411408b3          	sub	a7,s0,a7
    2fdc:	02a8bc23          	sd	a0,56(a7) # 1038 <.LBB66_4+0x194>
    2fe0:	00a68533          	add	a0,a3,a0
    2fe4:	000028b7          	lui	a7,0x2
    2fe8:	411408b3          	sub	a7,s0,a7
    2fec:	0008b883          	ld	a7,0(a7) # 2000 <.LBB66_5+0xbc4>
    2ff0:	011be8b3          	or	a7,s7,a7
    2ff4:	00001f37          	lui	t5,0x1
    2ff8:	41e40f33          	sub	t5,s0,t5
    2ffc:	051f3023          	sd	a7,64(t5) # 1040 <.LBB66_4+0x19c>
    3000:	011686b3          	add	a3,a3,a7
    3004:	00779893          	slli	a7,a5,0x7
    3008:	00761f13          	slli	t5,a2,0x7
    300c:	00001637          	lui	a2,0x1
    3010:	40c40633          	sub	a2,s0,a2
    3014:	69c63823          	sd	t3,1680(a2) # 1690 <.LBB66_5+0x254>
    3018:	01cc0633          	add	a2,s8,t3
    301c:	000017b7          	lui	a5,0x1
    3020:	40f407b3          	sub	a5,s0,a5
    3024:	6bd7b423          	sd	t4,1704(a5) # 16a8 <.LBB66_5+0x26c>
    3028:	01d987b3          	add	a5,s3,t4
    302c:	00001e37          	lui	t3,0x1
    3030:	41c40e33          	sub	t3,s0,t3
    3034:	69ee3423          	sd	t5,1672(t3) # 1688 <.LBB66_5+0x24c>
    3038:	01e787b3          	add	a5,a5,t5
    303c:	00001e37          	lui	t3,0x1
    3040:	41c40e33          	sub	t3,s0,t3
    3044:	6f1e3423          	sd	a7,1768(t3) # 16e8 <.LBB66_5+0x2ac>
    3048:	01160633          	add	a2,a2,a7
    304c:	405b08bb          	subw	a7,s6,t0
    3050:	411608bb          	subw	a7,a2,a7
    3054:	fff40e37          	lui	t3,0xfff40
    3058:	405b063b          	subw	a2,s6,t0
    305c:	40c787bb          	subw	a5,a5,a2
    3060:	00001637          	lui	a2,0x1
    3064:	40c40633          	sub	a2,s0,a2
    3068:	68f63023          	sd	a5,1664(a2) # 1680 <.LBB66_5+0x244>
    306c:	40000637          	lui	a2,0x40000
    3070:	000017b7          	lui	a5,0x1
    3074:	40f407b3          	sub	a5,s0,a5
    3078:	5f17b023          	sd	a7,1504(a5) # 15e0 <.LBB66_5+0x1a4>
    307c:	0008d463          	bgez	a7,3084 <.LBB66_24>
    3080:	c0000637          	lui	a2,0xc0000

0000000000003084 <.LBB66_24>:
    3084:	000017b7          	lui	a5,0x1
    3088:	40f407b3          	sub	a5,s0,a5
    308c:	5cc7bc23          	sd	a2,1496(a5) # 15d8 <.LBB66_5+0x19c>
    3090:	0545a603          	lw	a2,84(a1)
    3094:	f8c43423          	sd	a2,-120(s0)
    3098:	00c5a603          	lw	a2,12(a1)
    309c:	ecc43423          	sd	a2,-312(s0)
    30a0:	0085a603          	lw	a2,8(a1)
    30a4:	ecc43023          	sd	a2,-320(s0)
    30a8:	0045a603          	lw	a2,4(a1)
    30ac:	eac43c23          	sd	a2,-328(s0)
    30b0:	0005a603          	lw	a2,0(a1)
    30b4:	eac43823          	sd	a2,-336(s0)
    30b8:	0105a603          	lw	a2,16(a1)
    30bc:	ecc43823          	sd	a2,-304(s0)
    30c0:	0145a603          	lw	a2,20(a1)
    30c4:	ecc43c23          	sd	a2,-296(s0)
    30c8:	0185a603          	lw	a2,24(a1)
    30cc:	eec43023          	sd	a2,-288(s0)
    30d0:	01c5a603          	lw	a2,28(a1)
    30d4:	eec43423          	sd	a2,-280(s0)
    30d8:	0205a603          	lw	a2,32(a1)
    30dc:	eec43823          	sd	a2,-272(s0)
    30e0:	0245a603          	lw	a2,36(a1)
    30e4:	f2c43023          	sd	a2,-224(s0)
    30e8:	0285a603          	lw	a2,40(a1)
    30ec:	f2c43423          	sd	a2,-216(s0)
    30f0:	02c5a603          	lw	a2,44(a1)
    30f4:	f2c43823          	sd	a2,-208(s0)
    30f8:	0305a603          	lw	a2,48(a1)
    30fc:	f2c43c23          	sd	a2,-200(s0)
    3100:	0345a603          	lw	a2,52(a1)
    3104:	f4c43023          	sd	a2,-192(s0)
    3108:	0385a603          	lw	a2,56(a1)
    310c:	f4c43423          	sd	a2,-184(s0)
    3110:	03c5a603          	lw	a2,60(a1)
    3114:	f4c43823          	sd	a2,-176(s0)
    3118:	0405a603          	lw	a2,64(a1)
    311c:	f4c43c23          	sd	a2,-168(s0)
    3120:	0445a603          	lw	a2,68(a1)
    3124:	f6c43023          	sd	a2,-160(s0)
    3128:	0485a603          	lw	a2,72(a1)
    312c:	f6c43423          	sd	a2,-152(s0)
    3130:	04c5a603          	lw	a2,76(a1)
    3134:	f6c43823          	sd	a2,-144(s0)
    3138:	0505a583          	lw	a1,80(a1)
    313c:	f8b43023          	sd	a1,-128(s0)
    3140:	054d2c83          	lw	s9,84(s10)
    3144:	00cd2583          	lw	a1,12(s10)
    3148:	f8a43823          	sd	a0,-112(s0)
    314c:	00001537          	lui	a0,0x1
    3150:	40a40533          	sub	a0,s0,a0
    3154:	5cb53823          	sd	a1,1488(a0) # 15d0 <.LBB66_5+0x194>
    3158:	008d2583          	lw	a1,8(s10)
    315c:	00001537          	lui	a0,0x1
    3160:	40a40533          	sub	a0,s0,a0
    3164:	5cb53023          	sd	a1,1472(a0) # 15c0 <.LBB66_5+0x184>
    3168:	004d2583          	lw	a1,4(s10)
    316c:	00001537          	lui	a0,0x1
    3170:	40a40533          	sub	a0,s0,a0
    3174:	5ab53823          	sd	a1,1456(a0) # 15b0 <.LBB66_5+0x174>
    3178:	000d2583          	lw	a1,0(s10)
    317c:	00001537          	lui	a0,0x1
    3180:	40a40533          	sub	a0,s0,a0
    3184:	5ab53023          	sd	a1,1440(a0) # 15a0 <.LBB66_5+0x164>
    3188:	010d2583          	lw	a1,16(s10)
    318c:	00001537          	lui	a0,0x1
    3190:	40a40533          	sub	a0,s0,a0
    3194:	58b53c23          	sd	a1,1432(a0) # 1598 <.LBB66_5+0x15c>
    3198:	014d2583          	lw	a1,20(s10)
    319c:	00001537          	lui	a0,0x1
    31a0:	40a40533          	sub	a0,s0,a0
    31a4:	58b53823          	sd	a1,1424(a0) # 1590 <.LBB66_5+0x154>
    31a8:	018d2603          	lw	a2,24(s10)
    31ac:	01cd2083          	lw	ra,28(s10)
    31b0:	020d2d83          	lw	s11,32(s10)
    31b4:	024d2f83          	lw	t6,36(s10)
    31b8:	028d2883          	lw	a7,40(s10)
    31bc:	02cd2f03          	lw	t5,44(s10)
    31c0:	030d2783          	lw	a5,48(s10)
    31c4:	034d2283          	lw	t0,52(s10)
    31c8:	038d2e83          	lw	t4,56(s10)
    31cc:	03cd2483          	lw	s1,60(s10)
    31d0:	040d2903          	lw	s2,64(s10)
    31d4:	044d2983          	lw	s3,68(s10)
    31d8:	048d2b83          	lw	s7,72(s10)
    31dc:	04cd2c03          	lw	s8,76(s10)
    31e0:	050d2d03          	lw	s10,80(s10)
    31e4:	01f30583          	lb	a1,31(t1)
    31e8:	00001537          	lui	a0,0x1
    31ec:	40a40533          	sub	a0,s0,a0
    31f0:	90b53c23          	sd	a1,-1768(a0) # 918 <.LBB66_3+0x6c0>
    31f4:	01e30583          	lb	a1,30(t1)
    31f8:	00001537          	lui	a0,0x1
    31fc:	40a40533          	sub	a0,s0,a0
    3200:	90b53423          	sd	a1,-1784(a0) # 908 <.LBB66_3+0x6b0>
    3204:	01d30583          	lb	a1,29(t1)
    3208:	00001537          	lui	a0,0x1
    320c:	40a40533          	sub	a0,s0,a0
    3210:	8eb53c23          	sd	a1,-1800(a0) # 8f8 <.LBB66_3+0x6a0>
    3214:	01c30583          	lb	a1,28(t1)
    3218:	00001537          	lui	a0,0x1
    321c:	40a40533          	sub	a0,s0,a0
    3220:	8eb53423          	sd	a1,-1816(a0) # 8e8 <.LBB66_3+0x690>
    3224:	01b30583          	lb	a1,27(t1)
    3228:	00001537          	lui	a0,0x1
    322c:	40a40533          	sub	a0,s0,a0
    3230:	8eb53023          	sd	a1,-1824(a0) # 8e0 <.LBB66_3+0x688>
    3234:	01a30583          	lb	a1,26(t1)
    3238:	00001537          	lui	a0,0x1
    323c:	40a40533          	sub	a0,s0,a0
    3240:	8cb53c23          	sd	a1,-1832(a0) # 8d8 <.LBB66_3+0x680>
    3244:	01930583          	lb	a1,25(t1)
    3248:	00001537          	lui	a0,0x1
    324c:	40a40533          	sub	a0,s0,a0
    3250:	8cb53823          	sd	a1,-1840(a0) # 8d0 <.LBB66_3+0x678>
    3254:	01830583          	lb	a1,24(t1)
    3258:	00001537          	lui	a0,0x1
    325c:	40a40533          	sub	a0,s0,a0
    3260:	8cb53423          	sd	a1,-1848(a0) # 8c8 <.LBB66_3+0x670>
    3264:	01730583          	lb	a1,23(t1)
    3268:	00001537          	lui	a0,0x1
    326c:	40a40533          	sub	a0,s0,a0
    3270:	8cb53023          	sd	a1,-1856(a0) # 8c0 <.LBB66_3+0x668>
    3274:	01630583          	lb	a1,22(t1)
    3278:	00001537          	lui	a0,0x1
    327c:	40a40533          	sub	a0,s0,a0
    3280:	8ab53c23          	sd	a1,-1864(a0) # 8b8 <.LBB66_3+0x660>
    3284:	01530583          	lb	a1,21(t1)
    3288:	00001537          	lui	a0,0x1
    328c:	40a40533          	sub	a0,s0,a0
    3290:	8ab53823          	sd	a1,-1872(a0) # 8b0 <.LBB66_3+0x658>
    3294:	01430583          	lb	a1,20(t1)
    3298:	00001537          	lui	a0,0x1
    329c:	40a40533          	sub	a0,s0,a0
    32a0:	8ab53423          	sd	a1,-1880(a0) # 8a8 <.LBB66_3+0x650>
    32a4:	01330583          	lb	a1,19(t1)
    32a8:	00001537          	lui	a0,0x1
    32ac:	40a40533          	sub	a0,s0,a0
    32b0:	8ab53023          	sd	a1,-1888(a0) # 8a0 <.LBB66_3+0x648>
    32b4:	01230583          	lb	a1,18(t1)
    32b8:	00001537          	lui	a0,0x1
    32bc:	40a40533          	sub	a0,s0,a0
    32c0:	88b53c23          	sd	a1,-1896(a0) # 898 <.LBB66_3+0x640>
    32c4:	01130583          	lb	a1,17(t1)
    32c8:	00001537          	lui	a0,0x1
    32cc:	40a40533          	sub	a0,s0,a0
    32d0:	88b53823          	sd	a1,-1904(a0) # 890 <.LBB66_3+0x638>
    32d4:	01030583          	lb	a1,16(t1)
    32d8:	00001537          	lui	a0,0x1
    32dc:	40a40533          	sub	a0,s0,a0
    32e0:	88b53423          	sd	a1,-1912(a0) # 888 <.LBB66_3+0x630>
    32e4:	00f30583          	lb	a1,15(t1)
    32e8:	00001537          	lui	a0,0x1
    32ec:	40a40533          	sub	a0,s0,a0
    32f0:	88b53023          	sd	a1,-1920(a0) # 880 <.LBB66_3+0x628>
    32f4:	00e30583          	lb	a1,14(t1)
    32f8:	00001537          	lui	a0,0x1
    32fc:	40a40533          	sub	a0,s0,a0
    3300:	86b53c23          	sd	a1,-1928(a0) # 878 <.LBB66_3+0x620>
    3304:	00d30583          	lb	a1,13(t1)
    3308:	00001537          	lui	a0,0x1
    330c:	40a40533          	sub	a0,s0,a0
    3310:	86b53823          	sd	a1,-1936(a0) # 870 <.LBB66_3+0x618>
    3314:	00c30583          	lb	a1,12(t1)
    3318:	00001537          	lui	a0,0x1
    331c:	40a40533          	sub	a0,s0,a0
    3320:	86b53423          	sd	a1,-1944(a0) # 868 <.LBB66_3+0x610>
    3324:	00b30583          	lb	a1,11(t1)
    3328:	00001537          	lui	a0,0x1
    332c:	40a40533          	sub	a0,s0,a0
    3330:	86b53023          	sd	a1,-1952(a0) # 860 <.LBB66_3+0x608>
    3334:	00a30583          	lb	a1,10(t1)
    3338:	00001537          	lui	a0,0x1
    333c:	40a40533          	sub	a0,s0,a0
    3340:	84b53c23          	sd	a1,-1960(a0) # 858 <.LBB66_3+0x600>
    3344:	00930583          	lb	a1,9(t1)
    3348:	00001537          	lui	a0,0x1
    334c:	40a40533          	sub	a0,s0,a0
    3350:	84b53823          	sd	a1,-1968(a0) # 850 <.LBB66_3+0x5f8>
    3354:	00830583          	lb	a1,8(t1)
    3358:	00001537          	lui	a0,0x1
    335c:	40a40533          	sub	a0,s0,a0
    3360:	84b53423          	sd	a1,-1976(a0) # 848 <.LBB66_3+0x5f0>
    3364:	00730583          	lb	a1,7(t1)
    3368:	00001537          	lui	a0,0x1
    336c:	40a40533          	sub	a0,s0,a0
    3370:	84b53023          	sd	a1,-1984(a0) # 840 <.LBB66_3+0x5e8>
    3374:	00630583          	lb	a1,6(t1)
    3378:	00001537          	lui	a0,0x1
    337c:	40a40533          	sub	a0,s0,a0
    3380:	82b53c23          	sd	a1,-1992(a0) # 838 <.LBB66_3+0x5e0>
    3384:	00530583          	lb	a1,5(t1)
    3388:	00001537          	lui	a0,0x1
    338c:	40a40533          	sub	a0,s0,a0
    3390:	82b53823          	sd	a1,-2000(a0) # 830 <.LBB66_3+0x5d8>
    3394:	00430583          	lb	a1,4(t1)
    3398:	00001537          	lui	a0,0x1
    339c:	40a40533          	sub	a0,s0,a0
    33a0:	82b53423          	sd	a1,-2008(a0) # 828 <.LBB66_3+0x5d0>
    33a4:	00030583          	lb	a1,0(t1)
    33a8:	00001537          	lui	a0,0x1
    33ac:	40a40533          	sub	a0,s0,a0
    33b0:	82b53023          	sd	a1,-2016(a0) # 820 <.LBB66_3+0x5c8>
    33b4:	00130583          	lb	a1,1(t1)
    33b8:	00001537          	lui	a0,0x1
    33bc:	40a40533          	sub	a0,s0,a0
    33c0:	80b53c23          	sd	a1,-2024(a0) # 818 <.LBB66_3+0x5c0>
    33c4:	00230583          	lb	a1,2(t1)
    33c8:	00001537          	lui	a0,0x1
    33cc:	40a40533          	sub	a0,s0,a0
    33d0:	80b53823          	sd	a1,-2032(a0) # 810 <.LBB66_3+0x5b8>
    33d4:	f9043503          	ld	a0,-112(s0)
    33d8:	00330583          	lb	a1,3(t1)
    33dc:	00001337          	lui	t1,0x1
    33e0:	40640333          	sub	t1,s0,t1
    33e4:	80b33423          	sd	a1,-2040(t1) # 808 <.LBB66_3+0x5b0>
    33e8:	000a8303          	lb	t1,0(s5)
    33ec:	000015b7          	lui	a1,0x1
    33f0:	40b405b3          	sub	a1,s0,a1
    33f4:	a065bc23          	sd	t1,-1512(a1) # a18 <.LBB66_3+0x7c0>
    33f8:	001a8303          	lb	t1,1(s5)
    33fc:	000015b7          	lui	a1,0x1
    3400:	40b405b3          	sub	a1,s0,a1
    3404:	a065b423          	sd	t1,-1528(a1) # a08 <.LBB66_3+0x7b0>
    3408:	002a8303          	lb	t1,2(s5)
    340c:	000015b7          	lui	a1,0x1
    3410:	40b405b3          	sub	a1,s0,a1
    3414:	9e65bc23          	sd	t1,-1544(a1) # 9f8 <.LBB66_3+0x7a0>
    3418:	003a8303          	lb	t1,3(s5)
    341c:	000015b7          	lui	a1,0x1
    3420:	40b405b3          	sub	a1,s0,a1
    3424:	9e65b423          	sd	t1,-1560(a1) # 9e8 <.LBB66_3+0x790>
    3428:	004a8303          	lb	t1,4(s5)
    342c:	000015b7          	lui	a1,0x1
    3430:	40b405b3          	sub	a1,s0,a1
    3434:	9e65b023          	sd	t1,-1568(a1) # 9e0 <.LBB66_3+0x788>
    3438:	005a8303          	lb	t1,5(s5)
    343c:	000015b7          	lui	a1,0x1
    3440:	40b405b3          	sub	a1,s0,a1
    3444:	9c65bc23          	sd	t1,-1576(a1) # 9d8 <.LBB66_3+0x780>
    3448:	006a8303          	lb	t1,6(s5)
    344c:	000015b7          	lui	a1,0x1
    3450:	40b405b3          	sub	a1,s0,a1
    3454:	9c65b823          	sd	t1,-1584(a1) # 9d0 <.LBB66_3+0x778>
    3458:	007a8303          	lb	t1,7(s5)
    345c:	000015b7          	lui	a1,0x1
    3460:	40b405b3          	sub	a1,s0,a1
    3464:	9c65b423          	sd	t1,-1592(a1) # 9c8 <.LBB66_3+0x770>
    3468:	008a8303          	lb	t1,8(s5)
    346c:	000015b7          	lui	a1,0x1
    3470:	40b405b3          	sub	a1,s0,a1
    3474:	9c65b023          	sd	t1,-1600(a1) # 9c0 <.LBB66_3+0x768>
    3478:	009a8303          	lb	t1,9(s5)
    347c:	000015b7          	lui	a1,0x1
    3480:	40b405b3          	sub	a1,s0,a1
    3484:	9a65bc23          	sd	t1,-1608(a1) # 9b8 <.LBB66_3+0x760>
    3488:	00aa8303          	lb	t1,10(s5)
    348c:	000015b7          	lui	a1,0x1
    3490:	40b405b3          	sub	a1,s0,a1
    3494:	9a65b823          	sd	t1,-1616(a1) # 9b0 <.LBB66_3+0x758>
    3498:	00ba8303          	lb	t1,11(s5)
    349c:	000015b7          	lui	a1,0x1
    34a0:	40b405b3          	sub	a1,s0,a1
    34a4:	9a65b423          	sd	t1,-1624(a1) # 9a8 <.LBB66_3+0x750>
    34a8:	00ca8303          	lb	t1,12(s5)
    34ac:	000015b7          	lui	a1,0x1
    34b0:	40b405b3          	sub	a1,s0,a1
    34b4:	9a65b023          	sd	t1,-1632(a1) # 9a0 <.LBB66_3+0x748>
    34b8:	00da8303          	lb	t1,13(s5)
    34bc:	000015b7          	lui	a1,0x1
    34c0:	40b405b3          	sub	a1,s0,a1
    34c4:	9865bc23          	sd	t1,-1640(a1) # 998 <.LBB66_3+0x740>
    34c8:	00ea8303          	lb	t1,14(s5)
    34cc:	000015b7          	lui	a1,0x1
    34d0:	40b405b3          	sub	a1,s0,a1
    34d4:	9865b823          	sd	t1,-1648(a1) # 990 <.LBB66_3+0x738>
    34d8:	00fa8303          	lb	t1,15(s5)
    34dc:	000015b7          	lui	a1,0x1
    34e0:	40b405b3          	sub	a1,s0,a1
    34e4:	9865b423          	sd	t1,-1656(a1) # 988 <.LBB66_3+0x730>
    34e8:	010a8303          	lb	t1,16(s5)
    34ec:	000015b7          	lui	a1,0x1
    34f0:	40b405b3          	sub	a1,s0,a1
    34f4:	9865b023          	sd	t1,-1664(a1) # 980 <.LBB66_3+0x728>
    34f8:	011a8303          	lb	t1,17(s5)
    34fc:	000015b7          	lui	a1,0x1
    3500:	40b405b3          	sub	a1,s0,a1
    3504:	9665bc23          	sd	t1,-1672(a1) # 978 <.LBB66_3+0x720>
    3508:	012a8303          	lb	t1,18(s5)
    350c:	000015b7          	lui	a1,0x1
    3510:	40b405b3          	sub	a1,s0,a1
    3514:	9665b823          	sd	t1,-1680(a1) # 970 <.LBB66_3+0x718>
    3518:	013a8303          	lb	t1,19(s5)
    351c:	000015b7          	lui	a1,0x1
    3520:	40b405b3          	sub	a1,s0,a1
    3524:	9665b423          	sd	t1,-1688(a1) # 968 <.LBB66_3+0x710>
    3528:	014a8303          	lb	t1,20(s5)
    352c:	000015b7          	lui	a1,0x1
    3530:	40b405b3          	sub	a1,s0,a1
    3534:	9665b023          	sd	t1,-1696(a1) # 960 <.LBB66_3+0x708>
    3538:	015a8303          	lb	t1,21(s5)
    353c:	000015b7          	lui	a1,0x1
    3540:	40b405b3          	sub	a1,s0,a1
    3544:	9465bc23          	sd	t1,-1704(a1) # 958 <.LBB66_3+0x700>
    3548:	016a8303          	lb	t1,22(s5)
    354c:	000015b7          	lui	a1,0x1
    3550:	40b405b3          	sub	a1,s0,a1
    3554:	9465b823          	sd	t1,-1712(a1) # 950 <.LBB66_3+0x6f8>
    3558:	017a8303          	lb	t1,23(s5)
    355c:	000015b7          	lui	a1,0x1
    3560:	40b405b3          	sub	a1,s0,a1
    3564:	9465b423          	sd	t1,-1720(a1) # 948 <.LBB66_3+0x6f0>
    3568:	018a8303          	lb	t1,24(s5)
    356c:	000015b7          	lui	a1,0x1
    3570:	40b405b3          	sub	a1,s0,a1
    3574:	9465b023          	sd	t1,-1728(a1) # 940 <.LBB66_3+0x6e8>
    3578:	019a8303          	lb	t1,25(s5)
    357c:	000015b7          	lui	a1,0x1
    3580:	40b405b3          	sub	a1,s0,a1
    3584:	9265bc23          	sd	t1,-1736(a1) # 938 <.LBB66_3+0x6e0>
    3588:	01aa8303          	lb	t1,26(s5)
    358c:	000015b7          	lui	a1,0x1
    3590:	40b405b3          	sub	a1,s0,a1
    3594:	9265b823          	sd	t1,-1744(a1) # 930 <.LBB66_3+0x6d8>
    3598:	01ba8303          	lb	t1,27(s5)
    359c:	000015b7          	lui	a1,0x1
    35a0:	40b405b3          	sub	a1,s0,a1
    35a4:	9265b423          	sd	t1,-1752(a1) # 928 <.LBB66_3+0x6d0>
    35a8:	01ca8303          	lb	t1,28(s5)
    35ac:	000015b7          	lui	a1,0x1
    35b0:	40b405b3          	sub	a1,s0,a1
    35b4:	9265b023          	sd	t1,-1760(a1) # 920 <.LBB66_3+0x6c8>
    35b8:	01da8583          	lb	a1,29(s5)
    35bc:	00001337          	lui	t1,0x1
    35c0:	40640333          	sub	t1,s0,t1
    35c4:	90b33823          	sd	a1,-1776(t1) # 910 <.LBB66_3+0x6b8>
    35c8:	01ea8583          	lb	a1,30(s5)
    35cc:	00001337          	lui	t1,0x1
    35d0:	40640333          	sub	t1,s0,t1
    35d4:	90b33023          	sd	a1,-1792(t1) # 900 <.LBB66_3+0x6a8>
    35d8:	01fa8583          	lb	a1,31(s5)
    35dc:	00001337          	lui	t1,0x1
    35e0:	40640333          	sub	t1,s0,t1
    35e4:	8eb33823          	sd	a1,-1808(t1) # 8f0 <.LBB66_3+0x698>
    35e8:	000a0303          	lb	t1,0(s4)
    35ec:	000015b7          	lui	a1,0x1
    35f0:	40b405b3          	sub	a1,s0,a1
    35f4:	b065bc23          	sd	t1,-1256(a1) # b18 <.LBB66_3+0x8c0>
    35f8:	001a0303          	lb	t1,1(s4)
    35fc:	000015b7          	lui	a1,0x1
    3600:	40b405b3          	sub	a1,s0,a1
    3604:	b065b423          	sd	t1,-1272(a1) # b08 <.LBB66_3+0x8b0>
    3608:	002a0303          	lb	t1,2(s4)
    360c:	000015b7          	lui	a1,0x1
    3610:	40b405b3          	sub	a1,s0,a1
    3614:	ae65bc23          	sd	t1,-1288(a1) # af8 <.LBB66_3+0x8a0>
    3618:	003a0303          	lb	t1,3(s4)
    361c:	000015b7          	lui	a1,0x1
    3620:	40b405b3          	sub	a1,s0,a1
    3624:	ae65b423          	sd	t1,-1304(a1) # ae8 <.LBB66_3+0x890>
    3628:	004a0303          	lb	t1,4(s4)
    362c:	000015b7          	lui	a1,0x1
    3630:	40b405b3          	sub	a1,s0,a1
    3634:	ae65b023          	sd	t1,-1312(a1) # ae0 <.LBB66_3+0x888>
    3638:	005a0303          	lb	t1,5(s4)
    363c:	000015b7          	lui	a1,0x1
    3640:	40b405b3          	sub	a1,s0,a1
    3644:	ac65bc23          	sd	t1,-1320(a1) # ad8 <.LBB66_3+0x880>
    3648:	006a0303          	lb	t1,6(s4)
    364c:	000015b7          	lui	a1,0x1
    3650:	40b405b3          	sub	a1,s0,a1
    3654:	ac65b823          	sd	t1,-1328(a1) # ad0 <.LBB66_3+0x878>
    3658:	007a0303          	lb	t1,7(s4)
    365c:	000015b7          	lui	a1,0x1
    3660:	40b405b3          	sub	a1,s0,a1
    3664:	ac65b423          	sd	t1,-1336(a1) # ac8 <.LBB66_3+0x870>
    3668:	008a0303          	lb	t1,8(s4)
    366c:	000015b7          	lui	a1,0x1
    3670:	40b405b3          	sub	a1,s0,a1
    3674:	ac65b023          	sd	t1,-1344(a1) # ac0 <.LBB66_3+0x868>
    3678:	009a0303          	lb	t1,9(s4)
    367c:	000015b7          	lui	a1,0x1
    3680:	40b405b3          	sub	a1,s0,a1
    3684:	aa65bc23          	sd	t1,-1352(a1) # ab8 <.LBB66_3+0x860>
    3688:	00aa0303          	lb	t1,10(s4)
    368c:	000015b7          	lui	a1,0x1
    3690:	40b405b3          	sub	a1,s0,a1
    3694:	aa65b823          	sd	t1,-1360(a1) # ab0 <.LBB66_3+0x858>
    3698:	00ba0303          	lb	t1,11(s4)
    369c:	000015b7          	lui	a1,0x1
    36a0:	40b405b3          	sub	a1,s0,a1
    36a4:	aa65b423          	sd	t1,-1368(a1) # aa8 <.LBB66_3+0x850>
    36a8:	00ca0303          	lb	t1,12(s4)
    36ac:	000015b7          	lui	a1,0x1
    36b0:	40b405b3          	sub	a1,s0,a1
    36b4:	aa65b023          	sd	t1,-1376(a1) # aa0 <.LBB66_3+0x848>
    36b8:	00da0303          	lb	t1,13(s4)
    36bc:	000015b7          	lui	a1,0x1
    36c0:	40b405b3          	sub	a1,s0,a1
    36c4:	a865bc23          	sd	t1,-1384(a1) # a98 <.LBB66_3+0x840>
    36c8:	00ea0303          	lb	t1,14(s4)
    36cc:	000015b7          	lui	a1,0x1
    36d0:	40b405b3          	sub	a1,s0,a1
    36d4:	a865b823          	sd	t1,-1392(a1) # a90 <.LBB66_3+0x838>
    36d8:	00fa0303          	lb	t1,15(s4)
    36dc:	000015b7          	lui	a1,0x1
    36e0:	40b405b3          	sub	a1,s0,a1
    36e4:	a865b423          	sd	t1,-1400(a1) # a88 <.LBB66_3+0x830>
    36e8:	010a0303          	lb	t1,16(s4)
    36ec:	000015b7          	lui	a1,0x1
    36f0:	40b405b3          	sub	a1,s0,a1
    36f4:	a865b023          	sd	t1,-1408(a1) # a80 <.LBB66_3+0x828>
    36f8:	011a0303          	lb	t1,17(s4)
    36fc:	000015b7          	lui	a1,0x1
    3700:	40b405b3          	sub	a1,s0,a1
    3704:	a665bc23          	sd	t1,-1416(a1) # a78 <.LBB66_3+0x820>
    3708:	012a0303          	lb	t1,18(s4)
    370c:	000015b7          	lui	a1,0x1
    3710:	40b405b3          	sub	a1,s0,a1
    3714:	a665b823          	sd	t1,-1424(a1) # a70 <.LBB66_3+0x818>
    3718:	013a0303          	lb	t1,19(s4)
    371c:	000015b7          	lui	a1,0x1
    3720:	40b405b3          	sub	a1,s0,a1
    3724:	a665b423          	sd	t1,-1432(a1) # a68 <.LBB66_3+0x810>
    3728:	014a0303          	lb	t1,20(s4)
    372c:	000015b7          	lui	a1,0x1
    3730:	40b405b3          	sub	a1,s0,a1
    3734:	a665b023          	sd	t1,-1440(a1) # a60 <.LBB66_3+0x808>
    3738:	015a0303          	lb	t1,21(s4)
    373c:	000015b7          	lui	a1,0x1
    3740:	40b405b3          	sub	a1,s0,a1
    3744:	a465bc23          	sd	t1,-1448(a1) # a58 <.LBB66_3+0x800>
    3748:	016a0303          	lb	t1,22(s4)
    374c:	000015b7          	lui	a1,0x1
    3750:	40b405b3          	sub	a1,s0,a1
    3754:	a465b823          	sd	t1,-1456(a1) # a50 <.LBB66_3+0x7f8>
    3758:	017a0303          	lb	t1,23(s4)
    375c:	000015b7          	lui	a1,0x1
    3760:	40b405b3          	sub	a1,s0,a1
    3764:	a465b423          	sd	t1,-1464(a1) # a48 <.LBB66_3+0x7f0>
    3768:	018a0303          	lb	t1,24(s4)
    376c:	000015b7          	lui	a1,0x1
    3770:	40b405b3          	sub	a1,s0,a1
    3774:	a465b023          	sd	t1,-1472(a1) # a40 <.LBB66_3+0x7e8>
    3778:	019a0303          	lb	t1,25(s4)
    377c:	000015b7          	lui	a1,0x1
    3780:	40b405b3          	sub	a1,s0,a1
    3784:	a265bc23          	sd	t1,-1480(a1) # a38 <.LBB66_3+0x7e0>
    3788:	01aa0303          	lb	t1,26(s4)
    378c:	000015b7          	lui	a1,0x1
    3790:	40b405b3          	sub	a1,s0,a1
    3794:	a265b823          	sd	t1,-1488(a1) # a30 <.LBB66_3+0x7d8>
    3798:	01ba0303          	lb	t1,27(s4)
    379c:	000015b7          	lui	a1,0x1
    37a0:	40b405b3          	sub	a1,s0,a1
    37a4:	a265b423          	sd	t1,-1496(a1) # a28 <.LBB66_3+0x7d0>
    37a8:	01ca0303          	lb	t1,28(s4)
    37ac:	000015b7          	lui	a1,0x1
    37b0:	40b405b3          	sub	a1,s0,a1
    37b4:	a265b023          	sd	t1,-1504(a1) # a20 <.LBB66_3+0x7c8>
    37b8:	01da0303          	lb	t1,29(s4)
    37bc:	000015b7          	lui	a1,0x1
    37c0:	40b405b3          	sub	a1,s0,a1
    37c4:	a065b823          	sd	t1,-1520(a1) # a10 <.LBB66_3+0x7b8>
    37c8:	01ea0303          	lb	t1,30(s4)
    37cc:	000015b7          	lui	a1,0x1
    37d0:	40b405b3          	sub	a1,s0,a1
    37d4:	a065b023          	sd	t1,-1536(a1) # a00 <.LBB66_3+0x7a8>
    37d8:	01fa0303          	lb	t1,31(s4)
    37dc:	000015b7          	lui	a1,0x1
    37e0:	40b405b3          	sub	a1,s0,a1
    37e4:	9e65b823          	sd	t1,-1552(a1) # 9f0 <.LBB66_3+0x798>
    37e8:	00038303          	lb	t1,0(t2)
    37ec:	000015b7          	lui	a1,0x1
    37f0:	40b405b3          	sub	a1,s0,a1
    37f4:	c065bc23          	sd	t1,-1000(a1) # c18 <.LBB66_3+0x9c0>
    37f8:	00138303          	lb	t1,1(t2)
    37fc:	000015b7          	lui	a1,0x1
    3800:	40b405b3          	sub	a1,s0,a1
    3804:	c065b423          	sd	t1,-1016(a1) # c08 <.LBB66_3+0x9b0>
    3808:	00238303          	lb	t1,2(t2)
    380c:	000015b7          	lui	a1,0x1
    3810:	40b405b3          	sub	a1,s0,a1
    3814:	be65bc23          	sd	t1,-1032(a1) # bf8 <.LBB66_3+0x9a0>
    3818:	00338303          	lb	t1,3(t2)
    381c:	000015b7          	lui	a1,0x1
    3820:	40b405b3          	sub	a1,s0,a1
    3824:	be65b423          	sd	t1,-1048(a1) # be8 <.LBB66_3+0x990>
    3828:	00438303          	lb	t1,4(t2)
    382c:	000015b7          	lui	a1,0x1
    3830:	40b405b3          	sub	a1,s0,a1
    3834:	be65b023          	sd	t1,-1056(a1) # be0 <.LBB66_3+0x988>
    3838:	00538303          	lb	t1,5(t2)
    383c:	000015b7          	lui	a1,0x1
    3840:	40b405b3          	sub	a1,s0,a1
    3844:	bc65bc23          	sd	t1,-1064(a1) # bd8 <.LBB66_3+0x980>
    3848:	00638303          	lb	t1,6(t2)
    384c:	000015b7          	lui	a1,0x1
    3850:	40b405b3          	sub	a1,s0,a1
    3854:	bc65b823          	sd	t1,-1072(a1) # bd0 <.LBB66_3+0x978>
    3858:	00738303          	lb	t1,7(t2)
    385c:	000015b7          	lui	a1,0x1
    3860:	40b405b3          	sub	a1,s0,a1
    3864:	bc65b423          	sd	t1,-1080(a1) # bc8 <.LBB66_3+0x970>
    3868:	00838303          	lb	t1,8(t2)
    386c:	000015b7          	lui	a1,0x1
    3870:	40b405b3          	sub	a1,s0,a1
    3874:	bc65b023          	sd	t1,-1088(a1) # bc0 <.LBB66_3+0x968>
    3878:	00938303          	lb	t1,9(t2)
    387c:	000015b7          	lui	a1,0x1
    3880:	40b405b3          	sub	a1,s0,a1
    3884:	ba65bc23          	sd	t1,-1096(a1) # bb8 <.LBB66_3+0x960>
    3888:	00a38303          	lb	t1,10(t2)
    388c:	000015b7          	lui	a1,0x1
    3890:	40b405b3          	sub	a1,s0,a1
    3894:	ba65b823          	sd	t1,-1104(a1) # bb0 <.LBB66_3+0x958>
    3898:	00b38303          	lb	t1,11(t2)
    389c:	000015b7          	lui	a1,0x1
    38a0:	40b405b3          	sub	a1,s0,a1
    38a4:	ba65b423          	sd	t1,-1112(a1) # ba8 <.LBB66_3+0x950>
    38a8:	00c38303          	lb	t1,12(t2)
    38ac:	000015b7          	lui	a1,0x1
    38b0:	40b405b3          	sub	a1,s0,a1
    38b4:	ba65b023          	sd	t1,-1120(a1) # ba0 <.LBB66_3+0x948>
    38b8:	00d38303          	lb	t1,13(t2)
    38bc:	000015b7          	lui	a1,0x1
    38c0:	40b405b3          	sub	a1,s0,a1
    38c4:	b865bc23          	sd	t1,-1128(a1) # b98 <.LBB66_3+0x940>
    38c8:	00e38303          	lb	t1,14(t2)
    38cc:	000015b7          	lui	a1,0x1
    38d0:	40b405b3          	sub	a1,s0,a1
    38d4:	b865b823          	sd	t1,-1136(a1) # b90 <.LBB66_3+0x938>
    38d8:	00f38303          	lb	t1,15(t2)
    38dc:	000015b7          	lui	a1,0x1
    38e0:	40b405b3          	sub	a1,s0,a1
    38e4:	b865b423          	sd	t1,-1144(a1) # b88 <.LBB66_3+0x930>
    38e8:	01038303          	lb	t1,16(t2)
    38ec:	000015b7          	lui	a1,0x1
    38f0:	40b405b3          	sub	a1,s0,a1
    38f4:	b865b023          	sd	t1,-1152(a1) # b80 <.LBB66_3+0x928>
    38f8:	01138303          	lb	t1,17(t2)
    38fc:	000015b7          	lui	a1,0x1
    3900:	40b405b3          	sub	a1,s0,a1
    3904:	b665bc23          	sd	t1,-1160(a1) # b78 <.LBB66_3+0x920>
    3908:	01238303          	lb	t1,18(t2)
    390c:	000015b7          	lui	a1,0x1
    3910:	40b405b3          	sub	a1,s0,a1
    3914:	b665b823          	sd	t1,-1168(a1) # b70 <.LBB66_3+0x918>
    3918:	01338303          	lb	t1,19(t2)
    391c:	000015b7          	lui	a1,0x1
    3920:	40b405b3          	sub	a1,s0,a1
    3924:	b665b423          	sd	t1,-1176(a1) # b68 <.LBB66_3+0x910>
    3928:	01438303          	lb	t1,20(t2)
    392c:	000015b7          	lui	a1,0x1
    3930:	40b405b3          	sub	a1,s0,a1
    3934:	b665b023          	sd	t1,-1184(a1) # b60 <.LBB66_3+0x908>
    3938:	01538303          	lb	t1,21(t2)
    393c:	000015b7          	lui	a1,0x1
    3940:	40b405b3          	sub	a1,s0,a1
    3944:	b465bc23          	sd	t1,-1192(a1) # b58 <.LBB66_3+0x900>
    3948:	01638303          	lb	t1,22(t2)
    394c:	000015b7          	lui	a1,0x1
    3950:	40b405b3          	sub	a1,s0,a1
    3954:	b465b823          	sd	t1,-1200(a1) # b50 <.LBB66_3+0x8f8>
    3958:	01738303          	lb	t1,23(t2)
    395c:	000015b7          	lui	a1,0x1
    3960:	40b405b3          	sub	a1,s0,a1
    3964:	b465b423          	sd	t1,-1208(a1) # b48 <.LBB66_3+0x8f0>
    3968:	01838303          	lb	t1,24(t2)
    396c:	000015b7          	lui	a1,0x1
    3970:	40b405b3          	sub	a1,s0,a1
    3974:	b465b023          	sd	t1,-1216(a1) # b40 <.LBB66_3+0x8e8>
    3978:	01938303          	lb	t1,25(t2)
    397c:	000015b7          	lui	a1,0x1
    3980:	40b405b3          	sub	a1,s0,a1
    3984:	b265bc23          	sd	t1,-1224(a1) # b38 <.LBB66_3+0x8e0>
    3988:	01a38303          	lb	t1,26(t2)
    398c:	000015b7          	lui	a1,0x1
    3990:	40b405b3          	sub	a1,s0,a1
    3994:	b265b823          	sd	t1,-1232(a1) # b30 <.LBB66_3+0x8d8>
    3998:	01b38303          	lb	t1,27(t2)
    399c:	000015b7          	lui	a1,0x1
    39a0:	40b405b3          	sub	a1,s0,a1
    39a4:	b265b423          	sd	t1,-1240(a1) # b28 <.LBB66_3+0x8d0>
    39a8:	01c38303          	lb	t1,28(t2)
    39ac:	000015b7          	lui	a1,0x1
    39b0:	40b405b3          	sub	a1,s0,a1
    39b4:	b265b023          	sd	t1,-1248(a1) # b20 <.LBB66_3+0x8c8>
    39b8:	01d38303          	lb	t1,29(t2)
    39bc:	000015b7          	lui	a1,0x1
    39c0:	40b405b3          	sub	a1,s0,a1
    39c4:	b065b823          	sd	t1,-1264(a1) # b10 <.LBB66_3+0x8b8>
    39c8:	01e38303          	lb	t1,30(t2)
    39cc:	000015b7          	lui	a1,0x1
    39d0:	40b405b3          	sub	a1,s0,a1
    39d4:	b065b023          	sd	t1,-1280(a1) # b00 <.LBB66_3+0x8a8>
    39d8:	01f38303          	lb	t1,31(t2)
    39dc:	000015b7          	lui	a1,0x1
    39e0:	40b405b3          	sub	a1,s0,a1
    39e4:	ae65b823          	sd	t1,-1296(a1) # af0 <.LBB66_3+0x898>
    39e8:	00080303          	lb	t1,0(a6)
    39ec:	000015b7          	lui	a1,0x1
    39f0:	40b405b3          	sub	a1,s0,a1
    39f4:	d065bc23          	sd	t1,-744(a1) # d18 <.LBB66_3+0xac0>
    39f8:	00180303          	lb	t1,1(a6)
    39fc:	000015b7          	lui	a1,0x1
    3a00:	40b405b3          	sub	a1,s0,a1
    3a04:	d065b423          	sd	t1,-760(a1) # d08 <.LBB66_3+0xab0>
    3a08:	00280303          	lb	t1,2(a6)
    3a0c:	000015b7          	lui	a1,0x1
    3a10:	40b405b3          	sub	a1,s0,a1
    3a14:	ce65bc23          	sd	t1,-776(a1) # cf8 <.LBB66_3+0xaa0>
    3a18:	00380303          	lb	t1,3(a6)
    3a1c:	000015b7          	lui	a1,0x1
    3a20:	40b405b3          	sub	a1,s0,a1
    3a24:	ce65b423          	sd	t1,-792(a1) # ce8 <.LBB66_3+0xa90>
    3a28:	00480303          	lb	t1,4(a6)
    3a2c:	000015b7          	lui	a1,0x1
    3a30:	40b405b3          	sub	a1,s0,a1
    3a34:	ce65b023          	sd	t1,-800(a1) # ce0 <.LBB66_3+0xa88>
    3a38:	00580303          	lb	t1,5(a6)
    3a3c:	000015b7          	lui	a1,0x1
    3a40:	40b405b3          	sub	a1,s0,a1
    3a44:	cc65bc23          	sd	t1,-808(a1) # cd8 <.LBB66_3+0xa80>
    3a48:	00680303          	lb	t1,6(a6)
    3a4c:	000015b7          	lui	a1,0x1
    3a50:	40b405b3          	sub	a1,s0,a1
    3a54:	cc65b823          	sd	t1,-816(a1) # cd0 <.LBB66_3+0xa78>
    3a58:	00780303          	lb	t1,7(a6)
    3a5c:	000015b7          	lui	a1,0x1
    3a60:	40b405b3          	sub	a1,s0,a1
    3a64:	cc65b423          	sd	t1,-824(a1) # cc8 <.LBB66_3+0xa70>
    3a68:	00880303          	lb	t1,8(a6)
    3a6c:	000015b7          	lui	a1,0x1
    3a70:	40b405b3          	sub	a1,s0,a1
    3a74:	cc65b023          	sd	t1,-832(a1) # cc0 <.LBB66_3+0xa68>
    3a78:	00980303          	lb	t1,9(a6)
    3a7c:	000015b7          	lui	a1,0x1
    3a80:	40b405b3          	sub	a1,s0,a1
    3a84:	ca65bc23          	sd	t1,-840(a1) # cb8 <.LBB66_3+0xa60>
    3a88:	00a80303          	lb	t1,10(a6)
    3a8c:	000015b7          	lui	a1,0x1
    3a90:	40b405b3          	sub	a1,s0,a1
    3a94:	ca65b823          	sd	t1,-848(a1) # cb0 <.LBB66_3+0xa58>
    3a98:	00b80303          	lb	t1,11(a6)
    3a9c:	000015b7          	lui	a1,0x1
    3aa0:	40b405b3          	sub	a1,s0,a1
    3aa4:	ca65b423          	sd	t1,-856(a1) # ca8 <.LBB66_3+0xa50>
    3aa8:	00c80303          	lb	t1,12(a6)
    3aac:	000015b7          	lui	a1,0x1
    3ab0:	40b405b3          	sub	a1,s0,a1
    3ab4:	ca65b023          	sd	t1,-864(a1) # ca0 <.LBB66_3+0xa48>
    3ab8:	00d80303          	lb	t1,13(a6)
    3abc:	000015b7          	lui	a1,0x1
    3ac0:	40b405b3          	sub	a1,s0,a1
    3ac4:	c865bc23          	sd	t1,-872(a1) # c98 <.LBB66_3+0xa40>
    3ac8:	00e80303          	lb	t1,14(a6)
    3acc:	000015b7          	lui	a1,0x1
    3ad0:	40b405b3          	sub	a1,s0,a1
    3ad4:	c865b823          	sd	t1,-880(a1) # c90 <.LBB66_3+0xa38>
    3ad8:	00f80303          	lb	t1,15(a6)
    3adc:	000015b7          	lui	a1,0x1
    3ae0:	40b405b3          	sub	a1,s0,a1
    3ae4:	c865b423          	sd	t1,-888(a1) # c88 <.LBB66_3+0xa30>
    3ae8:	01080303          	lb	t1,16(a6)
    3aec:	000015b7          	lui	a1,0x1
    3af0:	40b405b3          	sub	a1,s0,a1
    3af4:	c865b023          	sd	t1,-896(a1) # c80 <.LBB66_3+0xa28>
    3af8:	01180303          	lb	t1,17(a6)
    3afc:	000015b7          	lui	a1,0x1
    3b00:	40b405b3          	sub	a1,s0,a1
    3b04:	c665bc23          	sd	t1,-904(a1) # c78 <.LBB66_3+0xa20>
    3b08:	01280303          	lb	t1,18(a6)
    3b0c:	000015b7          	lui	a1,0x1
    3b10:	40b405b3          	sub	a1,s0,a1
    3b14:	c665b823          	sd	t1,-912(a1) # c70 <.LBB66_3+0xa18>
    3b18:	01380303          	lb	t1,19(a6)
    3b1c:	000015b7          	lui	a1,0x1
    3b20:	40b405b3          	sub	a1,s0,a1
    3b24:	c665b423          	sd	t1,-920(a1) # c68 <.LBB66_3+0xa10>
    3b28:	01480303          	lb	t1,20(a6)
    3b2c:	000015b7          	lui	a1,0x1
    3b30:	40b405b3          	sub	a1,s0,a1
    3b34:	c665b023          	sd	t1,-928(a1) # c60 <.LBB66_3+0xa08>
    3b38:	01580303          	lb	t1,21(a6)
    3b3c:	000015b7          	lui	a1,0x1
    3b40:	40b405b3          	sub	a1,s0,a1
    3b44:	c465bc23          	sd	t1,-936(a1) # c58 <.LBB66_3+0xa00>
    3b48:	01680303          	lb	t1,22(a6)
    3b4c:	000015b7          	lui	a1,0x1
    3b50:	40b405b3          	sub	a1,s0,a1
    3b54:	c465b823          	sd	t1,-944(a1) # c50 <.LBB66_3+0x9f8>
    3b58:	01780303          	lb	t1,23(a6)
    3b5c:	000015b7          	lui	a1,0x1
    3b60:	40b405b3          	sub	a1,s0,a1
    3b64:	c465b423          	sd	t1,-952(a1) # c48 <.LBB66_3+0x9f0>
    3b68:	01880303          	lb	t1,24(a6)
    3b6c:	000015b7          	lui	a1,0x1
    3b70:	40b405b3          	sub	a1,s0,a1
    3b74:	c465b023          	sd	t1,-960(a1) # c40 <.LBB66_3+0x9e8>
    3b78:	01980303          	lb	t1,25(a6)
    3b7c:	000015b7          	lui	a1,0x1
    3b80:	40b405b3          	sub	a1,s0,a1
    3b84:	c265bc23          	sd	t1,-968(a1) # c38 <.LBB66_3+0x9e0>
    3b88:	01a80303          	lb	t1,26(a6)
    3b8c:	000015b7          	lui	a1,0x1
    3b90:	40b405b3          	sub	a1,s0,a1
    3b94:	c265b823          	sd	t1,-976(a1) # c30 <.LBB66_3+0x9d8>
    3b98:	01b80303          	lb	t1,27(a6)
    3b9c:	000015b7          	lui	a1,0x1
    3ba0:	40b405b3          	sub	a1,s0,a1
    3ba4:	c265b423          	sd	t1,-984(a1) # c28 <.LBB66_3+0x9d0>
    3ba8:	01c80303          	lb	t1,28(a6)
    3bac:	000015b7          	lui	a1,0x1
    3bb0:	40b405b3          	sub	a1,s0,a1
    3bb4:	c265b023          	sd	t1,-992(a1) # c20 <.LBB66_3+0x9c8>
    3bb8:	01d80303          	lb	t1,29(a6)
    3bbc:	000015b7          	lui	a1,0x1
    3bc0:	40b405b3          	sub	a1,s0,a1
    3bc4:	c065b823          	sd	t1,-1008(a1) # c10 <.LBB66_3+0x9b8>
    3bc8:	01e80303          	lb	t1,30(a6)
    3bcc:	000015b7          	lui	a1,0x1
    3bd0:	40b405b3          	sub	a1,s0,a1
    3bd4:	c065b023          	sd	t1,-1024(a1) # c00 <.LBB66_3+0x9a8>
    3bd8:	01f80803          	lb	a6,31(a6)
    3bdc:	000015b7          	lui	a1,0x1
    3be0:	40b405b3          	sub	a1,s0,a1
    3be4:	bf05b823          	sd	a6,-1040(a1) # bf0 <.LBB66_3+0x998>
    3be8:	00070803          	lb	a6,0(a4)
    3bec:	000015b7          	lui	a1,0x1
    3bf0:	40b405b3          	sub	a1,s0,a1
    3bf4:	e505b023          	sd	a6,-448(a1) # e40 <.LBB66_3+0xbe8>
    3bf8:	00170803          	lb	a6,1(a4)
    3bfc:	000015b7          	lui	a1,0x1
    3c00:	40b405b3          	sub	a1,s0,a1
    3c04:	e305b823          	sd	a6,-464(a1) # e30 <.LBB66_3+0xbd8>
    3c08:	00270803          	lb	a6,2(a4)
    3c0c:	000015b7          	lui	a1,0x1
    3c10:	40b405b3          	sub	a1,s0,a1
    3c14:	e305b023          	sd	a6,-480(a1) # e20 <.LBB66_3+0xbc8>
    3c18:	00370803          	lb	a6,3(a4)
    3c1c:	000015b7          	lui	a1,0x1
    3c20:	40b405b3          	sub	a1,s0,a1
    3c24:	e105b823          	sd	a6,-496(a1) # e10 <.LBB66_3+0xbb8>
    3c28:	00470803          	lb	a6,4(a4)
    3c2c:	000015b7          	lui	a1,0x1
    3c30:	40b405b3          	sub	a1,s0,a1
    3c34:	e105b023          	sd	a6,-512(a1) # e00 <.LBB66_3+0xba8>
    3c38:	00570803          	lb	a6,5(a4)
    3c3c:	000015b7          	lui	a1,0x1
    3c40:	40b405b3          	sub	a1,s0,a1
    3c44:	df05b423          	sd	a6,-536(a1) # de8 <.LBB66_3+0xb90>
    3c48:	00670803          	lb	a6,6(a4)
    3c4c:	000015b7          	lui	a1,0x1
    3c50:	40b405b3          	sub	a1,s0,a1
    3c54:	dd05bc23          	sd	a6,-552(a1) # dd8 <.LBB66_3+0xb80>
    3c58:	00770803          	lb	a6,7(a4)
    3c5c:	000015b7          	lui	a1,0x1
    3c60:	40b405b3          	sub	a1,s0,a1
    3c64:	dd05b423          	sd	a6,-568(a1) # dc8 <.LBB66_3+0xb70>
    3c68:	00870803          	lb	a6,8(a4)
    3c6c:	000015b7          	lui	a1,0x1
    3c70:	40b405b3          	sub	a1,s0,a1
    3c74:	dd05b023          	sd	a6,-576(a1) # dc0 <.LBB66_3+0xb68>
    3c78:	00970803          	lb	a6,9(a4)
    3c7c:	000015b7          	lui	a1,0x1
    3c80:	40b405b3          	sub	a1,s0,a1
    3c84:	db05bc23          	sd	a6,-584(a1) # db8 <.LBB66_3+0xb60>
    3c88:	00a70803          	lb	a6,10(a4)
    3c8c:	000015b7          	lui	a1,0x1
    3c90:	40b405b3          	sub	a1,s0,a1
    3c94:	db05b823          	sd	a6,-592(a1) # db0 <.LBB66_3+0xb58>
    3c98:	00b70803          	lb	a6,11(a4)
    3c9c:	000015b7          	lui	a1,0x1
    3ca0:	40b405b3          	sub	a1,s0,a1
    3ca4:	db05b423          	sd	a6,-600(a1) # da8 <.LBB66_3+0xb50>
    3ca8:	00c70803          	lb	a6,12(a4)
    3cac:	000015b7          	lui	a1,0x1
    3cb0:	40b405b3          	sub	a1,s0,a1
    3cb4:	db05b023          	sd	a6,-608(a1) # da0 <.LBB66_3+0xb48>
    3cb8:	00d70803          	lb	a6,13(a4)
    3cbc:	000015b7          	lui	a1,0x1
    3cc0:	40b405b3          	sub	a1,s0,a1
    3cc4:	d905bc23          	sd	a6,-616(a1) # d98 <.LBB66_3+0xb40>
    3cc8:	00e70803          	lb	a6,14(a4)
    3ccc:	000015b7          	lui	a1,0x1
    3cd0:	40b405b3          	sub	a1,s0,a1
    3cd4:	d905b823          	sd	a6,-624(a1) # d90 <.LBB66_3+0xb38>
    3cd8:	00f70803          	lb	a6,15(a4)
    3cdc:	000015b7          	lui	a1,0x1
    3ce0:	40b405b3          	sub	a1,s0,a1
    3ce4:	d905b423          	sd	a6,-632(a1) # d88 <.LBB66_3+0xb30>
    3ce8:	01070803          	lb	a6,16(a4)
    3cec:	000015b7          	lui	a1,0x1
    3cf0:	40b405b3          	sub	a1,s0,a1
    3cf4:	d905b023          	sd	a6,-640(a1) # d80 <.LBB66_3+0xb28>
    3cf8:	01170803          	lb	a6,17(a4)
    3cfc:	000015b7          	lui	a1,0x1
    3d00:	40b405b3          	sub	a1,s0,a1
    3d04:	d705bc23          	sd	a6,-648(a1) # d78 <.LBB66_3+0xb20>
    3d08:	01270803          	lb	a6,18(a4)
    3d0c:	000015b7          	lui	a1,0x1
    3d10:	40b405b3          	sub	a1,s0,a1
    3d14:	d705b823          	sd	a6,-656(a1) # d70 <.LBB66_3+0xb18>
    3d18:	01370803          	lb	a6,19(a4)
    3d1c:	000015b7          	lui	a1,0x1
    3d20:	40b405b3          	sub	a1,s0,a1
    3d24:	d705b423          	sd	a6,-664(a1) # d68 <.LBB66_3+0xb10>
    3d28:	01470803          	lb	a6,20(a4)
    3d2c:	000015b7          	lui	a1,0x1
    3d30:	40b405b3          	sub	a1,s0,a1
    3d34:	d705b023          	sd	a6,-672(a1) # d60 <.LBB66_3+0xb08>
    3d38:	01570803          	lb	a6,21(a4)
    3d3c:	000015b7          	lui	a1,0x1
    3d40:	40b405b3          	sub	a1,s0,a1
    3d44:	d505bc23          	sd	a6,-680(a1) # d58 <.LBB66_3+0xb00>
    3d48:	01670803          	lb	a6,22(a4)
    3d4c:	000015b7          	lui	a1,0x1
    3d50:	40b405b3          	sub	a1,s0,a1
    3d54:	d505b823          	sd	a6,-688(a1) # d50 <.LBB66_3+0xaf8>
    3d58:	01770803          	lb	a6,23(a4)
    3d5c:	000015b7          	lui	a1,0x1
    3d60:	40b405b3          	sub	a1,s0,a1
    3d64:	d505b423          	sd	a6,-696(a1) # d48 <.LBB66_3+0xaf0>
    3d68:	01870803          	lb	a6,24(a4)
    3d6c:	000015b7          	lui	a1,0x1
    3d70:	40b405b3          	sub	a1,s0,a1
    3d74:	d505b023          	sd	a6,-704(a1) # d40 <.LBB66_3+0xae8>
    3d78:	01970803          	lb	a6,25(a4)
    3d7c:	000015b7          	lui	a1,0x1
    3d80:	40b405b3          	sub	a1,s0,a1
    3d84:	d305bc23          	sd	a6,-712(a1) # d38 <.LBB66_3+0xae0>
    3d88:	01a70803          	lb	a6,26(a4)
    3d8c:	000015b7          	lui	a1,0x1
    3d90:	40b405b3          	sub	a1,s0,a1
    3d94:	d305b823          	sd	a6,-720(a1) # d30 <.LBB66_3+0xad8>
    3d98:	01b70803          	lb	a6,27(a4)
    3d9c:	000015b7          	lui	a1,0x1
    3da0:	40b405b3          	sub	a1,s0,a1
    3da4:	d305b423          	sd	a6,-728(a1) # d28 <.LBB66_3+0xad0>
    3da8:	01c70803          	lb	a6,28(a4)
    3dac:	000015b7          	lui	a1,0x1
    3db0:	40b405b3          	sub	a1,s0,a1
    3db4:	d305b023          	sd	a6,-736(a1) # d20 <.LBB66_3+0xac8>
    3db8:	01d70803          	lb	a6,29(a4)
    3dbc:	000015b7          	lui	a1,0x1
    3dc0:	40b405b3          	sub	a1,s0,a1
    3dc4:	d105b823          	sd	a6,-752(a1) # d10 <.LBB66_3+0xab8>
    3dc8:	01e70803          	lb	a6,30(a4)
    3dcc:	000015b7          	lui	a1,0x1
    3dd0:	40b405b3          	sub	a1,s0,a1
    3dd4:	d105b023          	sd	a6,-768(a1) # d00 <.LBB66_3+0xaa8>
    3dd8:	01f70703          	lb	a4,31(a4)
    3ddc:	000015b7          	lui	a1,0x1
    3de0:	40b405b3          	sub	a1,s0,a1
    3de4:	cee5b823          	sd	a4,-784(a1) # cf0 <.LBB66_3+0xa98>
    3de8:	00050703          	lb	a4,0(a0)
    3dec:	000015b7          	lui	a1,0x1
    3df0:	40b405b3          	sub	a1,s0,a1
    3df4:	f2e5b023          	sd	a4,-224(a1) # f20 <.LBB66_4+0x7c>
    3df8:	00150703          	lb	a4,1(a0)
    3dfc:	000015b7          	lui	a1,0x1
    3e00:	40b405b3          	sub	a1,s0,a1
    3e04:	f0e5b423          	sd	a4,-248(a1) # f08 <.LBB66_4+0x64>
    3e08:	00250703          	lb	a4,2(a0)
    3e0c:	000015b7          	lui	a1,0x1
    3e10:	40b405b3          	sub	a1,s0,a1
    3e14:	eee5bc23          	sd	a4,-264(a1) # ef8 <.LBB66_4+0x54>
    3e18:	00350703          	lb	a4,3(a0)
    3e1c:	000015b7          	lui	a1,0x1
    3e20:	40b405b3          	sub	a1,s0,a1
    3e24:	eee5b823          	sd	a4,-272(a1) # ef0 <.LBB66_4+0x4c>
    3e28:	00450703          	lb	a4,4(a0)
    3e2c:	000015b7          	lui	a1,0x1
    3e30:	40b405b3          	sub	a1,s0,a1
    3e34:	eee5b423          	sd	a4,-280(a1) # ee8 <.LBB66_4+0x44>
    3e38:	00550703          	lb	a4,5(a0)
    3e3c:	000015b7          	lui	a1,0x1
    3e40:	40b405b3          	sub	a1,s0,a1
    3e44:	eee5b023          	sd	a4,-288(a1) # ee0 <.LBB66_4+0x3c>
    3e48:	00650703          	lb	a4,6(a0)
    3e4c:	000015b7          	lui	a1,0x1
    3e50:	40b405b3          	sub	a1,s0,a1
    3e54:	ece5b823          	sd	a4,-304(a1) # ed0 <.LBB66_4+0x2c>
    3e58:	00750703          	lb	a4,7(a0)
    3e5c:	000015b7          	lui	a1,0x1
    3e60:	40b405b3          	sub	a1,s0,a1
    3e64:	ece5b423          	sd	a4,-312(a1) # ec8 <.LBB66_4+0x24>
    3e68:	00850703          	lb	a4,8(a0)
    3e6c:	000015b7          	lui	a1,0x1
    3e70:	40b405b3          	sub	a1,s0,a1
    3e74:	ece5b023          	sd	a4,-320(a1) # ec0 <.LBB66_4+0x1c>
    3e78:	00950703          	lb	a4,9(a0)
    3e7c:	000015b7          	lui	a1,0x1
    3e80:	40b405b3          	sub	a1,s0,a1
    3e84:	eae5bc23          	sd	a4,-328(a1) # eb8 <.LBB66_4+0x14>
    3e88:	00a50703          	lb	a4,10(a0)
    3e8c:	000015b7          	lui	a1,0x1
    3e90:	40b405b3          	sub	a1,s0,a1
    3e94:	eae5b823          	sd	a4,-336(a1) # eb0 <.LBB66_4+0xc>
    3e98:	00b50703          	lb	a4,11(a0)
    3e9c:	000015b7          	lui	a1,0x1
    3ea0:	40b405b3          	sub	a1,s0,a1
    3ea4:	eae5b423          	sd	a4,-344(a1) # ea8 <.LBB66_4+0x4>
    3ea8:	00c50703          	lb	a4,12(a0)
    3eac:	000015b7          	lui	a1,0x1
    3eb0:	40b405b3          	sub	a1,s0,a1
    3eb4:	eae5b023          	sd	a4,-352(a1) # ea0 <.LBB66_3+0xc48>
    3eb8:	00d50703          	lb	a4,13(a0)
    3ebc:	000015b7          	lui	a1,0x1
    3ec0:	40b405b3          	sub	a1,s0,a1
    3ec4:	e8e5bc23          	sd	a4,-360(a1) # e98 <.LBB66_3+0xc40>
    3ec8:	00e50703          	lb	a4,14(a0)
    3ecc:	000015b7          	lui	a1,0x1
    3ed0:	40b405b3          	sub	a1,s0,a1
    3ed4:	e8e5b823          	sd	a4,-368(a1) # e90 <.LBB66_3+0xc38>
    3ed8:	00f50703          	lb	a4,15(a0)
    3edc:	000015b7          	lui	a1,0x1
    3ee0:	40b405b3          	sub	a1,s0,a1
    3ee4:	e8e5b423          	sd	a4,-376(a1) # e88 <.LBB66_3+0xc30>
    3ee8:	01050703          	lb	a4,16(a0)
    3eec:	000015b7          	lui	a1,0x1
    3ef0:	40b405b3          	sub	a1,s0,a1
    3ef4:	e8e5b023          	sd	a4,-384(a1) # e80 <.LBB66_3+0xc28>
    3ef8:	01150703          	lb	a4,17(a0)
    3efc:	000015b7          	lui	a1,0x1
    3f00:	40b405b3          	sub	a1,s0,a1
    3f04:	e6e5bc23          	sd	a4,-392(a1) # e78 <.LBB66_3+0xc20>
    3f08:	01250703          	lb	a4,18(a0)
    3f0c:	000015b7          	lui	a1,0x1
    3f10:	40b405b3          	sub	a1,s0,a1
    3f14:	e6e5b823          	sd	a4,-400(a1) # e70 <.LBB66_3+0xc18>
    3f18:	01e68703          	lb	a4,30(a3)
    3f1c:	000015b7          	lui	a1,0x1
    3f20:	40b405b3          	sub	a1,s0,a1
    3f24:	f0e5b023          	sd	a4,-256(a1) # f00 <.LBB66_4+0x5c>
    3f28:	01d68703          	lb	a4,29(a3)
    3f2c:	000015b7          	lui	a1,0x1
    3f30:	40b405b3          	sub	a1,s0,a1
    3f34:	f0e5b823          	sd	a4,-240(a1) # f10 <.LBB66_4+0x6c>
    3f38:	01c68703          	lb	a4,28(a3)
    3f3c:	000015b7          	lui	a1,0x1
    3f40:	40b405b3          	sub	a1,s0,a1
    3f44:	f0e5bc23          	sd	a4,-232(a1) # f18 <.LBB66_4+0x74>
    3f48:	01b68703          	lb	a4,27(a3)
    3f4c:	000015b7          	lui	a1,0x1
    3f50:	40b405b3          	sub	a1,s0,a1
    3f54:	f2e5b423          	sd	a4,-216(a1) # f28 <.LBB66_4+0x84>
    3f58:	01a68703          	lb	a4,26(a3)
    3f5c:	000015b7          	lui	a1,0x1
    3f60:	40b405b3          	sub	a1,s0,a1
    3f64:	f2e5b823          	sd	a4,-208(a1) # f30 <.LBB66_4+0x8c>
    3f68:	01968703          	lb	a4,25(a3)
    3f6c:	000015b7          	lui	a1,0x1
    3f70:	40b405b3          	sub	a1,s0,a1
    3f74:	f2e5bc23          	sd	a4,-200(a1) # f38 <.LBB66_4+0x94>
    3f78:	01868703          	lb	a4,24(a3)
    3f7c:	000015b7          	lui	a1,0x1
    3f80:	40b405b3          	sub	a1,s0,a1
    3f84:	f4e5b023          	sd	a4,-192(a1) # f40 <.LBB66_4+0x9c>
    3f88:	01768703          	lb	a4,23(a3)
    3f8c:	000015b7          	lui	a1,0x1
    3f90:	40b405b3          	sub	a1,s0,a1
    3f94:	f4e5b423          	sd	a4,-184(a1) # f48 <.LBB66_4+0xa4>
    3f98:	01668703          	lb	a4,22(a3)
    3f9c:	000015b7          	lui	a1,0x1
    3fa0:	40b405b3          	sub	a1,s0,a1
    3fa4:	f4e5b823          	sd	a4,-176(a1) # f50 <.LBB66_4+0xac>
    3fa8:	01568703          	lb	a4,21(a3)
    3fac:	000015b7          	lui	a1,0x1
    3fb0:	40b405b3          	sub	a1,s0,a1
    3fb4:	f4e5bc23          	sd	a4,-168(a1) # f58 <.LBB66_4+0xb4>
    3fb8:	01468703          	lb	a4,20(a3)
    3fbc:	000015b7          	lui	a1,0x1
    3fc0:	40b405b3          	sub	a1,s0,a1
    3fc4:	f6e5b023          	sd	a4,-160(a1) # f60 <.LBB66_4+0xbc>
    3fc8:	01368703          	lb	a4,19(a3)
    3fcc:	000015b7          	lui	a1,0x1
    3fd0:	40b405b3          	sub	a1,s0,a1
    3fd4:	f6e5b423          	sd	a4,-152(a1) # f68 <.LBB66_4+0xc4>
    3fd8:	01268703          	lb	a4,18(a3)
    3fdc:	000015b7          	lui	a1,0x1
    3fe0:	40b405b3          	sub	a1,s0,a1
    3fe4:	f6e5b823          	sd	a4,-144(a1) # f70 <.LBB66_4+0xcc>
    3fe8:	01168703          	lb	a4,17(a3)
    3fec:	000015b7          	lui	a1,0x1
    3ff0:	40b405b3          	sub	a1,s0,a1
    3ff4:	f6e5bc23          	sd	a4,-136(a1) # f78 <.LBB66_4+0xd4>
    3ff8:	01068703          	lb	a4,16(a3)
    3ffc:	000015b7          	lui	a1,0x1
    4000:	40b405b3          	sub	a1,s0,a1
    4004:	f8e5b023          	sd	a4,-128(a1) # f80 <.LBB66_4+0xdc>
    4008:	00f68703          	lb	a4,15(a3)
    400c:	000015b7          	lui	a1,0x1
    4010:	40b405b3          	sub	a1,s0,a1
    4014:	f8e5b423          	sd	a4,-120(a1) # f88 <.LBB66_4+0xe4>
    4018:	00e68703          	lb	a4,14(a3)
    401c:	000015b7          	lui	a1,0x1
    4020:	40b405b3          	sub	a1,s0,a1
    4024:	f8e5b823          	sd	a4,-112(a1) # f90 <.LBB66_4+0xec>
    4028:	00d68703          	lb	a4,13(a3)
    402c:	000015b7          	lui	a1,0x1
    4030:	40b405b3          	sub	a1,s0,a1
    4034:	f8e5bc23          	sd	a4,-104(a1) # f98 <.LBB66_4+0xf4>
    4038:	00c68703          	lb	a4,12(a3)
    403c:	000015b7          	lui	a1,0x1
    4040:	40b405b3          	sub	a1,s0,a1
    4044:	fae5b023          	sd	a4,-96(a1) # fa0 <.LBB66_4+0xfc>
    4048:	00b68703          	lb	a4,11(a3)
    404c:	000015b7          	lui	a1,0x1
    4050:	40b405b3          	sub	a1,s0,a1
    4054:	fae5b423          	sd	a4,-88(a1) # fa8 <.LBB66_4+0x104>
    4058:	00a68703          	lb	a4,10(a3)
    405c:	000015b7          	lui	a1,0x1
    4060:	40b405b3          	sub	a1,s0,a1
    4064:	fae5b823          	sd	a4,-80(a1) # fb0 <.LBB66_4+0x10c>
    4068:	00968703          	lb	a4,9(a3)
    406c:	000015b7          	lui	a1,0x1
    4070:	40b405b3          	sub	a1,s0,a1
    4074:	fae5bc23          	sd	a4,-72(a1) # fb8 <.LBB66_4+0x114>
    4078:	00868703          	lb	a4,8(a3)
    407c:	000015b7          	lui	a1,0x1
    4080:	40b405b3          	sub	a1,s0,a1
    4084:	fce5b023          	sd	a4,-64(a1) # fc0 <.LBB66_4+0x11c>
    4088:	00768703          	lb	a4,7(a3)
    408c:	000015b7          	lui	a1,0x1
    4090:	40b405b3          	sub	a1,s0,a1
    4094:	fce5b423          	sd	a4,-56(a1) # fc8 <.LBB66_4+0x124>
    4098:	00668703          	lb	a4,6(a3)
    409c:	000015b7          	lui	a1,0x1
    40a0:	40b405b3          	sub	a1,s0,a1
    40a4:	fce5b823          	sd	a4,-48(a1) # fd0 <.LBB66_4+0x12c>
    40a8:	00568703          	lb	a4,5(a3)
    40ac:	000015b7          	lui	a1,0x1
    40b0:	40b405b3          	sub	a1,s0,a1
    40b4:	fce5bc23          	sd	a4,-40(a1) # fd8 <.LBB66_4+0x134>
    40b8:	00468703          	lb	a4,4(a3)
    40bc:	000015b7          	lui	a1,0x1
    40c0:	40b405b3          	sub	a1,s0,a1
    40c4:	fee5b023          	sd	a4,-32(a1) # fe0 <.LBB66_4+0x13c>
    40c8:	00368703          	lb	a4,3(a3)
    40cc:	000015b7          	lui	a1,0x1
    40d0:	40b405b3          	sub	a1,s0,a1
    40d4:	fee5b423          	sd	a4,-24(a1) # fe8 <.LBB66_4+0x144>
    40d8:	00268703          	lb	a4,2(a3)
    40dc:	000015b7          	lui	a1,0x1
    40e0:	40b405b3          	sub	a1,s0,a1
    40e4:	fee5b823          	sd	a4,-16(a1) # ff0 <.LBB66_4+0x14c>
    40e8:	00168703          	lb	a4,1(a3)
    40ec:	000015b7          	lui	a1,0x1
    40f0:	40b405b3          	sub	a1,s0,a1
    40f4:	fee5bc23          	sd	a4,-8(a1) # ff8 <.LBB66_4+0x154>
    40f8:	00068703          	lb	a4,0(a3)
    40fc:	000015b7          	lui	a1,0x1
    4100:	40b405b3          	sub	a1,s0,a1
    4104:	00e5b023          	sd	a4,0(a1) # 1000 <.LBB66_4+0x15c>
    4108:	01f50703          	lb	a4,31(a0)
    410c:	000015b7          	lui	a1,0x1
    4110:	40b405b3          	sub	a1,s0,a1
    4114:	dce5b823          	sd	a4,-560(a1) # dd0 <.LBB66_3+0xb78>
    4118:	01e50703          	lb	a4,30(a0)
    411c:	000015b7          	lui	a1,0x1
    4120:	40b405b3          	sub	a1,s0,a1
    4124:	dee5b023          	sd	a4,-544(a1) # de0 <.LBB66_3+0xb88>
    4128:	01d50703          	lb	a4,29(a0)
    412c:	000015b7          	lui	a1,0x1
    4130:	40b405b3          	sub	a1,s0,a1
    4134:	dee5b823          	sd	a4,-528(a1) # df0 <.LBB66_3+0xb98>
    4138:	01c50703          	lb	a4,28(a0)
    413c:	000015b7          	lui	a1,0x1
    4140:	40b405b3          	sub	a1,s0,a1
    4144:	dee5bc23          	sd	a4,-520(a1) # df8 <.LBB66_3+0xba0>
    4148:	01b50703          	lb	a4,27(a0)
    414c:	000015b7          	lui	a1,0x1
    4150:	40b405b3          	sub	a1,s0,a1
    4154:	e0e5b423          	sd	a4,-504(a1) # e08 <.LBB66_3+0xbb0>
    4158:	01a50703          	lb	a4,26(a0)
    415c:	000015b7          	lui	a1,0x1
    4160:	40b405b3          	sub	a1,s0,a1
    4164:	e0e5bc23          	sd	a4,-488(a1) # e18 <.LBB66_3+0xbc0>
    4168:	01950703          	lb	a4,25(a0)
    416c:	000015b7          	lui	a1,0x1
    4170:	40b405b3          	sub	a1,s0,a1
    4174:	e2e5b423          	sd	a4,-472(a1) # e28 <.LBB66_3+0xbd0>
    4178:	01850703          	lb	a4,24(a0)
    417c:	000015b7          	lui	a1,0x1
    4180:	40b405b3          	sub	a1,s0,a1
    4184:	e2e5bc23          	sd	a4,-456(a1) # e38 <.LBB66_3+0xbe0>
    4188:	01750703          	lb	a4,23(a0)
    418c:	000015b7          	lui	a1,0x1
    4190:	40b405b3          	sub	a1,s0,a1
    4194:	e4e5b423          	sd	a4,-440(a1) # e48 <.LBB66_3+0xbf0>
    4198:	01650703          	lb	a4,22(a0)
    419c:	000015b7          	lui	a1,0x1
    41a0:	40b405b3          	sub	a1,s0,a1
    41a4:	e4e5b823          	sd	a4,-432(a1) # e50 <.LBB66_3+0xbf8>
    41a8:	01550703          	lb	a4,21(a0)
    41ac:	000015b7          	lui	a1,0x1
    41b0:	40b405b3          	sub	a1,s0,a1
    41b4:	e4e5bc23          	sd	a4,-424(a1) # e58 <.LBB66_3+0xc00>
    41b8:	01450703          	lb	a4,20(a0)
    41bc:	000015b7          	lui	a1,0x1
    41c0:	40b405b3          	sub	a1,s0,a1
    41c4:	e6e5b023          	sd	a4,-416(a1) # e60 <.LBB66_3+0xc08>
    41c8:	01350503          	lb	a0,19(a0)
    41cc:	000015b7          	lui	a1,0x1
    41d0:	40b405b3          	sub	a1,s0,a1
    41d4:	e6a5b423          	sd	a0,-408(a1) # e68 <.LBB66_3+0xc10>
    41d8:	01f68503          	lb	a0,31(a3)
    41dc:	000015b7          	lui	a1,0x1
    41e0:	40b405b3          	sub	a1,s0,a1
    41e4:	eca5bc23          	sd	a0,-296(a1) # ed8 <.LBB66_4+0x34>
    41e8:	00001537          	lui	a0,0x1
    41ec:	40a40533          	sub	a0,s0,a0
    41f0:	05053303          	ld	t1,80(a0) # 1050 <.LBB66_4+0x1ac>
    41f4:	00432803          	lw	a6,4(t1)
    41f8:	00832503          	lw	a0,8(t1)
    41fc:	00c32683          	lw	a3,12(t1)
    4200:	01032703          	lw	a4,16(t1)
    4204:	01432583          	lw	a1,20(t1)
    4208:	000013b7          	lui	t2,0x1
    420c:	407403b3          	sub	t2,s0,t2
    4210:	5cb3b423          	sd	a1,1480(t2) # 15c8 <.LBB66_5+0x18c>
    4214:	01832583          	lw	a1,24(t1)
    4218:	000013b7          	lui	t2,0x1
    421c:	407403b3          	sub	t2,s0,t2
    4220:	5ab3bc23          	sd	a1,1464(t2) # 15b8 <.LBB66_5+0x17c>
    4224:	01c32583          	lw	a1,28(t1)
    4228:	00001337          	lui	t1,0x1
    422c:	40640333          	sub	t1,s0,t1
    4230:	5ab33423          	sd	a1,1448(t1) # 15a8 <.LBB66_5+0x16c>
    4234:	40000337          	lui	t1,0x40000
    4238:	000015b7          	lui	a1,0x1
    423c:	40b405b3          	sub	a1,s0,a1
    4240:	6805b583          	ld	a1,1664(a1) # 1680 <.LBB66_5+0x244>
    4244:	0005d463          	bgez	a1,424c <.LBB66_26>
    4248:	c0000337          	lui	t1,0xc0000

000000000000424c <.LBB66_26>:
    424c:	000015b7          	lui	a1,0x1
    4250:	40b405b3          	sub	a1,s0,a1
    4254:	3665b023          	sd	t1,864(a1) # 1360 <.LBB66_4+0x4bc>
    4258:	007c9593          	slli	a1,s9,0x7
    425c:	f8843303          	ld	t1,-120(s0)
    4260:	000013b7          	lui	t2,0x1
    4264:	407403b3          	sub	t2,s0,t2
    4268:	6f03b383          	ld	t2,1776(t2) # 16f0 <.LBB66_5+0x2b4>
    426c:	00638333          	add	t1,t2,t1
    4270:	000013b7          	lui	t2,0x1
    4274:	407403b3          	sub	t2,s0,t2
    4278:	6eb3b823          	sd	a1,1776(t2) # 16f0 <.LBB66_5+0x2b4>
    427c:	00b30333          	add	t1,t1,a1
    4280:	41cb03bb          	subw	t2,s6,t3
    4284:	407305bb          	subw	a1,t1,t2
    4288:	40000337          	lui	t1,0x40000
    428c:	000013b7          	lui	t2,0x1
    4290:	407403b3          	sub	t2,s0,t2
    4294:	2eb3b423          	sd	a1,744(t2) # 12e8 <.LBB66_4+0x444>
    4298:	000013b7          	lui	t2,0x1
    429c:	407403b3          	sub	t2,s0,t2
    42a0:	7883ba03          	ld	s4,1928(t2) # 1788 <.LBB66_5+0x34c>
    42a4:	000013b7          	lui	t2,0x1
    42a8:	407403b3          	sub	t2,s0,t2
    42ac:	7803ba83          	ld	s5,1920(t2) # 1780 <.LBB66_5+0x344>
    42b0:	0005d463          	bgez	a1,42b8 <.LBB66_28>
    42b4:	c0000337          	lui	t1,0xc0000

00000000000042b8 <.LBB66_28>:
    42b8:	000015b7          	lui	a1,0x1
    42bc:	40b405b3          	sub	a1,s0,a1
    42c0:	2e65b023          	sd	t1,736(a1) # 12e0 <.LBB66_4+0x43c>
    42c4:	007d1d13          	slli	s10,s10,0x7
    42c8:	f8043303          	ld	t1,-128(s0)
    42cc:	000015b7          	lui	a1,0x1
    42d0:	40b405b3          	sub	a1,s0,a1
    42d4:	6f85b583          	ld	a1,1784(a1) # 16f8 <.LBB66_5+0x2bc>
    42d8:	00658333          	add	t1,a1,t1
    42dc:	000015b7          	lui	a1,0x1
    42e0:	40b405b3          	sub	a1,s0,a1
    42e4:	6fa5bc23          	sd	s10,1784(a1) # 16f8 <.LBB66_5+0x2bc>
    42e8:	01a30333          	add	t1,t1,s10
    42ec:	41cb03bb          	subw	t2,s6,t3
    42f0:	407305bb          	subw	a1,t1,t2
    42f4:	40000337          	lui	t1,0x40000
    42f8:	000013b7          	lui	t2,0x1
    42fc:	407403b3          	sub	t2,s0,t2
    4300:	26b3b423          	sd	a1,616(t2) # 1268 <.LBB66_4+0x3c4>
    4304:	000013b7          	lui	t2,0x1
    4308:	407403b3          	sub	t2,s0,t2
    430c:	7303bc83          	ld	s9,1840(t2) # 1730 <.LBB66_5+0x2f4>
    4310:	0005d463          	bgez	a1,4318 <.LBB66_30>
    4314:	c0000337          	lui	t1,0xc0000

0000000000004318 <.LBB66_30>:
    4318:	000015b7          	lui	a1,0x1
    431c:	40b405b3          	sub	a1,s0,a1
    4320:	2465bc23          	sd	t1,600(a1) # 1258 <.LBB66_4+0x3b4>
    4324:	007c1c13          	slli	s8,s8,0x7
    4328:	f7043303          	ld	t1,-144(s0)
    432c:	000015b7          	lui	a1,0x1
    4330:	40b405b3          	sub	a1,s0,a1
    4334:	7005b583          	ld	a1,1792(a1) # 1700 <.LBB66_5+0x2c4>
    4338:	00658333          	add	t1,a1,t1
    433c:	000015b7          	lui	a1,0x1
    4340:	40b405b3          	sub	a1,s0,a1
    4344:	7185b023          	sd	s8,1792(a1) # 1700 <.LBB66_5+0x2c4>
    4348:	01830333          	add	t1,t1,s8
    434c:	41cb03bb          	subw	t2,s6,t3
    4350:	407305bb          	subw	a1,t1,t2
    4354:	40000337          	lui	t1,0x40000
    4358:	000013b7          	lui	t2,0x1
    435c:	407403b3          	sub	t2,s0,t2
    4360:	1eb3b423          	sd	a1,488(t2) # 11e8 <.LBB66_4+0x344>
    4364:	89043d03          	ld	s10,-1904(s0)
    4368:	0005d463          	bgez	a1,4370 <.LBB66_32>
    436c:	c0000337          	lui	t1,0xc0000

0000000000004370 <.LBB66_32>:
    4370:	000015b7          	lui	a1,0x1
    4374:	40b405b3          	sub	a1,s0,a1
    4378:	1c65b823          	sd	t1,464(a1) # 11d0 <.LBB66_4+0x32c>
    437c:	007b9593          	slli	a1,s7,0x7
    4380:	f6843303          	ld	t1,-152(s0)
    4384:	000013b7          	lui	t2,0x1
    4388:	407403b3          	sub	t2,s0,t2
    438c:	7083b383          	ld	t2,1800(t2) # 1708 <.LBB66_5+0x2cc>
    4390:	00638333          	add	t1,t2,t1
    4394:	000013b7          	lui	t2,0x1
    4398:	407403b3          	sub	t2,s0,t2
    439c:	70b3b423          	sd	a1,1800(t2) # 1708 <.LBB66_5+0x2cc>
    43a0:	00b30333          	add	t1,t1,a1
    43a4:	41cb03bb          	subw	t2,s6,t3
    43a8:	407305bb          	subw	a1,t1,t2
    43ac:	40000337          	lui	t1,0x40000
    43b0:	9f843c03          	ld	s8,-1544(s0)
    43b4:	000013b7          	lui	t2,0x1
    43b8:	407403b3          	sub	t2,s0,t2
    43bc:	16b3b023          	sd	a1,352(t2) # 1160 <.LBB66_4+0x2bc>
    43c0:	0005d463          	bgez	a1,43c8 <.LBB66_34>
    43c4:	c0000337          	lui	t1,0xc0000

00000000000043c8 <.LBB66_34>:
    43c8:	000015b7          	lui	a1,0x1
    43cc:	40b405b3          	sub	a1,s0,a1
    43d0:	1465b023          	sd	t1,320(a1) # 1140 <.LBB66_4+0x29c>
    43d4:	00799993          	slli	s3,s3,0x7
    43d8:	f6043303          	ld	t1,-160(s0)
    43dc:	000015b7          	lui	a1,0x1
    43e0:	40b405b3          	sub	a1,s0,a1
    43e4:	7105b583          	ld	a1,1808(a1) # 1710 <.LBB66_5+0x2d4>
    43e8:	00658333          	add	t1,a1,t1
    43ec:	000015b7          	lui	a1,0x1
    43f0:	40b405b3          	sub	a1,s0,a1
    43f4:	7135b823          	sd	s3,1808(a1) # 1710 <.LBB66_5+0x2d4>
    43f8:	01330333          	add	t1,t1,s3
    43fc:	fff409b7          	lui	s3,0xfff40
    4400:	413b03bb          	subw	t2,s6,s3
    4404:	407305bb          	subw	a1,t1,t2
    4408:	40000337          	lui	t1,0x40000
    440c:	000013b7          	lui	t2,0x1
    4410:	407403b3          	sub	t2,s0,t2
    4414:	0cb3b823          	sd	a1,208(t2) # 10d0 <.LBB66_4+0x22c>
    4418:	000013b7          	lui	t2,0x1
    441c:	407403b3          	sub	t2,s0,t2
    4420:	7703be03          	ld	t3,1904(t2) # 1770 <.LBB66_5+0x334>
    4424:	000013b7          	lui	t2,0x1
    4428:	407403b3          	sub	t2,s0,t2
    442c:	7383bb83          	ld	s7,1848(t2) # 1738 <.LBB66_5+0x2fc>
    4430:	0005d463          	bgez	a1,4438 <.LBB66_36>
    4434:	c0000337          	lui	t1,0xc0000

0000000000004438 <.LBB66_36>:
    4438:	000015b7          	lui	a1,0x1
    443c:	40b405b3          	sub	a1,s0,a1
    4440:	0a65b823          	sd	t1,176(a1) # 10b0 <.LBB66_4+0x20c>
    4444:	00791913          	slli	s2,s2,0x7
    4448:	f5843303          	ld	t1,-168(s0)
    444c:	000015b7          	lui	a1,0x1
    4450:	40b405b3          	sub	a1,s0,a1
    4454:	7185b583          	ld	a1,1816(a1) # 1718 <.LBB66_5+0x2dc>
    4458:	00658333          	add	t1,a1,t1
    445c:	000015b7          	lui	a1,0x1
    4460:	40b405b3          	sub	a1,s0,a1
    4464:	7125bc23          	sd	s2,1816(a1) # 1718 <.LBB66_5+0x2dc>
    4468:	01230333          	add	t1,t1,s2
    446c:	413b03bb          	subw	t2,s6,s3
    4470:	407305bb          	subw	a1,t1,t2
    4474:	40000337          	lui	t1,0x40000
    4478:	000023b7          	lui	t2,0x2
    447c:	407403b3          	sub	t2,s0,t2
    4480:	7eb3b823          	sd	a1,2032(t2) # 27f0 <.LBB66_5+0x13b4>
    4484:	0005d463          	bgez	a1,448c <.LBB66_38>
    4488:	c0000337          	lui	t1,0xc0000

000000000000448c <.LBB66_38>:
    448c:	000025b7          	lui	a1,0x2
    4490:	40b405b3          	sub	a1,s0,a1
    4494:	7c65b823          	sd	t1,2000(a1) # 27d0 <.LBB66_5+0x1394>
    4498:	00749493          	slli	s1,s1,0x7
    449c:	f5043303          	ld	t1,-176(s0)
    44a0:	000015b7          	lui	a1,0x1
    44a4:	40b405b3          	sub	a1,s0,a1
    44a8:	7205b583          	ld	a1,1824(a1) # 1720 <.LBB66_5+0x2e4>
    44ac:	00658333          	add	t1,a1,t1
    44b0:	000015b7          	lui	a1,0x1
    44b4:	40b405b3          	sub	a1,s0,a1
    44b8:	7295b023          	sd	s1,1824(a1) # 1720 <.LBB66_5+0x2e4>
    44bc:	00930333          	add	t1,t1,s1
    44c0:	413b03bb          	subw	t2,s6,s3
    44c4:	407305bb          	subw	a1,t1,t2
    44c8:	40000337          	lui	t1,0x40000
    44cc:	b9843903          	ld	s2,-1128(s0)
    44d0:	000023b7          	lui	t2,0x2
    44d4:	407403b3          	sub	t2,s0,t2
    44d8:	76b3b423          	sd	a1,1896(t2) # 2768 <.LBB66_5+0x132c>
    44dc:	0005d463          	bgez	a1,44e4 <.LBB66_40>
    44e0:	c0000337          	lui	t1,0xc0000

00000000000044e4 <.LBB66_40>:
    44e4:	000025b7          	lui	a1,0x2
    44e8:	40b405b3          	sub	a1,s0,a1
    44ec:	7465b423          	sd	t1,1864(a1) # 2748 <.LBB66_5+0x130c>
    44f0:	007e9e93          	slli	t4,t4,0x7
    44f4:	f4843303          	ld	t1,-184(s0)
    44f8:	000015b7          	lui	a1,0x1
    44fc:	40b405b3          	sub	a1,s0,a1
    4500:	7285b583          	ld	a1,1832(a1) # 1728 <.LBB66_5+0x2ec>
    4504:	00658333          	add	t1,a1,t1
    4508:	000015b7          	lui	a1,0x1
    450c:	40b405b3          	sub	a1,s0,a1
    4510:	73d5b423          	sd	t4,1832(a1) # 1728 <.LBB66_5+0x2ec>
    4514:	01d30333          	add	t1,t1,t4
    4518:	413b03bb          	subw	t2,s6,s3
    451c:	407305bb          	subw	a1,t1,t2
    4520:	40000337          	lui	t1,0x40000
    4524:	a9843483          	ld	s1,-1384(s0)
    4528:	000023b7          	lui	t2,0x2
    452c:	407403b3          	sub	t2,s0,t2
    4530:	6eb3b023          	sd	a1,1760(t2) # 26e0 <.LBB66_5+0x12a4>
    4534:	0005d463          	bgez	a1,453c <.LBB66_42>
    4538:	c0000337          	lui	t1,0xc0000

000000000000453c <.LBB66_42>:
    453c:	000025b7          	lui	a1,0x2
    4540:	40b405b3          	sub	a1,s0,a1
    4544:	6c65b423          	sd	t1,1736(a1) # 26c8 <.LBB66_5+0x128c>
    4548:	00729593          	slli	a1,t0,0x7
    454c:	f4043283          	ld	t0,-192(s0)
    4550:	005c82b3          	add	t0,s9,t0
    4554:	00058c93          	mv	s9,a1
    4558:	00b282b3          	add	t0,t0,a1
    455c:	413b033b          	subw	t1,s6,s3
    4560:	406285bb          	subw	a1,t0,t1
    4564:	40000337          	lui	t1,0x40000
    4568:	99043e83          	ld	t4,-1648(s0)
    456c:	000022b7          	lui	t0,0x2
    4570:	405402b3          	sub	t0,s0,t0
    4574:	64b2bc23          	sd	a1,1624(t0) # 2658 <.LBB66_5+0x121c>
    4578:	000012b7          	lui	t0,0x1
    457c:	405402b3          	sub	t0,s0,t0
    4580:	7982b383          	ld	t2,1944(t0) # 1798 <.LBB66_5+0x35c>
    4584:	0005d463          	bgez	a1,458c <.LBB66_44>
    4588:	c0000337          	lui	t1,0xc0000

000000000000458c <.LBB66_44>:
    458c:	00779593          	slli	a1,a5,0x7
    4590:	f3843783          	ld	a5,-200(s0)
    4594:	00fb87b3          	add	a5,s7,a5
    4598:	00058b93          	mv	s7,a1
    459c:	00b787b3          	add	a5,a5,a1
    45a0:	413b02bb          	subw	t0,s6,s3
    45a4:	405785bb          	subw	a1,a5,t0
    45a8:	400007b7          	lui	a5,0x40000
    45ac:	000022b7          	lui	t0,0x2
    45b0:	405402b3          	sub	t0,s0,t0
    45b4:	5cb2bc23          	sd	a1,1496(t0) # 25d8 <.LBB66_5+0x119c>
    45b8:	0005d463          	bgez	a1,45c0 <.LBB66_46>
    45bc:	c00007b7          	lui	a5,0xc0000

00000000000045c0 <.LBB66_46>:
    45c0:	000025b7          	lui	a1,0x2
    45c4:	40b405b3          	sub	a1,s0,a1
    45c8:	5cf5b423          	sd	a5,1480(a1) # 25c8 <.LBB66_5+0x118c>
    45cc:	007f1f13          	slli	t5,t5,0x7
    45d0:	f3043783          	ld	a5,-208(s0)
    45d4:	000015b7          	lui	a1,0x1
    45d8:	40b405b3          	sub	a1,s0,a1
    45dc:	7405b583          	ld	a1,1856(a1) # 1740 <.LBB66_5+0x304>
    45e0:	00f587b3          	add	a5,a1,a5
    45e4:	01e787b3          	add	a5,a5,t5
    45e8:	413b02bb          	subw	t0,s6,s3
    45ec:	405785bb          	subw	a1,a5,t0
    45f0:	400007b7          	lui	a5,0x40000
    45f4:	000022b7          	lui	t0,0x2
    45f8:	405402b3          	sub	t0,s0,t0
    45fc:	54b2bc23          	sd	a1,1368(t0) # 2558 <.LBB66_5+0x111c>
    4600:	0005d463          	bgez	a1,4608 <.LBB66_48>
    4604:	c00007b7          	lui	a5,0xc0000

0000000000004608 <.LBB66_48>:
    4608:	000025b7          	lui	a1,0x2
    460c:	40b405b3          	sub	a1,s0,a1
    4610:	54f5b823          	sd	a5,1360(a1) # 2550 <.LBB66_5+0x1114>
    4614:	00789893          	slli	a7,a7,0x7
    4618:	f2843783          	ld	a5,-216(s0)
    461c:	000015b7          	lui	a1,0x1
    4620:	40b405b3          	sub	a1,s0,a1
    4624:	7485b583          	ld	a1,1864(a1) # 1748 <.LBB66_5+0x30c>
    4628:	00f587b3          	add	a5,a1,a5
    462c:	011787b3          	add	a5,a5,a7
    4630:	413b02bb          	subw	t0,s6,s3
    4634:	405785bb          	subw	a1,a5,t0
    4638:	400007b7          	lui	a5,0x40000
    463c:	000022b7          	lui	t0,0x2
    4640:	405402b3          	sub	t0,s0,t0
    4644:	4eb2b423          	sd	a1,1256(t0) # 24e8 <.LBB66_5+0x10ac>
    4648:	0005d463          	bgez	a1,4650 <.LBB66_50>
    464c:	c00007b7          	lui	a5,0xc0000

0000000000004650 <.LBB66_50>:
    4650:	000025b7          	lui	a1,0x2
    4654:	40b405b3          	sub	a1,s0,a1
    4658:	4ef5b023          	sd	a5,1248(a1) # 24e0 <.LBB66_5+0x10a4>
    465c:	007f9f93          	slli	t6,t6,0x7
    4660:	f2043783          	ld	a5,-224(s0)
    4664:	000015b7          	lui	a1,0x1
    4668:	40b405b3          	sub	a1,s0,a1
    466c:	7505b583          	ld	a1,1872(a1) # 1750 <.LBB66_5+0x314>
    4670:	00f587b3          	add	a5,a1,a5
    4674:	01f787b3          	add	a5,a5,t6
    4678:	413b02bb          	subw	t0,s6,s3
    467c:	405785bb          	subw	a1,a5,t0
    4680:	400007b7          	lui	a5,0x40000
    4684:	000022b7          	lui	t0,0x2
    4688:	405402b3          	sub	t0,s0,t0
    468c:	46b2bc23          	sd	a1,1144(t0) # 2478 <.LBB66_5+0x103c>
    4690:	0005d463          	bgez	a1,4698 <.LBB66_52>
    4694:	c00007b7          	lui	a5,0xc0000

0000000000004698 <.LBB66_52>:
    4698:	000025b7          	lui	a1,0x2
    469c:	40b405b3          	sub	a1,s0,a1
    46a0:	46f5b823          	sd	a5,1136(a1) # 2470 <.LBB66_5+0x1034>
    46a4:	007d9d93          	slli	s11,s11,0x7
    46a8:	ef043783          	ld	a5,-272(s0)
    46ac:	000015b7          	lui	a1,0x1
    46b0:	40b405b3          	sub	a1,s0,a1
    46b4:	7585b583          	ld	a1,1880(a1) # 1758 <.LBB66_5+0x31c>
    46b8:	00f587b3          	add	a5,a1,a5
    46bc:	01b787b3          	add	a5,a5,s11
    46c0:	413b02bb          	subw	t0,s6,s3
    46c4:	405785bb          	subw	a1,a5,t0
    46c8:	400007b7          	lui	a5,0x40000
    46cc:	000022b7          	lui	t0,0x2
    46d0:	405402b3          	sub	t0,s0,t0
    46d4:	40b2b423          	sd	a1,1032(t0) # 2408 <.LBB66_5+0xfcc>
    46d8:	0005d463          	bgez	a1,46e0 <.LBB66_54>
    46dc:	c00007b7          	lui	a5,0xc0000

00000000000046e0 <.LBB66_54>:
    46e0:	000025b7          	lui	a1,0x2
    46e4:	40b405b3          	sub	a1,s0,a1
    46e8:	40f5b023          	sd	a5,1024(a1) # 2400 <.LBB66_5+0xfc4>
    46ec:	00709093          	slli	ra,ra,0x7
    46f0:	ee843783          	ld	a5,-280(s0)
    46f4:	000015b7          	lui	a1,0x1
    46f8:	40b405b3          	sub	a1,s0,a1
    46fc:	7605b583          	ld	a1,1888(a1) # 1760 <.LBB66_5+0x324>
    4700:	00f587b3          	add	a5,a1,a5
    4704:	001787b3          	add	a5,a5,ra
    4708:	413b02bb          	subw	t0,s6,s3
    470c:	405785bb          	subw	a1,a5,t0
    4710:	400007b7          	lui	a5,0x40000
    4714:	000022b7          	lui	t0,0x2
    4718:	405402b3          	sub	t0,s0,t0
    471c:	38b2bc23          	sd	a1,920(t0) # 2398 <.LBB66_5+0xf5c>
    4720:	0005d463          	bgez	a1,4728 <.LBB66_56>
    4724:	c00007b7          	lui	a5,0xc0000

0000000000004728 <.LBB66_56>:
    4728:	000025b7          	lui	a1,0x2
    472c:	40b405b3          	sub	a1,s0,a1
    4730:	38f5b823          	sd	a5,912(a1) # 2390 <.LBB66_5+0xf54>
    4734:	00761613          	slli	a2,a2,0x7
    4738:	ee043783          	ld	a5,-288(s0)
    473c:	000015b7          	lui	a1,0x1
    4740:	40b405b3          	sub	a1,s0,a1
    4744:	7685b583          	ld	a1,1896(a1) # 1768 <.LBB66_5+0x32c>
    4748:	00f587b3          	add	a5,a1,a5
    474c:	00c787b3          	add	a5,a5,a2
    4750:	413b02bb          	subw	t0,s6,s3
    4754:	405785bb          	subw	a1,a5,t0
    4758:	400007b7          	lui	a5,0x40000
    475c:	000022b7          	lui	t0,0x2
    4760:	405402b3          	sub	t0,s0,t0
    4764:	32b2b423          	sd	a1,808(t0) # 2328 <.LBB66_5+0xeec>
    4768:	0005d463          	bgez	a1,4770 <.LBB66_58>
    476c:	c00007b7          	lui	a5,0xc0000

0000000000004770 <.LBB66_58>:
    4770:	000025b7          	lui	a1,0x2
    4774:	40b405b3          	sub	a1,s0,a1
    4778:	32f5b023          	sd	a5,800(a1) # 2320 <.LBB66_5+0xee4>
    477c:	000015b7          	lui	a1,0x1
    4780:	40b405b3          	sub	a1,s0,a1
    4784:	5905b583          	ld	a1,1424(a1) # 1590 <.LBB66_5+0x154>
    4788:	00759593          	slli	a1,a1,0x7
    478c:	ed843783          	ld	a5,-296(s0)
    4790:	00fe07b3          	add	a5,t3,a5
    4794:	00b787b3          	add	a5,a5,a1
    4798:	413b02bb          	subw	t0,s6,s3
    479c:	405787bb          	subw	a5,a5,t0
    47a0:	400002b7          	lui	t0,0x40000
    47a4:	00002e37          	lui	t3,0x2
    47a8:	41c40e33          	sub	t3,s0,t3
    47ac:	2afe3c23          	sd	a5,696(t3) # 22b8 <.LBB66_5+0xe7c>
    47b0:	0007d463          	bgez	a5,47b8 <.LBB66_60>
    47b4:	c00002b7          	lui	t0,0xc0000

00000000000047b8 <.LBB66_60>:
    47b8:	000027b7          	lui	a5,0x2
    47bc:	40f407b3          	sub	a5,s0,a5
    47c0:	2a57b823          	sd	t0,688(a5) # 22b0 <.LBB66_5+0xe74>
    47c4:	000027b7          	lui	a5,0x2
    47c8:	40f407b3          	sub	a5,s0,a5
    47cc:	6467b423          	sd	t1,1608(a5) # 2648 <.LBB66_5+0x120c>
    47d0:	000017b7          	lui	a5,0x1
    47d4:	40f407b3          	sub	a5,s0,a5
    47d8:	5987be03          	ld	t3,1432(a5) # 1598 <.LBB66_5+0x15c>
    47dc:	007e1e13          	slli	t3,t3,0x7
    47e0:	ed043783          	ld	a5,-304(s0)
    47e4:	000012b7          	lui	t0,0x1
    47e8:	405402b3          	sub	t0,s0,t0
    47ec:	7782b283          	ld	t0,1912(t0) # 1778 <.LBB66_5+0x33c>
    47f0:	00f287b3          	add	a5,t0,a5
    47f4:	01c787b3          	add	a5,a5,t3
    47f8:	413b02bb          	subw	t0,s6,s3
    47fc:	405787bb          	subw	a5,a5,t0
    4800:	400002b7          	lui	t0,0x40000
    4804:	00002337          	lui	t1,0x2
    4808:	40640333          	sub	t1,s0,t1
    480c:	24f33423          	sd	a5,584(t1) # 2248 <.LBB66_5+0xe0c>
    4810:	0007d463          	bgez	a5,4818 <.LBB66_62>
    4814:	c00002b7          	lui	t0,0xc0000

0000000000004818 <.LBB66_62>:
    4818:	000027b7          	lui	a5,0x2
    481c:	40f407b3          	sub	a5,s0,a5
    4820:	2457b023          	sd	t0,576(a5) # 2240 <.LBB66_5+0xe04>
    4824:	000017b7          	lui	a5,0x1
    4828:	40f407b3          	sub	a5,s0,a5
    482c:	5a07b303          	ld	t1,1440(a5) # 15a0 <.LBB66_5+0x164>
    4830:	00731313          	slli	t1,t1,0x7
    4834:	eb043783          	ld	a5,-336(s0)
    4838:	00fa87b3          	add	a5,s5,a5
    483c:	006787b3          	add	a5,a5,t1
    4840:	413b02bb          	subw	t0,s6,s3
    4844:	405787bb          	subw	a5,a5,t0
    4848:	400002b7          	lui	t0,0x40000
    484c:	00002ab7          	lui	s5,0x2
    4850:	41540ab3          	sub	s5,s0,s5
    4854:	1cfabc23          	sd	a5,472(s5) # 21d8 <.LBB66_5+0xd9c>
    4858:	0007d463          	bgez	a5,4860 <.LBB66_64>
    485c:	c00002b7          	lui	t0,0xc0000

0000000000004860 <.LBB66_64>:
    4860:	000027b7          	lui	a5,0x2
    4864:	40f407b3          	sub	a5,s0,a5
    4868:	1c57b823          	sd	t0,464(a5) # 21d0 <.LBB66_5+0xd94>
    486c:	000017b7          	lui	a5,0x1
    4870:	40f407b3          	sub	a5,s0,a5
    4874:	5b07ba83          	ld	s5,1456(a5) # 15b0 <.LBB66_5+0x174>
    4878:	007a9a93          	slli	s5,s5,0x7
    487c:	eb843783          	ld	a5,-328(s0)
    4880:	00fa07b3          	add	a5,s4,a5
    4884:	015787b3          	add	a5,a5,s5
    4888:	413b02bb          	subw	t0,s6,s3
    488c:	405787bb          	subw	a5,a5,t0
    4890:	400002b7          	lui	t0,0x40000
    4894:	00002a37          	lui	s4,0x2
    4898:	41440a33          	sub	s4,s0,s4
    489c:	16fa3423          	sd	a5,360(s4) # 2168 <.LBB66_5+0xd2c>
    48a0:	0007d463          	bgez	a5,48a8 <.LBB66_66>
    48a4:	c00002b7          	lui	t0,0xc0000

00000000000048a8 <.LBB66_66>:
    48a8:	000027b7          	lui	a5,0x2
    48ac:	40f407b3          	sub	a5,s0,a5
    48b0:	1657b023          	sd	t0,352(a5) # 2160 <.LBB66_5+0xd24>
    48b4:	000017b7          	lui	a5,0x1
    48b8:	40f407b3          	sub	a5,s0,a5
    48bc:	5c07ba03          	ld	s4,1472(a5) # 15c0 <.LBB66_5+0x184>
    48c0:	007a1a13          	slli	s4,s4,0x7
    48c4:	ec043783          	ld	a5,-320(s0)
    48c8:	00f387b3          	add	a5,t2,a5
    48cc:	014787b3          	add	a5,a5,s4
    48d0:	413b02bb          	subw	t0,s6,s3
    48d4:	405787bb          	subw	a5,a5,t0
    48d8:	400002b7          	lui	t0,0x40000
    48dc:	000023b7          	lui	t2,0x2
    48e0:	407403b3          	sub	t2,s0,t2
    48e4:	0ef3bc23          	sd	a5,248(t2) # 20f8 <.LBB66_5+0xcbc>
    48e8:	0007d463          	bgez	a5,48f0 <.LBB66_68>
    48ec:	c00002b7          	lui	t0,0xc0000

00000000000048f0 <.LBB66_68>:
    48f0:	000027b7          	lui	a5,0x2
    48f4:	40f407b3          	sub	a5,s0,a5
    48f8:	0e57b823          	sd	t0,240(a5) # 20f0 <.LBB66_5+0xcb4>
    48fc:	000017b7          	lui	a5,0x1
    4900:	40f407b3          	sub	a5,s0,a5
    4904:	5d07b383          	ld	t2,1488(a5) # 15d0 <.LBB66_5+0x194>
    4908:	00739393          	slli	t2,t2,0x7
    490c:	ec843783          	ld	a5,-312(s0)
    4910:	000012b7          	lui	t0,0x1
    4914:	405402b3          	sub	t0,s0,t0
    4918:	6982b283          	ld	t0,1688(t0) # 1698 <.LBB66_5+0x25c>
    491c:	00f287b3          	add	a5,t0,a5
    4920:	007787b3          	add	a5,a5,t2
    4924:	413b02bb          	subw	t0,s6,s3
    4928:	40578b3b          	subw	s6,a5,t0
    492c:	400007b7          	lui	a5,0x40000
    4930:	000b5463          	bgez	s6,4938 <.LBB66_70>
    4934:	c00007b7          	lui	a5,0xc0000

0000000000004938 <.LBB66_70>:
    4938:	f8a43823          	sd	a0,-112(s0)
    493c:	00002537          	lui	a0,0x2
    4940:	40a40533          	sub	a0,s0,a0
    4944:	0af53023          	sd	a5,160(a0) # 20a0 <.LBB66_5+0xc64>
    4948:	eb043783          	ld	a5,-336(s0)
    494c:	00001537          	lui	a0,0x1
    4950:	40a40533          	sub	a0,s0,a0
    4954:	79053283          	ld	t0,1936(a0) # 1790 <.LBB66_5+0x354>
    4958:	00f287b3          	add	a5,t0,a5
    495c:	00481813          	slli	a6,a6,0x4
    4960:	006787b3          	add	a5,a5,t1
    4964:	413802bb          	subw	t0,a6,s3
    4968:	405787bb          	subw	a5,a5,t0
    496c:	400002b7          	lui	t0,0x40000
    4970:	00001537          	lui	a0,0x1
    4974:	40a40533          	sub	a0,s0,a0
    4978:	78f53c23          	sd	a5,1944(a0) # 1798 <.LBB66_5+0x35c>
    497c:	f9043503          	ld	a0,-112(s0)
    4980:	0007d463          	bgez	a5,4988 <.LBB66_72>
    4984:	c00002b7          	lui	t0,0xc0000

0000000000004988 <.LBB66_72>:
    4988:	f8a43823          	sd	a0,-112(s0)
    498c:	00001537          	lui	a0,0x1
    4990:	40a40533          	sub	a0,s0,a0
    4994:	78553823          	sd	t0,1936(a0) # 1790 <.LBB66_5+0x354>
    4998:	eb843783          	ld	a5,-328(s0)
    499c:	00001537          	lui	a0,0x1
    49a0:	40a40533          	sub	a0,s0,a0
    49a4:	7a053283          	ld	t0,1952(a0) # 17a0 <.LBB66_5+0x364>
    49a8:	00f287b3          	add	a5,t0,a5
    49ac:	015787b3          	add	a5,a5,s5
    49b0:	413802bb          	subw	t0,a6,s3
    49b4:	405787bb          	subw	a5,a5,t0
    49b8:	400002b7          	lui	t0,0x40000
    49bc:	00001537          	lui	a0,0x1
    49c0:	40a40533          	sub	a0,s0,a0
    49c4:	7af53023          	sd	a5,1952(a0) # 17a0 <.LBB66_5+0x364>
    49c8:	f9043503          	ld	a0,-112(s0)
    49cc:	0007d463          	bgez	a5,49d4 <.LBB66_74>
    49d0:	c00002b7          	lui	t0,0xc0000

00000000000049d4 <.LBB66_74>:
    49d4:	f8a43823          	sd	a0,-112(s0)
    49d8:	00001537          	lui	a0,0x1
    49dc:	40a40533          	sub	a0,s0,a0
    49e0:	78553423          	sd	t0,1928(a0) # 1788 <.LBB66_5+0x34c>
    49e4:	ec043783          	ld	a5,-320(s0)
    49e8:	00001537          	lui	a0,0x1
    49ec:	40a40533          	sub	a0,s0,a0
    49f0:	7a853283          	ld	t0,1960(a0) # 17a8 <.LBB66_5+0x36c>
    49f4:	00f287b3          	add	a5,t0,a5
    49f8:	014787b3          	add	a5,a5,s4
    49fc:	413802bb          	subw	t0,a6,s3
    4a00:	405787bb          	subw	a5,a5,t0
    4a04:	400002b7          	lui	t0,0x40000
    4a08:	00001537          	lui	a0,0x1
    4a0c:	40a40533          	sub	a0,s0,a0
    4a10:	74f53823          	sd	a5,1872(a0) # 1750 <.LBB66_5+0x314>
    4a14:	f9043503          	ld	a0,-112(s0)
    4a18:	0007d463          	bgez	a5,4a20 <.LBB66_76>
    4a1c:	c00002b7          	lui	t0,0xc0000

0000000000004a20 <.LBB66_76>:
    4a20:	f8a43823          	sd	a0,-112(s0)
    4a24:	00001537          	lui	a0,0x1
    4a28:	40a40533          	sub	a0,s0,a0
    4a2c:	74553023          	sd	t0,1856(a0) # 1740 <.LBB66_5+0x304>
    4a30:	ec843783          	ld	a5,-312(s0)
    4a34:	00001537          	lui	a0,0x1
    4a38:	40a40533          	sub	a0,s0,a0
    4a3c:	7b053283          	ld	t0,1968(a0) # 17b0 <.LBB66_5+0x374>
    4a40:	00f287b3          	add	a5,t0,a5
    4a44:	007787b3          	add	a5,a5,t2
    4a48:	413802bb          	subw	t0,a6,s3
    4a4c:	405787bb          	subw	a5,a5,t0
    4a50:	400002b7          	lui	t0,0x40000
    4a54:	00001537          	lui	a0,0x1
    4a58:	40a40533          	sub	a0,s0,a0
    4a5c:	58f53823          	sd	a5,1424(a0) # 1590 <.LBB66_5+0x154>
    4a60:	f9043503          	ld	a0,-112(s0)
    4a64:	0007d463          	bgez	a5,4a6c <.LBB66_78>
    4a68:	c00002b7          	lui	t0,0xc0000

0000000000004a6c <.LBB66_78>:
    4a6c:	f8a43823          	sd	a0,-112(s0)
    4a70:	00001537          	lui	a0,0x1
    4a74:	40a40533          	sub	a0,s0,a0
    4a78:	58553023          	sd	t0,1408(a0) # 1580 <.LBB66_5+0x144>
    4a7c:	ed043783          	ld	a5,-304(s0)
    4a80:	00001537          	lui	a0,0x1
    4a84:	40a40533          	sub	a0,s0,a0
    4a88:	7b853283          	ld	t0,1976(a0) # 17b8 <.LBB66_5+0x37c>
    4a8c:	00f287b3          	add	a5,t0,a5
    4a90:	01c787b3          	add	a5,a5,t3
    4a94:	413802bb          	subw	t0,a6,s3
    4a98:	405787bb          	subw	a5,a5,t0
    4a9c:	400002b7          	lui	t0,0x40000
    4aa0:	00001537          	lui	a0,0x1
    4aa4:	40a40533          	sub	a0,s0,a0
    4aa8:	52f53023          	sd	a5,1312(a0) # 1520 <.LBB66_5+0xe4>
    4aac:	f9043503          	ld	a0,-112(s0)
    4ab0:	0007d463          	bgez	a5,4ab8 <.LBB66_80>
    4ab4:	c00002b7          	lui	t0,0xc0000

0000000000004ab8 <.LBB66_80>:
    4ab8:	f8a43823          	sd	a0,-112(s0)
    4abc:	00001537          	lui	a0,0x1
    4ac0:	40a40533          	sub	a0,s0,a0
    4ac4:	50553823          	sd	t0,1296(a0) # 1510 <.LBB66_5+0xd4>
    4ac8:	ed843783          	ld	a5,-296(s0)
    4acc:	00001537          	lui	a0,0x1
    4ad0:	40a40533          	sub	a0,s0,a0
    4ad4:	7c053283          	ld	t0,1984(a0) # 17c0 <.LBB66_5+0x384>
    4ad8:	00f287b3          	add	a5,t0,a5
    4adc:	00b787b3          	add	a5,a5,a1
    4ae0:	413802bb          	subw	t0,a6,s3
    4ae4:	405787bb          	subw	a5,a5,t0
    4ae8:	400002b7          	lui	t0,0x40000
    4aec:	00001537          	lui	a0,0x1
    4af0:	40a40533          	sub	a0,s0,a0
    4af4:	4af53823          	sd	a5,1200(a0) # 14b0 <.LBB66_5+0x74>
    4af8:	f9043503          	ld	a0,-112(s0)
    4afc:	0007d463          	bgez	a5,4b04 <.LBB66_82>
    4b00:	c00002b7          	lui	t0,0xc0000

0000000000004b04 <.LBB66_82>:
    4b04:	f8a43823          	sd	a0,-112(s0)
    4b08:	00001537          	lui	a0,0x1
    4b0c:	40a40533          	sub	a0,s0,a0
    4b10:	4a553023          	sd	t0,1184(a0) # 14a0 <.LBB66_5+0x64>
    4b14:	ee043783          	ld	a5,-288(s0)
    4b18:	00001537          	lui	a0,0x1
    4b1c:	40a40533          	sub	a0,s0,a0
    4b20:	7c853283          	ld	t0,1992(a0) # 17c8 <.LBB66_5+0x38c>
    4b24:	00f287b3          	add	a5,t0,a5
    4b28:	00c787b3          	add	a5,a5,a2
    4b2c:	413802bb          	subw	t0,a6,s3
    4b30:	405787bb          	subw	a5,a5,t0
    4b34:	400002b7          	lui	t0,0x40000
    4b38:	00001537          	lui	a0,0x1
    4b3c:	40a40533          	sub	a0,s0,a0
    4b40:	44f53023          	sd	a5,1088(a0) # 1440 <.LBB66_5+0x4>
    4b44:	f9043503          	ld	a0,-112(s0)
    4b48:	0007d463          	bgez	a5,4b50 <.LBB66_84>
    4b4c:	c00002b7          	lui	t0,0xc0000

0000000000004b50 <.LBB66_84>:
    4b50:	f8a43823          	sd	a0,-112(s0)
    4b54:	00001537          	lui	a0,0x1
    4b58:	40a40533          	sub	a0,s0,a0
    4b5c:	42553823          	sd	t0,1072(a0) # 1430 <.LBB66_4+0x58c>
    4b60:	ee843783          	ld	a5,-280(s0)
    4b64:	00001537          	lui	a0,0x1
    4b68:	40a40533          	sub	a0,s0,a0
    4b6c:	7d053283          	ld	t0,2000(a0) # 17d0 <.LBB66_5+0x394>
    4b70:	00f287b3          	add	a5,t0,a5
    4b74:	001787b3          	add	a5,a5,ra
    4b78:	413802bb          	subw	t0,a6,s3
    4b7c:	405787bb          	subw	a5,a5,t0
    4b80:	400002b7          	lui	t0,0x40000
    4b84:	00001537          	lui	a0,0x1
    4b88:	40a40533          	sub	a0,s0,a0
    4b8c:	3cf53823          	sd	a5,976(a0) # 13d0 <.LBB66_4+0x52c>
    4b90:	f9043503          	ld	a0,-112(s0)
    4b94:	0007d463          	bgez	a5,4b9c <.LBB66_86>
    4b98:	c00002b7          	lui	t0,0xc0000

0000000000004b9c <.LBB66_86>:
    4b9c:	f8a43823          	sd	a0,-112(s0)
    4ba0:	00001537          	lui	a0,0x1
    4ba4:	40a40533          	sub	a0,s0,a0
    4ba8:	3c553023          	sd	t0,960(a0) # 13c0 <.LBB66_4+0x51c>
    4bac:	ef043783          	ld	a5,-272(s0)
    4bb0:	00001537          	lui	a0,0x1
    4bb4:	40a40533          	sub	a0,s0,a0
    4bb8:	7d853283          	ld	t0,2008(a0) # 17d8 <.LBB66_5+0x39c>
    4bbc:	00f287b3          	add	a5,t0,a5
    4bc0:	01b787b3          	add	a5,a5,s11
    4bc4:	413802bb          	subw	t0,a6,s3
    4bc8:	405787bb          	subw	a5,a5,t0
    4bcc:	400002b7          	lui	t0,0x40000
    4bd0:	00001537          	lui	a0,0x1
    4bd4:	40a40533          	sub	a0,s0,a0
    4bd8:	34f53c23          	sd	a5,856(a0) # 1358 <.LBB66_4+0x4b4>
    4bdc:	f9043503          	ld	a0,-112(s0)
    4be0:	0007d463          	bgez	a5,4be8 <.LBB66_88>
    4be4:	c00002b7          	lui	t0,0xc0000

0000000000004be8 <.LBB66_88>:
    4be8:	f8a43823          	sd	a0,-112(s0)
    4bec:	00001537          	lui	a0,0x1
    4bf0:	40a40533          	sub	a0,s0,a0
    4bf4:	34553423          	sd	t0,840(a0) # 1348 <.LBB66_4+0x4a4>
    4bf8:	f2043783          	ld	a5,-224(s0)
    4bfc:	00001537          	lui	a0,0x1
    4c00:	40a40533          	sub	a0,s0,a0
    4c04:	7e053283          	ld	t0,2016(a0) # 17e0 <.LBB66_5+0x3a4>
    4c08:	00f287b3          	add	a5,t0,a5
    4c0c:	01f787b3          	add	a5,a5,t6
    4c10:	413802bb          	subw	t0,a6,s3
    4c14:	405787bb          	subw	a5,a5,t0
    4c18:	400002b7          	lui	t0,0x40000
    4c1c:	00001537          	lui	a0,0x1
    4c20:	40a40533          	sub	a0,s0,a0
    4c24:	2cf53c23          	sd	a5,728(a0) # 12d8 <.LBB66_4+0x434>
    4c28:	f9043503          	ld	a0,-112(s0)
    4c2c:	0007d463          	bgez	a5,4c34 <.LBB66_90>
    4c30:	c00002b7          	lui	t0,0xc0000

0000000000004c34 <.LBB66_90>:
    4c34:	f8a43823          	sd	a0,-112(s0)
    4c38:	00001537          	lui	a0,0x1
    4c3c:	40a40533          	sub	a0,s0,a0
    4c40:	2c553423          	sd	t0,712(a0) # 12c8 <.LBB66_4+0x424>
    4c44:	f2843783          	ld	a5,-216(s0)
    4c48:	00001537          	lui	a0,0x1
    4c4c:	40a40533          	sub	a0,s0,a0
    4c50:	7e853283          	ld	t0,2024(a0) # 17e8 <.LBB66_5+0x3ac>
    4c54:	00f287b3          	add	a5,t0,a5
    4c58:	011787b3          	add	a5,a5,a7
    4c5c:	413802bb          	subw	t0,a6,s3
    4c60:	405787bb          	subw	a5,a5,t0
    4c64:	400002b7          	lui	t0,0x40000
    4c68:	00001537          	lui	a0,0x1
    4c6c:	40a40533          	sub	a0,s0,a0
    4c70:	26f53023          	sd	a5,608(a0) # 1260 <.LBB66_4+0x3bc>
    4c74:	f9043503          	ld	a0,-112(s0)
    4c78:	0007d463          	bgez	a5,4c80 <.LBB66_92>
    4c7c:	c00002b7          	lui	t0,0xc0000

0000000000004c80 <.LBB66_92>:
    4c80:	f8a43823          	sd	a0,-112(s0)
    4c84:	00001537          	lui	a0,0x1
    4c88:	40a40533          	sub	a0,s0,a0
    4c8c:	24553423          	sd	t0,584(a0) # 1248 <.LBB66_4+0x3a4>
    4c90:	f3043783          	ld	a5,-208(s0)
    4c94:	00001537          	lui	a0,0x1
    4c98:	40a40533          	sub	a0,s0,a0
    4c9c:	7f053283          	ld	t0,2032(a0) # 17f0 <.LBB66_5+0x3b4>
    4ca0:	00f287b3          	add	a5,t0,a5
    4ca4:	01e787b3          	add	a5,a5,t5
    4ca8:	413802bb          	subw	t0,a6,s3
    4cac:	405787bb          	subw	a5,a5,t0
    4cb0:	400002b7          	lui	t0,0x40000
    4cb4:	00001537          	lui	a0,0x1
    4cb8:	40a40533          	sub	a0,s0,a0
    4cbc:	1ef53023          	sd	a5,480(a0) # 11e0 <.LBB66_4+0x33c>
    4cc0:	f9043503          	ld	a0,-112(s0)
    4cc4:	0007d463          	bgez	a5,4ccc <.LBB66_94>
    4cc8:	c00002b7          	lui	t0,0xc0000

0000000000004ccc <.LBB66_94>:
    4ccc:	f8a43823          	sd	a0,-112(s0)
    4cd0:	00001537          	lui	a0,0x1
    4cd4:	40a40533          	sub	a0,s0,a0
    4cd8:	1c553423          	sd	t0,456(a0) # 11c8 <.LBB66_4+0x324>
    4cdc:	f3843783          	ld	a5,-200(s0)
    4ce0:	00001537          	lui	a0,0x1
    4ce4:	40a40533          	sub	a0,s0,a0
    4ce8:	7f853283          	ld	t0,2040(a0) # 17f8 <.LBB66_5+0x3bc>
    4cec:	00f287b3          	add	a5,t0,a5
    4cf0:	017787b3          	add	a5,a5,s7
    4cf4:	413802bb          	subw	t0,a6,s3
    4cf8:	405787bb          	subw	a5,a5,t0
    4cfc:	400002b7          	lui	t0,0x40000
    4d00:	00001537          	lui	a0,0x1
    4d04:	40a40533          	sub	a0,s0,a0
    4d08:	16f53423          	sd	a5,360(a0) # 1168 <.LBB66_4+0x2c4>
    4d0c:	f9043503          	ld	a0,-112(s0)
    4d10:	0007d463          	bgez	a5,4d18 <.LBB66_96>
    4d14:	c00002b7          	lui	t0,0xc0000

0000000000004d18 <.LBB66_96>:
    4d18:	f8a43823          	sd	a0,-112(s0)
    4d1c:	00001537          	lui	a0,0x1
    4d20:	40a40533          	sub	a0,s0,a0
    4d24:	14553823          	sd	t0,336(a0) # 1150 <.LBB66_4+0x2ac>
    4d28:	f4043783          	ld	a5,-192(s0)
    4d2c:	80043283          	ld	t0,-2048(s0)
    4d30:	00f287b3          	add	a5,t0,a5
    4d34:	019787b3          	add	a5,a5,s9
    4d38:	413802bb          	subw	t0,a6,s3
    4d3c:	405787bb          	subw	a5,a5,t0
    4d40:	400002b7          	lui	t0,0x40000
    4d44:	00001537          	lui	a0,0x1
    4d48:	40a40533          	sub	a0,s0,a0
    4d4c:	0ef53423          	sd	a5,232(a0) # 10e8 <.LBB66_4+0x244>
    4d50:	f9043503          	ld	a0,-112(s0)
    4d54:	0007d463          	bgez	a5,4d5c <.LBB66_98>
    4d58:	c00002b7          	lui	t0,0xc0000

0000000000004d5c <.LBB66_98>:
    4d5c:	f8a43823          	sd	a0,-112(s0)
    4d60:	00001537          	lui	a0,0x1
    4d64:	40a40533          	sub	a0,s0,a0
    4d68:	0c553c23          	sd	t0,216(a0) # 10d8 <.LBB66_4+0x234>
    4d6c:	f4843783          	ld	a5,-184(s0)
    4d70:	80843283          	ld	t0,-2040(s0)
    4d74:	00f287b3          	add	a5,t0,a5
    4d78:	00001537          	lui	a0,0x1
    4d7c:	40a40533          	sub	a0,s0,a0
    4d80:	72853283          	ld	t0,1832(a0) # 1728 <.LBB66_5+0x2ec>
    4d84:	005787b3          	add	a5,a5,t0
    4d88:	413802bb          	subw	t0,a6,s3
    4d8c:	405787bb          	subw	a5,a5,t0
    4d90:	400002b7          	lui	t0,0x40000
    4d94:	00001537          	lui	a0,0x1
    4d98:	40a40533          	sub	a0,s0,a0
    4d9c:	06f53423          	sd	a5,104(a0) # 1068 <.LBB66_4+0x1c4>
    4da0:	f9043503          	ld	a0,-112(s0)
    4da4:	0007d463          	bgez	a5,4dac <.LBB66_100>
    4da8:	c00002b7          	lui	t0,0xc0000

0000000000004dac <.LBB66_100>:
    4dac:	f8a43823          	sd	a0,-112(s0)
    4db0:	00001537          	lui	a0,0x1
    4db4:	40a40533          	sub	a0,s0,a0
    4db8:	04553c23          	sd	t0,88(a0) # 1058 <.LBB66_4+0x1b4>
    4dbc:	f5043783          	ld	a5,-176(s0)
    4dc0:	81043283          	ld	t0,-2032(s0)
    4dc4:	00f287b3          	add	a5,t0,a5
    4dc8:	00001537          	lui	a0,0x1
    4dcc:	40a40533          	sub	a0,s0,a0
    4dd0:	72053283          	ld	t0,1824(a0) # 1720 <.LBB66_5+0x2e4>
    4dd4:	005787b3          	add	a5,a5,t0
    4dd8:	413802bb          	subw	t0,a6,s3
    4ddc:	405787bb          	subw	a5,a5,t0
    4de0:	400002b7          	lui	t0,0x40000
    4de4:	00002537          	lui	a0,0x2
    4de8:	40a40533          	sub	a0,s0,a0
    4dec:	7af53023          	sd	a5,1952(a0) # 27a0 <.LBB66_5+0x1364>
    4df0:	f9043503          	ld	a0,-112(s0)
    4df4:	0007d463          	bgez	a5,4dfc <.LBB66_102>
    4df8:	c00002b7          	lui	t0,0xc0000

0000000000004dfc <.LBB66_102>:
    4dfc:	f8a43823          	sd	a0,-112(s0)
    4e00:	00002537          	lui	a0,0x2
    4e04:	40a40533          	sub	a0,s0,a0
    4e08:	78553823          	sd	t0,1936(a0) # 2790 <.LBB66_5+0x1354>
    4e0c:	f5843783          	ld	a5,-168(s0)
    4e10:	81843283          	ld	t0,-2024(s0)
    4e14:	00f287b3          	add	a5,t0,a5
    4e18:	00001537          	lui	a0,0x1
    4e1c:	40a40533          	sub	a0,s0,a0
    4e20:	71853283          	ld	t0,1816(a0) # 1718 <.LBB66_5+0x2dc>
    4e24:	005787b3          	add	a5,a5,t0
    4e28:	413802bb          	subw	t0,a6,s3
    4e2c:	405787bb          	subw	a5,a5,t0
    4e30:	400002b7          	lui	t0,0x40000
    4e34:	00002537          	lui	a0,0x2
    4e38:	40a40533          	sub	a0,s0,a0
    4e3c:	72f53423          	sd	a5,1832(a0) # 2728 <.LBB66_5+0x12ec>
    4e40:	f9043503          	ld	a0,-112(s0)
    4e44:	0007d463          	bgez	a5,4e4c <.LBB66_104>
    4e48:	c00002b7          	lui	t0,0xc0000

0000000000004e4c <.LBB66_104>:
    4e4c:	f8a43823          	sd	a0,-112(s0)
    4e50:	00002537          	lui	a0,0x2
    4e54:	40a40533          	sub	a0,s0,a0
    4e58:	70553c23          	sd	t0,1816(a0) # 2718 <.LBB66_5+0x12dc>
    4e5c:	f6043783          	ld	a5,-160(s0)
    4e60:	82043283          	ld	t0,-2016(s0)
    4e64:	00f287b3          	add	a5,t0,a5
    4e68:	00001537          	lui	a0,0x1
    4e6c:	40a40533          	sub	a0,s0,a0
    4e70:	71053283          	ld	t0,1808(a0) # 1710 <.LBB66_5+0x2d4>
    4e74:	005787b3          	add	a5,a5,t0
    4e78:	413802bb          	subw	t0,a6,s3
    4e7c:	405787bb          	subw	a5,a5,t0
    4e80:	400002b7          	lui	t0,0x40000
    4e84:	00002537          	lui	a0,0x2
    4e88:	40a40533          	sub	a0,s0,a0
    4e8c:	6af53823          	sd	a5,1712(a0) # 26b0 <.LBB66_5+0x1274>
    4e90:	f9043503          	ld	a0,-112(s0)
    4e94:	0007d463          	bgez	a5,4e9c <.LBB66_106>
    4e98:	c00002b7          	lui	t0,0xc0000

0000000000004e9c <.LBB66_106>:
    4e9c:	f8a43823          	sd	a0,-112(s0)
    4ea0:	00002537          	lui	a0,0x2
    4ea4:	40a40533          	sub	a0,s0,a0
    4ea8:	6a553023          	sd	t0,1696(a0) # 26a0 <.LBB66_5+0x1264>
    4eac:	f6843783          	ld	a5,-152(s0)
    4eb0:	82843283          	ld	t0,-2008(s0)
    4eb4:	00f287b3          	add	a5,t0,a5
    4eb8:	00001537          	lui	a0,0x1
    4ebc:	40a40533          	sub	a0,s0,a0
    4ec0:	70853283          	ld	t0,1800(a0) # 1708 <.LBB66_5+0x2cc>
    4ec4:	005787b3          	add	a5,a5,t0
    4ec8:	413802bb          	subw	t0,a6,s3
    4ecc:	405787bb          	subw	a5,a5,t0
    4ed0:	400002b7          	lui	t0,0x40000
    4ed4:	00002537          	lui	a0,0x2
    4ed8:	40a40533          	sub	a0,s0,a0
    4edc:	62f53c23          	sd	a5,1592(a0) # 2638 <.LBB66_5+0x11fc>
    4ee0:	f9043503          	ld	a0,-112(s0)
    4ee4:	0007d463          	bgez	a5,4eec <.LBB66_108>
    4ee8:	c00002b7          	lui	t0,0xc0000

0000000000004eec <.LBB66_108>:
    4eec:	f8a43823          	sd	a0,-112(s0)
    4ef0:	00002537          	lui	a0,0x2
    4ef4:	40a40533          	sub	a0,s0,a0
    4ef8:	62553423          	sd	t0,1576(a0) # 2628 <.LBB66_5+0x11ec>
    4efc:	f7043783          	ld	a5,-144(s0)
    4f00:	83043283          	ld	t0,-2000(s0)
    4f04:	00f287b3          	add	a5,t0,a5
    4f08:	00001537          	lui	a0,0x1
    4f0c:	40a40533          	sub	a0,s0,a0
    4f10:	70053283          	ld	t0,1792(a0) # 1700 <.LBB66_5+0x2c4>
    4f14:	005787b3          	add	a5,a5,t0
    4f18:	413802bb          	subw	t0,a6,s3
    4f1c:	405787bb          	subw	a5,a5,t0
    4f20:	400002b7          	lui	t0,0x40000
    4f24:	00002537          	lui	a0,0x2
    4f28:	40a40533          	sub	a0,s0,a0
    4f2c:	5cf53023          	sd	a5,1472(a0) # 25c0 <.LBB66_5+0x1184>
    4f30:	f9043503          	ld	a0,-112(s0)
    4f34:	0007d463          	bgez	a5,4f3c <.LBB66_110>
    4f38:	c00002b7          	lui	t0,0xc0000

0000000000004f3c <.LBB66_110>:
    4f3c:	f8a43823          	sd	a0,-112(s0)
    4f40:	00002537          	lui	a0,0x2
    4f44:	40a40533          	sub	a0,s0,a0
    4f48:	5a553823          	sd	t0,1456(a0) # 25b0 <.LBB66_5+0x1174>
    4f4c:	f8043783          	ld	a5,-128(s0)
    4f50:	83843283          	ld	t0,-1992(s0)
    4f54:	00f287b3          	add	a5,t0,a5
    4f58:	00001537          	lui	a0,0x1
    4f5c:	40a40533          	sub	a0,s0,a0
    4f60:	6f853283          	ld	t0,1784(a0) # 16f8 <.LBB66_5+0x2bc>
    4f64:	005787b3          	add	a5,a5,t0
    4f68:	413802bb          	subw	t0,a6,s3
    4f6c:	405787bb          	subw	a5,a5,t0
    4f70:	400002b7          	lui	t0,0x40000
    4f74:	00002537          	lui	a0,0x2
    4f78:	40a40533          	sub	a0,s0,a0
    4f7c:	54f53423          	sd	a5,1352(a0) # 2548 <.LBB66_5+0x110c>
    4f80:	f9043503          	ld	a0,-112(s0)
    4f84:	0007d463          	bgez	a5,4f8c <.LBB66_112>
    4f88:	c00002b7          	lui	t0,0xc0000

0000000000004f8c <.LBB66_112>:
    4f8c:	f8a43823          	sd	a0,-112(s0)
    4f90:	00002537          	lui	a0,0x2
    4f94:	40a40533          	sub	a0,s0,a0
    4f98:	52553c23          	sd	t0,1336(a0) # 2538 <.LBB66_5+0x10fc>
    4f9c:	f8843783          	ld	a5,-120(s0)
    4fa0:	84043283          	ld	t0,-1984(s0)
    4fa4:	00f287b3          	add	a5,t0,a5
    4fa8:	00001537          	lui	a0,0x1
    4fac:	40a40533          	sub	a0,s0,a0
    4fb0:	6f053283          	ld	t0,1776(a0) # 16f0 <.LBB66_5+0x2b4>
    4fb4:	005787b3          	add	a5,a5,t0
    4fb8:	413802bb          	subw	t0,a6,s3
    4fbc:	405787bb          	subw	a5,a5,t0
    4fc0:	400002b7          	lui	t0,0x40000
    4fc4:	00002537          	lui	a0,0x2
    4fc8:	40a40533          	sub	a0,s0,a0
    4fcc:	4cf53c23          	sd	a5,1240(a0) # 24d8 <.LBB66_5+0x109c>
    4fd0:	f9043503          	ld	a0,-112(s0)
    4fd4:	0007d463          	bgez	a5,4fdc <.LBB66_114>
    4fd8:	c00002b7          	lui	t0,0xc0000

0000000000004fdc <.LBB66_114>:
    4fdc:	f8a43823          	sd	a0,-112(s0)
    4fe0:	00002537          	lui	a0,0x2
    4fe4:	40a40533          	sub	a0,s0,a0
    4fe8:	4c553423          	sd	t0,1224(a0) # 24c8 <.LBB66_5+0x108c>
    4fec:	00001537          	lui	a0,0x1
    4ff0:	40a40533          	sub	a0,s0,a0
    4ff4:	6a853783          	ld	a5,1704(a0) # 16a8 <.LBB66_5+0x26c>
    4ff8:	84843283          	ld	t0,-1976(s0)
    4ffc:	00f287b3          	add	a5,t0,a5
    5000:	00001537          	lui	a0,0x1
    5004:	40a40533          	sub	a0,s0,a0
    5008:	68853283          	ld	t0,1672(a0) # 1688 <.LBB66_5+0x24c>
    500c:	005787b3          	add	a5,a5,t0
    5010:	413802bb          	subw	t0,a6,s3
    5014:	405787bb          	subw	a5,a5,t0
    5018:	400002b7          	lui	t0,0x40000
    501c:	00002537          	lui	a0,0x2
    5020:	40a40533          	sub	a0,s0,a0
    5024:	46f53423          	sd	a5,1128(a0) # 2468 <.LBB66_5+0x102c>
    5028:	f9043503          	ld	a0,-112(s0)
    502c:	0007d463          	bgez	a5,5034 <.LBB66_116>
    5030:	c00002b7          	lui	t0,0xc0000

0000000000005034 <.LBB66_116>:
    5034:	f8a43823          	sd	a0,-112(s0)
    5038:	00002537          	lui	a0,0x2
    503c:	40a40533          	sub	a0,s0,a0
    5040:	44553c23          	sd	t0,1112(a0) # 2458 <.LBB66_5+0x101c>
    5044:	00001537          	lui	a0,0x1
    5048:	40a40533          	sub	a0,s0,a0
    504c:	69053783          	ld	a5,1680(a0) # 1690 <.LBB66_5+0x254>
    5050:	85043283          	ld	t0,-1968(s0)
    5054:	00f287b3          	add	a5,t0,a5
    5058:	00001537          	lui	a0,0x1
    505c:	40a40533          	sub	a0,s0,a0
    5060:	6e853283          	ld	t0,1768(a0) # 16e8 <.LBB66_5+0x2ac>
    5064:	005787b3          	add	a5,a5,t0
    5068:	413802bb          	subw	t0,a6,s3
    506c:	405787bb          	subw	a5,a5,t0
    5070:	400002b7          	lui	t0,0x40000
    5074:	00002537          	lui	a0,0x2
    5078:	40a40533          	sub	a0,s0,a0
    507c:	3ef53c23          	sd	a5,1016(a0) # 23f8 <.LBB66_5+0xfbc>
    5080:	f9043503          	ld	a0,-112(s0)
    5084:	0007d463          	bgez	a5,508c <.LBB66_118>
    5088:	c00002b7          	lui	t0,0xc0000

000000000000508c <.LBB66_118>:
    508c:	f8a43823          	sd	a0,-112(s0)
    5090:	00002537          	lui	a0,0x2
    5094:	40a40533          	sub	a0,s0,a0
    5098:	3e553423          	sd	t0,1000(a0) # 23e8 <.LBB66_5+0xfac>
    509c:	00001537          	lui	a0,0x1
    50a0:	40a40533          	sub	a0,s0,a0
    50a4:	6a053783          	ld	a5,1696(a0) # 16a0 <.LBB66_5+0x264>
    50a8:	85843283          	ld	t0,-1960(s0)
    50ac:	00f287b3          	add	a5,t0,a5
    50b0:	00001537          	lui	a0,0x1
    50b4:	40a40533          	sub	a0,s0,a0
    50b8:	6e053283          	ld	t0,1760(a0) # 16e0 <.LBB66_5+0x2a4>
    50bc:	005787b3          	add	a5,a5,t0
    50c0:	413802bb          	subw	t0,a6,s3
    50c4:	405787bb          	subw	a5,a5,t0
    50c8:	400002b7          	lui	t0,0x40000
    50cc:	00002537          	lui	a0,0x2
    50d0:	40a40533          	sub	a0,s0,a0
    50d4:	38f53423          	sd	a5,904(a0) # 2388 <.LBB66_5+0xf4c>
    50d8:	f9043503          	ld	a0,-112(s0)
    50dc:	0007d463          	bgez	a5,50e4 <.LBB66_120>
    50e0:	c00002b7          	lui	t0,0xc0000

00000000000050e4 <.LBB66_120>:
    50e4:	f8a43823          	sd	a0,-112(s0)
    50e8:	00002537          	lui	a0,0x2
    50ec:	40a40533          	sub	a0,s0,a0
    50f0:	36553c23          	sd	t0,888(a0) # 2378 <.LBB66_5+0xf3c>
    50f4:	00001537          	lui	a0,0x1
    50f8:	40a40533          	sub	a0,s0,a0
    50fc:	6b053783          	ld	a5,1712(a0) # 16b0 <.LBB66_5+0x274>
    5100:	86043283          	ld	t0,-1952(s0)
    5104:	00f287b3          	add	a5,t0,a5
    5108:	00001537          	lui	a0,0x1
    510c:	40a40533          	sub	a0,s0,a0
    5110:	6d853283          	ld	t0,1752(a0) # 16d8 <.LBB66_5+0x29c>
    5114:	005787b3          	add	a5,a5,t0
    5118:	413802bb          	subw	t0,a6,s3
    511c:	405787bb          	subw	a5,a5,t0
    5120:	400002b7          	lui	t0,0x40000
    5124:	00002537          	lui	a0,0x2
    5128:	40a40533          	sub	a0,s0,a0
    512c:	30f53c23          	sd	a5,792(a0) # 2318 <.LBB66_5+0xedc>
    5130:	f9043503          	ld	a0,-112(s0)
    5134:	0007d463          	bgez	a5,513c <.LBB66_122>
    5138:	c00002b7          	lui	t0,0xc0000

000000000000513c <.LBB66_122>:
    513c:	f8a43823          	sd	a0,-112(s0)
    5140:	00002537          	lui	a0,0x2
    5144:	40a40533          	sub	a0,s0,a0
    5148:	30553423          	sd	t0,776(a0) # 2308 <.LBB66_5+0xecc>
    514c:	00001537          	lui	a0,0x1
    5150:	40a40533          	sub	a0,s0,a0
    5154:	6b853783          	ld	a5,1720(a0) # 16b8 <.LBB66_5+0x27c>
    5158:	86843283          	ld	t0,-1944(s0)
    515c:	00f287b3          	add	a5,t0,a5
    5160:	00001537          	lui	a0,0x1
    5164:	40a40533          	sub	a0,s0,a0
    5168:	6d053283          	ld	t0,1744(a0) # 16d0 <.LBB66_5+0x294>
    516c:	005787b3          	add	a5,a5,t0
    5170:	413802bb          	subw	t0,a6,s3
    5174:	405787bb          	subw	a5,a5,t0
    5178:	400002b7          	lui	t0,0x40000
    517c:	00002537          	lui	a0,0x2
    5180:	40a40533          	sub	a0,s0,a0
    5184:	2af53423          	sd	a5,680(a0) # 22a8 <.LBB66_5+0xe6c>
    5188:	f9043503          	ld	a0,-112(s0)
    518c:	0007d463          	bgez	a5,5194 <.LBB66_124>
    5190:	c00002b7          	lui	t0,0xc0000

0000000000005194 <.LBB66_124>:
    5194:	f8a43823          	sd	a0,-112(s0)
    5198:	00002537          	lui	a0,0x2
    519c:	40a40533          	sub	a0,s0,a0
    51a0:	28553c23          	sd	t0,664(a0) # 2298 <.LBB66_5+0xe5c>
    51a4:	00001537          	lui	a0,0x1
    51a8:	40a40533          	sub	a0,s0,a0
    51ac:	6c053783          	ld	a5,1728(a0) # 16c0 <.LBB66_5+0x284>
    51b0:	87043283          	ld	t0,-1936(s0)
    51b4:	00f287b3          	add	a5,t0,a5
    51b8:	00001537          	lui	a0,0x1
    51bc:	40a40533          	sub	a0,s0,a0
    51c0:	6c853283          	ld	t0,1736(a0) # 16c8 <.LBB66_5+0x28c>
    51c4:	005787b3          	add	a5,a5,t0
    51c8:	413802bb          	subw	t0,a6,s3
    51cc:	405787bb          	subw	a5,a5,t0
    51d0:	400002b7          	lui	t0,0x40000
    51d4:	00002537          	lui	a0,0x2
    51d8:	40a40533          	sub	a0,s0,a0
    51dc:	22f53c23          	sd	a5,568(a0) # 2238 <.LBB66_5+0xdfc>
    51e0:	f9043503          	ld	a0,-112(s0)
    51e4:	0007d463          	bgez	a5,51ec <.LBB66_126>
    51e8:	c00002b7          	lui	t0,0xc0000

00000000000051ec <.LBB66_126>:
    51ec:	f8a43823          	sd	a0,-112(s0)
    51f0:	00002537          	lui	a0,0x2
    51f4:	40a40533          	sub	a0,s0,a0
    51f8:	22553423          	sd	t0,552(a0) # 2228 <.LBB66_5+0xdec>
    51fc:	e7843783          	ld	a5,-392(s0)
    5200:	87843283          	ld	t0,-1928(s0)
    5204:	00f287b3          	add	a5,t0,a5
    5208:	e7043283          	ld	t0,-400(s0)
    520c:	005787b3          	add	a5,a5,t0
    5210:	413802bb          	subw	t0,a6,s3
    5214:	405787bb          	subw	a5,a5,t0
    5218:	400002b7          	lui	t0,0x40000
    521c:	00002537          	lui	a0,0x2
    5220:	40a40533          	sub	a0,s0,a0
    5224:	1cf53423          	sd	a5,456(a0) # 21c8 <.LBB66_5+0xd8c>
    5228:	f9043503          	ld	a0,-112(s0)
    522c:	0007d463          	bgez	a5,5234 <.LBB66_128>
    5230:	c00002b7          	lui	t0,0xc0000

0000000000005234 <.LBB66_128>:
    5234:	f8a43823          	sd	a0,-112(s0)
    5238:	00002537          	lui	a0,0x2
    523c:	40a40533          	sub	a0,s0,a0
    5240:	1a553c23          	sd	t0,440(a0) # 21b8 <.LBB66_5+0xd7c>
    5244:	e8843783          	ld	a5,-376(s0)
    5248:	88043283          	ld	t0,-1920(s0)
    524c:	00f287b3          	add	a5,t0,a5
    5250:	e8043283          	ld	t0,-384(s0)
    5254:	005787b3          	add	a5,a5,t0
    5258:	413802bb          	subw	t0,a6,s3
    525c:	405787bb          	subw	a5,a5,t0
    5260:	400002b7          	lui	t0,0x40000
    5264:	00002537          	lui	a0,0x2
    5268:	40a40533          	sub	a0,s0,a0
    526c:	14f53c23          	sd	a5,344(a0) # 2158 <.LBB66_5+0xd1c>
    5270:	f9043503          	ld	a0,-112(s0)
    5274:	0007d463          	bgez	a5,527c <.LBB66_130>
    5278:	c00002b7          	lui	t0,0xc0000

000000000000527c <.LBB66_130>:
    527c:	f8a43823          	sd	a0,-112(s0)
    5280:	00002537          	lui	a0,0x2
    5284:	40a40533          	sub	a0,s0,a0
    5288:	14553423          	sd	t0,328(a0) # 2148 <.LBB66_5+0xd0c>
    528c:	e9843783          	ld	a5,-360(s0)
    5290:	88843283          	ld	t0,-1912(s0)
    5294:	00f287b3          	add	a5,t0,a5
    5298:	e9043283          	ld	t0,-368(s0)
    529c:	005787b3          	add	a5,a5,t0
    52a0:	413802bb          	subw	t0,a6,s3
    52a4:	405787bb          	subw	a5,a5,t0
    52a8:	400002b7          	lui	t0,0x40000
    52ac:	00002537          	lui	a0,0x2
    52b0:	40a40533          	sub	a0,s0,a0
    52b4:	0ef53423          	sd	a5,232(a0) # 20e8 <.LBB66_5+0xcac>
    52b8:	f9043503          	ld	a0,-112(s0)
    52bc:	0007d463          	bgez	a5,52c4 <.LBB66_132>
    52c0:	c00002b7          	lui	t0,0xc0000

00000000000052c4 <.LBB66_132>:
    52c4:	000027b7          	lui	a5,0x2
    52c8:	40f407b3          	sub	a5,s0,a5
    52cc:	0e57b023          	sd	t0,224(a5) # 20e0 <.LBB66_5+0xca4>
    52d0:	ea843783          	ld	a5,-344(s0)
    52d4:	00fd07b3          	add	a5,s10,a5
    52d8:	ea043283          	ld	t0,-352(s0)
    52dc:	005787b3          	add	a5,a5,t0
    52e0:	4138083b          	subw	a6,a6,s3
    52e4:	41078d3b          	subw	s10,a5,a6
    52e8:	400007b7          	lui	a5,0x40000
    52ec:	d8843283          	ld	t0,-632(s0)
    52f0:	000d5463          	bgez	s10,52f8 <.LBB66_134>
    52f4:	c00007b7          	lui	a5,0xc0000

00000000000052f8 <.LBB66_134>:
    52f8:	00002837          	lui	a6,0x2
    52fc:	41040833          	sub	a6,s0,a6
    5300:	08f83c23          	sd	a5,152(a6) # 2098 <.LBB66_5+0xc5c>
    5304:	89843783          	ld	a5,-1896(s0)
    5308:	eb043803          	ld	a6,-336(s0)
    530c:	010787b3          	add	a5,a5,a6
    5310:	00451513          	slli	a0,a0,0x4
    5314:	006787b3          	add	a5,a5,t1
    5318:	4135083b          	subw	a6,a0,s3
    531c:	410787bb          	subw	a5,a5,a6
    5320:	40000837          	lui	a6,0x40000
    5324:	82f43823          	sd	a5,-2000(s0)
    5328:	0007d463          	bgez	a5,5330 <.LBB66_136>
    532c:	c0000837          	lui	a6,0xc0000

0000000000005330 <.LBB66_136>:
    5330:	83043023          	sd	a6,-2016(s0)
    5334:	8a043783          	ld	a5,-1888(s0)
    5338:	eb843803          	ld	a6,-328(s0)
    533c:	010787b3          	add	a5,a5,a6
    5340:	015787b3          	add	a5,a5,s5
    5344:	4135083b          	subw	a6,a0,s3
    5348:	410787bb          	subw	a5,a5,a6
    534c:	40000837          	lui	a6,0x40000
    5350:	f8b43823          	sd	a1,-112(s0)
    5354:	000015b7          	lui	a1,0x1
    5358:	40b405b3          	sub	a1,s0,a1
    535c:	7cf5b823          	sd	a5,2000(a1) # 17d0 <.LBB66_5+0x394>
    5360:	f9043583          	ld	a1,-112(s0)
    5364:	0007d463          	bgez	a5,536c <.LBB66_138>
    5368:	c0000837          	lui	a6,0xc0000

000000000000536c <.LBB66_138>:
    536c:	f8b43823          	sd	a1,-112(s0)
    5370:	000015b7          	lui	a1,0x1
    5374:	40b405b3          	sub	a1,s0,a1
    5378:	7d05b023          	sd	a6,1984(a1) # 17c0 <.LBB66_5+0x384>
    537c:	8a843783          	ld	a5,-1880(s0)
    5380:	ec043803          	ld	a6,-320(s0)
    5384:	010787b3          	add	a5,a5,a6
    5388:	014787b3          	add	a5,a5,s4
    538c:	4135083b          	subw	a6,a0,s3
    5390:	410787bb          	subw	a5,a5,a6
    5394:	40000837          	lui	a6,0x40000
    5398:	000015b7          	lui	a1,0x1
    539c:	40b405b3          	sub	a1,s0,a1
    53a0:	74f5b423          	sd	a5,1864(a1) # 1748 <.LBB66_5+0x30c>
    53a4:	f9043583          	ld	a1,-112(s0)
    53a8:	0007d463          	bgez	a5,53b0 <.LBB66_140>
    53ac:	c0000837          	lui	a6,0xc0000

00000000000053b0 <.LBB66_140>:
    53b0:	f8b43823          	sd	a1,-112(s0)
    53b4:	000015b7          	lui	a1,0x1
    53b8:	40b405b3          	sub	a1,s0,a1
    53bc:	7305b823          	sd	a6,1840(a1) # 1730 <.LBB66_5+0x2f4>
    53c0:	8b043783          	ld	a5,-1872(s0)
    53c4:	ec843803          	ld	a6,-312(s0)
    53c8:	010787b3          	add	a5,a5,a6
    53cc:	007787b3          	add	a5,a5,t2
    53d0:	4135083b          	subw	a6,a0,s3
    53d4:	410787bb          	subw	a5,a5,a6
    53d8:	40000837          	lui	a6,0x40000
    53dc:	000015b7          	lui	a1,0x1
    53e0:	40b405b3          	sub	a1,s0,a1
    53e4:	58f5b423          	sd	a5,1416(a1) # 1588 <.LBB66_5+0x14c>
    53e8:	f9043583          	ld	a1,-112(s0)
    53ec:	0007d463          	bgez	a5,53f4 <.LBB66_142>
    53f0:	c0000837          	lui	a6,0xc0000

00000000000053f4 <.LBB66_142>:
    53f4:	f8b43823          	sd	a1,-112(s0)
    53f8:	000015b7          	lui	a1,0x1
