
code.o:     file format elf64-littleriscv


Disassembly of section .text.main_dispatch_35_matmul_784x32x144_i8xi8xi32:

0000000000000000 <main_dispatch_35_matmul_784x32x144_i8xi8xi32>:
       0:	f1501173          	csrrw	sp,0xf15,zero

0000000000000004 <.Lfunc_begin34>:
       4:	81010113          	addi	sp,sp,-2032
       8:	7e113423          	sd	ra,2024(sp)
       c:	7e813023          	sd	s0,2016(sp)
      10:	7c913c23          	sd	s1,2008(sp)
      14:	7d213823          	sd	s2,2000(sp)
      18:	7d313423          	sd	s3,1992(sp)
      1c:	7d413023          	sd	s4,1984(sp)
      20:	7b513c23          	sd	s5,1976(sp)
      24:	7b613823          	sd	s6,1968(sp)
      28:	7b713423          	sd	s7,1960(sp)
      2c:	7b813023          	sd	s8,1952(sp)
      30:	79913c23          	sd	s9,1944(sp)
      34:	79a13823          	sd	s10,1936(sp)
      38:	79b13423          	sd	s11,1928(sp)
      3c:	7f010413          	addi	s0,sp,2032
      40:	80010113          	addi	sp,sp,-2048
      44:	aa010113          	addi	sp,sp,-1376
      48:	0205b503          	ld	a0,32(a1)
      4c:	00000593          	li	a1,0
      50:	00853603          	ld	a2,8(a0)
      54:	00053703          	ld	a4,0(a0)
      58:	000276b7          	lui	a3,0x27
      5c:	b006869b          	addiw	a3,a3,-1280 # 26b00 <.LBB60_5080+0xc>
      60:	00d606b3          	add	a3,a2,a3
      64:	000017b7          	lui	a5,0x1
      68:	40f407b3          	sub	a5,s0,a5
      6c:	acd7bc23          	sd	a3,-1320(a5) # ad8 <.LBB34_1+0x7cc>
      70:	01053503          	ld	a0,16(a0)
      74:	000266b7          	lui	a3,0x26
      78:	9006869b          	addiw	a3,a3,-1792 # 25900 <.LBB77_4856+0xc>
      7c:	00d60633          	add	a2,a2,a3
      80:	000016b7          	lui	a3,0x1
      84:	40d406b3          	sub	a3,s0,a3
      88:	acc6b823          	sd	a2,-1328(a3) # ad0 <.LBB34_1+0x7c4>
      8c:	7ff50513          	addi	a0,a0,2047
      90:	44150513          	addi	a0,a0,1089
      94:	00001637          	lui	a2,0x1
      98:	40c40633          	sub	a2,s0,a2
      9c:	aca63423          	sd	a0,-1336(a2) # ac8 <.LBB34_1+0x7bc>

00000000000000a0 <.Lpcrel_hi6>:
      a0:	00000517          	auipc	a0,0x0
      a4:	00050513          	mv	a0,a0
      a8:	07c52603          	lw	a2,124(a0) # 11c <.Lpcrel_hi6+0x7c>
      ac:	000016b7          	lui	a3,0x1
      b0:	40d406b3          	sub	a3,s0,a3
      b4:	56c6bc23          	sd	a2,1400(a3) # 1578 <.LBB34_3+0xd4>
      b8:	07852603          	lw	a2,120(a0)
      bc:	000016b7          	lui	a3,0x1
      c0:	40d406b3          	sub	a3,s0,a3
      c4:	acc6b023          	sd	a2,-1344(a3) # ac0 <.LBB34_1+0x7b4>
      c8:	07452603          	lw	a2,116(a0)
      cc:	000016b7          	lui	a3,0x1
      d0:	40d406b3          	sub	a3,s0,a3
      d4:	aac6bc23          	sd	a2,-1352(a3) # ab8 <.LBB34_1+0x7ac>
      d8:	07052603          	lw	a2,112(a0)
      dc:	000016b7          	lui	a3,0x1
      e0:	40d406b3          	sub	a3,s0,a3
      e4:	64c6b823          	sd	a2,1616(a3) # 1650 <.LBB34_3+0x1ac>
      e8:	06c52603          	lw	a2,108(a0)
      ec:	000016b7          	lui	a3,0x1
      f0:	40d406b3          	sub	a3,s0,a3
      f4:	64c6b423          	sd	a2,1608(a3) # 1648 <.LBB34_3+0x1a4>
      f8:	06852603          	lw	a2,104(a0)
      fc:	000016b7          	lui	a3,0x1
     100:	40d406b3          	sub	a3,s0,a3
     104:	64c6b023          	sd	a2,1600(a3) # 1640 <.LBB34_3+0x19c>
     108:	06452603          	lw	a2,100(a0)
     10c:	000016b7          	lui	a3,0x1
     110:	40d406b3          	sub	a3,s0,a3
     114:	62c6bc23          	sd	a2,1592(a3) # 1638 <.LBB34_3+0x194>
     118:	06052603          	lw	a2,96(a0)
     11c:	000016b7          	lui	a3,0x1
     120:	40d406b3          	sub	a3,s0,a3
     124:	56c6b823          	sd	a2,1392(a3) # 1570 <.LBB34_3+0xcc>
     128:	05c52603          	lw	a2,92(a0)
     12c:	000016b7          	lui	a3,0x1
     130:	40d406b3          	sub	a3,s0,a3
     134:	56c6b423          	sd	a2,1384(a3) # 1568 <.LBB34_3+0xc4>
     138:	05852603          	lw	a2,88(a0)
     13c:	000016b7          	lui	a3,0x1
     140:	40d406b3          	sub	a3,s0,a3
     144:	56c6b023          	sd	a2,1376(a3) # 1560 <.LBB34_3+0xbc>
     148:	05452603          	lw	a2,84(a0)
     14c:	000016b7          	lui	a3,0x1
     150:	40d406b3          	sub	a3,s0,a3
     154:	62c6b823          	sd	a2,1584(a3) # 1630 <.LBB34_3+0x18c>
     158:	05052603          	lw	a2,80(a0)
     15c:	000016b7          	lui	a3,0x1
     160:	40d406b3          	sub	a3,s0,a3
     164:	62c6b423          	sd	a2,1576(a3) # 1628 <.LBB34_3+0x184>
     168:	04c52603          	lw	a2,76(a0)
     16c:	000016b7          	lui	a3,0x1
     170:	40d406b3          	sub	a3,s0,a3
     174:	62c6b023          	sd	a2,1568(a3) # 1620 <.LBB34_3+0x17c>
     178:	04852603          	lw	a2,72(a0)
     17c:	000016b7          	lui	a3,0x1
     180:	40d406b3          	sub	a3,s0,a3
     184:	60c6bc23          	sd	a2,1560(a3) # 1618 <.LBB34_3+0x174>
     188:	04452603          	lw	a2,68(a0)
     18c:	000016b7          	lui	a3,0x1
     190:	40d406b3          	sub	a3,s0,a3
     194:	60c6b823          	sd	a2,1552(a3) # 1610 <.LBB34_3+0x16c>
     198:	04052603          	lw	a2,64(a0)
     19c:	000016b7          	lui	a3,0x1
     1a0:	40d406b3          	sub	a3,s0,a3
     1a4:	60c6b423          	sd	a2,1544(a3) # 1608 <.LBB34_3+0x164>
     1a8:	03c52603          	lw	a2,60(a0)
     1ac:	000016b7          	lui	a3,0x1
     1b0:	40d406b3          	sub	a3,s0,a3
     1b4:	60c6b023          	sd	a2,1536(a3) # 1600 <.LBB34_3+0x15c>
     1b8:	03852603          	lw	a2,56(a0)
     1bc:	000016b7          	lui	a3,0x1
     1c0:	40d406b3          	sub	a3,s0,a3
     1c4:	5ec6bc23          	sd	a2,1528(a3) # 15f8 <.LBB34_3+0x154>
     1c8:	03452603          	lw	a2,52(a0)
     1cc:	000016b7          	lui	a3,0x1
     1d0:	40d406b3          	sub	a3,s0,a3
     1d4:	5ec6b823          	sd	a2,1520(a3) # 15f0 <.LBB34_3+0x14c>
     1d8:	03052603          	lw	a2,48(a0)
     1dc:	000016b7          	lui	a3,0x1
     1e0:	40d406b3          	sub	a3,s0,a3
     1e4:	5ec6b423          	sd	a2,1512(a3) # 15e8 <.LBB34_3+0x144>
     1e8:	02c52603          	lw	a2,44(a0)
     1ec:	000016b7          	lui	a3,0x1
     1f0:	40d406b3          	sub	a3,s0,a3
     1f4:	5ec6b023          	sd	a2,1504(a3) # 15e0 <.LBB34_3+0x13c>
     1f8:	02852603          	lw	a2,40(a0)
     1fc:	000016b7          	lui	a3,0x1
     200:	40d406b3          	sub	a3,s0,a3
     204:	5cc6bc23          	sd	a2,1496(a3) # 15d8 <.LBB34_3+0x134>
     208:	02452603          	lw	a2,36(a0)
     20c:	000016b7          	lui	a3,0x1
     210:	40d406b3          	sub	a3,s0,a3
     214:	5cc6b823          	sd	a2,1488(a3) # 15d0 <.LBB34_3+0x12c>
     218:	02052603          	lw	a2,32(a0)
     21c:	000016b7          	lui	a3,0x1
     220:	40d406b3          	sub	a3,s0,a3
     224:	5cc6b423          	sd	a2,1480(a3) # 15c8 <.LBB34_3+0x124>
     228:	01c52603          	lw	a2,28(a0)
     22c:	000016b7          	lui	a3,0x1
     230:	40d406b3          	sub	a3,s0,a3
     234:	5cc6b023          	sd	a2,1472(a3) # 15c0 <.LBB34_3+0x11c>
     238:	01852603          	lw	a2,24(a0)
     23c:	000016b7          	lui	a3,0x1
     240:	40d406b3          	sub	a3,s0,a3
     244:	5ac6bc23          	sd	a2,1464(a3) # 15b8 <.LBB34_3+0x114>
     248:	01452603          	lw	a2,20(a0)
     24c:	000016b7          	lui	a3,0x1
     250:	40d406b3          	sub	a3,s0,a3
     254:	5ac6b823          	sd	a2,1456(a3) # 15b0 <.LBB34_3+0x10c>
     258:	01052603          	lw	a2,16(a0)
     25c:	000016b7          	lui	a3,0x1
     260:	40d406b3          	sub	a3,s0,a3
     264:	5ac6b423          	sd	a2,1448(a3) # 15a8 <.LBB34_3+0x104>
     268:	00c52603          	lw	a2,12(a0)
     26c:	000016b7          	lui	a3,0x1
     270:	40d406b3          	sub	a3,s0,a3
     274:	5ac6b023          	sd	a2,1440(a3) # 15a0 <.LBB34_3+0xfc>
     278:	00852603          	lw	a2,8(a0)
     27c:	000016b7          	lui	a3,0x1
     280:	40d406b3          	sub	a3,s0,a3
     284:	58c6bc23          	sd	a2,1432(a3) # 1598 <.LBB34_3+0xf4>
     288:	00452603          	lw	a2,4(a0)
     28c:	000016b7          	lui	a3,0x1
     290:	40d406b3          	sub	a3,s0,a3
     294:	58c6b823          	sd	a2,1424(a3) # 1590 <.LBB34_3+0xec>
     298:	00052503          	lw	a0,0(a0)
     29c:	00001637          	lui	a2,0x1
     2a0:	40c40633          	sub	a2,s0,a2
     2a4:	58a63423          	sd	a0,1416(a2) # 1588 <.LBB34_3+0xe4>
     2a8:	0006e537          	lui	a0,0x6e
     2ac:	4005051b          	addiw	a0,a0,1024 # 6e400 <.Lfunc_end80+0x45a34>
     2b0:	00001637          	lui	a2,0x1
     2b4:	40c40633          	sub	a2,s0,a2
     2b8:	aee63023          	sd	a4,-1312(a2) # ae0 <.LBB34_1+0x7d4>
     2bc:	00a70733          	add	a4,a4,a0
     2c0:	00900513          	li	a0,9
     2c4:	00951513          	slli	a0,a0,0x9
     2c8:	00001637          	lui	a2,0x1
     2cc:	40c40633          	sub	a2,s0,a2
     2d0:	aaa63823          	sd	a0,-1360(a2) # ab0 <.LBB34_1+0x7a4>
     2d4:	0004d537          	lui	a0,0x4d
     2d8:	80050513          	addi	a0,a0,-2048 # 4c800 <.Lfunc_end80+0x23e34>
     2dc:	e6a43023          	sd	a0,-416(s0)
     2e0:	76f2d537          	lui	a0,0x76f2d
     2e4:	0ce5051b          	addiw	a0,a0,206 # 76f2d0ce <.Lfunc_end80+0x76f04702>
     2e8:	00001637          	lui	a2,0x1
     2ec:	40c40633          	sub	a2,s0,a2
     2f0:	68a63423          	sd	a0,1672(a2) # 1688 <.LBB34_3+0x1e4>
     2f4:	00100513          	li	a0,1
     2f8:	02751513          	slli	a0,a0,0x27
     2fc:	00001637          	lui	a2,0x1
     300:	40c40633          	sub	a2,s0,a2
     304:	68a63023          	sd	a0,1664(a2) # 1680 <.LBB34_3+0x1dc>
     308:	3f90006f          	j	f00 <.LBB34_2>

000000000000030c <.LBB34_1>:
     30c:	8de43c23          	sd	t5,-1832(s0)
     310:	ffff8f13          	addi	t5,t6,-1
     314:	00001737          	lui	a4,0x1
     318:	40e40733          	sub	a4,s0,a4
     31c:	58073703          	ld	a4,1408(a4) # 1580 <.LBB34_3+0xdc>
     320:	00571713          	slli	a4,a4,0x5
     324:	00001fb7          	lui	t6,0x1
     328:	41f40fb3          	sub	t6,s0,t6
     32c:	ac8fbf83          	ld	t6,-1336(t6) # ac8 <.LBB34_1+0x7bc>
     330:	00ef8733          	add	a4,t6,a4
     334:	01e701a3          	sb	t5,3(a4)
     338:	e4843f03          	ld	t5,-440(s0)
     33c:	ffff0f13          	addi	t5,t5,-1
     340:	01e70123          	sb	t5,2(a4)
     344:	e5843f03          	ld	t5,-424(s0)
     348:	ffff0f13          	addi	t5,t5,-1
     34c:	01e700a3          	sb	t5,1(a4)
     350:	e7043f03          	ld	t5,-400(s0)
     354:	ffff0f13          	addi	t5,t5,-1
     358:	01e70023          	sb	t5,0(a4)
     35c:	e8043f03          	ld	t5,-384(s0)
     360:	ffff0f13          	addi	t5,t5,-1
     364:	01e70223          	sb	t5,4(a4)
     368:	e9043f03          	ld	t5,-368(s0)
     36c:	ffff0f13          	addi	t5,t5,-1
     370:	01e702a3          	sb	t5,5(a4)
     374:	ea043f03          	ld	t5,-352(s0)
     378:	ffff0f13          	addi	t5,t5,-1
     37c:	01e70323          	sb	t5,6(a4)
     380:	eb043f03          	ld	t5,-336(s0)
     384:	ffff0f13          	addi	t5,t5,-1
     388:	01e703a3          	sb	t5,7(a4)
     38c:	ec043f03          	ld	t5,-320(s0)
     390:	ffff0f13          	addi	t5,t5,-1
     394:	01e70423          	sb	t5,8(a4)
     398:	ed043f03          	ld	t5,-304(s0)
     39c:	ffff0f13          	addi	t5,t5,-1
     3a0:	01e704a3          	sb	t5,9(a4)
     3a4:	ee043f03          	ld	t5,-288(s0)
     3a8:	ffff0f13          	addi	t5,t5,-1
     3ac:	01e70523          	sb	t5,10(a4)
     3b0:	ee843f03          	ld	t5,-280(s0)
     3b4:	ffff0f13          	addi	t5,t5,-1
     3b8:	01e705a3          	sb	t5,11(a4)
     3bc:	ef043f03          	ld	t5,-272(s0)
     3c0:	ffff0f13          	addi	t5,t5,-1
     3c4:	01e70623          	sb	t5,12(a4)
     3c8:	ef843f03          	ld	t5,-264(s0)
     3cc:	ffff0f13          	addi	t5,t5,-1
     3d0:	01e706a3          	sb	t5,13(a4)
     3d4:	f0043f03          	ld	t5,-256(s0)
     3d8:	ffff0f13          	addi	t5,t5,-1
     3dc:	01e70723          	sb	t5,14(a4)
     3e0:	f0843f03          	ld	t5,-248(s0)
     3e4:	ffff0f13          	addi	t5,t5,-1
     3e8:	01e707a3          	sb	t5,15(a4)
     3ec:	f1043f03          	ld	t5,-240(s0)
     3f0:	ffff0f13          	addi	t5,t5,-1
     3f4:	01e70823          	sb	t5,16(a4)
     3f8:	f1843f03          	ld	t5,-232(s0)
     3fc:	ffff0f13          	addi	t5,t5,-1
     400:	01e708a3          	sb	t5,17(a4)
     404:	f2043f03          	ld	t5,-224(s0)
     408:	ffff0f13          	addi	t5,t5,-1
     40c:	01e70923          	sb	t5,18(a4)
     410:	f2843f03          	ld	t5,-216(s0)
     414:	ffff0f13          	addi	t5,t5,-1
     418:	01e709a3          	sb	t5,19(a4)
     41c:	f3043f03          	ld	t5,-208(s0)
     420:	ffff0f13          	addi	t5,t5,-1
     424:	01e70a23          	sb	t5,20(a4)
     428:	f3843f03          	ld	t5,-200(s0)
     42c:	ffff0f13          	addi	t5,t5,-1
     430:	01e70aa3          	sb	t5,21(a4)
     434:	f4043f03          	ld	t5,-192(s0)
     438:	ffff0f13          	addi	t5,t5,-1
     43c:	01e70b23          	sb	t5,22(a4)
     440:	f4843f03          	ld	t5,-184(s0)
     444:	ffff0f13          	addi	t5,t5,-1
     448:	01e70ba3          	sb	t5,23(a4)
     44c:	f5043f03          	ld	t5,-176(s0)
     450:	ffff0f13          	addi	t5,t5,-1
     454:	01e70c23          	sb	t5,24(a4)
     458:	f5843f03          	ld	t5,-168(s0)
     45c:	ffff0f13          	addi	t5,t5,-1
     460:	01e70ca3          	sb	t5,25(a4)
     464:	f6043f03          	ld	t5,-160(s0)
     468:	ffff0f13          	addi	t5,t5,-1
     46c:	01e70d23          	sb	t5,26(a4)
     470:	f6843f03          	ld	t5,-152(s0)
     474:	ffff0f13          	addi	t5,t5,-1
     478:	01e70da3          	sb	t5,27(a4)
     47c:	f7043f03          	ld	t5,-144(s0)
     480:	ffff0f13          	addi	t5,t5,-1
     484:	01e70e23          	sb	t5,28(a4)
     488:	f7843f03          	ld	t5,-136(s0)
     48c:	ffff0f13          	addi	t5,t5,-1
     490:	01e70ea3          	sb	t5,29(a4)
     494:	f8043f03          	ld	t5,-128(s0)
     498:	ffff0f13          	addi	t5,t5,-1
     49c:	01e70f23          	sb	t5,30(a4)
     4a0:	f8843f03          	ld	t5,-120(s0)
     4a4:	ffff0f13          	addi	t5,t5,-1
     4a8:	01e70fa3          	sb	t5,31(a4)
     4ac:	d4043f03          	ld	t5,-704(s0)
     4b0:	ffff0f13          	addi	t5,t5,-1
     4b4:	03e701a3          	sb	t5,35(a4)
     4b8:	d5043f03          	ld	t5,-688(s0)
     4bc:	ffff0f13          	addi	t5,t5,-1
     4c0:	03e70123          	sb	t5,34(a4)
     4c4:	d6043f03          	ld	t5,-672(s0)
     4c8:	ffff0f13          	addi	t5,t5,-1
     4cc:	03e700a3          	sb	t5,33(a4)
     4d0:	d7043f03          	ld	t5,-656(s0)
     4d4:	ffff0f13          	addi	t5,t5,-1
     4d8:	03e70023          	sb	t5,32(a4)
     4dc:	d8043f03          	ld	t5,-640(s0)
     4e0:	ffff0f13          	addi	t5,t5,-1
     4e4:	03e70223          	sb	t5,36(a4)
     4e8:	d9043f03          	ld	t5,-624(s0)
     4ec:	ffff0f13          	addi	t5,t5,-1
     4f0:	03e702a3          	sb	t5,37(a4)
     4f4:	da043f03          	ld	t5,-608(s0)
     4f8:	ffff0f13          	addi	t5,t5,-1
     4fc:	03e70323          	sb	t5,38(a4)
     500:	db043f03          	ld	t5,-592(s0)
     504:	ffff0f13          	addi	t5,t5,-1
     508:	03e703a3          	sb	t5,39(a4)
     50c:	dc043f03          	ld	t5,-576(s0)
     510:	ffff0f13          	addi	t5,t5,-1
     514:	03e70423          	sb	t5,40(a4)
     518:	dd043f03          	ld	t5,-560(s0)
     51c:	ffff0f13          	addi	t5,t5,-1
     520:	03e704a3          	sb	t5,41(a4)
     524:	de043f03          	ld	t5,-544(s0)
     528:	ffff0f13          	addi	t5,t5,-1
     52c:	03e70523          	sb	t5,42(a4)
     530:	de843f03          	ld	t5,-536(s0)
     534:	ffff0f13          	addi	t5,t5,-1
     538:	03e705a3          	sb	t5,43(a4)
     53c:	df043f03          	ld	t5,-528(s0)
     540:	ffff0f13          	addi	t5,t5,-1
     544:	03e70623          	sb	t5,44(a4)
     548:	df843f03          	ld	t5,-520(s0)
     54c:	ffff0f13          	addi	t5,t5,-1
     550:	03e706a3          	sb	t5,45(a4)
     554:	e0043f03          	ld	t5,-512(s0)
     558:	ffff0f13          	addi	t5,t5,-1
     55c:	03e70723          	sb	t5,46(a4)
     560:	e0843f03          	ld	t5,-504(s0)
     564:	ffff0f13          	addi	t5,t5,-1
     568:	03e707a3          	sb	t5,47(a4)
     56c:	e1043f03          	ld	t5,-496(s0)
     570:	ffff0f13          	addi	t5,t5,-1
     574:	03e70823          	sb	t5,48(a4)
     578:	e1843f03          	ld	t5,-488(s0)
     57c:	ffff0f13          	addi	t5,t5,-1
     580:	03e708a3          	sb	t5,49(a4)
     584:	e2043f03          	ld	t5,-480(s0)
     588:	ffff0f13          	addi	t5,t5,-1
     58c:	03e70923          	sb	t5,50(a4)
     590:	e2843f03          	ld	t5,-472(s0)
     594:	ffff0f13          	addi	t5,t5,-1
     598:	03e709a3          	sb	t5,51(a4)
     59c:	e3043f03          	ld	t5,-464(s0)
     5a0:	ffff0f13          	addi	t5,t5,-1
     5a4:	03e70a23          	sb	t5,52(a4)
     5a8:	e3843f03          	ld	t5,-456(s0)
     5ac:	ffff0f13          	addi	t5,t5,-1
     5b0:	03e70aa3          	sb	t5,53(a4)
     5b4:	e4043f03          	ld	t5,-448(s0)
     5b8:	ffff0f13          	addi	t5,t5,-1
     5bc:	03e70b23          	sb	t5,54(a4)
     5c0:	e5043f03          	ld	t5,-432(s0)
     5c4:	ffff0f13          	addi	t5,t5,-1
     5c8:	03e70ba3          	sb	t5,55(a4)
     5cc:	e6843f03          	ld	t5,-408(s0)
     5d0:	ffff0f13          	addi	t5,t5,-1
     5d4:	03e70c23          	sb	t5,56(a4)
     5d8:	e7843f03          	ld	t5,-392(s0)
     5dc:	ffff0f13          	addi	t5,t5,-1
     5e0:	03e70ca3          	sb	t5,57(a4)
     5e4:	e8843f03          	ld	t5,-376(s0)
     5e8:	ffff0f13          	addi	t5,t5,-1
     5ec:	03e70d23          	sb	t5,58(a4)
     5f0:	e9843f03          	ld	t5,-360(s0)
     5f4:	ffff0f13          	addi	t5,t5,-1
     5f8:	03e70da3          	sb	t5,59(a4)
     5fc:	ea843f03          	ld	t5,-344(s0)
     600:	ffff0f13          	addi	t5,t5,-1
     604:	03e70e23          	sb	t5,60(a4)
     608:	eb843f03          	ld	t5,-328(s0)
     60c:	ffff0f13          	addi	t5,t5,-1
     610:	03e70ea3          	sb	t5,61(a4)
     614:	ec843f03          	ld	t5,-312(s0)
     618:	ffff0f13          	addi	t5,t5,-1
     61c:	03e70f23          	sb	t5,62(a4)
     620:	ed843f03          	ld	t5,-296(s0)
     624:	ffff0f13          	addi	t5,t5,-1
     628:	03e70fa3          	sb	t5,63(a4)
     62c:	c4043f03          	ld	t5,-960(s0)
     630:	ffff0f13          	addi	t5,t5,-1
     634:	05e701a3          	sb	t5,67(a4)
     638:	c5043f03          	ld	t5,-944(s0)
     63c:	ffff0f13          	addi	t5,t5,-1
     640:	05e70123          	sb	t5,66(a4)
     644:	c6043f03          	ld	t5,-928(s0)
     648:	ffff0f13          	addi	t5,t5,-1
     64c:	05e700a3          	sb	t5,65(a4)
     650:	c7043f03          	ld	t5,-912(s0)
     654:	ffff0f13          	addi	t5,t5,-1
     658:	05e70023          	sb	t5,64(a4)
     65c:	c8043f03          	ld	t5,-896(s0)
     660:	ffff0f13          	addi	t5,t5,-1
     664:	05e70223          	sb	t5,68(a4)
     668:	c9043f03          	ld	t5,-880(s0)
     66c:	ffff0f13          	addi	t5,t5,-1
     670:	05e702a3          	sb	t5,69(a4)
     674:	ca043f03          	ld	t5,-864(s0)
     678:	ffff0f13          	addi	t5,t5,-1
     67c:	05e70323          	sb	t5,70(a4)
     680:	cb043f03          	ld	t5,-848(s0)
     684:	ffff0f13          	addi	t5,t5,-1
     688:	05e703a3          	sb	t5,71(a4)
     68c:	cc043f03          	ld	t5,-832(s0)
     690:	ffff0f13          	addi	t5,t5,-1
     694:	05e70423          	sb	t5,72(a4)
     698:	cd043f03          	ld	t5,-816(s0)
     69c:	ffff0f13          	addi	t5,t5,-1
     6a0:	05e704a3          	sb	t5,73(a4)
     6a4:	ce043f03          	ld	t5,-800(s0)
     6a8:	ffff0f13          	addi	t5,t5,-1
     6ac:	05e70523          	sb	t5,74(a4)
     6b0:	ce843f03          	ld	t5,-792(s0)
     6b4:	ffff0f13          	addi	t5,t5,-1
     6b8:	05e705a3          	sb	t5,75(a4)
     6bc:	cf043f03          	ld	t5,-784(s0)
     6c0:	ffff0f13          	addi	t5,t5,-1
     6c4:	05e70623          	sb	t5,76(a4)
     6c8:	cf843f03          	ld	t5,-776(s0)
     6cc:	ffff0f13          	addi	t5,t5,-1
     6d0:	05e706a3          	sb	t5,77(a4)
     6d4:	d0043f03          	ld	t5,-768(s0)
     6d8:	ffff0f13          	addi	t5,t5,-1
     6dc:	05e70723          	sb	t5,78(a4)
     6e0:	d0843f03          	ld	t5,-760(s0)
     6e4:	ffff0f13          	addi	t5,t5,-1
     6e8:	05e707a3          	sb	t5,79(a4)
     6ec:	d1043f03          	ld	t5,-752(s0)
     6f0:	ffff0f13          	addi	t5,t5,-1
     6f4:	05e70823          	sb	t5,80(a4)
     6f8:	d1843f03          	ld	t5,-744(s0)
     6fc:	ffff0f13          	addi	t5,t5,-1
     700:	05e708a3          	sb	t5,81(a4)
     704:	d2043f03          	ld	t5,-736(s0)
     708:	ffff0f13          	addi	t5,t5,-1
     70c:	05e70923          	sb	t5,82(a4)
     710:	d2843f03          	ld	t5,-728(s0)
     714:	ffff0f13          	addi	t5,t5,-1
     718:	05e709a3          	sb	t5,83(a4)
     71c:	d3043f03          	ld	t5,-720(s0)
     720:	ffff0f13          	addi	t5,t5,-1
     724:	05e70a23          	sb	t5,84(a4)
     728:	d3843f03          	ld	t5,-712(s0)
     72c:	ffff0f13          	addi	t5,t5,-1
     730:	05e70aa3          	sb	t5,85(a4)
     734:	d4843f03          	ld	t5,-696(s0)
     738:	ffff0f13          	addi	t5,t5,-1
     73c:	05e70b23          	sb	t5,86(a4)
     740:	d5843f03          	ld	t5,-680(s0)
     744:	ffff0f13          	addi	t5,t5,-1
     748:	05e70ba3          	sb	t5,87(a4)
     74c:	d6843f03          	ld	t5,-664(s0)
     750:	ffff0f13          	addi	t5,t5,-1
     754:	05e70c23          	sb	t5,88(a4)
     758:	d7843f03          	ld	t5,-648(s0)
     75c:	ffff0f13          	addi	t5,t5,-1
     760:	05e70ca3          	sb	t5,89(a4)
     764:	d8843f03          	ld	t5,-632(s0)
     768:	ffff0f13          	addi	t5,t5,-1
     76c:	05e70d23          	sb	t5,90(a4)
     770:	d9843f03          	ld	t5,-616(s0)
     774:	ffff0f13          	addi	t5,t5,-1
     778:	05e70da3          	sb	t5,91(a4)
     77c:	da843f03          	ld	t5,-600(s0)
     780:	ffff0f13          	addi	t5,t5,-1
     784:	05e70e23          	sb	t5,92(a4)
     788:	db843f03          	ld	t5,-584(s0)
     78c:	ffff0f13          	addi	t5,t5,-1
     790:	05e70ea3          	sb	t5,93(a4)
     794:	dc843f03          	ld	t5,-568(s0)
     798:	ffff0f13          	addi	t5,t5,-1
     79c:	05e70f23          	sb	t5,94(a4)
     7a0:	dd843f03          	ld	t5,-552(s0)
     7a4:	ffff0f13          	addi	t5,t5,-1
     7a8:	05e70fa3          	sb	t5,95(a4)
     7ac:	b4043f03          	ld	t5,-1216(s0)
     7b0:	ffff0f13          	addi	t5,t5,-1
     7b4:	07e701a3          	sb	t5,99(a4)
     7b8:	b5043f03          	ld	t5,-1200(s0)
     7bc:	ffff0f13          	addi	t5,t5,-1
     7c0:	07e70123          	sb	t5,98(a4)
     7c4:	b6043f03          	ld	t5,-1184(s0)
     7c8:	ffff0f13          	addi	t5,t5,-1
     7cc:	07e700a3          	sb	t5,97(a4)
     7d0:	b7043f03          	ld	t5,-1168(s0)
     7d4:	ffff0f13          	addi	t5,t5,-1
     7d8:	07e70023          	sb	t5,96(a4)
     7dc:	b8043f03          	ld	t5,-1152(s0)
     7e0:	ffff0f13          	addi	t5,t5,-1
     7e4:	07e70223          	sb	t5,100(a4)
     7e8:	b9043f03          	ld	t5,-1136(s0)
     7ec:	ffff0f13          	addi	t5,t5,-1
     7f0:	07e702a3          	sb	t5,101(a4)
     7f4:	ba043f03          	ld	t5,-1120(s0)
     7f8:	ffff0f13          	addi	t5,t5,-1
     7fc:	07e70323          	sb	t5,102(a4)
     800:	bb043f03          	ld	t5,-1104(s0)
     804:	ffff0f13          	addi	t5,t5,-1
     808:	07e703a3          	sb	t5,103(a4)
     80c:	bc043f03          	ld	t5,-1088(s0)
     810:	ffff0f13          	addi	t5,t5,-1
     814:	07e70423          	sb	t5,104(a4)
     818:	bd043f03          	ld	t5,-1072(s0)
     81c:	ffff0f13          	addi	t5,t5,-1
     820:	07e704a3          	sb	t5,105(a4)
     824:	be043f03          	ld	t5,-1056(s0)
     828:	ffff0f13          	addi	t5,t5,-1
     82c:	07e70523          	sb	t5,106(a4)
     830:	be843f03          	ld	t5,-1048(s0)
     834:	ffff0f13          	addi	t5,t5,-1
     838:	07e705a3          	sb	t5,107(a4)
     83c:	bf043f03          	ld	t5,-1040(s0)
     840:	ffff0f13          	addi	t5,t5,-1
     844:	07e70623          	sb	t5,108(a4)
     848:	bf843f03          	ld	t5,-1032(s0)
     84c:	ffff0f13          	addi	t5,t5,-1
     850:	07e706a3          	sb	t5,109(a4)
     854:	c0043f03          	ld	t5,-1024(s0)
     858:	ffff0f13          	addi	t5,t5,-1
     85c:	07e70723          	sb	t5,110(a4)
     860:	c0843f03          	ld	t5,-1016(s0)
     864:	ffff0f13          	addi	t5,t5,-1
     868:	07e707a3          	sb	t5,111(a4)
     86c:	c1043f03          	ld	t5,-1008(s0)
     870:	ffff0f13          	addi	t5,t5,-1
     874:	07e70823          	sb	t5,112(a4)
     878:	c1843f03          	ld	t5,-1000(s0)
     87c:	ffff0f13          	addi	t5,t5,-1
     880:	07e708a3          	sb	t5,113(a4)
     884:	c2043f03          	ld	t5,-992(s0)
     888:	ffff0f13          	addi	t5,t5,-1
     88c:	07e70923          	sb	t5,114(a4)
     890:	c2843f03          	ld	t5,-984(s0)
     894:	ffff0f13          	addi	t5,t5,-1
     898:	07e709a3          	sb	t5,115(a4)
     89c:	c3043f03          	ld	t5,-976(s0)
     8a0:	ffff0f13          	addi	t5,t5,-1
     8a4:	07e70a23          	sb	t5,116(a4)
     8a8:	c3843f03          	ld	t5,-968(s0)
     8ac:	ffff0f13          	addi	t5,t5,-1
     8b0:	07e70aa3          	sb	t5,117(a4)
     8b4:	c4843f03          	ld	t5,-952(s0)
     8b8:	ffff0f13          	addi	t5,t5,-1
     8bc:	07e70b23          	sb	t5,118(a4)
     8c0:	c5843f03          	ld	t5,-936(s0)
     8c4:	ffff0f13          	addi	t5,t5,-1
     8c8:	07e70ba3          	sb	t5,119(a4)
     8cc:	c6843f03          	ld	t5,-920(s0)
     8d0:	ffff0f13          	addi	t5,t5,-1
     8d4:	07e70c23          	sb	t5,120(a4)
     8d8:	c7843f03          	ld	t5,-904(s0)
     8dc:	ffff0f13          	addi	t5,t5,-1
     8e0:	07e70ca3          	sb	t5,121(a4)
     8e4:	c8843f03          	ld	t5,-888(s0)
     8e8:	ffff0f13          	addi	t5,t5,-1
     8ec:	07e70d23          	sb	t5,122(a4)
     8f0:	c9843f03          	ld	t5,-872(s0)
     8f4:	ffff0f13          	addi	t5,t5,-1
     8f8:	07e70da3          	sb	t5,123(a4)
     8fc:	ca843f03          	ld	t5,-856(s0)
     900:	ffff0f13          	addi	t5,t5,-1
     904:	07e70e23          	sb	t5,124(a4)
     908:	cb843f03          	ld	t5,-840(s0)
     90c:	ffff0f13          	addi	t5,t5,-1
     910:	07e70ea3          	sb	t5,125(a4)
     914:	cc843f03          	ld	t5,-824(s0)
     918:	ffff0f13          	addi	t5,t5,-1
     91c:	07e70f23          	sb	t5,126(a4)
     920:	cd843f03          	ld	t5,-808(s0)
     924:	ffff0f13          	addi	t5,t5,-1
     928:	07e70fa3          	sb	t5,127(a4)
     92c:	a4043f03          	ld	t5,-1472(s0)
     930:	ffff0f13          	addi	t5,t5,-1
     934:	09e701a3          	sb	t5,131(a4)
     938:	a5043f03          	ld	t5,-1456(s0)
     93c:	ffff0f13          	addi	t5,t5,-1
     940:	09e70123          	sb	t5,130(a4)
     944:	a6043f03          	ld	t5,-1440(s0)
     948:	ffff0f13          	addi	t5,t5,-1
     94c:	09e700a3          	sb	t5,129(a4)
     950:	a7043f03          	ld	t5,-1424(s0)
     954:	ffff0f13          	addi	t5,t5,-1
     958:	09e70023          	sb	t5,128(a4)
     95c:	a8043f03          	ld	t5,-1408(s0)
     960:	ffff0f13          	addi	t5,t5,-1
     964:	09e70223          	sb	t5,132(a4)
     968:	a9043f03          	ld	t5,-1392(s0)
     96c:	ffff0f13          	addi	t5,t5,-1
     970:	09e702a3          	sb	t5,133(a4)
     974:	aa043f03          	ld	t5,-1376(s0)
     978:	ffff0f13          	addi	t5,t5,-1
     97c:	09e70323          	sb	t5,134(a4)
     980:	ab043f03          	ld	t5,-1360(s0)
     984:	ffff0f13          	addi	t5,t5,-1
     988:	09e703a3          	sb	t5,135(a4)
     98c:	ac043f03          	ld	t5,-1344(s0)
     990:	ffff0f13          	addi	t5,t5,-1
     994:	09e70423          	sb	t5,136(a4)
     998:	ad043f03          	ld	t5,-1328(s0)
     99c:	ffff0f13          	addi	t5,t5,-1
     9a0:	09e704a3          	sb	t5,137(a4)
     9a4:	ae043f03          	ld	t5,-1312(s0)
     9a8:	ffff0f13          	addi	t5,t5,-1
     9ac:	09e70523          	sb	t5,138(a4)
     9b0:	ae843f03          	ld	t5,-1304(s0)
     9b4:	ffff0f13          	addi	t5,t5,-1
     9b8:	09e705a3          	sb	t5,139(a4)
     9bc:	af043f03          	ld	t5,-1296(s0)
     9c0:	ffff0f13          	addi	t5,t5,-1
     9c4:	09e70623          	sb	t5,140(a4)
     9c8:	af843f03          	ld	t5,-1288(s0)
     9cc:	ffff0f13          	addi	t5,t5,-1
     9d0:	09e706a3          	sb	t5,141(a4)
     9d4:	b0043f03          	ld	t5,-1280(s0)
     9d8:	ffff0f13          	addi	t5,t5,-1
     9dc:	09e70723          	sb	t5,142(a4)
     9e0:	b0843f03          	ld	t5,-1272(s0)
     9e4:	ffff0f13          	addi	t5,t5,-1
     9e8:	09e707a3          	sb	t5,143(a4)
     9ec:	b1043f03          	ld	t5,-1264(s0)
     9f0:	ffff0f13          	addi	t5,t5,-1
     9f4:	09e70823          	sb	t5,144(a4)
     9f8:	b1843f03          	ld	t5,-1256(s0)
     9fc:	ffff0f13          	addi	t5,t5,-1
     a00:	09e708a3          	sb	t5,145(a4)
     a04:	b2043f03          	ld	t5,-1248(s0)
     a08:	ffff0f13          	addi	t5,t5,-1
     a0c:	09e70923          	sb	t5,146(a4)
     a10:	b2843f03          	ld	t5,-1240(s0)
     a14:	ffff0f13          	addi	t5,t5,-1
     a18:	09e709a3          	sb	t5,147(a4)
     a1c:	b3043f03          	ld	t5,-1232(s0)
     a20:	ffff0f13          	addi	t5,t5,-1
     a24:	09e70a23          	sb	t5,148(a4)
     a28:	b3843f03          	ld	t5,-1224(s0)
     a2c:	ffff0f13          	addi	t5,t5,-1
     a30:	09e70aa3          	sb	t5,149(a4)
     a34:	b4843f03          	ld	t5,-1208(s0)
     a38:	ffff0f13          	addi	t5,t5,-1
     a3c:	09e70b23          	sb	t5,150(a4)
     a40:	b5843f03          	ld	t5,-1192(s0)
     a44:	ffff0f13          	addi	t5,t5,-1
     a48:	09e70ba3          	sb	t5,151(a4)
     a4c:	b6843f03          	ld	t5,-1176(s0)
     a50:	ffff0f13          	addi	t5,t5,-1
     a54:	09e70c23          	sb	t5,152(a4)
     a58:	b7843f03          	ld	t5,-1160(s0)
     a5c:	ffff0f13          	addi	t5,t5,-1
     a60:	09e70ca3          	sb	t5,153(a4)
     a64:	b8843f03          	ld	t5,-1144(s0)
     a68:	ffff0f13          	addi	t5,t5,-1
     a6c:	09e70d23          	sb	t5,154(a4)
     a70:	b9843f03          	ld	t5,-1128(s0)
     a74:	ffff0f13          	addi	t5,t5,-1
     a78:	09e70da3          	sb	t5,155(a4)
     a7c:	ba843f03          	ld	t5,-1112(s0)
     a80:	ffff0f13          	addi	t5,t5,-1
     a84:	09e70e23          	sb	t5,156(a4)
     a88:	bb843f03          	ld	t5,-1096(s0)
     a8c:	ffff0f13          	addi	t5,t5,-1
     a90:	09e70ea3          	sb	t5,157(a4)
     a94:	bc843f03          	ld	t5,-1080(s0)
     a98:	ffff0f13          	addi	t5,t5,-1
     a9c:	09e70f23          	sb	t5,158(a4)
     aa0:	bd843f03          	ld	t5,-1064(s0)
     aa4:	ffff0f13          	addi	t5,t5,-1
     aa8:	09e70fa3          	sb	t5,159(a4)
     aac:	94043f03          	ld	t5,-1728(s0)
     ab0:	ffff0f13          	addi	t5,t5,-1
     ab4:	0be701a3          	sb	t5,163(a4)
     ab8:	95043f03          	ld	t5,-1712(s0)
     abc:	ffff0f13          	addi	t5,t5,-1
     ac0:	0be70123          	sb	t5,162(a4)
     ac4:	96043f03          	ld	t5,-1696(s0)
     ac8:	ffff0f13          	addi	t5,t5,-1
     acc:	0be700a3          	sb	t5,161(a4)
     ad0:	97043f03          	ld	t5,-1680(s0)
     ad4:	ffff0f13          	addi	t5,t5,-1
     ad8:	0be70023          	sb	t5,160(a4)
     adc:	98043f03          	ld	t5,-1664(s0)
     ae0:	ffff0f13          	addi	t5,t5,-1
     ae4:	0be70223          	sb	t5,164(a4)
     ae8:	99043f03          	ld	t5,-1648(s0)
     aec:	ffff0f13          	addi	t5,t5,-1
     af0:	0be702a3          	sb	t5,165(a4)
     af4:	9a043f03          	ld	t5,-1632(s0)
     af8:	ffff0f13          	addi	t5,t5,-1
     afc:	0be70323          	sb	t5,166(a4)
     b00:	9b043f03          	ld	t5,-1616(s0)
     b04:	ffff0f13          	addi	t5,t5,-1
     b08:	0be703a3          	sb	t5,167(a4)
     b0c:	9c043f03          	ld	t5,-1600(s0)
     b10:	ffff0f13          	addi	t5,t5,-1
     b14:	0be70423          	sb	t5,168(a4)
     b18:	9d043f03          	ld	t5,-1584(s0)
     b1c:	ffff0f13          	addi	t5,t5,-1
     b20:	0be704a3          	sb	t5,169(a4)
     b24:	9e043f03          	ld	t5,-1568(s0)
     b28:	ffff0f13          	addi	t5,t5,-1
     b2c:	0be70523          	sb	t5,170(a4)
     b30:	9e843f03          	ld	t5,-1560(s0)
     b34:	ffff0f13          	addi	t5,t5,-1
     b38:	0be705a3          	sb	t5,171(a4)
     b3c:	9f043f03          	ld	t5,-1552(s0)
     b40:	ffff0f13          	addi	t5,t5,-1
     b44:	0be70623          	sb	t5,172(a4)
     b48:	9f843f03          	ld	t5,-1544(s0)
     b4c:	ffff0f13          	addi	t5,t5,-1
     b50:	0be706a3          	sb	t5,173(a4)
     b54:	a0043f03          	ld	t5,-1536(s0)
     b58:	ffff0f13          	addi	t5,t5,-1
     b5c:	0be70723          	sb	t5,174(a4)
     b60:	a0843f03          	ld	t5,-1528(s0)
     b64:	ffff0f13          	addi	t5,t5,-1
     b68:	0be707a3          	sb	t5,175(a4)
     b6c:	a1043f03          	ld	t5,-1520(s0)
     b70:	ffff0f13          	addi	t5,t5,-1
     b74:	0be70823          	sb	t5,176(a4)
     b78:	a1843f03          	ld	t5,-1512(s0)
     b7c:	ffff0f13          	addi	t5,t5,-1
     b80:	0be708a3          	sb	t5,177(a4)
     b84:	a2043f03          	ld	t5,-1504(s0)
     b88:	ffff0f13          	addi	t5,t5,-1
     b8c:	0be70923          	sb	t5,178(a4)
     b90:	a2843f03          	ld	t5,-1496(s0)
     b94:	ffff0f13          	addi	t5,t5,-1
     b98:	0be709a3          	sb	t5,179(a4)
     b9c:	a3043f03          	ld	t5,-1488(s0)
     ba0:	ffff0f13          	addi	t5,t5,-1
     ba4:	0be70a23          	sb	t5,180(a4)
     ba8:	a3843f03          	ld	t5,-1480(s0)
     bac:	ffff0f13          	addi	t5,t5,-1
     bb0:	0be70aa3          	sb	t5,181(a4)
     bb4:	a4843f03          	ld	t5,-1464(s0)
     bb8:	ffff0f13          	addi	t5,t5,-1
     bbc:	0be70b23          	sb	t5,182(a4)
     bc0:	a5843f03          	ld	t5,-1448(s0)
     bc4:	ffff0f13          	addi	t5,t5,-1
     bc8:	0be70ba3          	sb	t5,183(a4)
     bcc:	a6843f03          	ld	t5,-1432(s0)
     bd0:	ffff0f13          	addi	t5,t5,-1
     bd4:	0be70c23          	sb	t5,184(a4)
     bd8:	a7843f03          	ld	t5,-1416(s0)
     bdc:	ffff0f13          	addi	t5,t5,-1
     be0:	0be70ca3          	sb	t5,185(a4)
     be4:	a8843f03          	ld	t5,-1400(s0)
     be8:	ffff0f13          	addi	t5,t5,-1
     bec:	0be70d23          	sb	t5,186(a4)
     bf0:	a9843f03          	ld	t5,-1384(s0)
     bf4:	ffff0f13          	addi	t5,t5,-1
     bf8:	0be70da3          	sb	t5,187(a4)
     bfc:	aa843f03          	ld	t5,-1368(s0)
     c00:	ffff0f13          	addi	t5,t5,-1
     c04:	0be70e23          	sb	t5,188(a4)
     c08:	ab843f03          	ld	t5,-1352(s0)
     c0c:	ffff0f13          	addi	t5,t5,-1
     c10:	0be70ea3          	sb	t5,189(a4)
     c14:	ac843f03          	ld	t5,-1336(s0)
     c18:	ffff0f13          	addi	t5,t5,-1
     c1c:	0be70f23          	sb	t5,190(a4)
     c20:	ad843f03          	ld	t5,-1320(s0)
     c24:	ffff0f13          	addi	t5,t5,-1
     c28:	0be70fa3          	sb	t5,191(a4)
     c2c:	87043903          	ld	s2,-1936(s0)
     c30:	fff90913          	addi	s2,s2,-1
     c34:	0d2701a3          	sb	s2,195(a4)
     c38:	88043f83          	ld	t6,-1920(s0)
     c3c:	ffff8f93          	addi	t6,t6,-1
     c40:	0df70123          	sb	t6,194(a4)
     c44:	fff58f13          	addi	t5,a1,-1
     c48:	0de700a3          	sb	t5,193(a4)
     c4c:	fffb0f13          	addi	t5,s6,-1
     c50:	0de70023          	sb	t5,192(a4)
     c54:	8a043f03          	ld	t5,-1888(s0)
     c58:	ffff0f13          	addi	t5,t5,-1
     c5c:	0de70223          	sb	t5,196(a4)
     c60:	8a843f03          	ld	t5,-1880(s0)
     c64:	ffff0f13          	addi	t5,t5,-1
     c68:	0de702a3          	sb	t5,197(a4)
     c6c:	fffa8f13          	addi	t5,s5,-1
     c70:	0de70323          	sb	t5,198(a4)
     c74:	fffa0f13          	addi	t5,s4,-1
     c78:	0de703a3          	sb	t5,199(a4)
     c7c:	fff98f13          	addi	t5,s3,-1
     c80:	0de70423          	sb	t5,200(a4)
     c84:	8d043f03          	ld	t5,-1840(s0)
     c88:	ffff0f13          	addi	t5,t5,-1
     c8c:	0de704a3          	sb	t5,201(a4)
     c90:	8e043f03          	ld	t5,-1824(s0)
     c94:	ffff0f13          	addi	t5,t5,-1
     c98:	0de70523          	sb	t5,202(a4)
     c9c:	8e843f03          	ld	t5,-1816(s0)
     ca0:	ffff0f13          	addi	t5,t5,-1
     ca4:	0de705a3          	sb	t5,203(a4)
     ca8:	8f043f03          	ld	t5,-1808(s0)
     cac:	ffff0f13          	addi	t5,t5,-1
     cb0:	0de70623          	sb	t5,204(a4)
     cb4:	8f843f03          	ld	t5,-1800(s0)
     cb8:	ffff0f13          	addi	t5,t5,-1
     cbc:	0de706a3          	sb	t5,205(a4)
     cc0:	90043f03          	ld	t5,-1792(s0)
     cc4:	ffff0f13          	addi	t5,t5,-1
     cc8:	0de70723          	sb	t5,206(a4)
     ccc:	90843f03          	ld	t5,-1784(s0)
     cd0:	ffff0f13          	addi	t5,t5,-1
     cd4:	0de707a3          	sb	t5,207(a4)
     cd8:	91043f03          	ld	t5,-1776(s0)
     cdc:	ffff0f13          	addi	t5,t5,-1
     ce0:	0de70823          	sb	t5,208(a4)
     ce4:	91843f03          	ld	t5,-1768(s0)
     ce8:	ffff0f13          	addi	t5,t5,-1
     cec:	0de708a3          	sb	t5,209(a4)
     cf0:	92043f03          	ld	t5,-1760(s0)
     cf4:	ffff0f13          	addi	t5,t5,-1
     cf8:	0de70923          	sb	t5,210(a4)
     cfc:	92843f03          	ld	t5,-1752(s0)
     d00:	ffff0f13          	addi	t5,t5,-1
     d04:	0de709a3          	sb	t5,211(a4)
     d08:	93043f03          	ld	t5,-1744(s0)
     d0c:	ffff0f13          	addi	t5,t5,-1
     d10:	0de70a23          	sb	t5,212(a4)
     d14:	93843f03          	ld	t5,-1736(s0)
     d18:	ffff0f13          	addi	t5,t5,-1
     d1c:	0de70aa3          	sb	t5,213(a4)
     d20:	94843f03          	ld	t5,-1720(s0)
     d24:	ffff0f13          	addi	t5,t5,-1
     d28:	0de70b23          	sb	t5,214(a4)
     d2c:	95843f03          	ld	t5,-1704(s0)
     d30:	ffff0f13          	addi	t5,t5,-1
     d34:	0de70ba3          	sb	t5,215(a4)
     d38:	96843f03          	ld	t5,-1688(s0)
     d3c:	ffff0f13          	addi	t5,t5,-1
     d40:	0de70c23          	sb	t5,216(a4)
     d44:	97843f03          	ld	t5,-1672(s0)
     d48:	ffff0f13          	addi	t5,t5,-1
     d4c:	0de70ca3          	sb	t5,217(a4)
     d50:	98843f03          	ld	t5,-1656(s0)
     d54:	ffff0f13          	addi	t5,t5,-1
     d58:	0de70d23          	sb	t5,218(a4)
     d5c:	99843f03          	ld	t5,-1640(s0)
     d60:	ffff0f13          	addi	t5,t5,-1
     d64:	0de70da3          	sb	t5,219(a4)
     d68:	9a843f03          	ld	t5,-1624(s0)
     d6c:	ffff0f13          	addi	t5,t5,-1
     d70:	0de70e23          	sb	t5,220(a4)
     d74:	9b843f03          	ld	t5,-1608(s0)
     d78:	ffff0f13          	addi	t5,t5,-1
     d7c:	0de70ea3          	sb	t5,221(a4)
     d80:	9c843f03          	ld	t5,-1592(s0)
     d84:	ffff0f13          	addi	t5,t5,-1
     d88:	0de70f23          	sb	t5,222(a4)
     d8c:	9d843f03          	ld	t5,-1576(s0)
     d90:	ffff0f13          	addi	t5,t5,-1
     d94:	0de70fa3          	sb	t5,223(a4)
     d98:	fff30313          	addi	t1,t1,-1
     d9c:	0e6701a3          	sb	t1,227(a4)
     da0:	fff28293          	addi	t0,t0,-1
     da4:	0e570123          	sb	t0,226(a4)
     da8:	fff88893          	addi	a7,a7,-1
     dac:	0f1700a3          	sb	a7,225(a4)
     db0:	fff80813          	addi	a6,a6,-1
     db4:	0f070023          	sb	a6,224(a4)
     db8:	fff78793          	addi	a5,a5,-1
     dbc:	0ef70223          	sb	a5,228(a4)
     dc0:	fff50513          	addi	a0,a0,-1
     dc4:	0ea702a3          	sb	a0,229(a4)
     dc8:	fff60613          	addi	a2,a2,-1
     dcc:	0ec70323          	sb	a2,230(a4)
     dd0:	fff68693          	addi	a3,a3,-1
     dd4:	0ed703a3          	sb	a3,231(a4)
     dd8:	fff08093          	addi	ra,ra,-1
     ddc:	0e170423          	sb	ra,232(a4)
     de0:	fffd8d93          	addi	s11,s11,-1
     de4:	0fb704a3          	sb	s11,233(a4)
     de8:	fffd0d13          	addi	s10,s10,-1
     dec:	0fa70523          	sb	s10,234(a4)
     df0:	fffc8c93          	addi	s9,s9,-1
     df4:	0f9705a3          	sb	s9,235(a4)
     df8:	fffc0c13          	addi	s8,s8,-1
     dfc:	0f870623          	sb	s8,236(a4)
     e00:	fffb8b93          	addi	s7,s7,-1
     e04:	0f7706a3          	sb	s7,237(a4)
     e08:	fffe8e93          	addi	t4,t4,-1
     e0c:	0fd70723          	sb	t4,238(a4)
     e10:	fffe0e13          	addi	t3,t3,-1
     e14:	0fc707a3          	sb	t3,239(a4)
     e18:	fff38393          	addi	t2,t2,-1
     e1c:	0e770823          	sb	t2,240(a4)
     e20:	84843583          	ld	a1,-1976(s0)
     e24:	fff58593          	addi	a1,a1,-1
     e28:	0eb708a3          	sb	a1,241(a4)
     e2c:	85043b03          	ld	s6,-1968(s0)
     e30:	fffb0b13          	addi	s6,s6,-1
     e34:	0f670923          	sb	s6,242(a4)
     e38:	85843a83          	ld	s5,-1960(s0)
     e3c:	fffa8a93          	addi	s5,s5,-1
     e40:	0f5709a3          	sb	s5,243(a4)
     e44:	86043a03          	ld	s4,-1952(s0)
     e48:	fffa0a13          	addi	s4,s4,-1
     e4c:	0f470a23          	sb	s4,244(a4)
     e50:	86843983          	ld	s3,-1944(s0)
     e54:	fff98993          	addi	s3,s3,-1
     e58:	0f370aa3          	sb	s3,245(a4)
     e5c:	87843483          	ld	s1,-1928(s0)
     e60:	fff48493          	addi	s1,s1,-1
     e64:	0e970b23          	sb	s1,246(a4)
     e68:	88843503          	ld	a0,-1912(s0)
     e6c:	fff50513          	addi	a0,a0,-1
     e70:	0ea70ba3          	sb	a0,247(a4)
     e74:	89043503          	ld	a0,-1904(s0)
     e78:	fff50513          	addi	a0,a0,-1
     e7c:	0ea70c23          	sb	a0,248(a4)
     e80:	89843503          	ld	a0,-1896(s0)
     e84:	fff50513          	addi	a0,a0,-1
     e88:	0ea70ca3          	sb	a0,249(a4)
     e8c:	84043503          	ld	a0,-1984(s0)
     e90:	fff50513          	addi	a0,a0,-1
     e94:	0ea70d23          	sb	a0,250(a4)
     e98:	8b043503          	ld	a0,-1872(s0)
     e9c:	fff50513          	addi	a0,a0,-1
     ea0:	0ea70da3          	sb	a0,251(a4)
     ea4:	8b843503          	ld	a0,-1864(s0)
     ea8:	fff50513          	addi	a0,a0,-1
     eac:	0ea70e23          	sb	a0,252(a4)
     eb0:	8c043503          	ld	a0,-1856(s0)
     eb4:	fff50513          	addi	a0,a0,-1
     eb8:	0ea70ea3          	sb	a0,253(a4)
     ebc:	8c843503          	ld	a0,-1848(s0)
     ec0:	fff50513          	addi	a0,a0,-1
     ec4:	0ea70f23          	sb	a0,254(a4)
     ec8:	8d843503          	ld	a0,-1832(s0)
     ecc:	fff50513          	addi	a0,a0,-1
     ed0:	0ea70fa3          	sb	a0,255(a4)
     ed4:	00001537          	lui	a0,0x1
     ed8:	40a40533          	sub	a0,s0,a0
     edc:	58053603          	ld	a2,1408(a0) # 1580 <.LBB34_3+0xdc>
     ee0:	00860593          	addi	a1,a2,8
     ee4:	00001537          	lui	a0,0x1
     ee8:	40a40533          	sub	a0,s0,a0
     eec:	55853703          	ld	a4,1368(a0) # 1558 <.LBB34_3+0xb4>
     ef0:	48070713          	addi	a4,a4,1152
     ef4:	30800513          	li	a0,776
     ef8:	00a66463          	bltu	a2,a0,f00 <.LBB34_2>
     efc:	60c0b06f          	j	c508 <.LBB34_1540>

0000000000000f00 <.LBB34_2>:
     f00:	00001537          	lui	a0,0x1
     f04:	40a40533          	sub	a0,s0,a0
     f08:	58b53023          	sd	a1,1408(a0) # 1580 <.LBB34_3+0xdc>
     f0c:	00001537          	lui	a0,0x1
     f10:	40a40533          	sub	a0,s0,a0
     f14:	54e53c23          	sd	a4,1368(a0) # 1558 <.LBB34_3+0xb4>
     f18:	00070793          	mv	a5,a4
     f1c:	00001537          	lui	a0,0x1
     f20:	40a40533          	sub	a0,s0,a0
     f24:	ab053f03          	ld	t5,-1360(a0) # ab0 <.LBB34_1+0x7a4>
     f28:	00001537          	lui	a0,0x1
     f2c:	40a40533          	sub	a0,s0,a0
     f30:	ad053f83          	ld	t6,-1328(a0) # ad0 <.LBB34_1+0x7c4>
     f34:	00001537          	lui	a0,0x1
     f38:	40a40533          	sub	a0,s0,a0
     f3c:	6c053023          	sd	zero,1728(a0) # 16c0 <.LBB34_3+0x21c>
     f40:	00001537          	lui	a0,0x1
     f44:	40a40533          	sub	a0,s0,a0
     f48:	6a053423          	sd	zero,1704(a0) # 16a8 <.LBB34_3+0x204>
     f4c:	00001537          	lui	a0,0x1
     f50:	40a40533          	sub	a0,s0,a0
     f54:	6a053023          	sd	zero,1696(a0) # 16a0 <.LBB34_3+0x1fc>
     f58:	00001537          	lui	a0,0x1
     f5c:	40a40533          	sub	a0,s0,a0
     f60:	6a053823          	sd	zero,1712(a0) # 16b0 <.LBB34_3+0x20c>
     f64:	00001537          	lui	a0,0x1
     f68:	40a40533          	sub	a0,s0,a0
     f6c:	68053c23          	sd	zero,1688(a0) # 1698 <.LBB34_3+0x1f4>
     f70:	00001537          	lui	a0,0x1
     f74:	40a40533          	sub	a0,s0,a0
     f78:	68053823          	sd	zero,1680(a0) # 1690 <.LBB34_3+0x1ec>
     f7c:	00001537          	lui	a0,0x1
     f80:	40a40533          	sub	a0,s0,a0
     f84:	6a053c23          	sd	zero,1720(a0) # 16b8 <.LBB34_3+0x214>
     f88:	00001537          	lui	a0,0x1
     f8c:	40a40533          	sub	a0,s0,a0
     f90:	6c053423          	sd	zero,1736(a0) # 16c8 <.LBB34_3+0x224>
     f94:	00001537          	lui	a0,0x1
     f98:	40a40533          	sub	a0,s0,a0
     f9c:	6c053823          	sd	zero,1744(a0) # 16d0 <.LBB34_3+0x22c>
     fa0:	00001537          	lui	a0,0x1
     fa4:	40a40533          	sub	a0,s0,a0
     fa8:	6c053c23          	sd	zero,1752(a0) # 16d8 <.LBB34_3+0x234>
     fac:	00001537          	lui	a0,0x1
     fb0:	40a40533          	sub	a0,s0,a0
     fb4:	6e053023          	sd	zero,1760(a0) # 16e0 <.LBB34_3+0x23c>
     fb8:	00001537          	lui	a0,0x1
     fbc:	40a40533          	sub	a0,s0,a0
     fc0:	6e053423          	sd	zero,1768(a0) # 16e8 <.LBB34_3+0x244>
     fc4:	00001537          	lui	a0,0x1
     fc8:	40a40533          	sub	a0,s0,a0
     fcc:	6e053823          	sd	zero,1776(a0) # 16f0 <.LBB34_3+0x24c>
     fd0:	00001537          	lui	a0,0x1
     fd4:	40a40533          	sub	a0,s0,a0
     fd8:	6e053c23          	sd	zero,1784(a0) # 16f8 <.LBB34_3+0x254>
     fdc:	00001537          	lui	a0,0x1
     fe0:	40a40533          	sub	a0,s0,a0
     fe4:	70053023          	sd	zero,1792(a0) # 1700 <.LBB34_3+0x25c>
     fe8:	00001537          	lui	a0,0x1
     fec:	40a40533          	sub	a0,s0,a0
     ff0:	70053423          	sd	zero,1800(a0) # 1708 <.LBB34_3+0x264>
     ff4:	00001537          	lui	a0,0x1
     ff8:	40a40533          	sub	a0,s0,a0
     ffc:	70053823          	sd	zero,1808(a0) # 1710 <.LBB34_3+0x26c>
    1000:	00001537          	lui	a0,0x1
    1004:	40a40533          	sub	a0,s0,a0
    1008:	70053c23          	sd	zero,1816(a0) # 1718 <.LBB34_3+0x274>
    100c:	00001537          	lui	a0,0x1
    1010:	40a40533          	sub	a0,s0,a0
    1014:	72053023          	sd	zero,1824(a0) # 1720 <.LBB34_3+0x27c>
    1018:	00001537          	lui	a0,0x1
    101c:	40a40533          	sub	a0,s0,a0
    1020:	72053423          	sd	zero,1832(a0) # 1728 <.LBB34_3+0x284>
    1024:	00001537          	lui	a0,0x1
    1028:	40a40533          	sub	a0,s0,a0
    102c:	72053823          	sd	zero,1840(a0) # 1730 <.LBB34_3+0x28c>
    1030:	00001537          	lui	a0,0x1
    1034:	40a40533          	sub	a0,s0,a0
    1038:	72053c23          	sd	zero,1848(a0) # 1738 <.LBB34_3+0x294>
    103c:	00001537          	lui	a0,0x1
    1040:	40a40533          	sub	a0,s0,a0
    1044:	74053023          	sd	zero,1856(a0) # 1740 <.LBB34_3+0x29c>
    1048:	00000493          	li	s1,0
    104c:	00001537          	lui	a0,0x1
    1050:	40a40533          	sub	a0,s0,a0
    1054:	74053423          	sd	zero,1864(a0) # 1748 <.LBB34_3+0x2a4>
    1058:	00001537          	lui	a0,0x1
    105c:	40a40533          	sub	a0,s0,a0
    1060:	74053823          	sd	zero,1872(a0) # 1750 <.LBB34_3+0x2ac>
    1064:	00001537          	lui	a0,0x1
    1068:	40a40533          	sub	a0,s0,a0
    106c:	74053c23          	sd	zero,1880(a0) # 1758 <.LBB34_3+0x2b4>
    1070:	00001537          	lui	a0,0x1
    1074:	40a40533          	sub	a0,s0,a0
    1078:	76053023          	sd	zero,1888(a0) # 1760 <.LBB34_3+0x2bc>
    107c:	00001537          	lui	a0,0x1
    1080:	40a40533          	sub	a0,s0,a0
    1084:	76053423          	sd	zero,1896(a0) # 1768 <.LBB34_3+0x2c4>
    1088:	00001537          	lui	a0,0x1
    108c:	40a40533          	sub	a0,s0,a0
    1090:	76053823          	sd	zero,1904(a0) # 1770 <.LBB34_3+0x2cc>
    1094:	00001537          	lui	a0,0x1
    1098:	40a40533          	sub	a0,s0,a0
    109c:	76053c23          	sd	zero,1912(a0) # 1778 <.LBB34_3+0x2d4>
    10a0:	00001537          	lui	a0,0x1
    10a4:	40a40533          	sub	a0,s0,a0
    10a8:	78053023          	sd	zero,1920(a0) # 1780 <.LBB34_3+0x2dc>
    10ac:	00001537          	lui	a0,0x1
    10b0:	40a40533          	sub	a0,s0,a0
    10b4:	7a053023          	sd	zero,1952(a0) # 17a0 <.LBB34_3+0x2fc>
    10b8:	00001537          	lui	a0,0x1
    10bc:	40a40533          	sub	a0,s0,a0
    10c0:	78053c23          	sd	zero,1944(a0) # 1798 <.LBB34_3+0x2f4>
    10c4:	00001537          	lui	a0,0x1
    10c8:	40a40533          	sub	a0,s0,a0
    10cc:	78053823          	sd	zero,1936(a0) # 1790 <.LBB34_3+0x2ec>
    10d0:	00001537          	lui	a0,0x1
    10d4:	40a40533          	sub	a0,s0,a0
    10d8:	78053423          	sd	zero,1928(a0) # 1788 <.LBB34_3+0x2e4>
    10dc:	00001537          	lui	a0,0x1
    10e0:	40a40533          	sub	a0,s0,a0
    10e4:	7a053423          	sd	zero,1960(a0) # 17a8 <.LBB34_3+0x304>
    10e8:	00001537          	lui	a0,0x1
    10ec:	40a40533          	sub	a0,s0,a0
    10f0:	7a053823          	sd	zero,1968(a0) # 17b0 <.LBB34_3+0x30c>
    10f4:	00001537          	lui	a0,0x1
    10f8:	40a40533          	sub	a0,s0,a0
    10fc:	7a053c23          	sd	zero,1976(a0) # 17b8 <.LBB34_3+0x314>
    1100:	00001537          	lui	a0,0x1
    1104:	40a40533          	sub	a0,s0,a0
    1108:	7c053023          	sd	zero,1984(a0) # 17c0 <.LBB34_3+0x31c>
    110c:	00001537          	lui	a0,0x1
    1110:	40a40533          	sub	a0,s0,a0
    1114:	7c053423          	sd	zero,1992(a0) # 17c8 <.LBB34_3+0x324>
    1118:	00001537          	lui	a0,0x1
    111c:	40a40533          	sub	a0,s0,a0
    1120:	7c053823          	sd	zero,2000(a0) # 17d0 <.LBB34_3+0x32c>
    1124:	00001537          	lui	a0,0x1
    1128:	40a40533          	sub	a0,s0,a0
    112c:	7c053c23          	sd	zero,2008(a0) # 17d8 <.LBB34_3+0x334>
    1130:	00001537          	lui	a0,0x1
    1134:	40a40533          	sub	a0,s0,a0
    1138:	7e053023          	sd	zero,2016(a0) # 17e0 <.LBB34_3+0x33c>
    113c:	00001537          	lui	a0,0x1
    1140:	40a40533          	sub	a0,s0,a0
    1144:	7e053423          	sd	zero,2024(a0) # 17e8 <.LBB34_3+0x344>
    1148:	00001537          	lui	a0,0x1
    114c:	40a40533          	sub	a0,s0,a0
    1150:	7e053823          	sd	zero,2032(a0) # 17f0 <.LBB34_3+0x34c>
    1154:	00001537          	lui	a0,0x1
    1158:	40a40533          	sub	a0,s0,a0
    115c:	7e053c23          	sd	zero,2040(a0) # 17f8 <.LBB34_3+0x354>
    1160:	80043023          	sd	zero,-2048(s0)
    1164:	80043423          	sd	zero,-2040(s0)
    1168:	80043823          	sd	zero,-2032(s0)
    116c:	80043c23          	sd	zero,-2024(s0)
    1170:	82043023          	sd	zero,-2016(s0)
    1174:	82043423          	sd	zero,-2008(s0)
    1178:	82043823          	sd	zero,-2000(s0)
    117c:	82043c23          	sd	zero,-1992(s0)
    1180:	84043023          	sd	zero,-1984(s0)
    1184:	84043423          	sd	zero,-1976(s0)
    1188:	84043823          	sd	zero,-1968(s0)
    118c:	84043c23          	sd	zero,-1960(s0)
    1190:	86043023          	sd	zero,-1952(s0)
    1194:	86043423          	sd	zero,-1944(s0)
    1198:	86043823          	sd	zero,-1936(s0)
    119c:	86043c23          	sd	zero,-1928(s0)
    11a0:	88043023          	sd	zero,-1920(s0)
    11a4:	8a043023          	sd	zero,-1888(s0)
    11a8:	88043c23          	sd	zero,-1896(s0)
    11ac:	88043823          	sd	zero,-1904(s0)
    11b0:	88043423          	sd	zero,-1912(s0)
    11b4:	8a043423          	sd	zero,-1880(s0)
    11b8:	8a043823          	sd	zero,-1872(s0)
    11bc:	8a043c23          	sd	zero,-1864(s0)
    11c0:	8c043023          	sd	zero,-1856(s0)
    11c4:	8c043423          	sd	zero,-1848(s0)
    11c8:	8c043823          	sd	zero,-1840(s0)
    11cc:	8c043c23          	sd	zero,-1832(s0)
    11d0:	8e043023          	sd	zero,-1824(s0)
    11d4:	8e043423          	sd	zero,-1816(s0)
    11d8:	8e043823          	sd	zero,-1808(s0)
    11dc:	8e043c23          	sd	zero,-1800(s0)
    11e0:	90043023          	sd	zero,-1792(s0)
    11e4:	90043423          	sd	zero,-1784(s0)
    11e8:	90043823          	sd	zero,-1776(s0)
    11ec:	90043c23          	sd	zero,-1768(s0)
    11f0:	92043023          	sd	zero,-1760(s0)
    11f4:	92043423          	sd	zero,-1752(s0)
    11f8:	92043823          	sd	zero,-1744(s0)
    11fc:	92043c23          	sd	zero,-1736(s0)
    1200:	94043023          	sd	zero,-1728(s0)
    1204:	94043423          	sd	zero,-1720(s0)
    1208:	94043823          	sd	zero,-1712(s0)
    120c:	94043c23          	sd	zero,-1704(s0)
    1210:	96043023          	sd	zero,-1696(s0)
    1214:	96043423          	sd	zero,-1688(s0)
    1218:	96043823          	sd	zero,-1680(s0)
    121c:	96043c23          	sd	zero,-1672(s0)
    1220:	98043023          	sd	zero,-1664(s0)
    1224:	9a043023          	sd	zero,-1632(s0)
    1228:	98043c23          	sd	zero,-1640(s0)
    122c:	98043823          	sd	zero,-1648(s0)
    1230:	98043423          	sd	zero,-1656(s0)
    1234:	9a043423          	sd	zero,-1624(s0)
    1238:	9a043823          	sd	zero,-1616(s0)
    123c:	9a043c23          	sd	zero,-1608(s0)
    1240:	9c043023          	sd	zero,-1600(s0)
    1244:	9c043423          	sd	zero,-1592(s0)
    1248:	9c043823          	sd	zero,-1584(s0)
    124c:	9c043c23          	sd	zero,-1576(s0)
    1250:	9e043023          	sd	zero,-1568(s0)
    1254:	9e043423          	sd	zero,-1560(s0)
    1258:	9e043823          	sd	zero,-1552(s0)
    125c:	9e043c23          	sd	zero,-1544(s0)
    1260:	a0043023          	sd	zero,-1536(s0)
    1264:	a0043423          	sd	zero,-1528(s0)
    1268:	a0043823          	sd	zero,-1520(s0)
    126c:	a0043c23          	sd	zero,-1512(s0)
    1270:	a2043023          	sd	zero,-1504(s0)
    1274:	a2043423          	sd	zero,-1496(s0)
    1278:	a2043823          	sd	zero,-1488(s0)
    127c:	a2043c23          	sd	zero,-1480(s0)
    1280:	a4043023          	sd	zero,-1472(s0)
    1284:	a4043423          	sd	zero,-1464(s0)
    1288:	a4043823          	sd	zero,-1456(s0)
    128c:	a4043c23          	sd	zero,-1448(s0)
    1290:	a6043023          	sd	zero,-1440(s0)
    1294:	a6043423          	sd	zero,-1432(s0)
    1298:	a6043823          	sd	zero,-1424(s0)
    129c:	a6043c23          	sd	zero,-1416(s0)
    12a0:	a8043023          	sd	zero,-1408(s0)
    12a4:	aa043023          	sd	zero,-1376(s0)
    12a8:	a8043c23          	sd	zero,-1384(s0)
    12ac:	a8043823          	sd	zero,-1392(s0)
    12b0:	a8043423          	sd	zero,-1400(s0)
    12b4:	aa043423          	sd	zero,-1368(s0)
    12b8:	aa043823          	sd	zero,-1360(s0)
    12bc:	aa043c23          	sd	zero,-1352(s0)
    12c0:	ac043023          	sd	zero,-1344(s0)
    12c4:	ac043423          	sd	zero,-1336(s0)
    12c8:	ac043823          	sd	zero,-1328(s0)
    12cc:	ac043c23          	sd	zero,-1320(s0)
    12d0:	ae043023          	sd	zero,-1312(s0)
    12d4:	ae043423          	sd	zero,-1304(s0)
    12d8:	ae043823          	sd	zero,-1296(s0)
    12dc:	ae043c23          	sd	zero,-1288(s0)
    12e0:	b0043023          	sd	zero,-1280(s0)
    12e4:	b0043423          	sd	zero,-1272(s0)
    12e8:	b0043823          	sd	zero,-1264(s0)
    12ec:	b0043c23          	sd	zero,-1256(s0)
    12f0:	b2043023          	sd	zero,-1248(s0)
    12f4:	b2043423          	sd	zero,-1240(s0)
    12f8:	b2043823          	sd	zero,-1232(s0)
    12fc:	b2043c23          	sd	zero,-1224(s0)
    1300:	b4043023          	sd	zero,-1216(s0)
    1304:	b4043423          	sd	zero,-1208(s0)
    1308:	b4043823          	sd	zero,-1200(s0)
    130c:	b4043c23          	sd	zero,-1192(s0)
    1310:	b6043023          	sd	zero,-1184(s0)
    1314:	b6043423          	sd	zero,-1176(s0)
    1318:	b6043823          	sd	zero,-1168(s0)
    131c:	b6043c23          	sd	zero,-1160(s0)
    1320:	b8043023          	sd	zero,-1152(s0)
    1324:	ba043023          	sd	zero,-1120(s0)
    1328:	b8043c23          	sd	zero,-1128(s0)
    132c:	b8043823          	sd	zero,-1136(s0)
    1330:	b8043423          	sd	zero,-1144(s0)
    1334:	ba043423          	sd	zero,-1112(s0)
    1338:	ba043823          	sd	zero,-1104(s0)
    133c:	ba043c23          	sd	zero,-1096(s0)
    1340:	bc043023          	sd	zero,-1088(s0)
    1344:	bc043423          	sd	zero,-1080(s0)
    1348:	bc043823          	sd	zero,-1072(s0)
    134c:	bc043c23          	sd	zero,-1064(s0)
    1350:	be043023          	sd	zero,-1056(s0)
    1354:	be043423          	sd	zero,-1048(s0)
    1358:	be043823          	sd	zero,-1040(s0)
    135c:	be043c23          	sd	zero,-1032(s0)
    1360:	c0043023          	sd	zero,-1024(s0)
    1364:	c0043423          	sd	zero,-1016(s0)
    1368:	c0043823          	sd	zero,-1008(s0)
    136c:	c0043c23          	sd	zero,-1000(s0)
    1370:	c2043023          	sd	zero,-992(s0)
    1374:	c2043423          	sd	zero,-984(s0)
    1378:	c2043823          	sd	zero,-976(s0)
    137c:	c2043c23          	sd	zero,-968(s0)
    1380:	c4043023          	sd	zero,-960(s0)
    1384:	c4043423          	sd	zero,-952(s0)
    1388:	c4043823          	sd	zero,-944(s0)
    138c:	c4043c23          	sd	zero,-936(s0)
    1390:	c6043023          	sd	zero,-928(s0)
    1394:	c6043423          	sd	zero,-920(s0)
    1398:	c6043823          	sd	zero,-912(s0)
    139c:	c6043c23          	sd	zero,-904(s0)
    13a0:	c8043023          	sd	zero,-896(s0)
    13a4:	ca043023          	sd	zero,-864(s0)
    13a8:	c8043c23          	sd	zero,-872(s0)
    13ac:	c8043823          	sd	zero,-880(s0)
    13b0:	c8043423          	sd	zero,-888(s0)
    13b4:	ca043423          	sd	zero,-856(s0)
    13b8:	ca043823          	sd	zero,-848(s0)
    13bc:	ca043c23          	sd	zero,-840(s0)
    13c0:	cc043023          	sd	zero,-832(s0)
    13c4:	cc043423          	sd	zero,-824(s0)
    13c8:	cc043823          	sd	zero,-816(s0)
    13cc:	cc043c23          	sd	zero,-808(s0)
    13d0:	ce043023          	sd	zero,-800(s0)
    13d4:	ce043423          	sd	zero,-792(s0)
    13d8:	ce043823          	sd	zero,-784(s0)
    13dc:	ce043c23          	sd	zero,-776(s0)
    13e0:	d0043023          	sd	zero,-768(s0)
    13e4:	d0043423          	sd	zero,-760(s0)
    13e8:	d0043823          	sd	zero,-752(s0)
    13ec:	d0043c23          	sd	zero,-744(s0)
    13f0:	d2043023          	sd	zero,-736(s0)
    13f4:	d2043423          	sd	zero,-728(s0)
    13f8:	d2043823          	sd	zero,-720(s0)
    13fc:	d2043c23          	sd	zero,-712(s0)
    1400:	d4043023          	sd	zero,-704(s0)
    1404:	d4043423          	sd	zero,-696(s0)
    1408:	d4043823          	sd	zero,-688(s0)
    140c:	d4043c23          	sd	zero,-680(s0)
    1410:	d6043023          	sd	zero,-672(s0)
    1414:	d6043423          	sd	zero,-664(s0)
    1418:	d6043823          	sd	zero,-656(s0)
    141c:	d6043c23          	sd	zero,-648(s0)
    1420:	d8043023          	sd	zero,-640(s0)
    1424:	da043023          	sd	zero,-608(s0)
    1428:	d8043c23          	sd	zero,-616(s0)
    142c:	d8043823          	sd	zero,-624(s0)
    1430:	d8043423          	sd	zero,-632(s0)
    1434:	da043423          	sd	zero,-600(s0)
    1438:	da043823          	sd	zero,-592(s0)
    143c:	da043c23          	sd	zero,-584(s0)
    1440:	dc043023          	sd	zero,-576(s0)
    1444:	dc043423          	sd	zero,-568(s0)
    1448:	dc043823          	sd	zero,-560(s0)
    144c:	dc043c23          	sd	zero,-552(s0)
    1450:	00000093          	li	ra,0
    1454:	00000d93          	li	s11,0
    1458:	00000d13          	li	s10,0
    145c:	00000c93          	li	s9,0
    1460:	00000c13          	li	s8,0
    1464:	00000b93          	li	s7,0
    1468:	00000b13          	li	s6,0
    146c:	00000a93          	li	s5,0
    1470:	00000a13          	li	s4,0
    1474:	00000e93          	li	t4,0
    1478:	00000693          	li	a3,0
    147c:	00000613          	li	a2,0
    1480:	00000293          	li	t0,0
    1484:	00000513          	li	a0,0
    1488:	00000e13          	li	t3,0
    148c:	00000393          	li	t2,0
    1490:	00000313          	li	t1,0
    1494:	00000593          	li	a1,0
    1498:	00000893          	li	a7,0
    149c:	00000813          	li	a6,0
    14a0:	00000713          	li	a4,0

00000000000014a4 <.LBB34_3>:
    14a4:	f9f43423          	sd	t6,-120(s0)
    14a8:	00001937          	lui	s2,0x1
    14ac:	41240933          	sub	s2,s0,s2
    14b0:	67e93823          	sd	t5,1648(s2) # 1670 <.LBB34_3+0x1cc>
    14b4:	f8f43023          	sd	a5,-128(s0)
    14b8:	de143023          	sd	ra,-544(s0)
    14bc:	dfb43423          	sd	s11,-536(s0)
    14c0:	dfa43823          	sd	s10,-528(s0)
    14c4:	df943c23          	sd	s9,-520(s0)
    14c8:	e1843023          	sd	s8,-512(s0)
    14cc:	e1743423          	sd	s7,-504(s0)
    14d0:	e1643823          	sd	s6,-496(s0)
    14d4:	e1543c23          	sd	s5,-488(s0)
    14d8:	e3443023          	sd	s4,-480(s0)
    14dc:	f1d43c23          	sd	t4,-232(s0)
    14e0:	f2d43023          	sd	a3,-224(s0)
    14e4:	f2c43423          	sd	a2,-216(s0)
    14e8:	f2543823          	sd	t0,-208(s0)
    14ec:	f2a43c23          	sd	a0,-200(s0)
    14f0:	e3c43423          	sd	t3,-472(s0)
    14f4:	e2743823          	sd	t2,-464(s0)
    14f8:	e2643c23          	sd	t1,-456(s0)
    14fc:	e4b43023          	sd	a1,-448(s0)
    1500:	e5143423          	sd	a7,-440(s0)
    1504:	e5043823          	sd	a6,-432(s0)
    1508:	e4e43c23          	sd	a4,-424(s0)
    150c:	00078503          	lb	a0,0(a5)
    1510:	002f8603          	lb	a2,2(t6)
    1514:	f6c43823          	sd	a2,-144(s0)
    1518:	001f8683          	lb	a3,1(t6)
    151c:	f6d43c23          	sd	a3,-136(s0)
    1520:	000f8703          	lb	a4,0(t6)
    1524:	003f8783          	lb	a5,3(t6)
    1528:	004f8803          	lb	a6,4(t6)
    152c:	005f8a83          	lb	s5,5(t6)
    1530:	f5543023          	sd	s5,-192(s0)
    1534:	006f8d83          	lb	s11,6(t6)
    1538:	ebb43c23          	sd	s11,-328(s0)
    153c:	007f8083          	lb	ra,7(t6)
    1540:	008f8983          	lb	s3,8(t6)
    1544:	009f8883          	lb	a7,9(t6)
    1548:	000015b7          	lui	a1,0x1
    154c:	40b405b3          	sub	a1,s0,a1
    1550:	6715b423          	sd	a7,1640(a1) # 1668 <.LBB34_3+0x1c4>
    1554:	00af8283          	lb	t0,10(t6)
    1558:	e8543c23          	sd	t0,-360(s0)
    155c:	00bf8303          	lb	t1,11(t6)
    1560:	f0643823          	sd	t1,-240(s0)
    1564:	00cf8383          	lb	t2,12(t6)
    1568:	f0743423          	sd	t2,-248(s0)
    156c:	00df8903          	lb	s2,13(t6)
    1570:	f1243023          	sd	s2,-256(s0)
    1574:	00ef8e03          	lb	t3,14(t6)
    1578:	f5c43823          	sd	t3,-176(s0)
    157c:	00ff8e83          	lb	t4,15(t6)
    1580:	010f8f03          	lb	t5,16(t6)
    1584:	011f8a03          	lb	s4,17(t6)
    1588:	ed443023          	sd	s4,-320(s0)
    158c:	012f8b03          	lb	s6,18(t6)
    1590:	ed643423          	sd	s6,-312(s0)
    1594:	013f8583          	lb	a1,19(t6)
    1598:	e6b43423          	sd	a1,-408(s0)
    159c:	014f8f83          	lb	t6,20(t6)
    15a0:	f8843583          	ld	a1,-120(s0)
    15a4:	01558c03          	lb	s8,21(a1)
    15a8:	f8843583          	ld	a1,-120(s0)
    15ac:	01658c83          	lb	s9,22(a1)
    15b0:	ed943823          	sd	s9,-304(s0)
    15b4:	f8843583          	ld	a1,-120(s0)
    15b8:	01758b83          	lb	s7,23(a1)
    15bc:	f7743423          	sd	s7,-152(s0)
    15c0:	f8843583          	ld	a1,-120(s0)
    15c4:	01858d03          	lb	s10,24(a1)
    15c8:	f7a43023          	sd	s10,-160(s0)
    15cc:	02c505b3          	mul	a1,a0,a2
    15d0:	00001637          	lui	a2,0x1
    15d4:	40c40633          	sub	a2,s0,a2
    15d8:	6a063603          	ld	a2,1696(a2) # 16a0 <.LBB34_3+0x1fc>
    15dc:	00c58633          	add	a2,a1,a2
    15e0:	000015b7          	lui	a1,0x1
    15e4:	40b405b3          	sub	a1,s0,a1
    15e8:	6ac5b023          	sd	a2,1696(a1) # 16a0 <.LBB34_3+0x1fc>
    15ec:	02d505b3          	mul	a1,a0,a3
    15f0:	00001637          	lui	a2,0x1
    15f4:	40c40633          	sub	a2,s0,a2
    15f8:	6a863603          	ld	a2,1704(a2) # 16a8 <.LBB34_3+0x204>
    15fc:	00c58633          	add	a2,a1,a2
    1600:	000015b7          	lui	a1,0x1
    1604:	40b405b3          	sub	a1,s0,a1
    1608:	6ac5b423          	sd	a2,1704(a1) # 16a8 <.LBB34_3+0x204>
    160c:	02e505b3          	mul	a1,a0,a4
    1610:	eee43023          	sd	a4,-288(s0)
    1614:	00001637          	lui	a2,0x1
    1618:	40c40633          	sub	a2,s0,a2
    161c:	6c063603          	ld	a2,1728(a2) # 16c0 <.LBB34_3+0x21c>
    1620:	00c58633          	add	a2,a1,a2
    1624:	000015b7          	lui	a1,0x1
    1628:	40b405b3          	sub	a1,s0,a1
    162c:	6cc5b023          	sd	a2,1728(a1) # 16c0 <.LBB34_3+0x21c>
    1630:	02f505b3          	mul	a1,a0,a5
    1634:	00001637          	lui	a2,0x1
    1638:	40c40633          	sub	a2,s0,a2
    163c:	6b063603          	ld	a2,1712(a2) # 16b0 <.LBB34_3+0x20c>
    1640:	00c58633          	add	a2,a1,a2
    1644:	000015b7          	lui	a1,0x1
    1648:	40b405b3          	sub	a1,s0,a1
    164c:	6ac5b823          	sd	a2,1712(a1) # 16b0 <.LBB34_3+0x20c>
    1650:	030505b3          	mul	a1,a0,a6
    1654:	00001637          	lui	a2,0x1
    1658:	40c40633          	sub	a2,s0,a2
    165c:	69863603          	ld	a2,1688(a2) # 1698 <.LBB34_3+0x1f4>
    1660:	00c58633          	add	a2,a1,a2
    1664:	000015b7          	lui	a1,0x1
    1668:	40b405b3          	sub	a1,s0,a1
    166c:	68c5bc23          	sd	a2,1688(a1) # 1698 <.LBB34_3+0x1f4>
    1670:	035505b3          	mul	a1,a0,s5
    1674:	00001637          	lui	a2,0x1
    1678:	40c40633          	sub	a2,s0,a2
    167c:	69063603          	ld	a2,1680(a2) # 1690 <.LBB34_3+0x1ec>
    1680:	00c58633          	add	a2,a1,a2
    1684:	000015b7          	lui	a1,0x1
    1688:	40b405b3          	sub	a1,s0,a1
    168c:	68c5b823          	sd	a2,1680(a1) # 1690 <.LBB34_3+0x1ec>
    1690:	03b505b3          	mul	a1,a0,s11
    1694:	00001637          	lui	a2,0x1
    1698:	40c40633          	sub	a2,s0,a2
    169c:	6b863603          	ld	a2,1720(a2) # 16b8 <.LBB34_3+0x214>
    16a0:	00c58633          	add	a2,a1,a2
    16a4:	000015b7          	lui	a1,0x1
    16a8:	40b405b3          	sub	a1,s0,a1
    16ac:	6ac5bc23          	sd	a2,1720(a1) # 16b8 <.LBB34_3+0x214>
    16b0:	021505b3          	mul	a1,a0,ra
    16b4:	00001637          	lui	a2,0x1
    16b8:	40c40633          	sub	a2,s0,a2
    16bc:	6c863603          	ld	a2,1736(a2) # 16c8 <.LBB34_3+0x224>
    16c0:	00c58633          	add	a2,a1,a2
    16c4:	000015b7          	lui	a1,0x1
    16c8:	40b405b3          	sub	a1,s0,a1
    16cc:	6cc5b423          	sd	a2,1736(a1) # 16c8 <.LBB34_3+0x224>
    16d0:	033505b3          	mul	a1,a0,s3
    16d4:	00001637          	lui	a2,0x1
    16d8:	40c40633          	sub	a2,s0,a2
    16dc:	6d063603          	ld	a2,1744(a2) # 16d0 <.LBB34_3+0x22c>
    16e0:	00c58633          	add	a2,a1,a2
    16e4:	000015b7          	lui	a1,0x1
    16e8:	40b405b3          	sub	a1,s0,a1
    16ec:	6cc5b823          	sd	a2,1744(a1) # 16d0 <.LBB34_3+0x22c>
    16f0:	031505b3          	mul	a1,a0,a7
    16f4:	00001637          	lui	a2,0x1
    16f8:	40c40633          	sub	a2,s0,a2
    16fc:	6d863603          	ld	a2,1752(a2) # 16d8 <.LBB34_3+0x234>
    1700:	00c58633          	add	a2,a1,a2
    1704:	000015b7          	lui	a1,0x1
    1708:	40b405b3          	sub	a1,s0,a1
    170c:	6cc5bc23          	sd	a2,1752(a1) # 16d8 <.LBB34_3+0x234>
    1710:	025505b3          	mul	a1,a0,t0
    1714:	00001637          	lui	a2,0x1
    1718:	40c40633          	sub	a2,s0,a2
    171c:	6e063603          	ld	a2,1760(a2) # 16e0 <.LBB34_3+0x23c>
    1720:	00c58633          	add	a2,a1,a2
    1724:	000015b7          	lui	a1,0x1
    1728:	40b405b3          	sub	a1,s0,a1
    172c:	6ec5b023          	sd	a2,1760(a1) # 16e0 <.LBB34_3+0x23c>
    1730:	026505b3          	mul	a1,a0,t1
    1734:	00001637          	lui	a2,0x1
    1738:	40c40633          	sub	a2,s0,a2
    173c:	6e863603          	ld	a2,1768(a2) # 16e8 <.LBB34_3+0x244>
    1740:	00c58633          	add	a2,a1,a2
    1744:	000015b7          	lui	a1,0x1
    1748:	40b405b3          	sub	a1,s0,a1
    174c:	6ec5b423          	sd	a2,1768(a1) # 16e8 <.LBB34_3+0x244>
    1750:	027505b3          	mul	a1,a0,t2
    1754:	00001637          	lui	a2,0x1
    1758:	40c40633          	sub	a2,s0,a2
    175c:	6f063603          	ld	a2,1776(a2) # 16f0 <.LBB34_3+0x24c>
    1760:	00c58633          	add	a2,a1,a2
    1764:	000015b7          	lui	a1,0x1
    1768:	40b405b3          	sub	a1,s0,a1
    176c:	6ec5b823          	sd	a2,1776(a1) # 16f0 <.LBB34_3+0x24c>
    1770:	032505b3          	mul	a1,a0,s2
    1774:	00001637          	lui	a2,0x1
    1778:	40c40633          	sub	a2,s0,a2
    177c:	6f863603          	ld	a2,1784(a2) # 16f8 <.LBB34_3+0x254>
    1780:	00c58633          	add	a2,a1,a2
    1784:	000015b7          	lui	a1,0x1
    1788:	40b405b3          	sub	a1,s0,a1
    178c:	6ec5bc23          	sd	a2,1784(a1) # 16f8 <.LBB34_3+0x254>
    1790:	03c505b3          	mul	a1,a0,t3
    1794:	00001637          	lui	a2,0x1
    1798:	40c40633          	sub	a2,s0,a2
    179c:	70063603          	ld	a2,1792(a2) # 1700 <.LBB34_3+0x25c>
    17a0:	00c58633          	add	a2,a1,a2
    17a4:	000015b7          	lui	a1,0x1
    17a8:	40b405b3          	sub	a1,s0,a1
    17ac:	70c5b023          	sd	a2,1792(a1) # 1700 <.LBB34_3+0x25c>
    17b0:	03d505b3          	mul	a1,a0,t4
    17b4:	000e8e13          	mv	t3,t4
    17b8:	00001637          	lui	a2,0x1
    17bc:	40c40633          	sub	a2,s0,a2
    17c0:	70863603          	ld	a2,1800(a2) # 1708 <.LBB34_3+0x264>
    17c4:	00c58633          	add	a2,a1,a2
    17c8:	000015b7          	lui	a1,0x1
    17cc:	40b405b3          	sub	a1,s0,a1
    17d0:	70c5b423          	sd	a2,1800(a1) # 1708 <.LBB34_3+0x264>
    17d4:	03e505b3          	mul	a1,a0,t5
    17d8:	000f0393          	mv	t2,t5
    17dc:	00001637          	lui	a2,0x1
    17e0:	40c40633          	sub	a2,s0,a2
    17e4:	71063603          	ld	a2,1808(a2) # 1710 <.LBB34_3+0x26c>
    17e8:	00c58633          	add	a2,a1,a2
    17ec:	000015b7          	lui	a1,0x1
    17f0:	40b405b3          	sub	a1,s0,a1
    17f4:	70c5b823          	sd	a2,1808(a1) # 1710 <.LBB34_3+0x26c>
    17f8:	034505b3          	mul	a1,a0,s4
    17fc:	00001637          	lui	a2,0x1
    1800:	40c40633          	sub	a2,s0,a2
    1804:	71863603          	ld	a2,1816(a2) # 1718 <.LBB34_3+0x274>
    1808:	00c58633          	add	a2,a1,a2
    180c:	000015b7          	lui	a1,0x1
    1810:	40b405b3          	sub	a1,s0,a1
    1814:	70c5bc23          	sd	a2,1816(a1) # 1718 <.LBB34_3+0x274>
    1818:	036505b3          	mul	a1,a0,s6
    181c:	00001637          	lui	a2,0x1
    1820:	40c40633          	sub	a2,s0,a2
    1824:	72063603          	ld	a2,1824(a2) # 1720 <.LBB34_3+0x27c>
    1828:	00c58633          	add	a2,a1,a2
    182c:	000015b7          	lui	a1,0x1
    1830:	40b405b3          	sub	a1,s0,a1
    1834:	72c5b023          	sd	a2,1824(a1) # 1720 <.LBB34_3+0x27c>
    1838:	e6843f03          	ld	t5,-408(s0)
    183c:	03e505b3          	mul	a1,a0,t5
    1840:	00001637          	lui	a2,0x1
    1844:	40c40633          	sub	a2,s0,a2
    1848:	72863603          	ld	a2,1832(a2) # 1728 <.LBB34_3+0x284>
    184c:	00c58633          	add	a2,a1,a2
    1850:	000015b7          	lui	a1,0x1
    1854:	40b405b3          	sub	a1,s0,a1
    1858:	72c5b423          	sd	a2,1832(a1) # 1728 <.LBB34_3+0x284>
    185c:	03f505b3          	mul	a1,a0,t6
    1860:	000f8913          	mv	s2,t6
    1864:	eff43423          	sd	t6,-280(s0)
    1868:	00001637          	lui	a2,0x1
    186c:	40c40633          	sub	a2,s0,a2
    1870:	73063603          	ld	a2,1840(a2) # 1730 <.LBB34_3+0x28c>
    1874:	00c58633          	add	a2,a1,a2
    1878:	000015b7          	lui	a1,0x1
    187c:	40b405b3          	sub	a1,s0,a1
    1880:	72c5b823          	sd	a2,1840(a1) # 1730 <.LBB34_3+0x28c>
    1884:	038505b3          	mul	a1,a0,s8
    1888:	000c0f93          	mv	t6,s8
    188c:	00001637          	lui	a2,0x1
    1890:	40c40633          	sub	a2,s0,a2
    1894:	73863603          	ld	a2,1848(a2) # 1738 <.LBB34_3+0x294>
    1898:	00c58633          	add	a2,a1,a2
    189c:	000015b7          	lui	a1,0x1
    18a0:	40b405b3          	sub	a1,s0,a1
    18a4:	72c5bc23          	sd	a2,1848(a1) # 1738 <.LBB34_3+0x294>
    18a8:	039505b3          	mul	a1,a0,s9
    18ac:	00001637          	lui	a2,0x1
    18b0:	40c40633          	sub	a2,s0,a2
    18b4:	74063603          	ld	a2,1856(a2) # 1740 <.LBB34_3+0x29c>
    18b8:	00c58633          	add	a2,a1,a2
    18bc:	000015b7          	lui	a1,0x1
    18c0:	40b405b3          	sub	a1,s0,a1
    18c4:	74c5b023          	sd	a2,1856(a1) # 1740 <.LBB34_3+0x29c>
    18c8:	037505b3          	mul	a1,a0,s7
    18cc:	009584b3          	add	s1,a1,s1
    18d0:	000015b7          	lui	a1,0x1
    18d4:	40b405b3          	sub	a1,s0,a1
    18d8:	6695bc23          	sd	s1,1656(a1) # 1678 <.LBB34_3+0x1d4>
    18dc:	f8843583          	ld	a1,-120(s0)
    18e0:	01958683          	lb	a3,25(a1)
    18e4:	ead43823          	sd	a3,-336(s0)
    18e8:	03a505b3          	mul	a1,a0,s10
    18ec:	00001637          	lui	a2,0x1
    18f0:	40c40633          	sub	a2,s0,a2
    18f4:	74863603          	ld	a2,1864(a2) # 1748 <.LBB34_3+0x2a4>
    18f8:	00c58633          	add	a2,a1,a2
    18fc:	000015b7          	lui	a1,0x1
    1900:	40b405b3          	sub	a1,s0,a1
    1904:	74c5b423          	sd	a2,1864(a1) # 1748 <.LBB34_3+0x2a4>
    1908:	f8843583          	ld	a1,-120(s0)
    190c:	01a58d03          	lb	s10,26(a1)
    1910:	02d505b3          	mul	a1,a0,a3
    1914:	00001637          	lui	a2,0x1
    1918:	40c40633          	sub	a2,s0,a2
    191c:	75063603          	ld	a2,1872(a2) # 1750 <.LBB34_3+0x2ac>
    1920:	00c58633          	add	a2,a1,a2
    1924:	000015b7          	lui	a1,0x1
    1928:	40b405b3          	sub	a1,s0,a1
    192c:	74c5b823          	sd	a2,1872(a1) # 1750 <.LBB34_3+0x2ac>
    1930:	f8843583          	ld	a1,-120(s0)
    1934:	01b58283          	lb	t0,27(a1)
    1938:	03a505b3          	mul	a1,a0,s10
    193c:	eba43023          	sd	s10,-352(s0)
    1940:	00001637          	lui	a2,0x1
    1944:	40c40633          	sub	a2,s0,a2
    1948:	75863603          	ld	a2,1880(a2) # 1758 <.LBB34_3+0x2b4>
    194c:	00c58633          	add	a2,a1,a2
    1950:	000015b7          	lui	a1,0x1
    1954:	40b405b3          	sub	a1,s0,a1
    1958:	74c5bc23          	sd	a2,1880(a1) # 1758 <.LBB34_3+0x2b4>
    195c:	f8843583          	ld	a1,-120(s0)
    1960:	01c58683          	lb	a3,28(a1)
    1964:	f4d43c23          	sd	a3,-168(s0)
    1968:	025505b3          	mul	a1,a0,t0
    196c:	e8543823          	sd	t0,-368(s0)
    1970:	00001637          	lui	a2,0x1
    1974:	40c40633          	sub	a2,s0,a2
    1978:	76063603          	ld	a2,1888(a2) # 1760 <.LBB34_3+0x2bc>
    197c:	00c58633          	add	a2,a1,a2
    1980:	000015b7          	lui	a1,0x1
    1984:	40b405b3          	sub	a1,s0,a1
    1988:	76c5b023          	sd	a2,1888(a1) # 1760 <.LBB34_3+0x2bc>
    198c:	f8843583          	ld	a1,-120(s0)
    1990:	01d58883          	lb	a7,29(a1)
    1994:	f5143423          	sd	a7,-184(s0)
    1998:	02d505b3          	mul	a1,a0,a3
    199c:	00001637          	lui	a2,0x1
    19a0:	40c40633          	sub	a2,s0,a2
    19a4:	76863603          	ld	a2,1896(a2) # 1768 <.LBB34_3+0x2c4>
    19a8:	00c58633          	add	a2,a1,a2
    19ac:	000015b7          	lui	a1,0x1
    19b0:	40b405b3          	sub	a1,s0,a1
    19b4:	76c5b423          	sd	a2,1896(a1) # 1768 <.LBB34_3+0x2c4>
    19b8:	f8843583          	ld	a1,-120(s0)
    19bc:	01e58683          	lb	a3,30(a1)
    19c0:	031505b3          	mul	a1,a0,a7
    19c4:	00001637          	lui	a2,0x1
    19c8:	40c40633          	sub	a2,s0,a2
    19cc:	77063603          	ld	a2,1904(a2) # 1770 <.LBB34_3+0x2cc>
    19d0:	00c58633          	add	a2,a1,a2
    19d4:	000015b7          	lui	a1,0x1
    19d8:	40b405b3          	sub	a1,s0,a1
    19dc:	76c5b823          	sd	a2,1904(a1) # 1770 <.LBB34_3+0x2cc>
    19e0:	f8843583          	ld	a1,-120(s0)
    19e4:	01f58883          	lb	a7,31(a1)
    19e8:	ed143c23          	sd	a7,-296(s0)
    19ec:	f8043603          	ld	a2,-128(s0)
    19f0:	09060a83          	lb	s5,144(a2)
    19f4:	02d50db3          	mul	s11,a0,a3
    19f8:	00068593          	mv	a1,a3
    19fc:	00001637          	lui	a2,0x1
    1a00:	40c40633          	sub	a2,s0,a2
    1a04:	77863603          	ld	a2,1912(a2) # 1778 <.LBB34_3+0x2d4>
    1a08:	00cd8633          	add	a2,s11,a2
    1a0c:	000016b7          	lui	a3,0x1
    1a10:	40d406b3          	sub	a3,s0,a3
    1a14:	76c6bc23          	sd	a2,1912(a3) # 1778 <.LBB34_3+0x2d4>
    1a18:	03150533          	mul	a0,a0,a7
    1a1c:	00001637          	lui	a2,0x1
    1a20:	40c40633          	sub	a2,s0,a2
    1a24:	78063603          	ld	a2,1920(a2) # 1780 <.LBB34_3+0x2dc>
    1a28:	00c50633          	add	a2,a0,a2
    1a2c:	00001537          	lui	a0,0x1
    1a30:	40a40533          	sub	a0,s0,a0
    1a34:	78c53023          	sd	a2,1920(a0) # 1780 <.LBB34_3+0x2dc>
    1a38:	02ea8533          	mul	a0,s5,a4
    1a3c:	00001637          	lui	a2,0x1
    1a40:	40c40633          	sub	a2,s0,a2
    1a44:	7a063603          	ld	a2,1952(a2) # 17a0 <.LBB34_3+0x2fc>
    1a48:	00c50633          	add	a2,a0,a2
    1a4c:	00001537          	lui	a0,0x1
    1a50:	40a40533          	sub	a0,s0,a0
    1a54:	7ac53023          	sd	a2,1952(a0) # 17a0 <.LBB34_3+0x2fc>
    1a58:	f7843503          	ld	a0,-136(s0)
    1a5c:	02aa8533          	mul	a0,s5,a0
    1a60:	00001637          	lui	a2,0x1
    1a64:	40c40633          	sub	a2,s0,a2
    1a68:	79863603          	ld	a2,1944(a2) # 1798 <.LBB34_3+0x2f4>
    1a6c:	00c50633          	add	a2,a0,a2
    1a70:	00001537          	lui	a0,0x1
    1a74:	40a40533          	sub	a0,s0,a0
    1a78:	78c53c23          	sd	a2,1944(a0) # 1798 <.LBB34_3+0x2f4>
    1a7c:	f7043303          	ld	t1,-144(s0)
    1a80:	026a8533          	mul	a0,s5,t1
    1a84:	00001637          	lui	a2,0x1
    1a88:	40c40633          	sub	a2,s0,a2
    1a8c:	79063603          	ld	a2,1936(a2) # 1790 <.LBB34_3+0x2ec>
    1a90:	00c50633          	add	a2,a0,a2
    1a94:	00001537          	lui	a0,0x1
    1a98:	40a40533          	sub	a0,s0,a0
    1a9c:	78c53823          	sd	a2,1936(a0) # 1790 <.LBB34_3+0x2ec>
    1aa0:	02fa8533          	mul	a0,s5,a5
    1aa4:	00001637          	lui	a2,0x1
    1aa8:	40c40633          	sub	a2,s0,a2
    1aac:	78863603          	ld	a2,1928(a2) # 1788 <.LBB34_3+0x2e4>
    1ab0:	00c50633          	add	a2,a0,a2
    1ab4:	00001537          	lui	a0,0x1
    1ab8:	40a40533          	sub	a0,s0,a0
    1abc:	78c53423          	sd	a2,1928(a0) # 1788 <.LBB34_3+0x2e4>
    1ac0:	eb043423          	sd	a6,-344(s0)
    1ac4:	030a8533          	mul	a0,s5,a6
    1ac8:	00001637          	lui	a2,0x1
    1acc:	40c40633          	sub	a2,s0,a2
    1ad0:	7a863603          	ld	a2,1960(a2) # 17a8 <.LBB34_3+0x304>
    1ad4:	00c50633          	add	a2,a0,a2
    1ad8:	00001537          	lui	a0,0x1
    1adc:	40a40533          	sub	a0,s0,a0
    1ae0:	7ac53423          	sd	a2,1960(a0) # 17a8 <.LBB34_3+0x304>
    1ae4:	f4043683          	ld	a3,-192(s0)
    1ae8:	02da8533          	mul	a0,s5,a3
    1aec:	00001637          	lui	a2,0x1
    1af0:	40c40633          	sub	a2,s0,a2
    1af4:	7b063603          	ld	a2,1968(a2) # 17b0 <.LBB34_3+0x30c>
    1af8:	00c50633          	add	a2,a0,a2
    1afc:	00001537          	lui	a0,0x1
    1b00:	40a40533          	sub	a0,s0,a0
    1b04:	7ac53823          	sd	a2,1968(a0) # 17b0 <.LBB34_3+0x30c>
    1b08:	eb843703          	ld	a4,-328(s0)
    1b0c:	02ea8533          	mul	a0,s5,a4
    1b10:	00001637          	lui	a2,0x1
    1b14:	40c40633          	sub	a2,s0,a2
    1b18:	7b863603          	ld	a2,1976(a2) # 17b8 <.LBB34_3+0x314>
    1b1c:	00c50633          	add	a2,a0,a2
    1b20:	00001537          	lui	a0,0x1
    1b24:	40a40533          	sub	a0,s0,a0
    1b28:	7ac53c23          	sd	a2,1976(a0) # 17b8 <.LBB34_3+0x314>
    1b2c:	e8143423          	sd	ra,-376(s0)
    1b30:	021a8533          	mul	a0,s5,ra
    1b34:	00001637          	lui	a2,0x1
    1b38:	40c40633          	sub	a2,s0,a2
    1b3c:	7c063603          	ld	a2,1984(a2) # 17c0 <.LBB34_3+0x31c>
    1b40:	00c50633          	add	a2,a0,a2
    1b44:	00001537          	lui	a0,0x1
    1b48:	40a40533          	sub	a0,s0,a0
    1b4c:	7cc53023          	sd	a2,1984(a0) # 17c0 <.LBB34_3+0x31c>
    1b50:	e9343023          	sd	s3,-384(s0)
    1b54:	033a8533          	mul	a0,s5,s3
    1b58:	00001637          	lui	a2,0x1
    1b5c:	40c40633          	sub	a2,s0,a2
    1b60:	7c863603          	ld	a2,1992(a2) # 17c8 <.LBB34_3+0x324>
    1b64:	00c50633          	add	a2,a0,a2
    1b68:	00001537          	lui	a0,0x1
    1b6c:	40a40533          	sub	a0,s0,a0
    1b70:	7cc53423          	sd	a2,1992(a0) # 17c8 <.LBB34_3+0x324>
    1b74:	00001537          	lui	a0,0x1
    1b78:	40a40533          	sub	a0,s0,a0
    1b7c:	66853c83          	ld	s9,1640(a0) # 1668 <.LBB34_3+0x1c4>
    1b80:	039a8533          	mul	a0,s5,s9
    1b84:	00001637          	lui	a2,0x1
    1b88:	40c40633          	sub	a2,s0,a2
    1b8c:	7d063603          	ld	a2,2000(a2) # 17d0 <.LBB34_3+0x32c>
    1b90:	00c50633          	add	a2,a0,a2
    1b94:	00001537          	lui	a0,0x1
    1b98:	40a40533          	sub	a0,s0,a0
    1b9c:	7cc53823          	sd	a2,2000(a0) # 17d0 <.LBB34_3+0x32c>
    1ba0:	e9843c03          	ld	s8,-360(s0)
    1ba4:	038a8533          	mul	a0,s5,s8
    1ba8:	00001637          	lui	a2,0x1
    1bac:	40c40633          	sub	a2,s0,a2
    1bb0:	7d863603          	ld	a2,2008(a2) # 17d8 <.LBB34_3+0x334>
    1bb4:	00c50633          	add	a2,a0,a2
    1bb8:	00001537          	lui	a0,0x1
    1bbc:	40a40533          	sub	a0,s0,a0
    1bc0:	7cc53c23          	sd	a2,2008(a0) # 17d8 <.LBB34_3+0x334>
    1bc4:	f1043b83          	ld	s7,-240(s0)
    1bc8:	037a8533          	mul	a0,s5,s7
    1bcc:	00001637          	lui	a2,0x1
    1bd0:	40c40633          	sub	a2,s0,a2
    1bd4:	7e063603          	ld	a2,2016(a2) # 17e0 <.LBB34_3+0x33c>
    1bd8:	00c50633          	add	a2,a0,a2
    1bdc:	00001537          	lui	a0,0x1
    1be0:	40a40533          	sub	a0,s0,a0
    1be4:	7ec53023          	sd	a2,2016(a0) # 17e0 <.LBB34_3+0x33c>
    1be8:	f0843b03          	ld	s6,-248(s0)
    1bec:	036a8533          	mul	a0,s5,s6
    1bf0:	00001637          	lui	a2,0x1
    1bf4:	40c40633          	sub	a2,s0,a2
    1bf8:	7e863603          	ld	a2,2024(a2) # 17e8 <.LBB34_3+0x344>
    1bfc:	00c50633          	add	a2,a0,a2
    1c00:	00001537          	lui	a0,0x1
    1c04:	40a40533          	sub	a0,s0,a0
    1c08:	7ec53423          	sd	a2,2024(a0) # 17e8 <.LBB34_3+0x344>
    1c0c:	f0043a03          	ld	s4,-256(s0)
    1c10:	034a8533          	mul	a0,s5,s4
    1c14:	00001637          	lui	a2,0x1
    1c18:	40c40633          	sub	a2,s0,a2
    1c1c:	7f063603          	ld	a2,2032(a2) # 17f0 <.LBB34_3+0x34c>
    1c20:	00c50633          	add	a2,a0,a2
    1c24:	00001537          	lui	a0,0x1
    1c28:	40a40533          	sub	a0,s0,a0
    1c2c:	7ec53823          	sd	a2,2032(a0) # 17f0 <.LBB34_3+0x34c>
    1c30:	f5043e83          	ld	t4,-176(s0)
    1c34:	03da8533          	mul	a0,s5,t4
    1c38:	00001637          	lui	a2,0x1
    1c3c:	40c40633          	sub	a2,s0,a2
    1c40:	7f863603          	ld	a2,2040(a2) # 17f8 <.LBB34_3+0x354>
    1c44:	00c50633          	add	a2,a0,a2
    1c48:	00001537          	lui	a0,0x1
    1c4c:	40a40533          	sub	a0,s0,a0
    1c50:	7ec53c23          	sd	a2,2040(a0) # 17f8 <.LBB34_3+0x354>
    1c54:	efc43c23          	sd	t3,-264(s0)
    1c58:	03ca8533          	mul	a0,s5,t3
    1c5c:	80043603          	ld	a2,-2048(s0)
    1c60:	00c50633          	add	a2,a0,a2
    1c64:	80c43023          	sd	a2,-2048(s0)
    1c68:	ee743823          	sd	t2,-272(s0)
    1c6c:	027a8533          	mul	a0,s5,t2
    1c70:	80843603          	ld	a2,-2040(s0)
    1c74:	00c50633          	add	a2,a0,a2
    1c78:	80c43423          	sd	a2,-2040(s0)
    1c7c:	ec043883          	ld	a7,-320(s0)
    1c80:	031a8533          	mul	a0,s5,a7
    1c84:	81043603          	ld	a2,-2032(s0)
    1c88:	00c50633          	add	a2,a0,a2
    1c8c:	80c43823          	sd	a2,-2032(s0)
    1c90:	ec843483          	ld	s1,-312(s0)
    1c94:	029a8533          	mul	a0,s5,s1
    1c98:	81843603          	ld	a2,-2024(s0)
    1c9c:	00c50633          	add	a2,a0,a2
    1ca0:	80c43c23          	sd	a2,-2024(s0)
    1ca4:	03ea8533          	mul	a0,s5,t5
    1ca8:	82043603          	ld	a2,-2016(s0)
    1cac:	00c50633          	add	a2,a0,a2
    1cb0:	82c43023          	sd	a2,-2016(s0)
    1cb4:	032a8533          	mul	a0,s5,s2
    1cb8:	82843603          	ld	a2,-2008(s0)
    1cbc:	00c50633          	add	a2,a0,a2
    1cc0:	82c43423          	sd	a2,-2008(s0)
    1cc4:	03fa8533          	mul	a0,s5,t6
    1cc8:	83043603          	ld	a2,-2000(s0)
    1ccc:	00c50633          	add	a2,a0,a2
    1cd0:	82c43823          	sd	a2,-2000(s0)
    1cd4:	ed043903          	ld	s2,-304(s0)
    1cd8:	032a8533          	mul	a0,s5,s2
    1cdc:	83843603          	ld	a2,-1992(s0)
    1ce0:	00c50633          	add	a2,a0,a2
    1ce4:	82c43c23          	sd	a2,-1992(s0)
    1ce8:	f6843503          	ld	a0,-152(s0)
    1cec:	02aa8533          	mul	a0,s5,a0
    1cf0:	84043603          	ld	a2,-1984(s0)
    1cf4:	00c50633          	add	a2,a0,a2
    1cf8:	84c43023          	sd	a2,-1984(s0)
    1cfc:	f6043503          	ld	a0,-160(s0)
    1d00:	02aa8533          	mul	a0,s5,a0
    1d04:	84843603          	ld	a2,-1976(s0)
    1d08:	00c50633          	add	a2,a0,a2
    1d0c:	84c43423          	sd	a2,-1976(s0)
    1d10:	eb043503          	ld	a0,-336(s0)
    1d14:	02aa8533          	mul	a0,s5,a0
    1d18:	85043603          	ld	a2,-1968(s0)
    1d1c:	00c50633          	add	a2,a0,a2
    1d20:	84c43823          	sd	a2,-1968(s0)
    1d24:	03aa8533          	mul	a0,s5,s10
    1d28:	85843603          	ld	a2,-1960(s0)
    1d2c:	00c50633          	add	a2,a0,a2
    1d30:	84c43c23          	sd	a2,-1960(s0)
    1d34:	025a8533          	mul	a0,s5,t0
    1d38:	86043603          	ld	a2,-1952(s0)
    1d3c:	00c50633          	add	a2,a0,a2
    1d40:	86c43023          	sd	a2,-1952(s0)
    1d44:	f5843503          	ld	a0,-168(s0)
    1d48:	02aa8533          	mul	a0,s5,a0
    1d4c:	86843603          	ld	a2,-1944(s0)
    1d50:	00c50633          	add	a2,a0,a2
    1d54:	86c43423          	sd	a2,-1944(s0)
    1d58:	f4843503          	ld	a0,-184(s0)
    1d5c:	02aa8533          	mul	a0,s5,a0
    1d60:	87043603          	ld	a2,-1936(s0)
    1d64:	00c50633          	add	a2,a0,a2
    1d68:	86c43823          	sd	a2,-1936(s0)
    1d6c:	f8043503          	ld	a0,-128(s0)
    1d70:	12050503          	lb	a0,288(a0)
    1d74:	e6b43823          	sd	a1,-400(s0)
    1d78:	02ba8db3          	mul	s11,s5,a1
    1d7c:	87843603          	ld	a2,-1928(s0)
    1d80:	00cd8633          	add	a2,s11,a2
    1d84:	86c43c23          	sd	a2,-1928(s0)
    1d88:	ed843603          	ld	a2,-296(s0)
    1d8c:	02ca8ab3          	mul	s5,s5,a2
    1d90:	88043603          	ld	a2,-1920(s0)
    1d94:	00ca8633          	add	a2,s5,a2
    1d98:	88c43023          	sd	a2,-1920(s0)
    1d9c:	ee043603          	ld	a2,-288(s0)
    1da0:	02c50ab3          	mul	s5,a0,a2
    1da4:	8a043603          	ld	a2,-1888(s0)
    1da8:	00ca8633          	add	a2,s5,a2
    1dac:	8ac43023          	sd	a2,-1888(s0)
    1db0:	f7843603          	ld	a2,-136(s0)
    1db4:	02c50ab3          	mul	s5,a0,a2
    1db8:	89843603          	ld	a2,-1896(s0)
    1dbc:	00ca8633          	add	a2,s5,a2
    1dc0:	88c43c23          	sd	a2,-1896(s0)
    1dc4:	02650ab3          	mul	s5,a0,t1
    1dc8:	89043603          	ld	a2,-1904(s0)
    1dcc:	00ca8633          	add	a2,s5,a2
    1dd0:	88c43823          	sd	a2,-1904(s0)
    1dd4:	02f50ab3          	mul	s5,a0,a5
    1dd8:	00078d13          	mv	s10,a5
    1ddc:	e6f43c23          	sd	a5,-392(s0)
    1de0:	88843603          	ld	a2,-1912(s0)
    1de4:	00ca8633          	add	a2,s5,a2
    1de8:	88c43423          	sd	a2,-1912(s0)
    1dec:	03050ab3          	mul	s5,a0,a6
    1df0:	8a843603          	ld	a2,-1880(s0)
    1df4:	00ca8633          	add	a2,s5,a2
    1df8:	8ac43423          	sd	a2,-1880(s0)
    1dfc:	02d50ab3          	mul	s5,a0,a3
    1e00:	8b043603          	ld	a2,-1872(s0)
    1e04:	00ca8633          	add	a2,s5,a2
    1e08:	8ac43823          	sd	a2,-1872(s0)
    1e0c:	02e50ab3          	mul	s5,a0,a4
    1e10:	8b843603          	ld	a2,-1864(s0)
    1e14:	00ca8633          	add	a2,s5,a2
    1e18:	8ac43c23          	sd	a2,-1864(s0)
    1e1c:	02150ab3          	mul	s5,a0,ra
    1e20:	8c043603          	ld	a2,-1856(s0)
    1e24:	00ca8633          	add	a2,s5,a2
    1e28:	8cc43023          	sd	a2,-1856(s0)
    1e2c:	03350ab3          	mul	s5,a0,s3
    1e30:	8c843603          	ld	a2,-1848(s0)
    1e34:	00ca8633          	add	a2,s5,a2
    1e38:	8cc43423          	sd	a2,-1848(s0)
    1e3c:	03950ab3          	mul	s5,a0,s9
    1e40:	8d043603          	ld	a2,-1840(s0)
    1e44:	00ca8633          	add	a2,s5,a2
    1e48:	8cc43823          	sd	a2,-1840(s0)
    1e4c:	03850ab3          	mul	s5,a0,s8
    1e50:	8d843603          	ld	a2,-1832(s0)
    1e54:	00ca8633          	add	a2,s5,a2
    1e58:	8cc43c23          	sd	a2,-1832(s0)
    1e5c:	03750ab3          	mul	s5,a0,s7
    1e60:	8e043603          	ld	a2,-1824(s0)
    1e64:	00ca8633          	add	a2,s5,a2
    1e68:	8ec43023          	sd	a2,-1824(s0)
    1e6c:	03650ab3          	mul	s5,a0,s6
    1e70:	8e843603          	ld	a2,-1816(s0)
    1e74:	00ca8633          	add	a2,s5,a2
    1e78:	8ec43423          	sd	a2,-1816(s0)
    1e7c:	03450ab3          	mul	s5,a0,s4
    1e80:	8f043603          	ld	a2,-1808(s0)
    1e84:	00ca8633          	add	a2,s5,a2
    1e88:	8ec43823          	sd	a2,-1808(s0)
    1e8c:	03d50ab3          	mul	s5,a0,t4
    1e90:	8f843603          	ld	a2,-1800(s0)
    1e94:	00ca8633          	add	a2,s5,a2
    1e98:	8ec43c23          	sd	a2,-1800(s0)
    1e9c:	03c50ab3          	mul	s5,a0,t3
    1ea0:	90043603          	ld	a2,-1792(s0)
    1ea4:	00ca8633          	add	a2,s5,a2
    1ea8:	90c43023          	sd	a2,-1792(s0)
    1eac:	02750ab3          	mul	s5,a0,t2
    1eb0:	90843603          	ld	a2,-1784(s0)
    1eb4:	00ca8633          	add	a2,s5,a2
    1eb8:	90c43423          	sd	a2,-1784(s0)
    1ebc:	03150ab3          	mul	s5,a0,a7
    1ec0:	00088e93          	mv	t4,a7
    1ec4:	91043603          	ld	a2,-1776(s0)
    1ec8:	00ca8633          	add	a2,s5,a2
    1ecc:	90c43823          	sd	a2,-1776(s0)
    1ed0:	02950ab3          	mul	s5,a0,s1
    1ed4:	91843603          	ld	a2,-1768(s0)
    1ed8:	00ca8633          	add	a2,s5,a2
    1edc:	90c43c23          	sd	a2,-1768(s0)
    1ee0:	000f0313          	mv	t1,t5
    1ee4:	03e50ab3          	mul	s5,a0,t5
    1ee8:	92043603          	ld	a2,-1760(s0)
    1eec:	00ca8633          	add	a2,s5,a2
    1ef0:	92c43023          	sd	a2,-1760(s0)
    1ef4:	ee843f03          	ld	t5,-280(s0)
    1ef8:	03e50ab3          	mul	s5,a0,t5
    1efc:	92843603          	ld	a2,-1752(s0)
    1f00:	00ca8633          	add	a2,s5,a2
    1f04:	92c43423          	sd	a2,-1752(s0)
    1f08:	03f50ab3          	mul	s5,a0,t6
    1f0c:	93043603          	ld	a2,-1744(s0)
    1f10:	00ca8633          	add	a2,s5,a2
    1f14:	92c43823          	sd	a2,-1744(s0)
    1f18:	03250ab3          	mul	s5,a0,s2
    1f1c:	93843603          	ld	a2,-1736(s0)
    1f20:	00ca8633          	add	a2,s5,a2
    1f24:	92c43c23          	sd	a2,-1736(s0)
    1f28:	f6843e03          	ld	t3,-152(s0)
    1f2c:	03c50ab3          	mul	s5,a0,t3
    1f30:	94043603          	ld	a2,-1728(s0)
    1f34:	00ca8633          	add	a2,s5,a2
    1f38:	94c43023          	sd	a2,-1728(s0)
    1f3c:	f6043a03          	ld	s4,-160(s0)
    1f40:	03450ab3          	mul	s5,a0,s4
    1f44:	94843603          	ld	a2,-1720(s0)
    1f48:	00ca8633          	add	a2,s5,a2
    1f4c:	94c43423          	sd	a2,-1720(s0)
    1f50:	eb043283          	ld	t0,-336(s0)
    1f54:	02550ab3          	mul	s5,a0,t0
    1f58:	95043603          	ld	a2,-1712(s0)
    1f5c:	00ca8633          	add	a2,s5,a2
    1f60:	94c43823          	sd	a2,-1712(s0)
    1f64:	ea043803          	ld	a6,-352(s0)
    1f68:	03050ab3          	mul	s5,a0,a6
    1f6c:	95843603          	ld	a2,-1704(s0)
    1f70:	00ca8633          	add	a2,s5,a2
    1f74:	94c43c23          	sd	a2,-1704(s0)
    1f78:	e9043983          	ld	s3,-368(s0)
    1f7c:	03350ab3          	mul	s5,a0,s3
    1f80:	96043603          	ld	a2,-1696(s0)
    1f84:	00ca8633          	add	a2,s5,a2
    1f88:	96c43023          	sd	a2,-1696(s0)
    1f8c:	f5843683          	ld	a3,-168(s0)
    1f90:	02d50ab3          	mul	s5,a0,a3
    1f94:	96843603          	ld	a2,-1688(s0)
    1f98:	00ca8633          	add	a2,s5,a2
    1f9c:	96c43423          	sd	a2,-1688(s0)
    1fa0:	f4843783          	ld	a5,-184(s0)
    1fa4:	02f50ab3          	mul	s5,a0,a5
    1fa8:	97043603          	ld	a2,-1680(s0)
    1fac:	00ca8633          	add	a2,s5,a2
    1fb0:	96c43823          	sd	a2,-1680(s0)
    1fb4:	f8043603          	ld	a2,-128(s0)
    1fb8:	1b060a83          	lb	s5,432(a2)
    1fbc:	02b50db3          	mul	s11,a0,a1
    1fc0:	97843603          	ld	a2,-1672(s0)
    1fc4:	00cd8633          	add	a2,s11,a2
    1fc8:	96c43c23          	sd	a2,-1672(s0)
    1fcc:	ed843883          	ld	a7,-296(s0)
    1fd0:	03150533          	mul	a0,a0,a7
    1fd4:	98043603          	ld	a2,-1664(s0)
    1fd8:	00c50633          	add	a2,a0,a2
    1fdc:	98c43023          	sd	a2,-1664(s0)
    1fe0:	ee043383          	ld	t2,-288(s0)
    1fe4:	027a8533          	mul	a0,s5,t2
    1fe8:	9a043603          	ld	a2,-1632(s0)
    1fec:	00c50633          	add	a2,a0,a2
    1ff0:	9ac43023          	sd	a2,-1632(s0)
    1ff4:	f7843583          	ld	a1,-136(s0)
    1ff8:	02ba8533          	mul	a0,s5,a1
    1ffc:	99843603          	ld	a2,-1640(s0)
    2000:	00c50633          	add	a2,a0,a2
    2004:	98c43c23          	sd	a2,-1640(s0)
    2008:	f7043503          	ld	a0,-144(s0)
    200c:	02aa8533          	mul	a0,s5,a0
    2010:	99043603          	ld	a2,-1648(s0)
    2014:	00c50633          	add	a2,a0,a2
    2018:	98c43823          	sd	a2,-1648(s0)
    201c:	03aa8533          	mul	a0,s5,s10
    2020:	98843603          	ld	a2,-1656(s0)
    2024:	00c50633          	add	a2,a0,a2
    2028:	98c43423          	sd	a2,-1656(s0)
    202c:	ea843d03          	ld	s10,-344(s0)
    2030:	03aa8533          	mul	a0,s5,s10
    2034:	9a843603          	ld	a2,-1624(s0)
    2038:	00c50633          	add	a2,a0,a2
    203c:	9ac43423          	sd	a2,-1624(s0)
    2040:	f4043083          	ld	ra,-192(s0)
    2044:	021a8533          	mul	a0,s5,ra
    2048:	9b043603          	ld	a2,-1616(s0)
    204c:	00c50633          	add	a2,a0,a2
    2050:	9ac43823          	sd	a2,-1616(s0)
    2054:	02ea8533          	mul	a0,s5,a4
    2058:	9b843603          	ld	a2,-1608(s0)
    205c:	00c50633          	add	a2,a0,a2
    2060:	9ac43c23          	sd	a2,-1608(s0)
    2064:	e8843b03          	ld	s6,-376(s0)
    2068:	036a8533          	mul	a0,s5,s6
    206c:	9c043603          	ld	a2,-1600(s0)
    2070:	00c50633          	add	a2,a0,a2
    2074:	9cc43023          	sd	a2,-1600(s0)
    2078:	e8043b83          	ld	s7,-384(s0)
    207c:	037a8533          	mul	a0,s5,s7
    2080:	9c843603          	ld	a2,-1592(s0)
    2084:	00c50633          	add	a2,a0,a2
    2088:	9cc43423          	sd	a2,-1592(s0)
    208c:	039a8533          	mul	a0,s5,s9
    2090:	9d043603          	ld	a2,-1584(s0)
    2094:	00c50633          	add	a2,a0,a2
    2098:	9cc43823          	sd	a2,-1584(s0)
    209c:	038a8533          	mul	a0,s5,s8
    20a0:	9d843603          	ld	a2,-1576(s0)
    20a4:	00c50633          	add	a2,a0,a2
    20a8:	9cc43c23          	sd	a2,-1576(s0)
    20ac:	f1043503          	ld	a0,-240(s0)
    20b0:	02aa8533          	mul	a0,s5,a0
    20b4:	9e043603          	ld	a2,-1568(s0)
    20b8:	00c50633          	add	a2,a0,a2
    20bc:	9ec43023          	sd	a2,-1568(s0)
    20c0:	f0843503          	ld	a0,-248(s0)
    20c4:	02aa8533          	mul	a0,s5,a0
    20c8:	9e843603          	ld	a2,-1560(s0)
    20cc:	00c50633          	add	a2,a0,a2
    20d0:	9ec43423          	sd	a2,-1560(s0)
    20d4:	f0043503          	ld	a0,-256(s0)
    20d8:	02aa8533          	mul	a0,s5,a0
    20dc:	9f043603          	ld	a2,-1552(s0)
    20e0:	00c50633          	add	a2,a0,a2
    20e4:	9ec43823          	sd	a2,-1552(s0)
    20e8:	f5043503          	ld	a0,-176(s0)
    20ec:	02aa8533          	mul	a0,s5,a0
    20f0:	9f843603          	ld	a2,-1544(s0)
    20f4:	00c50633          	add	a2,a0,a2
    20f8:	9ec43c23          	sd	a2,-1544(s0)
    20fc:	ef843503          	ld	a0,-264(s0)
    2100:	02aa8533          	mul	a0,s5,a0
    2104:	a0043603          	ld	a2,-1536(s0)
    2108:	00c50633          	add	a2,a0,a2
    210c:	a0c43023          	sd	a2,-1536(s0)
    2110:	ef043503          	ld	a0,-272(s0)
    2114:	02aa8533          	mul	a0,s5,a0
    2118:	a0843603          	ld	a2,-1528(s0)
    211c:	00c50633          	add	a2,a0,a2
    2120:	a0c43423          	sd	a2,-1528(s0)
    2124:	03da8533          	mul	a0,s5,t4
    2128:	a1043603          	ld	a2,-1520(s0)
    212c:	00c50633          	add	a2,a0,a2
    2130:	a0c43823          	sd	a2,-1520(s0)
    2134:	029a8533          	mul	a0,s5,s1
    2138:	a1843603          	ld	a2,-1512(s0)
    213c:	00c50633          	add	a2,a0,a2
    2140:	a0c43c23          	sd	a2,-1512(s0)
    2144:	026a8533          	mul	a0,s5,t1
    2148:	a2043603          	ld	a2,-1504(s0)
    214c:	00c50633          	add	a2,a0,a2
    2150:	a2c43023          	sd	a2,-1504(s0)
    2154:	03ea8533          	mul	a0,s5,t5
    2158:	a2843603          	ld	a2,-1496(s0)
    215c:	00c50633          	add	a2,a0,a2
    2160:	a2c43423          	sd	a2,-1496(s0)
    2164:	03fa8533          	mul	a0,s5,t6
    2168:	000f8313          	mv	t1,t6
    216c:	00001637          	lui	a2,0x1
    2170:	40c40633          	sub	a2,s0,a2
    2174:	67f63023          	sd	t6,1632(a2) # 1660 <.LBB34_3+0x1bc>
    2178:	a3043603          	ld	a2,-1488(s0)
    217c:	00c50633          	add	a2,a0,a2
    2180:	a2c43823          	sd	a2,-1488(s0)
    2184:	032a8533          	mul	a0,s5,s2
    2188:	a3843603          	ld	a2,-1480(s0)
    218c:	00c50633          	add	a2,a0,a2
    2190:	a2c43c23          	sd	a2,-1480(s0)
    2194:	000e0493          	mv	s1,t3
    2198:	03ca8533          	mul	a0,s5,t3
    219c:	a4043603          	ld	a2,-1472(s0)
    21a0:	00c50633          	add	a2,a0,a2
    21a4:	a4c43023          	sd	a2,-1472(s0)
    21a8:	000a0913          	mv	s2,s4
    21ac:	034a8533          	mul	a0,s5,s4
    21b0:	a4843603          	ld	a2,-1464(s0)
    21b4:	00c50633          	add	a2,a0,a2
    21b8:	a4c43423          	sd	a2,-1464(s0)
    21bc:	025a8533          	mul	a0,s5,t0
    21c0:	00028f93          	mv	t6,t0
    21c4:	a5043603          	ld	a2,-1456(s0)
    21c8:	00c50633          	add	a2,a0,a2
    21cc:	a4c43823          	sd	a2,-1456(s0)
    21d0:	030a8533          	mul	a0,s5,a6
    21d4:	a5843603          	ld	a2,-1448(s0)
    21d8:	00c50633          	add	a2,a0,a2
    21dc:	a4c43c23          	sd	a2,-1448(s0)
    21e0:	033a8533          	mul	a0,s5,s3
    21e4:	a6043603          	ld	a2,-1440(s0)
    21e8:	00c50633          	add	a2,a0,a2
    21ec:	a6c43023          	sd	a2,-1440(s0)
    21f0:	02da8533          	mul	a0,s5,a3
    21f4:	a6843603          	ld	a2,-1432(s0)
    21f8:	00c50633          	add	a2,a0,a2
    21fc:	a6c43423          	sd	a2,-1432(s0)
    2200:	02fa8533          	mul	a0,s5,a5
    2204:	a7043603          	ld	a2,-1424(s0)
    2208:	00c50633          	add	a2,a0,a2
    220c:	a6c43823          	sd	a2,-1424(s0)
    2210:	f8043503          	ld	a0,-128(s0)
    2214:	24050503          	lb	a0,576(a0)
    2218:	e7043e03          	ld	t3,-400(s0)
    221c:	03ca8db3          	mul	s11,s5,t3
    2220:	a7843603          	ld	a2,-1416(s0)
    2224:	00cd8633          	add	a2,s11,a2
    2228:	a6c43c23          	sd	a2,-1416(s0)
    222c:	031a8ab3          	mul	s5,s5,a7
    2230:	a8043603          	ld	a2,-1408(s0)
    2234:	00ca8633          	add	a2,s5,a2
    2238:	a8c43023          	sd	a2,-1408(s0)
    223c:	02750ab3          	mul	s5,a0,t2
    2240:	00038813          	mv	a6,t2
    2244:	aa043603          	ld	a2,-1376(s0)
    2248:	00ca8633          	add	a2,s5,a2
    224c:	aac43023          	sd	a2,-1376(s0)
    2250:	02b50ab3          	mul	s5,a0,a1
    2254:	a9843603          	ld	a2,-1384(s0)
    2258:	00ca8633          	add	a2,s5,a2
    225c:	a8c43c23          	sd	a2,-1384(s0)
    2260:	f7043783          	ld	a5,-144(s0)
    2264:	02f50ab3          	mul	s5,a0,a5
    2268:	a9043603          	ld	a2,-1392(s0)
    226c:	00ca8633          	add	a2,s5,a2
    2270:	a8c43823          	sd	a2,-1392(s0)
    2274:	e7843583          	ld	a1,-392(s0)
    2278:	02b50ab3          	mul	s5,a0,a1
    227c:	a8843603          	ld	a2,-1400(s0)
    2280:	00ca8633          	add	a2,s5,a2
    2284:	a8c43423          	sd	a2,-1400(s0)
    2288:	03a50ab3          	mul	s5,a0,s10
    228c:	aa843603          	ld	a2,-1368(s0)
    2290:	00ca8633          	add	a2,s5,a2
    2294:	aac43423          	sd	a2,-1368(s0)
    2298:	02150ab3          	mul	s5,a0,ra
    229c:	ab043603          	ld	a2,-1360(s0)
    22a0:	00ca8633          	add	a2,s5,a2
    22a4:	aac43823          	sd	a2,-1360(s0)
    22a8:	02e50ab3          	mul	s5,a0,a4
    22ac:	ab843603          	ld	a2,-1352(s0)
    22b0:	00ca8633          	add	a2,s5,a2
    22b4:	aac43c23          	sd	a2,-1352(s0)
    22b8:	000b0093          	mv	ra,s6
    22bc:	03650ab3          	mul	s5,a0,s6
    22c0:	ac043603          	ld	a2,-1344(s0)
    22c4:	00ca8633          	add	a2,s5,a2
    22c8:	acc43023          	sd	a2,-1344(s0)
    22cc:	000b8713          	mv	a4,s7
    22d0:	03750ab3          	mul	s5,a0,s7
    22d4:	ac843603          	ld	a2,-1336(s0)
    22d8:	00ca8633          	add	a2,s5,a2
    22dc:	acc43423          	sd	a2,-1336(s0)
    22e0:	03950ab3          	mul	s5,a0,s9
    22e4:	ad043603          	ld	a2,-1328(s0)
    22e8:	00ca8633          	add	a2,s5,a2
    22ec:	acc43823          	sd	a2,-1328(s0)
    22f0:	03850ab3          	mul	s5,a0,s8
    22f4:	ad843603          	ld	a2,-1320(s0)
    22f8:	00ca8633          	add	a2,s5,a2
    22fc:	acc43c23          	sd	a2,-1320(s0)
    2300:	f1043b83          	ld	s7,-240(s0)
    2304:	03750ab3          	mul	s5,a0,s7
    2308:	ae043603          	ld	a2,-1312(s0)
    230c:	00ca8633          	add	a2,s5,a2
    2310:	aec43023          	sd	a2,-1312(s0)
    2314:	f0843b03          	ld	s6,-248(s0)
    2318:	03650ab3          	mul	s5,a0,s6
    231c:	ae843603          	ld	a2,-1304(s0)
    2320:	00ca8633          	add	a2,s5,a2
    2324:	aec43423          	sd	a2,-1304(s0)
    2328:	f0043a03          	ld	s4,-256(s0)
    232c:	03450ab3          	mul	s5,a0,s4
    2330:	af043603          	ld	a2,-1296(s0)
    2334:	00ca8633          	add	a2,s5,a2
    2338:	aec43823          	sd	a2,-1296(s0)
    233c:	f5043c03          	ld	s8,-176(s0)
    2340:	03850ab3          	mul	s5,a0,s8
    2344:	af843603          	ld	a2,-1288(s0)
    2348:	00ca8633          	add	a2,s5,a2
    234c:	aec43c23          	sd	a2,-1288(s0)
    2350:	ef843383          	ld	t2,-264(s0)
    2354:	02750ab3          	mul	s5,a0,t2
    2358:	b0043603          	ld	a2,-1280(s0)
    235c:	00ca8633          	add	a2,s5,a2
    2360:	b0c43023          	sd	a2,-1280(s0)
    2364:	ef043603          	ld	a2,-272(s0)
    2368:	02c50ab3          	mul	s5,a0,a2
    236c:	b0843603          	ld	a2,-1272(s0)
    2370:	00ca8633          	add	a2,s5,a2
    2374:	b0c43423          	sd	a2,-1272(s0)
    2378:	03d50ab3          	mul	s5,a0,t4
    237c:	b1043603          	ld	a2,-1264(s0)
    2380:	00ca8633          	add	a2,s5,a2
    2384:	b0c43823          	sd	a2,-1264(s0)
    2388:	ec843283          	ld	t0,-312(s0)
    238c:	02550ab3          	mul	s5,a0,t0
    2390:	b1843603          	ld	a2,-1256(s0)
    2394:	00ca8633          	add	a2,s5,a2
    2398:	b0c43c23          	sd	a2,-1256(s0)
    239c:	e6843f03          	ld	t5,-408(s0)
    23a0:	03e50ab3          	mul	s5,a0,t5
    23a4:	b2043603          	ld	a2,-1248(s0)
    23a8:	00ca8633          	add	a2,s5,a2
    23ac:	b2c43023          	sd	a2,-1248(s0)
    23b0:	ee843603          	ld	a2,-280(s0)
    23b4:	02c50ab3          	mul	s5,a0,a2
    23b8:	b2843603          	ld	a2,-1240(s0)
    23bc:	00ca8633          	add	a2,s5,a2
    23c0:	b2c43423          	sd	a2,-1240(s0)
    23c4:	02650ab3          	mul	s5,a0,t1
    23c8:	b3043603          	ld	a2,-1232(s0)
    23cc:	00ca8633          	add	a2,s5,a2
    23d0:	b2c43823          	sd	a2,-1232(s0)
    23d4:	ed043e83          	ld	t4,-304(s0)
    23d8:	03d50ab3          	mul	s5,a0,t4
    23dc:	b3843603          	ld	a2,-1224(s0)
    23e0:	00ca8633          	add	a2,s5,a2
    23e4:	b2c43c23          	sd	a2,-1224(s0)
    23e8:	02950ab3          	mul	s5,a0,s1
    23ec:	b4043603          	ld	a2,-1216(s0)
    23f0:	00ca8633          	add	a2,s5,a2
    23f4:	b4c43023          	sd	a2,-1216(s0)
    23f8:	03250ab3          	mul	s5,a0,s2
    23fc:	b4843603          	ld	a2,-1208(s0)
    2400:	00ca8633          	add	a2,s5,a2
    2404:	b4c43423          	sd	a2,-1208(s0)
    2408:	000f8693          	mv	a3,t6
    240c:	03f50ab3          	mul	s5,a0,t6
    2410:	b5043603          	ld	a2,-1200(s0)
    2414:	00ca8633          	add	a2,s5,a2
    2418:	b4c43823          	sd	a2,-1200(s0)
    241c:	ea043f83          	ld	t6,-352(s0)
    2420:	03f50ab3          	mul	s5,a0,t6
    2424:	b5843603          	ld	a2,-1192(s0)
    2428:	00ca8633          	add	a2,s5,a2
    242c:	b4c43c23          	sd	a2,-1192(s0)
    2430:	03350ab3          	mul	s5,a0,s3
    2434:	b6043603          	ld	a2,-1184(s0)
    2438:	00ca8633          	add	a2,s5,a2
    243c:	b6c43023          	sd	a2,-1184(s0)
    2440:	f5843983          	ld	s3,-168(s0)
    2444:	03350ab3          	mul	s5,a0,s3
    2448:	b6843603          	ld	a2,-1176(s0)
    244c:	00ca8633          	add	a2,s5,a2
    2450:	b6c43423          	sd	a2,-1176(s0)
    2454:	f4843483          	ld	s1,-184(s0)
    2458:	02950ab3          	mul	s5,a0,s1
    245c:	b7043603          	ld	a2,-1168(s0)
    2460:	00ca8633          	add	a2,s5,a2
    2464:	b6c43823          	sd	a2,-1168(s0)
    2468:	f8043603          	ld	a2,-128(s0)
    246c:	2d060a83          	lb	s5,720(a2)
    2470:	03c50db3          	mul	s11,a0,t3
    2474:	b7843603          	ld	a2,-1160(s0)
    2478:	00cd8633          	add	a2,s11,a2
    247c:	b6c43c23          	sd	a2,-1160(s0)
    2480:	00088d13          	mv	s10,a7
    2484:	03150533          	mul	a0,a0,a7
    2488:	b8043603          	ld	a2,-1152(s0)
    248c:	00c50633          	add	a2,a0,a2
    2490:	b8c43023          	sd	a2,-1152(s0)
    2494:	00080313          	mv	t1,a6
    2498:	030a8533          	mul	a0,s5,a6
    249c:	ba043603          	ld	a2,-1120(s0)
    24a0:	00c50633          	add	a2,a0,a2
    24a4:	bac43023          	sd	a2,-1120(s0)
    24a8:	f7843e03          	ld	t3,-136(s0)
    24ac:	03ca8533          	mul	a0,s5,t3
    24b0:	b9843603          	ld	a2,-1128(s0)
    24b4:	00c50633          	add	a2,a0,a2
    24b8:	b8c43c23          	sd	a2,-1128(s0)
    24bc:	02fa8533          	mul	a0,s5,a5
    24c0:	b9043603          	ld	a2,-1136(s0)
    24c4:	00c50633          	add	a2,a0,a2
    24c8:	b8c43823          	sd	a2,-1136(s0)
    24cc:	00058893          	mv	a7,a1
    24d0:	02ba8533          	mul	a0,s5,a1
    24d4:	b8843603          	ld	a2,-1144(s0)
    24d8:	00c50633          	add	a2,a0,a2
    24dc:	b8c43423          	sd	a2,-1144(s0)
    24e0:	ea843583          	ld	a1,-344(s0)
    24e4:	02ba8533          	mul	a0,s5,a1
    24e8:	ba843603          	ld	a2,-1112(s0)
    24ec:	00c50633          	add	a2,a0,a2
    24f0:	bac43423          	sd	a2,-1112(s0)
    24f4:	f4043783          	ld	a5,-192(s0)
    24f8:	02fa8533          	mul	a0,s5,a5
    24fc:	bb043603          	ld	a2,-1104(s0)
    2500:	00c50633          	add	a2,a0,a2
    2504:	bac43823          	sd	a2,-1104(s0)
    2508:	eb843803          	ld	a6,-328(s0)
    250c:	030a8533          	mul	a0,s5,a6
    2510:	bb843603          	ld	a2,-1096(s0)
    2514:	00c50633          	add	a2,a0,a2
    2518:	bac43c23          	sd	a2,-1096(s0)
    251c:	021a8533          	mul	a0,s5,ra
    2520:	bc043603          	ld	a2,-1088(s0)
    2524:	00c50633          	add	a2,a0,a2
    2528:	bcc43023          	sd	a2,-1088(s0)
    252c:	02ea8533          	mul	a0,s5,a4
    2530:	bc843603          	ld	a2,-1080(s0)
    2534:	00c50633          	add	a2,a0,a2
    2538:	bcc43423          	sd	a2,-1080(s0)
    253c:	039a8533          	mul	a0,s5,s9
    2540:	bd043603          	ld	a2,-1072(s0)
    2544:	00c50633          	add	a2,a0,a2
    2548:	bcc43823          	sd	a2,-1072(s0)
    254c:	e9843703          	ld	a4,-360(s0)
    2550:	02ea8533          	mul	a0,s5,a4
    2554:	bd843603          	ld	a2,-1064(s0)
    2558:	00c50633          	add	a2,a0,a2
    255c:	bcc43c23          	sd	a2,-1064(s0)
    2560:	037a8533          	mul	a0,s5,s7
    2564:	be043603          	ld	a2,-1056(s0)
    2568:	00c50633          	add	a2,a0,a2
    256c:	bec43023          	sd	a2,-1056(s0)
    2570:	036a8533          	mul	a0,s5,s6
    2574:	be843603          	ld	a2,-1048(s0)
    2578:	00c50633          	add	a2,a0,a2
    257c:	bec43423          	sd	a2,-1048(s0)
    2580:	034a8533          	mul	a0,s5,s4
    2584:	bf043603          	ld	a2,-1040(s0)
    2588:	00c50633          	add	a2,a0,a2
    258c:	bec43823          	sd	a2,-1040(s0)
    2590:	038a8533          	mul	a0,s5,s8
    2594:	bf843603          	ld	a2,-1032(s0)
    2598:	00c50633          	add	a2,a0,a2
    259c:	bec43c23          	sd	a2,-1032(s0)
    25a0:	027a8533          	mul	a0,s5,t2
    25a4:	00038c13          	mv	s8,t2
    25a8:	c0043603          	ld	a2,-1024(s0)
    25ac:	00c50633          	add	a2,a0,a2
    25b0:	c0c43023          	sd	a2,-1024(s0)
    25b4:	ef043383          	ld	t2,-272(s0)
    25b8:	027a8533          	mul	a0,s5,t2
    25bc:	c0843603          	ld	a2,-1016(s0)
    25c0:	00c50633          	add	a2,a0,a2
    25c4:	c0c43423          	sd	a2,-1016(s0)
    25c8:	ec043503          	ld	a0,-320(s0)
    25cc:	02aa8533          	mul	a0,s5,a0
    25d0:	c1043603          	ld	a2,-1008(s0)
    25d4:	00c50633          	add	a2,a0,a2
    25d8:	c0c43823          	sd	a2,-1008(s0)
    25dc:	025a8533          	mul	a0,s5,t0
    25e0:	c1843603          	ld	a2,-1000(s0)
    25e4:	00c50633          	add	a2,a0,a2
    25e8:	c0c43c23          	sd	a2,-1000(s0)
    25ec:	000f0913          	mv	s2,t5
    25f0:	03ea8533          	mul	a0,s5,t5
    25f4:	c2043603          	ld	a2,-992(s0)
    25f8:	00c50633          	add	a2,a0,a2
    25fc:	c2c43023          	sd	a2,-992(s0)
    2600:	ee843283          	ld	t0,-280(s0)
    2604:	025a8533          	mul	a0,s5,t0
    2608:	c2843603          	ld	a2,-984(s0)
    260c:	00c50633          	add	a2,a0,a2
    2610:	c2c43423          	sd	a2,-984(s0)
    2614:	00001537          	lui	a0,0x1
    2618:	40a40533          	sub	a0,s0,a0
    261c:	66053f03          	ld	t5,1632(a0) # 1660 <.LBB34_3+0x1bc>
    2620:	03ea8533          	mul	a0,s5,t5
    2624:	c3043603          	ld	a2,-976(s0)
    2628:	00c50633          	add	a2,a0,a2
    262c:	c2c43823          	sd	a2,-976(s0)
    2630:	03da8533          	mul	a0,s5,t4
    2634:	c3843603          	ld	a2,-968(s0)
    2638:	00c50633          	add	a2,a0,a2
    263c:	c2c43c23          	sd	a2,-968(s0)
    2640:	f6843503          	ld	a0,-152(s0)
    2644:	02aa8533          	mul	a0,s5,a0
    2648:	c4043603          	ld	a2,-960(s0)
    264c:	00c50633          	add	a2,a0,a2
    2650:	c4c43023          	sd	a2,-960(s0)
    2654:	f6043503          	ld	a0,-160(s0)
    2658:	02aa8533          	mul	a0,s5,a0
    265c:	c4843603          	ld	a2,-952(s0)
    2660:	00c50633          	add	a2,a0,a2
    2664:	c4c43423          	sd	a2,-952(s0)
    2668:	02da8533          	mul	a0,s5,a3
    266c:	c5043603          	ld	a2,-944(s0)
    2670:	00c50633          	add	a2,a0,a2
    2674:	c4c43823          	sd	a2,-944(s0)
    2678:	03fa8533          	mul	a0,s5,t6
    267c:	c5843603          	ld	a2,-936(s0)
    2680:	00c50633          	add	a2,a0,a2
    2684:	c4c43c23          	sd	a2,-936(s0)
    2688:	e9043f83          	ld	t6,-368(s0)
    268c:	03fa8533          	mul	a0,s5,t6
    2690:	c6043603          	ld	a2,-928(s0)
    2694:	00c50633          	add	a2,a0,a2
    2698:	c6c43023          	sd	a2,-928(s0)
    269c:	033a8533          	mul	a0,s5,s3
    26a0:	c6843603          	ld	a2,-920(s0)
    26a4:	00c50633          	add	a2,a0,a2
    26a8:	c6c43423          	sd	a2,-920(s0)
    26ac:	029a8533          	mul	a0,s5,s1
    26b0:	c7043603          	ld	a2,-912(s0)
    26b4:	00c50633          	add	a2,a0,a2
    26b8:	c6c43823          	sd	a2,-912(s0)
    26bc:	f8043503          	ld	a0,-128(s0)
    26c0:	36050503          	lb	a0,864(a0)
    26c4:	e7043683          	ld	a3,-400(s0)
    26c8:	02da8db3          	mul	s11,s5,a3
    26cc:	c7843603          	ld	a2,-904(s0)
    26d0:	00cd8633          	add	a2,s11,a2
    26d4:	c6c43c23          	sd	a2,-904(s0)
    26d8:	03aa8ab3          	mul	s5,s5,s10
    26dc:	c8043603          	ld	a2,-896(s0)
    26e0:	00ca8633          	add	a2,s5,a2
    26e4:	c8c43023          	sd	a2,-896(s0)
    26e8:	02650ab3          	mul	s5,a0,t1
    26ec:	ca043603          	ld	a2,-864(s0)
    26f0:	00ca8633          	add	a2,s5,a2
    26f4:	cac43023          	sd	a2,-864(s0)
    26f8:	03c50ab3          	mul	s5,a0,t3
    26fc:	c9843603          	ld	a2,-872(s0)
    2700:	00ca8633          	add	a2,s5,a2
    2704:	c8c43c23          	sd	a2,-872(s0)
    2708:	f7043603          	ld	a2,-144(s0)
    270c:	02c50ab3          	mul	s5,a0,a2
    2710:	c9043603          	ld	a2,-880(s0)
    2714:	00ca8633          	add	a2,s5,a2
    2718:	c8c43823          	sd	a2,-880(s0)
    271c:	03150ab3          	mul	s5,a0,a7
    2720:	c8843603          	ld	a2,-888(s0)
    2724:	00ca8633          	add	a2,s5,a2
    2728:	c8c43423          	sd	a2,-888(s0)
    272c:	02b50ab3          	mul	s5,a0,a1
    2730:	ca843603          	ld	a2,-856(s0)
    2734:	00ca8633          	add	a2,s5,a2
    2738:	cac43423          	sd	a2,-856(s0)
    273c:	02f50ab3          	mul	s5,a0,a5
    2740:	cb043603          	ld	a2,-848(s0)
    2744:	00ca8633          	add	a2,s5,a2
    2748:	cac43823          	sd	a2,-848(s0)
    274c:	03050ab3          	mul	s5,a0,a6
    2750:	cb843603          	ld	a2,-840(s0)
    2754:	00ca8633          	add	a2,s5,a2
    2758:	cac43c23          	sd	a2,-840(s0)
    275c:	02150ab3          	mul	s5,a0,ra
    2760:	cc043603          	ld	a2,-832(s0)
    2764:	00ca8633          	add	a2,s5,a2
    2768:	ccc43023          	sd	a2,-832(s0)
    276c:	e8043083          	ld	ra,-384(s0)
    2770:	02150ab3          	mul	s5,a0,ra
    2774:	cc843603          	ld	a2,-824(s0)
    2778:	00ca8633          	add	a2,s5,a2
    277c:	ccc43423          	sd	a2,-824(s0)
    2780:	03950ab3          	mul	s5,a0,s9
    2784:	cd043603          	ld	a2,-816(s0)
    2788:	00ca8633          	add	a2,s5,a2
    278c:	ccc43823          	sd	a2,-816(s0)
    2790:	00070d13          	mv	s10,a4
    2794:	02e50ab3          	mul	s5,a0,a4
    2798:	cd843603          	ld	a2,-808(s0)
    279c:	00ca8633          	add	a2,s5,a2
    27a0:	ccc43c23          	sd	a2,-808(s0)
    27a4:	03750ab3          	mul	s5,a0,s7
    27a8:	ce043603          	ld	a2,-800(s0)
    27ac:	00ca8633          	add	a2,s5,a2
    27b0:	cec43023          	sd	a2,-800(s0)
    27b4:	03650ab3          	mul	s5,a0,s6
    27b8:	ce843603          	ld	a2,-792(s0)
    27bc:	00ca8633          	add	a2,s5,a2
    27c0:	cec43423          	sd	a2,-792(s0)
    27c4:	03450ab3          	mul	s5,a0,s4
    27c8:	cf043603          	ld	a2,-784(s0)
    27cc:	00ca8633          	add	a2,s5,a2
    27d0:	cec43823          	sd	a2,-784(s0)
    27d4:	f5043983          	ld	s3,-176(s0)
    27d8:	03350ab3          	mul	s5,a0,s3
    27dc:	cf843603          	ld	a2,-776(s0)
    27e0:	00ca8633          	add	a2,s5,a2
    27e4:	cec43c23          	sd	a2,-776(s0)
    27e8:	03850ab3          	mul	s5,a0,s8
    27ec:	d0043603          	ld	a2,-768(s0)
    27f0:	00ca8633          	add	a2,s5,a2
    27f4:	d0c43023          	sd	a2,-768(s0)
    27f8:	02750ab3          	mul	s5,a0,t2
    27fc:	00038c13          	mv	s8,t2
    2800:	d0843603          	ld	a2,-760(s0)
    2804:	00ca8633          	add	a2,s5,a2
    2808:	d0c43423          	sd	a2,-760(s0)
    280c:	ec043483          	ld	s1,-320(s0)
    2810:	02950ab3          	mul	s5,a0,s1
    2814:	d1043603          	ld	a2,-752(s0)
    2818:	00ca8633          	add	a2,s5,a2
    281c:	d0c43823          	sd	a2,-752(s0)
    2820:	ec843e83          	ld	t4,-312(s0)
    2824:	03d50ab3          	mul	s5,a0,t4
    2828:	d1843603          	ld	a2,-744(s0)
    282c:	00ca8633          	add	a2,s5,a2
    2830:	d0c43c23          	sd	a2,-744(s0)
    2834:	00090e13          	mv	t3,s2
    2838:	03250ab3          	mul	s5,a0,s2
    283c:	d2043603          	ld	a2,-736(s0)
    2840:	00ca8633          	add	a2,s5,a2
    2844:	d2c43023          	sd	a2,-736(s0)
    2848:	00028393          	mv	t2,t0
    284c:	02550ab3          	mul	s5,a0,t0
    2850:	d2843603          	ld	a2,-728(s0)
    2854:	00ca8633          	add	a2,s5,a2
    2858:	d2c43423          	sd	a2,-728(s0)
    285c:	03e50ab3          	mul	s5,a0,t5
    2860:	d3043603          	ld	a2,-720(s0)
    2864:	00ca8633          	add	a2,s5,a2
    2868:	d2c43823          	sd	a2,-720(s0)
    286c:	ed043303          	ld	t1,-304(s0)
    2870:	02650ab3          	mul	s5,a0,t1
    2874:	d3843603          	ld	a2,-712(s0)
    2878:	00ca8633          	add	a2,s5,a2
    287c:	d2c43c23          	sd	a2,-712(s0)
    2880:	f6843903          	ld	s2,-152(s0)
    2884:	03250ab3          	mul	s5,a0,s2
    2888:	d4043603          	ld	a2,-704(s0)
    288c:	00ca8633          	add	a2,s5,a2
    2890:	d4c43023          	sd	a2,-704(s0)
    2894:	f6043283          	ld	t0,-160(s0)
    2898:	02550ab3          	mul	s5,a0,t0
    289c:	d4843603          	ld	a2,-696(s0)
    28a0:	00ca8633          	add	a2,s5,a2
    28a4:	d4c43423          	sd	a2,-696(s0)
    28a8:	eb043883          	ld	a7,-336(s0)
    28ac:	03150ab3          	mul	s5,a0,a7
    28b0:	d5043603          	ld	a2,-688(s0)
    28b4:	00ca8633          	add	a2,s5,a2
    28b8:	d4c43823          	sd	a2,-688(s0)
    28bc:	ea043803          	ld	a6,-352(s0)
    28c0:	03050ab3          	mul	s5,a0,a6
    28c4:	d5843603          	ld	a2,-680(s0)
    28c8:	00ca8633          	add	a2,s5,a2
    28cc:	d4c43c23          	sd	a2,-680(s0)
    28d0:	000f8793          	mv	a5,t6
    28d4:	03f50ab3          	mul	s5,a0,t6
    28d8:	d6043603          	ld	a2,-672(s0)
    28dc:	00ca8633          	add	a2,s5,a2
    28e0:	d6c43023          	sd	a2,-672(s0)
    28e4:	f5843703          	ld	a4,-168(s0)
    28e8:	02e50ab3          	mul	s5,a0,a4
    28ec:	d6843603          	ld	a2,-664(s0)
    28f0:	00ca8633          	add	a2,s5,a2
    28f4:	d6c43423          	sd	a2,-664(s0)
    28f8:	f4843f83          	ld	t6,-184(s0)
    28fc:	03f50ab3          	mul	s5,a0,t6
    2900:	d7043603          	ld	a2,-656(s0)
    2904:	00ca8633          	add	a2,s5,a2
    2908:	d6c43823          	sd	a2,-656(s0)
    290c:	f8043603          	ld	a2,-128(s0)
    2910:	3f060a83          	lb	s5,1008(a2)
    2914:	00068593          	mv	a1,a3
    2918:	02d50db3          	mul	s11,a0,a3
    291c:	d7843603          	ld	a2,-648(s0)
    2920:	00cd8633          	add	a2,s11,a2
    2924:	d6c43c23          	sd	a2,-648(s0)
    2928:	ed843683          	ld	a3,-296(s0)
    292c:	02d50533          	mul	a0,a0,a3
    2930:	d8043603          	ld	a2,-640(s0)
    2934:	00c50633          	add	a2,a0,a2
    2938:	d8c43023          	sd	a2,-640(s0)
    293c:	02da8533          	mul	a0,s5,a3
    2940:	eca43c23          	sd	a0,-296(s0)
    2944:	02ba8533          	mul	a0,s5,a1
    2948:	e6a43823          	sd	a0,-400(s0)
    294c:	03fa8533          	mul	a0,s5,t6
    2950:	f4a43423          	sd	a0,-184(s0)
    2954:	02ea8533          	mul	a0,s5,a4
    2958:	000015b7          	lui	a1,0x1
    295c:	40b405b3          	sub	a1,s0,a1
    2960:	64a5bc23          	sd	a0,1624(a1) # 1658 <.LBB34_3+0x1b4>
    2964:	02fa8533          	mul	a0,s5,a5
    2968:	e8a43823          	sd	a0,-368(s0)
    296c:	030a8533          	mul	a0,s5,a6
    2970:	eaa43023          	sd	a0,-352(s0)
    2974:	031a8533          	mul	a0,s5,a7
    2978:	f4a43c23          	sd	a0,-168(s0)
    297c:	025a8533          	mul	a0,s5,t0
    2980:	f6a43023          	sd	a0,-160(s0)
    2984:	032a8533          	mul	a0,s5,s2
    2988:	f6a43423          	sd	a0,-152(s0)
    298c:	026a8933          	mul	s2,s5,t1
    2990:	03ea8fb3          	mul	t6,s5,t5
    2994:	027a8f33          	mul	t5,s5,t2
    2998:	03ca82b3          	mul	t0,s5,t3
    299c:	03da8833          	mul	a6,s5,t4
    29a0:	029a88b3          	mul	a7,s5,s1
    29a4:	038a83b3          	mul	t2,s5,s8
    29a8:	ef843503          	ld	a0,-264(s0)
    29ac:	02aa8e33          	mul	t3,s5,a0
    29b0:	033a8eb3          	mul	t4,s5,s3
    29b4:	034a8a33          	mul	s4,s5,s4
    29b8:	036a8b33          	mul	s6,s5,s6
    29bc:	037a8bb3          	mul	s7,s5,s7
    29c0:	03aa8c33          	mul	s8,s5,s10
    29c4:	039a8cb3          	mul	s9,s5,s9
    29c8:	021a8d33          	mul	s10,s5,ra
    29cc:	e8843503          	ld	a0,-376(s0)
    29d0:	02aa8db3          	mul	s11,s5,a0
    29d4:	eb843503          	ld	a0,-328(s0)
    29d8:	02aa8733          	mul	a4,s5,a0
    29dc:	f4043503          	ld	a0,-192(s0)
    29e0:	02aa80b3          	mul	ra,s5,a0
    29e4:	ea843503          	ld	a0,-344(s0)
    29e8:	02aa86b3          	mul	a3,s5,a0
    29ec:	e7843503          	ld	a0,-392(s0)
    29f0:	02aa8633          	mul	a2,s5,a0
    29f4:	f7043503          	ld	a0,-144(s0)
    29f8:	02aa85b3          	mul	a1,s5,a0
    29fc:	f7843503          	ld	a0,-136(s0)
    2a00:	02aa8533          	mul	a0,s5,a0
    2a04:	ee043783          	ld	a5,-288(s0)
    2a08:	02fa8ab3          	mul	s5,s5,a5
    2a0c:	da043783          	ld	a5,-608(s0)
    2a10:	00fa87b3          	add	a5,s5,a5
    2a14:	daf43023          	sd	a5,-608(s0)
    2a18:	e1843a83          	ld	s5,-488(s0)
    2a1c:	d9843783          	ld	a5,-616(s0)
    2a20:	00f507b3          	add	a5,a0,a5
    2a24:	d8f43c23          	sd	a5,-616(s0)
    2a28:	d9043503          	ld	a0,-624(s0)
    2a2c:	00a58533          	add	a0,a1,a0
    2a30:	d8a43823          	sd	a0,-624(s0)
    2a34:	d8843503          	ld	a0,-632(s0)
    2a38:	00a60533          	add	a0,a2,a0
    2a3c:	d8a43423          	sd	a0,-632(s0)
    2a40:	da843503          	ld	a0,-600(s0)
    2a44:	00a68533          	add	a0,a3,a0
    2a48:	daa43423          	sd	a0,-600(s0)
    2a4c:	db043503          	ld	a0,-592(s0)
    2a50:	00a08533          	add	a0,ra,a0
    2a54:	daa43823          	sd	a0,-592(s0)
    2a58:	de043083          	ld	ra,-544(s0)
    2a5c:	db843503          	ld	a0,-584(s0)
    2a60:	00a70533          	add	a0,a4,a0
    2a64:	daa43c23          	sd	a0,-584(s0)
    2a68:	dc043503          	ld	a0,-576(s0)
    2a6c:	00ad8533          	add	a0,s11,a0
    2a70:	dca43023          	sd	a0,-576(s0)
    2a74:	de843d83          	ld	s11,-536(s0)
    2a78:	dc843503          	ld	a0,-568(s0)
    2a7c:	00ad0533          	add	a0,s10,a0
    2a80:	dca43423          	sd	a0,-568(s0)
    2a84:	df043d03          	ld	s10,-528(s0)
    2a88:	dd043503          	ld	a0,-560(s0)
    2a8c:	00ac8533          	add	a0,s9,a0
    2a90:	dca43823          	sd	a0,-560(s0)
    2a94:	df843c83          	ld	s9,-520(s0)
    2a98:	dd843503          	ld	a0,-552(s0)
    2a9c:	00ac0533          	add	a0,s8,a0
    2aa0:	dca43c23          	sd	a0,-552(s0)
    2aa4:	e0043c03          	ld	s8,-512(s0)
    2aa8:	e5843703          	ld	a4,-424(s0)
    2aac:	001b80b3          	add	ra,s7,ra
    2ab0:	e0843b83          	ld	s7,-504(s0)
    2ab4:	01bb0db3          	add	s11,s6,s11
    2ab8:	e1043b03          	ld	s6,-496(s0)
    2abc:	01aa0d33          	add	s10,s4,s10
    2ac0:	e2043a03          	ld	s4,-480(s0)
    2ac4:	019e8cb3          	add	s9,t4,s9
    2ac8:	018e0c33          	add	s8,t3,s8
    2acc:	e2843e03          	ld	t3,-472(s0)
    2ad0:	01738bb3          	add	s7,t2,s7
    2ad4:	e3043383          	ld	t2,-464(s0)
    2ad8:	01688b33          	add	s6,a7,s6
    2adc:	e4843883          	ld	a7,-440(s0)
    2ae0:	01580ab3          	add	s5,a6,s5
    2ae4:	e4043583          	ld	a1,-448(s0)
    2ae8:	01428a33          	add	s4,t0,s4
    2aec:	e3843303          	ld	t1,-456(s0)
    2af0:	f1843503          	ld	a0,-232(s0)
    2af4:	00af0533          	add	a0,t5,a0
    2af8:	00001637          	lui	a2,0x1
    2afc:	40c40633          	sub	a2,s0,a2
    2b00:	67063f03          	ld	t5,1648(a2) # 1670 <.LBB34_3+0x1cc>
    2b04:	f0a43c23          	sd	a0,-232(s0)
    2b08:	f1843e83          	ld	t4,-232(s0)
    2b0c:	f2043503          	ld	a0,-224(s0)
    2b10:	00af8533          	add	a0,t6,a0
    2b14:	f8843f83          	ld	t6,-120(s0)
    2b18:	f2a43023          	sd	a0,-224(s0)
    2b1c:	f2043683          	ld	a3,-224(s0)
    2b20:	f2843503          	ld	a0,-216(s0)
    2b24:	00a90533          	add	a0,s2,a0
    2b28:	f2a43423          	sd	a0,-216(s0)
    2b2c:	f2843603          	ld	a2,-216(s0)
    2b30:	f3043503          	ld	a0,-208(s0)
    2b34:	f6843783          	ld	a5,-152(s0)
    2b38:	00a78533          	add	a0,a5,a0
    2b3c:	f2a43823          	sd	a0,-208(s0)
    2b40:	f3043283          	ld	t0,-208(s0)
    2b44:	f3843503          	ld	a0,-200(s0)
    2b48:	f6043783          	ld	a5,-160(s0)
    2b4c:	00a78533          	add	a0,a5,a0
    2b50:	000017b7          	lui	a5,0x1
    2b54:	40f407b3          	sub	a5,s0,a5
    2b58:	6787b483          	ld	s1,1656(a5) # 1678 <.LBB34_3+0x1d4>
    2b5c:	f2a43c23          	sd	a0,-200(s0)
    2b60:	f3843503          	ld	a0,-200(s0)
    2b64:	f5843783          	ld	a5,-168(s0)
    2b68:	01c78e33          	add	t3,a5,t3
    2b6c:	e5043803          	ld	a6,-432(s0)
    2b70:	ea043783          	ld	a5,-352(s0)
    2b74:	007783b3          	add	t2,a5,t2
    2b78:	f8043783          	ld	a5,-128(s0)
    2b7c:	e9043903          	ld	s2,-368(s0)
    2b80:	00690333          	add	t1,s2,t1
    2b84:	00001937          	lui	s2,0x1
    2b88:	41240933          	sub	s2,s0,s2
    2b8c:	65893903          	ld	s2,1624(s2) # 1658 <.LBB34_3+0x1b4>
    2b90:	00b905b3          	add	a1,s2,a1
    2b94:	f4843903          	ld	s2,-184(s0)
    2b98:	011908b3          	add	a7,s2,a7
    2b9c:	e7043903          	ld	s2,-400(s0)
    2ba0:	01090833          	add	a6,s2,a6
    2ba4:	ed843903          	ld	s2,-296(s0)
    2ba8:	00e90733          	add	a4,s2,a4
    2bac:	fe0f0f13          	addi	t5,t5,-32
    2bb0:	020f8f93          	addi	t6,t6,32
    2bb4:	00178793          	addi	a5,a5,1
    2bb8:	000f0463          	beqz	t5,2bc0 <.LBB34_4>
    2bbc:	8e9fe06f          	j	14a4 <.LBB34_3>

0000000000002bc0 <.LBB34_4>:
    2bc0:	00001537          	lui	a0,0x1
    2bc4:	40a40533          	sub	a0,s0,a0
    2bc8:	6a053903          	ld	s2,1696(a0) # 16a0 <.LBB34_3+0x1fc>
    2bcc:	00001537          	lui	a0,0x1
    2bd0:	40a40533          	sub	a0,s0,a0
    2bd4:	6a853483          	ld	s1,1704(a0) # 16a8 <.LBB34_3+0x204>
    2bd8:	00001537          	lui	a0,0x1
    2bdc:	40a40533          	sub	a0,s0,a0
    2be0:	69853f83          	ld	t6,1688(a0) # 1698 <.LBB34_3+0x1f4>
    2be4:	00001537          	lui	a0,0x1
    2be8:	40a40533          	sub	a0,s0,a0
    2bec:	69053f03          	ld	t5,1680(a0) # 1690 <.LBB34_3+0x1ec>
    2bf0:	00001537          	lui	a0,0x1
    2bf4:	40a40533          	sub	a0,s0,a0
    2bf8:	58053683          	ld	a3,1408(a0) # 1580 <.LBB34_3+0xdc>
    2bfc:	00269693          	slli	a3,a3,0x2
    2c00:	00001537          	lui	a0,0x1
    2c04:	40a40533          	sub	a0,s0,a0
    2c08:	ae053503          	ld	a0,-1312(a0) # ae0 <.LBB34_1+0x7d4>
    2c0c:	00d506b3          	add	a3,a0,a3
    2c10:	0006a283          	lw	t0,0(a3)
    2c14:	00001537          	lui	a0,0x1
    2c18:	40a40533          	sub	a0,s0,a0
    2c1c:	ad853783          	ld	a5,-1320(a0) # ad8 <.LBB34_1+0x7cc>
    2c20:	00c7a503          	lw	a0,12(a5)
    2c24:	00429613          	slli	a2,t0,0x4
    2c28:	005609b3          	add	s3,a2,t0
    2c2c:	00751613          	slli	a2,a0,0x7
    2c30:	00001537          	lui	a0,0x1
    2c34:	40a40533          	sub	a0,s0,a0
    2c38:	5a053503          	ld	a0,1440(a0) # 15a0 <.LBB34_3+0xfc>
    2c3c:	000012b7          	lui	t0,0x1
    2c40:	405402b3          	sub	t0,s0,t0
    2c44:	6b02be83          	ld	t4,1712(t0) # 16b0 <.LBB34_3+0x20c>
    2c48:	00ae8533          	add	a0,t4,a0
    2c4c:	f8c43423          	sd	a2,-120(s0)
    2c50:	00c50533          	add	a0,a0,a2
    2c54:	00098293          	mv	t0,s3
    2c58:	01350533          	add	a0,a0,s3
    2c5c:	e6043603          	ld	a2,-416(s0)
    2c60:	00c50ebb          	addw	t4,a0,a2
    2c64:	40000537          	lui	a0,0x40000
    2c68:	000019b7          	lui	s3,0x1
    2c6c:	413409b3          	sub	s3,s0,s3
    2c70:	6aa9b823          	sd	a0,1712(s3) # 16b0 <.LBB34_3+0x20c>
    2c74:	000019b7          	lui	s3,0x1
    2c78:	413409b3          	sub	s3,s0,s3
    2c7c:	67d9b823          	sd	t4,1648(s3) # 1670 <.LBB34_3+0x1cc>
    2c80:	000ed463          	bgez	t4,2c88 <.LBB34_6>
    2c84:	c0000537          	lui	a0,0xc0000

0000000000002c88 <.LBB34_6>:
    2c88:	00001eb7          	lui	t4,0x1
    2c8c:	41d40eb3          	sub	t4,s0,t4
    2c90:	66aeb423          	sd	a0,1640(t4) # 1668 <.LBB34_3+0x1c4>
    2c94:	0087a503          	lw	a0,8(a5)
    2c98:	00751e93          	slli	t4,a0,0x7
    2c9c:	00001537          	lui	a0,0x1
    2ca0:	40a40533          	sub	a0,s0,a0
    2ca4:	59853503          	ld	a0,1432(a0) # 1598 <.LBB34_3+0xf4>
    2ca8:	00a90533          	add	a0,s2,a0
    2cac:	f9d43023          	sd	t4,-128(s0)
    2cb0:	01d50533          	add	a0,a0,t4
    2cb4:	00550533          	add	a0,a0,t0
    2cb8:	00c5053b          	addw	a0,a0,a2
    2cbc:	40000eb7          	lui	t4,0x40000
    2cc0:	00001937          	lui	s2,0x1
    2cc4:	41240933          	sub	s2,s0,s2
    2cc8:	6aa93023          	sd	a0,1696(s2) # 16a0 <.LBB34_3+0x1fc>
    2ccc:	000f0993          	mv	s3,t5
    2cd0:	000f8913          	mv	s2,t6
    2cd4:	00055463          	bgez	a0,2cdc <.LBB34_8>
    2cd8:	c0000eb7          	lui	t4,0xc0000

0000000000002cdc <.LBB34_8>:
    2cdc:	00001537          	lui	a0,0x1
    2ce0:	40a40533          	sub	a0,s0,a0
    2ce4:	67d53023          	sd	t4,1632(a0) # 1660 <.LBB34_3+0x1bc>
    2ce8:	0047a503          	lw	a0,4(a5)
    2cec:	00751f13          	slli	t5,a0,0x7
    2cf0:	00001537          	lui	a0,0x1
    2cf4:	40a40533          	sub	a0,s0,a0
    2cf8:	59053503          	ld	a0,1424(a0) # 1590 <.LBB34_3+0xec>
    2cfc:	00a48533          	add	a0,s1,a0
    2d00:	f7e43c23          	sd	t5,-136(s0)
    2d04:	01e50533          	add	a0,a0,t5
    2d08:	00550533          	add	a0,a0,t0
    2d0c:	00c5053b          	addw	a0,a0,a2
    2d10:	40000fb7          	lui	t6,0x40000
    2d14:	00001eb7          	lui	t4,0x1
    2d18:	41d40eb3          	sub	t4,s0,t4
    2d1c:	6aaeb423          	sd	a0,1704(t4) # 16a8 <.LBB34_3+0x204>
    2d20:	00001eb7          	lui	t4,0x1
    2d24:	41d40eb3          	sub	t4,s0,t4
    2d28:	6b8ebe83          	ld	t4,1720(t4) # 16b8 <.LBB34_3+0x214>
    2d2c:	00055463          	bgez	a0,2d34 <.LBB34_10>
    2d30:	c0000fb7          	lui	t6,0xc0000

0000000000002d34 <.LBB34_10>:
    2d34:	0007a503          	lw	a0,0(a5)
    2d38:	00751f13          	slli	t5,a0,0x7
    2d3c:	00001537          	lui	a0,0x1
    2d40:	40a40533          	sub	a0,s0,a0
    2d44:	58853503          	ld	a0,1416(a0) # 1588 <.LBB34_3+0xe4>
    2d48:	000014b7          	lui	s1,0x1
    2d4c:	409404b3          	sub	s1,s0,s1
    2d50:	6c04b483          	ld	s1,1728(s1) # 16c0 <.LBB34_3+0x21c>
    2d54:	00a48533          	add	a0,s1,a0
    2d58:	f7e43823          	sd	t5,-144(s0)
    2d5c:	01e50533          	add	a0,a0,t5
    2d60:	00550533          	add	a0,a0,t0
    2d64:	00c5053b          	addw	a0,a0,a2
    2d68:	400004b7          	lui	s1,0x40000
    2d6c:	00001f37          	lui	t5,0x1
    2d70:	41e40f33          	sub	t5,s0,t5
    2d74:	64af3c23          	sd	a0,1624(t5) # 1658 <.LBB34_3+0x1b4>
    2d78:	00055463          	bgez	a0,2d80 <.LBB34_12>
    2d7c:	c00004b7          	lui	s1,0xc0000

0000000000002d80 <.LBB34_12>:
    2d80:	0107a503          	lw	a0,16(a5)
    2d84:	00751f13          	slli	t5,a0,0x7
    2d88:	00001537          	lui	a0,0x1
    2d8c:	40a40533          	sub	a0,s0,a0
    2d90:	5a853503          	ld	a0,1448(a0) # 15a8 <.LBB34_3+0x104>
    2d94:	00a90533          	add	a0,s2,a0
    2d98:	f7e43423          	sd	t5,-152(s0)
    2d9c:	01e50533          	add	a0,a0,t5
    2da0:	00550533          	add	a0,a0,t0
    2da4:	00c5053b          	addw	a0,a0,a2
    2da8:	40000937          	lui	s2,0x40000
    2dac:	00001f37          	lui	t5,0x1
    2db0:	41e40f33          	sub	t5,s0,t5
    2db4:	68af3c23          	sd	a0,1688(t5) # 1698 <.LBB34_3+0x1f4>
    2db8:	00055463          	bgez	a0,2dc0 <.LBB34_14>
    2dbc:	c0000937          	lui	s2,0xc0000

0000000000002dc0 <.LBB34_14>:
    2dc0:	0147a503          	lw	a0,20(a5)
    2dc4:	00751f13          	slli	t5,a0,0x7
    2dc8:	00001537          	lui	a0,0x1
    2dcc:	40a40533          	sub	a0,s0,a0
    2dd0:	5b053503          	ld	a0,1456(a0) # 15b0 <.LBB34_3+0x10c>
    2dd4:	00a98533          	add	a0,s3,a0
    2dd8:	f7e43023          	sd	t5,-160(s0)
    2ddc:	01e50533          	add	a0,a0,t5
    2de0:	00550533          	add	a0,a0,t0
    2de4:	00c5053b          	addw	a0,a0,a2
    2de8:	400009b7          	lui	s3,0x40000
    2dec:	00001f37          	lui	t5,0x1
    2df0:	41e40f33          	sub	t5,s0,t5
    2df4:	54af3823          	sd	a0,1360(t5) # 1550 <.LBB34_3+0xac>
    2df8:	00055463          	bgez	a0,2e00 <.LBB34_16>
    2dfc:	c00009b7          	lui	s3,0xc0000

0000000000002e00 <.LBB34_16>:
    2e00:	0187a503          	lw	a0,24(a5)
    2e04:	00751f13          	slli	t5,a0,0x7
    2e08:	00001537          	lui	a0,0x1
    2e0c:	40a40533          	sub	a0,s0,a0
    2e10:	5b853503          	ld	a0,1464(a0) # 15b8 <.LBB34_3+0x114>
    2e14:	00ae8533          	add	a0,t4,a0
    2e18:	f5e43c23          	sd	t5,-168(s0)
    2e1c:	01e50533          	add	a0,a0,t5
    2e20:	00550533          	add	a0,a0,t0
    2e24:	00c5053b          	addw	a0,a0,a2
    2e28:	40000f37          	lui	t5,0x40000
    2e2c:	00001eb7          	lui	t4,0x1
    2e30:	41d40eb3          	sub	t4,s0,t4
    2e34:	6deeb023          	sd	t5,1728(t4) # 16c0 <.LBB34_3+0x21c>
    2e38:	00001eb7          	lui	t4,0x1
    2e3c:	41d40eb3          	sub	t4,s0,t4
    2e40:	54aeb023          	sd	a0,1344(t4) # 1540 <.LBB34_3+0x9c>
    2e44:	00055a63          	bgez	a0,2e58 <.LBB34_18>
    2e48:	c0000537          	lui	a0,0xc0000
    2e4c:	00001eb7          	lui	t4,0x1
    2e50:	41d40eb3          	sub	t4,s0,t4
    2e54:	6caeb023          	sd	a0,1728(t4) # 16c0 <.LBB34_3+0x21c>

0000000000002e58 <.LBB34_18>:
    2e58:	01c7a503          	lw	a0,28(a5)
    2e5c:	00751f13          	slli	t5,a0,0x7
    2e60:	00001537          	lui	a0,0x1
    2e64:	40a40533          	sub	a0,s0,a0
    2e68:	5c053503          	ld	a0,1472(a0) # 15c0 <.LBB34_3+0x11c>
    2e6c:	00001eb7          	lui	t4,0x1
    2e70:	41d40eb3          	sub	t4,s0,t4
    2e74:	6c8ebe83          	ld	t4,1736(t4) # 16c8 <.LBB34_3+0x224>
    2e78:	00ae8533          	add	a0,t4,a0
    2e7c:	f5e43823          	sd	t5,-176(s0)
    2e80:	01e50533          	add	a0,a0,t5
    2e84:	00550533          	add	a0,a0,t0
    2e88:	00c5053b          	addw	a0,a0,a2
    2e8c:	40000f37          	lui	t5,0x40000
    2e90:	00001eb7          	lui	t4,0x1
    2e94:	41d40eb3          	sub	t4,s0,t4
    2e98:	52aebc23          	sd	a0,1336(t4) # 1538 <.LBB34_3+0x94>
    2e9c:	00055463          	bgez	a0,2ea4 <.LBB34_20>
    2ea0:	c0000f37          	lui	t5,0xc0000

0000000000002ea4 <.LBB34_20>:
    2ea4:	00001537          	lui	a0,0x1
    2ea8:	40a40533          	sub	a0,s0,a0
    2eac:	53e53823          	sd	t5,1328(a0) # 1530 <.LBB34_3+0x8c>
    2eb0:	00001537          	lui	a0,0x1
    2eb4:	40a40533          	sub	a0,s0,a0
    2eb8:	55353423          	sd	s3,1352(a0) # 1548 <.LBB34_3+0xa4>
    2ebc:	00001537          	lui	a0,0x1
    2ec0:	40a40533          	sub	a0,s0,a0
    2ec4:	69253823          	sd	s2,1680(a0) # 1690 <.LBB34_3+0x1ec>
    2ec8:	00001537          	lui	a0,0x1
    2ecc:	40a40533          	sub	a0,s0,a0
    2ed0:	6a953c23          	sd	s1,1720(a0) # 16b8 <.LBB34_3+0x214>
    2ed4:	00001537          	lui	a0,0x1
    2ed8:	40a40533          	sub	a0,s0,a0
    2edc:	6df53423          	sd	t6,1736(a0) # 16c8 <.LBB34_3+0x224>
    2ee0:	de143023          	sd	ra,-544(s0)
    2ee4:	dfb43423          	sd	s11,-536(s0)
    2ee8:	dfa43823          	sd	s10,-528(s0)
    2eec:	df943c23          	sd	s9,-520(s0)
    2ef0:	e1843023          	sd	s8,-512(s0)
    2ef4:	e1743423          	sd	s7,-504(s0)
    2ef8:	e1643823          	sd	s6,-496(s0)
    2efc:	e1543c23          	sd	s5,-488(s0)
    2f00:	e3443023          	sd	s4,-480(s0)
    2f04:	e3c43423          	sd	t3,-472(s0)
    2f08:	e2743823          	sd	t2,-464(s0)
    2f0c:	e2643c23          	sd	t1,-456(s0)
    2f10:	e4b43023          	sd	a1,-448(s0)
    2f14:	e5143423          	sd	a7,-440(s0)
    2f18:	e5043823          	sd	a6,-432(s0)
    2f1c:	e4e43c23          	sd	a4,-424(s0)
    2f20:	0207a503          	lw	a0,32(a5)
    2f24:	00751713          	slli	a4,a0,0x7
    2f28:	00001537          	lui	a0,0x1
    2f2c:	40a40533          	sub	a0,s0,a0
    2f30:	5c853503          	ld	a0,1480(a0) # 15c8 <.LBB34_3+0x124>
    2f34:	000015b7          	lui	a1,0x1
    2f38:	40b405b3          	sub	a1,s0,a1
    2f3c:	6d05b803          	ld	a6,1744(a1) # 16d0 <.LBB34_3+0x22c>
    2f40:	00a80533          	add	a0,a6,a0
    2f44:	f4e43423          	sd	a4,-184(s0)
    2f48:	00e50533          	add	a0,a0,a4
    2f4c:	00028593          	mv	a1,t0
    2f50:	00550533          	add	a0,a0,t0
    2f54:	00c5053b          	addw	a0,a0,a2
    2f58:	40000637          	lui	a2,0x40000
    2f5c:	00001737          	lui	a4,0x1
    2f60:	40e40733          	sub	a4,s0,a4
    2f64:	6ca73823          	sd	a0,1744(a4) # 16d0 <.LBB34_3+0x22c>
    2f68:	00055463          	bgez	a0,2f70 <.LBB34_22>
    2f6c:	c0000637          	lui	a2,0xc0000

0000000000002f70 <.LBB34_22>:
    2f70:	00001537          	lui	a0,0x1
    2f74:	40a40533          	sub	a0,s0,a0
    2f78:	52c53423          	sd	a2,1320(a0) # 1528 <.LBB34_3+0x84>
    2f7c:	0046a603          	lw	a2,4(a3)
    2f80:	0086a503          	lw	a0,8(a3)
    2f84:	00001737          	lui	a4,0x1
    2f88:	40e40733          	sub	a4,s0,a4
    2f8c:	4ca73c23          	sd	a0,1240(a4) # 14d8 <.LBB34_3+0x34>
    2f90:	00c6a503          	lw	a0,12(a3)
    2f94:	00001737          	lui	a4,0x1
    2f98:	40e40733          	sub	a4,s0,a4
    2f9c:	50a73023          	sd	a0,1280(a4) # 1500 <.LBB34_3+0x5c>
    2fa0:	0106a503          	lw	a0,16(a3)
    2fa4:	00001737          	lui	a4,0x1
    2fa8:	40e40733          	sub	a4,s0,a4
    2fac:	50a73823          	sd	a0,1296(a4) # 1510 <.LBB34_3+0x6c>
    2fb0:	0146a503          	lw	a0,20(a3)
    2fb4:	00001737          	lui	a4,0x1
    2fb8:	40e40733          	sub	a4,s0,a4
    2fbc:	52a73023          	sd	a0,1312(a4) # 1520 <.LBB34_3+0x7c>
    2fc0:	0186a503          	lw	a0,24(a3)
    2fc4:	00001737          	lui	a4,0x1
    2fc8:	40e40733          	sub	a4,s0,a4
    2fcc:	50a73c23          	sd	a0,1304(a4) # 1518 <.LBB34_3+0x74>
    2fd0:	01c6a503          	lw	a0,28(a3)
    2fd4:	000016b7          	lui	a3,0x1
    2fd8:	40d406b3          	sub	a3,s0,a3
    2fdc:	50a6b423          	sd	a0,1288(a3) # 1508 <.LBB34_3+0x64>
    2fe0:	07c7a503          	lw	a0,124(a5)
    2fe4:	e6a43423          	sd	a0,-408(s0)
    2fe8:	0787a703          	lw	a4,120(a5)
    2fec:	0747a803          	lw	a6,116(a5)
    2ff0:	0707a303          	lw	t1,112(a5)
    2ff4:	06c7a383          	lw	t2,108(a5)
    2ff8:	0687ae03          	lw	t3,104(a5)
    2ffc:	0647ae83          	lw	t4,100(a5)
    3000:	0607af03          	lw	t5,96(a5)
    3004:	05c7af83          	lw	t6,92(a5)
    3008:	0587a483          	lw	s1,88(a5)
    300c:	0547a903          	lw	s2,84(a5)
    3010:	0507a983          	lw	s3,80(a5)
    3014:	04c7aa03          	lw	s4,76(a5)
    3018:	0487aa83          	lw	s5,72(a5)
    301c:	0447ab03          	lw	s6,68(a5)
    3020:	0247a283          	lw	t0,36(a5)
    3024:	0407ab83          	lw	s7,64(a5)
    3028:	03c7ac03          	lw	s8,60(a5)
    302c:	0387ac83          	lw	s9,56(a5)
    3030:	00729513          	slli	a0,t0,0x7
    3034:	000016b7          	lui	a3,0x1
    3038:	40d406b3          	sub	a3,s0,a3
    303c:	5d06b283          	ld	t0,1488(a3) # 15d0 <.LBB34_3+0x12c>
    3040:	000016b7          	lui	a3,0x1
    3044:	40d406b3          	sub	a3,s0,a3
    3048:	6d86b683          	ld	a3,1752(a3) # 16d8 <.LBB34_3+0x234>
    304c:	005682b3          	add	t0,a3,t0
    3050:	f4a43023          	sd	a0,-192(s0)
    3054:	00a282b3          	add	t0,t0,a0
    3058:	0347ad03          	lw	s10,52(a5)
    305c:	0307ad83          	lw	s11,48(a5)
    3060:	02c7a083          	lw	ra,44(a5)
    3064:	0287a783          	lw	a5,40(a5)
    3068:	00b282b3          	add	t0,t0,a1
    306c:	e6043883          	ld	a7,-416(s0)
    3070:	0112853b          	addw	a0,t0,a7
    3074:	00088293          	mv	t0,a7
    3078:	400008b7          	lui	a7,0x40000
    307c:	000016b7          	lui	a3,0x1
    3080:	40d406b3          	sub	a3,s0,a3
    3084:	4ea6bc23          	sd	a0,1272(a3) # 14f8 <.LBB34_3+0x54>
    3088:	00055463          	bgez	a0,3090 <.LBB34_24>
    308c:	c00008b7          	lui	a7,0xc0000

0000000000003090 <.LBB34_24>:
    3090:	00779513          	slli	a0,a5,0x7
    3094:	000016b7          	lui	a3,0x1
    3098:	40d406b3          	sub	a3,s0,a3
    309c:	5d86b783          	ld	a5,1496(a3) # 15d8 <.LBB34_3+0x134>
    30a0:	000016b7          	lui	a3,0x1
    30a4:	40d406b3          	sub	a3,s0,a3
    30a8:	6e06b683          	ld	a3,1760(a3) # 16e0 <.LBB34_3+0x23c>
    30ac:	00f687b3          	add	a5,a3,a5
    30b0:	f0a43823          	sd	a0,-240(s0)
    30b4:	00a787b3          	add	a5,a5,a0
    30b8:	00b787b3          	add	a5,a5,a1
    30bc:	0057853b          	addw	a0,a5,t0
    30c0:	400007b7          	lui	a5,0x40000
    30c4:	000016b7          	lui	a3,0x1
    30c8:	40d406b3          	sub	a3,s0,a3
    30cc:	48a6bc23          	sd	a0,1176(a3) # 1498 <.LBB34_2+0x598>
    30d0:	00055463          	bgez	a0,30d8 <.LBB34_26>
    30d4:	c00007b7          	lui	a5,0xc0000

00000000000030d8 <.LBB34_26>:
    30d8:	00001537          	lui	a0,0x1
    30dc:	40a40533          	sub	a0,s0,a0
    30e0:	48f53823          	sd	a5,1168(a0) # 1490 <.LBB34_2+0x590>
    30e4:	00709093          	slli	ra,ra,0x7
    30e8:	00001537          	lui	a0,0x1
    30ec:	40a40533          	sub	a0,s0,a0
    30f0:	5e053783          	ld	a5,1504(a0) # 15e0 <.LBB34_3+0x13c>
    30f4:	00001537          	lui	a0,0x1
    30f8:	40a40533          	sub	a0,s0,a0
    30fc:	6e853503          	ld	a0,1768(a0) # 16e8 <.LBB34_3+0x244>
    3100:	00f507b3          	add	a5,a0,a5
    3104:	f0143423          	sd	ra,-248(s0)
    3108:	001787b3          	add	a5,a5,ra
    310c:	00b787b3          	add	a5,a5,a1
    3110:	0057853b          	addw	a0,a5,t0
    3114:	400007b7          	lui	a5,0x40000
    3118:	000016b7          	lui	a3,0x1
    311c:	40d406b3          	sub	a3,s0,a3
    3120:	42a6b823          	sd	a0,1072(a3) # 1430 <.LBB34_2+0x530>
    3124:	00055463          	bgez	a0,312c <.LBB34_28>
    3128:	c00007b7          	lui	a5,0xc0000

000000000000312c <.LBB34_28>:
    312c:	00001537          	lui	a0,0x1
    3130:	40a40533          	sub	a0,s0,a0
    3134:	42f53423          	sd	a5,1064(a0) # 1428 <.LBB34_2+0x528>
    3138:	007d9d93          	slli	s11,s11,0x7
    313c:	00001537          	lui	a0,0x1
    3140:	40a40533          	sub	a0,s0,a0
    3144:	5e853783          	ld	a5,1512(a0) # 15e8 <.LBB34_3+0x144>
    3148:	00001537          	lui	a0,0x1
    314c:	40a40533          	sub	a0,s0,a0
    3150:	6f053503          	ld	a0,1776(a0) # 16f0 <.LBB34_3+0x24c>
    3154:	00f507b3          	add	a5,a0,a5
    3158:	f1b43023          	sd	s11,-256(s0)
    315c:	01b787b3          	add	a5,a5,s11
    3160:	00b787b3          	add	a5,a5,a1
    3164:	0057853b          	addw	a0,a5,t0
    3168:	400007b7          	lui	a5,0x40000
    316c:	000016b7          	lui	a3,0x1
    3170:	40d406b3          	sub	a3,s0,a3
    3174:	5606b083          	ld	ra,1376(a3) # 1560 <.LBB34_3+0xbc>
    3178:	000016b7          	lui	a3,0x1
    317c:	40d406b3          	sub	a3,s0,a3
    3180:	3ca6b823          	sd	a0,976(a3) # 13d0 <.LBB34_2+0x4d0>
    3184:	00055463          	bgez	a0,318c <.LBB34_30>
    3188:	c00007b7          	lui	a5,0xc0000

000000000000318c <.LBB34_30>:
    318c:	00001537          	lui	a0,0x1
    3190:	40a40533          	sub	a0,s0,a0
    3194:	3cf53023          	sd	a5,960(a0) # 13c0 <.LBB34_2+0x4c0>
    3198:	007d1d13          	slli	s10,s10,0x7
    319c:	00001537          	lui	a0,0x1
    31a0:	40a40533          	sub	a0,s0,a0
    31a4:	5f053783          	ld	a5,1520(a0) # 15f0 <.LBB34_3+0x14c>
    31a8:	00001537          	lui	a0,0x1
    31ac:	40a40533          	sub	a0,s0,a0
    31b0:	6f853503          	ld	a0,1784(a0) # 16f8 <.LBB34_3+0x254>
    31b4:	00f507b3          	add	a5,a0,a5
    31b8:	efa43c23          	sd	s10,-264(s0)
    31bc:	01a787b3          	add	a5,a5,s10
    31c0:	00b787b3          	add	a5,a5,a1
    31c4:	0057853b          	addw	a0,a5,t0
    31c8:	400007b7          	lui	a5,0x40000
    31cc:	000016b7          	lui	a3,0x1
    31d0:	40d406b3          	sub	a3,s0,a3
    31d4:	36a6bc23          	sd	a0,888(a3) # 1378 <.LBB34_2+0x478>
    31d8:	000016b7          	lui	a3,0x1
    31dc:	40d406b3          	sub	a3,s0,a3
    31e0:	7106bd83          	ld	s11,1808(a3) # 1710 <.LBB34_3+0x26c>
    31e4:	00055463          	bgez	a0,31ec <.LBB34_32>
    31e8:	c00007b7          	lui	a5,0xc0000

00000000000031ec <.LBB34_32>:
    31ec:	00001537          	lui	a0,0x1
    31f0:	40a40533          	sub	a0,s0,a0
    31f4:	36f53423          	sd	a5,872(a0) # 1368 <.LBB34_2+0x468>
    31f8:	007c9c93          	slli	s9,s9,0x7
    31fc:	00001537          	lui	a0,0x1
    3200:	40a40533          	sub	a0,s0,a0
    3204:	5f853783          	ld	a5,1528(a0) # 15f8 <.LBB34_3+0x154>
    3208:	00001537          	lui	a0,0x1
    320c:	40a40533          	sub	a0,s0,a0
    3210:	70053503          	ld	a0,1792(a0) # 1700 <.LBB34_3+0x25c>
    3214:	00f507b3          	add	a5,a0,a5
    3218:	ef943823          	sd	s9,-272(s0)
    321c:	019787b3          	add	a5,a5,s9
    3220:	00b787b3          	add	a5,a5,a1
    3224:	0057853b          	addw	a0,a5,t0
    3228:	400007b7          	lui	a5,0x40000
    322c:	000016b7          	lui	a3,0x1
    3230:	40d406b3          	sub	a3,s0,a3
    3234:	30a6b023          	sd	a0,768(a3) # 1300 <.LBB34_2+0x400>
    3238:	88843d03          	ld	s10,-1912(s0)
    323c:	00055463          	bgez	a0,3244 <.LBB34_34>
    3240:	c00007b7          	lui	a5,0xc0000

0000000000003244 <.LBB34_34>:
    3244:	00001537          	lui	a0,0x1
    3248:	40a40533          	sub	a0,s0,a0
    324c:	2ef53423          	sd	a5,744(a0) # 12e8 <.LBB34_2+0x3e8>
    3250:	007c1c13          	slli	s8,s8,0x7
    3254:	00001537          	lui	a0,0x1
    3258:	40a40533          	sub	a0,s0,a0
    325c:	60053783          	ld	a5,1536(a0) # 1600 <.LBB34_3+0x15c>
    3260:	00001537          	lui	a0,0x1
    3264:	40a40533          	sub	a0,s0,a0
    3268:	70853503          	ld	a0,1800(a0) # 1708 <.LBB34_3+0x264>
    326c:	00f507b3          	add	a5,a0,a5
    3270:	ef843423          	sd	s8,-280(s0)
    3274:	018787b3          	add	a5,a5,s8
    3278:	00b787b3          	add	a5,a5,a1
    327c:	0057853b          	addw	a0,a5,t0
    3280:	400007b7          	lui	a5,0x40000
    3284:	000016b7          	lui	a3,0x1
    3288:	40d406b3          	sub	a3,s0,a3
    328c:	28a6b423          	sd	a0,648(a3) # 1288 <.LBB34_2+0x388>
    3290:	93843c83          	ld	s9,-1736(s0)
    3294:	00055463          	bgez	a0,329c <.LBB34_36>
    3298:	c00007b7          	lui	a5,0xc0000

000000000000329c <.LBB34_36>:
    329c:	00001537          	lui	a0,0x1
    32a0:	40a40533          	sub	a0,s0,a0
    32a4:	26f53c23          	sd	a5,632(a0) # 1278 <.LBB34_2+0x378>
    32a8:	007b9b93          	slli	s7,s7,0x7
    32ac:	00001537          	lui	a0,0x1
    32b0:	40a40533          	sub	a0,s0,a0
    32b4:	60853783          	ld	a5,1544(a0) # 1608 <.LBB34_3+0x164>
    32b8:	00fd87b3          	add	a5,s11,a5
    32bc:	ef743023          	sd	s7,-288(s0)
    32c0:	017787b3          	add	a5,a5,s7
    32c4:	00b787b3          	add	a5,a5,a1
    32c8:	0057853b          	addw	a0,a5,t0
    32cc:	400007b7          	lui	a5,0x40000
    32d0:	000016b7          	lui	a3,0x1
    32d4:	40d406b3          	sub	a3,s0,a3
    32d8:	5786bd83          	ld	s11,1400(a3) # 1578 <.LBB34_3+0xd4>
    32dc:	000016b7          	lui	a3,0x1
    32e0:	40d406b3          	sub	a3,s0,a3
    32e4:	22a6b423          	sd	a0,552(a3) # 1228 <.LBB34_2+0x328>
    32e8:	8f843c03          	ld	s8,-1800(s0)
    32ec:	00055463          	bgez	a0,32f4 <.LBB34_38>
    32f0:	c00007b7          	lui	a5,0xc0000

00000000000032f4 <.LBB34_38>:
    32f4:	00001537          	lui	a0,0x1
    32f8:	40a40533          	sub	a0,s0,a0
    32fc:	20f53c23          	sd	a5,536(a0) # 1218 <.LBB34_2+0x318>
    3300:	007b1b13          	slli	s6,s6,0x7
    3304:	00001537          	lui	a0,0x1
    3308:	40a40533          	sub	a0,s0,a0
    330c:	61053783          	ld	a5,1552(a0) # 1610 <.LBB34_3+0x16c>
    3310:	00001537          	lui	a0,0x1
    3314:	40a40533          	sub	a0,s0,a0
    3318:	71853503          	ld	a0,1816(a0) # 1718 <.LBB34_3+0x274>
    331c:	00f507b3          	add	a5,a0,a5
    3320:	ed643c23          	sd	s6,-296(s0)
    3324:	016787b3          	add	a5,a5,s6
    3328:	00b787b3          	add	a5,a5,a1
    332c:	0057853b          	addw	a0,a5,t0
    3330:	400007b7          	lui	a5,0x40000
    3334:	000016b7          	lui	a3,0x1
    3338:	40d406b3          	sub	a3,s0,a3
    333c:	1ca6b023          	sd	a0,448(a3) # 11c0 <.LBB34_2+0x2c0>
    3340:	000016b7          	lui	a3,0x1
    3344:	40d406b3          	sub	a3,s0,a3
    3348:	7a86bb83          	ld	s7,1960(a3) # 17a8 <.LBB34_3+0x304>
    334c:	00055463          	bgez	a0,3354 <.LBB34_40>
    3350:	c00007b7          	lui	a5,0xc0000

0000000000003354 <.LBB34_40>:
    3354:	00001537          	lui	a0,0x1
    3358:	40a40533          	sub	a0,s0,a0
    335c:	1af53823          	sd	a5,432(a0) # 11b0 <.LBB34_2+0x2b0>
    3360:	007a9a93          	slli	s5,s5,0x7
    3364:	00001537          	lui	a0,0x1
    3368:	40a40533          	sub	a0,s0,a0
    336c:	61853783          	ld	a5,1560(a0) # 1618 <.LBB34_3+0x174>
    3370:	00001537          	lui	a0,0x1
    3374:	40a40533          	sub	a0,s0,a0
    3378:	72053503          	ld	a0,1824(a0) # 1720 <.LBB34_3+0x27c>
    337c:	00f507b3          	add	a5,a0,a5
    3380:	ed543823          	sd	s5,-304(s0)
    3384:	015787b3          	add	a5,a5,s5
    3388:	00b787b3          	add	a5,a5,a1
    338c:	0057853b          	addw	a0,a5,t0
    3390:	400007b7          	lui	a5,0x40000
    3394:	000016b7          	lui	a3,0x1
    3398:	40d406b3          	sub	a3,s0,a3
    339c:	5686bb03          	ld	s6,1384(a3) # 1568 <.LBB34_3+0xc4>
    33a0:	000016b7          	lui	a3,0x1
    33a4:	40d406b3          	sub	a3,s0,a3
    33a8:	1ea6b823          	sd	a0,496(a3) # 11f0 <.LBB34_2+0x2f0>
    33ac:	00055463          	bgez	a0,33b4 <.LBB34_42>
    33b0:	c00007b7          	lui	a5,0xc0000

00000000000033b4 <.LBB34_42>:
    33b4:	00001537          	lui	a0,0x1
    33b8:	40a40533          	sub	a0,s0,a0
    33bc:	14f53023          	sd	a5,320(a0) # 1140 <.LBB34_2+0x240>
    33c0:	007a1a13          	slli	s4,s4,0x7
    33c4:	00001537          	lui	a0,0x1
    33c8:	40a40533          	sub	a0,s0,a0
    33cc:	62053783          	ld	a5,1568(a0) # 1620 <.LBB34_3+0x17c>
    33d0:	00001537          	lui	a0,0x1
    33d4:	40a40533          	sub	a0,s0,a0
    33d8:	72853503          	ld	a0,1832(a0) # 1728 <.LBB34_3+0x284>
    33dc:	00f507b3          	add	a5,a0,a5
    33e0:	ed443423          	sd	s4,-312(s0)
    33e4:	014787b3          	add	a5,a5,s4
    33e8:	00b787b3          	add	a5,a5,a1
    33ec:	0057853b          	addw	a0,a5,t0
    33f0:	400007b7          	lui	a5,0x40000
    33f4:	000016b7          	lui	a3,0x1
    33f8:	40d406b3          	sub	a3,s0,a3
    33fc:	0ea6b023          	sd	a0,224(a3) # 10e0 <.LBB34_2+0x1e0>
    3400:	92843a83          	ld	s5,-1752(s0)
    3404:	00055463          	bgez	a0,340c <.LBB34_44>
    3408:	c00007b7          	lui	a5,0xc0000

000000000000340c <.LBB34_44>:
    340c:	00001537          	lui	a0,0x1
    3410:	40a40533          	sub	a0,s0,a0
    3414:	0cf53823          	sd	a5,208(a0) # 10d0 <.LBB34_2+0x1d0>
    3418:	00799993          	slli	s3,s3,0x7
    341c:	00001537          	lui	a0,0x1
    3420:	40a40533          	sub	a0,s0,a0
    3424:	62853783          	ld	a5,1576(a0) # 1628 <.LBB34_3+0x184>
    3428:	00001537          	lui	a0,0x1
    342c:	40a40533          	sub	a0,s0,a0
    3430:	73053503          	ld	a0,1840(a0) # 1730 <.LBB34_3+0x28c>
    3434:	00f507b3          	add	a5,a0,a5
    3438:	ed343023          	sd	s3,-320(s0)
    343c:	013787b3          	add	a5,a5,s3
    3440:	00b787b3          	add	a5,a5,a1
    3444:	0057853b          	addw	a0,a5,t0
    3448:	400007b7          	lui	a5,0x40000
    344c:	000016b7          	lui	a3,0x1
    3450:	40d406b3          	sub	a3,s0,a3
    3454:	5706ba03          	ld	s4,1392(a3) # 1570 <.LBB34_3+0xcc>
    3458:	000016b7          	lui	a3,0x1
    345c:	40d406b3          	sub	a3,s0,a3
    3460:	06a6b423          	sd	a0,104(a3) # 1068 <.LBB34_2+0x168>
    3464:	00055463          	bgez	a0,346c <.LBB34_46>
    3468:	c00007b7          	lui	a5,0xc0000

000000000000346c <.LBB34_46>:
    346c:	00001537          	lui	a0,0x1
    3470:	40a40533          	sub	a0,s0,a0
    3474:	04f53c23          	sd	a5,88(a0) # 1058 <.LBB34_2+0x158>
    3478:	00791913          	slli	s2,s2,0x7
    347c:	00001537          	lui	a0,0x1
    3480:	40a40533          	sub	a0,s0,a0
    3484:	63053783          	ld	a5,1584(a0) # 1630 <.LBB34_3+0x18c>
    3488:	00001537          	lui	a0,0x1
    348c:	40a40533          	sub	a0,s0,a0
    3490:	73853503          	ld	a0,1848(a0) # 1738 <.LBB34_3+0x294>
    3494:	00f507b3          	add	a5,a0,a5
    3498:	eb243c23          	sd	s2,-328(s0)
    349c:	012787b3          	add	a5,a5,s2
    34a0:	00b787b3          	add	a5,a5,a1
    34a4:	0057853b          	addw	a0,a5,t0
    34a8:	400007b7          	lui	a5,0x40000
    34ac:	000016b7          	lui	a3,0x1
    34b0:	40d406b3          	sub	a3,s0,a3
    34b4:	fea6b823          	sd	a0,-16(a3) # ff0 <.LBB34_2+0xf0>
    34b8:	000016b7          	lui	a3,0x1
    34bc:	40d406b3          	sub	a3,s0,a3
    34c0:	7986b983          	ld	s3,1944(a3) # 1798 <.LBB34_3+0x2f4>
    34c4:	00055463          	bgez	a0,34cc <.LBB34_48>
    34c8:	c00007b7          	lui	a5,0xc0000

00000000000034cc <.LBB34_48>:
    34cc:	00001537          	lui	a0,0x1
    34d0:	40a40533          	sub	a0,s0,a0
    34d4:	fef53023          	sd	a5,-32(a0) # fe0 <.LBB34_2+0xe0>
    34d8:	00749493          	slli	s1,s1,0x7
    34dc:	00001537          	lui	a0,0x1
    34e0:	40a40533          	sub	a0,s0,a0
    34e4:	74053783          	ld	a5,1856(a0) # 1740 <.LBB34_3+0x29c>
    34e8:	001787b3          	add	a5,a5,ra
    34ec:	ea943823          	sd	s1,-336(s0)
    34f0:	009787b3          	add	a5,a5,s1
    34f4:	00b787b3          	add	a5,a5,a1
    34f8:	0057853b          	addw	a0,a5,t0
    34fc:	400007b7          	lui	a5,0x40000
    3500:	000016b7          	lui	a3,0x1
    3504:	40d406b3          	sub	a3,s0,a3
    3508:	f8a6b023          	sd	a0,-128(a3) # f80 <.LBB34_2+0x80>
    350c:	000016b7          	lui	a3,0x1
    3510:	40d406b3          	sub	a3,s0,a3
    3514:	7b06b903          	ld	s2,1968(a3) # 17b0 <.LBB34_3+0x30c>
    3518:	00055463          	bgez	a0,3520 <.LBB34_50>
    351c:	c00007b7          	lui	a5,0xc0000

0000000000003520 <.LBB34_50>:
    3520:	00001537          	lui	a0,0x1
    3524:	40a40533          	sub	a0,s0,a0
    3528:	f6f53423          	sd	a5,-152(a0) # f68 <.LBB34_2+0x68>
    352c:	007f9f93          	slli	t6,t6,0x7
    3530:	00001537          	lui	a0,0x1
    3534:	40a40533          	sub	a0,s0,a0
    3538:	67853783          	ld	a5,1656(a0) # 1678 <.LBB34_3+0x1d4>
    353c:	016787b3          	add	a5,a5,s6
    3540:	ebf43423          	sd	t6,-344(s0)
    3544:	01f787b3          	add	a5,a5,t6
    3548:	00b787b3          	add	a5,a5,a1
    354c:	0057853b          	addw	a0,a5,t0
    3550:	400007b7          	lui	a5,0x40000
    3554:	000016b7          	lui	a3,0x1
    3558:	40d406b3          	sub	a3,s0,a3
    355c:	f0a6b423          	sd	a0,-248(a3) # f08 <.LBB34_2+0x8>
    3560:	000016b7          	lui	a3,0x1
    3564:	40d406b3          	sub	a3,s0,a3
    3568:	7a06b483          	ld	s1,1952(a3) # 17a0 <.LBB34_3+0x2fc>
    356c:	00055463          	bgez	a0,3574 <.LBB34_52>
    3570:	c00007b7          	lui	a5,0xc0000

0000000000003574 <.LBB34_52>:
    3574:	00001537          	lui	a0,0x1
    3578:	40a40533          	sub	a0,s0,a0
    357c:	eef53c23          	sd	a5,-264(a0) # ef8 <.LBB34_1+0xbec>
    3580:	007f1f13          	slli	t5,t5,0x7
    3584:	00001537          	lui	a0,0x1
    3588:	40a40533          	sub	a0,s0,a0
    358c:	74853783          	ld	a5,1864(a0) # 1748 <.LBB34_3+0x2a4>
    3590:	014787b3          	add	a5,a5,s4
    3594:	ebe43023          	sd	t5,-352(s0)
    3598:	01e787b3          	add	a5,a5,t5
    359c:	00b787b3          	add	a5,a5,a1
    35a0:	0057853b          	addw	a0,a5,t0
    35a4:	400007b7          	lui	a5,0x40000
    35a8:	000016b7          	lui	a3,0x1
    35ac:	40d406b3          	sub	a3,s0,a3
    35b0:	ab86bf83          	ld	t6,-1352(a3) # ab8 <.LBB34_1+0x7ac>
    35b4:	000016b7          	lui	a3,0x1
    35b8:	40d406b3          	sub	a3,s0,a3
    35bc:	e8a6b823          	sd	a0,-368(a3) # e90 <.LBB34_1+0xb84>
    35c0:	00055463          	bgez	a0,35c8 <.LBB34_54>
    35c4:	c00007b7          	lui	a5,0xc0000

00000000000035c8 <.LBB34_54>:
    35c8:	00001537          	lui	a0,0x1
    35cc:	40a40533          	sub	a0,s0,a0
    35d0:	e6f53c23          	sd	a5,-392(a0) # e78 <.LBB34_1+0xb6c>
    35d4:	007e9e93          	slli	t4,t4,0x7
    35d8:	00001537          	lui	a0,0x1
    35dc:	40a40533          	sub	a0,s0,a0
    35e0:	63853783          	ld	a5,1592(a0) # 1638 <.LBB34_3+0x194>
    35e4:	00001537          	lui	a0,0x1
    35e8:	40a40533          	sub	a0,s0,a0
    35ec:	75053503          	ld	a0,1872(a0) # 1750 <.LBB34_3+0x2ac>
    35f0:	00f507b3          	add	a5,a0,a5
    35f4:	e9d43c23          	sd	t4,-360(s0)
    35f8:	01d787b3          	add	a5,a5,t4
    35fc:	00b787b3          	add	a5,a5,a1
    3600:	0057853b          	addw	a0,a5,t0
    3604:	400007b7          	lui	a5,0x40000
    3608:	000016b7          	lui	a3,0x1
    360c:	40d406b3          	sub	a3,s0,a3
    3610:	e0a6bc23          	sd	a0,-488(a3) # e18 <.LBB34_1+0xb0c>
    3614:	8f043f03          	ld	t5,-1808(s0)
    3618:	00055463          	bgez	a0,3620 <.LBB34_56>
    361c:	c00007b7          	lui	a5,0xc0000

0000000000003620 <.LBB34_56>:
    3620:	00001537          	lui	a0,0x1
    3624:	40a40533          	sub	a0,s0,a0
    3628:	e0f53423          	sd	a5,-504(a0) # e08 <.LBB34_1+0xafc>
    362c:	007e1e13          	slli	t3,t3,0x7
    3630:	00001537          	lui	a0,0x1
    3634:	40a40533          	sub	a0,s0,a0
    3638:	64053783          	ld	a5,1600(a0) # 1640 <.LBB34_3+0x19c>
    363c:	00001537          	lui	a0,0x1
    3640:	40a40533          	sub	a0,s0,a0
    3644:	75853503          	ld	a0,1880(a0) # 1758 <.LBB34_3+0x2b4>
    3648:	00f507b3          	add	a5,a0,a5
    364c:	e9c43823          	sd	t3,-368(s0)
    3650:	01c787b3          	add	a5,a5,t3
    3654:	00b787b3          	add	a5,a5,a1
    3658:	0057853b          	addw	a0,a5,t0
    365c:	400007b7          	lui	a5,0x40000
    3660:	000016b7          	lui	a3,0x1
    3664:	40d406b3          	sub	a3,s0,a3
    3668:	daa6b423          	sd	a0,-600(a3) # da8 <.LBB34_1+0xa9c>
    366c:	000016b7          	lui	a3,0x1
    3670:	40d406b3          	sub	a3,s0,a3
    3674:	7c06be83          	ld	t4,1984(a3) # 17c0 <.LBB34_3+0x31c>
    3678:	00055463          	bgez	a0,3680 <.LBB34_58>
    367c:	c00007b7          	lui	a5,0xc0000

0000000000003680 <.LBB34_58>:
    3680:	00001537          	lui	a0,0x1
    3684:	40a40533          	sub	a0,s0,a0
    3688:	d8f53c23          	sd	a5,-616(a0) # d98 <.LBB34_1+0xa8c>
    368c:	00739393          	slli	t2,t2,0x7
    3690:	00001537          	lui	a0,0x1
    3694:	40a40533          	sub	a0,s0,a0
    3698:	64853783          	ld	a5,1608(a0) # 1648 <.LBB34_3+0x1a4>
    369c:	00001537          	lui	a0,0x1
    36a0:	40a40533          	sub	a0,s0,a0
    36a4:	76053503          	ld	a0,1888(a0) # 1760 <.LBB34_3+0x2bc>
    36a8:	00f507b3          	add	a5,a0,a5
    36ac:	e8743423          	sd	t2,-376(s0)
    36b0:	007787b3          	add	a5,a5,t2
    36b4:	00b787b3          	add	a5,a5,a1
    36b8:	0057853b          	addw	a0,a5,t0
    36bc:	400007b7          	lui	a5,0x40000
    36c0:	000016b7          	lui	a3,0x1
    36c4:	40d406b3          	sub	a3,s0,a3
    36c8:	ac06be03          	ld	t3,-1344(a3) # ac0 <.LBB34_1+0x7b4>
    36cc:	000016b7          	lui	a3,0x1
    36d0:	40d406b3          	sub	a3,s0,a3
    36d4:	d2a6b423          	sd	a0,-728(a3) # d28 <.LBB34_1+0xa1c>
    36d8:	00055463          	bgez	a0,36e0 <.LBB34_60>
    36dc:	c00007b7          	lui	a5,0xc0000

00000000000036e0 <.LBB34_60>:
    36e0:	00001537          	lui	a0,0x1
    36e4:	40a40533          	sub	a0,s0,a0
    36e8:	d2f53023          	sd	a5,-736(a0) # d20 <.LBB34_1+0xa14>
    36ec:	00731313          	slli	t1,t1,0x7
    36f0:	00001537          	lui	a0,0x1
    36f4:	40a40533          	sub	a0,s0,a0
    36f8:	65053783          	ld	a5,1616(a0) # 1650 <.LBB34_3+0x1ac>
    36fc:	00001537          	lui	a0,0x1
    3700:	40a40533          	sub	a0,s0,a0
    3704:	76853503          	ld	a0,1896(a0) # 1768 <.LBB34_3+0x2c4>
    3708:	00f507b3          	add	a5,a0,a5
    370c:	e8643023          	sd	t1,-384(s0)
    3710:	006787b3          	add	a5,a5,t1
    3714:	00b787b3          	add	a5,a5,a1
    3718:	0057853b          	addw	a0,a5,t0
    371c:	400007b7          	lui	a5,0x40000
    3720:	8e043383          	ld	t2,-1824(s0)
    3724:	000016b7          	lui	a3,0x1
    3728:	40d406b3          	sub	a3,s0,a3
    372c:	caa6b823          	sd	a0,-848(a3) # cb0 <.LBB34_1+0x9a4>
    3730:	00055463          	bgez	a0,3738 <.LBB34_62>
    3734:	c00007b7          	lui	a5,0xc0000

0000000000003738 <.LBB34_62>:
    3738:	00001537          	lui	a0,0x1
    373c:	40a40533          	sub	a0,s0,a0
    3740:	caf53423          	sd	a5,-856(a0) # ca8 <.LBB34_1+0x99c>
    3744:	00781813          	slli	a6,a6,0x7
    3748:	00001537          	lui	a0,0x1
    374c:	40a40533          	sub	a0,s0,a0
    3750:	77053783          	ld	a5,1904(a0) # 1770 <.LBB34_3+0x2cc>
    3754:	01f787b3          	add	a5,a5,t6
    3758:	e7043c23          	sd	a6,-392(s0)
    375c:	010787b3          	add	a5,a5,a6
    3760:	00b787b3          	add	a5,a5,a1
    3764:	0057853b          	addw	a0,a5,t0
    3768:	400007b7          	lui	a5,0x40000
    376c:	000016b7          	lui	a3,0x1
    3770:	40d406b3          	sub	a3,s0,a3
    3774:	c4a6b023          	sd	a0,-960(a3) # c40 <.LBB34_1+0x934>
    3778:	000016b7          	lui	a3,0x1
    377c:	40d406b3          	sub	a3,s0,a3
    3780:	7b86b303          	ld	t1,1976(a3) # 17b8 <.LBB34_3+0x314>
    3784:	00055463          	bgez	a0,378c <.LBB34_64>
    3788:	c00007b7          	lui	a5,0xc0000

000000000000378c <.LBB34_64>:
    378c:	00001537          	lui	a0,0x1
    3790:	40a40533          	sub	a0,s0,a0
    3794:	c2f53c23          	sd	a5,-968(a0) # c38 <.LBB34_1+0x92c>
    3798:	00771513          	slli	a0,a4,0x7
    379c:	000016b7          	lui	a3,0x1
    37a0:	40d406b3          	sub	a3,s0,a3
    37a4:	7786b703          	ld	a4,1912(a3) # 1778 <.LBB34_3+0x2d4>
    37a8:	01c70733          	add	a4,a4,t3
    37ac:	e6a43823          	sd	a0,-400(s0)
    37b0:	00a70733          	add	a4,a4,a0
    37b4:	00b70733          	add	a4,a4,a1
    37b8:	0057053b          	addw	a0,a4,t0
    37bc:	40000737          	lui	a4,0x40000
    37c0:	8d843783          	ld	a5,-1832(s0)
    37c4:	000016b7          	lui	a3,0x1
    37c8:	40d406b3          	sub	a3,s0,a3
    37cc:	bea6b023          	sd	a0,-1056(a3) # be0 <.LBB34_1+0x8d4>
    37d0:	000016b7          	lui	a3,0x1
    37d4:	40d406b3          	sub	a3,s0,a3
    37d8:	7886b803          	ld	a6,1928(a3) # 1788 <.LBB34_3+0x2e4>
    37dc:	00055463          	bgez	a0,37e4 <.LBB34_66>
    37e0:	c0000737          	lui	a4,0xc0000

00000000000037e4 <.LBB34_66>:
    37e4:	00001537          	lui	a0,0x1
    37e8:	40a40533          	sub	a0,s0,a0
    37ec:	bce53c23          	sd	a4,-1064(a0) # bd8 <.LBB34_1+0x8cc>
    37f0:	e6843503          	ld	a0,-408(s0)
    37f4:	00751513          	slli	a0,a0,0x7
    37f8:	000016b7          	lui	a3,0x1
    37fc:	40d406b3          	sub	a3,s0,a3
    3800:	7806b683          	ld	a3,1920(a3) # 1780 <.LBB34_3+0x2dc>
    3804:	01b686b3          	add	a3,a3,s11
    3808:	e6a43423          	sd	a0,-408(s0)
    380c:	00a686b3          	add	a3,a3,a0
    3810:	00b685b3          	add	a1,a3,a1
    3814:	0055853b          	addw	a0,a1,t0
    3818:	400005b7          	lui	a1,0x40000
    381c:	90843703          	ld	a4,-1784(s0)
    3820:	000016b7          	lui	a3,0x1
    3824:	40d406b3          	sub	a3,s0,a3
    3828:	b6a6bc23          	sd	a0,-1160(a3) # b78 <.LBB34_1+0x86c>
    382c:	00055463          	bgez	a0,3834 <.LBB34_68>
    3830:	c00005b7          	lui	a1,0xc0000

0000000000003834 <.LBB34_68>:
    3834:	00001537          	lui	a0,0x1
    3838:	40a40533          	sub	a0,s0,a0
    383c:	b6b53423          	sd	a1,-1176(a0) # b68 <.LBB34_1+0x85c>
    3840:	00001537          	lui	a0,0x1
    3844:	40a40533          	sub	a0,s0,a0
    3848:	4f153823          	sd	a7,1264(a0) # 14f0 <.LBB34_3+0x4c>
    384c:	00461593          	slli	a1,a2,0x4
    3850:	00c585b3          	add	a1,a1,a2
    3854:	00001537          	lui	a0,0x1
    3858:	40a40533          	sub	a0,s0,a0
    385c:	5a053603          	ld	a2,1440(a0) # 15a0 <.LBB34_3+0xfc>
    3860:	00c80633          	add	a2,a6,a2
    3864:	f8843503          	ld	a0,-120(s0)
    3868:	00a60633          	add	a2,a2,a0
    386c:	00b60633          	add	a2,a2,a1
    3870:	0056063b          	addw	a2,a2,t0
    3874:	40000837          	lui	a6,0x40000
    3878:	00001537          	lui	a0,0x1
    387c:	40a40533          	sub	a0,s0,a0
    3880:	78c53423          	sd	a2,1928(a0) # 1788 <.LBB34_3+0x2e4>
    3884:	89043683          	ld	a3,-1904(s0)
    3888:	00065463          	bgez	a2,3890 <.LBB34_70>
    388c:	c0000837          	lui	a6,0xc0000

0000000000003890 <.LBB34_70>:
    3890:	00001537          	lui	a0,0x1
    3894:	40a40533          	sub	a0,s0,a0
    3898:	59853603          	ld	a2,1432(a0) # 1598 <.LBB34_3+0xf4>
    389c:	00001537          	lui	a0,0x1
    38a0:	40a40533          	sub	a0,s0,a0
    38a4:	79053503          	ld	a0,1936(a0) # 1790 <.LBB34_3+0x2ec>
    38a8:	00c50633          	add	a2,a0,a2
    38ac:	f8043503          	ld	a0,-128(s0)
    38b0:	00a60633          	add	a2,a2,a0
    38b4:	00b60633          	add	a2,a2,a1
    38b8:	0056063b          	addw	a2,a2,t0
    38bc:	400008b7          	lui	a7,0x40000
    38c0:	00001537          	lui	a0,0x1
    38c4:	40a40533          	sub	a0,s0,a0
    38c8:	78c53823          	sd	a2,1936(a0) # 1790 <.LBB34_3+0x2ec>
    38cc:	00065463          	bgez	a2,38d4 <.LBB34_72>
    38d0:	c00008b7          	lui	a7,0xc0000

00000000000038d4 <.LBB34_72>:
    38d4:	00001537          	lui	a0,0x1
    38d8:	40a40533          	sub	a0,s0,a0
    38dc:	59053603          	ld	a2,1424(a0) # 1590 <.LBB34_3+0xec>
    38e0:	00c98633          	add	a2,s3,a2
    38e4:	f7843503          	ld	a0,-136(s0)
    38e8:	00a60633          	add	a2,a2,a0
    38ec:	00b60633          	add	a2,a2,a1
    38f0:	0056063b          	addw	a2,a2,t0
    38f4:	400009b7          	lui	s3,0x40000
    38f8:	00001537          	lui	a0,0x1
    38fc:	40a40533          	sub	a0,s0,a0
    3900:	78c53c23          	sd	a2,1944(a0) # 1798 <.LBB34_3+0x2f4>
    3904:	00065463          	bgez	a2,390c <.LBB34_74>
    3908:	c00009b7          	lui	s3,0xc0000

000000000000390c <.LBB34_74>:
    390c:	00001537          	lui	a0,0x1
    3910:	40a40533          	sub	a0,s0,a0
    3914:	58853603          	ld	a2,1416(a0) # 1588 <.LBB34_3+0xe4>
    3918:	00c48633          	add	a2,s1,a2
    391c:	f7043503          	ld	a0,-144(s0)
    3920:	00a60633          	add	a2,a2,a0
    3924:	00b60633          	add	a2,a2,a1
    3928:	0056063b          	addw	a2,a2,t0
    392c:	400004b7          	lui	s1,0x40000
    3930:	00001537          	lui	a0,0x1
    3934:	40a40533          	sub	a0,s0,a0
    3938:	7ac53023          	sd	a2,1952(a0) # 17a0 <.LBB34_3+0x2fc>
    393c:	00065463          	bgez	a2,3944 <.LBB34_76>
    3940:	c00004b7          	lui	s1,0xc0000

0000000000003944 <.LBB34_76>:
    3944:	00001537          	lui	a0,0x1
    3948:	40a40533          	sub	a0,s0,a0
    394c:	5a853603          	ld	a2,1448(a0) # 15a8 <.LBB34_3+0x104>
    3950:	00cb8633          	add	a2,s7,a2
    3954:	f6843503          	ld	a0,-152(s0)
    3958:	00a60633          	add	a2,a2,a0
    395c:	00b60633          	add	a2,a2,a1
    3960:	0056063b          	addw	a2,a2,t0
    3964:	40000bb7          	lui	s7,0x40000
    3968:	00001537          	lui	a0,0x1
    396c:	40a40533          	sub	a0,s0,a0
    3970:	7ac53423          	sd	a2,1960(a0) # 17a8 <.LBB34_3+0x304>
    3974:	00065463          	bgez	a2,397c <.LBB34_78>
    3978:	c0000bb7          	lui	s7,0xc0000

000000000000397c <.LBB34_78>:
    397c:	00001537          	lui	a0,0x1
    3980:	40a40533          	sub	a0,s0,a0
    3984:	5b053603          	ld	a2,1456(a0) # 15b0 <.LBB34_3+0x10c>
    3988:	00c90633          	add	a2,s2,a2
    398c:	f6043503          	ld	a0,-160(s0)
    3990:	00a60633          	add	a2,a2,a0
    3994:	00b60633          	add	a2,a2,a1
    3998:	0056063b          	addw	a2,a2,t0
    399c:	40000937          	lui	s2,0x40000
    39a0:	00001537          	lui	a0,0x1
    39a4:	40a40533          	sub	a0,s0,a0
    39a8:	7ac53823          	sd	a2,1968(a0) # 17b0 <.LBB34_3+0x30c>
    39ac:	00065463          	bgez	a2,39b4 <.LBB34_80>
    39b0:	c0000937          	lui	s2,0xc0000

00000000000039b4 <.LBB34_80>:
    39b4:	00001537          	lui	a0,0x1
    39b8:	40a40533          	sub	a0,s0,a0
    39bc:	5b853603          	ld	a2,1464(a0) # 15b8 <.LBB34_3+0x114>
    39c0:	00c30633          	add	a2,t1,a2
    39c4:	f5843503          	ld	a0,-168(s0)
    39c8:	00a60633          	add	a2,a2,a0
    39cc:	00b60633          	add	a2,a2,a1
    39d0:	0056063b          	addw	a2,a2,t0
    39d4:	40000337          	lui	t1,0x40000
    39d8:	00001537          	lui	a0,0x1
    39dc:	40a40533          	sub	a0,s0,a0
    39e0:	74c53423          	sd	a2,1864(a0) # 1748 <.LBB34_3+0x2a4>
    39e4:	00065463          	bgez	a2,39ec <.LBB34_82>
    39e8:	c0000337          	lui	t1,0xc0000

00000000000039ec <.LBB34_82>:
    39ec:	00001537          	lui	a0,0x1
    39f0:	40a40533          	sub	a0,s0,a0
    39f4:	5c053603          	ld	a2,1472(a0) # 15c0 <.LBB34_3+0x11c>
    39f8:	00ce8633          	add	a2,t4,a2
    39fc:	f5043503          	ld	a0,-176(s0)
    3a00:	00a60633          	add	a2,a2,a0
    3a04:	00b60633          	add	a2,a2,a1
    3a08:	0056063b          	addw	a2,a2,t0
    3a0c:	40000eb7          	lui	t4,0x40000
    3a10:	00001537          	lui	a0,0x1
    3a14:	40a40533          	sub	a0,s0,a0
    3a18:	6ec53c23          	sd	a2,1784(a0) # 16f8 <.LBB34_3+0x254>
    3a1c:	00065463          	bgez	a2,3a24 <.LBB34_84>
    3a20:	c0000eb7          	lui	t4,0xc0000

0000000000003a24 <.LBB34_84>:
    3a24:	f8d43823          	sd	a3,-112(s0)
    3a28:	00001537          	lui	a0,0x1
    3a2c:	40a40533          	sub	a0,s0,a0
    3a30:	5c853603          	ld	a2,1480(a0) # 15c8 <.LBB34_3+0x124>
    3a34:	00001537          	lui	a0,0x1
    3a38:	40a40533          	sub	a0,s0,a0
    3a3c:	7c853503          	ld	a0,1992(a0) # 17c8 <.LBB34_3+0x324>
    3a40:	00c50633          	add	a2,a0,a2
    3a44:	f4843503          	ld	a0,-184(s0)
    3a48:	00a60633          	add	a2,a2,a0
    3a4c:	00b60633          	add	a2,a2,a1
    3a50:	0056053b          	addw	a0,a2,t0
    3a54:	40000637          	lui	a2,0x40000
    3a58:	000016b7          	lui	a3,0x1
    3a5c:	40d406b3          	sub	a3,s0,a3
    3a60:	4ea6b423          	sd	a0,1256(a3) # 14e8 <.LBB34_3+0x44>
    3a64:	f9043683          	ld	a3,-112(s0)
    3a68:	00055463          	bgez	a0,3a70 <.LBB34_86>
    3a6c:	c0000637          	lui	a2,0xc0000

0000000000003a70 <.LBB34_86>:
    3a70:	f8d43823          	sd	a3,-112(s0)
    3a74:	00001537          	lui	a0,0x1
    3a78:	40a40533          	sub	a0,s0,a0
    3a7c:	4ec53023          	sd	a2,1248(a0) # 14e0 <.LBB34_3+0x3c>
    3a80:	00001537          	lui	a0,0x1
    3a84:	40a40533          	sub	a0,s0,a0
    3a88:	5d053603          	ld	a2,1488(a0) # 15d0 <.LBB34_3+0x12c>
    3a8c:	00001537          	lui	a0,0x1
    3a90:	40a40533          	sub	a0,s0,a0
    3a94:	7d053503          	ld	a0,2000(a0) # 17d0 <.LBB34_3+0x32c>
    3a98:	00c50633          	add	a2,a0,a2
    3a9c:	f4043503          	ld	a0,-192(s0)
    3aa0:	00a60633          	add	a2,a2,a0
    3aa4:	00b60633          	add	a2,a2,a1
    3aa8:	0056053b          	addw	a0,a2,t0
    3aac:	40000637          	lui	a2,0x40000
    3ab0:	000016b7          	lui	a3,0x1
    3ab4:	40d406b3          	sub	a3,s0,a3
    3ab8:	48a6b423          	sd	a0,1160(a3) # 1488 <.LBB34_2+0x588>
    3abc:	f9043683          	ld	a3,-112(s0)
    3ac0:	00055463          	bgez	a0,3ac8 <.LBB34_88>
    3ac4:	c0000637          	lui	a2,0xc0000

0000000000003ac8 <.LBB34_88>:
    3ac8:	f8d43823          	sd	a3,-112(s0)
    3acc:	00001537          	lui	a0,0x1
    3ad0:	40a40533          	sub	a0,s0,a0
    3ad4:	48c53023          	sd	a2,1152(a0) # 1480 <.LBB34_2+0x580>
    3ad8:	00001537          	lui	a0,0x1
    3adc:	40a40533          	sub	a0,s0,a0
    3ae0:	5d853603          	ld	a2,1496(a0) # 15d8 <.LBB34_3+0x134>
    3ae4:	00001537          	lui	a0,0x1
    3ae8:	40a40533          	sub	a0,s0,a0
    3aec:	7d853503          	ld	a0,2008(a0) # 17d8 <.LBB34_3+0x334>
    3af0:	00c50633          	add	a2,a0,a2
    3af4:	f1043503          	ld	a0,-240(s0)
    3af8:	00a60633          	add	a2,a2,a0
    3afc:	00b60633          	add	a2,a2,a1
    3b00:	0056053b          	addw	a0,a2,t0
    3b04:	40000637          	lui	a2,0x40000
    3b08:	000016b7          	lui	a3,0x1
    3b0c:	40d406b3          	sub	a3,s0,a3
    3b10:	42a6b023          	sd	a0,1056(a3) # 1420 <.LBB34_2+0x520>
    3b14:	f9043683          	ld	a3,-112(s0)
    3b18:	00055463          	bgez	a0,3b20 <.LBB34_90>
    3b1c:	c0000637          	lui	a2,0xc0000

0000000000003b20 <.LBB34_90>:
    3b20:	f8d43823          	sd	a3,-112(s0)
    3b24:	00001537          	lui	a0,0x1
    3b28:	40a40533          	sub	a0,s0,a0
    3b2c:	40c53c23          	sd	a2,1048(a0) # 1418 <.LBB34_2+0x518>
    3b30:	00001537          	lui	a0,0x1
    3b34:	40a40533          	sub	a0,s0,a0
    3b38:	5e053603          	ld	a2,1504(a0) # 15e0 <.LBB34_3+0x13c>
    3b3c:	00001537          	lui	a0,0x1
    3b40:	40a40533          	sub	a0,s0,a0
    3b44:	7e053503          	ld	a0,2016(a0) # 17e0 <.LBB34_3+0x33c>
    3b48:	00c50633          	add	a2,a0,a2
    3b4c:	f0843503          	ld	a0,-248(s0)
    3b50:	00a60633          	add	a2,a2,a0
    3b54:	00b60633          	add	a2,a2,a1
    3b58:	0056053b          	addw	a0,a2,t0
    3b5c:	40000637          	lui	a2,0x40000
    3b60:	000016b7          	lui	a3,0x1
    3b64:	40d406b3          	sub	a3,s0,a3
    3b68:	3ca6b423          	sd	a0,968(a3) # 13c8 <.LBB34_2+0x4c8>
    3b6c:	f9043683          	ld	a3,-112(s0)
    3b70:	00055463          	bgez	a0,3b78 <.LBB34_92>
    3b74:	c0000637          	lui	a2,0xc0000

0000000000003b78 <.LBB34_92>:
    3b78:	f8d43823          	sd	a3,-112(s0)
    3b7c:	00001537          	lui	a0,0x1
    3b80:	40a40533          	sub	a0,s0,a0
    3b84:	3ac53c23          	sd	a2,952(a0) # 13b8 <.LBB34_2+0x4b8>
    3b88:	00001537          	lui	a0,0x1
    3b8c:	40a40533          	sub	a0,s0,a0
    3b90:	5e853603          	ld	a2,1512(a0) # 15e8 <.LBB34_3+0x144>
    3b94:	00001537          	lui	a0,0x1
    3b98:	40a40533          	sub	a0,s0,a0
    3b9c:	7e853503          	ld	a0,2024(a0) # 17e8 <.LBB34_3+0x344>
    3ba0:	00c50633          	add	a2,a0,a2
    3ba4:	f0043503          	ld	a0,-256(s0)
    3ba8:	00a60633          	add	a2,a2,a0
    3bac:	00b60633          	add	a2,a2,a1
    3bb0:	0056053b          	addw	a0,a2,t0
    3bb4:	40000637          	lui	a2,0x40000
    3bb8:	000016b7          	lui	a3,0x1
    3bbc:	40d406b3          	sub	a3,s0,a3
    3bc0:	36a6b823          	sd	a0,880(a3) # 1370 <.LBB34_2+0x470>
    3bc4:	f9043683          	ld	a3,-112(s0)
    3bc8:	00055463          	bgez	a0,3bd0 <.LBB34_94>
    3bcc:	c0000637          	lui	a2,0xc0000

0000000000003bd0 <.LBB34_94>:
    3bd0:	f8d43823          	sd	a3,-112(s0)
    3bd4:	00001537          	lui	a0,0x1
    3bd8:	40a40533          	sub	a0,s0,a0
    3bdc:	36c53023          	sd	a2,864(a0) # 1360 <.LBB34_2+0x460>
    3be0:	00001537          	lui	a0,0x1
    3be4:	40a40533          	sub	a0,s0,a0
    3be8:	5f053603          	ld	a2,1520(a0) # 15f0 <.LBB34_3+0x14c>
    3bec:	00001537          	lui	a0,0x1
    3bf0:	40a40533          	sub	a0,s0,a0
    3bf4:	7f053503          	ld	a0,2032(a0) # 17f0 <.LBB34_3+0x34c>
    3bf8:	00c50633          	add	a2,a0,a2
    3bfc:	ef843503          	ld	a0,-264(s0)
    3c00:	00a60633          	add	a2,a2,a0
    3c04:	00b60633          	add	a2,a2,a1
    3c08:	0056053b          	addw	a0,a2,t0
    3c0c:	40000637          	lui	a2,0x40000
    3c10:	000016b7          	lui	a3,0x1
    3c14:	40d406b3          	sub	a3,s0,a3
    3c18:	30a6b423          	sd	a0,776(a3) # 1308 <.LBB34_2+0x408>
    3c1c:	f9043683          	ld	a3,-112(s0)
    3c20:	00055463          	bgez	a0,3c28 <.LBB34_96>
    3c24:	c0000637          	lui	a2,0xc0000

0000000000003c28 <.LBB34_96>:
    3c28:	f8d43823          	sd	a3,-112(s0)
    3c2c:	00001537          	lui	a0,0x1
    3c30:	40a40533          	sub	a0,s0,a0
    3c34:	2ec53c23          	sd	a2,760(a0) # 12f8 <.LBB34_2+0x3f8>
    3c38:	00001537          	lui	a0,0x1
    3c3c:	40a40533          	sub	a0,s0,a0
    3c40:	5f853603          	ld	a2,1528(a0) # 15f8 <.LBB34_3+0x154>
    3c44:	00001537          	lui	a0,0x1
    3c48:	40a40533          	sub	a0,s0,a0
    3c4c:	7f853503          	ld	a0,2040(a0) # 17f8 <.LBB34_3+0x354>
    3c50:	00c50633          	add	a2,a0,a2
    3c54:	ef043503          	ld	a0,-272(s0)
    3c58:	00a60633          	add	a2,a2,a0
    3c5c:	00b60633          	add	a2,a2,a1
    3c60:	0056053b          	addw	a0,a2,t0
    3c64:	40000637          	lui	a2,0x40000
    3c68:	000016b7          	lui	a3,0x1
    3c6c:	40d406b3          	sub	a3,s0,a3
    3c70:	28a6bc23          	sd	a0,664(a3) # 1298 <.LBB34_2+0x398>
    3c74:	f9043683          	ld	a3,-112(s0)
    3c78:	00055463          	bgez	a0,3c80 <.LBB34_98>
    3c7c:	c0000637          	lui	a2,0xc0000

0000000000003c80 <.LBB34_98>:
    3c80:	f8d43823          	sd	a3,-112(s0)
    3c84:	00001537          	lui	a0,0x1
    3c88:	40a40533          	sub	a0,s0,a0
    3c8c:	28c53823          	sd	a2,656(a0) # 1290 <.LBB34_2+0x390>
    3c90:	00001537          	lui	a0,0x1
    3c94:	40a40533          	sub	a0,s0,a0
    3c98:	60053603          	ld	a2,1536(a0) # 1600 <.LBB34_3+0x15c>
    3c9c:	80043503          	ld	a0,-2048(s0)
    3ca0:	00c50633          	add	a2,a0,a2
    3ca4:	ee843503          	ld	a0,-280(s0)
    3ca8:	00a60633          	add	a2,a2,a0
    3cac:	00b60633          	add	a2,a2,a1
    3cb0:	0056053b          	addw	a0,a2,t0
    3cb4:	40000637          	lui	a2,0x40000
    3cb8:	000016b7          	lui	a3,0x1
    3cbc:	40d406b3          	sub	a3,s0,a3
    3cc0:	24a6b023          	sd	a0,576(a3) # 1240 <.LBB34_2+0x340>
    3cc4:	f9043683          	ld	a3,-112(s0)
    3cc8:	00055463          	bgez	a0,3cd0 <.LBB34_100>
    3ccc:	c0000637          	lui	a2,0xc0000

0000000000003cd0 <.LBB34_100>:
    3cd0:	f8d43823          	sd	a3,-112(s0)
    3cd4:	00001537          	lui	a0,0x1
    3cd8:	40a40533          	sub	a0,s0,a0
    3cdc:	22c53c23          	sd	a2,568(a0) # 1238 <.LBB34_2+0x338>
    3ce0:	00001537          	lui	a0,0x1
    3ce4:	40a40533          	sub	a0,s0,a0
    3ce8:	60853603          	ld	a2,1544(a0) # 1608 <.LBB34_3+0x164>
    3cec:	80843503          	ld	a0,-2040(s0)
    3cf0:	00c50633          	add	a2,a0,a2
    3cf4:	ee043503          	ld	a0,-288(s0)
    3cf8:	00a60633          	add	a2,a2,a0
    3cfc:	00b60633          	add	a2,a2,a1
    3d00:	0056053b          	addw	a0,a2,t0
    3d04:	40000637          	lui	a2,0x40000
    3d08:	000016b7          	lui	a3,0x1
    3d0c:	40d406b3          	sub	a3,s0,a3
    3d10:	1ca6bc23          	sd	a0,472(a3) # 11d8 <.LBB34_2+0x2d8>
    3d14:	f9043683          	ld	a3,-112(s0)
    3d18:	00055463          	bgez	a0,3d20 <.LBB34_102>
    3d1c:	c0000637          	lui	a2,0xc0000

0000000000003d20 <.LBB34_102>:
    3d20:	f8d43823          	sd	a3,-112(s0)
    3d24:	00001537          	lui	a0,0x1
    3d28:	40a40533          	sub	a0,s0,a0
    3d2c:	1cc53823          	sd	a2,464(a0) # 11d0 <.LBB34_2+0x2d0>
    3d30:	00001537          	lui	a0,0x1
    3d34:	40a40533          	sub	a0,s0,a0
    3d38:	61053603          	ld	a2,1552(a0) # 1610 <.LBB34_3+0x16c>
    3d3c:	81043503          	ld	a0,-2032(s0)
    3d40:	00c50633          	add	a2,a0,a2
    3d44:	ed843503          	ld	a0,-296(s0)
    3d48:	00a60633          	add	a2,a2,a0
    3d4c:	00b60633          	add	a2,a2,a1
    3d50:	0056053b          	addw	a0,a2,t0
    3d54:	40000637          	lui	a2,0x40000
    3d58:	000016b7          	lui	a3,0x1
    3d5c:	40d406b3          	sub	a3,s0,a3
    3d60:	16a6b823          	sd	a0,368(a3) # 1170 <.LBB34_2+0x270>
    3d64:	f9043683          	ld	a3,-112(s0)
    3d68:	00055463          	bgez	a0,3d70 <.LBB34_104>
    3d6c:	c0000637          	lui	a2,0xc0000

0000000000003d70 <.LBB34_104>:
    3d70:	f8d43823          	sd	a3,-112(s0)
    3d74:	00001537          	lui	a0,0x1
    3d78:	40a40533          	sub	a0,s0,a0
    3d7c:	16c53423          	sd	a2,360(a0) # 1168 <.LBB34_2+0x268>
    3d80:	00001537          	lui	a0,0x1
    3d84:	40a40533          	sub	a0,s0,a0
    3d88:	61853603          	ld	a2,1560(a0) # 1618 <.LBB34_3+0x174>
    3d8c:	81843503          	ld	a0,-2024(s0)
    3d90:	00c50633          	add	a2,a0,a2
    3d94:	ed043503          	ld	a0,-304(s0)
    3d98:	00a60633          	add	a2,a2,a0
    3d9c:	00b60633          	add	a2,a2,a1
    3da0:	0056053b          	addw	a0,a2,t0
    3da4:	40000637          	lui	a2,0x40000
    3da8:	000016b7          	lui	a3,0x1
    3dac:	40d406b3          	sub	a3,s0,a3
    3db0:	10a6b423          	sd	a0,264(a3) # 1108 <.LBB34_2+0x208>
    3db4:	f9043683          	ld	a3,-112(s0)
    3db8:	00055463          	bgez	a0,3dc0 <.LBB34_106>
    3dbc:	c0000637          	lui	a2,0xc0000

0000000000003dc0 <.LBB34_106>:
    3dc0:	f8d43823          	sd	a3,-112(s0)
    3dc4:	00001537          	lui	a0,0x1
    3dc8:	40a40533          	sub	a0,s0,a0
    3dcc:	10c53023          	sd	a2,256(a0) # 1100 <.LBB34_2+0x200>
    3dd0:	00001537          	lui	a0,0x1
    3dd4:	40a40533          	sub	a0,s0,a0
    3dd8:	62053603          	ld	a2,1568(a0) # 1620 <.LBB34_3+0x17c>
    3ddc:	82043503          	ld	a0,-2016(s0)
    3de0:	00c50633          	add	a2,a0,a2
    3de4:	ec843503          	ld	a0,-312(s0)
    3de8:	00a60633          	add	a2,a2,a0
    3dec:	00b60633          	add	a2,a2,a1
    3df0:	0056053b          	addw	a0,a2,t0
    3df4:	40000637          	lui	a2,0x40000
    3df8:	000016b7          	lui	a3,0x1
    3dfc:	40d406b3          	sub	a3,s0,a3
    3e00:	08a6b823          	sd	a0,144(a3) # 1090 <.LBB34_2+0x190>
    3e04:	f9043683          	ld	a3,-112(s0)
    3e08:	00055463          	bgez	a0,3e10 <.LBB34_108>
    3e0c:	c0000637          	lui	a2,0xc0000

0000000000003e10 <.LBB34_108>:
    3e10:	f8d43823          	sd	a3,-112(s0)
    3e14:	00001537          	lui	a0,0x1
    3e18:	40a40533          	sub	a0,s0,a0
    3e1c:	08c53423          	sd	a2,136(a0) # 1088 <.LBB34_2+0x188>
    3e20:	00001537          	lui	a0,0x1
    3e24:	40a40533          	sub	a0,s0,a0
    3e28:	62853603          	ld	a2,1576(a0) # 1628 <.LBB34_3+0x184>
    3e2c:	82843503          	ld	a0,-2008(s0)
    3e30:	00c50633          	add	a2,a0,a2
    3e34:	ec043503          	ld	a0,-320(s0)
    3e38:	00a60633          	add	a2,a2,a0
    3e3c:	00b60633          	add	a2,a2,a1
    3e40:	0056053b          	addw	a0,a2,t0
    3e44:	40000637          	lui	a2,0x40000
    3e48:	000016b7          	lui	a3,0x1
    3e4c:	40d406b3          	sub	a3,s0,a3
    3e50:	02a6b423          	sd	a0,40(a3) # 1028 <.LBB34_2+0x128>
    3e54:	f9043683          	ld	a3,-112(s0)
    3e58:	00055463          	bgez	a0,3e60 <.LBB34_110>
    3e5c:	c0000637          	lui	a2,0xc0000

0000000000003e60 <.LBB34_110>:
    3e60:	f8d43823          	sd	a3,-112(s0)
    3e64:	00001537          	lui	a0,0x1
    3e68:	40a40533          	sub	a0,s0,a0
    3e6c:	02c53023          	sd	a2,32(a0) # 1020 <.LBB34_2+0x120>
    3e70:	00001537          	lui	a0,0x1
    3e74:	40a40533          	sub	a0,s0,a0
    3e78:	63053603          	ld	a2,1584(a0) # 1630 <.LBB34_3+0x18c>
    3e7c:	83043503          	ld	a0,-2000(s0)
    3e80:	00c50633          	add	a2,a0,a2
    3e84:	eb843503          	ld	a0,-328(s0)
    3e88:	00a60633          	add	a2,a2,a0
    3e8c:	00b60633          	add	a2,a2,a1
    3e90:	0056053b          	addw	a0,a2,t0
    3e94:	40000637          	lui	a2,0x40000
    3e98:	000016b7          	lui	a3,0x1
    3e9c:	40d406b3          	sub	a3,s0,a3
    3ea0:	faa6b823          	sd	a0,-80(a3) # fb0 <.LBB34_2+0xb0>
    3ea4:	f9043683          	ld	a3,-112(s0)
    3ea8:	00055463          	bgez	a0,3eb0 <.LBB34_112>
    3eac:	c0000637          	lui	a2,0xc0000

0000000000003eb0 <.LBB34_112>:
    3eb0:	f8d43823          	sd	a3,-112(s0)
    3eb4:	00001537          	lui	a0,0x1
    3eb8:	40a40533          	sub	a0,s0,a0
    3ebc:	fac53423          	sd	a2,-88(a0) # fa8 <.LBB34_2+0xa8>
    3ec0:	83843603          	ld	a2,-1992(s0)
    3ec4:	00160633          	add	a2,a2,ra
    3ec8:	eb043503          	ld	a0,-336(s0)
    3ecc:	00a60633          	add	a2,a2,a0
    3ed0:	00b60633          	add	a2,a2,a1
    3ed4:	0056053b          	addw	a0,a2,t0
    3ed8:	40000637          	lui	a2,0x40000
    3edc:	000016b7          	lui	a3,0x1
    3ee0:	40d406b3          	sub	a3,s0,a3
    3ee4:	f4a6b423          	sd	a0,-184(a3) # f48 <.LBB34_2+0x48>
    3ee8:	f9043683          	ld	a3,-112(s0)
    3eec:	00055463          	bgez	a0,3ef4 <.LBB34_114>
    3ef0:	c0000637          	lui	a2,0xc0000

0000000000003ef4 <.LBB34_114>:
    3ef4:	f8d43823          	sd	a3,-112(s0)
    3ef8:	00001537          	lui	a0,0x1
    3efc:	40a40533          	sub	a0,s0,a0
    3f00:	f4c53023          	sd	a2,-192(a0) # f40 <.LBB34_2+0x40>
    3f04:	84043603          	ld	a2,-1984(s0)
    3f08:	01660633          	add	a2,a2,s6
    3f0c:	ea843503          	ld	a0,-344(s0)
    3f10:	00a60633          	add	a2,a2,a0
    3f14:	00b60633          	add	a2,a2,a1
    3f18:	0056053b          	addw	a0,a2,t0
    3f1c:	40000637          	lui	a2,0x40000
    3f20:	000016b7          	lui	a3,0x1
    3f24:	40d406b3          	sub	a3,s0,a3
    3f28:	eca6bc23          	sd	a0,-296(a3) # ed8 <.LBB34_1+0xbcc>
    3f2c:	f9043683          	ld	a3,-112(s0)
    3f30:	00055463          	bgez	a0,3f38 <.LBB34_116>
    3f34:	c0000637          	lui	a2,0xc0000

0000000000003f38 <.LBB34_116>:
    3f38:	f8d43823          	sd	a3,-112(s0)
    3f3c:	00001537          	lui	a0,0x1
    3f40:	40a40533          	sub	a0,s0,a0
    3f44:	ecc53823          	sd	a2,-304(a0) # ed0 <.LBB34_1+0xbc4>
    3f48:	84843603          	ld	a2,-1976(s0)
    3f4c:	01460633          	add	a2,a2,s4
    3f50:	ea043503          	ld	a0,-352(s0)
    3f54:	00a60633          	add	a2,a2,a0
    3f58:	00b60633          	add	a2,a2,a1
    3f5c:	0056053b          	addw	a0,a2,t0
    3f60:	40000637          	lui	a2,0x40000
    3f64:	000016b7          	lui	a3,0x1
    3f68:	40d406b3          	sub	a3,s0,a3
    3f6c:	e6a6b423          	sd	a0,-408(a3) # e68 <.LBB34_1+0xb5c>
    3f70:	f9043683          	ld	a3,-112(s0)
    3f74:	00055463          	bgez	a0,3f7c <.LBB34_118>
    3f78:	c0000637          	lui	a2,0xc0000

0000000000003f7c <.LBB34_118>:
    3f7c:	f8d43823          	sd	a3,-112(s0)
    3f80:	00001537          	lui	a0,0x1
    3f84:	40a40533          	sub	a0,s0,a0
    3f88:	e6c53023          	sd	a2,-416(a0) # e60 <.LBB34_1+0xb54>
    3f8c:	85043603          	ld	a2,-1968(s0)
    3f90:	00001537          	lui	a0,0x1
    3f94:	40a40533          	sub	a0,s0,a0
    3f98:	63853503          	ld	a0,1592(a0) # 1638 <.LBB34_3+0x194>
    3f9c:	00a60633          	add	a2,a2,a0
    3fa0:	e9843503          	ld	a0,-360(s0)
    3fa4:	00a60633          	add	a2,a2,a0
    3fa8:	00b60633          	add	a2,a2,a1
    3fac:	0056053b          	addw	a0,a2,t0
    3fb0:	40000637          	lui	a2,0x40000
    3fb4:	000016b7          	lui	a3,0x1
    3fb8:	40d406b3          	sub	a3,s0,a3
    3fbc:	dea6bc23          	sd	a0,-520(a3) # df8 <.LBB34_1+0xaec>
    3fc0:	f9043683          	ld	a3,-112(s0)
    3fc4:	00055463          	bgez	a0,3fcc <.LBB34_120>
    3fc8:	c0000637          	lui	a2,0xc0000

0000000000003fcc <.LBB34_120>:
    3fcc:	f8d43823          	sd	a3,-112(s0)
    3fd0:	00001537          	lui	a0,0x1
    3fd4:	40a40533          	sub	a0,s0,a0
    3fd8:	dec53823          	sd	a2,-528(a0) # df0 <.LBB34_1+0xae4>
    3fdc:	85843603          	ld	a2,-1960(s0)
    3fe0:	00001537          	lui	a0,0x1
    3fe4:	40a40533          	sub	a0,s0,a0
    3fe8:	64053503          	ld	a0,1600(a0) # 1640 <.LBB34_3+0x19c>
    3fec:	00a60633          	add	a2,a2,a0
    3ff0:	e9043503          	ld	a0,-368(s0)
    3ff4:	00a60633          	add	a2,a2,a0
    3ff8:	00b60633          	add	a2,a2,a1
    3ffc:	0056053b          	addw	a0,a2,t0
    4000:	40000637          	lui	a2,0x40000
    4004:	000016b7          	lui	a3,0x1
    4008:	40d406b3          	sub	a3,s0,a3
    400c:	d8a6b823          	sd	a0,-624(a3) # d90 <.LBB34_1+0xa84>
    4010:	f9043683          	ld	a3,-112(s0)
    4014:	00055463          	bgez	a0,401c <.LBB34_122>
    4018:	c0000637          	lui	a2,0xc0000

000000000000401c <.LBB34_122>:
    401c:	f8d43823          	sd	a3,-112(s0)
    4020:	00001537          	lui	a0,0x1
    4024:	40a40533          	sub	a0,s0,a0
    4028:	d8c53423          	sd	a2,-632(a0) # d88 <.LBB34_1+0xa7c>
    402c:	00001537          	lui	a0,0x1
    4030:	40a40533          	sub	a0,s0,a0
    4034:	64853603          	ld	a2,1608(a0) # 1648 <.LBB34_3+0x1a4>
    4038:	86043503          	ld	a0,-1952(s0)
    403c:	00c50633          	add	a2,a0,a2
    4040:	e8843503          	ld	a0,-376(s0)
    4044:	00a60633          	add	a2,a2,a0
    4048:	00b60633          	add	a2,a2,a1
    404c:	0056053b          	addw	a0,a2,t0
    4050:	40000637          	lui	a2,0x40000
    4054:	000016b7          	lui	a3,0x1
    4058:	40d406b3          	sub	a3,s0,a3
    405c:	d0a6bc23          	sd	a0,-744(a3) # d18 <.LBB34_1+0xa0c>
    4060:	f9043683          	ld	a3,-112(s0)
    4064:	00055463          	bgez	a0,406c <.LBB34_124>
    4068:	c0000637          	lui	a2,0xc0000

000000000000406c <.LBB34_124>:
    406c:	f8d43823          	sd	a3,-112(s0)
    4070:	00001537          	lui	a0,0x1
    4074:	40a40533          	sub	a0,s0,a0
    4078:	d0c53823          	sd	a2,-752(a0) # d10 <.LBB34_1+0xa04>
    407c:	00001537          	lui	a0,0x1
    4080:	40a40533          	sub	a0,s0,a0
    4084:	65053603          	ld	a2,1616(a0) # 1650 <.LBB34_3+0x1ac>
    4088:	86843503          	ld	a0,-1944(s0)
    408c:	00c50633          	add	a2,a0,a2
    4090:	e8043503          	ld	a0,-384(s0)
    4094:	00a60633          	add	a2,a2,a0
    4098:	00b60633          	add	a2,a2,a1
    409c:	0056053b          	addw	a0,a2,t0
    40a0:	40000637          	lui	a2,0x40000
    40a4:	000016b7          	lui	a3,0x1
    40a8:	40d406b3          	sub	a3,s0,a3
    40ac:	caa6b023          	sd	a0,-864(a3) # ca0 <.LBB34_1+0x994>
    40b0:	f9043683          	ld	a3,-112(s0)
    40b4:	00055463          	bgez	a0,40bc <.LBB34_126>
    40b8:	c0000637          	lui	a2,0xc0000

00000000000040bc <.LBB34_126>:
    40bc:	f8d43823          	sd	a3,-112(s0)
    40c0:	00001537          	lui	a0,0x1
    40c4:	40a40533          	sub	a0,s0,a0
    40c8:	c8c53c23          	sd	a2,-872(a0) # c98 <.LBB34_1+0x98c>
    40cc:	87043603          	ld	a2,-1936(s0)
    40d0:	01f60633          	add	a2,a2,t6
    40d4:	e7843503          	ld	a0,-392(s0)
    40d8:	00a60633          	add	a2,a2,a0
    40dc:	00b60633          	add	a2,a2,a1
    40e0:	0056053b          	addw	a0,a2,t0
    40e4:	40000637          	lui	a2,0x40000
    40e8:	000016b7          	lui	a3,0x1
    40ec:	40d406b3          	sub	a3,s0,a3
    40f0:	c2a6b823          	sd	a0,-976(a3) # c30 <.LBB34_1+0x924>
    40f4:	f9043683          	ld	a3,-112(s0)
    40f8:	00055463          	bgez	a0,4100 <.LBB34_128>
    40fc:	c0000637          	lui	a2,0xc0000

0000000000004100 <.LBB34_128>:
    4100:	f8d43823          	sd	a3,-112(s0)
    4104:	00001537          	lui	a0,0x1
    4108:	40a40533          	sub	a0,s0,a0
    410c:	c2c53423          	sd	a2,-984(a0) # c28 <.LBB34_1+0x91c>
    4110:	87843603          	ld	a2,-1928(s0)
    4114:	01c60633          	add	a2,a2,t3
    4118:	e7043503          	ld	a0,-400(s0)
    411c:	00a60633          	add	a2,a2,a0
    4120:	00b60633          	add	a2,a2,a1
    4124:	0056053b          	addw	a0,a2,t0
    4128:	40000637          	lui	a2,0x40000
    412c:	000016b7          	lui	a3,0x1
    4130:	40d406b3          	sub	a3,s0,a3
    4134:	bca6b823          	sd	a0,-1072(a3) # bd0 <.LBB34_1+0x8c4>
    4138:	f9043683          	ld	a3,-112(s0)
    413c:	00055463          	bgez	a0,4144 <.LBB34_130>
    4140:	c0000637          	lui	a2,0xc0000

0000000000004144 <.LBB34_130>:
    4144:	00001537          	lui	a0,0x1
    4148:	40a40533          	sub	a0,s0,a0
    414c:	bcc53423          	sd	a2,-1080(a0) # bc8 <.LBB34_1+0x8bc>
    4150:	87143c23          	sd	a7,-1928(s0)
    4154:	88043603          	ld	a2,-1920(s0)
    4158:	01b60633          	add	a2,a2,s11
    415c:	e6843503          	ld	a0,-408(s0)
    4160:	00a60633          	add	a2,a2,a0
    4164:	00b605b3          	add	a1,a2,a1
    4168:	0055853b          	addw	a0,a1,t0
    416c:	400005b7          	lui	a1,0x40000
    4170:	00001637          	lui	a2,0x1
    4174:	40c40633          	sub	a2,s0,a2
    4178:	b6a63823          	sd	a0,-1168(a2) # b70 <.LBB34_1+0x864>
    417c:	00055463          	bgez	a0,4184 <.LBB34_132>
    4180:	c00005b7          	lui	a1,0xc0000

0000000000004184 <.LBB34_132>:
    4184:	00001537          	lui	a0,0x1
    4188:	40a40533          	sub	a0,s0,a0
    418c:	b6b53023          	sd	a1,-1184(a0) # b60 <.LBB34_1+0x854>
    4190:	00001537          	lui	a0,0x1
    4194:	40a40533          	sub	a0,s0,a0
    4198:	4d853503          	ld	a0,1240(a0) # 14d8 <.LBB34_3+0x34>
    419c:	00451593          	slli	a1,a0,0x4
    41a0:	00a58533          	add	a0,a1,a0
    41a4:	000015b7          	lui	a1,0x1
    41a8:	40b405b3          	sub	a1,s0,a1
    41ac:	5a05b583          	ld	a1,1440(a1) # 15a0 <.LBB34_3+0xfc>
    41b0:	00bd05b3          	add	a1,s10,a1
    41b4:	f8843603          	ld	a2,-120(s0)
    41b8:	00c585b3          	add	a1,a1,a2
    41bc:	00a585b3          	add	a1,a1,a0
    41c0:	005585bb          	addw	a1,a1,t0
    41c4:	400008b7          	lui	a7,0x40000
    41c8:	88b43423          	sd	a1,-1912(s0)
    41cc:	8e843603          	ld	a2,-1816(s0)
    41d0:	0005d463          	bgez	a1,41d8 <.LBB34_134>
    41d4:	c00008b7          	lui	a7,0xc0000

00000000000041d8 <.LBB34_134>:
    41d8:	86943423          	sd	s1,-1944(s0)
    41dc:	000015b7          	lui	a1,0x1
    41e0:	40b405b3          	sub	a1,s0,a1
    41e4:	5985b583          	ld	a1,1432(a1) # 1598 <.LBB34_3+0xf4>
    41e8:	00b685b3          	add	a1,a3,a1
    41ec:	f8043683          	ld	a3,-128(s0)
    41f0:	00d585b3          	add	a1,a1,a3
    41f4:	00a585b3          	add	a1,a1,a0
    41f8:	005585bb          	addw	a1,a1,t0
    41fc:	40000d37          	lui	s10,0x40000
    4200:	88b43823          	sd	a1,-1904(s0)
    4204:	0005d463          	bgez	a1,420c <.LBB34_136>
    4208:	c0000d37          	lui	s10,0xc0000

000000000000420c <.LBB34_136>:
    420c:	000015b7          	lui	a1,0x1
    4210:	40b405b3          	sub	a1,s0,a1
    4214:	5905b583          	ld	a1,1424(a1) # 1590 <.LBB34_3+0xec>
    4218:	89843683          	ld	a3,-1896(s0)
    421c:	00b685b3          	add	a1,a3,a1
    4220:	f7843683          	ld	a3,-136(s0)
    4224:	00d585b3          	add	a1,a1,a3
    4228:	00a585b3          	add	a1,a1,a0
    422c:	005585bb          	addw	a1,a1,t0
    4230:	400004b7          	lui	s1,0x40000
    4234:	88943c23          	sd	s1,-1896(s0)
    4238:	88b43023          	sd	a1,-1920(s0)
    423c:	0005d663          	bgez	a1,4248 <.LBB34_138>
    4240:	c00005b7          	lui	a1,0xc0000
    4244:	88b43c23          	sd	a1,-1896(s0)

0000000000004248 <.LBB34_138>:
    4248:	000015b7          	lui	a1,0x1
    424c:	40b405b3          	sub	a1,s0,a1
    4250:	7d25b423          	sd	s2,1992(a1) # 17c8 <.LBB34_3+0x324>
    4254:	000015b7          	lui	a1,0x1
    4258:	40b405b3          	sub	a1,s0,a1
    425c:	5885b583          	ld	a1,1416(a1) # 1588 <.LBB34_3+0xe4>
    4260:	8a043683          	ld	a3,-1888(s0)
    4264:	00b685b3          	add	a1,a3,a1
    4268:	f7043683          	ld	a3,-144(s0)
    426c:	00d585b3          	add	a1,a1,a3
    4270:	00a585b3          	add	a1,a1,a0
    4274:	005585bb          	addw	a1,a1,t0
    4278:	8ab43023          	sd	a1,-1888(s0)
    427c:	0005d463          	bgez	a1,4284 <.LBB34_140>
    4280:	c00004b7          	lui	s1,0xc0000

0000000000004284 <.LBB34_140>:
    4284:	000015b7          	lui	a1,0x1
    4288:	40b405b3          	sub	a1,s0,a1
    428c:	5a85b583          	ld	a1,1448(a1) # 15a8 <.LBB34_3+0x104>
    4290:	8a843683          	ld	a3,-1880(s0)
    4294:	00b685b3          	add	a1,a3,a1
    4298:	f6843683          	ld	a3,-152(s0)
    429c:	00d585b3          	add	a1,a1,a3
    42a0:	00a585b3          	add	a1,a1,a0
    42a4:	005585bb          	addw	a1,a1,t0
    42a8:	40000937          	lui	s2,0x40000
    42ac:	8b243423          	sd	s2,-1880(s0)
    42b0:	84b43823          	sd	a1,-1968(s0)
    42b4:	0005d663          	bgez	a1,42c0 <.LBB34_142>
    42b8:	c00005b7          	lui	a1,0xc0000
    42bc:	8ab43423          	sd	a1,-1880(s0)

00000000000042c0 <.LBB34_142>:
    42c0:	000015b7          	lui	a1,0x1
    42c4:	40b405b3          	sub	a1,s0,a1
    42c8:	6fd5b823          	sd	t4,1776(a1) # 16f0 <.LBB34_3+0x24c>
    42cc:	000015b7          	lui	a1,0x1
    42d0:	40b405b3          	sub	a1,s0,a1
    42d4:	5b05b583          	ld	a1,1456(a1) # 15b0 <.LBB34_3+0x10c>
    42d8:	8b043683          	ld	a3,-1872(s0)
    42dc:	00b685b3          	add	a1,a3,a1
    42e0:	f6043683          	ld	a3,-160(s0)
    42e4:	00d585b3          	add	a1,a1,a3
    42e8:	00a585b3          	add	a1,a1,a0
    42ec:	005585bb          	addw	a1,a1,t0
    42f0:	000016b7          	lui	a3,0x1
    42f4:	40d406b3          	sub	a3,s0,a3
    42f8:	7cb6b023          	sd	a1,1984(a3) # 17c0 <.LBB34_3+0x31c>
    42fc:	0005d463          	bgez	a1,4304 <.LBB34_144>
    4300:	c0000937          	lui	s2,0xc0000

0000000000004304 <.LBB34_144>:
    4304:	000015b7          	lui	a1,0x1
    4308:	40b405b3          	sub	a1,s0,a1
    430c:	5b85b583          	ld	a1,1464(a1) # 15b8 <.LBB34_3+0x114>
    4310:	8b843683          	ld	a3,-1864(s0)
    4314:	00b685b3          	add	a1,a3,a1
    4318:	f5843683          	ld	a3,-168(s0)
    431c:	00d585b3          	add	a1,a1,a3
    4320:	00a585b3          	add	a1,a1,a0
    4324:	005585bb          	addw	a1,a1,t0
    4328:	40000eb7          	lui	t4,0x40000
    432c:	8bd43c23          	sd	t4,-1864(s0)
    4330:	000016b7          	lui	a3,0x1
    4334:	40d406b3          	sub	a3,s0,a3
    4338:	72b6bc23          	sd	a1,1848(a3) # 1738 <.LBB34_3+0x294>
    433c:	0005d663          	bgez	a1,4348 <.LBB34_146>
    4340:	c00005b7          	lui	a1,0xc0000
    4344:	8ab43c23          	sd	a1,-1864(s0)

0000000000004348 <.LBB34_146>:
    4348:	000015b7          	lui	a1,0x1
    434c:	40b405b3          	sub	a1,s0,a1
    4350:	5c05b583          	ld	a1,1472(a1) # 15c0 <.LBB34_3+0x11c>
    4354:	8c043683          	ld	a3,-1856(s0)
    4358:	00b685b3          	add	a1,a3,a1
    435c:	f5043683          	ld	a3,-176(s0)
    4360:	00d585b3          	add	a1,a1,a3
    4364:	00a585b3          	add	a1,a1,a0
    4368:	005585bb          	addw	a1,a1,t0
    436c:	000016b7          	lui	a3,0x1
    4370:	40d406b3          	sub	a3,s0,a3
    4374:	6eb6b423          	sd	a1,1768(a3) # 16e8 <.LBB34_3+0x244>
    4378:	0005d463          	bgez	a1,4380 <.LBB34_148>
    437c:	c0000eb7          	lui	t4,0xc0000

0000000000004380 <.LBB34_148>:
    4380:	000015b7          	lui	a1,0x1
    4384:	40b405b3          	sub	a1,s0,a1
    4388:	5c85b583          	ld	a1,1480(a1) # 15c8 <.LBB34_3+0x124>
    438c:	8c843683          	ld	a3,-1848(s0)
    4390:	00b685b3          	add	a1,a3,a1
    4394:	f4843683          	ld	a3,-184(s0)
    4398:	00d585b3          	add	a1,a1,a3
    439c:	00a585b3          	add	a1,a1,a0
    43a0:	005585bb          	addw	a1,a1,t0
    43a4:	400006b7          	lui	a3,0x40000
    43a8:	8cd43423          	sd	a3,-1848(s0)
    43ac:	000016b7          	lui	a3,0x1
    43b0:	40d406b3          	sub	a3,s0,a3
    43b4:	4cb6bc23          	sd	a1,1240(a3) # 14d8 <.LBB34_3+0x34>
    43b8:	0005d663          	bgez	a1,43c4 <.LBB34_150>
    43bc:	c00005b7          	lui	a1,0xc0000
    43c0:	8cb43423          	sd	a1,-1848(s0)

00000000000043c4 <.LBB34_150>:
    43c4:	000015b7          	lui	a1,0x1
    43c8:	40b405b3          	sub	a1,s0,a1
    43cc:	5d05b583          	ld	a1,1488(a1) # 15d0 <.LBB34_3+0x12c>
    43d0:	8d043683          	ld	a3,-1840(s0)
    43d4:	00b685b3          	add	a1,a3,a1
    43d8:	f4043683          	ld	a3,-192(s0)
    43dc:	00d585b3          	add	a1,a1,a3
    43e0:	00a585b3          	add	a1,a1,a0
    43e4:	005585bb          	addw	a1,a1,t0
    43e8:	400006b7          	lui	a3,0x40000
    43ec:	00001db7          	lui	s11,0x1
    43f0:	41b40db3          	sub	s11,s0,s11
    43f4:	46bdbc23          	sd	a1,1144(s11) # 1478 <.LBB34_2+0x578>
    43f8:	0005d463          	bgez	a1,4400 <.LBB34_152>
    43fc:	c00006b7          	lui	a3,0xc0000

0000000000004400 <.LBB34_152>:
    4400:	000015b7          	lui	a1,0x1
    4404:	40b405b3          	sub	a1,s0,a1
    4408:	5d85b583          	ld	a1,1496(a1) # 15d8 <.LBB34_3+0x134>
    440c:	00b785b3          	add	a1,a5,a1
    4410:	f1043783          	ld	a5,-240(s0)
    4414:	00f585b3          	add	a1,a1,a5
    4418:	00a585b3          	add	a1,a1,a0
    441c:	005585bb          	addw	a1,a1,t0
    4420:	400007b7          	lui	a5,0x40000
    4424:	00001db7          	lui	s11,0x1
    4428:	41b40db3          	sub	s11,s0,s11
    442c:	40bdb823          	sd	a1,1040(s11) # 1410 <.LBB34_2+0x510>
    4430:	0005d463          	bgez	a1,4438 <.LBB34_154>
    4434:	c00007b7          	lui	a5,0xc0000

0000000000004438 <.LBB34_154>:
    4438:	000015b7          	lui	a1,0x1
    443c:	40b405b3          	sub	a1,s0,a1
    4440:	5e05b583          	ld	a1,1504(a1) # 15e0 <.LBB34_3+0x13c>
    4444:	00b385b3          	add	a1,t2,a1
    4448:	f0843383          	ld	t2,-248(s0)
    444c:	007585b3          	add	a1,a1,t2
    4450:	00a585b3          	add	a1,a1,a0
    4454:	005585bb          	addw	a1,a1,t0
    4458:	400003b7          	lui	t2,0x40000
    445c:	00001db7          	lui	s11,0x1
    4460:	41b40db3          	sub	s11,s0,s11
    4464:	3abdb823          	sd	a1,944(s11) # 13b0 <.LBB34_2+0x4b0>
    4468:	0005d463          	bgez	a1,4470 <.LBB34_156>
    446c:	c00003b7          	lui	t2,0xc0000

0000000000004470 <.LBB34_156>:
    4470:	000015b7          	lui	a1,0x1
    4474:	40b405b3          	sub	a1,s0,a1
    4478:	5e85b583          	ld	a1,1512(a1) # 15e8 <.LBB34_3+0x144>
    447c:	00b605b3          	add	a1,a2,a1
    4480:	f0043603          	ld	a2,-256(s0)
    4484:	00c585b3          	add	a1,a1,a2
    4488:	00a585b3          	add	a1,a1,a0
    448c:	005585bb          	addw	a1,a1,t0
    4490:	40000637          	lui	a2,0x40000
    4494:	00001db7          	lui	s11,0x1
    4498:	41b40db3          	sub	s11,s0,s11
    449c:	34bdbc23          	sd	a1,856(s11) # 1358 <.LBB34_2+0x458>
    44a0:	0005d463          	bgez	a1,44a8 <.LBB34_158>
    44a4:	c0000637          	lui	a2,0xc0000

00000000000044a8 <.LBB34_158>:
    44a8:	000015b7          	lui	a1,0x1
    44ac:	40b405b3          	sub	a1,s0,a1
    44b0:	5f05b583          	ld	a1,1520(a1) # 15f0 <.LBB34_3+0x14c>
    44b4:	00bf05b3          	add	a1,t5,a1
    44b8:	ef843f03          	ld	t5,-264(s0)
    44bc:	01e585b3          	add	a1,a1,t5
    44c0:	00a585b3          	add	a1,a1,a0
    44c4:	005585bb          	addw	a1,a1,t0
    44c8:	40000f37          	lui	t5,0x40000
    44cc:	00001db7          	lui	s11,0x1
    44d0:	41b40db3          	sub	s11,s0,s11
    44d4:	2ebdb823          	sd	a1,752(s11) # 12f0 <.LBB34_2+0x3f0>
    44d8:	0005d463          	bgez	a1,44e0 <.LBB34_160>
    44dc:	c0000f37          	lui	t5,0xc0000

00000000000044e0 <.LBB34_160>:
    44e0:	000015b7          	lui	a1,0x1
    44e4:	40b405b3          	sub	a1,s0,a1
    44e8:	5f85b583          	ld	a1,1528(a1) # 15f8 <.LBB34_3+0x154>
    44ec:	00bc05b3          	add	a1,s8,a1
    44f0:	ef043c03          	ld	s8,-272(s0)
    44f4:	018585b3          	add	a1,a1,s8
    44f8:	00a585b3          	add	a1,a1,a0
    44fc:	005585bb          	addw	a1,a1,t0
    4500:	40000c37          	lui	s8,0x40000
    4504:	8f843c23          	sd	s8,-1800(s0)
    4508:	00001c37          	lui	s8,0x1
    450c:	41840c33          	sub	s8,s0,s8
    4510:	28bc3023          	sd	a1,640(s8) # 1280 <.LBB34_2+0x380>
    4514:	0005d663          	bgez	a1,4520 <.LBB34_162>
    4518:	c00005b7          	lui	a1,0xc0000
    451c:	8eb43c23          	sd	a1,-1800(s0)

0000000000004520 <.LBB34_162>:
    4520:	000015b7          	lui	a1,0x1
    4524:	40b405b3          	sub	a1,s0,a1
    4528:	6005b583          	ld	a1,1536(a1) # 1600 <.LBB34_3+0x15c>
    452c:	90043c03          	ld	s8,-1792(s0)
    4530:	00bc05b3          	add	a1,s8,a1
    4534:	ee843c03          	ld	s8,-280(s0)
    4538:	018585b3          	add	a1,a1,s8
    453c:	00a585b3          	add	a1,a1,a0
    4540:	005585bb          	addw	a1,a1,t0
    4544:	40000c37          	lui	s8,0x40000
    4548:	91843023          	sd	s8,-1792(s0)
    454c:	9c843c03          	ld	s8,-1592(s0)
    4550:	00001db7          	lui	s11,0x1
    4554:	41b40db3          	sub	s11,s0,s11
    4558:	22bdb823          	sd	a1,560(s11) # 1230 <.LBB34_2+0x330>
    455c:	0005d663          	bgez	a1,4568 <.LBB34_164>
    4560:	c00005b7          	lui	a1,0xc0000
    4564:	90b43023          	sd	a1,-1792(s0)

0000000000004568 <.LBB34_164>:
    4568:	000015b7          	lui	a1,0x1
    456c:	40b405b3          	sub	a1,s0,a1
    4570:	6085b583          	ld	a1,1544(a1) # 1608 <.LBB34_3+0x164>
    4574:	00b705b3          	add	a1,a4,a1
    4578:	ee043703          	ld	a4,-288(s0)
    457c:	00e585b3          	add	a1,a1,a4
    4580:	00a585b3          	add	a1,a1,a0
    4584:	005585bb          	addw	a1,a1,t0
    4588:	40000737          	lui	a4,0x40000
    458c:	90e43423          	sd	a4,-1784(s0)
    4590:	00001737          	lui	a4,0x1
    4594:	40e40733          	sub	a4,s0,a4
    4598:	1cb73423          	sd	a1,456(a4) # 11c8 <.LBB34_2+0x2c8>
    459c:	0005d663          	bgez	a1,45a8 <.LBB34_166>
    45a0:	c00005b7          	lui	a1,0xc0000
    45a4:	90b43423          	sd	a1,-1784(s0)

00000000000045a8 <.LBB34_166>:
    45a8:	000015b7          	lui	a1,0x1
    45ac:	40b405b3          	sub	a1,s0,a1
    45b0:	6105b583          	ld	a1,1552(a1) # 1610 <.LBB34_3+0x16c>
    45b4:	91043703          	ld	a4,-1776(s0)
    45b8:	00b705b3          	add	a1,a4,a1
    45bc:	ed843703          	ld	a4,-296(s0)
    45c0:	00e585b3          	add	a1,a1,a4
    45c4:	00a585b3          	add	a1,a1,a0
    45c8:	005585bb          	addw	a1,a1,t0
    45cc:	40000737          	lui	a4,0x40000
    45d0:	90e43823          	sd	a4,-1776(s0)
    45d4:	9a843703          	ld	a4,-1624(s0)
    45d8:	00001db7          	lui	s11,0x1
    45dc:	41b40db3          	sub	s11,s0,s11
    45e0:	16bdb023          	sd	a1,352(s11) # 1160 <.LBB34_2+0x260>
    45e4:	0005d663          	bgez	a1,45f0 <.LBB34_168>
    45e8:	c00005b7          	lui	a1,0xc0000
    45ec:	90b43823          	sd	a1,-1776(s0)

00000000000045f0 <.LBB34_168>:
    45f0:	000015b7          	lui	a1,0x1
    45f4:	40b405b3          	sub	a1,s0,a1
    45f8:	6185b583          	ld	a1,1560(a1) # 1618 <.LBB34_3+0x174>
    45fc:	91843d83          	ld	s11,-1768(s0)
    4600:	00bd85b3          	add	a1,s11,a1
    4604:	ed043d83          	ld	s11,-304(s0)
    4608:	01b585b3          	add	a1,a1,s11
    460c:	00a585b3          	add	a1,a1,a0
    4610:	005585bb          	addw	a1,a1,t0
    4614:	40000db7          	lui	s11,0x40000
    4618:	91b43c23          	sd	s11,-1768(s0)
    461c:	00001db7          	lui	s11,0x1
    4620:	41b40db3          	sub	s11,s0,s11
    4624:	0ebdbc23          	sd	a1,248(s11) # 10f8 <.LBB34_2+0x1f8>
    4628:	0005d663          	bgez	a1,4634 <.LBB34_170>
    462c:	c00005b7          	lui	a1,0xc0000
    4630:	90b43c23          	sd	a1,-1768(s0)

0000000000004634 <.LBB34_170>:
    4634:	f8c43823          	sd	a2,-112(s0)
    4638:	000015b7          	lui	a1,0x1
    463c:	40b405b3          	sub	a1,s0,a1
    4640:	6205b583          	ld	a1,1568(a1) # 1620 <.LBB34_3+0x17c>
    4644:	92043d83          	ld	s11,-1760(s0)
    4648:	00bd85b3          	add	a1,s11,a1
    464c:	ec843d83          	ld	s11,-312(s0)
    4650:	01b585b3          	add	a1,a1,s11
    4654:	00a585b3          	add	a1,a1,a0
    4658:	005585bb          	addw	a1,a1,t0
    465c:	40000db7          	lui	s11,0x40000
    4660:	93b43023          	sd	s11,-1760(s0)
    4664:	98043d83          	ld	s11,-1664(s0)
    4668:	00001637          	lui	a2,0x1
    466c:	40c40633          	sub	a2,s0,a2
    4670:	08b63023          	sd	a1,128(a2) # 1080 <.LBB34_2+0x180>
    4674:	f9043603          	ld	a2,-112(s0)
    4678:	0005d663          	bgez	a1,4684 <.LBB34_172>
    467c:	c00005b7          	lui	a1,0xc0000
    4680:	92b43023          	sd	a1,-1760(s0)

0000000000004684 <.LBB34_172>:
    4684:	000015b7          	lui	a1,0x1
    4688:	40b405b3          	sub	a1,s0,a1
    468c:	6285b583          	ld	a1,1576(a1) # 1628 <.LBB34_3+0x184>
    4690:	00ba85b3          	add	a1,s5,a1
    4694:	ec043a83          	ld	s5,-320(s0)
    4698:	015585b3          	add	a1,a1,s5
    469c:	00a585b3          	add	a1,a1,a0
    46a0:	005585bb          	addw	a1,a1,t0
    46a4:	40000ab7          	lui	s5,0x40000
    46a8:	93543423          	sd	s5,-1752(s0)
    46ac:	00001ab7          	lui	s5,0x1
    46b0:	41540ab3          	sub	s5,s0,s5
    46b4:	00babc23          	sd	a1,24(s5) # 1018 <.LBB34_2+0x118>
    46b8:	0005d663          	bgez	a1,46c4 <.LBB34_174>
    46bc:	c00005b7          	lui	a1,0xc0000
    46c0:	92b43423          	sd	a1,-1752(s0)

00000000000046c4 <.LBB34_174>:
    46c4:	f8c43823          	sd	a2,-112(s0)
    46c8:	000015b7          	lui	a1,0x1
    46cc:	40b405b3          	sub	a1,s0,a1
    46d0:	6305b583          	ld	a1,1584(a1) # 1630 <.LBB34_3+0x18c>
    46d4:	93043a83          	ld	s5,-1744(s0)
    46d8:	00ba85b3          	add	a1,s5,a1
    46dc:	eb843a83          	ld	s5,-328(s0)
    46e0:	015585b3          	add	a1,a1,s5
    46e4:	00a585b3          	add	a1,a1,a0
    46e8:	005585bb          	addw	a1,a1,t0
    46ec:	40000ab7          	lui	s5,0x40000
    46f0:	93543823          	sd	s5,-1744(s0)
    46f4:	96043a83          	ld	s5,-1696(s0)
    46f8:	00001637          	lui	a2,0x1
    46fc:	40c40633          	sub	a2,s0,a2
    4700:	fab63023          	sd	a1,-96(a2) # fa0 <.LBB34_2+0xa0>
    4704:	f9043603          	ld	a2,-112(s0)
    4708:	0005d663          	bgez	a1,4714 <.LBB34_176>
    470c:	c00005b7          	lui	a1,0xc0000
    4710:	92b43823          	sd	a1,-1744(s0)

0000000000004714 <.LBB34_176>:
    4714:	001c85b3          	add	a1,s9,ra
    4718:	eb043c83          	ld	s9,-336(s0)
    471c:	019585b3          	add	a1,a1,s9
    4720:	00a585b3          	add	a1,a1,a0
    4724:	005585bb          	addw	a1,a1,t0
    4728:	40000cb7          	lui	s9,0x40000
    472c:	93943c23          	sd	s9,-1736(s0)
    4730:	00001cb7          	lui	s9,0x1
    4734:	41940cb3          	sub	s9,s0,s9
    4738:	f2bcbc23          	sd	a1,-200(s9) # f38 <.LBB34_2+0x38>
    473c:	0005d663          	bgez	a1,4748 <.LBB34_178>
    4740:	c00005b7          	lui	a1,0xc0000
    4744:	92b43c23          	sd	a1,-1736(s0)

0000000000004748 <.LBB34_178>:
    4748:	94043583          	ld	a1,-1728(s0)
    474c:	016585b3          	add	a1,a1,s6
    4750:	ea843c83          	ld	s9,-344(s0)
    4754:	019585b3          	add	a1,a1,s9
    4758:	00a585b3          	add	a1,a1,a0
    475c:	005585bb          	addw	a1,a1,t0
    4760:	40000cb7          	lui	s9,0x40000
    4764:	f8c43823          	sd	a2,-112(s0)
    4768:	00001637          	lui	a2,0x1
    476c:	40c40633          	sub	a2,s0,a2
    4770:	ecb63423          	sd	a1,-312(a2) # ec8 <.LBB34_1+0xbbc>
    4774:	f9043603          	ld	a2,-112(s0)
    4778:	0005d463          	bgez	a1,4780 <.LBB34_180>
    477c:	c0000cb7          	lui	s9,0xc0000

0000000000004780 <.LBB34_180>:
    4780:	000015b7          	lui	a1,0x1
    4784:	40b405b3          	sub	a1,s0,a1
    4788:	af95b823          	sd	s9,-1296(a1) # af0 <.LBB34_1+0x7e4>
    478c:	94843583          	ld	a1,-1720(s0)
    4790:	014585b3          	add	a1,a1,s4
    4794:	ea043c83          	ld	s9,-352(s0)
    4798:	019585b3          	add	a1,a1,s9
    479c:	00a585b3          	add	a1,a1,a0
    47a0:	005585bb          	addw	a1,a1,t0
    47a4:	40000cb7          	lui	s9,0x40000
    47a8:	95943423          	sd	s9,-1720(s0)
    47ac:	00001cb7          	lui	s9,0x1
    47b0:	41940cb3          	sub	s9,s0,s9
    47b4:	e4bcbc23          	sd	a1,-424(s9) # e58 <.LBB34_1+0xb4c>
    47b8:	0005d663          	bgez	a1,47c4 <.LBB34_182>
    47bc:	c00005b7          	lui	a1,0xc0000
    47c0:	94b43423          	sd	a1,-1720(s0)

00000000000047c4 <.LBB34_182>:
    47c4:	95043583          	ld	a1,-1712(s0)
    47c8:	f8c43823          	sd	a2,-112(s0)
    47cc:	00001637          	lui	a2,0x1
    47d0:	40c40633          	sub	a2,s0,a2
    47d4:	63863c83          	ld	s9,1592(a2) # 1638 <.LBB34_3+0x194>
    47d8:	019585b3          	add	a1,a1,s9
    47dc:	e9843c83          	ld	s9,-360(s0)
    47e0:	019585b3          	add	a1,a1,s9
    47e4:	00a585b3          	add	a1,a1,a0
    47e8:	005585bb          	addw	a1,a1,t0
    47ec:	40000cb7          	lui	s9,0x40000
    47f0:	00001637          	lui	a2,0x1
    47f4:	40c40633          	sub	a2,s0,a2
    47f8:	deb63423          	sd	a1,-536(a2) # de8 <.LBB34_1+0xadc>
    47fc:	f9043603          	ld	a2,-112(s0)
    4800:	0005d463          	bgez	a1,4808 <.LBB34_184>
    4804:	c0000cb7          	lui	s9,0xc0000

0000000000004808 <.LBB34_184>:
    4808:	000015b7          	lui	a1,0x1
    480c:	40b405b3          	sub	a1,s0,a1
    4810:	af95b423          	sd	s9,-1304(a1) # ae8 <.LBB34_1+0x7dc>
    4814:	95843583          	ld	a1,-1704(s0)
    4818:	00001cb7          	lui	s9,0x1
    481c:	41940cb3          	sub	s9,s0,s9
    4820:	640cbc83          	ld	s9,1600(s9) # 1640 <.LBB34_3+0x19c>
    4824:	019585b3          	add	a1,a1,s9
    4828:	e9043c83          	ld	s9,-368(s0)
    482c:	019585b3          	add	a1,a1,s9
    4830:	00a585b3          	add	a1,a1,a0
    4834:	005585bb          	addw	a1,a1,t0
    4838:	40000cb7          	lui	s9,0x40000
    483c:	95943c23          	sd	s9,-1704(s0)
    4840:	00001cb7          	lui	s9,0x1
    4844:	41940cb3          	sub	s9,s0,s9
    4848:	d8bcb023          	sd	a1,-640(s9) # d80 <.LBB34_1+0xa74>
    484c:	0005d663          	bgez	a1,4858 <.LBB34_186>
    4850:	c00005b7          	lui	a1,0xc0000
    4854:	94b43c23          	sd	a1,-1704(s0)

0000000000004858 <.LBB34_186>:
    4858:	000015b7          	lui	a1,0x1
    485c:	40b405b3          	sub	a1,s0,a1
    4860:	6485b583          	ld	a1,1608(a1) # 1648 <.LBB34_3+0x1a4>
    4864:	00ba85b3          	add	a1,s5,a1
    4868:	e8843a83          	ld	s5,-376(s0)
    486c:	015585b3          	add	a1,a1,s5
    4870:	00a585b3          	add	a1,a1,a0
    4874:	005585bb          	addw	a1,a1,t0
    4878:	40000ab7          	lui	s5,0x40000
    487c:	00001cb7          	lui	s9,0x1
    4880:	41940cb3          	sub	s9,s0,s9
    4884:	d0bcb423          	sd	a1,-760(s9) # d08 <.LBB34_1+0x9fc>
    4888:	0005d463          	bgez	a1,4890 <.LBB34_188>
    488c:	c0000ab7          	lui	s5,0xc0000

0000000000004890 <.LBB34_188>:
    4890:	000015b7          	lui	a1,0x1
    4894:	40b405b3          	sub	a1,s0,a1
    4898:	d155b023          	sd	s5,-768(a1) # d00 <.LBB34_1+0x9f4>
    489c:	96843583          	ld	a1,-1688(s0)
    48a0:	00001ab7          	lui	s5,0x1
    48a4:	41540ab3          	sub	s5,s0,s5
    48a8:	650aba83          	ld	s5,1616(s5) # 1650 <.LBB34_3+0x1ac>
    48ac:	015585b3          	add	a1,a1,s5
    48b0:	e8043a83          	ld	s5,-384(s0)
    48b4:	015585b3          	add	a1,a1,s5
    48b8:	00a585b3          	add	a1,a1,a0
    48bc:	005585bb          	addw	a1,a1,t0
    48c0:	40000ab7          	lui	s5,0x40000
    48c4:	00001cb7          	lui	s9,0x1
    48c8:	41940cb3          	sub	s9,s0,s9
    48cc:	c8bcb823          	sd	a1,-880(s9) # c90 <.LBB34_1+0x984>
    48d0:	0005d463          	bgez	a1,48d8 <.LBB34_190>
    48d4:	c0000ab7          	lui	s5,0xc0000

00000000000048d8 <.LBB34_190>:
    48d8:	97043583          	ld	a1,-1680(s0)
    48dc:	01f585b3          	add	a1,a1,t6
    48e0:	e7843c83          	ld	s9,-392(s0)
    48e4:	019585b3          	add	a1,a1,s9
    48e8:	00a585b3          	add	a1,a1,a0
    48ec:	005585bb          	addw	a1,a1,t0
    48f0:	40000cb7          	lui	s9,0x40000
    48f4:	f8c43823          	sd	a2,-112(s0)
    48f8:	00001637          	lui	a2,0x1
    48fc:	40c40633          	sub	a2,s0,a2
    4900:	c2b63023          	sd	a1,-992(a2) # c20 <.LBB34_1+0x914>
    4904:	f9043603          	ld	a2,-112(s0)
    4908:	0005d463          	bgez	a1,4910 <.LBB34_192>
    490c:	c0000cb7          	lui	s9,0xc0000

0000000000004910 <.LBB34_192>:
    4910:	97043823          	sd	a6,-1680(s0)
    4914:	97843583          	ld	a1,-1672(s0)
    4918:	01c585b3          	add	a1,a1,t3
    491c:	e7043803          	ld	a6,-400(s0)
    4920:	010585b3          	add	a1,a1,a6
    4924:	00a585b3          	add	a1,a1,a0
    4928:	005585bb          	addw	a1,a1,t0
    492c:	40000837          	lui	a6,0x40000
    4930:	f8c43823          	sd	a2,-112(s0)
    4934:	00001637          	lui	a2,0x1
    4938:	40c40633          	sub	a2,s0,a2
    493c:	bcb63023          	sd	a1,-1088(a2) # bc0 <.LBB34_1+0x8b4>
    4940:	f9043603          	ld	a2,-112(s0)
    4944:	0005d463          	bgez	a1,494c <.LBB34_194>
    4948:	c0000837          	lui	a6,0xc0000

000000000000494c <.LBB34_194>:
    494c:	000015b7          	lui	a1,0x1
    4950:	40b405b3          	sub	a1,s0,a1
    4954:	bb05bc23          	sd	a6,-1096(a1) # bb8 <.LBB34_1+0x8ac>
    4958:	97143c23          	sd	a7,-1672(s0)
    495c:	000015b7          	lui	a1,0x1
    4960:	40b405b3          	sub	a1,s0,a1
    4964:	5785b803          	ld	a6,1400(a1) # 1578 <.LBB34_3+0xd4>
    4968:	010d85b3          	add	a1,s11,a6
    496c:	00080d93          	mv	s11,a6
    4970:	e6843803          	ld	a6,-408(s0)
    4974:	010585b3          	add	a1,a1,a6
    4978:	00a58533          	add	a0,a1,a0
    497c:	0055053b          	addw	a0,a0,t0
    4980:	400005b7          	lui	a1,0x40000
    4984:	ab043803          	ld	a6,-1360(s0)
    4988:	000018b7          	lui	a7,0x1
    498c:	411408b3          	sub	a7,s0,a7
    4990:	b4a8bc23          	sd	a0,-1192(a7) # b58 <.LBB34_1+0x84c>
    4994:	00055463          	bgez	a0,499c <.LBB34_196>
    4998:	c00005b7          	lui	a1,0xc0000

000000000000499c <.LBB34_196>:
    499c:	00001537          	lui	a0,0x1
    49a0:	40a40533          	sub	a0,s0,a0
    49a4:	b4b53823          	sd	a1,-1200(a0) # b50 <.LBB34_1+0x844>
    49a8:	97343423          	sd	s3,-1688(s0)
    49ac:	00001537          	lui	a0,0x1
    49b0:	40a40533          	sub	a0,s0,a0
    49b4:	50053883          	ld	a7,1280(a0) # 1500 <.LBB34_3+0x5c>
    49b8:	00489513          	slli	a0,a7,0x4
    49bc:	011508b3          	add	a7,a0,a7
    49c0:	00001537          	lui	a0,0x1
    49c4:	40a40533          	sub	a0,s0,a0
    49c8:	5a053503          	ld	a0,1440(a0) # 15a0 <.LBB34_3+0xfc>
    49cc:	98843583          	ld	a1,-1656(s0)
    49d0:	00a58533          	add	a0,a1,a0
    49d4:	f8843583          	ld	a1,-120(s0)
    49d8:	00b50533          	add	a0,a0,a1
    49dc:	01150533          	add	a0,a0,a7
    49e0:	0055053b          	addw	a0,a0,t0
    49e4:	400005b7          	lui	a1,0x40000
    49e8:	98a43423          	sd	a0,-1656(s0)
    49ec:	00055463          	bgez	a0,49f4 <.LBB34_198>
    49f0:	c00005b7          	lui	a1,0xc0000

00000000000049f4 <.LBB34_198>:
    49f4:	94943023          	sd	s1,-1728(s0)
    49f8:	00001537          	lui	a0,0x1
    49fc:	40a40533          	sub	a0,s0,a0
    4a00:	59853503          	ld	a0,1432(a0) # 1598 <.LBB34_3+0xf4>
    4a04:	99043483          	ld	s1,-1648(s0)
    4a08:	00a48533          	add	a0,s1,a0
    4a0c:	f8043483          	ld	s1,-128(s0)
    4a10:	00950533          	add	a0,a0,s1
    4a14:	01150533          	add	a0,a0,a7
    4a18:	0055053b          	addw	a0,a0,t0
    4a1c:	400009b7          	lui	s3,0x40000
    4a20:	99343823          	sd	s3,-1648(s0)
    4a24:	98a43023          	sd	a0,-1664(s0)
    4a28:	00055663          	bgez	a0,4a34 <.LBB34_200>
    4a2c:	c0000537          	lui	a0,0xc0000
    4a30:	98a43823          	sd	a0,-1648(s0)

0000000000004a34 <.LBB34_200>:
    4a34:	8d743823          	sd	s7,-1840(s0)
    4a38:	00001537          	lui	a0,0x1
    4a3c:	40a40533          	sub	a0,s0,a0
    4a40:	59053503          	ld	a0,1424(a0) # 1590 <.LBB34_3+0xec>
    4a44:	99843483          	ld	s1,-1640(s0)
    4a48:	00a48533          	add	a0,s1,a0
    4a4c:	f7843483          	ld	s1,-136(s0)
    4a50:	00950533          	add	a0,a0,s1
    4a54:	01150533          	add	a0,a0,a7
    4a58:	0055053b          	addw	a0,a0,t0
    4a5c:	400004b7          	lui	s1,0x40000
    4a60:	98a43c23          	sd	a0,-1640(s0)
    4a64:	a9043983          	ld	s3,-1392(s0)
    4a68:	00055463          	bgez	a0,4a70 <.LBB34_202>
    4a6c:	c00004b7          	lui	s1,0xc0000

0000000000004a70 <.LBB34_202>:
    4a70:	00001537          	lui	a0,0x1
    4a74:	40a40533          	sub	a0,s0,a0
    4a78:	7b253c23          	sd	s2,1976(a0) # 17b8 <.LBB34_3+0x314>
    4a7c:	00001537          	lui	a0,0x1
    4a80:	40a40533          	sub	a0,s0,a0
    4a84:	58853503          	ld	a0,1416(a0) # 1588 <.LBB34_3+0xe4>
    4a88:	9a043903          	ld	s2,-1632(s0)
    4a8c:	00a90533          	add	a0,s2,a0
    4a90:	f7043903          	ld	s2,-144(s0)
    4a94:	01250533          	add	a0,a0,s2
    4a98:	01150533          	add	a0,a0,a7
    4a9c:	0055053b          	addw	a0,a0,t0
    4aa0:	40000bb7          	lui	s7,0x40000
    4aa4:	9b743023          	sd	s7,-1632(s0)
    4aa8:	8ea43823          	sd	a0,-1808(s0)
    4aac:	00055663          	bgez	a0,4ab8 <.LBB34_204>
    4ab0:	c0000537          	lui	a0,0xc0000
    4ab4:	9aa43023          	sd	a0,-1632(s0)

0000000000004ab8 <.LBB34_204>:
    4ab8:	00001537          	lui	a0,0x1
    4abc:	40a40533          	sub	a0,s0,a0
    4ac0:	74653023          	sd	t1,1856(a0) # 1740 <.LBB34_3+0x29c>
    4ac4:	00001537          	lui	a0,0x1
    4ac8:	40a40533          	sub	a0,s0,a0
    4acc:	5a853503          	ld	a0,1448(a0) # 15a8 <.LBB34_3+0x104>
    4ad0:	00a70533          	add	a0,a4,a0
    4ad4:	f6843703          	ld	a4,-152(s0)
    4ad8:	00e50533          	add	a0,a0,a4
    4adc:	01150533          	add	a0,a0,a7
    4ae0:	0055053b          	addw	a0,a0,t0
    4ae4:	40000937          	lui	s2,0x40000
    4ae8:	a8843b83          	ld	s7,-1400(s0)
    4aec:	84a43423          	sd	a0,-1976(s0)
    4af0:	00055463          	bgez	a0,4af8 <.LBB34_206>
    4af4:	c0000937          	lui	s2,0xc0000

0000000000004af8 <.LBB34_206>:
    4af8:	00001537          	lui	a0,0x1
    4afc:	40a40533          	sub	a0,s0,a0
    4b00:	6fd53023          	sd	t4,1760(a0) # 16e0 <.LBB34_3+0x23c>
    4b04:	00001537          	lui	a0,0x1
    4b08:	40a40533          	sub	a0,s0,a0
    4b0c:	5b053503          	ld	a0,1456(a0) # 15b0 <.LBB34_3+0x10c>
    4b10:	9b043303          	ld	t1,-1616(s0)
    4b14:	00a30533          	add	a0,t1,a0
    4b18:	f6043703          	ld	a4,-160(s0)
    4b1c:	00e50533          	add	a0,a0,a4
    4b20:	01150533          	add	a0,a0,a7
    4b24:	0055053b          	addw	a0,a0,t0
    4b28:	40000337          	lui	t1,0x40000
    4b2c:	9a643823          	sd	t1,-1616(s0)
    4b30:	00001737          	lui	a4,0x1
    4b34:	40e40733          	sub	a4,s0,a4
    4b38:	78a73023          	sd	a0,1920(a4) # 1780 <.LBB34_3+0x2dc>
    4b3c:	00055663          	bgez	a0,4b48 <.LBB34_208>
    4b40:	c0000537          	lui	a0,0xc0000
    4b44:	9aa43823          	sd	a0,-1616(s0)

0000000000004b48 <.LBB34_208>:
    4b48:	00001537          	lui	a0,0x1
    4b4c:	40a40533          	sub	a0,s0,a0
    4b50:	5b853503          	ld	a0,1464(a0) # 15b8 <.LBB34_3+0x114>
    4b54:	9b843303          	ld	t1,-1608(s0)
    4b58:	00a30533          	add	a0,t1,a0
    4b5c:	f5843703          	ld	a4,-168(s0)
    4b60:	00e50533          	add	a0,a0,a4
    4b64:	01150533          	add	a0,a0,a7
    4b68:	0055053b          	addw	a0,a0,t0
    4b6c:	40000737          	lui	a4,0x40000
    4b70:	a6843303          	ld	t1,-1432(s0)
    4b74:	00001eb7          	lui	t4,0x1
    4b78:	41d40eb3          	sub	t4,s0,t4
    4b7c:	72aeb823          	sd	a0,1840(t4) # 1730 <.LBB34_3+0x28c>
    4b80:	9c043e83          	ld	t4,-1600(s0)
    4b84:	00055463          	bgez	a0,4b8c <.LBB34_210>
    4b88:	c0000737          	lui	a4,0xc0000

0000000000004b8c <.LBB34_210>:
    4b8c:	00001537          	lui	a0,0x1
    4b90:	40a40533          	sub	a0,s0,a0
    4b94:	46d53823          	sd	a3,1136(a0) # 1470 <.LBB34_2+0x570>
    4b98:	00001537          	lui	a0,0x1
    4b9c:	40a40533          	sub	a0,s0,a0
    4ba0:	5c053503          	ld	a0,1472(a0) # 15c0 <.LBB34_3+0x11c>
    4ba4:	00ae8533          	add	a0,t4,a0
    4ba8:	f5043683          	ld	a3,-176(s0)
    4bac:	00d50533          	add	a0,a0,a3
    4bb0:	01150533          	add	a0,a0,a7
    4bb4:	0055053b          	addw	a0,a0,t0
    4bb8:	40000eb7          	lui	t4,0x40000
    4bbc:	9dd43023          	sd	t4,-1600(s0)
    4bc0:	000016b7          	lui	a3,0x1
    4bc4:	40d406b3          	sub	a3,s0,a3
    4bc8:	6ca6bc23          	sd	a0,1752(a3) # 16d8 <.LBB34_3+0x234>
    4bcc:	00055663          	bgez	a0,4bd8 <.LBB34_212>
    4bd0:	c0000537          	lui	a0,0xc0000
    4bd4:	9ca43023          	sd	a0,-1600(s0)

0000000000004bd8 <.LBB34_212>:
    4bd8:	00001537          	lui	a0,0x1
    4bdc:	40a40533          	sub	a0,s0,a0
    4be0:	b0e53423          	sd	a4,-1272(a0) # b08 <.LBB34_1+0x7fc>
    4be4:	00001537          	lui	a0,0x1
    4be8:	40a40533          	sub	a0,s0,a0
    4bec:	2fe53023          	sd	t5,736(a0) # 12e0 <.LBB34_2+0x3e0>
    4bf0:	00001537          	lui	a0,0x1
    4bf4:	40a40533          	sub	a0,s0,a0
    4bf8:	5c853503          	ld	a0,1480(a0) # 15c8 <.LBB34_3+0x124>
    4bfc:	00ac0533          	add	a0,s8,a0
    4c00:	f4843683          	ld	a3,-184(s0)
    4c04:	00d50533          	add	a0,a0,a3
    4c08:	01150533          	add	a0,a0,a7
    4c0c:	0055053b          	addw	a0,a0,t0
    4c10:	400006b7          	lui	a3,0x40000
    4c14:	a4043e83          	ld	t4,-1472(s0)
    4c18:	00001737          	lui	a4,0x1
    4c1c:	40e40733          	sub	a4,s0,a4
    4c20:	4ca73823          	sd	a0,1232(a4) # 14d0 <.LBB34_3+0x2c>
    4c24:	00055463          	bgez	a0,4c2c <.LBB34_214>
    4c28:	c00006b7          	lui	a3,0xc0000

0000000000004c2c <.LBB34_214>:
    4c2c:	00001537          	lui	a0,0x1
    4c30:	40a40533          	sub	a0,s0,a0
    4c34:	5d053503          	ld	a0,1488(a0) # 15d0 <.LBB34_3+0x12c>
    4c38:	9d043f03          	ld	t5,-1584(s0)
    4c3c:	00af0533          	add	a0,t5,a0
    4c40:	f4043703          	ld	a4,-192(s0)
    4c44:	00e50533          	add	a0,a0,a4
    4c48:	01150533          	add	a0,a0,a7
    4c4c:	0055053b          	addw	a0,a0,t0
    4c50:	40000f37          	lui	t5,0x40000
    4c54:	9de43823          	sd	t5,-1584(s0)
    4c58:	00001737          	lui	a4,0x1
    4c5c:	40e40733          	sub	a4,s0,a4
    4c60:	46a73423          	sd	a0,1128(a4) # 1468 <.LBB34_2+0x568>
    4c64:	00055663          	bgez	a0,4c70 <.LBB34_216>
    4c68:	c0000537          	lui	a0,0xc0000
    4c6c:	9ca43823          	sd	a0,-1584(s0)

0000000000004c70 <.LBB34_216>:
    4c70:	00001537          	lui	a0,0x1
    4c74:	40a40533          	sub	a0,s0,a0
    4c78:	34c53823          	sd	a2,848(a0) # 1350 <.LBB34_2+0x450>
    4c7c:	00001537          	lui	a0,0x1
    4c80:	40a40533          	sub	a0,s0,a0
    4c84:	5d853503          	ld	a0,1496(a0) # 15d8 <.LBB34_3+0x134>
    4c88:	9d843603          	ld	a2,-1576(s0)
    4c8c:	00a60533          	add	a0,a2,a0
    4c90:	f1043603          	ld	a2,-240(s0)
    4c94:	00c50533          	add	a0,a0,a2
    4c98:	01150533          	add	a0,a0,a7
    4c9c:	0055053b          	addw	a0,a0,t0
    4ca0:	9de43c23          	sd	t5,-1576(s0)
    4ca4:	a2043f03          	ld	t5,-1504(s0)
    4ca8:	00001637          	lui	a2,0x1
    4cac:	40c40633          	sub	a2,s0,a2
    4cb0:	40a63423          	sd	a0,1032(a2) # 1408 <.LBB34_2+0x508>
    4cb4:	00055663          	bgez	a0,4cc0 <.LBB34_218>
    4cb8:	c0000537          	lui	a0,0xc0000
    4cbc:	9ca43c23          	sd	a0,-1576(s0)

0000000000004cc0 <.LBB34_218>:
    4cc0:	00001537          	lui	a0,0x1
    4cc4:	40a40533          	sub	a0,s0,a0
    4cc8:	5e053503          	ld	a0,1504(a0) # 15e0 <.LBB34_3+0x13c>
    4ccc:	9e043603          	ld	a2,-1568(s0)
    4cd0:	00a60533          	add	a0,a2,a0
    4cd4:	f0843603          	ld	a2,-248(s0)
    4cd8:	00c50533          	add	a0,a0,a2
    4cdc:	01150533          	add	a0,a0,a7
    4ce0:	0055053b          	addw	a0,a0,t0
    4ce4:	40000637          	lui	a2,0x40000
    4ce8:	9ec43023          	sd	a2,-1568(s0)
    4cec:	00001637          	lui	a2,0x1
    4cf0:	40c40633          	sub	a2,s0,a2
    4cf4:	3aa63423          	sd	a0,936(a2) # 13a8 <.LBB34_2+0x4a8>
    4cf8:	00055663          	bgez	a0,4d04 <.LBB34_220>
    4cfc:	c0000537          	lui	a0,0xc0000
    4d00:	9ea43023          	sd	a0,-1568(s0)

0000000000004d04 <.LBB34_220>:
    4d04:	00001537          	lui	a0,0x1
    4d08:	40a40533          	sub	a0,s0,a0
    4d0c:	5e853503          	ld	a0,1512(a0) # 15e8 <.LBB34_3+0x144>
    4d10:	9e843603          	ld	a2,-1560(s0)
    4d14:	00a60533          	add	a0,a2,a0
    4d18:	f0043603          	ld	a2,-256(s0)
    4d1c:	00c50533          	add	a0,a0,a2
    4d20:	01150533          	add	a0,a0,a7
    4d24:	0055053b          	addw	a0,a0,t0
    4d28:	40000c37          	lui	s8,0x40000
    4d2c:	9f843603          	ld	a2,-1544(s0)
    4d30:	00001737          	lui	a4,0x1
    4d34:	40e40733          	sub	a4,s0,a4
    4d38:	34a73423          	sd	a0,840(a4) # 1348 <.LBB34_2+0x448>
    4d3c:	00055463          	bgez	a0,4d44 <.LBB34_222>
    4d40:	c0000c37          	lui	s8,0xc0000

0000000000004d44 <.LBB34_222>:
    4d44:	00001537          	lui	a0,0x1
    4d48:	40a40533          	sub	a0,s0,a0
    4d4c:	35853023          	sd	s8,832(a0) # 1340 <.LBB34_2+0x440>
    4d50:	00001537          	lui	a0,0x1
    4d54:	40a40533          	sub	a0,s0,a0
    4d58:	5f053503          	ld	a0,1520(a0) # 15f0 <.LBB34_3+0x14c>
    4d5c:	9f043c03          	ld	s8,-1552(s0)
    4d60:	00ac0533          	add	a0,s8,a0
    4d64:	ef843703          	ld	a4,-264(s0)
    4d68:	00e50533          	add	a0,a0,a4
    4d6c:	01150533          	add	a0,a0,a7
    4d70:	0055053b          	addw	a0,a0,t0
    4d74:	40000737          	lui	a4,0x40000
    4d78:	00001c37          	lui	s8,0x1
    4d7c:	41840c33          	sub	s8,s0,s8
    4d80:	2cac3c23          	sd	a0,728(s8) # 12d8 <.LBB34_2+0x3d8>
    4d84:	00055463          	bgez	a0,4d8c <.LBB34_224>
    4d88:	c0000737          	lui	a4,0xc0000

0000000000004d8c <.LBB34_224>:
    4d8c:	00001537          	lui	a0,0x1
    4d90:	40a40533          	sub	a0,s0,a0
    4d94:	aee53c23          	sd	a4,-1288(a0) # af8 <.LBB34_1+0x7ec>
    4d98:	00001537          	lui	a0,0x1
    4d9c:	40a40533          	sub	a0,s0,a0
    4da0:	5f853503          	ld	a0,1528(a0) # 15f8 <.LBB34_3+0x154>
    4da4:	00a60533          	add	a0,a2,a0
    4da8:	ef043603          	ld	a2,-272(s0)
    4dac:	00c50533          	add	a0,a0,a2
    4db0:	01150533          	add	a0,a0,a7
    4db4:	0055053b          	addw	a0,a0,t0
    4db8:	40000637          	lui	a2,0x40000
    4dbc:	00001737          	lui	a4,0x1
    4dc0:	40e40733          	sub	a4,s0,a4
    4dc4:	26a73823          	sd	a0,624(a4) # 1270 <.LBB34_2+0x370>
    4dc8:	00055463          	bgez	a0,4dd0 <.LBB34_226>
    4dcc:	c0000637          	lui	a2,0xc0000

0000000000004dd0 <.LBB34_226>:
    4dd0:	9e743c23          	sd	t2,-1544(s0)
    4dd4:	00001537          	lui	a0,0x1
    4dd8:	40a40533          	sub	a0,s0,a0
    4ddc:	60053503          	ld	a0,1536(a0) # 1600 <.LBB34_3+0x15c>
    4de0:	a0043383          	ld	t2,-1536(s0)
    4de4:	00a38533          	add	a0,t2,a0
    4de8:	ee843703          	ld	a4,-280(s0)
    4dec:	00e50533          	add	a0,a0,a4
    4df0:	01150533          	add	a0,a0,a7
    4df4:	0055053b          	addw	a0,a0,t0
    4df8:	400003b7          	lui	t2,0x40000
    4dfc:	00001737          	lui	a4,0x1
    4e00:	40e40733          	sub	a4,s0,a4
    4e04:	22a73023          	sd	a0,544(a4) # 1220 <.LBB34_2+0x320>
    4e08:	00055463          	bgez	a0,4e10 <.LBB34_228>
    4e0c:	c00003b7          	lui	t2,0xc0000

0000000000004e10 <.LBB34_228>:
    4e10:	00001537          	lui	a0,0x1
    4e14:	40a40533          	sub	a0,s0,a0
    4e18:	20753823          	sd	t2,528(a0) # 1210 <.LBB34_2+0x310>
    4e1c:	00001537          	lui	a0,0x1
    4e20:	40a40533          	sub	a0,s0,a0
    4e24:	60853503          	ld	a0,1544(a0) # 1608 <.LBB34_3+0x164>
    4e28:	a0843383          	ld	t2,-1528(s0)
    4e2c:	00a38533          	add	a0,t2,a0
    4e30:	ee043703          	ld	a4,-288(s0)
    4e34:	00e50533          	add	a0,a0,a4
    4e38:	01150533          	add	a0,a0,a7
    4e3c:	0055053b          	addw	a0,a0,t0
    4e40:	40000737          	lui	a4,0x40000
    4e44:	000013b7          	lui	t2,0x1
    4e48:	407403b3          	sub	t2,s0,t2
    4e4c:	1aa3bc23          	sd	a0,440(t2) # 11b8 <.LBB34_2+0x2b8>
    4e50:	00055463          	bgez	a0,4e58 <.LBB34_230>
    4e54:	c0000737          	lui	a4,0xc0000

0000000000004e58 <.LBB34_230>:
    4e58:	a0f43423          	sd	a5,-1528(s0)
    4e5c:	00001537          	lui	a0,0x1
    4e60:	40a40533          	sub	a0,s0,a0
    4e64:	61053503          	ld	a0,1552(a0) # 1610 <.LBB34_3+0x16c>
    4e68:	a1043783          	ld	a5,-1520(s0)
    4e6c:	00a78533          	add	a0,a5,a0
    4e70:	ed843783          	ld	a5,-296(s0)
    4e74:	00f50533          	add	a0,a0,a5
    4e78:	01150533          	add	a0,a0,a7
    4e7c:	0055053b          	addw	a0,a0,t0
    4e80:	400007b7          	lui	a5,0x40000
    4e84:	000013b7          	lui	t2,0x1
    4e88:	407403b3          	sub	t2,s0,t2
    4e8c:	14a3bc23          	sd	a0,344(t2) # 1158 <.LBB34_2+0x258>
    4e90:	00055463          	bgez	a0,4e98 <.LBB34_232>
    4e94:	c00007b7          	lui	a5,0xc0000

0000000000004e98 <.LBB34_232>:
    4e98:	00001537          	lui	a0,0x1
    4e9c:	40a40533          	sub	a0,s0,a0
    4ea0:	14f53823          	sd	a5,336(a0) # 1150 <.LBB34_2+0x250>
    4ea4:	00001537          	lui	a0,0x1
    4ea8:	40a40533          	sub	a0,s0,a0
    4eac:	61853503          	ld	a0,1560(a0) # 1618 <.LBB34_3+0x174>
    4eb0:	a1843783          	ld	a5,-1512(s0)
    4eb4:	00a78533          	add	a0,a5,a0
    4eb8:	ed043783          	ld	a5,-304(s0)
    4ebc:	00f50533          	add	a0,a0,a5
    4ec0:	01150533          	add	a0,a0,a7
    4ec4:	0055053b          	addw	a0,a0,t0
    4ec8:	400007b7          	lui	a5,0x40000
    4ecc:	000013b7          	lui	t2,0x1
    4ed0:	407403b3          	sub	t2,s0,t2
    4ed4:	0ea3b823          	sd	a0,240(t2) # 10f0 <.LBB34_2+0x1f0>
    4ed8:	00055463          	bgez	a0,4ee0 <.LBB34_234>
    4edc:	c00007b7          	lui	a5,0xc0000

0000000000004ee0 <.LBB34_234>:
    4ee0:	00001537          	lui	a0,0x1
    4ee4:	40a40533          	sub	a0,s0,a0
    4ee8:	62053503          	ld	a0,1568(a0) # 1620 <.LBB34_3+0x17c>
    4eec:	00af0533          	add	a0,t5,a0
    4ef0:	ec843383          	ld	t2,-312(s0)
    4ef4:	00750533          	add	a0,a0,t2
    4ef8:	01150533          	add	a0,a0,a7
    4efc:	0055053b          	addw	a0,a0,t0
    4f00:	400003b7          	lui	t2,0x40000
    4f04:	00001f37          	lui	t5,0x1
    4f08:	41e40f33          	sub	t5,s0,t5
    4f0c:	06af3c23          	sd	a0,120(t5) # 1078 <.LBB34_2+0x178>
    4f10:	00055463          	bgez	a0,4f18 <.LBB34_236>
    4f14:	c00003b7          	lui	t2,0xc0000

0000000000004f18 <.LBB34_236>:
    4f18:	00001537          	lui	a0,0x1
    4f1c:	40a40533          	sub	a0,s0,a0
    4f20:	06753823          	sd	t2,112(a0) # 1070 <.LBB34_2+0x170>
    4f24:	00001537          	lui	a0,0x1
    4f28:	40a40533          	sub	a0,s0,a0
    4f2c:	62853503          	ld	a0,1576(a0) # 1628 <.LBB34_3+0x184>
    4f30:	a2843383          	ld	t2,-1496(s0)
    4f34:	00a38533          	add	a0,t2,a0
    4f38:	ec043383          	ld	t2,-320(s0)
    4f3c:	00750533          	add	a0,a0,t2
    4f40:	01150533          	add	a0,a0,a7
    4f44:	0055053b          	addw	a0,a0,t0
    4f48:	400003b7          	lui	t2,0x40000
    4f4c:	00001f37          	lui	t5,0x1
    4f50:	41e40f33          	sub	t5,s0,t5
    4f54:	00af3823          	sd	a0,16(t5) # 1010 <.LBB34_2+0x110>
    4f58:	00055463          	bgez	a0,4f60 <.LBB34_238>
    4f5c:	c00003b7          	lui	t2,0xc0000

0000000000004f60 <.LBB34_238>:
    4f60:	00001537          	lui	a0,0x1
    4f64:	40a40533          	sub	a0,s0,a0
    4f68:	00753423          	sd	t2,8(a0) # 1008 <.LBB34_2+0x108>
    4f6c:	00001537          	lui	a0,0x1
    4f70:	40a40533          	sub	a0,s0,a0
    4f74:	63053503          	ld	a0,1584(a0) # 1630 <.LBB34_3+0x18c>
    4f78:	a3043383          	ld	t2,-1488(s0)
    4f7c:	00a38533          	add	a0,t2,a0
    4f80:	eb843383          	ld	t2,-328(s0)
    4f84:	00750533          	add	a0,a0,t2
    4f88:	01150533          	add	a0,a0,a7
    4f8c:	0055053b          	addw	a0,a0,t0
    4f90:	400003b7          	lui	t2,0x40000
    4f94:	00001f37          	lui	t5,0x1
    4f98:	41e40f33          	sub	t5,s0,t5
    4f9c:	f8af3c23          	sd	a0,-104(t5) # f98 <.LBB34_2+0x98>
    4fa0:	00055463          	bgez	a0,4fa8 <.LBB34_240>
    4fa4:	c00003b7          	lui	t2,0xc0000

0000000000004fa8 <.LBB34_240>:
    4fa8:	a3843503          	ld	a0,-1480(s0)
    4fac:	00150533          	add	a0,a0,ra
    4fb0:	eb043f03          	ld	t5,-336(s0)
    4fb4:	01e50533          	add	a0,a0,t5
    4fb8:	01150533          	add	a0,a0,a7
    4fbc:	0055053b          	addw	a0,a0,t0
    4fc0:	40000f37          	lui	t5,0x40000
    4fc4:	00001c37          	lui	s8,0x1
    4fc8:	41840c33          	sub	s8,s0,s8
    4fcc:	f2ac3823          	sd	a0,-208(s8) # f30 <.LBB34_2+0x30>
    4fd0:	00055463          	bgez	a0,4fd8 <.LBB34_242>
    4fd4:	c0000f37          	lui	t5,0xc0000

0000000000004fd8 <.LBB34_242>:
    4fd8:	00001537          	lui	a0,0x1
    4fdc:	40a40533          	sub	a0,s0,a0
    4fe0:	c9553423          	sd	s5,-888(a0) # c88 <.LBB34_1+0x97c>
    4fe4:	016e8533          	add	a0,t4,s6
    4fe8:	ea843e83          	ld	t4,-344(s0)
    4fec:	01d50533          	add	a0,a0,t4
    4ff0:	01150533          	add	a0,a0,a7
    4ff4:	0055053b          	addw	a0,a0,t0
    4ff8:	40000eb7          	lui	t4,0x40000
    4ffc:	00001ab7          	lui	s5,0x1
    5000:	41540ab3          	sub	s5,s0,s5
    5004:	ecaab023          	sd	a0,-320(s5) # ec0 <.LBB34_1+0xbb4>
    5008:	00055463          	bgez	a0,5010 <.LBB34_244>
    500c:	c0000eb7          	lui	t4,0xc0000

0000000000005010 <.LBB34_244>:
    5010:	a4843503          	ld	a0,-1464(s0)
    5014:	01450533          	add	a0,a0,s4
    5018:	ea043a83          	ld	s5,-352(s0)
    501c:	01550533          	add	a0,a0,s5
    5020:	01150533          	add	a0,a0,a7
    5024:	0055053b          	addw	a0,a0,t0
    5028:	40000ab7          	lui	s5,0x40000
    502c:	00001c37          	lui	s8,0x1
    5030:	41840c33          	sub	s8,s0,s8
    5034:	e4ac3823          	sd	a0,-432(s8) # e50 <.LBB34_1+0xb44>
    5038:	00055463          	bgez	a0,5040 <.LBB34_246>
    503c:	c0000ab7          	lui	s5,0xc0000

0000000000005040 <.LBB34_246>:
    5040:	a5043503          	ld	a0,-1456(s0)
    5044:	00001c37          	lui	s8,0x1
    5048:	41840c33          	sub	s8,s0,s8
    504c:	638c3c03          	ld	s8,1592(s8) # 1638 <.LBB34_3+0x194>
    5050:	01850533          	add	a0,a0,s8
    5054:	e9843c03          	ld	s8,-360(s0)
    5058:	01850533          	add	a0,a0,s8
    505c:	01150533          	add	a0,a0,a7
    5060:	0055053b          	addw	a0,a0,t0
    5064:	40000c37          	lui	s8,0x40000
    5068:	a5843823          	sd	s8,-1456(s0)
    506c:	00001c37          	lui	s8,0x1
    5070:	41840c33          	sub	s8,s0,s8
    5074:	deac3023          	sd	a0,-544(s8) # de0 <.LBB34_1+0xad4>
    5078:	00055663          	bgez	a0,5084 <.LBB34_248>
    507c:	c0000537          	lui	a0,0xc0000
    5080:	a4a43823          	sd	a0,-1456(s0)

0000000000005084 <.LBB34_248>:
    5084:	00001537          	lui	a0,0x1
    5088:	40a40533          	sub	a0,s0,a0
    508c:	e5553423          	sd	s5,-440(a0) # e48 <.LBB34_1+0xb3c>
    5090:	a5843503          	ld	a0,-1448(s0)
    5094:	00001ab7          	lui	s5,0x1
    5098:	41540ab3          	sub	s5,s0,s5
    509c:	640aba83          	ld	s5,1600(s5) # 1640 <.LBB34_3+0x19c>
    50a0:	01550533          	add	a0,a0,s5
    50a4:	e9043a83          	ld	s5,-368(s0)
    50a8:	01550533          	add	a0,a0,s5
    50ac:	01150533          	add	a0,a0,a7
    50b0:	0055053b          	addw	a0,a0,t0
    50b4:	40000ab7          	lui	s5,0x40000
    50b8:	00001c37          	lui	s8,0x1
    50bc:	41840c33          	sub	s8,s0,s8
    50c0:	d6ac3c23          	sd	a0,-648(s8) # d78 <.LBB34_1+0xa6c>
    50c4:	00055463          	bgez	a0,50cc <.LBB34_250>
    50c8:	c0000ab7          	lui	s5,0xc0000

00000000000050cc <.LBB34_250>:
    50cc:	00001537          	lui	a0,0x1
    50d0:	40a40533          	sub	a0,s0,a0
    50d4:	d7553823          	sd	s5,-656(a0) # d70 <.LBB34_1+0xa64>
    50d8:	a6043503          	ld	a0,-1440(s0)
    50dc:	00001ab7          	lui	s5,0x1
    50e0:	41540ab3          	sub	s5,s0,s5
    50e4:	648aba83          	ld	s5,1608(s5) # 1648 <.LBB34_3+0x1a4>
    50e8:	01550533          	add	a0,a0,s5
    50ec:	e8843a83          	ld	s5,-376(s0)
    50f0:	01550533          	add	a0,a0,s5
    50f4:	01150533          	add	a0,a0,a7
    50f8:	0055053b          	addw	a0,a0,t0
    50fc:	40000ab7          	lui	s5,0x40000
    5100:	00001c37          	lui	s8,0x1
    5104:	41840c33          	sub	s8,s0,s8
    5108:	ceac3c23          	sd	a0,-776(s8) # cf8 <.LBB34_1+0x9ec>
    510c:	00055463          	bgez	a0,5114 <.LBB34_252>
    5110:	c0000ab7          	lui	s5,0xc0000

0000000000005114 <.LBB34_252>:
    5114:	00001537          	lui	a0,0x1
    5118:	40a40533          	sub	a0,s0,a0
    511c:	65053503          	ld	a0,1616(a0) # 1650 <.LBB34_3+0x1ac>
    5120:	00a30533          	add	a0,t1,a0
    5124:	e8043303          	ld	t1,-384(s0)
    5128:	00650533          	add	a0,a0,t1
    512c:	01150533          	add	a0,a0,a7
    5130:	0055053b          	addw	a0,a0,t0
    5134:	40000337          	lui	t1,0x40000
    5138:	00001c37          	lui	s8,0x1
    513c:	41840c33          	sub	s8,s0,s8
    5140:	c8ac3023          	sd	a0,-896(s8) # c80 <.LBB34_1+0x974>
    5144:	00055463          	bgez	a0,514c <.LBB34_254>
    5148:	c0000337          	lui	t1,0xc0000

000000000000514c <.LBB34_254>:
    514c:	a7043503          	ld	a0,-1424(s0)
    5150:	01f50533          	add	a0,a0,t6
    5154:	e7843c03          	ld	s8,-392(s0)
    5158:	01850533          	add	a0,a0,s8
    515c:	01150533          	add	a0,a0,a7
    5160:	0055053b          	addw	a0,a0,t0
    5164:	40000c37          	lui	s8,0x40000
    5168:	f8b43823          	sd	a1,-112(s0)
    516c:	000015b7          	lui	a1,0x1
    5170:	40b405b3          	sub	a1,s0,a1
    5174:	c0a5bc23          	sd	a0,-1000(a1) # c18 <.LBB34_1+0x90c>
    5178:	f9043583          	ld	a1,-112(s0)
    517c:	00055463          	bgez	a0,5184 <.LBB34_256>
    5180:	c0000c37          	lui	s8,0xc0000

0000000000005184 <.LBB34_256>:
    5184:	a7a43823          	sd	s10,-1424(s0)
    5188:	a7843503          	ld	a0,-1416(s0)
    518c:	01c50533          	add	a0,a0,t3
    5190:	e7043d03          	ld	s10,-400(s0)
    5194:	01a50533          	add	a0,a0,s10
    5198:	01150533          	add	a0,a0,a7
    519c:	0055053b          	addw	a0,a0,t0
    51a0:	40000d37          	lui	s10,0x40000
    51a4:	f8b43823          	sd	a1,-112(s0)
    51a8:	000015b7          	lui	a1,0x1
    51ac:	40b405b3          	sub	a1,s0,a1
    51b0:	baa5b823          	sd	a0,-1104(a1) # bb0 <.LBB34_1+0x8a4>
    51b4:	f9043583          	ld	a1,-112(s0)
    51b8:	00055463          	bgez	a0,51c0 <.LBB34_258>
    51bc:	c0000d37          	lui	s10,0xc0000

00000000000051c0 <.LBB34_258>:
    51c0:	00001537          	lui	a0,0x1
    51c4:	40a40533          	sub	a0,s0,a0
    51c8:	bba53423          	sd	s10,-1112(a0) # ba8 <.LBB34_1+0x89c>
    51cc:	a6b43c23          	sd	a1,-1416(s0)
    51d0:	a8043503          	ld	a0,-1408(s0)
    51d4:	01b50533          	add	a0,a0,s11
    51d8:	e6843583          	ld	a1,-408(s0)
    51dc:	00b50533          	add	a0,a0,a1
    51e0:	01150533          	add	a0,a0,a7
    51e4:	0055053b          	addw	a0,a0,t0
    51e8:	400005b7          	lui	a1,0x40000
    51ec:	aa043d03          	ld	s10,-1376(s0)
    51f0:	000018b7          	lui	a7,0x1
    51f4:	411408b3          	sub	a7,s0,a7
    51f8:	b4a8b423          	sd	a0,-1208(a7) # b48 <.LBB34_1+0x83c>
    51fc:	00055463          	bgez	a0,5204 <.LBB34_260>
    5200:	c00005b7          	lui	a1,0xc0000

0000000000005204 <.LBB34_260>:
    5204:	00001537          	lui	a0,0x1
    5208:	40a40533          	sub	a0,s0,a0
    520c:	b4b53023          	sd	a1,-1216(a0) # b40 <.LBB34_1+0x834>
    5210:	00001537          	lui	a0,0x1
    5214:	40a40533          	sub	a0,s0,a0
    5218:	51053583          	ld	a1,1296(a0) # 1510 <.LBB34_3+0x6c>
    521c:	00459513          	slli	a0,a1,0x4
    5220:	00b50533          	add	a0,a0,a1
    5224:	000015b7          	lui	a1,0x1
    5228:	40b405b3          	sub	a1,s0,a1
    522c:	5a05b583          	ld	a1,1440(a1) # 15a0 <.LBB34_3+0xfc>
    5230:	00bb85b3          	add	a1,s7,a1
    5234:	f8843883          	ld	a7,-120(s0)
    5238:	011585b3          	add	a1,a1,a7
    523c:	00a585b3          	add	a1,a1,a0
    5240:	005585bb          	addw	a1,a1,t0
    5244:	400008b7          	lui	a7,0x40000
    5248:	a9143423          	sd	a7,-1400(s0)
    524c:	b6843883          	ld	a7,-1176(s0)
    5250:	a6b43423          	sd	a1,-1432(s0)
    5254:	0005d663          	bgez	a1,5260 <.LBB34_262>
    5258:	c00005b7          	lui	a1,0xc0000
    525c:	a8b43423          	sd	a1,-1400(s0)

0000000000005260 <.LBB34_262>:
    5260:	000015b7          	lui	a1,0x1
    5264:	40b405b3          	sub	a1,s0,a1
    5268:	0ef5b423          	sd	a5,232(a1) # 10e8 <.LBB34_2+0x1e8>
    526c:	000015b7          	lui	a1,0x1
    5270:	40b405b3          	sub	a1,s0,a1
    5274:	5985b583          	ld	a1,1432(a1) # 1598 <.LBB34_3+0xf4>
    5278:	00b985b3          	add	a1,s3,a1
    527c:	f8043783          	ld	a5,-128(s0)
    5280:	00f585b3          	add	a1,a1,a5
    5284:	00a585b3          	add	a1,a1,a0
    5288:	005585bb          	addw	a1,a1,t0
    528c:	400009b7          	lui	s3,0x40000
    5290:	a4b43c23          	sd	a1,-1448(s0)
    5294:	0005d463          	bgez	a1,529c <.LBB34_264>
    5298:	c00009b7          	lui	s3,0xc0000

000000000000529c <.LBB34_264>:
    529c:	000015b7          	lui	a1,0x1
    52a0:	40b405b3          	sub	a1,s0,a1
    52a4:	5905b583          	ld	a1,1424(a1) # 1590 <.LBB34_3+0xec>
    52a8:	a9843783          	ld	a5,-1384(s0)
    52ac:	00b785b3          	add	a1,a5,a1
    52b0:	f7843783          	ld	a5,-136(s0)
    52b4:	00f585b3          	add	a1,a1,a5
    52b8:	00a585b3          	add	a1,a1,a0
    52bc:	005585bb          	addw	a1,a1,t0
    52c0:	400007b7          	lui	a5,0x40000
    52c4:	a8f43c23          	sd	a5,-1384(s0)
    52c8:	a6b43023          	sd	a1,-1440(s0)
    52cc:	0005d663          	bgez	a1,52d8 <.LBB34_266>
    52d0:	c00005b7          	lui	a1,0xc0000
    52d4:	a8b43c23          	sd	a1,-1384(s0)

00000000000052d8 <.LBB34_266>:
    52d8:	000015b7          	lui	a1,0x1
    52dc:	40b405b3          	sub	a1,s0,a1
    52e0:	c665bc23          	sd	t1,-904(a1) # c78 <.LBB34_1+0x96c>
    52e4:	000015b7          	lui	a1,0x1
    52e8:	40b405b3          	sub	a1,s0,a1
    52ec:	5885b583          	ld	a1,1416(a1) # 1588 <.LBB34_3+0xe4>
    52f0:	00bd05b3          	add	a1,s10,a1
    52f4:	f7043783          	ld	a5,-144(s0)
    52f8:	00f585b3          	add	a1,a1,a5
    52fc:	00a585b3          	add	a1,a1,a0
    5300:	005585bb          	addw	a1,a1,t0
    5304:	400007b7          	lui	a5,0x40000
    5308:	a4b43423          	sd	a1,-1464(s0)
    530c:	0005d463          	bgez	a1,5314 <.LBB34_268>
    5310:	c00007b7          	lui	a5,0xc0000

0000000000005314 <.LBB34_268>:
    5314:	000015b7          	lui	a1,0x1
    5318:	40b405b3          	sub	a1,s0,a1
    531c:	5a85b583          	ld	a1,1448(a1) # 15a8 <.LBB34_3+0x104>
    5320:	aa843d03          	ld	s10,-1368(s0)
    5324:	00bd05b3          	add	a1,s10,a1
    5328:	f6843303          	ld	t1,-152(s0)
    532c:	006585b3          	add	a1,a1,t1
    5330:	00a585b3          	add	a1,a1,a0
    5334:	005585bb          	addw	a1,a1,t0
    5338:	40000bb7          	lui	s7,0x40000
    533c:	aab43423          	sd	a1,-1368(s0)
    5340:	0005d463          	bgez	a1,5348 <.LBB34_270>
    5344:	c0000bb7          	lui	s7,0xc0000

0000000000005348 <.LBB34_270>:
    5348:	000015b7          	lui	a1,0x1
    534c:	40b405b3          	sub	a1,s0,a1
    5350:	5b05b583          	ld	a1,1456(a1) # 15b0 <.LBB34_3+0x10c>
    5354:	00b805b3          	add	a1,a6,a1
    5358:	f6043803          	ld	a6,-160(s0)
    535c:	010585b3          	add	a1,a1,a6
    5360:	00a585b3          	add	a1,a1,a0
    5364:	005585bb          	addw	a1,a1,t0
    5368:	40000837          	lui	a6,0x40000
    536c:	a8b43823          	sd	a1,-1392(s0)
    5370:	0005d463          	bgez	a1,5378 <.LBB34_272>
    5374:	c0000837          	lui	a6,0xc0000

0000000000005378 <.LBB34_272>:
    5378:	a9043023          	sd	a6,-1408(s0)
    537c:	000015b7          	lui	a1,0x1
    5380:	40b405b3          	sub	a1,s0,a1
    5384:	5b85b583          	ld	a1,1464(a1) # 15b8 <.LBB34_3+0x114>
    5388:	ab843803          	ld	a6,-1352(s0)
    538c:	00b805b3          	add	a1,a6,a1
    5390:	f5843803          	ld	a6,-168(s0)
    5394:	010585b3          	add	a1,a1,a6
    5398:	00a585b3          	add	a1,a1,a0
    539c:	005585bb          	addw	a1,a1,t0
    53a0:	40000837          	lui	a6,0x40000
