
code.o:     file format elf64-littleriscv


Disassembly of section .text.main_dispatch_139_matmul_49x1280x320_i8xi8xi32:

0000000000000000 <main_dispatch_139_matmul_49x1280x320_i8xi8xi32>:
       0:	f1501173          	csrrw	sp,0xf15,zero

0000000000000004 <.Lfunc_begin103>:
       4:	81010113          	addi	sp,sp,-2032
       8:	7e113423          	sd	ra,2024(sp)
       c:	7e813023          	sd	s0,2016(sp)
      10:	7c913c23          	sd	s1,2008(sp)
      14:	7d213823          	sd	s2,2000(sp)
      18:	7d313423          	sd	s3,1992(sp)
      1c:	7d413023          	sd	s4,1984(sp)
      20:	7b513c23          	sd	s5,1976(sp)
      24:	7b613823          	sd	s6,1968(sp)
      28:	7b713423          	sd	s7,1960(sp)
      2c:	7b813023          	sd	s8,1952(sp)
      30:	79913c23          	sd	s9,1944(sp)
      34:	79a13823          	sd	s10,1936(sp)
      38:	79b13423          	sd	s11,1928(sp)
      3c:	7f010413          	addi	s0,sp,2032
      40:	80010113          	addi	sp,sp,-2048
      44:	cd010113          	addi	sp,sp,-816
      48:	0205b583          	ld	a1,32(a1)
      4c:	00000513          	li	a0,0
      50:	0005b783          	ld	a5,0(a1)
      54:	0000c637          	lui	a2,0xc
      58:	8c06069b          	addiw	a3,a2,-1856 # b8c0 <.LBB103_1050+0x2c>
      5c:	0085b703          	ld	a4,8(a1)
      60:	00d786b3          	add	a3,a5,a3
      64:	00001837          	lui	a6,0x1
      68:	41040833          	sub	a6,s0,a6
      6c:	d8d83023          	sd	a3,-640(a6) # d80 <.LBB103_3+0xaa8>
      70:	001d36b7          	lui	a3,0x1d3
      74:	3806869b          	addiw	a3,a3,896 # 1d3380 <.Lfunc_end80+0x1aa9b4>
      78:	00d70fb3          	add	t6,a4,a3
      7c:	000106b7          	lui	a3,0x10
      80:	b806869b          	addiw	a3,a3,-1152 # fb80 <.LBB77_1873+0x8>
      84:	00d706b3          	add	a3,a4,a3
      88:	00001837          	lui	a6,0x1
      8c:	41040833          	sub	a6,s0,a6
      90:	d6d83823          	sd	a3,-656(a6) # d70 <.LBB103_3+0xa98>
      94:	002376b7          	lui	a3,0x237
      98:	3806869b          	addiw	a3,a3,896 # 237380 <.Lfunc_end80+0x20e9b4>
      9c:	0105b583          	ld	a1,16(a1)
      a0:	00d706b3          	add	a3,a4,a3
      a4:	00001737          	lui	a4,0x1
      a8:	40e40733          	sub	a4,s0,a4
      ac:	d6d73423          	sd	a3,-664(a4) # d68 <.LBB103_3+0xa90>
      b0:	0000f6b7          	lui	a3,0xf
      b4:	6006869b          	addiw	a3,a3,1536 # f600 <.LBB63_1843>
      b8:	00d585b3          	add	a1,a1,a3
      bc:	000016b7          	lui	a3,0x1
      c0:	40d406b3          	sub	a3,s0,a3
      c4:	d0b6b423          	sd	a1,-760(a3) # d08 <.LBB103_3+0xa30>
      c8:	1806059b          	addiw	a1,a2,384
      cc:	00001637          	lui	a2,0x1
      d0:	40c40633          	sub	a2,s0,a2
      d4:	d0f63823          	sd	a5,-752(a2) # d10 <.LBB103_3+0xa38>
      d8:	00b785b3          	add	a1,a5,a1
      dc:	00001637          	lui	a2,0x1
      e0:	40c40633          	sub	a2,s0,a2
      e4:	d6b63c23          	sd	a1,-648(a2) # d78 <.LBB103_3+0xaa0>
      e8:	00500593          	li	a1,5
      ec:	00a59593          	slli	a1,a1,0xa
      f0:	00001637          	lui	a2,0x1
      f4:	40c40633          	sub	a2,s0,a2
      f8:	ceb63c23          	sd	a1,-776(a2) # cf8 <.LBB103_3+0xa20>
      fc:	01900593          	li	a1,25
     100:	00859593          	slli	a1,a1,0x8
     104:	00001637          	lui	a2,0x1
     108:	40c40633          	sub	a2,s0,a2
     10c:	ceb63823          	sd	a1,-784(a2) # cf0 <.LBB103_3+0xa18>
     110:	00f00593          	li	a1,15
     114:	00959593          	slli	a1,a1,0x9
     118:	00001637          	lui	a2,0x1
     11c:	40c40633          	sub	a2,s0,a2
     120:	ceb63423          	sd	a1,-792(a2) # ce8 <.LBB103_3+0xa10>
     124:	000025b7          	lui	a1,0x2
     128:	3005859b          	addiw	a1,a1,768 # 2300 <.LBB103_5+0xb00>
     12c:	00001637          	lui	a2,0x1
     130:	40c40633          	sub	a2,s0,a2
     134:	ceb63023          	sd	a1,-800(a2) # ce0 <.LBB103_3+0xa08>
     138:	6931c5b7          	lui	a1,0x6931c
     13c:	8985859b          	addiw	a1,a1,-1896 # 6931b898 <.Lfunc_end80+0x692f2ecc>
     140:	00001637          	lui	a2,0x1
     144:	40c40633          	sub	a2,s0,a2
     148:	d2b63023          	sd	a1,-736(a2) # d20 <.LBB103_3+0xa48>
     14c:	00100593          	li	a1,1
     150:	02359593          	slli	a1,a1,0x23
     154:	00001637          	lui	a2,0x1
     158:	40c40633          	sub	a2,s0,a2
     15c:	64b63823          	sd	a1,1616(a2) # 1650 <.LBB103_4+0x40c>
     160:	000015b7          	lui	a1,0x1
     164:	40b405b3          	sub	a1,s0,a1
     168:	d1f5bc23          	sd	t6,-744(a1) # d18 <.LBB103_3+0xa40>
     16c:	06c0006f          	j	1d8 <.LBB103_2>

0000000000000170 <.LBB103_1>:
     170:	00001537          	lui	a0,0x1
     174:	40a40533          	sub	a0,s0,a0
     178:	d0053683          	ld	a3,-768(a0) # d00 <.LBB103_3+0xa28>
     17c:	00868513          	addi	a0,a3,8
     180:	00500593          	li	a1,5
     184:	00959593          	slli	a1,a1,0x9
     188:	00001637          	lui	a2,0x1
     18c:	40c40633          	sub	a2,s0,a2
     190:	d8063603          	ld	a2,-640(a2) # d80 <.LBB103_3+0xaa8>
     194:	00b60633          	add	a2,a2,a1
     198:	00001737          	lui	a4,0x1
     19c:	40e40733          	sub	a4,s0,a4
     1a0:	d8c73023          	sd	a2,-640(a4) # d80 <.LBB103_3+0xaa8>
     1a4:	00001637          	lui	a2,0x1
     1a8:	40c40633          	sub	a2,s0,a2
     1ac:	d7863603          	ld	a2,-648(a2) # d78 <.LBB103_3+0xaa0>
     1b0:	00b60633          	add	a2,a2,a1
     1b4:	000015b7          	lui	a1,0x1
     1b8:	40b405b3          	sub	a1,s0,a1
     1bc:	d6c5bc23          	sd	a2,-648(a1) # d78 <.LBB103_3+0xaa0>
     1c0:	000015b7          	lui	a1,0x1
     1c4:	40b405b3          	sub	a1,s0,a1
     1c8:	d185bf83          	ld	t6,-744(a1) # d18 <.LBB103_3+0xa40>
     1cc:	02800593          	li	a1,40
     1d0:	00b6e463          	bltu	a3,a1,1d8 <.LBB103_2>
     1d4:	75d0a06f          	j	b130 <.LBB103_1030>

00000000000001d8 <.LBB103_2>:
     1d8:	00000593          	li	a1,0
     1dc:	00050693          	mv	a3,a0
     1e0:	00251513          	slli	a0,a0,0x2
     1e4:	00001637          	lui	a2,0x1
     1e8:	40c40633          	sub	a2,s0,a2
     1ec:	d1063603          	ld	a2,-752(a2) # d10 <.LBB103_3+0xa38>
     1f0:	00a60533          	add	a0,a2,a0
     1f4:	00001637          	lui	a2,0x1
     1f8:	40c40633          	sub	a2,s0,a2
     1fc:	64a63c23          	sd	a0,1624(a2) # 1658 <.LBB103_4+0x414>
     200:	50000513          	li	a0,1280
     204:	00001637          	lui	a2,0x1
     208:	40c40633          	sub	a2,s0,a2
     20c:	d0d63023          	sd	a3,-768(a2) # d00 <.LBB103_3+0xa28>
     210:	02a68533          	mul	a0,a3,a0
     214:	00001637          	lui	a2,0x1
     218:	40c40633          	sub	a2,s0,a2
     21c:	d0863603          	ld	a2,-760(a2) # d08 <.LBB103_3+0xa30>
     220:	00a60633          	add	a2,a2,a0
     224:	50060513          	addi	a0,a2,1280
     228:	000016b7          	lui	a3,0x1
     22c:	40d406b3          	sub	a3,s0,a3
     230:	d4a6bc23          	sd	a0,-680(a3) # d58 <.LBB103_3+0xa80>
     234:	7ff60513          	addi	a0,a2,2047
     238:	20150693          	addi	a3,a0,513
     23c:	00001737          	lui	a4,0x1
     240:	40e40733          	sub	a4,s0,a4
     244:	d4d73823          	sd	a3,-688(a4) # d50 <.LBB103_3+0xa78>
     248:	70150513          	addi	a0,a0,1793
     24c:	000016b7          	lui	a3,0x1
     250:	40d406b3          	sub	a3,s0,a3
     254:	d4a6b423          	sd	a0,-696(a3) # d48 <.LBB103_3+0xa70>
     258:	00001537          	lui	a0,0x1
     25c:	40a40533          	sub	a0,s0,a0
     260:	cf853503          	ld	a0,-776(a0) # cf8 <.LBB103_3+0xa20>
     264:	00a60533          	add	a0,a2,a0
     268:	000016b7          	lui	a3,0x1
     26c:	40d406b3          	sub	a3,s0,a3
     270:	d4a6b023          	sd	a0,-704(a3) # d40 <.LBB103_3+0xa68>
     274:	00001537          	lui	a0,0x1
     278:	40a40533          	sub	a0,s0,a0
     27c:	cf053503          	ld	a0,-784(a0) # cf0 <.LBB103_3+0xa18>
     280:	00a60533          	add	a0,a2,a0
     284:	000016b7          	lui	a3,0x1
     288:	40d406b3          	sub	a3,s0,a3
     28c:	d2a6bc23          	sd	a0,-712(a3) # d38 <.LBB103_3+0xa60>
     290:	00001537          	lui	a0,0x1
     294:	40a40533          	sub	a0,s0,a0
     298:	ce853503          	ld	a0,-792(a0) # ce8 <.LBB103_3+0xa10>
     29c:	00a60533          	add	a0,a2,a0
     2a0:	000016b7          	lui	a3,0x1
     2a4:	40d406b3          	sub	a3,s0,a3
     2a8:	d2a6b823          	sd	a0,-720(a3) # d30 <.LBB103_3+0xa58>
     2ac:	00001537          	lui	a0,0x1
     2b0:	40a40533          	sub	a0,s0,a0
     2b4:	ce053503          	ld	a0,-800(a0) # ce0 <.LBB103_3+0xa08>
     2b8:	000016b7          	lui	a3,0x1
     2bc:	40d406b3          	sub	a3,s0,a3
     2c0:	d6c6b023          	sd	a2,-672(a3) # d60 <.LBB103_3+0xa88>
     2c4:	00a60533          	add	a0,a2,a0
     2c8:	00001637          	lui	a2,0x1
     2cc:	40c40633          	sub	a2,s0,a2
     2d0:	d2a63423          	sd	a0,-728(a2) # d28 <.LBB103_3+0xa50>
     2d4:	7710006f          	j	1244 <.LBB103_4>

00000000000002d8 <.LBB103_3>:
     2d8:	080d4c93          	xori	s9,s10,128
     2dc:	00001c37          	lui	s8,0x1
     2e0:	41840c33          	sub	s8,s0,s8
     2e4:	d60c3c03          	ld	s8,-672(s8) # d60 <.LBB103_3+0xa88>
     2e8:	00001d37          	lui	s10,0x1
     2ec:	41a40d33          	sub	s10,s0,s10
     2f0:	660d3d03          	ld	s10,1632(s10) # 1660 <.LBB103_4+0x41c>
     2f4:	01ac0c33          	add	s8,s8,s10
     2f8:	019c01a3          	sb	s9,3(s8)
     2fc:	f8843c83          	ld	s9,-120(s0)
     300:	080ccc93          	xori	s9,s9,128
     304:	019c0123          	sb	s9,2(s8)
     308:	f8043c83          	ld	s9,-128(s0)
     30c:	080ccc93          	xori	s9,s9,128
     310:	019c00a3          	sb	s9,1(s8)
     314:	f7843c83          	ld	s9,-136(s0)
     318:	080ccc93          	xori	s9,s9,128
     31c:	019c0023          	sb	s9,0(s8)
     320:	f7043c83          	ld	s9,-144(s0)
     324:	080ccc93          	xori	s9,s9,128
     328:	019c0223          	sb	s9,4(s8)
     32c:	f6843c83          	ld	s9,-152(s0)
     330:	080ccc93          	xori	s9,s9,128
     334:	019c02a3          	sb	s9,5(s8)
     338:	f6043c83          	ld	s9,-160(s0)
     33c:	080ccc93          	xori	s9,s9,128
     340:	019c0323          	sb	s9,6(s8)
     344:	f5843c83          	ld	s9,-168(s0)
     348:	080ccc93          	xori	s9,s9,128
     34c:	019c03a3          	sb	s9,7(s8)
     350:	f5043c83          	ld	s9,-176(s0)
     354:	080ccc93          	xori	s9,s9,128
     358:	019c0423          	sb	s9,8(s8)
     35c:	f4843c83          	ld	s9,-184(s0)
     360:	080ccc93          	xori	s9,s9,128
     364:	019c04a3          	sb	s9,9(s8)
     368:	f4043c83          	ld	s9,-192(s0)
     36c:	080ccc93          	xori	s9,s9,128
     370:	019c0523          	sb	s9,10(s8)
     374:	f3843c83          	ld	s9,-200(s0)
     378:	080ccc93          	xori	s9,s9,128
     37c:	019c05a3          	sb	s9,11(s8)
     380:	f3043c83          	ld	s9,-208(s0)
     384:	080ccc93          	xori	s9,s9,128
     388:	019c0623          	sb	s9,12(s8)
     38c:	f2843c83          	ld	s9,-216(s0)
     390:	080ccc93          	xori	s9,s9,128
     394:	019c06a3          	sb	s9,13(s8)
     398:	f2043c83          	ld	s9,-224(s0)
     39c:	080ccc93          	xori	s9,s9,128
     3a0:	019c0723          	sb	s9,14(s8)
     3a4:	f1843c83          	ld	s9,-232(s0)
     3a8:	080ccc93          	xori	s9,s9,128
     3ac:	019c07a3          	sb	s9,15(s8)
     3b0:	f1043c83          	ld	s9,-240(s0)
     3b4:	080ccc93          	xori	s9,s9,128
     3b8:	019c0823          	sb	s9,16(s8)
     3bc:	f0843c83          	ld	s9,-248(s0)
     3c0:	080ccc93          	xori	s9,s9,128
     3c4:	019c08a3          	sb	s9,17(s8)
     3c8:	f0043c83          	ld	s9,-256(s0)
     3cc:	080ccc93          	xori	s9,s9,128
     3d0:	019c0923          	sb	s9,18(s8)
     3d4:	ef843c83          	ld	s9,-264(s0)
     3d8:	080ccc93          	xori	s9,s9,128
     3dc:	019c09a3          	sb	s9,19(s8)
     3e0:	ef043c83          	ld	s9,-272(s0)
     3e4:	080ccc93          	xori	s9,s9,128
     3e8:	019c0a23          	sb	s9,20(s8)
     3ec:	ee043c83          	ld	s9,-288(s0)
     3f0:	080ccc93          	xori	s9,s9,128
     3f4:	019c0aa3          	sb	s9,21(s8)
     3f8:	ed843c83          	ld	s9,-296(s0)
     3fc:	080ccc93          	xori	s9,s9,128
     400:	019c0b23          	sb	s9,22(s8)
     404:	ed043c83          	ld	s9,-304(s0)
     408:	080ccc93          	xori	s9,s9,128
     40c:	019c0ba3          	sb	s9,23(s8)
     410:	ea843c83          	ld	s9,-344(s0)
     414:	080ccc93          	xori	s9,s9,128
     418:	019c0c23          	sb	s9,24(s8)
     41c:	e7843c83          	ld	s9,-392(s0)
     420:	080ccc93          	xori	s9,s9,128
     424:	019c0ca3          	sb	s9,25(s8)
     428:	e5843c83          	ld	s9,-424(s0)
     42c:	080ccc93          	xori	s9,s9,128
     430:	019c0d23          	sb	s9,26(s8)
     434:	e2843c83          	ld	s9,-472(s0)
     438:	080ccc93          	xori	s9,s9,128
     43c:	019c0da3          	sb	s9,27(s8)
     440:	e2043c83          	ld	s9,-480(s0)
     444:	080ccc93          	xori	s9,s9,128
     448:	019c0e23          	sb	s9,28(s8)
     44c:	e1843c83          	ld	s9,-488(s0)
     450:	080ccc93          	xori	s9,s9,128
     454:	019c0ea3          	sb	s9,29(s8)
     458:	e1043c83          	ld	s9,-496(s0)
     45c:	080ccc93          	xori	s9,s9,128
     460:	019c0f23          	sb	s9,30(s8)
     464:	e0843c83          	ld	s9,-504(s0)
     468:	080ccc93          	xori	s9,s9,128
     46c:	019c0fa3          	sb	s9,31(s8)
     470:	e0043c03          	ld	s8,-512(s0)
     474:	080c4c93          	xori	s9,s8,128
     478:	00001c37          	lui	s8,0x1
     47c:	41840c33          	sub	s8,s0,s8
     480:	d58c3c03          	ld	s8,-680(s8) # d58 <.LBB103_3+0xa80>
     484:	01ac0c33          	add	s8,s8,s10
     488:	019c01a3          	sb	s9,3(s8)
     48c:	df843c83          	ld	s9,-520(s0)
     490:	080ccc93          	xori	s9,s9,128
     494:	019c0123          	sb	s9,2(s8)
     498:	c7043c83          	ld	s9,-912(s0)
     49c:	080ccc93          	xori	s9,s9,128
     4a0:	019c00a3          	sb	s9,1(s8)
     4a4:	c2843c83          	ld	s9,-984(s0)
     4a8:	080ccc93          	xori	s9,s9,128
     4ac:	019c0023          	sb	s9,0(s8)
     4b0:	be843c83          	ld	s9,-1048(s0)
     4b4:	080ccc93          	xori	s9,s9,128
     4b8:	019c0223          	sb	s9,4(s8)
     4bc:	ba043c83          	ld	s9,-1120(s0)
     4c0:	080ccc93          	xori	s9,s9,128
     4c4:	019c02a3          	sb	s9,5(s8)
     4c8:	b5843c83          	ld	s9,-1192(s0)
     4cc:	080ccc93          	xori	s9,s9,128
     4d0:	019c0323          	sb	s9,6(s8)
     4d4:	b1843c83          	ld	s9,-1256(s0)
     4d8:	080ccc93          	xori	s9,s9,128
     4dc:	019c03a3          	sb	s9,7(s8)
     4e0:	ad043c83          	ld	s9,-1328(s0)
     4e4:	080ccc93          	xori	s9,s9,128
     4e8:	019c0423          	sb	s9,8(s8)
     4ec:	a8043c83          	ld	s9,-1408(s0)
     4f0:	080ccc93          	xori	s9,s9,128
     4f4:	019c04a3          	sb	s9,9(s8)
     4f8:	a4043c83          	ld	s9,-1472(s0)
     4fc:	080ccc93          	xori	s9,s9,128
     500:	019c0523          	sb	s9,10(s8)
     504:	9f843c83          	ld	s9,-1544(s0)
     508:	080ccc93          	xori	s9,s9,128
     50c:	019c05a3          	sb	s9,11(s8)
     510:	9b843c83          	ld	s9,-1608(s0)
     514:	080ccc93          	xori	s9,s9,128
     518:	019c0623          	sb	s9,12(s8)
     51c:	97843c83          	ld	s9,-1672(s0)
     520:	080ccc93          	xori	s9,s9,128
     524:	019c06a3          	sb	s9,13(s8)
     528:	93043c83          	ld	s9,-1744(s0)
     52c:	080ccc93          	xori	s9,s9,128
     530:	019c0723          	sb	s9,14(s8)
     534:	8f843c83          	ld	s9,-1800(s0)
     538:	080ccc93          	xori	s9,s9,128
     53c:	019c07a3          	sb	s9,15(s8)
     540:	8b843c83          	ld	s9,-1864(s0)
     544:	080ccc93          	xori	s9,s9,128
     548:	019c0823          	sb	s9,16(s8)
     54c:	87043c83          	ld	s9,-1936(s0)
     550:	080ccc93          	xori	s9,s9,128
     554:	019c08a3          	sb	s9,17(s8)
     558:	83043c83          	ld	s9,-2000(s0)
     55c:	080ccc93          	xori	s9,s9,128
     560:	019c0923          	sb	s9,18(s8)
     564:	00001cb7          	lui	s9,0x1
     568:	41940cb3          	sub	s9,s0,s9
     56c:	7e8cbc83          	ld	s9,2024(s9) # 17e8 <.LBB103_4+0x5a4>
     570:	080ccc93          	xori	s9,s9,128
     574:	019c09a3          	sb	s9,19(s8)
     578:	00001cb7          	lui	s9,0x1
     57c:	41940cb3          	sub	s9,s0,s9
     580:	7a8cbc83          	ld	s9,1960(s9) # 17a8 <.LBB103_4+0x564>
     584:	080ccc93          	xori	s9,s9,128
     588:	019c0a23          	sb	s9,20(s8)
     58c:	00001cb7          	lui	s9,0x1
     590:	41940cb3          	sub	s9,s0,s9
     594:	778cbc83          	ld	s9,1912(s9) # 1778 <.LBB103_4+0x534>
     598:	080ccc93          	xori	s9,s9,128
     59c:	019c0aa3          	sb	s9,21(s8)
     5a0:	00001cb7          	lui	s9,0x1
     5a4:	41940cb3          	sub	s9,s0,s9
     5a8:	770cbc83          	ld	s9,1904(s9) # 1770 <.LBB103_4+0x52c>
     5ac:	080ccc93          	xori	s9,s9,128
     5b0:	019c0b23          	sb	s9,22(s8)
     5b4:	00001cb7          	lui	s9,0x1
     5b8:	41940cb3          	sub	s9,s0,s9
     5bc:	768cbc83          	ld	s9,1896(s9) # 1768 <.LBB103_4+0x524>
     5c0:	080ccc93          	xori	s9,s9,128
     5c4:	019c0ba3          	sb	s9,23(s8)
     5c8:	00001cb7          	lui	s9,0x1
     5cc:	41940cb3          	sub	s9,s0,s9
     5d0:	760cbc83          	ld	s9,1888(s9) # 1760 <.LBB103_4+0x51c>
     5d4:	080ccc93          	xori	s9,s9,128
     5d8:	019c0c23          	sb	s9,24(s8)
     5dc:	00001cb7          	lui	s9,0x1
     5e0:	41940cb3          	sub	s9,s0,s9
     5e4:	758cbc83          	ld	s9,1880(s9) # 1758 <.LBB103_4+0x514>
     5e8:	080ccc93          	xori	s9,s9,128
     5ec:	019c0ca3          	sb	s9,25(s8)
     5f0:	00001cb7          	lui	s9,0x1
     5f4:	41940cb3          	sub	s9,s0,s9
     5f8:	750cbc83          	ld	s9,1872(s9) # 1750 <.LBB103_4+0x50c>
     5fc:	080ccc93          	xori	s9,s9,128
     600:	019c0d23          	sb	s9,26(s8)
     604:	00001cb7          	lui	s9,0x1
     608:	41940cb3          	sub	s9,s0,s9
     60c:	748cbc83          	ld	s9,1864(s9) # 1748 <.LBB103_4+0x504>
     610:	080ccc93          	xori	s9,s9,128
     614:	019c0da3          	sb	s9,27(s8)
     618:	00001cb7          	lui	s9,0x1
     61c:	41940cb3          	sub	s9,s0,s9
     620:	740cbc83          	ld	s9,1856(s9) # 1740 <.LBB103_4+0x4fc>
     624:	080ccc93          	xori	s9,s9,128
     628:	019c0e23          	sb	s9,28(s8)
     62c:	00001cb7          	lui	s9,0x1
     630:	41940cb3          	sub	s9,s0,s9
     634:	738cbc83          	ld	s9,1848(s9) # 1738 <.LBB103_4+0x4f4>
     638:	080ccc93          	xori	s9,s9,128
     63c:	019c0ea3          	sb	s9,29(s8)
     640:	00001cb7          	lui	s9,0x1
     644:	41940cb3          	sub	s9,s0,s9
     648:	730cbc83          	ld	s9,1840(s9) # 1730 <.LBB103_4+0x4ec>
     64c:	080ccc93          	xori	s9,s9,128
     650:	019c0f23          	sb	s9,30(s8)
     654:	00001cb7          	lui	s9,0x1
     658:	41940cb3          	sub	s9,s0,s9
     65c:	728cbc83          	ld	s9,1832(s9) # 1728 <.LBB103_4+0x4e4>
     660:	080ccc93          	xori	s9,s9,128
     664:	019c0fa3          	sb	s9,31(s8)
     668:	00001c37          	lui	s8,0x1
     66c:	41840c33          	sub	s8,s0,s8
     670:	720c3c03          	ld	s8,1824(s8) # 1720 <.LBB103_4+0x4dc>
     674:	080c4c93          	xori	s9,s8,128
     678:	00001c37          	lui	s8,0x1
     67c:	41840c33          	sub	s8,s0,s8
     680:	d50c3c03          	ld	s8,-688(s8) # d50 <.LBB103_3+0xa78>
     684:	01ac0c33          	add	s8,s8,s10
     688:	019c01a3          	sb	s9,3(s8)
     68c:	00001cb7          	lui	s9,0x1
     690:	41940cb3          	sub	s9,s0,s9
     694:	718cbc83          	ld	s9,1816(s9) # 1718 <.LBB103_4+0x4d4>
     698:	080ccc93          	xori	s9,s9,128
     69c:	019c0123          	sb	s9,2(s8)
     6a0:	00001cb7          	lui	s9,0x1
     6a4:	41940cb3          	sub	s9,s0,s9
     6a8:	710cbc83          	ld	s9,1808(s9) # 1710 <.LBB103_4+0x4cc>
     6ac:	080ccc93          	xori	s9,s9,128
     6b0:	019c00a3          	sb	s9,1(s8)
     6b4:	00001cb7          	lui	s9,0x1
     6b8:	41940cb3          	sub	s9,s0,s9
     6bc:	708cbc83          	ld	s9,1800(s9) # 1708 <.LBB103_4+0x4c4>
     6c0:	080ccc93          	xori	s9,s9,128
     6c4:	019c0023          	sb	s9,0(s8)
     6c8:	00001cb7          	lui	s9,0x1
     6cc:	41940cb3          	sub	s9,s0,s9
     6d0:	700cbc83          	ld	s9,1792(s9) # 1700 <.LBB103_4+0x4bc>
     6d4:	080ccc93          	xori	s9,s9,128
     6d8:	019c0223          	sb	s9,4(s8)
     6dc:	00001cb7          	lui	s9,0x1
     6e0:	41940cb3          	sub	s9,s0,s9
     6e4:	6f8cbc83          	ld	s9,1784(s9) # 16f8 <.LBB103_4+0x4b4>
     6e8:	080ccc93          	xori	s9,s9,128
     6ec:	019c02a3          	sb	s9,5(s8)
     6f0:	00001cb7          	lui	s9,0x1
     6f4:	41940cb3          	sub	s9,s0,s9
     6f8:	6f0cbc83          	ld	s9,1776(s9) # 16f0 <.LBB103_4+0x4ac>
     6fc:	080ccc93          	xori	s9,s9,128
     700:	019c0323          	sb	s9,6(s8)
     704:	00001cb7          	lui	s9,0x1
     708:	41940cb3          	sub	s9,s0,s9
     70c:	6d8cbc83          	ld	s9,1752(s9) # 16d8 <.LBB103_4+0x494>
     710:	080ccc93          	xori	s9,s9,128
     714:	019c03a3          	sb	s9,7(s8)
     718:	00001cb7          	lui	s9,0x1
     71c:	41940cb3          	sub	s9,s0,s9
     720:	6d0cbc83          	ld	s9,1744(s9) # 16d0 <.LBB103_4+0x48c>
     724:	080ccc93          	xori	s9,s9,128
     728:	019c0423          	sb	s9,8(s8)
     72c:	00001cb7          	lui	s9,0x1
     730:	41940cb3          	sub	s9,s0,s9
     734:	6c8cbc83          	ld	s9,1736(s9) # 16c8 <.LBB103_4+0x484>
     738:	080ccc93          	xori	s9,s9,128
     73c:	019c04a3          	sb	s9,9(s8)
     740:	00001cb7          	lui	s9,0x1
     744:	41940cb3          	sub	s9,s0,s9
     748:	6c0cbc83          	ld	s9,1728(s9) # 16c0 <.LBB103_4+0x47c>
     74c:	080ccc93          	xori	s9,s9,128
     750:	019c0523          	sb	s9,10(s8)
     754:	00001cb7          	lui	s9,0x1
     758:	41940cb3          	sub	s9,s0,s9
     75c:	6b8cbc83          	ld	s9,1720(s9) # 16b8 <.LBB103_4+0x474>
     760:	080ccc93          	xori	s9,s9,128
     764:	019c05a3          	sb	s9,11(s8)
     768:	00001cb7          	lui	s9,0x1
     76c:	41940cb3          	sub	s9,s0,s9
     770:	6b0cbc83          	ld	s9,1712(s9) # 16b0 <.LBB103_4+0x46c>
     774:	080ccc93          	xori	s9,s9,128
     778:	019c0623          	sb	s9,12(s8)
     77c:	00001cb7          	lui	s9,0x1
     780:	41940cb3          	sub	s9,s0,s9
     784:	6a8cbc83          	ld	s9,1704(s9) # 16a8 <.LBB103_4+0x464>
     788:	080ccc93          	xori	s9,s9,128
     78c:	019c06a3          	sb	s9,13(s8)
     790:	00001cb7          	lui	s9,0x1
     794:	41940cb3          	sub	s9,s0,s9
     798:	6a0cbc83          	ld	s9,1696(s9) # 16a0 <.LBB103_4+0x45c>
     79c:	080ccc93          	xori	s9,s9,128
     7a0:	019c0723          	sb	s9,14(s8)
     7a4:	00001cb7          	lui	s9,0x1
     7a8:	41940cb3          	sub	s9,s0,s9
     7ac:	698cbc83          	ld	s9,1688(s9) # 1698 <.LBB103_4+0x454>
     7b0:	080ccc93          	xori	s9,s9,128
     7b4:	019c07a3          	sb	s9,15(s8)
     7b8:	00001cb7          	lui	s9,0x1
     7bc:	41940cb3          	sub	s9,s0,s9
     7c0:	690cbc83          	ld	s9,1680(s9) # 1690 <.LBB103_4+0x44c>
     7c4:	080ccc93          	xori	s9,s9,128
     7c8:	019c0823          	sb	s9,16(s8)
     7cc:	00001cb7          	lui	s9,0x1
     7d0:	41940cb3          	sub	s9,s0,s9
     7d4:	298cbc83          	ld	s9,664(s9) # 1298 <.LBB103_4+0x54>
     7d8:	080ccc93          	xori	s9,s9,128
     7dc:	019c08a3          	sb	s9,17(s8)
     7e0:	00001cb7          	lui	s9,0x1
     7e4:	41940cb3          	sub	s9,s0,s9
     7e8:	2a8cbc83          	ld	s9,680(s9) # 12a8 <.LBB103_4+0x64>
     7ec:	080ccc93          	xori	s9,s9,128
     7f0:	019c0923          	sb	s9,18(s8)
     7f4:	00001cb7          	lui	s9,0x1
     7f8:	41940cb3          	sub	s9,s0,s9
     7fc:	2b8cbc83          	ld	s9,696(s9) # 12b8 <.LBB103_4+0x74>
     800:	080ccc93          	xori	s9,s9,128
     804:	019c09a3          	sb	s9,19(s8)
     808:	00001cb7          	lui	s9,0x1
     80c:	41940cb3          	sub	s9,s0,s9
     810:	2c8cbc83          	ld	s9,712(s9) # 12c8 <.LBB103_4+0x84>
     814:	080ccc93          	xori	s9,s9,128
     818:	019c0a23          	sb	s9,20(s8)
     81c:	00001cb7          	lui	s9,0x1
     820:	41940cb3          	sub	s9,s0,s9
     824:	2d8cbc83          	ld	s9,728(s9) # 12d8 <.LBB103_4+0x94>
     828:	080ccc93          	xori	s9,s9,128
     82c:	019c0aa3          	sb	s9,21(s8)
     830:	00001cb7          	lui	s9,0x1
     834:	41940cb3          	sub	s9,s0,s9
     838:	2e8cbc83          	ld	s9,744(s9) # 12e8 <.LBB103_4+0xa4>
     83c:	080ccc93          	xori	s9,s9,128
     840:	019c0b23          	sb	s9,22(s8)
     844:	00001cb7          	lui	s9,0x1
     848:	41940cb3          	sub	s9,s0,s9
     84c:	2f8cbc83          	ld	s9,760(s9) # 12f8 <.LBB103_4+0xb4>
     850:	080ccc93          	xori	s9,s9,128
     854:	019c0ba3          	sb	s9,23(s8)
     858:	00001cb7          	lui	s9,0x1
     85c:	41940cb3          	sub	s9,s0,s9
     860:	308cbc83          	ld	s9,776(s9) # 1308 <.LBB103_4+0xc4>
     864:	080ccc93          	xori	s9,s9,128
     868:	019c0c23          	sb	s9,24(s8)
     86c:	00001cb7          	lui	s9,0x1
     870:	41940cb3          	sub	s9,s0,s9
     874:	318cbc83          	ld	s9,792(s9) # 1318 <.LBB103_4+0xd4>
     878:	080ccc93          	xori	s9,s9,128
     87c:	019c0ca3          	sb	s9,25(s8)
     880:	00001cb7          	lui	s9,0x1
     884:	41940cb3          	sub	s9,s0,s9
     888:	328cbc83          	ld	s9,808(s9) # 1328 <.LBB103_4+0xe4>
     88c:	080ccc93          	xori	s9,s9,128
     890:	019c0d23          	sb	s9,26(s8)
     894:	00001cb7          	lui	s9,0x1
     898:	41940cb3          	sub	s9,s0,s9
     89c:	338cbc83          	ld	s9,824(s9) # 1338 <.LBB103_4+0xf4>
     8a0:	080ccc93          	xori	s9,s9,128
     8a4:	019c0da3          	sb	s9,27(s8)
     8a8:	00001cb7          	lui	s9,0x1
     8ac:	41940cb3          	sub	s9,s0,s9
     8b0:	348cbc83          	ld	s9,840(s9) # 1348 <.LBB103_4+0x104>
     8b4:	080ccc93          	xori	s9,s9,128
     8b8:	019c0e23          	sb	s9,28(s8)
     8bc:	00001cb7          	lui	s9,0x1
     8c0:	41940cb3          	sub	s9,s0,s9
     8c4:	358cbc83          	ld	s9,856(s9) # 1358 <.LBB103_4+0x114>
     8c8:	080ccc93          	xori	s9,s9,128
     8cc:	019c0ea3          	sb	s9,29(s8)
     8d0:	00001cb7          	lui	s9,0x1
     8d4:	41940cb3          	sub	s9,s0,s9
     8d8:	368cbc83          	ld	s9,872(s9) # 1368 <.LBB103_4+0x124>
     8dc:	080ccc93          	xori	s9,s9,128
     8e0:	019c0f23          	sb	s9,30(s8)
     8e4:	00001cb7          	lui	s9,0x1
     8e8:	41940cb3          	sub	s9,s0,s9
     8ec:	380cbc83          	ld	s9,896(s9) # 1380 <.LBB103_4+0x13c>
     8f0:	080ccc93          	xori	s9,s9,128
     8f4:	019c0fa3          	sb	s9,31(s8)
     8f8:	00001c37          	lui	s8,0x1
     8fc:	41840c33          	sub	s8,s0,s8
     900:	388c3c03          	ld	s8,904(s8) # 1388 <.LBB103_4+0x144>
     904:	080c4c93          	xori	s9,s8,128
     908:	00001c37          	lui	s8,0x1
     90c:	41840c33          	sub	s8,s0,s8
     910:	d48c3c03          	ld	s8,-696(s8) # d48 <.LBB103_3+0xa70>
     914:	01ac0c33          	add	s8,s8,s10
     918:	019c01a3          	sb	s9,3(s8)
     91c:	00001cb7          	lui	s9,0x1
     920:	41940cb3          	sub	s9,s0,s9
     924:	398cbc83          	ld	s9,920(s9) # 1398 <.LBB103_4+0x154>
     928:	080ccc93          	xori	s9,s9,128
     92c:	019c0123          	sb	s9,2(s8)
     930:	00001cb7          	lui	s9,0x1
     934:	41940cb3          	sub	s9,s0,s9
     938:	3a8cbc83          	ld	s9,936(s9) # 13a8 <.LBB103_4+0x164>
     93c:	080ccc93          	xori	s9,s9,128
     940:	019c00a3          	sb	s9,1(s8)
     944:	00001cb7          	lui	s9,0x1
     948:	41940cb3          	sub	s9,s0,s9
     94c:	3b8cbc83          	ld	s9,952(s9) # 13b8 <.LBB103_4+0x174>
     950:	080ccc93          	xori	s9,s9,128
     954:	019c0023          	sb	s9,0(s8)
     958:	00001cb7          	lui	s9,0x1
     95c:	41940cb3          	sub	s9,s0,s9
     960:	3c8cbc83          	ld	s9,968(s9) # 13c8 <.LBB103_4+0x184>
     964:	080ccc93          	xori	s9,s9,128
     968:	019c0223          	sb	s9,4(s8)
     96c:	00001cb7          	lui	s9,0x1
     970:	41940cb3          	sub	s9,s0,s9
     974:	3d8cbc83          	ld	s9,984(s9) # 13d8 <.LBB103_4+0x194>
     978:	080ccc93          	xori	s9,s9,128
     97c:	019c02a3          	sb	s9,5(s8)
     980:	00001cb7          	lui	s9,0x1
     984:	41940cb3          	sub	s9,s0,s9
     988:	3e8cbc83          	ld	s9,1000(s9) # 13e8 <.LBB103_4+0x1a4>
     98c:	080ccc93          	xori	s9,s9,128
     990:	019c0323          	sb	s9,6(s8)
     994:	00001cb7          	lui	s9,0x1
     998:	41940cb3          	sub	s9,s0,s9
     99c:	3f8cbc83          	ld	s9,1016(s9) # 13f8 <.LBB103_4+0x1b4>
     9a0:	080ccc93          	xori	s9,s9,128
     9a4:	019c03a3          	sb	s9,7(s8)
     9a8:	00001cb7          	lui	s9,0x1
     9ac:	41940cb3          	sub	s9,s0,s9
     9b0:	408cbc83          	ld	s9,1032(s9) # 1408 <.LBB103_4+0x1c4>
     9b4:	080ccc93          	xori	s9,s9,128
     9b8:	019c0423          	sb	s9,8(s8)
     9bc:	00001cb7          	lui	s9,0x1
     9c0:	41940cb3          	sub	s9,s0,s9
     9c4:	418cbc83          	ld	s9,1048(s9) # 1418 <.LBB103_4+0x1d4>
     9c8:	080ccc93          	xori	s9,s9,128
     9cc:	019c04a3          	sb	s9,9(s8)
     9d0:	00001cb7          	lui	s9,0x1
     9d4:	41940cb3          	sub	s9,s0,s9
     9d8:	428cbc83          	ld	s9,1064(s9) # 1428 <.LBB103_4+0x1e4>
     9dc:	080ccc93          	xori	s9,s9,128
     9e0:	019c0523          	sb	s9,10(s8)
     9e4:	00001cb7          	lui	s9,0x1
     9e8:	41940cb3          	sub	s9,s0,s9
     9ec:	438cbc83          	ld	s9,1080(s9) # 1438 <.LBB103_4+0x1f4>
     9f0:	080ccc93          	xori	s9,s9,128
     9f4:	019c05a3          	sb	s9,11(s8)
     9f8:	00001cb7          	lui	s9,0x1
     9fc:	41940cb3          	sub	s9,s0,s9
     a00:	448cbc83          	ld	s9,1096(s9) # 1448 <.LBB103_4+0x204>
     a04:	080ccc93          	xori	s9,s9,128
     a08:	019c0623          	sb	s9,12(s8)
     a0c:	00001cb7          	lui	s9,0x1
     a10:	41940cb3          	sub	s9,s0,s9
     a14:	458cbc83          	ld	s9,1112(s9) # 1458 <.LBB103_4+0x214>
     a18:	080ccc93          	xori	s9,s9,128
     a1c:	019c06a3          	sb	s9,13(s8)
     a20:	00001cb7          	lui	s9,0x1
     a24:	41940cb3          	sub	s9,s0,s9
     a28:	468cbc83          	ld	s9,1128(s9) # 1468 <.LBB103_4+0x224>
     a2c:	080ccc93          	xori	s9,s9,128
     a30:	019c0723          	sb	s9,14(s8)
     a34:	00001cb7          	lui	s9,0x1
     a38:	41940cb3          	sub	s9,s0,s9
     a3c:	478cbc83          	ld	s9,1144(s9) # 1478 <.LBB103_4+0x234>
     a40:	080ccc93          	xori	s9,s9,128
     a44:	019c07a3          	sb	s9,15(s8)
     a48:	00001cb7          	lui	s9,0x1
     a4c:	41940cb3          	sub	s9,s0,s9
     a50:	488cbc83          	ld	s9,1160(s9) # 1488 <.LBB103_4+0x244>
     a54:	080ccc93          	xori	s9,s9,128
     a58:	019c0823          	sb	s9,16(s8)
     a5c:	00001cb7          	lui	s9,0x1
     a60:	41940cb3          	sub	s9,s0,s9
     a64:	498cbc83          	ld	s9,1176(s9) # 1498 <.LBB103_4+0x254>
     a68:	080ccc93          	xori	s9,s9,128
     a6c:	019c08a3          	sb	s9,17(s8)
     a70:	00001cb7          	lui	s9,0x1
     a74:	41940cb3          	sub	s9,s0,s9
     a78:	4a8cbc83          	ld	s9,1192(s9) # 14a8 <.LBB103_4+0x264>
     a7c:	080ccc93          	xori	s9,s9,128
     a80:	019c0923          	sb	s9,18(s8)
     a84:	00001cb7          	lui	s9,0x1
     a88:	41940cb3          	sub	s9,s0,s9
     a8c:	4b8cbc83          	ld	s9,1208(s9) # 14b8 <.LBB103_4+0x274>
     a90:	080ccc93          	xori	s9,s9,128
     a94:	019c09a3          	sb	s9,19(s8)
     a98:	00001cb7          	lui	s9,0x1
     a9c:	41940cb3          	sub	s9,s0,s9
     aa0:	4c8cbc83          	ld	s9,1224(s9) # 14c8 <.LBB103_4+0x284>
     aa4:	080ccc93          	xori	s9,s9,128
     aa8:	019c0a23          	sb	s9,20(s8)
     aac:	00001cb7          	lui	s9,0x1
     ab0:	41940cb3          	sub	s9,s0,s9
     ab4:	4d8cbc83          	ld	s9,1240(s9) # 14d8 <.LBB103_4+0x294>
     ab8:	080ccc93          	xori	s9,s9,128
     abc:	019c0aa3          	sb	s9,21(s8)
     ac0:	00001cb7          	lui	s9,0x1
     ac4:	41940cb3          	sub	s9,s0,s9
     ac8:	4e8cbc83          	ld	s9,1256(s9) # 14e8 <.LBB103_4+0x2a4>
     acc:	080ccc93          	xori	s9,s9,128
     ad0:	019c0b23          	sb	s9,22(s8)
     ad4:	00001cb7          	lui	s9,0x1
     ad8:	41940cb3          	sub	s9,s0,s9
     adc:	4f8cbc83          	ld	s9,1272(s9) # 14f8 <.LBB103_4+0x2b4>
     ae0:	080ccc93          	xori	s9,s9,128
     ae4:	019c0ba3          	sb	s9,23(s8)
     ae8:	00001cb7          	lui	s9,0x1
     aec:	41940cb3          	sub	s9,s0,s9
     af0:	508cbc83          	ld	s9,1288(s9) # 1508 <.LBB103_4+0x2c4>
     af4:	080ccc93          	xori	s9,s9,128
     af8:	019c0c23          	sb	s9,24(s8)
     afc:	00001cb7          	lui	s9,0x1
     b00:	41940cb3          	sub	s9,s0,s9
     b04:	518cbc83          	ld	s9,1304(s9) # 1518 <.LBB103_4+0x2d4>
     b08:	080ccc93          	xori	s9,s9,128
     b0c:	019c0ca3          	sb	s9,25(s8)
     b10:	00001cb7          	lui	s9,0x1
     b14:	41940cb3          	sub	s9,s0,s9
     b18:	528cbc83          	ld	s9,1320(s9) # 1528 <.LBB103_4+0x2e4>
     b1c:	080ccc93          	xori	s9,s9,128
     b20:	019c0d23          	sb	s9,26(s8)
     b24:	00001cb7          	lui	s9,0x1
     b28:	41940cb3          	sub	s9,s0,s9
     b2c:	538cbc83          	ld	s9,1336(s9) # 1538 <.LBB103_4+0x2f4>
     b30:	080ccc93          	xori	s9,s9,128
     b34:	019c0da3          	sb	s9,27(s8)
     b38:	00001cb7          	lui	s9,0x1
     b3c:	41940cb3          	sub	s9,s0,s9
     b40:	548cbc83          	ld	s9,1352(s9) # 1548 <.LBB103_4+0x304>
     b44:	080ccc93          	xori	s9,s9,128
     b48:	019c0e23          	sb	s9,28(s8)
     b4c:	00001cb7          	lui	s9,0x1
     b50:	41940cb3          	sub	s9,s0,s9
     b54:	558cbc83          	ld	s9,1368(s9) # 1558 <.LBB103_4+0x314>
     b58:	080ccc93          	xori	s9,s9,128
     b5c:	019c0ea3          	sb	s9,29(s8)
     b60:	00001cb7          	lui	s9,0x1
     b64:	41940cb3          	sub	s9,s0,s9
     b68:	568cbc83          	ld	s9,1384(s9) # 1568 <.LBB103_4+0x324>
     b6c:	080ccc93          	xori	s9,s9,128
     b70:	019c0f23          	sb	s9,30(s8)
     b74:	00001cb7          	lui	s9,0x1
     b78:	41940cb3          	sub	s9,s0,s9
     b7c:	580cbc83          	ld	s9,1408(s9) # 1580 <.LBB103_4+0x33c>
     b80:	080ccc93          	xori	s9,s9,128
     b84:	019c0fa3          	sb	s9,31(s8)
     b88:	00001c37          	lui	s8,0x1
     b8c:	41840c33          	sub	s8,s0,s8
     b90:	588c3c03          	ld	s8,1416(s8) # 1588 <.LBB103_4+0x344>
     b94:	080c4c93          	xori	s9,s8,128
     b98:	00001c37          	lui	s8,0x1
     b9c:	41840c33          	sub	s8,s0,s8
     ba0:	d40c3c03          	ld	s8,-704(s8) # d40 <.LBB103_3+0xa68>
     ba4:	01ac0c33          	add	s8,s8,s10
     ba8:	019c01a3          	sb	s9,3(s8)
     bac:	00001cb7          	lui	s9,0x1
     bb0:	41940cb3          	sub	s9,s0,s9
     bb4:	598cbc83          	ld	s9,1432(s9) # 1598 <.LBB103_4+0x354>
     bb8:	080ccc93          	xori	s9,s9,128
     bbc:	019c0123          	sb	s9,2(s8)
     bc0:	00001cb7          	lui	s9,0x1
     bc4:	41940cb3          	sub	s9,s0,s9
     bc8:	5a8cbc83          	ld	s9,1448(s9) # 15a8 <.LBB103_4+0x364>
     bcc:	080ccc93          	xori	s9,s9,128
     bd0:	019c00a3          	sb	s9,1(s8)
     bd4:	00001cb7          	lui	s9,0x1
     bd8:	41940cb3          	sub	s9,s0,s9
     bdc:	5b8cbc83          	ld	s9,1464(s9) # 15b8 <.LBB103_4+0x374>
     be0:	080ccc93          	xori	s9,s9,128
     be4:	019c0023          	sb	s9,0(s8)
     be8:	00001cb7          	lui	s9,0x1
     bec:	41940cb3          	sub	s9,s0,s9
     bf0:	5c8cbc83          	ld	s9,1480(s9) # 15c8 <.LBB103_4+0x384>
     bf4:	080ccc93          	xori	s9,s9,128
     bf8:	019c0223          	sb	s9,4(s8)
     bfc:	00001cb7          	lui	s9,0x1
     c00:	41940cb3          	sub	s9,s0,s9
     c04:	5d8cbc83          	ld	s9,1496(s9) # 15d8 <.LBB103_4+0x394>
     c08:	080ccc93          	xori	s9,s9,128
     c0c:	019c02a3          	sb	s9,5(s8)
     c10:	00001cb7          	lui	s9,0x1
     c14:	41940cb3          	sub	s9,s0,s9
     c18:	5e8cbc83          	ld	s9,1512(s9) # 15e8 <.LBB103_4+0x3a4>
     c1c:	080ccc93          	xori	s9,s9,128
     c20:	019c0323          	sb	s9,6(s8)
     c24:	00001cb7          	lui	s9,0x1
     c28:	41940cb3          	sub	s9,s0,s9
     c2c:	5f8cbc83          	ld	s9,1528(s9) # 15f8 <.LBB103_4+0x3b4>
     c30:	080ccc93          	xori	s9,s9,128
     c34:	019c03a3          	sb	s9,7(s8)
     c38:	00001cb7          	lui	s9,0x1
     c3c:	41940cb3          	sub	s9,s0,s9
     c40:	608cbc83          	ld	s9,1544(s9) # 1608 <.LBB103_4+0x3c4>
     c44:	080ccc93          	xori	s9,s9,128
     c48:	019c0423          	sb	s9,8(s8)
     c4c:	00001cb7          	lui	s9,0x1
     c50:	41940cb3          	sub	s9,s0,s9
     c54:	618cbc83          	ld	s9,1560(s9) # 1618 <.LBB103_4+0x3d4>
     c58:	080ccc93          	xori	s9,s9,128
     c5c:	019c04a3          	sb	s9,9(s8)
     c60:	00001cb7          	lui	s9,0x1
     c64:	41940cb3          	sub	s9,s0,s9
     c68:	628cbc83          	ld	s9,1576(s9) # 1628 <.LBB103_4+0x3e4>
     c6c:	080ccc93          	xori	s9,s9,128
     c70:	019c0523          	sb	s9,10(s8)
     c74:	00001cb7          	lui	s9,0x1
     c78:	41940cb3          	sub	s9,s0,s9
     c7c:	638cbc83          	ld	s9,1592(s9) # 1638 <.LBB103_4+0x3f4>
     c80:	080ccc93          	xori	s9,s9,128
     c84:	019c05a3          	sb	s9,11(s8)
     c88:	00001cb7          	lui	s9,0x1
     c8c:	41940cb3          	sub	s9,s0,s9
     c90:	668cbc83          	ld	s9,1640(s9) # 1668 <.LBB103_4+0x424>
     c94:	080ccc93          	xori	s9,s9,128
     c98:	019c0623          	sb	s9,12(s8)
     c9c:	00001cb7          	lui	s9,0x1
     ca0:	41940cb3          	sub	s9,s0,s9
     ca4:	678cbc83          	ld	s9,1656(s9) # 1678 <.LBB103_4+0x434>
     ca8:	080ccc93          	xori	s9,s9,128
     cac:	019c06a3          	sb	s9,13(s8)
     cb0:	00001cb7          	lui	s9,0x1
     cb4:	41940cb3          	sub	s9,s0,s9
     cb8:	688cbc83          	ld	s9,1672(s9) # 1688 <.LBB103_4+0x444>
     cbc:	080ccc93          	xori	s9,s9,128
     cc0:	019c0723          	sb	s9,14(s8)
     cc4:	00001cb7          	lui	s9,0x1
     cc8:	41940cb3          	sub	s9,s0,s9
     ccc:	6e8cbc83          	ld	s9,1768(s9) # 16e8 <.LBB103_4+0x4a4>
     cd0:	080ccc93          	xori	s9,s9,128
     cd4:	019c07a3          	sb	s9,15(s8)
     cd8:	00001cb7          	lui	s9,0x1
     cdc:	41940cb3          	sub	s9,s0,s9
     ce0:	788cbc83          	ld	s9,1928(s9) # 1788 <.LBB103_4+0x544>
     ce4:	080ccc93          	xori	s9,s9,128
     ce8:	019c0823          	sb	s9,16(s8)
     cec:	00001cb7          	lui	s9,0x1
     cf0:	41940cb3          	sub	s9,s0,s9
     cf4:	790cbc83          	ld	s9,1936(s9) # 1790 <.LBB103_4+0x54c>
     cf8:	080ccc93          	xori	s9,s9,128
     cfc:	019c08a3          	sb	s9,17(s8)
     d00:	b1043c83          	ld	s9,-1264(s0)
     d04:	080ccc93          	xori	s9,s9,128
     d08:	019c0923          	sb	s9,18(s8)
     d0c:	00001cb7          	lui	s9,0x1
     d10:	41940cb3          	sub	s9,s0,s9
     d14:	7b0cbc83          	ld	s9,1968(s9) # 17b0 <.LBB103_4+0x56c>
     d18:	080ccc93          	xori	s9,s9,128
     d1c:	019c09a3          	sb	s9,19(s8)
     d20:	00001cb7          	lui	s9,0x1
     d24:	41940cb3          	sub	s9,s0,s9
     d28:	7c0cbc83          	ld	s9,1984(s9) # 17c0 <.LBB103_4+0x57c>
     d2c:	080ccc93          	xori	s9,s9,128
     d30:	019c0a23          	sb	s9,20(s8)
     d34:	00001cb7          	lui	s9,0x1
     d38:	41940cb3          	sub	s9,s0,s9
     d3c:	7d0cbc83          	ld	s9,2000(s9) # 17d0 <.LBB103_4+0x58c>
     d40:	080ccc93          	xori	s9,s9,128
     d44:	019c0aa3          	sb	s9,21(s8)
     d48:	00001cb7          	lui	s9,0x1
     d4c:	41940cb3          	sub	s9,s0,s9
     d50:	7e0cbc83          	ld	s9,2016(s9) # 17e0 <.LBB103_4+0x59c>
     d54:	080ccc93          	xori	s9,s9,128
     d58:	019c0b23          	sb	s9,22(s8)
     d5c:	00001cb7          	lui	s9,0x1
     d60:	41940cb3          	sub	s9,s0,s9
     d64:	7f8cbc83          	ld	s9,2040(s9) # 17f8 <.LBB103_4+0x5b4>
     d68:	080ccc93          	xori	s9,s9,128
     d6c:	019c0ba3          	sb	s9,23(s8)
     d70:	80843c83          	ld	s9,-2040(s0)
     d74:	080ccc93          	xori	s9,s9,128
     d78:	019c0c23          	sb	s9,24(s8)
     d7c:	81843c83          	ld	s9,-2024(s0)
     d80:	080ccc93          	xori	s9,s9,128
     d84:	019c0ca3          	sb	s9,25(s8)
     d88:	82843c83          	ld	s9,-2008(s0)
     d8c:	080ccc93          	xori	s9,s9,128
     d90:	019c0d23          	sb	s9,26(s8)
     d94:	84043c83          	ld	s9,-1984(s0)
     d98:	080ccc93          	xori	s9,s9,128
     d9c:	019c0da3          	sb	s9,27(s8)
     da0:	85043c83          	ld	s9,-1968(s0)
     da4:	080ccc93          	xori	s9,s9,128
     da8:	019c0e23          	sb	s9,28(s8)
     dac:	86043c83          	ld	s9,-1952(s0)
     db0:	080ccc93          	xori	s9,s9,128
     db4:	019c0ea3          	sb	s9,29(s8)
     db8:	87843c83          	ld	s9,-1928(s0)
     dbc:	080ccc93          	xori	s9,s9,128
     dc0:	019c0f23          	sb	s9,30(s8)
     dc4:	88843c83          	ld	s9,-1912(s0)
     dc8:	080ccc93          	xori	s9,s9,128
     dcc:	019c0fa3          	sb	s9,31(s8)
     dd0:	89043c03          	ld	s8,-1904(s0)
     dd4:	080c4c93          	xori	s9,s8,128
     dd8:	00001c37          	lui	s8,0x1
     ddc:	41840c33          	sub	s8,s0,s8
     de0:	d38c3c03          	ld	s8,-712(s8) # d38 <.LBB103_3+0xa60>
     de4:	01ac0c33          	add	s8,s8,s10
     de8:	019c01a3          	sb	s9,3(s8)
     dec:	8a043c83          	ld	s9,-1888(s0)
     df0:	080ccc93          	xori	s9,s9,128
     df4:	019c0123          	sb	s9,2(s8)
     df8:	8b043c83          	ld	s9,-1872(s0)
     dfc:	080ccc93          	xori	s9,s9,128
     e00:	019c00a3          	sb	s9,1(s8)
     e04:	8c843c83          	ld	s9,-1848(s0)
     e08:	080ccc93          	xori	s9,s9,128
     e0c:	019c0023          	sb	s9,0(s8)
     e10:	8d843c83          	ld	s9,-1832(s0)
     e14:	080ccc93          	xori	s9,s9,128
     e18:	019c0223          	sb	s9,4(s8)
     e1c:	8e843c83          	ld	s9,-1816(s0)
     e20:	080ccc93          	xori	s9,s9,128
     e24:	019c02a3          	sb	s9,5(s8)
     e28:	90043c83          	ld	s9,-1792(s0)
     e2c:	080ccc93          	xori	s9,s9,128
     e30:	019c0323          	sb	s9,6(s8)
     e34:	91043c83          	ld	s9,-1776(s0)
     e38:	080ccc93          	xori	s9,s9,128
     e3c:	019c03a3          	sb	s9,7(s8)
     e40:	92043c83          	ld	s9,-1760(s0)
     e44:	080ccc93          	xori	s9,s9,128
     e48:	019c0423          	sb	s9,8(s8)
     e4c:	bc843c83          	ld	s9,-1080(s0)
     e50:	080ccc93          	xori	s9,s9,128
     e54:	019c04a3          	sb	s9,9(s8)
     e58:	94043c83          	ld	s9,-1728(s0)
     e5c:	080ccc93          	xori	s9,s9,128
     e60:	019c0523          	sb	s9,10(s8)
     e64:	95043c83          	ld	s9,-1712(s0)
     e68:	080ccc93          	xori	s9,s9,128
     e6c:	019c05a3          	sb	s9,11(s8)
     e70:	96043c83          	ld	s9,-1696(s0)
     e74:	080ccc93          	xori	s9,s9,128
     e78:	019c0623          	sb	s9,12(s8)
     e7c:	97043c83          	ld	s9,-1680(s0)
     e80:	080ccc93          	xori	s9,s9,128
     e84:	019c06a3          	sb	s9,13(s8)
     e88:	98843c83          	ld	s9,-1656(s0)
     e8c:	080ccc93          	xori	s9,s9,128
     e90:	019c0723          	sb	s9,14(s8)
     e94:	99843c83          	ld	s9,-1640(s0)
     e98:	080ccc93          	xori	s9,s9,128
     e9c:	019c07a3          	sb	s9,15(s8)
     ea0:	9a843c83          	ld	s9,-1624(s0)
     ea4:	080ccc93          	xori	s9,s9,128
     ea8:	019c0823          	sb	s9,16(s8)
     eac:	9c043c83          	ld	s9,-1600(s0)
     eb0:	080ccc93          	xori	s9,s9,128
     eb4:	019c08a3          	sb	s9,17(s8)
     eb8:	9d043c83          	ld	s9,-1584(s0)
     ebc:	080ccc93          	xori	s9,s9,128
     ec0:	019c0923          	sb	s9,18(s8)
     ec4:	9e043c83          	ld	s9,-1568(s0)
     ec8:	080ccc93          	xori	s9,s9,128
     ecc:	019c09a3          	sb	s9,19(s8)
     ed0:	9f043c83          	ld	s9,-1552(s0)
     ed4:	080ccc93          	xori	s9,s9,128
     ed8:	019c0a23          	sb	s9,20(s8)
     edc:	a0843c83          	ld	s9,-1528(s0)
     ee0:	080ccc93          	xori	s9,s9,128
     ee4:	019c0aa3          	sb	s9,21(s8)
     ee8:	a1843c83          	ld	s9,-1512(s0)
     eec:	080ccc93          	xori	s9,s9,128
     ef0:	019c0b23          	sb	s9,22(s8)
     ef4:	a2843c83          	ld	s9,-1496(s0)
     ef8:	080ccc93          	xori	s9,s9,128
     efc:	019c0ba3          	sb	s9,23(s8)
     f00:	a3843c83          	ld	s9,-1480(s0)
     f04:	080ccc93          	xori	s9,s9,128
     f08:	019c0c23          	sb	s9,24(s8)
     f0c:	a5043c83          	ld	s9,-1456(s0)
     f10:	080ccc93          	xori	s9,s9,128
     f14:	019c0ca3          	sb	s9,25(s8)
     f18:	a6043c83          	ld	s9,-1440(s0)
     f1c:	080ccc93          	xori	s9,s9,128
     f20:	019c0d23          	sb	s9,26(s8)
     f24:	a7043c83          	ld	s9,-1424(s0)
     f28:	080ccc93          	xori	s9,s9,128
     f2c:	019c0da3          	sb	s9,27(s8)
     f30:	a8843c83          	ld	s9,-1400(s0)
     f34:	080ccc93          	xori	s9,s9,128
     f38:	019c0e23          	sb	s9,28(s8)
     f3c:	a9843c83          	ld	s9,-1384(s0)
     f40:	080ccc93          	xori	s9,s9,128
     f44:	019c0ea3          	sb	s9,29(s8)
     f48:	aa843c83          	ld	s9,-1368(s0)
     f4c:	080ccc93          	xori	s9,s9,128
     f50:	019c0f23          	sb	s9,30(s8)
     f54:	ac043c83          	ld	s9,-1344(s0)
     f58:	080ccc93          	xori	s9,s9,128
     f5c:	019c0fa3          	sb	s9,31(s8)
     f60:	ac843c03          	ld	s8,-1336(s0)
     f64:	080c4c93          	xori	s9,s8,128
     f68:	00001c37          	lui	s8,0x1
     f6c:	41840c33          	sub	s8,s0,s8
     f70:	d30c3c03          	ld	s8,-720(s8) # d30 <.LBB103_3+0xa58>
     f74:	01ac0c33          	add	s8,s8,s10
     f78:	019c01a3          	sb	s9,3(s8)
     f7c:	ae043c83          	ld	s9,-1312(s0)
     f80:	080ccc93          	xori	s9,s9,128
     f84:	019c0123          	sb	s9,2(s8)
     f88:	af043c83          	ld	s9,-1296(s0)
     f8c:	080ccc93          	xori	s9,s9,128
     f90:	019c00a3          	sb	s9,1(s8)
     f94:	b0043c83          	ld	s9,-1280(s0)
     f98:	080ccc93          	xori	s9,s9,128
     f9c:	019c0023          	sb	s9,0(s8)
     fa0:	b2043c83          	ld	s9,-1248(s0)
     fa4:	080ccc93          	xori	s9,s9,128
     fa8:	019c0223          	sb	s9,4(s8)
     fac:	b3043c83          	ld	s9,-1232(s0)
     fb0:	080ccc93          	xori	s9,s9,128
     fb4:	019c02a3          	sb	s9,5(s8)
     fb8:	b4043c83          	ld	s9,-1216(s0)
     fbc:	080ccc93          	xori	s9,s9,128
     fc0:	019c0323          	sb	s9,6(s8)
     fc4:	b5043c83          	ld	s9,-1200(s0)
     fc8:	080ccc93          	xori	s9,s9,128
     fcc:	019c03a3          	sb	s9,7(s8)
     fd0:	b6843c83          	ld	s9,-1176(s0)
     fd4:	080ccc93          	xori	s9,s9,128
     fd8:	019c0423          	sb	s9,8(s8)
     fdc:	b7843c83          	ld	s9,-1160(s0)
     fe0:	080ccc93          	xori	s9,s9,128
     fe4:	019c04a3          	sb	s9,9(s8)
     fe8:	b8843c83          	ld	s9,-1144(s0)
     fec:	080ccc93          	xori	s9,s9,128
     ff0:	019c0523          	sb	s9,10(s8)
     ff4:	b9843c83          	ld	s9,-1128(s0)
     ff8:	080ccc93          	xori	s9,s9,128
     ffc:	019c05a3          	sb	s9,11(s8)
    1000:	bb043c83          	ld	s9,-1104(s0)
    1004:	080ccc93          	xori	s9,s9,128
    1008:	019c0623          	sb	s9,12(s8)
    100c:	bc043c83          	ld	s9,-1088(s0)
    1010:	080ccc93          	xori	s9,s9,128
    1014:	019c06a3          	sb	s9,13(s8)
    1018:	bd843c83          	ld	s9,-1064(s0)
    101c:	080ccc93          	xori	s9,s9,128
    1020:	019c0723          	sb	s9,14(s8)
    1024:	bf043c83          	ld	s9,-1040(s0)
    1028:	080ccc93          	xori	s9,s9,128
    102c:	019c07a3          	sb	s9,15(s8)
    1030:	c0043c83          	ld	s9,-1024(s0)
    1034:	080ccc93          	xori	s9,s9,128
    1038:	019c0823          	sb	s9,16(s8)
    103c:	c1043c83          	ld	s9,-1008(s0)
    1040:	080ccc93          	xori	s9,s9,128
    1044:	019c08a3          	sb	s9,17(s8)
    1048:	c2043c83          	ld	s9,-992(s0)
    104c:	080ccc93          	xori	s9,s9,128
    1050:	019c0923          	sb	s9,18(s8)
    1054:	c3843c83          	ld	s9,-968(s0)
    1058:	080ccc93          	xori	s9,s9,128
    105c:	019c09a3          	sb	s9,19(s8)
    1060:	c4843c83          	ld	s9,-952(s0)
    1064:	080ccc93          	xori	s9,s9,128
    1068:	019c0a23          	sb	s9,20(s8)
    106c:	c5843c83          	ld	s9,-936(s0)
    1070:	080ccc93          	xori	s9,s9,128
    1074:	019c0aa3          	sb	s9,21(s8)
    1078:	c6843c83          	ld	s9,-920(s0)
    107c:	080ccc93          	xori	s9,s9,128
    1080:	019c0b23          	sb	s9,22(s8)
    1084:	c8043c83          	ld	s9,-896(s0)
    1088:	080ccc93          	xori	s9,s9,128
    108c:	019c0ba3          	sb	s9,23(s8)
    1090:	c9043c83          	ld	s9,-880(s0)
    1094:	080ccc93          	xori	s9,s9,128
    1098:	019c0c23          	sb	s9,24(s8)
    109c:	ca043c83          	ld	s9,-864(s0)
    10a0:	080ccc93          	xori	s9,s9,128
    10a4:	019c0ca3          	sb	s9,25(s8)
    10a8:	cb043c83          	ld	s9,-848(s0)
    10ac:	080ccc93          	xori	s9,s9,128
    10b0:	019c0d23          	sb	s9,26(s8)
    10b4:	cc043c83          	ld	s9,-832(s0)
    10b8:	080ccc93          	xori	s9,s9,128
    10bc:	019c0da3          	sb	s9,27(s8)
    10c0:	cd043c83          	ld	s9,-816(s0)
    10c4:	080ccc93          	xori	s9,s9,128
    10c8:	019c0e23          	sb	s9,28(s8)
    10cc:	ce043c83          	ld	s9,-800(s0)
    10d0:	080ccc93          	xori	s9,s9,128
    10d4:	019c0ea3          	sb	s9,29(s8)
    10d8:	cf043c83          	ld	s9,-784(s0)
    10dc:	080ccc93          	xori	s9,s9,128
    10e0:	019c0f23          	sb	s9,30(s8)
    10e4:	d0843c83          	ld	s9,-760(s0)
    10e8:	080ccc93          	xori	s9,s9,128
    10ec:	019c0fa3          	sb	s9,31(s8)
    10f0:	d1043c03          	ld	s8,-752(s0)
    10f4:	080c4c93          	xori	s9,s8,128
    10f8:	00001c37          	lui	s8,0x1
    10fc:	41840c33          	sub	s8,s0,s8
    1100:	d28c3c03          	ld	s8,-728(s8) # d28 <.LBB103_3+0xa50>
    1104:	01ac0c33          	add	s8,s8,s10
    1108:	019c01a3          	sb	s9,3(s8)
    110c:	d2043c83          	ld	s9,-736(s0)
    1110:	080ccc93          	xori	s9,s9,128
    1114:	019c0123          	sb	s9,2(s8)
    1118:	d3043c83          	ld	s9,-720(s0)
    111c:	080ccc93          	xori	s9,s9,128
    1120:	019c00a3          	sb	s9,1(s8)
    1124:	d4043c83          	ld	s9,-704(s0)
    1128:	080ccc93          	xori	s9,s9,128
    112c:	019c0023          	sb	s9,0(s8)
    1130:	e8843c83          	ld	s9,-376(s0)
    1134:	080ccc93          	xori	s9,s9,128
    1138:	019c0223          	sb	s9,4(s8)
    113c:	d5843c83          	ld	s9,-680(s0)
    1140:	080ccc93          	xori	s9,s9,128
    1144:	019c02a3          	sb	s9,5(s8)
    1148:	d6843c83          	ld	s9,-664(s0)
    114c:	080ccc93          	xori	s9,s9,128
    1150:	019c0323          	sb	s9,6(s8)
    1154:	d7843c83          	ld	s9,-648(s0)
    1158:	080ccc93          	xori	s9,s9,128
    115c:	019c03a3          	sb	s9,7(s8)
    1160:	d8043c83          	ld	s9,-640(s0)
    1164:	080ccc93          	xori	s9,s9,128
    1168:	019c0423          	sb	s9,8(s8)
    116c:	080dcc93          	xori	s9,s11,128
    1170:	019c04a3          	sb	s9,9(s8)
    1174:	08054513          	xori	a0,a0,128
    1178:	00ac0523          	sb	a0,10(s8)
    117c:	0805c513          	xori	a0,a1,128
    1180:	00ac05a3          	sb	a0,11(s8)
    1184:	08064513          	xori	a0,a2,128
    1188:	00ac0623          	sb	a0,12(s8)
    118c:	0806c513          	xori	a0,a3,128
    1190:	00ac06a3          	sb	a0,13(s8)
    1194:	08074513          	xori	a0,a4,128
    1198:	00ac0723          	sb	a0,14(s8)
    119c:	0807c513          	xori	a0,a5,128
    11a0:	00ac07a3          	sb	a0,15(s8)
    11a4:	08084513          	xori	a0,a6,128
    11a8:	00ac0823          	sb	a0,16(s8)
    11ac:	0808c513          	xori	a0,a7,128
    11b0:	00ac08a3          	sb	a0,17(s8)
    11b4:	0802c513          	xori	a0,t0,128
    11b8:	00ac0923          	sb	a0,18(s8)
    11bc:	08034513          	xori	a0,t1,128
    11c0:	00ac09a3          	sb	a0,19(s8)
    11c4:	0803c513          	xori	a0,t2,128
    11c8:	00ac0a23          	sb	a0,20(s8)
    11cc:	080e4513          	xori	a0,t3,128
    11d0:	00ac0aa3          	sb	a0,21(s8)
    11d4:	080ec513          	xori	a0,t4,128
    11d8:	00ac0b23          	sb	a0,22(s8)
    11dc:	080f4513          	xori	a0,t5,128
    11e0:	00ac0ba3          	sb	a0,23(s8)
    11e4:	080fc513          	xori	a0,t6,128
    11e8:	00ac0c23          	sb	a0,24(s8)
    11ec:	0804c513          	xori	a0,s1,128
    11f0:	00ac0ca3          	sb	a0,25(s8)
    11f4:	08094513          	xori	a0,s2,128
    11f8:	00ac0d23          	sb	a0,26(s8)
    11fc:	0809c513          	xori	a0,s3,128
    1200:	00ac0da3          	sb	a0,27(s8)
    1204:	080a4513          	xori	a0,s4,128
    1208:	00ac0e23          	sb	a0,28(s8)
    120c:	080ac513          	xori	a0,s5,128
    1210:	00ac0ea3          	sb	a0,29(s8)
    1214:	080b4513          	xori	a0,s6,128
    1218:	00ac0f23          	sb	a0,30(s8)
    121c:	080bc513          	xori	a0,s7,128
    1220:	00ac0fa3          	sb	a0,31(s8)
    1224:	020d0593          	addi	a1,s10,32
    1228:	00001537          	lui	a0,0x1
    122c:	40a40533          	sub	a0,s0,a0
    1230:	64853f83          	ld	t6,1608(a0) # 1648 <.LBB103_4+0x404>
    1234:	020f8f93          	addi	t6,t6,32
    1238:	4e000513          	li	a0,1248
    123c:	00ad6463          	bltu	s10,a0,1244 <.LBB103_4>
    1240:	f31fe06f          	j	170 <.LBB103_1>

0000000000001244 <.LBB103_4>:
    1244:	00001537          	lui	a0,0x1
    1248:	40a40533          	sub	a0,s0,a0
    124c:	66b53023          	sd	a1,1632(a0) # 1660 <.LBB103_4+0x41c>
    1250:	000644b7          	lui	s1,0x64
    1254:	00001537          	lui	a0,0x1
    1258:	40a40533          	sub	a0,s0,a0
    125c:	d7853503          	ld	a0,-648(a0) # d78 <.LBB103_3+0xaa0>
    1260:	f8a43023          	sd	a0,-128(s0)
    1264:	00001537          	lui	a0,0x1
    1268:	40a40533          	sub	a0,s0,a0
    126c:	d8053983          	ld	s3,-640(a0) # d80 <.LBB103_3+0xaa8>
    1270:	00001537          	lui	a0,0x1
    1274:	40a40533          	sub	a0,s0,a0
    1278:	65f53423          	sd	t6,1608(a0) # 1648 <.LBB103_4+0x404>
    127c:	000f8b13          	mv	s6,t6
    1280:	00001537          	lui	a0,0x1
    1284:	40a40533          	sub	a0,s0,a0
    1288:	6a053c23          	sd	zero,1720(a0) # 16b8 <.LBB103_4+0x474>
    128c:	00001537          	lui	a0,0x1
    1290:	40a40533          	sub	a0,s0,a0
    1294:	6a053823          	sd	zero,1712(a0) # 16b0 <.LBB103_4+0x46c>
    1298:	00001537          	lui	a0,0x1
    129c:	40a40533          	sub	a0,s0,a0
    12a0:	6a053423          	sd	zero,1704(a0) # 16a8 <.LBB103_4+0x464>
    12a4:	00001537          	lui	a0,0x1
    12a8:	40a40533          	sub	a0,s0,a0
    12ac:	6c053023          	sd	zero,1728(a0) # 16c0 <.LBB103_4+0x47c>
    12b0:	00001537          	lui	a0,0x1
    12b4:	40a40533          	sub	a0,s0,a0
    12b8:	6a053023          	sd	zero,1696(a0) # 16a0 <.LBB103_4+0x45c>
    12bc:	00001537          	lui	a0,0x1
    12c0:	40a40533          	sub	a0,s0,a0
    12c4:	68053c23          	sd	zero,1688(a0) # 1698 <.LBB103_4+0x454>
    12c8:	00001537          	lui	a0,0x1
    12cc:	40a40533          	sub	a0,s0,a0
    12d0:	68053823          	sd	zero,1680(a0) # 1690 <.LBB103_4+0x44c>
    12d4:	00001537          	lui	a0,0x1
    12d8:	40a40533          	sub	a0,s0,a0
    12dc:	68053423          	sd	zero,1672(a0) # 1688 <.LBB103_4+0x444>
    12e0:	00001537          	lui	a0,0x1
    12e4:	40a40533          	sub	a0,s0,a0
    12e8:	68053023          	sd	zero,1664(a0) # 1680 <.LBB103_4+0x43c>
    12ec:	00001537          	lui	a0,0x1
    12f0:	40a40533          	sub	a0,s0,a0
    12f4:	6c053423          	sd	zero,1736(a0) # 16c8 <.LBB103_4+0x484>
    12f8:	00001537          	lui	a0,0x1
    12fc:	40a40533          	sub	a0,s0,a0
    1300:	6c053823          	sd	zero,1744(a0) # 16d0 <.LBB103_4+0x48c>
    1304:	00001537          	lui	a0,0x1
    1308:	40a40533          	sub	a0,s0,a0
    130c:	6c053c23          	sd	zero,1752(a0) # 16d8 <.LBB103_4+0x494>
    1310:	00001537          	lui	a0,0x1
    1314:	40a40533          	sub	a0,s0,a0
    1318:	6e053023          	sd	zero,1760(a0) # 16e0 <.LBB103_4+0x49c>
    131c:	00001537          	lui	a0,0x1
    1320:	40a40533          	sub	a0,s0,a0
    1324:	6e053423          	sd	zero,1768(a0) # 16e8 <.LBB103_4+0x4a4>
    1328:	00001537          	lui	a0,0x1
    132c:	40a40533          	sub	a0,s0,a0
    1330:	6e053823          	sd	zero,1776(a0) # 16f0 <.LBB103_4+0x4ac>
    1334:	00001537          	lui	a0,0x1
    1338:	40a40533          	sub	a0,s0,a0
    133c:	6e053c23          	sd	zero,1784(a0) # 16f8 <.LBB103_4+0x4b4>
    1340:	00001537          	lui	a0,0x1
    1344:	40a40533          	sub	a0,s0,a0
    1348:	70053023          	sd	zero,1792(a0) # 1700 <.LBB103_4+0x4bc>
    134c:	00001537          	lui	a0,0x1
    1350:	40a40533          	sub	a0,s0,a0
    1354:	70053423          	sd	zero,1800(a0) # 1708 <.LBB103_4+0x4c4>
    1358:	00001537          	lui	a0,0x1
    135c:	40a40533          	sub	a0,s0,a0
    1360:	70053823          	sd	zero,1808(a0) # 1710 <.LBB103_4+0x4cc>
    1364:	00001537          	lui	a0,0x1
    1368:	40a40533          	sub	a0,s0,a0
    136c:	70053c23          	sd	zero,1816(a0) # 1718 <.LBB103_4+0x4d4>
    1370:	00001537          	lui	a0,0x1
    1374:	40a40533          	sub	a0,s0,a0
    1378:	72053023          	sd	zero,1824(a0) # 1720 <.LBB103_4+0x4dc>
    137c:	00001537          	lui	a0,0x1
    1380:	40a40533          	sub	a0,s0,a0
    1384:	72053423          	sd	zero,1832(a0) # 1728 <.LBB103_4+0x4e4>
    1388:	00001537          	lui	a0,0x1
    138c:	40a40533          	sub	a0,s0,a0
    1390:	72053823          	sd	zero,1840(a0) # 1730 <.LBB103_4+0x4ec>
    1394:	00001537          	lui	a0,0x1
    1398:	40a40533          	sub	a0,s0,a0
    139c:	72053c23          	sd	zero,1848(a0) # 1738 <.LBB103_4+0x4f4>
    13a0:	00001537          	lui	a0,0x1
    13a4:	40a40533          	sub	a0,s0,a0
    13a8:	74053023          	sd	zero,1856(a0) # 1740 <.LBB103_4+0x4fc>
    13ac:	00001537          	lui	a0,0x1
    13b0:	40a40533          	sub	a0,s0,a0
    13b4:	74053423          	sd	zero,1864(a0) # 1748 <.LBB103_4+0x504>
    13b8:	00001537          	lui	a0,0x1
    13bc:	40a40533          	sub	a0,s0,a0
    13c0:	74053823          	sd	zero,1872(a0) # 1750 <.LBB103_4+0x50c>
    13c4:	00001537          	lui	a0,0x1
    13c8:	40a40533          	sub	a0,s0,a0
    13cc:	74053c23          	sd	zero,1880(a0) # 1758 <.LBB103_4+0x514>
    13d0:	00001537          	lui	a0,0x1
    13d4:	40a40533          	sub	a0,s0,a0
    13d8:	76053023          	sd	zero,1888(a0) # 1760 <.LBB103_4+0x51c>
    13dc:	00001537          	lui	a0,0x1
    13e0:	40a40533          	sub	a0,s0,a0
    13e4:	76053423          	sd	zero,1896(a0) # 1768 <.LBB103_4+0x524>
    13e8:	00001537          	lui	a0,0x1
    13ec:	40a40533          	sub	a0,s0,a0
    13f0:	76053823          	sd	zero,1904(a0) # 1770 <.LBB103_4+0x52c>
    13f4:	00001537          	lui	a0,0x1
    13f8:	40a40533          	sub	a0,s0,a0
    13fc:	76053c23          	sd	zero,1912(a0) # 1778 <.LBB103_4+0x534>
    1400:	00001537          	lui	a0,0x1
    1404:	40a40533          	sub	a0,s0,a0
    1408:	78053c23          	sd	zero,1944(a0) # 1798 <.LBB103_4+0x554>
    140c:	00001537          	lui	a0,0x1
    1410:	40a40533          	sub	a0,s0,a0
    1414:	78053823          	sd	zero,1936(a0) # 1790 <.LBB103_4+0x54c>
    1418:	00001537          	lui	a0,0x1
    141c:	40a40533          	sub	a0,s0,a0
    1420:	78053423          	sd	zero,1928(a0) # 1788 <.LBB103_4+0x544>
    1424:	00001537          	lui	a0,0x1
    1428:	40a40533          	sub	a0,s0,a0
    142c:	78053023          	sd	zero,1920(a0) # 1780 <.LBB103_4+0x53c>
    1430:	00001537          	lui	a0,0x1
    1434:	40a40533          	sub	a0,s0,a0
    1438:	7a053023          	sd	zero,1952(a0) # 17a0 <.LBB103_4+0x55c>
    143c:	00001537          	lui	a0,0x1
    1440:	40a40533          	sub	a0,s0,a0
    1444:	7a053423          	sd	zero,1960(a0) # 17a8 <.LBB103_4+0x564>
    1448:	00001537          	lui	a0,0x1
    144c:	40a40533          	sub	a0,s0,a0
    1450:	7a053823          	sd	zero,1968(a0) # 17b0 <.LBB103_4+0x56c>
    1454:	00001537          	lui	a0,0x1
    1458:	40a40533          	sub	a0,s0,a0
    145c:	7a053c23          	sd	zero,1976(a0) # 17b8 <.LBB103_4+0x574>
    1460:	00001537          	lui	a0,0x1
    1464:	40a40533          	sub	a0,s0,a0
    1468:	7c053023          	sd	zero,1984(a0) # 17c0 <.LBB103_4+0x57c>
    146c:	00001537          	lui	a0,0x1
    1470:	40a40533          	sub	a0,s0,a0
    1474:	7c053423          	sd	zero,1992(a0) # 17c8 <.LBB103_4+0x584>
    1478:	00001537          	lui	a0,0x1
    147c:	40a40533          	sub	a0,s0,a0
    1480:	7c053823          	sd	zero,2000(a0) # 17d0 <.LBB103_4+0x58c>
    1484:	00001537          	lui	a0,0x1
    1488:	40a40533          	sub	a0,s0,a0
    148c:	7c053c23          	sd	zero,2008(a0) # 17d8 <.LBB103_4+0x594>
    1490:	00001537          	lui	a0,0x1
    1494:	40a40533          	sub	a0,s0,a0
    1498:	7e053023          	sd	zero,2016(a0) # 17e0 <.LBB103_4+0x59c>
    149c:	00001537          	lui	a0,0x1
    14a0:	40a40533          	sub	a0,s0,a0
    14a4:	7e053423          	sd	zero,2024(a0) # 17e8 <.LBB103_4+0x5a4>
    14a8:	00001537          	lui	a0,0x1
    14ac:	40a40533          	sub	a0,s0,a0
    14b0:	7e053823          	sd	zero,2032(a0) # 17f0 <.LBB103_4+0x5ac>
    14b4:	00001537          	lui	a0,0x1
    14b8:	40a40533          	sub	a0,s0,a0
    14bc:	7e053c23          	sd	zero,2040(a0) # 17f8 <.LBB103_4+0x5b4>
    14c0:	80043023          	sd	zero,-2048(s0)
    14c4:	80043423          	sd	zero,-2040(s0)
    14c8:	80043823          	sd	zero,-2032(s0)
    14cc:	80043c23          	sd	zero,-2024(s0)
    14d0:	82043023          	sd	zero,-2016(s0)
    14d4:	82043423          	sd	zero,-2008(s0)
    14d8:	82043823          	sd	zero,-2000(s0)
    14dc:	82043c23          	sd	zero,-1992(s0)
    14e0:	84043023          	sd	zero,-1984(s0)
    14e4:	84043423          	sd	zero,-1976(s0)
    14e8:	84043823          	sd	zero,-1968(s0)
    14ec:	84043c23          	sd	zero,-1960(s0)
    14f0:	86043023          	sd	zero,-1952(s0)
    14f4:	86043423          	sd	zero,-1944(s0)
    14f8:	86043823          	sd	zero,-1936(s0)
    14fc:	86043c23          	sd	zero,-1928(s0)
    1500:	88043c23          	sd	zero,-1896(s0)
    1504:	88043823          	sd	zero,-1904(s0)
    1508:	88043423          	sd	zero,-1912(s0)
    150c:	88043023          	sd	zero,-1920(s0)
    1510:	8a043023          	sd	zero,-1888(s0)
    1514:	8a043423          	sd	zero,-1880(s0)
    1518:	8a043823          	sd	zero,-1872(s0)
    151c:	8a043c23          	sd	zero,-1864(s0)
    1520:	8c043023          	sd	zero,-1856(s0)
    1524:	8c043423          	sd	zero,-1848(s0)
    1528:	8c043823          	sd	zero,-1840(s0)
    152c:	8c043c23          	sd	zero,-1832(s0)
    1530:	8e043023          	sd	zero,-1824(s0)
    1534:	8e043423          	sd	zero,-1816(s0)
    1538:	8e043823          	sd	zero,-1808(s0)
    153c:	8e043c23          	sd	zero,-1800(s0)
    1540:	90043023          	sd	zero,-1792(s0)
    1544:	90043423          	sd	zero,-1784(s0)
    1548:	90043823          	sd	zero,-1776(s0)
    154c:	90043c23          	sd	zero,-1768(s0)
    1550:	92043023          	sd	zero,-1760(s0)
    1554:	92043423          	sd	zero,-1752(s0)
    1558:	92043823          	sd	zero,-1744(s0)
    155c:	92043c23          	sd	zero,-1736(s0)
    1560:	94043023          	sd	zero,-1728(s0)
    1564:	94043423          	sd	zero,-1720(s0)
    1568:	94043823          	sd	zero,-1712(s0)
    156c:	94043c23          	sd	zero,-1704(s0)
    1570:	96043023          	sd	zero,-1696(s0)
    1574:	96043423          	sd	zero,-1688(s0)
    1578:	96043823          	sd	zero,-1680(s0)
    157c:	96043c23          	sd	zero,-1672(s0)
    1580:	98043c23          	sd	zero,-1640(s0)
    1584:	98043823          	sd	zero,-1648(s0)
    1588:	98043423          	sd	zero,-1656(s0)
    158c:	98043023          	sd	zero,-1664(s0)
    1590:	9a043023          	sd	zero,-1632(s0)
    1594:	9a043423          	sd	zero,-1624(s0)
    1598:	9a043823          	sd	zero,-1616(s0)
    159c:	9a043c23          	sd	zero,-1608(s0)
    15a0:	9c043023          	sd	zero,-1600(s0)
    15a4:	9c043423          	sd	zero,-1592(s0)
    15a8:	9c043823          	sd	zero,-1584(s0)
    15ac:	9c043c23          	sd	zero,-1576(s0)
    15b0:	9e043023          	sd	zero,-1568(s0)
    15b4:	9e043423          	sd	zero,-1560(s0)
    15b8:	9e043823          	sd	zero,-1552(s0)
    15bc:	9e043c23          	sd	zero,-1544(s0)
    15c0:	a0043023          	sd	zero,-1536(s0)
    15c4:	a0043423          	sd	zero,-1528(s0)
    15c8:	a0043823          	sd	zero,-1520(s0)
    15cc:	a0043c23          	sd	zero,-1512(s0)
    15d0:	a2043023          	sd	zero,-1504(s0)
    15d4:	a2043423          	sd	zero,-1496(s0)
    15d8:	a2043823          	sd	zero,-1488(s0)
    15dc:	a2043c23          	sd	zero,-1480(s0)
    15e0:	a4043023          	sd	zero,-1472(s0)
    15e4:	a4043423          	sd	zero,-1464(s0)
    15e8:	a4043823          	sd	zero,-1456(s0)
    15ec:	a4043c23          	sd	zero,-1448(s0)
    15f0:	a6043023          	sd	zero,-1440(s0)
    15f4:	a6043423          	sd	zero,-1432(s0)
    15f8:	a6043823          	sd	zero,-1424(s0)
    15fc:	a6043c23          	sd	zero,-1416(s0)
    1600:	a8043c23          	sd	zero,-1384(s0)
    1604:	a8043823          	sd	zero,-1392(s0)
    1608:	a8043423          	sd	zero,-1400(s0)
    160c:	a8043023          	sd	zero,-1408(s0)
    1610:	aa043023          	sd	zero,-1376(s0)
    1614:	aa043423          	sd	zero,-1368(s0)
    1618:	aa043823          	sd	zero,-1360(s0)
    161c:	aa043c23          	sd	zero,-1352(s0)
    1620:	ac043023          	sd	zero,-1344(s0)
    1624:	ac043423          	sd	zero,-1336(s0)
    1628:	ac043823          	sd	zero,-1328(s0)
    162c:	ac043c23          	sd	zero,-1320(s0)
    1630:	ae043023          	sd	zero,-1312(s0)
    1634:	ae043423          	sd	zero,-1304(s0)
    1638:	ae043823          	sd	zero,-1296(s0)
    163c:	ae043c23          	sd	zero,-1288(s0)
    1640:	b0043023          	sd	zero,-1280(s0)
    1644:	b0043423          	sd	zero,-1272(s0)
    1648:	b0043823          	sd	zero,-1264(s0)
    164c:	b0043c23          	sd	zero,-1256(s0)
    1650:	b2043023          	sd	zero,-1248(s0)
    1654:	b2043423          	sd	zero,-1240(s0)
    1658:	b2043823          	sd	zero,-1232(s0)
    165c:	b2043c23          	sd	zero,-1224(s0)
    1660:	b4043023          	sd	zero,-1216(s0)
    1664:	b4043423          	sd	zero,-1208(s0)
    1668:	b4043823          	sd	zero,-1200(s0)
    166c:	b4043c23          	sd	zero,-1192(s0)
    1670:	b6043023          	sd	zero,-1184(s0)
    1674:	b6043423          	sd	zero,-1176(s0)
    1678:	b6043823          	sd	zero,-1168(s0)
    167c:	b6043c23          	sd	zero,-1160(s0)
    1680:	b8043c23          	sd	zero,-1128(s0)
    1684:	b8043823          	sd	zero,-1136(s0)
    1688:	b8043423          	sd	zero,-1144(s0)
    168c:	b8043023          	sd	zero,-1152(s0)
    1690:	ba043023          	sd	zero,-1120(s0)
    1694:	ba043423          	sd	zero,-1112(s0)
    1698:	ba043823          	sd	zero,-1104(s0)
    169c:	ba043c23          	sd	zero,-1096(s0)
    16a0:	bc043023          	sd	zero,-1088(s0)
    16a4:	bc043423          	sd	zero,-1080(s0)
    16a8:	bc043823          	sd	zero,-1072(s0)
    16ac:	bc043c23          	sd	zero,-1064(s0)
    16b0:	be043023          	sd	zero,-1056(s0)
    16b4:	be043423          	sd	zero,-1048(s0)
    16b8:	be043823          	sd	zero,-1040(s0)
    16bc:	be043c23          	sd	zero,-1032(s0)
    16c0:	c0043023          	sd	zero,-1024(s0)
    16c4:	c0043423          	sd	zero,-1016(s0)
    16c8:	c0043823          	sd	zero,-1008(s0)
    16cc:	c0043c23          	sd	zero,-1000(s0)
    16d0:	c2043023          	sd	zero,-992(s0)
    16d4:	c2043423          	sd	zero,-984(s0)
    16d8:	c2043823          	sd	zero,-976(s0)
    16dc:	c2043c23          	sd	zero,-968(s0)
    16e0:	c4043023          	sd	zero,-960(s0)
    16e4:	c4043423          	sd	zero,-952(s0)
    16e8:	c4043823          	sd	zero,-944(s0)
    16ec:	c4043c23          	sd	zero,-936(s0)
    16f0:	c6043023          	sd	zero,-928(s0)
    16f4:	c6043423          	sd	zero,-920(s0)
    16f8:	c6043823          	sd	zero,-912(s0)
    16fc:	c6043c23          	sd	zero,-904(s0)
    1700:	c8043c23          	sd	zero,-872(s0)
    1704:	c8043823          	sd	zero,-880(s0)
    1708:	c8043423          	sd	zero,-888(s0)
    170c:	c8043023          	sd	zero,-896(s0)
    1710:	ca043023          	sd	zero,-864(s0)
    1714:	ca043423          	sd	zero,-856(s0)
    1718:	ca043823          	sd	zero,-848(s0)
    171c:	ca043c23          	sd	zero,-840(s0)
    1720:	cc043023          	sd	zero,-832(s0)
    1724:	cc043423          	sd	zero,-824(s0)
    1728:	cc043823          	sd	zero,-816(s0)
    172c:	cc043c23          	sd	zero,-808(s0)
    1730:	ce043023          	sd	zero,-800(s0)
    1734:	ce043423          	sd	zero,-792(s0)
    1738:	ce043823          	sd	zero,-784(s0)
    173c:	ce043c23          	sd	zero,-776(s0)
    1740:	d0043023          	sd	zero,-768(s0)
    1744:	d0043423          	sd	zero,-760(s0)
    1748:	d0043823          	sd	zero,-752(s0)
    174c:	d0043c23          	sd	zero,-744(s0)
    1750:	d2043023          	sd	zero,-736(s0)
    1754:	d2043423          	sd	zero,-728(s0)
    1758:	d2043823          	sd	zero,-720(s0)
    175c:	d2043c23          	sd	zero,-712(s0)
    1760:	d4043023          	sd	zero,-704(s0)
    1764:	d4043423          	sd	zero,-696(s0)
    1768:	d4043823          	sd	zero,-688(s0)
    176c:	d4043c23          	sd	zero,-680(s0)
    1770:	d6043023          	sd	zero,-672(s0)
    1774:	d6043423          	sd	zero,-664(s0)
    1778:	d6043823          	sd	zero,-656(s0)
    177c:	d6043c23          	sd	zero,-648(s0)
    1780:	d8043c23          	sd	zero,-616(s0)
    1784:	d8043823          	sd	zero,-624(s0)
    1788:	d8043423          	sd	zero,-632(s0)
    178c:	d8043023          	sd	zero,-640(s0)
    1790:	da043023          	sd	zero,-608(s0)
    1794:	00000a93          	li	s5,0
    1798:	da043423          	sd	zero,-600(s0)
    179c:	00000093          	li	ra,0
    17a0:	00000713          	li	a4,0
    17a4:	00000a13          	li	s4,0
    17a8:	da043823          	sd	zero,-592(s0)
    17ac:	00000913          	li	s2,0
    17b0:	dc043023          	sd	zero,-576(s0)
    17b4:	00000f93          	li	t6,0
    17b8:	00000f13          	li	t5,0
    17bc:	dc043c23          	sd	zero,-552(s0)
    17c0:	00000e93          	li	t4,0
    17c4:	00000e13          	li	t3,0
    17c8:	00000693          	li	a3,0
    17cc:	00000393          	li	t2,0
    17d0:	00000313          	li	t1,0
    17d4:	00000613          	li	a2,0
    17d8:	00000593          	li	a1,0
    17dc:	00000c93          	li	s9,0
    17e0:	00000513          	li	a0,0
    17e4:	00000293          	li	t0,0
    17e8:	00000893          	li	a7,0
    17ec:	00000813          	li	a6,0
    17f0:	00000793          	li	a5,0
    17f4:	00000b93          	li	s7,0
    17f8:	00000c13          	li	s8,0
    17fc:	e2043423          	sd	zero,-472(s0)

0000000000001800 <.LBB103_5>:
    1800:	e3843023          	sd	s8,-480(s0)
    1804:	e1743c23          	sd	s7,-488(s0)
    1808:	f9643423          	sd	s6,-120(s0)
    180c:	00001bb7          	lui	s7,0x1
    1810:	41740bb3          	sub	s7,s0,s7
    1814:	673bb823          	sd	s3,1648(s7) # 1670 <.LBB103_4+0x42c>
    1818:	00001bb7          	lui	s7,0x1
    181c:	41740bb3          	sub	s7,s0,s7
    1820:	669bbc23          	sd	s1,1656(s7) # 1678 <.LBB103_4+0x434>
    1824:	ed543823          	sd	s5,-304(s0)
    1828:	ec143c23          	sd	ra,-296(s0)
    182c:	eee43023          	sd	a4,-288(s0)
    1830:	ef443423          	sd	s4,-280(s0)
    1834:	db243c23          	sd	s2,-584(s0)
    1838:	ddf43423          	sd	t6,-568(s0)
    183c:	dde43823          	sd	t5,-560(s0)
    1840:	efd43823          	sd	t4,-272(s0)
    1844:	dfc43023          	sd	t3,-544(s0)
    1848:	eed43c23          	sd	a3,-264(s0)
    184c:	de743423          	sd	t2,-536(s0)
    1850:	de643823          	sd	t1,-528(s0)
    1854:	f0c43023          	sd	a2,-256(s0)
    1858:	f0b43423          	sd	a1,-248(s0)
    185c:	f1943823          	sd	s9,-240(s0)
    1860:	f0a43c23          	sd	a0,-232(s0)
    1864:	de543c23          	sd	t0,-520(s0)
    1868:	e1143023          	sd	a7,-512(s0)
    186c:	e1043423          	sd	a6,-504(s0)
    1870:	e0f43823          	sd	a5,-496(s0)
    1874:	00098503          	lb	a0,0(s3)
    1878:	002b0603          	lb	a2,2(s6)
    187c:	f2c43c23          	sd	a2,-200(s0)
    1880:	001b0683          	lb	a3,1(s6)
    1884:	f2d43823          	sd	a3,-208(s0)
    1888:	000b0d03          	lb	s10,0(s6)
    188c:	003b0783          	lb	a5,3(s6)
    1890:	004b0803          	lb	a6,4(s6)
    1894:	eb043823          	sd	a6,-336(s0)
    1898:	005b0a83          	lb	s5,5(s6)
    189c:	f3543423          	sd	s5,-216(s0)
    18a0:	006b0d83          	lb	s11,6(s6)
    18a4:	f3b43023          	sd	s11,-224(s0)
    18a8:	007b0083          	lb	ra,7(s6)
    18ac:	f4143023          	sd	ra,-192(s0)
    18b0:	008b0883          	lb	a7,8(s6)
    18b4:	eb143423          	sd	a7,-344(s0)
    18b8:	009b0303          	lb	t1,9(s6)
    18bc:	00ab0903          	lb	s2,10(s6)
    18c0:	00bb0283          	lb	t0,11(s6)
    18c4:	00cb0f03          	lb	t5,12(s6)
    18c8:	00db0e83          	lb	t4,13(s6)
    18cc:	00eb0e03          	lb	t3,14(s6)
    18d0:	00fb0383          	lb	t2,15(s6)
    18d4:	010b0583          	lb	a1,16(s6)
    18d8:	f6b43c23          	sd	a1,-136(s0)
    18dc:	011b0f83          	lb	t6,17(s6)
    18e0:	e9f43c23          	sd	t6,-360(s0)
    18e4:	012b0983          	lb	s3,18(s6)
    18e8:	f5343823          	sd	s3,-176(s0)
    18ec:	013b0583          	lb	a1,19(s6)
    18f0:	e8b43423          	sd	a1,-376(s0)
    18f4:	014b0a03          	lb	s4,20(s6)
    18f8:	eb443c23          	sd	s4,-328(s0)
    18fc:	f8843583          	ld	a1,-120(s0)
    1900:	01558b03          	lb	s6,21(a1)
    1904:	e5643823          	sd	s6,-432(s0)
    1908:	f8843583          	ld	a1,-120(s0)
    190c:	01658483          	lb	s1,22(a1)
    1910:	f4943423          	sd	s1,-184(s0)
    1914:	f8843583          	ld	a1,-120(s0)
    1918:	01758c03          	lb	s8,23(a1)
    191c:	eb843023          	sd	s8,-352(s0)
    1920:	f8843583          	ld	a1,-120(s0)
    1924:	01858b83          	lb	s7,24(a1)
    1928:	02c505b3          	mul	a1,a0,a2
    192c:	00001637          	lui	a2,0x1
    1930:	40c40633          	sub	a2,s0,a2
    1934:	6a863603          	ld	a2,1704(a2) # 16a8 <.LBB103_4+0x464>
    1938:	00c58633          	add	a2,a1,a2
    193c:	000015b7          	lui	a1,0x1
    1940:	40b405b3          	sub	a1,s0,a1
    1944:	6ac5b423          	sd	a2,1704(a1) # 16a8 <.LBB103_4+0x464>
    1948:	02d505b3          	mul	a1,a0,a3
    194c:	00001637          	lui	a2,0x1
    1950:	40c40633          	sub	a2,s0,a2
    1954:	6b063603          	ld	a2,1712(a2) # 16b0 <.LBB103_4+0x46c>
    1958:	00c58633          	add	a2,a1,a2
    195c:	000015b7          	lui	a1,0x1
    1960:	40b405b3          	sub	a1,s0,a1
    1964:	6ac5b823          	sd	a2,1712(a1) # 16b0 <.LBB103_4+0x46c>
    1968:	03a505b3          	mul	a1,a0,s10
    196c:	e9a43823          	sd	s10,-368(s0)
    1970:	00001637          	lui	a2,0x1
    1974:	40c40633          	sub	a2,s0,a2
    1978:	6b863603          	ld	a2,1720(a2) # 16b8 <.LBB103_4+0x474>
    197c:	00c58633          	add	a2,a1,a2
    1980:	000015b7          	lui	a1,0x1
    1984:	40b405b3          	sub	a1,s0,a1
    1988:	6ac5bc23          	sd	a2,1720(a1) # 16b8 <.LBB103_4+0x474>
    198c:	02f505b3          	mul	a1,a0,a5
    1990:	e6f43823          	sd	a5,-400(s0)
    1994:	00001637          	lui	a2,0x1
    1998:	40c40633          	sub	a2,s0,a2
    199c:	6c063603          	ld	a2,1728(a2) # 16c0 <.LBB103_4+0x47c>
    19a0:	00c58633          	add	a2,a1,a2
    19a4:	000015b7          	lui	a1,0x1
    19a8:	40b405b3          	sub	a1,s0,a1
    19ac:	6cc5b023          	sd	a2,1728(a1) # 16c0 <.LBB103_4+0x47c>
    19b0:	030505b3          	mul	a1,a0,a6
    19b4:	00001637          	lui	a2,0x1
    19b8:	40c40633          	sub	a2,s0,a2
    19bc:	6a063603          	ld	a2,1696(a2) # 16a0 <.LBB103_4+0x45c>
    19c0:	00c58633          	add	a2,a1,a2
    19c4:	000015b7          	lui	a1,0x1
    19c8:	40b405b3          	sub	a1,s0,a1
    19cc:	6ac5b023          	sd	a2,1696(a1) # 16a0 <.LBB103_4+0x45c>
    19d0:	035505b3          	mul	a1,a0,s5
    19d4:	00001637          	lui	a2,0x1
    19d8:	40c40633          	sub	a2,s0,a2
    19dc:	69863603          	ld	a2,1688(a2) # 1698 <.LBB103_4+0x454>
    19e0:	00c58633          	add	a2,a1,a2
    19e4:	000015b7          	lui	a1,0x1
    19e8:	40b405b3          	sub	a1,s0,a1
    19ec:	68c5bc23          	sd	a2,1688(a1) # 1698 <.LBB103_4+0x454>
    19f0:	03b505b3          	mul	a1,a0,s11
    19f4:	00001637          	lui	a2,0x1
    19f8:	40c40633          	sub	a2,s0,a2
    19fc:	69063603          	ld	a2,1680(a2) # 1690 <.LBB103_4+0x44c>
    1a00:	00c58633          	add	a2,a1,a2
    1a04:	000015b7          	lui	a1,0x1
    1a08:	40b405b3          	sub	a1,s0,a1
    1a0c:	68c5b823          	sd	a2,1680(a1) # 1690 <.LBB103_4+0x44c>
    1a10:	021505b3          	mul	a1,a0,ra
    1a14:	00001637          	lui	a2,0x1
    1a18:	40c40633          	sub	a2,s0,a2
    1a1c:	68863603          	ld	a2,1672(a2) # 1688 <.LBB103_4+0x444>
    1a20:	00c58633          	add	a2,a1,a2
    1a24:	000015b7          	lui	a1,0x1
    1a28:	40b405b3          	sub	a1,s0,a1
    1a2c:	68c5b423          	sd	a2,1672(a1) # 1688 <.LBB103_4+0x444>
    1a30:	031505b3          	mul	a1,a0,a7
    1a34:	00001637          	lui	a2,0x1
    1a38:	40c40633          	sub	a2,s0,a2
    1a3c:	68063603          	ld	a2,1664(a2) # 1680 <.LBB103_4+0x43c>
    1a40:	00c58633          	add	a2,a1,a2
    1a44:	000015b7          	lui	a1,0x1
    1a48:	40b405b3          	sub	a1,s0,a1
    1a4c:	68c5b023          	sd	a2,1664(a1) # 1680 <.LBB103_4+0x43c>
    1a50:	e2643823          	sd	t1,-464(s0)
    1a54:	026505b3          	mul	a1,a0,t1
    1a58:	00001637          	lui	a2,0x1
    1a5c:	40c40633          	sub	a2,s0,a2
    1a60:	6c863603          	ld	a2,1736(a2) # 16c8 <.LBB103_4+0x484>
    1a64:	00c58633          	add	a2,a1,a2
    1a68:	000015b7          	lui	a1,0x1
    1a6c:	40b405b3          	sub	a1,s0,a1
    1a70:	6cc5b423          	sd	a2,1736(a1) # 16c8 <.LBB103_4+0x484>
    1a74:	e7243c23          	sd	s2,-392(s0)
    1a78:	032505b3          	mul	a1,a0,s2
    1a7c:	00001637          	lui	a2,0x1
    1a80:	40c40633          	sub	a2,s0,a2
    1a84:	6d063603          	ld	a2,1744(a2) # 16d0 <.LBB103_4+0x48c>
    1a88:	00c58633          	add	a2,a1,a2
    1a8c:	000015b7          	lui	a1,0x1
    1a90:	40b405b3          	sub	a1,s0,a1
    1a94:	6cc5b823          	sd	a2,1744(a1) # 16d0 <.LBB103_4+0x48c>
    1a98:	ec543423          	sd	t0,-312(s0)
    1a9c:	025505b3          	mul	a1,a0,t0
    1aa0:	00001637          	lui	a2,0x1
    1aa4:	40c40633          	sub	a2,s0,a2
    1aa8:	6d863603          	ld	a2,1752(a2) # 16d8 <.LBB103_4+0x494>
    1aac:	00c58633          	add	a2,a1,a2
    1ab0:	000015b7          	lui	a1,0x1
    1ab4:	40b405b3          	sub	a1,s0,a1
    1ab8:	6cc5bc23          	sd	a2,1752(a1) # 16d8 <.LBB103_4+0x494>
    1abc:	f7e43423          	sd	t5,-152(s0)
    1ac0:	03e505b3          	mul	a1,a0,t5
    1ac4:	00001637          	lui	a2,0x1
    1ac8:	40c40633          	sub	a2,s0,a2
    1acc:	6e063603          	ld	a2,1760(a2) # 16e0 <.LBB103_4+0x49c>
    1ad0:	00c58633          	add	a2,a1,a2
    1ad4:	000015b7          	lui	a1,0x1
    1ad8:	40b405b3          	sub	a1,s0,a1
    1adc:	6ec5b023          	sd	a2,1760(a1) # 16e0 <.LBB103_4+0x49c>
    1ae0:	f7d43023          	sd	t4,-160(s0)
    1ae4:	03d505b3          	mul	a1,a0,t4
    1ae8:	00001637          	lui	a2,0x1
    1aec:	40c40633          	sub	a2,s0,a2
    1af0:	6e863603          	ld	a2,1768(a2) # 16e8 <.LBB103_4+0x4a4>
    1af4:	00c58633          	add	a2,a1,a2
    1af8:	000015b7          	lui	a1,0x1
    1afc:	40b405b3          	sub	a1,s0,a1
    1b00:	6ec5b423          	sd	a2,1768(a1) # 16e8 <.LBB103_4+0x4a4>
    1b04:	edc43023          	sd	t3,-320(s0)
    1b08:	03c505b3          	mul	a1,a0,t3
    1b0c:	00001637          	lui	a2,0x1
    1b10:	40c40633          	sub	a2,s0,a2
    1b14:	6f063603          	ld	a2,1776(a2) # 16f0 <.LBB103_4+0x4ac>
    1b18:	00c58633          	add	a2,a1,a2
    1b1c:	000015b7          	lui	a1,0x1
    1b20:	40b405b3          	sub	a1,s0,a1
    1b24:	6ec5b823          	sd	a2,1776(a1) # 16f0 <.LBB103_4+0x4ac>
    1b28:	027505b3          	mul	a1,a0,t2
    1b2c:	00001637          	lui	a2,0x1
    1b30:	40c40633          	sub	a2,s0,a2
    1b34:	6f863603          	ld	a2,1784(a2) # 16f8 <.LBB103_4+0x4b4>
    1b38:	00c58633          	add	a2,a1,a2
    1b3c:	000015b7          	lui	a1,0x1
    1b40:	40b405b3          	sub	a1,s0,a1
    1b44:	6ec5bc23          	sd	a2,1784(a1) # 16f8 <.LBB103_4+0x4b4>
    1b48:	f7843883          	ld	a7,-136(s0)
    1b4c:	031505b3          	mul	a1,a0,a7
    1b50:	00001637          	lui	a2,0x1
    1b54:	40c40633          	sub	a2,s0,a2
    1b58:	70063603          	ld	a2,1792(a2) # 1700 <.LBB103_4+0x4bc>
    1b5c:	00c58633          	add	a2,a1,a2
    1b60:	000015b7          	lui	a1,0x1
    1b64:	40b405b3          	sub	a1,s0,a1
    1b68:	70c5b023          	sd	a2,1792(a1) # 1700 <.LBB103_4+0x4bc>
    1b6c:	03f505b3          	mul	a1,a0,t6
    1b70:	00001637          	lui	a2,0x1
    1b74:	40c40633          	sub	a2,s0,a2
    1b78:	70863603          	ld	a2,1800(a2) # 1708 <.LBB103_4+0x4c4>
    1b7c:	00c58633          	add	a2,a1,a2
    1b80:	000015b7          	lui	a1,0x1
    1b84:	40b405b3          	sub	a1,s0,a1
    1b88:	70c5b423          	sd	a2,1800(a1) # 1708 <.LBB103_4+0x4c4>
    1b8c:	033505b3          	mul	a1,a0,s3
    1b90:	00001637          	lui	a2,0x1
    1b94:	40c40633          	sub	a2,s0,a2
    1b98:	71063603          	ld	a2,1808(a2) # 1710 <.LBB103_4+0x4cc>
    1b9c:	00c58633          	add	a2,a1,a2
    1ba0:	000015b7          	lui	a1,0x1
    1ba4:	40b405b3          	sub	a1,s0,a1
    1ba8:	70c5b823          	sd	a2,1808(a1) # 1710 <.LBB103_4+0x4cc>
    1bac:	e8843983          	ld	s3,-376(s0)
    1bb0:	033505b3          	mul	a1,a0,s3
    1bb4:	00001637          	lui	a2,0x1
    1bb8:	40c40633          	sub	a2,s0,a2
    1bbc:	71863603          	ld	a2,1816(a2) # 1718 <.LBB103_4+0x4d4>
    1bc0:	00c58633          	add	a2,a1,a2
    1bc4:	000015b7          	lui	a1,0x1
    1bc8:	40b405b3          	sub	a1,s0,a1
    1bcc:	70c5bc23          	sd	a2,1816(a1) # 1718 <.LBB103_4+0x4d4>
    1bd0:	034505b3          	mul	a1,a0,s4
    1bd4:	00001637          	lui	a2,0x1
    1bd8:	40c40633          	sub	a2,s0,a2
    1bdc:	72063603          	ld	a2,1824(a2) # 1720 <.LBB103_4+0x4dc>
    1be0:	00c58633          	add	a2,a1,a2
    1be4:	000015b7          	lui	a1,0x1
    1be8:	40b405b3          	sub	a1,s0,a1
    1bec:	72c5b023          	sd	a2,1824(a1) # 1720 <.LBB103_4+0x4dc>
    1bf0:	036505b3          	mul	a1,a0,s6
    1bf4:	00001637          	lui	a2,0x1
    1bf8:	40c40633          	sub	a2,s0,a2
    1bfc:	72863603          	ld	a2,1832(a2) # 1728 <.LBB103_4+0x4e4>
    1c00:	00c58633          	add	a2,a1,a2
    1c04:	000015b7          	lui	a1,0x1
    1c08:	40b405b3          	sub	a1,s0,a1
    1c0c:	72c5b423          	sd	a2,1832(a1) # 1728 <.LBB103_4+0x4e4>
    1c10:	029505b3          	mul	a1,a0,s1
    1c14:	00001637          	lui	a2,0x1
    1c18:	40c40633          	sub	a2,s0,a2
    1c1c:	73063603          	ld	a2,1840(a2) # 1730 <.LBB103_4+0x4ec>
    1c20:	00c58633          	add	a2,a1,a2
    1c24:	000015b7          	lui	a1,0x1
    1c28:	40b405b3          	sub	a1,s0,a1
    1c2c:	72c5b823          	sd	a2,1840(a1) # 1730 <.LBB103_4+0x4ec>
    1c30:	038505b3          	mul	a1,a0,s8
    1c34:	00001637          	lui	a2,0x1
    1c38:	40c40633          	sub	a2,s0,a2
    1c3c:	73863603          	ld	a2,1848(a2) # 1738 <.LBB103_4+0x4f4>
    1c40:	00c58633          	add	a2,a1,a2
    1c44:	000015b7          	lui	a1,0x1
    1c48:	40b405b3          	sub	a1,s0,a1
    1c4c:	72c5bc23          	sd	a2,1848(a1) # 1738 <.LBB103_4+0x4f4>
    1c50:	f8843583          	ld	a1,-120(s0)
    1c54:	01958683          	lb	a3,25(a1)
    1c58:	f6d43823          	sd	a3,-144(s0)
    1c5c:	037505b3          	mul	a1,a0,s7
    1c60:	00001637          	lui	a2,0x1
    1c64:	40c40633          	sub	a2,s0,a2
    1c68:	74063603          	ld	a2,1856(a2) # 1740 <.LBB103_4+0x4fc>
    1c6c:	00c58633          	add	a2,a1,a2
    1c70:	000015b7          	lui	a1,0x1
    1c74:	40b405b3          	sub	a1,s0,a1
    1c78:	74c5b023          	sd	a2,1856(a1) # 1740 <.LBB103_4+0x4fc>
    1c7c:	f8843583          	ld	a1,-120(s0)
    1c80:	01a58703          	lb	a4,26(a1)
    1c84:	f4e43c23          	sd	a4,-168(s0)
    1c88:	02d505b3          	mul	a1,a0,a3
    1c8c:	00001637          	lui	a2,0x1
    1c90:	40c40633          	sub	a2,s0,a2
    1c94:	74863603          	ld	a2,1864(a2) # 1748 <.LBB103_4+0x504>
    1c98:	00c58633          	add	a2,a1,a2
    1c9c:	000015b7          	lui	a1,0x1
    1ca0:	40b405b3          	sub	a1,s0,a1
    1ca4:	74c5b423          	sd	a2,1864(a1) # 1748 <.LBB103_4+0x504>
    1ca8:	f8843583          	ld	a1,-120(s0)
    1cac:	01b58683          	lb	a3,27(a1)
    1cb0:	02e505b3          	mul	a1,a0,a4
    1cb4:	00001637          	lui	a2,0x1
    1cb8:	40c40633          	sub	a2,s0,a2
    1cbc:	75063603          	ld	a2,1872(a2) # 1750 <.LBB103_4+0x50c>
    1cc0:	00c58633          	add	a2,a1,a2
    1cc4:	000015b7          	lui	a1,0x1
    1cc8:	40b405b3          	sub	a1,s0,a1
    1ccc:	74c5b823          	sd	a2,1872(a1) # 1750 <.LBB103_4+0x50c>
    1cd0:	f8843583          	ld	a1,-120(s0)
    1cd4:	01c58c03          	lb	s8,28(a1)
    1cd8:	02d505b3          	mul	a1,a0,a3
    1cdc:	00068093          	mv	ra,a3
    1ce0:	00001637          	lui	a2,0x1
    1ce4:	40c40633          	sub	a2,s0,a2
    1ce8:	75863603          	ld	a2,1880(a2) # 1758 <.LBB103_4+0x514>
    1cec:	00c58633          	add	a2,a1,a2
    1cf0:	000015b7          	lui	a1,0x1
    1cf4:	40b405b3          	sub	a1,s0,a1
    1cf8:	74c5bc23          	sd	a2,1880(a1) # 1758 <.LBB103_4+0x514>
    1cfc:	f8843583          	ld	a1,-120(s0)
    1d00:	01d58683          	lb	a3,29(a1)
    1d04:	038505b3          	mul	a1,a0,s8
    1d08:	e3843c23          	sd	s8,-456(s0)
    1d0c:	00001637          	lui	a2,0x1
    1d10:	40c40633          	sub	a2,s0,a2
    1d14:	76063603          	ld	a2,1888(a2) # 1760 <.LBB103_4+0x51c>
    1d18:	00c58633          	add	a2,a1,a2
    1d1c:	000015b7          	lui	a1,0x1
    1d20:	40b405b3          	sub	a1,s0,a1
    1d24:	76c5b023          	sd	a2,1888(a1) # 1760 <.LBB103_4+0x51c>
    1d28:	f8843583          	ld	a1,-120(s0)
    1d2c:	01e58f83          	lb	t6,30(a1)
    1d30:	e9f43023          	sd	t6,-384(s0)
    1d34:	02d505b3          	mul	a1,a0,a3
    1d38:	00068813          	mv	a6,a3
    1d3c:	00001637          	lui	a2,0x1
    1d40:	40c40633          	sub	a2,s0,a2
    1d44:	76863603          	ld	a2,1896(a2) # 1768 <.LBB103_4+0x524>
    1d48:	00c58633          	add	a2,a1,a2
    1d4c:	000015b7          	lui	a1,0x1
    1d50:	40b405b3          	sub	a1,s0,a1
    1d54:	76c5b423          	sd	a2,1896(a1) # 1768 <.LBB103_4+0x524>
    1d58:	f8843583          	ld	a1,-120(s0)
    1d5c:	01f58683          	lb	a3,31(a1)
    1d60:	f8043703          	ld	a4,-128(s0)
    1d64:	88070d83          	lb	s11,-1920(a4)
    1d68:	03f50ab3          	mul	s5,a0,t6
    1d6c:	000015b7          	lui	a1,0x1
    1d70:	40b405b3          	sub	a1,s0,a1
    1d74:	7705b603          	ld	a2,1904(a1) # 1770 <.LBB103_4+0x52c>
    1d78:	00ca8633          	add	a2,s5,a2
    1d7c:	000015b7          	lui	a1,0x1
    1d80:	40b405b3          	sub	a1,s0,a1
    1d84:	76c5b823          	sd	a2,1904(a1) # 1770 <.LBB103_4+0x52c>
    1d88:	02d50533          	mul	a0,a0,a3
    1d8c:	00068c93          	mv	s9,a3
    1d90:	000015b7          	lui	a1,0x1
    1d94:	40b405b3          	sub	a1,s0,a1
    1d98:	7785b603          	ld	a2,1912(a1) # 1778 <.LBB103_4+0x534>
    1d9c:	00c50633          	add	a2,a0,a2
    1da0:	00001537          	lui	a0,0x1
    1da4:	40a40533          	sub	a0,s0,a0
    1da8:	76c53c23          	sd	a2,1912(a0) # 1778 <.LBB103_4+0x534>
    1dac:	03ad8533          	mul	a0,s11,s10
    1db0:	000015b7          	lui	a1,0x1
    1db4:	40b405b3          	sub	a1,s0,a1
    1db8:	7985b603          	ld	a2,1944(a1) # 1798 <.LBB103_4+0x554>
    1dbc:	00c50633          	add	a2,a0,a2
    1dc0:	00001537          	lui	a0,0x1
    1dc4:	40a40533          	sub	a0,s0,a0
    1dc8:	78c53c23          	sd	a2,1944(a0) # 1798 <.LBB103_4+0x554>
    1dcc:	f3043683          	ld	a3,-208(s0)
    1dd0:	02dd8533          	mul	a0,s11,a3
    1dd4:	000015b7          	lui	a1,0x1
    1dd8:	40b405b3          	sub	a1,s0,a1
    1ddc:	7905b603          	ld	a2,1936(a1) # 1790 <.LBB103_4+0x54c>
    1de0:	00c50633          	add	a2,a0,a2
    1de4:	00001537          	lui	a0,0x1
    1de8:	40a40533          	sub	a0,s0,a0
    1dec:	78c53823          	sd	a2,1936(a0) # 1790 <.LBB103_4+0x54c>
    1df0:	f3843583          	ld	a1,-200(s0)
    1df4:	02bd8533          	mul	a0,s11,a1
    1df8:	00001637          	lui	a2,0x1
    1dfc:	40c40633          	sub	a2,s0,a2
    1e00:	78863603          	ld	a2,1928(a2) # 1788 <.LBB103_4+0x544>
    1e04:	00c50633          	add	a2,a0,a2
    1e08:	00001537          	lui	a0,0x1
    1e0c:	40a40533          	sub	a0,s0,a0
    1e10:	78c53423          	sd	a2,1928(a0) # 1788 <.LBB103_4+0x544>
    1e14:	02fd8533          	mul	a0,s11,a5
    1e18:	00001637          	lui	a2,0x1
    1e1c:	40c40633          	sub	a2,s0,a2
    1e20:	78063603          	ld	a2,1920(a2) # 1780 <.LBB103_4+0x53c>
    1e24:	00c50633          	add	a2,a0,a2
    1e28:	00001537          	lui	a0,0x1
    1e2c:	40a40533          	sub	a0,s0,a0
    1e30:	78c53023          	sd	a2,1920(a0) # 1780 <.LBB103_4+0x53c>
    1e34:	eb043503          	ld	a0,-336(s0)
    1e38:	02ad8533          	mul	a0,s11,a0
    1e3c:	00001637          	lui	a2,0x1
    1e40:	40c40633          	sub	a2,s0,a2
    1e44:	7a063603          	ld	a2,1952(a2) # 17a0 <.LBB103_4+0x55c>
    1e48:	00c50633          	add	a2,a0,a2
    1e4c:	00001537          	lui	a0,0x1
    1e50:	40a40533          	sub	a0,s0,a0
    1e54:	7ac53023          	sd	a2,1952(a0) # 17a0 <.LBB103_4+0x55c>
    1e58:	f2843783          	ld	a5,-216(s0)
    1e5c:	02fd8533          	mul	a0,s11,a5
    1e60:	00001637          	lui	a2,0x1
    1e64:	40c40633          	sub	a2,s0,a2
    1e68:	7a863603          	ld	a2,1960(a2) # 17a8 <.LBB103_4+0x564>
    1e6c:	00c50633          	add	a2,a0,a2
    1e70:	00001537          	lui	a0,0x1
    1e74:	40a40533          	sub	a0,s0,a0
    1e78:	7ac53423          	sd	a2,1960(a0) # 17a8 <.LBB103_4+0x564>
    1e7c:	f2043f83          	ld	t6,-224(s0)
    1e80:	03fd8533          	mul	a0,s11,t6
    1e84:	00001637          	lui	a2,0x1
    1e88:	40c40633          	sub	a2,s0,a2
    1e8c:	7b063603          	ld	a2,1968(a2) # 17b0 <.LBB103_4+0x56c>
    1e90:	00c50633          	add	a2,a0,a2
    1e94:	00001537          	lui	a0,0x1
    1e98:	40a40533          	sub	a0,s0,a0
    1e9c:	7ac53823          	sd	a2,1968(a0) # 17b0 <.LBB103_4+0x56c>
    1ea0:	f4043a03          	ld	s4,-192(s0)
    1ea4:	034d8533          	mul	a0,s11,s4
    1ea8:	00001637          	lui	a2,0x1
    1eac:	40c40633          	sub	a2,s0,a2
    1eb0:	7b863603          	ld	a2,1976(a2) # 17b8 <.LBB103_4+0x574>
    1eb4:	00c50633          	add	a2,a0,a2
    1eb8:	00001537          	lui	a0,0x1
    1ebc:	40a40533          	sub	a0,s0,a0
    1ec0:	7ac53c23          	sd	a2,1976(a0) # 17b8 <.LBB103_4+0x574>
    1ec4:	ea843503          	ld	a0,-344(s0)
    1ec8:	02ad8533          	mul	a0,s11,a0
    1ecc:	00001637          	lui	a2,0x1
    1ed0:	40c40633          	sub	a2,s0,a2
    1ed4:	7c063603          	ld	a2,1984(a2) # 17c0 <.LBB103_4+0x57c>
    1ed8:	00c50633          	add	a2,a0,a2
    1edc:	00001537          	lui	a0,0x1
    1ee0:	40a40533          	sub	a0,s0,a0
    1ee4:	7cc53023          	sd	a2,1984(a0) # 17c0 <.LBB103_4+0x57c>
    1ee8:	026d8533          	mul	a0,s11,t1
    1eec:	00001637          	lui	a2,0x1
    1ef0:	40c40633          	sub	a2,s0,a2
    1ef4:	7c863603          	ld	a2,1992(a2) # 17c8 <.LBB103_4+0x584>
    1ef8:	00c50633          	add	a2,a0,a2
    1efc:	00001537          	lui	a0,0x1
    1f00:	40a40533          	sub	a0,s0,a0
    1f04:	7cc53423          	sd	a2,1992(a0) # 17c8 <.LBB103_4+0x584>
    1f08:	032d8533          	mul	a0,s11,s2
    1f0c:	00001637          	lui	a2,0x1
    1f10:	40c40633          	sub	a2,s0,a2
    1f14:	7d063603          	ld	a2,2000(a2) # 17d0 <.LBB103_4+0x58c>
    1f18:	00c50633          	add	a2,a0,a2
    1f1c:	00001537          	lui	a0,0x1
    1f20:	40a40533          	sub	a0,s0,a0
    1f24:	7cc53823          	sd	a2,2000(a0) # 17d0 <.LBB103_4+0x58c>
    1f28:	025d8533          	mul	a0,s11,t0
    1f2c:	00001637          	lui	a2,0x1
    1f30:	40c40633          	sub	a2,s0,a2
    1f34:	7d863603          	ld	a2,2008(a2) # 17d8 <.LBB103_4+0x594>
    1f38:	00c50633          	add	a2,a0,a2
    1f3c:	00001537          	lui	a0,0x1
    1f40:	40a40533          	sub	a0,s0,a0
    1f44:	7cc53c23          	sd	a2,2008(a0) # 17d8 <.LBB103_4+0x594>
    1f48:	03ed8533          	mul	a0,s11,t5
    1f4c:	00001637          	lui	a2,0x1
    1f50:	40c40633          	sub	a2,s0,a2
    1f54:	7e063603          	ld	a2,2016(a2) # 17e0 <.LBB103_4+0x59c>
    1f58:	00c50633          	add	a2,a0,a2
    1f5c:	00001537          	lui	a0,0x1
    1f60:	40a40533          	sub	a0,s0,a0
    1f64:	7ec53023          	sd	a2,2016(a0) # 17e0 <.LBB103_4+0x59c>
    1f68:	03dd8533          	mul	a0,s11,t4
    1f6c:	00001637          	lui	a2,0x1
    1f70:	40c40633          	sub	a2,s0,a2
    1f74:	7e863603          	ld	a2,2024(a2) # 17e8 <.LBB103_4+0x5a4>
    1f78:	00c50633          	add	a2,a0,a2
    1f7c:	00001537          	lui	a0,0x1
    1f80:	40a40533          	sub	a0,s0,a0
    1f84:	7ec53423          	sd	a2,2024(a0) # 17e8 <.LBB103_4+0x5a4>
    1f88:	03cd8533          	mul	a0,s11,t3
    1f8c:	00001637          	lui	a2,0x1
    1f90:	40c40633          	sub	a2,s0,a2
    1f94:	7f063603          	ld	a2,2032(a2) # 17f0 <.LBB103_4+0x5ac>
    1f98:	00c50633          	add	a2,a0,a2
    1f9c:	00001537          	lui	a0,0x1
    1fa0:	40a40533          	sub	a0,s0,a0
    1fa4:	7ec53823          	sd	a2,2032(a0) # 17f0 <.LBB103_4+0x5ac>
    1fa8:	027d8533          	mul	a0,s11,t2
    1fac:	e6743423          	sd	t2,-408(s0)
    1fb0:	00001637          	lui	a2,0x1
    1fb4:	40c40633          	sub	a2,s0,a2
    1fb8:	7f863603          	ld	a2,2040(a2) # 17f8 <.LBB103_4+0x5b4>
    1fbc:	00c50633          	add	a2,a0,a2
    1fc0:	00001537          	lui	a0,0x1
    1fc4:	40a40533          	sub	a0,s0,a0
    1fc8:	7ec53c23          	sd	a2,2040(a0) # 17f8 <.LBB103_4+0x5b4>
    1fcc:	031d8533          	mul	a0,s11,a7
    1fd0:	80043603          	ld	a2,-2048(s0)
    1fd4:	00c50633          	add	a2,a0,a2
    1fd8:	80c43023          	sd	a2,-2048(s0)
    1fdc:	e9843303          	ld	t1,-360(s0)
    1fe0:	026d8533          	mul	a0,s11,t1
    1fe4:	80843603          	ld	a2,-2040(s0)
    1fe8:	00c50633          	add	a2,a0,a2
    1fec:	80c43423          	sd	a2,-2040(s0)
    1ff0:	f5043483          	ld	s1,-176(s0)
    1ff4:	029d8533          	mul	a0,s11,s1
    1ff8:	81043603          	ld	a2,-2032(s0)
    1ffc:	00c50633          	add	a2,a0,a2
    2000:	80c43823          	sd	a2,-2032(s0)
    2004:	033d8533          	mul	a0,s11,s3
    2008:	81843603          	ld	a2,-2024(s0)
    200c:	00c50633          	add	a2,a0,a2
    2010:	80c43c23          	sd	a2,-2024(s0)
    2014:	eb843b03          	ld	s6,-328(s0)
    2018:	036d8533          	mul	a0,s11,s6
    201c:	82043603          	ld	a2,-2016(s0)
    2020:	00c50633          	add	a2,a0,a2
    2024:	82c43023          	sd	a2,-2016(s0)
    2028:	e5043e83          	ld	t4,-432(s0)
    202c:	03dd8533          	mul	a0,s11,t4
    2030:	82843603          	ld	a2,-2008(s0)
    2034:	00c50633          	add	a2,a0,a2
    2038:	82c43423          	sd	a2,-2008(s0)
    203c:	f4843503          	ld	a0,-184(s0)
    2040:	02ad8533          	mul	a0,s11,a0
    2044:	83043603          	ld	a2,-2000(s0)
    2048:	00c50633          	add	a2,a0,a2
    204c:	82c43823          	sd	a2,-2000(s0)
    2050:	ea043d03          	ld	s10,-352(s0)
    2054:	03ad8533          	mul	a0,s11,s10
    2058:	83843603          	ld	a2,-1992(s0)
    205c:	00c50633          	add	a2,a0,a2
    2060:	82c43c23          	sd	a2,-1992(s0)
    2064:	e5743423          	sd	s7,-440(s0)
    2068:	037d8533          	mul	a0,s11,s7
    206c:	84043603          	ld	a2,-1984(s0)
    2070:	00c50633          	add	a2,a0,a2
    2074:	84c43023          	sd	a2,-1984(s0)
    2078:	f7043503          	ld	a0,-144(s0)
    207c:	02ad8533          	mul	a0,s11,a0
    2080:	84843603          	ld	a2,-1976(s0)
    2084:	00c50633          	add	a2,a0,a2
    2088:	84c43423          	sd	a2,-1976(s0)
    208c:	f5843f03          	ld	t5,-168(s0)
    2090:	03ed8533          	mul	a0,s11,t5
    2094:	85043603          	ld	a2,-1968(s0)
    2098:	00c50633          	add	a2,a0,a2
    209c:	84c43823          	sd	a2,-1968(s0)
    20a0:	021d8533          	mul	a0,s11,ra
    20a4:	e6143023          	sd	ra,-416(s0)
    20a8:	85843603          	ld	a2,-1960(s0)
    20ac:	00c50633          	add	a2,a0,a2
    20b0:	84c43c23          	sd	a2,-1960(s0)
    20b4:	038d8533          	mul	a0,s11,s8
    20b8:	86043603          	ld	a2,-1952(s0)
    20bc:	00c50633          	add	a2,a0,a2
    20c0:	86c43023          	sd	a2,-1952(s0)
    20c4:	030d8533          	mul	a0,s11,a6
    20c8:	00080293          	mv	t0,a6
    20cc:	86843603          	ld	a2,-1944(s0)
    20d0:	00c50633          	add	a2,a0,a2
    20d4:	86c43423          	sd	a2,-1944(s0)
    20d8:	9c070503          	lb	a0,-1600(a4)
    20dc:	00070893          	mv	a7,a4
    20e0:	f8e43023          	sd	a4,-128(s0)
    20e4:	e8043e03          	ld	t3,-384(s0)
    20e8:	03cd8ab3          	mul	s5,s11,t3
    20ec:	87043603          	ld	a2,-1936(s0)
    20f0:	00ca8633          	add	a2,s5,a2
    20f4:	86c43823          	sd	a2,-1936(s0)
    20f8:	039d8ab3          	mul	s5,s11,s9
    20fc:	e5943023          	sd	s9,-448(s0)
    2100:	87843603          	ld	a2,-1928(s0)
    2104:	00ca8633          	add	a2,s5,a2
    2108:	86c43c23          	sd	a2,-1928(s0)
    210c:	e9043903          	ld	s2,-368(s0)
    2110:	03250ab3          	mul	s5,a0,s2
    2114:	89843603          	ld	a2,-1896(s0)
    2118:	00ca8633          	add	a2,s5,a2
    211c:	88c43c23          	sd	a2,-1896(s0)
    2120:	02d50ab3          	mul	s5,a0,a3
    2124:	89043603          	ld	a2,-1904(s0)
    2128:	00ca8633          	add	a2,s5,a2
    212c:	88c43823          	sd	a2,-1904(s0)
    2130:	02b50ab3          	mul	s5,a0,a1
    2134:	88843603          	ld	a2,-1912(s0)
    2138:	00ca8633          	add	a2,s5,a2
    213c:	88c43423          	sd	a2,-1912(s0)
    2140:	e7043c03          	ld	s8,-400(s0)
    2144:	03850ab3          	mul	s5,a0,s8
    2148:	88043603          	ld	a2,-1920(s0)
    214c:	00ca8633          	add	a2,s5,a2
    2150:	88c43023          	sd	a2,-1920(s0)
    2154:	eb043583          	ld	a1,-336(s0)
    2158:	02b50ab3          	mul	s5,a0,a1
    215c:	8a043603          	ld	a2,-1888(s0)
    2160:	00ca8633          	add	a2,s5,a2
    2164:	8ac43023          	sd	a2,-1888(s0)
    2168:	02f50ab3          	mul	s5,a0,a5
    216c:	8a843603          	ld	a2,-1880(s0)
    2170:	00ca8633          	add	a2,s5,a2
    2174:	8ac43423          	sd	a2,-1880(s0)
    2178:	03f50ab3          	mul	s5,a0,t6
    217c:	8b043603          	ld	a2,-1872(s0)
    2180:	00ca8633          	add	a2,s5,a2
    2184:	8ac43823          	sd	a2,-1872(s0)
    2188:	03450ab3          	mul	s5,a0,s4
    218c:	8b843603          	ld	a2,-1864(s0)
    2190:	00ca8633          	add	a2,s5,a2
    2194:	8ac43c23          	sd	a2,-1864(s0)
    2198:	ea843803          	ld	a6,-344(s0)
    219c:	03050ab3          	mul	s5,a0,a6
    21a0:	8c043603          	ld	a2,-1856(s0)
    21a4:	00ca8633          	add	a2,s5,a2
    21a8:	8cc43023          	sd	a2,-1856(s0)
    21ac:	e3043a03          	ld	s4,-464(s0)
    21b0:	03450ab3          	mul	s5,a0,s4
    21b4:	8c843603          	ld	a2,-1848(s0)
    21b8:	00ca8633          	add	a2,s5,a2
    21bc:	8cc43423          	sd	a2,-1848(s0)
    21c0:	e7843f83          	ld	t6,-392(s0)
    21c4:	03f50ab3          	mul	s5,a0,t6
    21c8:	8d043603          	ld	a2,-1840(s0)
    21cc:	00ca8633          	add	a2,s5,a2
    21d0:	8cc43823          	sd	a2,-1840(s0)
    21d4:	ec843603          	ld	a2,-312(s0)
    21d8:	02c50ab3          	mul	s5,a0,a2
    21dc:	8d843603          	ld	a2,-1832(s0)
    21e0:	00ca8633          	add	a2,s5,a2
    21e4:	8cc43c23          	sd	a2,-1832(s0)
    21e8:	f6843603          	ld	a2,-152(s0)
    21ec:	02c50ab3          	mul	s5,a0,a2
    21f0:	8e043603          	ld	a2,-1824(s0)
    21f4:	00ca8633          	add	a2,s5,a2
    21f8:	8ec43023          	sd	a2,-1824(s0)
    21fc:	f6043603          	ld	a2,-160(s0)
    2200:	02c50ab3          	mul	s5,a0,a2
    2204:	8e843603          	ld	a2,-1816(s0)
    2208:	00ca8633          	add	a2,s5,a2
    220c:	8ec43423          	sd	a2,-1816(s0)
    2210:	ec043603          	ld	a2,-320(s0)
    2214:	02c50ab3          	mul	s5,a0,a2
    2218:	8f043603          	ld	a2,-1808(s0)
    221c:	00ca8633          	add	a2,s5,a2
    2220:	8ec43823          	sd	a2,-1808(s0)
    2224:	02750ab3          	mul	s5,a0,t2
    2228:	8f843603          	ld	a2,-1800(s0)
    222c:	00ca8633          	add	a2,s5,a2
    2230:	8ec43c23          	sd	a2,-1800(s0)
    2234:	f7843603          	ld	a2,-136(s0)
    2238:	02c50ab3          	mul	s5,a0,a2
    223c:	90043603          	ld	a2,-1792(s0)
    2240:	00ca8633          	add	a2,s5,a2
    2244:	90c43023          	sd	a2,-1792(s0)
    2248:	02650ab3          	mul	s5,a0,t1
    224c:	90843603          	ld	a2,-1784(s0)
    2250:	00ca8633          	add	a2,s5,a2
    2254:	90c43423          	sd	a2,-1784(s0)
    2258:	02950ab3          	mul	s5,a0,s1
    225c:	91043603          	ld	a2,-1776(s0)
    2260:	00ca8633          	add	a2,s5,a2
    2264:	90c43823          	sd	a2,-1776(s0)
    2268:	03350ab3          	mul	s5,a0,s3
    226c:	91843603          	ld	a2,-1768(s0)
    2270:	00ca8633          	add	a2,s5,a2
    2274:	90c43c23          	sd	a2,-1768(s0)
    2278:	03650ab3          	mul	s5,a0,s6
    227c:	92043603          	ld	a2,-1760(s0)
    2280:	00ca8633          	add	a2,s5,a2
    2284:	92c43023          	sd	a2,-1760(s0)
    2288:	03d50ab3          	mul	s5,a0,t4
    228c:	92843603          	ld	a2,-1752(s0)
    2290:	00ca8633          	add	a2,s5,a2
    2294:	92c43423          	sd	a2,-1752(s0)
    2298:	f4843e83          	ld	t4,-184(s0)
    229c:	03d50ab3          	mul	s5,a0,t4
    22a0:	93043603          	ld	a2,-1744(s0)
    22a4:	00ca8633          	add	a2,s5,a2
    22a8:	92c43823          	sd	a2,-1744(s0)
    22ac:	03a50ab3          	mul	s5,a0,s10
    22b0:	93843603          	ld	a2,-1736(s0)
    22b4:	00ca8633          	add	a2,s5,a2
    22b8:	92c43c23          	sd	a2,-1736(s0)
    22bc:	03750ab3          	mul	s5,a0,s7
    22c0:	94043603          	ld	a2,-1728(s0)
    22c4:	00ca8633          	add	a2,s5,a2
    22c8:	94c43023          	sd	a2,-1728(s0)
    22cc:	f7043683          	ld	a3,-144(s0)
    22d0:	02d50ab3          	mul	s5,a0,a3
    22d4:	94843603          	ld	a2,-1720(s0)
    22d8:	00ca8633          	add	a2,s5,a2
    22dc:	94c43423          	sd	a2,-1720(s0)
    22e0:	03e50ab3          	mul	s5,a0,t5
    22e4:	95043603          	ld	a2,-1712(s0)
    22e8:	00ca8633          	add	a2,s5,a2
    22ec:	94c43823          	sd	a2,-1712(s0)
    22f0:	02150ab3          	mul	s5,a0,ra
    22f4:	95843603          	ld	a2,-1704(s0)
    22f8:	00ca8633          	add	a2,s5,a2
    22fc:	94c43c23          	sd	a2,-1704(s0)
    2300:	e3843703          	ld	a4,-456(s0)
    2304:	02e50ab3          	mul	s5,a0,a4
    2308:	96043603          	ld	a2,-1696(s0)
    230c:	00ca8633          	add	a2,s5,a2
    2310:	96c43023          	sd	a2,-1696(s0)
    2314:	02550ab3          	mul	s5,a0,t0
    2318:	00028b93          	mv	s7,t0
    231c:	e4543c23          	sd	t0,-424(s0)
    2320:	96843603          	ld	a2,-1688(s0)
    2324:	00ca8633          	add	a2,s5,a2
    2328:	96c43423          	sd	a2,-1688(s0)
    232c:	b0088d83          	lb	s11,-1280(a7)
    2330:	03c50ab3          	mul	s5,a0,t3
    2334:	97043603          	ld	a2,-1680(s0)
    2338:	00ca8633          	add	a2,s5,a2
    233c:	96c43823          	sd	a2,-1680(s0)
    2340:	03950533          	mul	a0,a0,s9
    2344:	97843603          	ld	a2,-1672(s0)
    2348:	00c50633          	add	a2,a0,a2
    234c:	96c43c23          	sd	a2,-1672(s0)
    2350:	00090393          	mv	t2,s2
    2354:	032d8533          	mul	a0,s11,s2
    2358:	99843603          	ld	a2,-1640(s0)
    235c:	00c50633          	add	a2,a0,a2
    2360:	98c43c23          	sd	a2,-1640(s0)
    2364:	f3043283          	ld	t0,-208(s0)
    2368:	025d8533          	mul	a0,s11,t0
    236c:	99043603          	ld	a2,-1648(s0)
    2370:	00c50633          	add	a2,a0,a2
    2374:	98c43823          	sd	a2,-1648(s0)
    2378:	f3843f03          	ld	t5,-200(s0)
    237c:	03ed8533          	mul	a0,s11,t5
    2380:	98843603          	ld	a2,-1656(s0)
    2384:	00c50633          	add	a2,a0,a2
    2388:	98c43423          	sd	a2,-1656(s0)
    238c:	038d8533          	mul	a0,s11,s8
    2390:	000c0c93          	mv	s9,s8
    2394:	98043603          	ld	a2,-1664(s0)
    2398:	00c50633          	add	a2,a0,a2
    239c:	98c43023          	sd	a2,-1664(s0)
    23a0:	00058793          	mv	a5,a1
    23a4:	02bd8533          	mul	a0,s11,a1
    23a8:	9a043603          	ld	a2,-1632(s0)
    23ac:	00c50633          	add	a2,a0,a2
    23b0:	9ac43023          	sd	a2,-1632(s0)
    23b4:	f2843583          	ld	a1,-216(s0)
    23b8:	02bd8533          	mul	a0,s11,a1
    23bc:	9a843603          	ld	a2,-1624(s0)
    23c0:	00c50633          	add	a2,a0,a2
    23c4:	9ac43423          	sd	a2,-1624(s0)
    23c8:	f2043d03          	ld	s10,-224(s0)
    23cc:	03ad8533          	mul	a0,s11,s10
    23d0:	9b043603          	ld	a2,-1616(s0)
    23d4:	00c50633          	add	a2,a0,a2
    23d8:	9ac43823          	sd	a2,-1616(s0)
    23dc:	f4043083          	ld	ra,-192(s0)
    23e0:	021d8533          	mul	a0,s11,ra
    23e4:	9b843603          	ld	a2,-1608(s0)
    23e8:	00c50633          	add	a2,a0,a2
    23ec:	9ac43c23          	sd	a2,-1608(s0)
    23f0:	030d8533          	mul	a0,s11,a6
    23f4:	9c043603          	ld	a2,-1600(s0)
    23f8:	00c50633          	add	a2,a0,a2
    23fc:	9cc43023          	sd	a2,-1600(s0)
    2400:	034d8533          	mul	a0,s11,s4
    2404:	9c843603          	ld	a2,-1592(s0)
    2408:	00c50633          	add	a2,a0,a2
    240c:	9cc43423          	sd	a2,-1592(s0)
    2410:	000f8913          	mv	s2,t6
    2414:	03fd8533          	mul	a0,s11,t6
    2418:	9d043603          	ld	a2,-1584(s0)
    241c:	00c50633          	add	a2,a0,a2
    2420:	9cc43823          	sd	a2,-1584(s0)
    2424:	ec843f83          	ld	t6,-312(s0)
    2428:	03fd8533          	mul	a0,s11,t6
    242c:	9d843603          	ld	a2,-1576(s0)
    2430:	00c50633          	add	a2,a0,a2
    2434:	9cc43c23          	sd	a2,-1576(s0)
    2438:	f6843883          	ld	a7,-152(s0)
    243c:	031d8533          	mul	a0,s11,a7
    2440:	9e043603          	ld	a2,-1568(s0)
    2444:	00c50633          	add	a2,a0,a2
    2448:	9ec43023          	sd	a2,-1568(s0)
    244c:	f6043483          	ld	s1,-160(s0)
    2450:	029d8533          	mul	a0,s11,s1
    2454:	9e843603          	ld	a2,-1560(s0)
    2458:	00c50633          	add	a2,a0,a2
    245c:	9ec43423          	sd	a2,-1560(s0)
    2460:	ec043503          	ld	a0,-320(s0)
    2464:	02ad8533          	mul	a0,s11,a0
    2468:	9f043603          	ld	a2,-1552(s0)
    246c:	00c50633          	add	a2,a0,a2
    2470:	9ec43823          	sd	a2,-1552(s0)
    2474:	e6843503          	ld	a0,-408(s0)
    2478:	02ad8533          	mul	a0,s11,a0
    247c:	9f843603          	ld	a2,-1544(s0)
    2480:	00c50633          	add	a2,a0,a2
    2484:	9ec43c23          	sd	a2,-1544(s0)
    2488:	f7843503          	ld	a0,-136(s0)
    248c:	02ad8533          	mul	a0,s11,a0
    2490:	a0043603          	ld	a2,-1536(s0)
    2494:	00c50633          	add	a2,a0,a2
    2498:	a0c43023          	sd	a2,-1536(s0)
    249c:	026d8533          	mul	a0,s11,t1
    24a0:	a0843603          	ld	a2,-1528(s0)
    24a4:	00c50633          	add	a2,a0,a2
    24a8:	a0c43423          	sd	a2,-1528(s0)
    24ac:	f5043303          	ld	t1,-176(s0)
    24b0:	026d8533          	mul	a0,s11,t1
    24b4:	a1043603          	ld	a2,-1520(s0)
    24b8:	00c50633          	add	a2,a0,a2
    24bc:	a0c43823          	sd	a2,-1520(s0)
    24c0:	033d8533          	mul	a0,s11,s3
    24c4:	a1843603          	ld	a2,-1512(s0)
    24c8:	00c50633          	add	a2,a0,a2
    24cc:	a0c43c23          	sd	a2,-1512(s0)
    24d0:	036d8533          	mul	a0,s11,s6
    24d4:	a2043603          	ld	a2,-1504(s0)
    24d8:	00c50633          	add	a2,a0,a2
    24dc:	a2c43023          	sd	a2,-1504(s0)
    24e0:	e5043803          	ld	a6,-432(s0)
    24e4:	030d8533          	mul	a0,s11,a6
    24e8:	a2843603          	ld	a2,-1496(s0)
    24ec:	00c50633          	add	a2,a0,a2
    24f0:	a2c43423          	sd	a2,-1496(s0)
    24f4:	03dd8533          	mul	a0,s11,t4
    24f8:	a3043603          	ld	a2,-1488(s0)
    24fc:	00c50633          	add	a2,a0,a2
    2500:	a2c43823          	sd	a2,-1488(s0)
    2504:	ea043e83          	ld	t4,-352(s0)
    2508:	03dd8533          	mul	a0,s11,t4
    250c:	a3843603          	ld	a2,-1480(s0)
    2510:	00c50633          	add	a2,a0,a2
    2514:	a2c43c23          	sd	a2,-1480(s0)
    2518:	e4843c03          	ld	s8,-440(s0)
    251c:	038d8533          	mul	a0,s11,s8
    2520:	a4043603          	ld	a2,-1472(s0)
    2524:	00c50633          	add	a2,a0,a2
    2528:	a4c43023          	sd	a2,-1472(s0)
    252c:	02dd8533          	mul	a0,s11,a3
    2530:	a4843603          	ld	a2,-1464(s0)
    2534:	00c50633          	add	a2,a0,a2
    2538:	a4c43423          	sd	a2,-1464(s0)
    253c:	f5843503          	ld	a0,-168(s0)
    2540:	02ad8533          	mul	a0,s11,a0
    2544:	a5043603          	ld	a2,-1456(s0)
    2548:	00c50633          	add	a2,a0,a2
    254c:	a4c43823          	sd	a2,-1456(s0)
    2550:	e6043503          	ld	a0,-416(s0)
    2554:	02ad8533          	mul	a0,s11,a0
    2558:	a5843603          	ld	a2,-1448(s0)
    255c:	00c50633          	add	a2,a0,a2
    2560:	a4c43c23          	sd	a2,-1448(s0)
    2564:	02ed8533          	mul	a0,s11,a4
    2568:	a6043603          	ld	a2,-1440(s0)
    256c:	00c50633          	add	a2,a0,a2
    2570:	a6c43023          	sd	a2,-1440(s0)
    2574:	037d8533          	mul	a0,s11,s7
    2578:	a6843603          	ld	a2,-1432(s0)
    257c:	00c50633          	add	a2,a0,a2
    2580:	a6c43423          	sd	a2,-1432(s0)
    2584:	f8043983          	ld	s3,-128(s0)
    2588:	c4098503          	lb	a0,-960(s3)
    258c:	03cd8ab3          	mul	s5,s11,t3
    2590:	a7043603          	ld	a2,-1424(s0)
    2594:	00ca8633          	add	a2,s5,a2
    2598:	a6c43823          	sd	a2,-1424(s0)
    259c:	e4043703          	ld	a4,-448(s0)
    25a0:	02ed8ab3          	mul	s5,s11,a4
    25a4:	a7843603          	ld	a2,-1416(s0)
    25a8:	00ca8633          	add	a2,s5,a2
    25ac:	a6c43c23          	sd	a2,-1416(s0)
    25b0:	02750ab3          	mul	s5,a0,t2
    25b4:	a9843603          	ld	a2,-1384(s0)
    25b8:	00ca8633          	add	a2,s5,a2
    25bc:	a8c43c23          	sd	a2,-1384(s0)
    25c0:	02550ab3          	mul	s5,a0,t0
    25c4:	a9043603          	ld	a2,-1392(s0)
    25c8:	00ca8633          	add	a2,s5,a2
    25cc:	a8c43823          	sd	a2,-1392(s0)
    25d0:	03e50ab3          	mul	s5,a0,t5
    25d4:	a8843603          	ld	a2,-1400(s0)
    25d8:	00ca8633          	add	a2,s5,a2
    25dc:	a8c43423          	sd	a2,-1400(s0)
    25e0:	03950ab3          	mul	s5,a0,s9
    25e4:	a8043603          	ld	a2,-1408(s0)
    25e8:	00ca8633          	add	a2,s5,a2
    25ec:	a8c43023          	sd	a2,-1408(s0)
    25f0:	02f50ab3          	mul	s5,a0,a5
    25f4:	aa043603          	ld	a2,-1376(s0)
    25f8:	00ca8633          	add	a2,s5,a2
    25fc:	aac43023          	sd	a2,-1376(s0)
    2600:	02b50ab3          	mul	s5,a0,a1
    2604:	aa843603          	ld	a2,-1368(s0)
    2608:	00ca8633          	add	a2,s5,a2
    260c:	aac43423          	sd	a2,-1368(s0)
    2610:	03a50ab3          	mul	s5,a0,s10
    2614:	ab043603          	ld	a2,-1360(s0)
    2618:	00ca8633          	add	a2,s5,a2
    261c:	aac43823          	sd	a2,-1360(s0)
    2620:	00008693          	mv	a3,ra
    2624:	02150ab3          	mul	s5,a0,ra
    2628:	ab843603          	ld	a2,-1352(s0)
    262c:	00ca8633          	add	a2,s5,a2
    2630:	aac43c23          	sd	a2,-1352(s0)
    2634:	ea843d03          	ld	s10,-344(s0)
    2638:	03a50ab3          	mul	s5,a0,s10
    263c:	ac043603          	ld	a2,-1344(s0)
    2640:	00ca8633          	add	a2,s5,a2
    2644:	acc43023          	sd	a2,-1344(s0)
    2648:	03450ab3          	mul	s5,a0,s4
    264c:	ac843603          	ld	a2,-1336(s0)
    2650:	00ca8633          	add	a2,s5,a2
    2654:	acc43423          	sd	a2,-1336(s0)
    2658:	03250ab3          	mul	s5,a0,s2
    265c:	ad043603          	ld	a2,-1328(s0)
    2660:	00ca8633          	add	a2,s5,a2
    2664:	acc43823          	sd	a2,-1328(s0)
    2668:	03f50ab3          	mul	s5,a0,t6
    266c:	ad843603          	ld	a2,-1320(s0)
    2670:	00ca8633          	add	a2,s5,a2
    2674:	acc43c23          	sd	a2,-1320(s0)
    2678:	03150ab3          	mul	s5,a0,a7
    267c:	ae043603          	ld	a2,-1312(s0)
    2680:	00ca8633          	add	a2,s5,a2
    2684:	aec43023          	sd	a2,-1312(s0)
    2688:	02950ab3          	mul	s5,a0,s1
    268c:	ae843603          	ld	a2,-1304(s0)
    2690:	00ca8633          	add	a2,s5,a2
    2694:	aec43423          	sd	a2,-1304(s0)
    2698:	ec043903          	ld	s2,-320(s0)
    269c:	03250ab3          	mul	s5,a0,s2
    26a0:	af043603          	ld	a2,-1296(s0)
    26a4:	00ca8633          	add	a2,s5,a2
    26a8:	aec43823          	sd	a2,-1296(s0)
    26ac:	e6843383          	ld	t2,-408(s0)
    26b0:	02750ab3          	mul	s5,a0,t2
    26b4:	af843603          	ld	a2,-1288(s0)
    26b8:	00ca8633          	add	a2,s5,a2
    26bc:	aec43c23          	sd	a2,-1288(s0)
    26c0:	f7843f03          	ld	t5,-136(s0)
    26c4:	03e50ab3          	mul	s5,a0,t5
    26c8:	b0043603          	ld	a2,-1280(s0)
    26cc:	00ca8633          	add	a2,s5,a2
    26d0:	b0c43023          	sd	a2,-1280(s0)
    26d4:	e9843883          	ld	a7,-360(s0)
    26d8:	03150ab3          	mul	s5,a0,a7
    26dc:	b0843603          	ld	a2,-1272(s0)
    26e0:	00ca8633          	add	a2,s5,a2
    26e4:	b0c43423          	sd	a2,-1272(s0)
    26e8:	02650ab3          	mul	s5,a0,t1
    26ec:	b1043603          	ld	a2,-1264(s0)
    26f0:	00ca8633          	add	a2,s5,a2
    26f4:	b0c43823          	sd	a2,-1264(s0)
    26f8:	e8843303          	ld	t1,-376(s0)
    26fc:	02650ab3          	mul	s5,a0,t1
    2700:	b1843603          	ld	a2,-1256(s0)
    2704:	00ca8633          	add	a2,s5,a2
    2708:	b0c43c23          	sd	a2,-1256(s0)
    270c:	03650ab3          	mul	s5,a0,s6
    2710:	b2043603          	ld	a2,-1248(s0)
    2714:	00ca8633          	add	a2,s5,a2
    2718:	b2c43023          	sd	a2,-1248(s0)
    271c:	00080493          	mv	s1,a6
    2720:	03050ab3          	mul	s5,a0,a6
    2724:	b2843603          	ld	a2,-1240(s0)
    2728:	00ca8633          	add	a2,s5,a2
    272c:	b2c43423          	sd	a2,-1240(s0)
    2730:	f4843c83          	ld	s9,-184(s0)
    2734:	03950ab3          	mul	s5,a0,s9
    2738:	b3043603          	ld	a2,-1232(s0)
    273c:	00ca8633          	add	a2,s5,a2
    2740:	b2c43823          	sd	a2,-1232(s0)
    2744:	03d50ab3          	mul	s5,a0,t4
    2748:	b3843603          	ld	a2,-1224(s0)
    274c:	00ca8633          	add	a2,s5,a2
    2750:	b2c43c23          	sd	a2,-1224(s0)
    2754:	03850ab3          	mul	s5,a0,s8
    2758:	b4043603          	ld	a2,-1216(s0)
    275c:	00ca8633          	add	a2,s5,a2
    2760:	b4c43023          	sd	a2,-1216(s0)
    2764:	f7043b83          	ld	s7,-144(s0)
    2768:	03750ab3          	mul	s5,a0,s7
    276c:	b4843603          	ld	a2,-1208(s0)
    2770:	00ca8633          	add	a2,s5,a2
    2774:	b4c43423          	sd	a2,-1208(s0)
    2778:	f5843e03          	ld	t3,-168(s0)
    277c:	03c50ab3          	mul	s5,a0,t3
    2780:	b5043603          	ld	a2,-1200(s0)
    2784:	00ca8633          	add	a2,s5,a2
    2788:	b4c43823          	sd	a2,-1200(s0)
    278c:	e6043c03          	ld	s8,-416(s0)
    2790:	03850ab3          	mul	s5,a0,s8
    2794:	b5843603          	ld	a2,-1192(s0)
    2798:	00ca8633          	add	a2,s5,a2
    279c:	b4c43c23          	sd	a2,-1192(s0)
    27a0:	e3843803          	ld	a6,-456(s0)
    27a4:	03050ab3          	mul	s5,a0,a6
    27a8:	b6043603          	ld	a2,-1184(s0)
    27ac:	00ca8633          	add	a2,s5,a2
    27b0:	b6c43023          	sd	a2,-1184(s0)
    27b4:	e5843583          	ld	a1,-424(s0)
    27b8:	02b50ab3          	mul	s5,a0,a1
    27bc:	b6843603          	ld	a2,-1176(s0)
    27c0:	00ca8633          	add	a2,s5,a2
    27c4:	b6c43423          	sd	a2,-1176(s0)
    27c8:	d8098d83          	lb	s11,-640(s3)
    27cc:	e8043283          	ld	t0,-384(s0)
    27d0:	02550ab3          	mul	s5,a0,t0
    27d4:	b7043603          	ld	a2,-1168(s0)
    27d8:	00ca8633          	add	a2,s5,a2
    27dc:	b6c43823          	sd	a2,-1168(s0)
    27e0:	02e50533          	mul	a0,a0,a4
    27e4:	b7843603          	ld	a2,-1160(s0)
    27e8:	00c50633          	add	a2,a0,a2
    27ec:	b6c43c23          	sd	a2,-1160(s0)
    27f0:	e9043083          	ld	ra,-368(s0)
    27f4:	021d8533          	mul	a0,s11,ra
    27f8:	b9843603          	ld	a2,-1128(s0)
    27fc:	00c50633          	add	a2,a0,a2
    2800:	b8c43c23          	sd	a2,-1128(s0)
    2804:	f3043583          	ld	a1,-208(s0)
    2808:	02bd8533          	mul	a0,s11,a1
    280c:	b9043603          	ld	a2,-1136(s0)
    2810:	00c50633          	add	a2,a0,a2
    2814:	b8c43823          	sd	a2,-1136(s0)
    2818:	f3843983          	ld	s3,-200(s0)
    281c:	033d8533          	mul	a0,s11,s3
    2820:	b8843603          	ld	a2,-1144(s0)
    2824:	00c50633          	add	a2,a0,a2
    2828:	b8c43423          	sd	a2,-1144(s0)
    282c:	e7043b03          	ld	s6,-400(s0)
    2830:	036d8533          	mul	a0,s11,s6
    2834:	b8043603          	ld	a2,-1152(s0)
    2838:	00c50633          	add	a2,a0,a2
    283c:	b8c43023          	sd	a2,-1152(s0)
    2840:	00078713          	mv	a4,a5
    2844:	02fd8533          	mul	a0,s11,a5
    2848:	ba043603          	ld	a2,-1120(s0)
    284c:	00c50633          	add	a2,a0,a2
    2850:	bac43023          	sd	a2,-1120(s0)
    2854:	f2843783          	ld	a5,-216(s0)
    2858:	02fd8533          	mul	a0,s11,a5
    285c:	ba843603          	ld	a2,-1112(s0)
    2860:	00c50633          	add	a2,a0,a2
    2864:	bac43423          	sd	a2,-1112(s0)
    2868:	f2043e83          	ld	t4,-224(s0)
    286c:	03dd8533          	mul	a0,s11,t4
    2870:	bb043603          	ld	a2,-1104(s0)
    2874:	00c50633          	add	a2,a0,a2
    2878:	bac43823          	sd	a2,-1104(s0)
    287c:	02dd8533          	mul	a0,s11,a3
    2880:	bb843603          	ld	a2,-1096(s0)
    2884:	00c50633          	add	a2,a0,a2
    2888:	bac43c23          	sd	a2,-1096(s0)
    288c:	03ad8533          	mul	a0,s11,s10
    2890:	bc043603          	ld	a2,-1088(s0)
    2894:	00c50633          	add	a2,a0,a2
    2898:	bcc43023          	sd	a2,-1088(s0)
    289c:	034d8533          	mul	a0,s11,s4
    28a0:	bc843603          	ld	a2,-1080(s0)
    28a4:	00c50633          	add	a2,a0,a2
    28a8:	bcc43423          	sd	a2,-1080(s0)
    28ac:	e7843683          	ld	a3,-392(s0)
    28b0:	02dd8533          	mul	a0,s11,a3
    28b4:	bd043603          	ld	a2,-1072(s0)
    28b8:	00c50633          	add	a2,a0,a2
    28bc:	bcc43823          	sd	a2,-1072(s0)
    28c0:	03fd8533          	mul	a0,s11,t6
    28c4:	bd843603          	ld	a2,-1064(s0)
    28c8:	00c50633          	add	a2,a0,a2
    28cc:	bcc43c23          	sd	a2,-1064(s0)
    28d0:	f6843503          	ld	a0,-152(s0)
    28d4:	02ad8533          	mul	a0,s11,a0
    28d8:	be043603          	ld	a2,-1056(s0)
    28dc:	00c50633          	add	a2,a0,a2
    28e0:	bec43023          	sd	a2,-1056(s0)
    28e4:	f6043503          	ld	a0,-160(s0)
    28e8:	02ad8533          	mul	a0,s11,a0
    28ec:	be843603          	ld	a2,-1048(s0)
    28f0:	00c50633          	add	a2,a0,a2
    28f4:	bec43423          	sd	a2,-1048(s0)
    28f8:	00090a13          	mv	s4,s2
    28fc:	032d8533          	mul	a0,s11,s2
    2900:	bf043603          	ld	a2,-1040(s0)
    2904:	00c50633          	add	a2,a0,a2
    2908:	bec43823          	sd	a2,-1040(s0)
    290c:	027d8533          	mul	a0,s11,t2
    2910:	bf843603          	ld	a2,-1032(s0)
    2914:	00c50633          	add	a2,a0,a2
    2918:	bec43c23          	sd	a2,-1032(s0)
    291c:	03ed8533          	mul	a0,s11,t5
    2920:	c0043603          	ld	a2,-1024(s0)
    2924:	00c50633          	add	a2,a0,a2
    2928:	c0c43023          	sd	a2,-1024(s0)
    292c:	031d8533          	mul	a0,s11,a7
    2930:	c0843603          	ld	a2,-1016(s0)
    2934:	00c50633          	add	a2,a0,a2
    2938:	c0c43423          	sd	a2,-1016(s0)
    293c:	f5043503          	ld	a0,-176(s0)
    2940:	02ad8533          	mul	a0,s11,a0
    2944:	c1043603          	ld	a2,-1008(s0)
    2948:	00c50633          	add	a2,a0,a2
    294c:	c0c43823          	sd	a2,-1008(s0)
    2950:	026d8533          	mul	a0,s11,t1
    2954:	c1843603          	ld	a2,-1000(s0)
    2958:	00c50633          	add	a2,a0,a2
    295c:	c0c43c23          	sd	a2,-1000(s0)
    2960:	eb843503          	ld	a0,-328(s0)
    2964:	02ad8533          	mul	a0,s11,a0
    2968:	c2043603          	ld	a2,-992(s0)
    296c:	00c50633          	add	a2,a0,a2
    2970:	c2c43023          	sd	a2,-992(s0)
    2974:	029d8533          	mul	a0,s11,s1
    2978:	c2843603          	ld	a2,-984(s0)
    297c:	00c50633          	add	a2,a0,a2
    2980:	c2c43423          	sd	a2,-984(s0)
    2984:	039d8533          	mul	a0,s11,s9
    2988:	c3043603          	ld	a2,-976(s0)
    298c:	00c50633          	add	a2,a0,a2
    2990:	c2c43823          	sd	a2,-976(s0)
    2994:	ea043f03          	ld	t5,-352(s0)
    2998:	03ed8533          	mul	a0,s11,t5
    299c:	c3843603          	ld	a2,-968(s0)
    29a0:	00c50633          	add	a2,a0,a2
    29a4:	c2c43c23          	sd	a2,-968(s0)
    29a8:	e4843883          	ld	a7,-440(s0)
    29ac:	031d8533          	mul	a0,s11,a7
    29b0:	c4043603          	ld	a2,-960(s0)
    29b4:	00c50633          	add	a2,a0,a2
    29b8:	c4c43023          	sd	a2,-960(s0)
    29bc:	037d8533          	mul	a0,s11,s7
    29c0:	c4843603          	ld	a2,-952(s0)
    29c4:	00c50633          	add	a2,a0,a2
    29c8:	c4c43423          	sd	a2,-952(s0)
    29cc:	03cd8533          	mul	a0,s11,t3
    29d0:	c5043603          	ld	a2,-944(s0)
    29d4:	00c50633          	add	a2,a0,a2
    29d8:	c4c43823          	sd	a2,-944(s0)
    29dc:	038d8533          	mul	a0,s11,s8
    29e0:	c5843603          	ld	a2,-936(s0)
    29e4:	00c50633          	add	a2,a0,a2
    29e8:	c4c43c23          	sd	a2,-936(s0)
    29ec:	030d8533          	mul	a0,s11,a6
    29f0:	c6043603          	ld	a2,-928(s0)
    29f4:	00c50633          	add	a2,a0,a2
    29f8:	c6c43023          	sd	a2,-928(s0)
    29fc:	e5843b83          	ld	s7,-424(s0)
    2a00:	037d8533          	mul	a0,s11,s7
    2a04:	c6843603          	ld	a2,-920(s0)
    2a08:	00c50633          	add	a2,a0,a2
    2a0c:	c6c43423          	sd	a2,-920(s0)
    2a10:	f8043903          	ld	s2,-128(s0)
    2a14:	ec090503          	lb	a0,-320(s2)
    2a18:	025d8ab3          	mul	s5,s11,t0
    2a1c:	c7043603          	ld	a2,-912(s0)
    2a20:	00ca8633          	add	a2,s5,a2
    2a24:	c6c43823          	sd	a2,-912(s0)
    2a28:	e4043c83          	ld	s9,-448(s0)
    2a2c:	039d8ab3          	mul	s5,s11,s9
    2a30:	c7843603          	ld	a2,-904(s0)
    2a34:	00ca8633          	add	a2,s5,a2
    2a38:	c6c43c23          	sd	a2,-904(s0)
    2a3c:	02150ab3          	mul	s5,a0,ra
    2a40:	c9843603          	ld	a2,-872(s0)
    2a44:	00ca8633          	add	a2,s5,a2
    2a48:	c8c43c23          	sd	a2,-872(s0)
    2a4c:	02b50ab3          	mul	s5,a0,a1
    2a50:	c9043603          	ld	a2,-880(s0)
    2a54:	00ca8633          	add	a2,s5,a2
    2a58:	c8c43823          	sd	a2,-880(s0)
    2a5c:	03350ab3          	mul	s5,a0,s3
    2a60:	c8843603          	ld	a2,-888(s0)
    2a64:	00ca8633          	add	a2,s5,a2
    2a68:	c8c43423          	sd	a2,-888(s0)
    2a6c:	03650ab3          	mul	s5,a0,s6
    2a70:	c8043603          	ld	a2,-896(s0)
    2a74:	00ca8633          	add	a2,s5,a2
    2a78:	c8c43023          	sd	a2,-896(s0)
    2a7c:	02e50ab3          	mul	s5,a0,a4
    2a80:	ca043603          	ld	a2,-864(s0)
    2a84:	00ca8633          	add	a2,s5,a2
    2a88:	cac43023          	sd	a2,-864(s0)
    2a8c:	02f50ab3          	mul	s5,a0,a5
    2a90:	ca843603          	ld	a2,-856(s0)
    2a94:	00ca8633          	add	a2,s5,a2
    2a98:	cac43423          	sd	a2,-856(s0)
    2a9c:	03d50ab3          	mul	s5,a0,t4
    2aa0:	cb043603          	ld	a2,-848(s0)
    2aa4:	00ca8633          	add	a2,s5,a2
    2aa8:	cac43823          	sd	a2,-848(s0)
    2aac:	f4043583          	ld	a1,-192(s0)
    2ab0:	02b50ab3          	mul	s5,a0,a1
    2ab4:	cb843603          	ld	a2,-840(s0)
    2ab8:	00ca8633          	add	a2,s5,a2
    2abc:	cac43c23          	sd	a2,-840(s0)
    2ac0:	000d0093          	mv	ra,s10
    2ac4:	03a50ab3          	mul	s5,a0,s10
    2ac8:	cc043603          	ld	a2,-832(s0)
    2acc:	00ca8633          	add	a2,s5,a2
    2ad0:	ccc43023          	sd	a2,-832(s0)
    2ad4:	e3043d03          	ld	s10,-464(s0)
    2ad8:	03a50ab3          	mul	s5,a0,s10
    2adc:	cc843603          	ld	a2,-824(s0)
    2ae0:	00ca8633          	add	a2,s5,a2
    2ae4:	ccc43423          	sd	a2,-824(s0)
    2ae8:	02d50ab3          	mul	s5,a0,a3
    2aec:	cd043603          	ld	a2,-816(s0)
    2af0:	00ca8633          	add	a2,s5,a2
    2af4:	ccc43823          	sd	a2,-816(s0)
    2af8:	03f50ab3          	mul	s5,a0,t6
    2afc:	cd843603          	ld	a2,-808(s0)
    2b00:	00ca8633          	add	a2,s5,a2
    2b04:	ccc43c23          	sd	a2,-808(s0)
    2b08:	f6843f83          	ld	t6,-152(s0)
    2b0c:	03f50ab3          	mul	s5,a0,t6
    2b10:	ce043603          	ld	a2,-800(s0)
    2b14:	00ca8633          	add	a2,s5,a2
    2b18:	cec43023          	sd	a2,-800(s0)
    2b1c:	f6043303          	ld	t1,-160(s0)
    2b20:	02650ab3          	mul	s5,a0,t1
    2b24:	ce843603          	ld	a2,-792(s0)
    2b28:	00ca8633          	add	a2,s5,a2
    2b2c:	cec43423          	sd	a2,-792(s0)
    2b30:	000a0e13          	mv	t3,s4
    2b34:	03450ab3          	mul	s5,a0,s4
    2b38:	cf043603          	ld	a2,-784(s0)
    2b3c:	00ca8633          	add	a2,s5,a2
    2b40:	cec43823          	sd	a2,-784(s0)
    2b44:	02750ab3          	mul	s5,a0,t2
    2b48:	cf843603          	ld	a2,-776(s0)
    2b4c:	00ca8633          	add	a2,s5,a2
    2b50:	cec43c23          	sd	a2,-776(s0)
    2b54:	f7843283          	ld	t0,-136(s0)
    2b58:	02550ab3          	mul	s5,a0,t0
    2b5c:	d0043603          	ld	a2,-768(s0)
    2b60:	00ca8633          	add	a2,s5,a2
    2b64:	d0c43023          	sd	a2,-768(s0)
    2b68:	e9843783          	ld	a5,-360(s0)
    2b6c:	02f50ab3          	mul	s5,a0,a5
    2b70:	d0843603          	ld	a2,-760(s0)
    2b74:	00ca8633          	add	a2,s5,a2
    2b78:	d0c43423          	sd	a2,-760(s0)
    2b7c:	f5043a03          	ld	s4,-176(s0)
    2b80:	03450ab3          	mul	s5,a0,s4
    2b84:	d1043603          	ld	a2,-752(s0)
    2b88:	00ca8633          	add	a2,s5,a2
    2b8c:	d0c43823          	sd	a2,-752(s0)
    2b90:	e8843683          	ld	a3,-376(s0)
    2b94:	02d50ab3          	mul	s5,a0,a3
    2b98:	d1843603          	ld	a2,-744(s0)
    2b9c:	00ca8633          	add	a2,s5,a2
    2ba0:	d0c43c23          	sd	a2,-744(s0)
    2ba4:	eb843583          	ld	a1,-328(s0)
    2ba8:	02b50ab3          	mul	s5,a0,a1
    2bac:	d2043603          	ld	a2,-736(s0)
    2bb0:	00ca8633          	add	a2,s5,a2
    2bb4:	d2c43023          	sd	a2,-736(s0)
    2bb8:	02950ab3          	mul	s5,a0,s1
    2bbc:	d2843603          	ld	a2,-728(s0)
    2bc0:	00ca8633          	add	a2,s5,a2
    2bc4:	d2c43423          	sd	a2,-728(s0)
    2bc8:	f4843983          	ld	s3,-184(s0)
    2bcc:	03350ab3          	mul	s5,a0,s3
    2bd0:	d3043603          	ld	a2,-720(s0)
    2bd4:	00ca8633          	add	a2,s5,a2
    2bd8:	d2c43823          	sd	a2,-720(s0)
    2bdc:	000f0e93          	mv	t4,t5
    2be0:	03e50ab3          	mul	s5,a0,t5
    2be4:	d3843603          	ld	a2,-712(s0)
    2be8:	00ca8633          	add	a2,s5,a2
    2bec:	d2c43c23          	sd	a2,-712(s0)
    2bf0:	00088b13          	mv	s6,a7
    2bf4:	03150ab3          	mul	s5,a0,a7
    2bf8:	d4043603          	ld	a2,-704(s0)
    2bfc:	00ca8633          	add	a2,s5,a2
    2c00:	d4c43023          	sd	a2,-704(s0)
    2c04:	f7043f03          	ld	t5,-144(s0)
    2c08:	03e50ab3          	mul	s5,a0,t5
    2c0c:	d4843603          	ld	a2,-696(s0)
    2c10:	00ca8633          	add	a2,s5,a2
    2c14:	d4c43423          	sd	a2,-696(s0)
    2c18:	f5843703          	ld	a4,-168(s0)
    2c1c:	02e50ab3          	mul	s5,a0,a4
    2c20:	d5043603          	ld	a2,-688(s0)
    2c24:	00ca8633          	add	a2,s5,a2
    2c28:	d4c43823          	sd	a2,-688(s0)
    2c2c:	03850ab3          	mul	s5,a0,s8
    2c30:	d5843603          	ld	a2,-680(s0)
    2c34:	00ca8633          	add	a2,s5,a2
    2c38:	d4c43c23          	sd	a2,-680(s0)
    2c3c:	03050ab3          	mul	s5,a0,a6
    2c40:	d6043603          	ld	a2,-672(s0)
    2c44:	00ca8633          	add	a2,s5,a2
    2c48:	d6c43023          	sd	a2,-672(s0)
    2c4c:	000b8893          	mv	a7,s7
    2c50:	03750ab3          	mul	s5,a0,s7
    2c54:	d6843603          	ld	a2,-664(s0)
    2c58:	00ca8633          	add	a2,s5,a2
    2c5c:	d6c43423          	sd	a2,-664(s0)
    2c60:	00090a83          	lb	s5,0(s2)
    2c64:	e8043b83          	ld	s7,-384(s0)
    2c68:	03750db3          	mul	s11,a0,s7
    2c6c:	d7043603          	ld	a2,-656(s0)
    2c70:	00cd8633          	add	a2,s11,a2
    2c74:	d6c43823          	sd	a2,-656(s0)
    2c78:	03950533          	mul	a0,a0,s9
    2c7c:	d7843603          	ld	a2,-648(s0)
    2c80:	00c50633          	add	a2,a0,a2
    2c84:	d6c43c23          	sd	a2,-648(s0)
    2c88:	039a8533          	mul	a0,s5,s9
    2c8c:	e4a43023          	sd	a0,-448(s0)
    2c90:	037a8533          	mul	a0,s5,s7
    2c94:	e8a43023          	sd	a0,-384(s0)
    2c98:	031a8533          	mul	a0,s5,a7
    2c9c:	e4a43c23          	sd	a0,-424(s0)
    2ca0:	030a8533          	mul	a0,s5,a6
    2ca4:	e2a43c23          	sd	a0,-456(s0)
    2ca8:	038a8533          	mul	a0,s5,s8
    2cac:	00001637          	lui	a2,0x1
    2cb0:	40c40633          	sub	a2,s0,a2
    2cb4:	66a63423          	sd	a0,1640(a2) # 1668 <.LBB103_4+0x424>
    2cb8:	02ea8533          	mul	a0,s5,a4
    2cbc:	f4a43c23          	sd	a0,-168(s0)
    2cc0:	03ea8533          	mul	a0,s5,t5
    2cc4:	f6a43823          	sd	a0,-144(s0)
    2cc8:	036a8533          	mul	a0,s5,s6
    2ccc:	e6a43023          	sd	a0,-416(s0)
    2cd0:	03da8cb3          	mul	s9,s5,t4
    2cd4:	033a8c33          	mul	s8,s5,s3
    2cd8:	029a8bb3          	mul	s7,s5,s1
    2cdc:	02ba8b33          	mul	s6,s5,a1
    2ce0:	02da88b3          	mul	a7,s5,a3
    2ce4:	034a84b3          	mul	s1,s5,s4
    2ce8:	02fa8833          	mul	a6,s5,a5
    2cec:	025a89b3          	mul	s3,s5,t0
    2cf0:	027a83b3          	mul	t2,s5,t2
    2cf4:	03ca8e33          	mul	t3,s5,t3
    2cf8:	026a8eb3          	mul	t4,s5,t1
    2cfc:	03fa8f33          	mul	t5,s5,t6
    2d00:	ec843503          	ld	a0,-312(s0)
    2d04:	02aa8fb3          	mul	t6,s5,a0
    2d08:	e7843503          	ld	a0,-392(s0)
    2d0c:	02aa8933          	mul	s2,s5,a0
    2d10:	03aa8a33          	mul	s4,s5,s10
    2d14:	021a8d33          	mul	s10,s5,ra
    2d18:	f4043503          	ld	a0,-192(s0)
    2d1c:	02aa8db3          	mul	s11,s5,a0
    2d20:	f2043503          	ld	a0,-224(s0)
    2d24:	02aa8733          	mul	a4,s5,a0
    2d28:	f2843503          	ld	a0,-216(s0)
    2d2c:	02aa80b3          	mul	ra,s5,a0
    2d30:	eb043503          	ld	a0,-336(s0)
    2d34:	02aa86b3          	mul	a3,s5,a0
    2d38:	e7043503          	ld	a0,-400(s0)
    2d3c:	02aa8633          	mul	a2,s5,a0
    2d40:	f3843503          	ld	a0,-200(s0)
    2d44:	02aa85b3          	mul	a1,s5,a0
    2d48:	f3043503          	ld	a0,-208(s0)
    2d4c:	02aa8533          	mul	a0,s5,a0
    2d50:	e9043783          	ld	a5,-368(s0)
    2d54:	02fa8ab3          	mul	s5,s5,a5
    2d58:	d9843783          	ld	a5,-616(s0)
    2d5c:	00fa87b3          	add	a5,s5,a5
    2d60:	d8f43c23          	sd	a5,-616(s0)
    2d64:	d9043783          	ld	a5,-624(s0)
    2d68:	00f507b3          	add	a5,a0,a5
    2d6c:	d8f43823          	sd	a5,-624(s0)
    2d70:	d8843503          	ld	a0,-632(s0)
    2d74:	00a58533          	add	a0,a1,a0
    2d78:	d8a43423          	sd	a0,-632(s0)
    2d7c:	d8043503          	ld	a0,-640(s0)
    2d80:	00a60533          	add	a0,a2,a0
    2d84:	d8a43023          	sd	a0,-640(s0)
    2d88:	da043503          	ld	a0,-608(s0)
    2d8c:	00a68533          	add	a0,a3,a0
    2d90:	daa43023          	sd	a0,-608(s0)
    2d94:	ed043503          	ld	a0,-304(s0)
    2d98:	00a08533          	add	a0,ra,a0
    2d9c:	eca43823          	sd	a0,-304(s0)
    2da0:	ed043a83          	ld	s5,-304(s0)
    2da4:	da843503          	ld	a0,-600(s0)
    2da8:	00a70533          	add	a0,a4,a0
    2dac:	daa43423          	sd	a0,-600(s0)
    2db0:	ed843503          	ld	a0,-296(s0)
    2db4:	00ad8533          	add	a0,s11,a0
    2db8:	eca43c23          	sd	a0,-296(s0)
    2dbc:	ed843083          	ld	ra,-296(s0)
    2dc0:	ee043503          	ld	a0,-288(s0)
    2dc4:	00ad0533          	add	a0,s10,a0
    2dc8:	eea43023          	sd	a0,-288(s0)
    2dcc:	ee043703          	ld	a4,-288(s0)
    2dd0:	ee843503          	ld	a0,-280(s0)
    2dd4:	00aa0533          	add	a0,s4,a0
    2dd8:	eea43423          	sd	a0,-280(s0)
    2ddc:	ee843a03          	ld	s4,-280(s0)
    2de0:	db043503          	ld	a0,-592(s0)
    2de4:	00a90533          	add	a0,s2,a0
    2de8:	daa43823          	sd	a0,-592(s0)
    2dec:	db843903          	ld	s2,-584(s0)
    2df0:	012f8933          	add	s2,t6,s2
    2df4:	dc843f83          	ld	t6,-568(s0)
    2df8:	dc043503          	ld	a0,-576(s0)
    2dfc:	00af0533          	add	a0,t5,a0
    2e00:	dca43023          	sd	a0,-576(s0)
    2e04:	dd043f03          	ld	t5,-560(s0)
    2e08:	01fe8fb3          	add	t6,t4,t6
    2e0c:	01ee0f33          	add	t5,t3,t5
    2e10:	de043e03          	ld	t3,-544(s0)
    2e14:	dd843503          	ld	a0,-552(s0)
    2e18:	00a38533          	add	a0,t2,a0
    2e1c:	dca43c23          	sd	a0,-552(s0)
    2e20:	de843383          	ld	t2,-536(s0)
    2e24:	ef043503          	ld	a0,-272(s0)
    2e28:	00a98533          	add	a0,s3,a0
    2e2c:	000015b7          	lui	a1,0x1
    2e30:	40b405b3          	sub	a1,s0,a1
    2e34:	6705b983          	ld	s3,1648(a1) # 1670 <.LBB103_4+0x42c>
    2e38:	eea43823          	sd	a0,-272(s0)
    2e3c:	ef043e83          	ld	t4,-272(s0)
    2e40:	01c80e33          	add	t3,a6,t3
    2e44:	df043303          	ld	t1,-528(s0)
    2e48:	ef843503          	ld	a0,-264(s0)
    2e4c:	00a48533          	add	a0,s1,a0
    2e50:	000015b7          	lui	a1,0x1
    2e54:	40b405b3          	sub	a1,s0,a1
    2e58:	6785b483          	ld	s1,1656(a1) # 1678 <.LBB103_4+0x434>
    2e5c:	eea43c23          	sd	a0,-264(s0)
    2e60:	ef843683          	ld	a3,-264(s0)
    2e64:	007883b3          	add	t2,a7,t2
    2e68:	df843283          	ld	t0,-520(s0)
    2e6c:	006b0333          	add	t1,s6,t1
    2e70:	e0043883          	ld	a7,-512(s0)
    2e74:	f0043503          	ld	a0,-256(s0)
    2e78:	00ab8533          	add	a0,s7,a0
    2e7c:	f8843b03          	ld	s6,-120(s0)
    2e80:	f0a43023          	sd	a0,-256(s0)
    2e84:	f0043603          	ld	a2,-256(s0)
    2e88:	f0843503          	ld	a0,-248(s0)
    2e8c:	00ac0533          	add	a0,s8,a0
    2e90:	e1843b83          	ld	s7,-488(s0)
    2e94:	f0a43423          	sd	a0,-248(s0)
    2e98:	f0843583          	ld	a1,-248(s0)
    2e9c:	f1043503          	ld	a0,-240(s0)
    2ea0:	00ac8533          	add	a0,s9,a0
    2ea4:	e2043c03          	ld	s8,-480(s0)
    2ea8:	f0a43823          	sd	a0,-240(s0)
    2eac:	f1043c83          	ld	s9,-240(s0)
    2eb0:	f1843503          	ld	a0,-232(s0)
    2eb4:	e6043783          	ld	a5,-416(s0)
    2eb8:	00a78533          	add	a0,a5,a0
    2ebc:	f0a43c23          	sd	a0,-232(s0)
    2ec0:	f1843503          	ld	a0,-232(s0)
    2ec4:	f7043783          	ld	a5,-144(s0)
    2ec8:	005782b3          	add	t0,a5,t0
    2ecc:	e0843803          	ld	a6,-504(s0)
    2ed0:	f5843783          	ld	a5,-168(s0)
    2ed4:	011788b3          	add	a7,a5,a7
    2ed8:	e1043783          	ld	a5,-496(s0)
    2edc:	00001d37          	lui	s10,0x1
    2ee0:	41a40d33          	sub	s10,s0,s10
    2ee4:	668d3d03          	ld	s10,1640(s10) # 1668 <.LBB103_4+0x424>
    2ee8:	010d0833          	add	a6,s10,a6
    2eec:	e3843d03          	ld	s10,-456(s0)
    2ef0:	00fd07b3          	add	a5,s10,a5
    2ef4:	e5843d03          	ld	s10,-424(s0)
    2ef8:	017d0bb3          	add	s7,s10,s7
    2efc:	e8043d03          	ld	s10,-384(s0)
    2f00:	018d0c33          	add	s8,s10,s8
    2f04:	e2843d03          	ld	s10,-472(s0)
    2f08:	e4043d83          	ld	s11,-448(s0)
    2f0c:	01ad8d33          	add	s10,s11,s10
    2f10:	e3a43423          	sd	s10,-472(s0)
    2f14:	500b0b13          	addi	s6,s6,1280
    2f18:	b0048493          	addi	s1,s1,-1280 # 63b00 <.Lfunc_end80+0x3b134>
    2f1c:	00198993          	addi	s3,s3,1
    2f20:	f8043d03          	ld	s10,-128(s0)
    2f24:	001d0d13          	addi	s10,s10,1
    2f28:	f9a43023          	sd	s10,-128(s0)
    2f2c:	00048463          	beqz	s1,2f34 <.LBB103_6>
    2f30:	8d1fe06f          	j	1800 <.LBB103_5>

0000000000002f34 <.LBB103_6>:
    2f34:	00001537          	lui	a0,0x1
    2f38:	40a40533          	sub	a0,s0,a0
    2f3c:	6a853b03          	ld	s6,1704(a0) # 16a8 <.LBB103_4+0x464>
    2f40:	00001537          	lui	a0,0x1
    2f44:	40a40533          	sub	a0,s0,a0
    2f48:	6b053083          	ld	ra,1712(a0) # 16b0 <.LBB103_4+0x46c>
    2f4c:	00001537          	lui	a0,0x1
    2f50:	40a40533          	sub	a0,s0,a0
    2f54:	6b853d83          	ld	s11,1720(a0) # 16b8 <.LBB103_4+0x474>
    2f58:	00001537          	lui	a0,0x1
    2f5c:	40a40533          	sub	a0,s0,a0
    2f60:	6a053d03          	ld	s10,1696(a0) # 16a0 <.LBB103_4+0x45c>
    2f64:	00001537          	lui	a0,0x1
    2f68:	40a40533          	sub	a0,s0,a0
    2f6c:	69853a83          	ld	s5,1688(a0) # 1698 <.LBB103_4+0x454>
    2f70:	00001537          	lui	a0,0x1
    2f74:	40a40533          	sub	a0,s0,a0
    2f78:	69053a03          	ld	s4,1680(a0) # 1690 <.LBB103_4+0x44c>
    2f7c:	00001537          	lui	a0,0x1
    2f80:	40a40533          	sub	a0,s0,a0
    2f84:	68853983          	ld	s3,1672(a0) # 1688 <.LBB103_4+0x444>
    2f88:	00001537          	lui	a0,0x1
    2f8c:	40a40533          	sub	a0,s0,a0
    2f90:	68053483          	ld	s1,1664(a0) # 1680 <.LBB103_4+0x43c>
    2f94:	e1743c23          	sd	s7,-488(s0)
    2f98:	e3843023          	sd	s8,-480(s0)
    2f9c:	00001537          	lui	a0,0x1
    2fa0:	40a40533          	sub	a0,s0,a0
    2fa4:	66053503          	ld	a0,1632(a0) # 1660 <.LBB103_4+0x41c>
    2fa8:	00251513          	slli	a0,a0,0x2
    2fac:	000015b7          	lui	a1,0x1
    2fb0:	40b405b3          	sub	a1,s0,a1
    2fb4:	d705b583          	ld	a1,-656(a1) # d70 <.LBB103_3+0xa98>
    2fb8:	00a585b3          	add	a1,a1,a0
    2fbc:	00001637          	lui	a2,0x1
    2fc0:	40c40633          	sub	a2,s0,a2
    2fc4:	65863603          	ld	a2,1624(a2) # 1658 <.LBB103_4+0x414>
    2fc8:	00062703          	lw	a4,0(a2)
    2fcc:	00001637          	lui	a2,0x1
    2fd0:	40c40633          	sub	a2,s0,a2
    2fd4:	d6863603          	ld	a2,-664(a2) # d68 <.LBB103_3+0xa90>
    2fd8:	00a60533          	add	a0,a2,a0
    2fdc:	00c52603          	lw	a2,12(a0)
    2fe0:	00c5ae83          	lw	t4,12(a1)
    2fe4:	00171693          	slli	a3,a4,0x1
    2fe8:	00e68733          	add	a4,a3,a4
    2fec:	00161693          	slli	a3,a2,0x1
    2ff0:	e9d43423          	sd	t4,-376(s0)
    2ff4:	00001637          	lui	a2,0x1
    2ff8:	40c40633          	sub	a2,s0,a2
    2ffc:	6c063603          	ld	a2,1728(a2) # 16c0 <.LBB103_4+0x47c>
    3000:	01d60633          	add	a2,a2,t4
    3004:	e8d43023          	sd	a3,-384(s0)
    3008:	40d6063b          	subw	a2,a2,a3
    300c:	00e60633          	add	a2,a2,a4
    3010:	8806061b          	addiw	a2,a2,-1920
    3014:	400006b7          	lui	a3,0x40000
    3018:	00001eb7          	lui	t4,0x1
    301c:	41d40eb3          	sub	t4,s0,t4
    3020:	02ceb023          	sd	a2,32(t4) # 1020 <.LBB103_3+0xd48>
    3024:	00065463          	bgez	a2,302c <.LBB103_8>
    3028:	c00006b7          	lui	a3,0xc0000

000000000000302c <.LBB103_8>:
    302c:	00001637          	lui	a2,0x1
    3030:	40c40633          	sub	a2,s0,a2
    3034:	fed63023          	sd	a3,-32(a2) # fe0 <.LBB103_3+0xd08>
    3038:	00852603          	lw	a2,8(a0)
    303c:	0085a683          	lw	a3,8(a1)
    3040:	00161e93          	slli	t4,a2,0x1
    3044:	e6d43c23          	sd	a3,-392(s0)
    3048:	00db0633          	add	a2,s6,a3
    304c:	e7d43823          	sd	t4,-400(s0)
    3050:	41d6063b          	subw	a2,a2,t4
    3054:	00e60633          	add	a2,a2,a4
    3058:	8806061b          	addiw	a2,a2,-1920
    305c:	400006b7          	lui	a3,0x40000
    3060:	00001eb7          	lui	t4,0x1
    3064:	41d40eb3          	sub	t4,s0,t4
    3068:	00ceb823          	sd	a2,16(t4) # 1010 <.LBB103_3+0xd38>
    306c:	00048c13          	mv	s8,s1
    3070:	00098c93          	mv	s9,s3
    3074:	000a0b93          	mv	s7,s4
    3078:	000a8b13          	mv	s6,s5
    307c:	00065463          	bgez	a2,3084 <.LBB103_10>
    3080:	c00006b7          	lui	a3,0xc0000

0000000000003084 <.LBB103_10>:
    3084:	00452603          	lw	a2,4(a0)
    3088:	0045ae83          	lw	t4,4(a1)
    308c:	00161493          	slli	s1,a2,0x1
    3090:	e7d43423          	sd	t4,-408(s0)
    3094:	01d08633          	add	a2,ra,t4
    3098:	e6943023          	sd	s1,-416(s0)
    309c:	4096063b          	subw	a2,a2,s1
    30a0:	00e60633          	add	a2,a2,a4
    30a4:	8806061b          	addiw	a2,a2,-1920
    30a8:	40000eb7          	lui	t4,0x40000
    30ac:	000014b7          	lui	s1,0x1
    30b0:	409404b3          	sub	s1,s0,s1
    30b4:	00c4b023          	sd	a2,0(s1) # 1000 <.LBB103_3+0xd28>
    30b8:	00065463          	bgez	a2,30c0 <.LBB103_12>
    30bc:	c0000eb7          	lui	t4,0xc0000

00000000000030c0 <.LBB103_12>:
    30c0:	00052603          	lw	a2,0(a0)
    30c4:	0005a483          	lw	s1,0(a1)
    30c8:	00161993          	slli	s3,a2,0x1
    30cc:	e4943c23          	sd	s1,-424(s0)
    30d0:	009d8633          	add	a2,s11,s1
    30d4:	e5343823          	sd	s3,-432(s0)
    30d8:	4136063b          	subw	a2,a2,s3
    30dc:	00e60633          	add	a2,a2,a4
    30e0:	8806061b          	addiw	a2,a2,-1920
    30e4:	400004b7          	lui	s1,0x40000
    30e8:	000019b7          	lui	s3,0x1
    30ec:	413409b3          	sub	s3,s0,s3
    30f0:	fec9b823          	sd	a2,-16(s3) # ff0 <.LBB103_3+0xd18>
    30f4:	00065463          	bgez	a2,30fc <.LBB103_14>
    30f8:	c00004b7          	lui	s1,0xc0000

00000000000030fc <.LBB103_14>:
    30fc:	01052603          	lw	a2,16(a0)
    3100:	0105a983          	lw	s3,16(a1)
    3104:	00161a13          	slli	s4,a2,0x1
    3108:	e5343423          	sd	s3,-440(s0)
    310c:	013d0633          	add	a2,s10,s3
    3110:	e5443023          	sd	s4,-448(s0)
    3114:	4146063b          	subw	a2,a2,s4
    3118:	00e60633          	add	a2,a2,a4
    311c:	8806061b          	addiw	a2,a2,-1920
    3120:	400009b7          	lui	s3,0x40000
    3124:	00001a37          	lui	s4,0x1
    3128:	41440a33          	sub	s4,s0,s4
    312c:	fcca3823          	sd	a2,-48(s4) # fd0 <.LBB103_3+0xcf8>
    3130:	00065463          	bgez	a2,3138 <.LBB103_16>
    3134:	c00009b7          	lui	s3,0xc0000

0000000000003138 <.LBB103_16>:
    3138:	01452603          	lw	a2,20(a0)
    313c:	0145aa03          	lw	s4,20(a1)
    3140:	00161a93          	slli	s5,a2,0x1
    3144:	e3443c23          	sd	s4,-456(s0)
    3148:	014b0633          	add	a2,s6,s4
    314c:	e3543823          	sd	s5,-464(s0)
    3150:	4156063b          	subw	a2,a2,s5
    3154:	00e60633          	add	a2,a2,a4
    3158:	8806061b          	addiw	a2,a2,-1920
    315c:	40000a37          	lui	s4,0x40000
    3160:	00001ab7          	lui	s5,0x1
    3164:	41540ab3          	sub	s5,s0,s5
    3168:	facabc23          	sd	a2,-72(s5) # fb8 <.LBB103_3+0xce0>
    316c:	00065463          	bgez	a2,3174 <.LBB103_18>
    3170:	c0000a37          	lui	s4,0xc0000

0000000000003174 <.LBB103_18>:
    3174:	01852603          	lw	a2,24(a0)
    3178:	0185aa83          	lw	s5,24(a1)
    317c:	00161b13          	slli	s6,a2,0x1
    3180:	00001637          	lui	a2,0x1
    3184:	40c40633          	sub	a2,s0,a2
    3188:	6d563023          	sd	s5,1728(a2) # 16c0 <.LBB103_4+0x47c>
    318c:	015b8633          	add	a2,s7,s5
    3190:	00001ab7          	lui	s5,0x1
    3194:	41540ab3          	sub	s5,s0,s5
    3198:	6b6abc23          	sd	s6,1720(s5) # 16b8 <.LBB103_4+0x474>
    319c:	4166063b          	subw	a2,a2,s6
    31a0:	00e60633          	add	a2,a2,a4
    31a4:	8806061b          	addiw	a2,a2,-1920
    31a8:	40000ab7          	lui	s5,0x40000
    31ac:	00001b37          	lui	s6,0x1
    31b0:	41640b33          	sub	s6,s0,s6
    31b4:	facb3423          	sd	a2,-88(s6) # fa8 <.LBB103_3+0xcd0>
    31b8:	00065463          	bgez	a2,31c0 <.LBB103_20>
    31bc:	c0000ab7          	lui	s5,0xc0000

00000000000031c0 <.LBB103_20>:
    31c0:	01c52603          	lw	a2,28(a0)
    31c4:	01c5ab03          	lw	s6,28(a1)
    31c8:	00161b93          	slli	s7,a2,0x1
    31cc:	00001637          	lui	a2,0x1
    31d0:	40c40633          	sub	a2,s0,a2
    31d4:	6b663823          	sd	s6,1712(a2) # 16b0 <.LBB103_4+0x46c>
    31d8:	016c8633          	add	a2,s9,s6
    31dc:	00001b37          	lui	s6,0x1
    31e0:	41640b33          	sub	s6,s0,s6
    31e4:	6b7b3423          	sd	s7,1704(s6) # 16a8 <.LBB103_4+0x464>
    31e8:	4176063b          	subw	a2,a2,s7
    31ec:	00e60633          	add	a2,a2,a4
    31f0:	8806061b          	addiw	a2,a2,-1920
    31f4:	40000b37          	lui	s6,0x40000
    31f8:	00001bb7          	lui	s7,0x1
    31fc:	41740bb3          	sub	s7,s0,s7
    3200:	f8cbb823          	sd	a2,-112(s7) # f90 <.LBB103_3+0xcb8>
    3204:	00065463          	bgez	a2,320c <.LBB103_22>
    3208:	c0000b37          	lui	s6,0xc0000

000000000000320c <.LBB103_22>:
    320c:	00001637          	lui	a2,0x1
    3210:	40c40633          	sub	a2,s0,a2
    3214:	f7663823          	sd	s6,-144(a2) # f70 <.LBB103_3+0xc98>
    3218:	00001637          	lui	a2,0x1
    321c:	40c40633          	sub	a2,s0,a2
    3220:	f9563423          	sd	s5,-120(a2) # f88 <.LBB103_3+0xcb0>
    3224:	00001637          	lui	a2,0x1
    3228:	40c40633          	sub	a2,s0,a2
    322c:	f9463c23          	sd	s4,-104(a2) # f98 <.LBB103_3+0xcc0>
    3230:	00001637          	lui	a2,0x1
    3234:	40c40633          	sub	a2,s0,a2
    3238:	fb363823          	sd	s3,-80(a2) # fb0 <.LBB103_3+0xcd8>
    323c:	00001637          	lui	a2,0x1
    3240:	40c40633          	sub	a2,s0,a2
    3244:	fc963423          	sd	s1,-56(a2) # fc8 <.LBB103_3+0xcf0>
    3248:	00001637          	lui	a2,0x1
    324c:	40c40633          	sub	a2,s0,a2
    3250:	fdd63c23          	sd	t4,-40(a2) # fd8 <.LBB103_3+0xd00>
    3254:	00001637          	lui	a2,0x1
    3258:	40c40633          	sub	a2,s0,a2
    325c:	fed63c23          	sd	a3,-8(a2) # ff8 <.LBB103_3+0xd20>
    3260:	db243c23          	sd	s2,-584(s0)
    3264:	ddf43423          	sd	t6,-568(s0)
    3268:	dde43823          	sd	t5,-560(s0)
    326c:	dfc43023          	sd	t3,-544(s0)
    3270:	de743423          	sd	t2,-536(s0)
    3274:	de643823          	sd	t1,-528(s0)
    3278:	de543c23          	sd	t0,-520(s0)
    327c:	e1143023          	sd	a7,-512(s0)
    3280:	e1043423          	sd	a6,-504(s0)
    3284:	e0f43823          	sd	a5,-496(s0)
    3288:	02052603          	lw	a2,32(a0)
    328c:	0205a683          	lw	a3,32(a1)
    3290:	00161793          	slli	a5,a2,0x1
    3294:	00001637          	lui	a2,0x1
    3298:	40c40633          	sub	a2,s0,a2
    329c:	6ad63023          	sd	a3,1696(a2) # 16a0 <.LBB103_4+0x45c>
    32a0:	00dc0633          	add	a2,s8,a3
    32a4:	000016b7          	lui	a3,0x1
    32a8:	40d406b3          	sub	a3,s0,a3
    32ac:	68f6bc23          	sd	a5,1688(a3) # 1698 <.LBB103_4+0x454>
    32b0:	40f6063b          	subw	a2,a2,a5
    32b4:	00e60633          	add	a2,a2,a4
    32b8:	8806061b          	addiw	a2,a2,-1920
    32bc:	400006b7          	lui	a3,0x40000
    32c0:	000017b7          	lui	a5,0x1
    32c4:	40f407b3          	sub	a5,s0,a5
    32c8:	f6c7bc23          	sd	a2,-136(a5) # f78 <.LBB103_3+0xca0>
    32cc:	00065463          	bgez	a2,32d4 <.LBB103_24>
    32d0:	c00006b7          	lui	a3,0xc0000

00000000000032d4 <.LBB103_24>:
    32d4:	00001637          	lui	a2,0x1
    32d8:	40c40633          	sub	a2,s0,a2
    32dc:	f6d63023          	sd	a3,-160(a2) # f60 <.LBB103_3+0xc88>
    32e0:	07c5a603          	lw	a2,124(a1)
    32e4:	f8c43423          	sd	a2,-120(s0)
    32e8:	0785a603          	lw	a2,120(a1)
    32ec:	f8c43023          	sd	a2,-128(s0)
    32f0:	0745a603          	lw	a2,116(a1)
    32f4:	f6c43c23          	sd	a2,-136(s0)
    32f8:	0705a603          	lw	a2,112(a1)
    32fc:	f6c43823          	sd	a2,-144(s0)
    3300:	06c5a603          	lw	a2,108(a1)
    3304:	f6c43423          	sd	a2,-152(s0)
    3308:	0685a603          	lw	a2,104(a1)
    330c:	f6c43023          	sd	a2,-160(s0)
    3310:	0645a603          	lw	a2,100(a1)
    3314:	f4c43c23          	sd	a2,-168(s0)
    3318:	0605a603          	lw	a2,96(a1)
    331c:	f4c43823          	sd	a2,-176(s0)
    3320:	05c5a603          	lw	a2,92(a1)
    3324:	f4c43423          	sd	a2,-184(s0)
    3328:	0585a603          	lw	a2,88(a1)
    332c:	f4c43023          	sd	a2,-192(s0)
    3330:	0545a603          	lw	a2,84(a1)
    3334:	f2c43c23          	sd	a2,-200(s0)
    3338:	0505a603          	lw	a2,80(a1)
    333c:	f2c43823          	sd	a2,-208(s0)
    3340:	04c5a603          	lw	a2,76(a1)
    3344:	f2c43423          	sd	a2,-216(s0)
    3348:	0485a603          	lw	a2,72(a1)
    334c:	f2c43023          	sd	a2,-224(s0)
    3350:	0445a603          	lw	a2,68(a1)
    3354:	ecc43423          	sd	a2,-312(s0)
    3358:	0405a603          	lw	a2,64(a1)
    335c:	ecc43023          	sd	a2,-320(s0)
    3360:	03c5a603          	lw	a2,60(a1)
    3364:	eac43c23          	sd	a2,-328(s0)
    3368:	0385a603          	lw	a2,56(a1)
    336c:	eac43823          	sd	a2,-336(s0)
    3370:	0345a603          	lw	a2,52(a1)
    3374:	eac43423          	sd	a2,-344(s0)
    3378:	0305a603          	lw	a2,48(a1)
    337c:	eac43023          	sd	a2,-352(s0)
    3380:	02c5a603          	lw	a2,44(a1)
    3384:	e8c43c23          	sd	a2,-360(s0)
    3388:	0285a603          	lw	a2,40(a1)
    338c:	e8c43823          	sd	a2,-368(s0)
    3390:	0245a603          	lw	a2,36(a1)
    3394:	07c52783          	lw	a5,124(a0)
    3398:	07852803          	lw	a6,120(a0)
    339c:	07452283          	lw	t0,116(a0)
    33a0:	07052303          	lw	t1,112(a0)
    33a4:	06c52383          	lw	t2,108(a0)
    33a8:	06852e03          	lw	t3,104(a0)
    33ac:	06452e83          	lw	t4,100(a0)
    33b0:	06052f03          	lw	t5,96(a0)
    33b4:	05c52f83          	lw	t6,92(a0)
    33b8:	05852483          	lw	s1,88(a0)
    33bc:	05452903          	lw	s2,84(a0)
    33c0:	05052983          	lw	s3,80(a0)
    33c4:	04c52a03          	lw	s4,76(a0)
    33c8:	04852a83          	lw	s5,72(a0)
    33cc:	04452b03          	lw	s6,68(a0)
    33d0:	04052b83          	lw	s7,64(a0)
    33d4:	03c52c03          	lw	s8,60(a0)
    33d8:	03852c83          	lw	s9,56(a0)
    33dc:	03452d03          	lw	s10,52(a0)
    33e0:	02452583          	lw	a1,36(a0)
    33e4:	03052d83          	lw	s11,48(a0)
    33e8:	02c52083          	lw	ra,44(a0)
    33ec:	02852503          	lw	a0,40(a0)
    33f0:	00159693          	slli	a3,a1,0x1
    33f4:	f8e43823          	sd	a4,-112(s0)
    33f8:	000015b7          	lui	a1,0x1
    33fc:	40b405b3          	sub	a1,s0,a1
    3400:	68c5b823          	sd	a2,1680(a1) # 1690 <.LBB103_4+0x44c>
    3404:	000015b7          	lui	a1,0x1
    3408:	40b405b3          	sub	a1,s0,a1
    340c:	6c85b583          	ld	a1,1736(a1) # 16c8 <.LBB103_4+0x484>
    3410:	00c585b3          	add	a1,a1,a2
    3414:	00001637          	lui	a2,0x1
    3418:	40c40633          	sub	a2,s0,a2
    341c:	6cd63423          	sd	a3,1736(a2) # 16c8 <.LBB103_4+0x484>
    3420:	40d5863b          	subw	a2,a1,a3
    3424:	000015b7          	lui	a1,0x1
    3428:	40b405b3          	sub	a1,s0,a1
    342c:	6585b683          	ld	a3,1624(a1) # 1658 <.LBB103_4+0x414>
    3430:	0046a883          	lw	a7,4(a3) # ffffffffc0000004 <.Lfunc_end80+0xffffffffbffd7638>
    3434:	0086a583          	lw	a1,8(a3)
    3438:	00001737          	lui	a4,0x1
    343c:	40e40733          	sub	a4,s0,a4
    3440:	66b73c23          	sd	a1,1656(a4) # 1678 <.LBB103_4+0x434>
    3444:	00c6a583          	lw	a1,12(a3)
    3448:	00001737          	lui	a4,0x1
    344c:	40e40733          	sub	a4,s0,a4
    3450:	68b73023          	sd	a1,1664(a4) # 1680 <.LBB103_4+0x43c>
    3454:	0106a583          	lw	a1,16(a3)
    3458:	00001737          	lui	a4,0x1
    345c:	40e40733          	sub	a4,s0,a4
    3460:	68b73423          	sd	a1,1672(a4) # 1688 <.LBB103_4+0x444>
    3464:	0146a583          	lw	a1,20(a3)
    3468:	00001737          	lui	a4,0x1
    346c:	40e40733          	sub	a4,s0,a4
    3470:	d8b73423          	sd	a1,-632(a4) # d88 <.LBB103_3+0xab0>
    3474:	0186a583          	lw	a1,24(a3)
    3478:	00001737          	lui	a4,0x1
    347c:	40e40733          	sub	a4,s0,a4
    3480:	d8b73823          	sd	a1,-624(a4) # d90 <.LBB103_3+0xab8>
    3484:	f9043703          	ld	a4,-112(s0)
    3488:	01c6a683          	lw	a3,28(a3)
    348c:	000015b7          	lui	a1,0x1
    3490:	40b405b3          	sub	a1,s0,a1
    3494:	d8d5bc23          	sd	a3,-616(a1) # d98 <.LBB103_3+0xac0>
    3498:	00e60633          	add	a2,a2,a4
    349c:	8806061b          	addiw	a2,a2,-1920
    34a0:	400006b7          	lui	a3,0x40000
    34a4:	000015b7          	lui	a1,0x1
    34a8:	40b405b3          	sub	a1,s0,a1
    34ac:	dac5b023          	sd	a2,-608(a1) # da0 <.LBB103_3+0xac8>
    34b0:	00065463          	bgez	a2,34b8 <.LBB103_26>
    34b4:	c00006b7          	lui	a3,0xc0000

00000000000034b8 <.LBB103_26>:
    34b8:	00151613          	slli	a2,a0,0x1
    34bc:	e9043503          	ld	a0,-368(s0)
    34c0:	000015b7          	lui	a1,0x1
    34c4:	40b405b3          	sub	a1,s0,a1
    34c8:	6d05b583          	ld	a1,1744(a1) # 16d0 <.LBB103_4+0x48c>
    34cc:	00a58533          	add	a0,a1,a0
    34d0:	000015b7          	lui	a1,0x1
    34d4:	40b405b3          	sub	a1,s0,a1
    34d8:	6cc5b823          	sd	a2,1744(a1) # 16d0 <.LBB103_4+0x48c>
    34dc:	40c5053b          	subw	a0,a0,a2
    34e0:	00e50533          	add	a0,a0,a4
    34e4:	8805051b          	addiw	a0,a0,-1920
    34e8:	40000637          	lui	a2,0x40000
    34ec:	000015b7          	lui	a1,0x1
    34f0:	40b405b3          	sub	a1,s0,a1
    34f4:	daa5b823          	sd	a0,-592(a1) # db0 <.LBB103_3+0xad8>
    34f8:	000015b7          	lui	a1,0x1
    34fc:	40b405b3          	sub	a1,s0,a1
    3500:	7185b583          	ld	a1,1816(a1) # 1718 <.LBB103_4+0x4d4>
    3504:	00055463          	bgez	a0,350c <.LBB103_28>
    3508:	c0000637          	lui	a2,0xc0000

000000000000350c <.LBB103_28>:
    350c:	00001537          	lui	a0,0x1
    3510:	40a40533          	sub	a0,s0,a0
    3514:	dac53423          	sd	a2,-600(a0) # da8 <.LBB103_3+0xad0>
    3518:	00109093          	slli	ra,ra,0x1
    351c:	e9843503          	ld	a0,-360(s0)
    3520:	00001637          	lui	a2,0x1
    3524:	40c40633          	sub	a2,s0,a2
    3528:	6d863603          	ld	a2,1752(a2) # 16d8 <.LBB103_4+0x494>
    352c:	00a60533          	add	a0,a2,a0
    3530:	00001637          	lui	a2,0x1
    3534:	40c40633          	sub	a2,s0,a2
    3538:	6c163c23          	sd	ra,1752(a2) # 16d8 <.LBB103_4+0x494>
    353c:	4015053b          	subw	a0,a0,ra
    3540:	00e50533          	add	a0,a0,a4
    3544:	8805051b          	addiw	a0,a0,-1920
    3548:	40000637          	lui	a2,0x40000
    354c:	000010b7          	lui	ra,0x1
    3550:	401400b3          	sub	ra,s0,ra
    3554:	dca0b023          	sd	a0,-576(ra) # dc0 <.LBB103_3+0xae8>
    3558:	00055463          	bgez	a0,3560 <.LBB103_30>
    355c:	c0000637          	lui	a2,0xc0000

0000000000003560 <.LBB103_30>:
    3560:	00001537          	lui	a0,0x1
    3564:	40a40533          	sub	a0,s0,a0
    3568:	dac53c23          	sd	a2,-584(a0) # db8 <.LBB103_3+0xae0>
    356c:	001d9613          	slli	a2,s11,0x1
    3570:	ea043503          	ld	a0,-352(s0)
    3574:	00001db7          	lui	s11,0x1
    3578:	41b40db3          	sub	s11,s0,s11
    357c:	6e0dbd83          	ld	s11,1760(s11) # 16e0 <.LBB103_4+0x49c>
    3580:	00ad8533          	add	a0,s11,a0
    3584:	00060d93          	mv	s11,a2
    3588:	40c5053b          	subw	a0,a0,a2
    358c:	00e50533          	add	a0,a0,a4
    3590:	8805051b          	addiw	a0,a0,-1920
    3594:	40000637          	lui	a2,0x40000
    3598:	000010b7          	lui	ra,0x1
    359c:	401400b3          	sub	ra,s0,ra
    35a0:	dca0b823          	sd	a0,-560(ra) # dd0 <.LBB103_3+0xaf8>
    35a4:	000010b7          	lui	ra,0x1
    35a8:	401400b3          	sub	ra,s0,ra
    35ac:	6e80b083          	ld	ra,1768(ra) # 16e8 <.LBB103_4+0x4a4>
    35b0:	00055463          	bgez	a0,35b8 <.LBB103_32>
    35b4:	c0000637          	lui	a2,0xc0000

00000000000035b8 <.LBB103_32>:
    35b8:	00001537          	lui	a0,0x1
    35bc:	40a40533          	sub	a0,s0,a0
    35c0:	dcc53423          	sd	a2,-568(a0) # dc8 <.LBB103_3+0xaf0>
    35c4:	001d1613          	slli	a2,s10,0x1
    35c8:	ea843503          	ld	a0,-344(s0)
    35cc:	00a08533          	add	a0,ra,a0
    35d0:	00060d13          	mv	s10,a2
    35d4:	40c5053b          	subw	a0,a0,a2
    35d8:	00e50533          	add	a0,a0,a4
    35dc:	8805051b          	addiw	a0,a0,-1920
    35e0:	40000637          	lui	a2,0x40000
    35e4:	000010b7          	lui	ra,0x1
    35e8:	401400b3          	sub	ra,s0,ra
    35ec:	dea0b023          	sd	a0,-544(ra) # de0 <.LBB103_3+0xb08>
    35f0:	97043083          	ld	ra,-1680(s0)
    35f4:	00055463          	bgez	a0,35fc <.LBB103_34>
    35f8:	c0000637          	lui	a2,0xc0000

00000000000035fc <.LBB103_34>:
    35fc:	00001537          	lui	a0,0x1
    3600:	40a40533          	sub	a0,s0,a0
    3604:	dcc53c23          	sd	a2,-552(a0) # dd8 <.LBB103_3+0xb00>
    3608:	001c9c93          	slli	s9,s9,0x1
    360c:	eb043503          	ld	a0,-336(s0)
    3610:	00001637          	lui	a2,0x1
    3614:	40c40633          	sub	a2,s0,a2
    3618:	6f063603          	ld	a2,1776(a2) # 16f0 <.LBB103_4+0x4ac>
    361c:	00a60533          	add	a0,a2,a0
    3620:	00001637          	lui	a2,0x1
    3624:	40c40633          	sub	a2,s0,a2
    3628:	6f963823          	sd	s9,1776(a2) # 16f0 <.LBB103_4+0x4ac>
    362c:	4195053b          	subw	a0,a0,s9
    3630:	00e50533          	add	a0,a0,a4
    3634:	8805051b          	addiw	a0,a0,-1920
    3638:	40000637          	lui	a2,0x40000
    363c:	00001cb7          	lui	s9,0x1
    3640:	41940cb3          	sub	s9,s0,s9
    3644:	deacb823          	sd	a0,-528(s9) # df0 <.LBB103_3+0xb18>
    3648:	00055463          	bgez	a0,3650 <.LBB103_36>
    364c:	c0000637          	lui	a2,0xc0000

0000000000003650 <.LBB103_36>:
    3650:	00001537          	lui	a0,0x1
    3654:	40a40533          	sub	a0,s0,a0
    3658:	dec53423          	sd	a2,-536(a0) # de8 <.LBB103_3+0xb10>
    365c:	001c1c13          	slli	s8,s8,0x1
    3660:	eb843503          	ld	a0,-328(s0)
    3664:	00001637          	lui	a2,0x1
    3668:	40c40633          	sub	a2,s0,a2
    366c:	6f863603          	ld	a2,1784(a2) # 16f8 <.LBB103_4+0x4b4>
    3670:	00a60533          	add	a0,a2,a0
    3674:	00001637          	lui	a2,0x1
    3678:	40c40633          	sub	a2,s0,a2
    367c:	6f863c23          	sd	s8,1784(a2) # 16f8 <.LBB103_4+0x4b4>
    3680:	4185053b          	subw	a0,a0,s8
    3684:	00e50533          	add	a0,a0,a4
    3688:	8805051b          	addiw	a0,a0,-1920
    368c:	40000637          	lui	a2,0x40000
    3690:	bd043c83          	ld	s9,-1072(s0)
    3694:	00001c37          	lui	s8,0x1
    3698:	41840c33          	sub	s8,s0,s8
    369c:	e0ac3023          	sd	a0,-512(s8) # e00 <.LBB103_3+0xb28>
    36a0:	00055463          	bgez	a0,36a8 <.LBB103_38>
    36a4:	c0000637          	lui	a2,0xc0000

00000000000036a8 <.LBB103_38>:
    36a8:	00001537          	lui	a0,0x1
    36ac:	40a40533          	sub	a0,s0,a0
    36b0:	dec53c23          	sd	a2,-520(a0) # df8 <.LBB103_3+0xb20>
    36b4:	001b9b93          	slli	s7,s7,0x1
    36b8:	ec043503          	ld	a0,-320(s0)
    36bc:	00001637          	lui	a2,0x1
    36c0:	40c40633          	sub	a2,s0,a2
    36c4:	70063603          	ld	a2,1792(a2) # 1700 <.LBB103_4+0x4bc>
    36c8:	00a60533          	add	a0,a2,a0
    36cc:	00001637          	lui	a2,0x1
    36d0:	40c40633          	sub	a2,s0,a2
    36d4:	71763023          	sd	s7,1792(a2) # 1700 <.LBB103_4+0x4bc>
    36d8:	4175053b          	subw	a0,a0,s7
    36dc:	00e50533          	add	a0,a0,a4
    36e0:	8805051b          	addiw	a0,a0,-1920
    36e4:	40000637          	lui	a2,0x40000
    36e8:	00001bb7          	lui	s7,0x1
    36ec:	41740bb3          	sub	s7,s0,s7
    36f0:	d20bbc03          	ld	s8,-736(s7) # d20 <.LBB103_3+0xa48>
    36f4:	00001bb7          	lui	s7,0x1
    36f8:	41740bb3          	sub	s7,s0,s7
    36fc:	e0abb823          	sd	a0,-496(s7) # e10 <.LBB103_3+0xb38>
    3700:	00055463          	bgez	a0,3708 <.LBB103_40>
    3704:	c0000637          	lui	a2,0xc0000

0000000000003708 <.LBB103_40>:
    3708:	00001537          	lui	a0,0x1
    370c:	40a40533          	sub	a0,s0,a0
    3710:	e0c53423          	sd	a2,-504(a0) # e08 <.LBB103_3+0xb30>
    3714:	001b1b13          	slli	s6,s6,0x1
    3718:	ec843503          	ld	a0,-312(s0)
    371c:	00001637          	lui	a2,0x1
    3720:	40c40633          	sub	a2,s0,a2
    3724:	70863603          	ld	a2,1800(a2) # 1708 <.LBB103_4+0x4c4>
    3728:	00a60533          	add	a0,a2,a0
    372c:	00001637          	lui	a2,0x1
    3730:	40c40633          	sub	a2,s0,a2
    3734:	71663423          	sd	s6,1800(a2) # 1708 <.LBB103_4+0x4c4>
    3738:	4165053b          	subw	a0,a0,s6
    373c:	00e50533          	add	a0,a0,a4
    3740:	8805051b          	addiw	a0,a0,-1920
    3744:	40000637          	lui	a2,0x40000
    3748:	00001b37          	lui	s6,0x1
    374c:	41640b33          	sub	s6,s0,s6
    3750:	650b3b83          	ld	s7,1616(s6) # 1650 <.LBB103_4+0x40c>
    3754:	00001b37          	lui	s6,0x1
    3758:	41640b33          	sub	s6,s0,s6
    375c:	e2ab3023          	sd	a0,-480(s6) # e20 <.LBB103_3+0xb48>
    3760:	00055463          	bgez	a0,3768 <.LBB103_42>
    3764:	c0000637          	lui	a2,0xc0000

0000000000003768 <.LBB103_42>:
    3768:	00001537          	lui	a0,0x1
    376c:	40a40533          	sub	a0,s0,a0
    3770:	e0c53c23          	sd	a2,-488(a0) # e18 <.LBB103_3+0xb40>
    3774:	001a9a93          	slli	s5,s5,0x1
    3778:	f2043503          	ld	a0,-224(s0)
    377c:	00001637          	lui	a2,0x1
    3780:	40c40633          	sub	a2,s0,a2
    3784:	71063603          	ld	a2,1808(a2) # 1710 <.LBB103_4+0x4cc>
    3788:	00a60533          	add	a0,a2,a0
    378c:	00001637          	lui	a2,0x1
    3790:	40c40633          	sub	a2,s0,a2
    3794:	71563823          	sd	s5,1808(a2) # 1710 <.LBB103_4+0x4cc>
    3798:	4155053b          	subw	a0,a0,s5
    379c:	00e50533          	add	a0,a0,a4
    37a0:	8805051b          	addiw	a0,a0,-1920
    37a4:	40000637          	lui	a2,0x40000
    37a8:	da843b03          	ld	s6,-600(s0)
    37ac:	00001ab7          	lui	s5,0x1
    37b0:	41540ab3          	sub	s5,s0,s5
    37b4:	e2aab823          	sd	a0,-464(s5) # e30 <.LBB103_3+0xb58>
    37b8:	00055463          	bgez	a0,37c0 <.LBB103_44>
    37bc:	c0000637          	lui	a2,0xc0000

00000000000037c0 <.LBB103_44>:
    37c0:	00001537          	lui	a0,0x1
    37c4:	40a40533          	sub	a0,s0,a0
    37c8:	e2c53423          	sd	a2,-472(a0) # e28 <.LBB103_3+0xb50>
    37cc:	001a1613          	slli	a2,s4,0x1
    37d0:	f2843503          	ld	a0,-216(s0)
    37d4:	00a58533          	add	a0,a1,a0
    37d8:	000015b7          	lui	a1,0x1
    37dc:	40b405b3          	sub	a1,s0,a1
    37e0:	70c5bc23          	sd	a2,1816(a1) # 1718 <.LBB103_4+0x4d4>
    37e4:	40c5053b          	subw	a0,a0,a2
    37e8:	00e50533          	add	a0,a0,a4
    37ec:	8805051b          	addiw	a0,a0,-1920
    37f0:	40000637          	lui	a2,0x40000
    37f4:	b3843a83          	ld	s5,-1224(s0)
    37f8:	000015b7          	lui	a1,0x1
    37fc:	40b405b3          	sub	a1,s0,a1
    3800:	e4a5b023          	sd	a0,-448(a1) # e40 <.LBB103_3+0xb68>
    3804:	00055463          	bgez	a0,380c <.LBB103_46>
    3808:	c0000637          	lui	a2,0xc0000

000000000000380c <.LBB103_46>:
    380c:	00001537          	lui	a0,0x1
    3810:	40a40533          	sub	a0,s0,a0
    3814:	e2c53c23          	sd	a2,-456(a0) # e38 <.LBB103_3+0xb60>
    3818:	00199993          	slli	s3,s3,0x1
    381c:	f3043503          	ld	a0,-208(s0)
    3820:	000015b7          	lui	a1,0x1
    3824:	40b405b3          	sub	a1,s0,a1
    3828:	7205b603          	ld	a2,1824(a1) # 1720 <.LBB103_4+0x4dc>
    382c:	00a60533          	add	a0,a2,a0
    3830:	000015b7          	lui	a1,0x1
    3834:	40b405b3          	sub	a1,s0,a1
    3838:	7335b023          	sd	s3,1824(a1) # 1720 <.LBB103_4+0x4dc>
    383c:	4135053b          	subw	a0,a0,s3
    3840:	00e50533          	add	a0,a0,a4
    3844:	8805051b          	addiw	a0,a0,-1920
    3848:	40000637          	lui	a2,0x40000
    384c:	000015b7          	lui	a1,0x1
    3850:	40b405b3          	sub	a1,s0,a1
    3854:	e4a5b823          	sd	a0,-432(a1) # e50 <.LBB103_3+0xb78>
    3858:	000015b7          	lui	a1,0x1
    385c:	40b405b3          	sub	a1,s0,a1
    3860:	7785ba03          	ld	s4,1912(a1) # 1778 <.LBB103_4+0x534>
    3864:	00055463          	bgez	a0,386c <.LBB103_48>
    3868:	c0000637          	lui	a2,0xc0000

000000000000386c <.LBB103_48>:
    386c:	00001537          	lui	a0,0x1
    3870:	40a40533          	sub	a0,s0,a0
    3874:	e4c53423          	sd	a2,-440(a0) # e48 <.LBB103_3+0xb70>
    3878:	00191913          	slli	s2,s2,0x1
    387c:	f3843503          	ld	a0,-200(s0)
    3880:	000015b7          	lui	a1,0x1
    3884:	40b405b3          	sub	a1,s0,a1
    3888:	7285b603          	ld	a2,1832(a1) # 1728 <.LBB103_4+0x4e4>
    388c:	00a60533          	add	a0,a2,a0
    3890:	000015b7          	lui	a1,0x1
    3894:	40b405b3          	sub	a1,s0,a1
    3898:	7325b423          	sd	s2,1832(a1) # 1728 <.LBB103_4+0x4e4>
    389c:	4125053b          	subw	a0,a0,s2
    38a0:	00e50533          	add	a0,a0,a4
    38a4:	8805051b          	addiw	a0,a0,-1920
    38a8:	40000637          	lui	a2,0x40000
    38ac:	db043983          	ld	s3,-592(s0)
    38b0:	000015b7          	lui	a1,0x1
    38b4:	40b405b3          	sub	a1,s0,a1
    38b8:	e6a5b023          	sd	a0,-416(a1) # e60 <.LBB103_3+0xb88>
    38bc:	00055463          	bgez	a0,38c4 <.LBB103_50>
    38c0:	c0000637          	lui	a2,0xc0000

00000000000038c4 <.LBB103_50>:
    38c4:	00001537          	lui	a0,0x1
    38c8:	40a40533          	sub	a0,s0,a0
    38cc:	e4c53c23          	sd	a2,-424(a0) # e58 <.LBB103_3+0xb80>
    38d0:	00149493          	slli	s1,s1,0x1
    38d4:	f4043503          	ld	a0,-192(s0)
    38d8:	000015b7          	lui	a1,0x1
    38dc:	40b405b3          	sub	a1,s0,a1
    38e0:	7305b603          	ld	a2,1840(a1) # 1730 <.LBB103_4+0x4ec>
    38e4:	00a60533          	add	a0,a2,a0
    38e8:	000015b7          	lui	a1,0x1
    38ec:	40b405b3          	sub	a1,s0,a1
    38f0:	7295b823          	sd	s1,1840(a1) # 1730 <.LBB103_4+0x4ec>
    38f4:	4095053b          	subw	a0,a0,s1
    38f8:	00e50533          	add	a0,a0,a4
    38fc:	8805051b          	addiw	a0,a0,-1920
    3900:	40000637          	lui	a2,0x40000
    3904:	000015b7          	lui	a1,0x1
    3908:	40b405b3          	sub	a1,s0,a1
    390c:	e6a5b823          	sd	a0,-400(a1) # e70 <.LBB103_3+0xb98>
    3910:	87843903          	ld	s2,-1928(s0)
    3914:	00055463          	bgez	a0,391c <.LBB103_52>
    3918:	c0000637          	lui	a2,0xc0000

000000000000391c <.LBB103_52>:
    391c:	00001537          	lui	a0,0x1
    3920:	40a40533          	sub	a0,s0,a0
    3924:	e6c53423          	sd	a2,-408(a0) # e68 <.LBB103_3+0xb90>
    3928:	001f9f93          	slli	t6,t6,0x1
    392c:	f4843503          	ld	a0,-184(s0)
    3930:	000015b7          	lui	a1,0x1
    3934:	40b405b3          	sub	a1,s0,a1
    3938:	7385b603          	ld	a2,1848(a1) # 1738 <.LBB103_4+0x4f4>
    393c:	00a60533          	add	a0,a2,a0
    3940:	000015b7          	lui	a1,0x1
    3944:	40b405b3          	sub	a1,s0,a1
    3948:	73f5bc23          	sd	t6,1848(a1) # 1738 <.LBB103_4+0x4f4>
    394c:	41f5053b          	subw	a0,a0,t6
    3950:	00e50533          	add	a0,a0,a4
    3954:	8805051b          	addiw	a0,a0,-1920
    3958:	40000637          	lui	a2,0x40000
    395c:	dc043483          	ld	s1,-576(s0)
    3960:	000015b7          	lui	a1,0x1
    3964:	40b405b3          	sub	a1,s0,a1
    3968:	e8a5b023          	sd	a0,-384(a1) # e80 <.LBB103_3+0xba8>
    396c:	00055463          	bgez	a0,3974 <.LBB103_54>
    3970:	c0000637          	lui	a2,0xc0000

0000000000003974 <.LBB103_54>:
    3974:	00001537          	lui	a0,0x1
    3978:	40a40533          	sub	a0,s0,a0
    397c:	e6c53c23          	sd	a2,-392(a0) # e78 <.LBB103_3+0xba0>
    3980:	001f1f13          	slli	t5,t5,0x1
    3984:	f5043503          	ld	a0,-176(s0)
    3988:	000015b7          	lui	a1,0x1
    398c:	40b405b3          	sub	a1,s0,a1
    3990:	7405b603          	ld	a2,1856(a1) # 1740 <.LBB103_4+0x4fc>
    3994:	00a60533          	add	a0,a2,a0
    3998:	000015b7          	lui	a1,0x1
    399c:	40b405b3          	sub	a1,s0,a1
    39a0:	75e5b023          	sd	t5,1856(a1) # 1740 <.LBB103_4+0x4fc>
    39a4:	41e5053b          	subw	a0,a0,t5
    39a8:	00e50533          	add	a0,a0,a4
    39ac:	8805051b          	addiw	a0,a0,-1920
    39b0:	40000637          	lui	a2,0x40000
    39b4:	a8043f83          	ld	t6,-1408(s0)
    39b8:	000015b7          	lui	a1,0x1
    39bc:	40b405b3          	sub	a1,s0,a1
    39c0:	e8a5b823          	sd	a0,-368(a1) # e90 <.LBB103_3+0xbb8>
    39c4:	00055463          	bgez	a0,39cc <.LBB103_56>
    39c8:	c0000637          	lui	a2,0xc0000

00000000000039cc <.LBB103_56>:
    39cc:	00001537          	lui	a0,0x1
    39d0:	40a40533          	sub	a0,s0,a0
    39d4:	e8c53423          	sd	a2,-376(a0) # e88 <.LBB103_3+0xbb0>
    39d8:	001e9e93          	slli	t4,t4,0x1
    39dc:	f5843503          	ld	a0,-168(s0)
    39e0:	000015b7          	lui	a1,0x1
    39e4:	40b405b3          	sub	a1,s0,a1
    39e8:	7485b603          	ld	a2,1864(a1) # 1748 <.LBB103_4+0x504>
    39ec:	00a60533          	add	a0,a2,a0
    39f0:	000015b7          	lui	a1,0x1
    39f4:	40b405b3          	sub	a1,s0,a1
    39f8:	75d5b423          	sd	t4,1864(a1) # 1748 <.LBB103_4+0x504>
    39fc:	41d5053b          	subw	a0,a0,t4
    3a00:	00e50533          	add	a0,a0,a4
    3a04:	8805051b          	addiw	a0,a0,-1920
    3a08:	40000637          	lui	a2,0x40000
    3a0c:	dd043f03          	ld	t5,-560(s0)
    3a10:	000015b7          	lui	a1,0x1
    3a14:	40b405b3          	sub	a1,s0,a1
    3a18:	eaa5b023          	sd	a0,-352(a1) # ea0 <.LBB103_3+0xbc8>
    3a1c:	00055463          	bgez	a0,3a24 <.LBB103_58>
    3a20:	c0000637          	lui	a2,0xc0000

0000000000003a24 <.LBB103_58>:
    3a24:	00001537          	lui	a0,0x1
    3a28:	40a40533          	sub	a0,s0,a0
    3a2c:	e8c53c23          	sd	a2,-360(a0) # e98 <.LBB103_3+0xbc0>
    3a30:	001e1e13          	slli	t3,t3,0x1
    3a34:	f6043503          	ld	a0,-160(s0)
    3a38:	000015b7          	lui	a1,0x1
    3a3c:	40b405b3          	sub	a1,s0,a1
    3a40:	7505b603          	ld	a2,1872(a1) # 1750 <.LBB103_4+0x50c>
    3a44:	00a60533          	add	a0,a2,a0
    3a48:	000015b7          	lui	a1,0x1
    3a4c:	40b405b3          	sub	a1,s0,a1
    3a50:	75c5b823          	sd	t3,1872(a1) # 1750 <.LBB103_4+0x50c>
    3a54:	41c5053b          	subw	a0,a0,t3
    3a58:	00e50533          	add	a0,a0,a4
    3a5c:	8805051b          	addiw	a0,a0,-1920
    3a60:	40000637          	lui	a2,0x40000
    3a64:	dd843e83          	ld	t4,-552(s0)
    3a68:	000015b7          	lui	a1,0x1
    3a6c:	40b405b3          	sub	a1,s0,a1
    3a70:	eaa5b823          	sd	a0,-336(a1) # eb0 <.LBB103_3+0xbd8>
    3a74:	00055463          	bgez	a0,3a7c <.LBB103_60>
    3a78:	c0000637          	lui	a2,0xc0000

0000000000003a7c <.LBB103_60>:
    3a7c:	00001537          	lui	a0,0x1
    3a80:	40a40533          	sub	a0,s0,a0
    3a84:	eac53423          	sd	a2,-344(a0) # ea8 <.LBB103_3+0xbd0>
    3a88:	00139393          	slli	t2,t2,0x1
    3a8c:	f6843503          	ld	a0,-152(s0)
    3a90:	000015b7          	lui	a1,0x1
    3a94:	40b405b3          	sub	a1,s0,a1
    3a98:	7585b603          	ld	a2,1880(a1) # 1758 <.LBB103_4+0x514>
    3a9c:	00a60533          	add	a0,a2,a0
    3aa0:	000015b7          	lui	a1,0x1
    3aa4:	40b405b3          	sub	a1,s0,a1
    3aa8:	7475bc23          	sd	t2,1880(a1) # 1758 <.LBB103_4+0x514>
    3aac:	4075053b          	subw	a0,a0,t2
    3ab0:	00e50533          	add	a0,a0,a4
    3ab4:	8805051b          	addiw	a0,a0,-1920
    3ab8:	40000637          	lui	a2,0x40000
    3abc:	de043e03          	ld	t3,-544(s0)
    3ac0:	000015b7          	lui	a1,0x1
    3ac4:	40b405b3          	sub	a1,s0,a1
    3ac8:	eca5b023          	sd	a0,-320(a1) # ec0 <.LBB103_3+0xbe8>
    3acc:	00055463          	bgez	a0,3ad4 <.LBB103_62>
    3ad0:	c0000637          	lui	a2,0xc0000

0000000000003ad4 <.LBB103_62>:
    3ad4:	00001537          	lui	a0,0x1
    3ad8:	40a40533          	sub	a0,s0,a0
    3adc:	eac53c23          	sd	a2,-328(a0) # eb8 <.LBB103_3+0xbe0>
    3ae0:	00131313          	slli	t1,t1,0x1
    3ae4:	f7043503          	ld	a0,-144(s0)
    3ae8:	000015b7          	lui	a1,0x1
    3aec:	40b405b3          	sub	a1,s0,a1
    3af0:	7605b603          	ld	a2,1888(a1) # 1760 <.LBB103_4+0x51c>
    3af4:	00a60533          	add	a0,a2,a0
    3af8:	000015b7          	lui	a1,0x1
    3afc:	40b405b3          	sub	a1,s0,a1
    3b00:	7665b023          	sd	t1,1888(a1) # 1760 <.LBB103_4+0x51c>
    3b04:	4065053b          	subw	a0,a0,t1
    3b08:	00e50533          	add	a0,a0,a4
    3b0c:	8805051b          	addiw	a0,a0,-1920
    3b10:	40000637          	lui	a2,0x40000
    3b14:	de843383          	ld	t2,-536(s0)
    3b18:	000015b7          	lui	a1,0x1
    3b1c:	40b405b3          	sub	a1,s0,a1
    3b20:	eca5b823          	sd	a0,-304(a1) # ed0 <.LBB103_3+0xbf8>
    3b24:	00055463          	bgez	a0,3b2c <.LBB103_64>
    3b28:	c0000637          	lui	a2,0xc0000

0000000000003b2c <.LBB103_64>:
    3b2c:	00001537          	lui	a0,0x1
    3b30:	40a40533          	sub	a0,s0,a0
    3b34:	ecc53423          	sd	a2,-312(a0) # ec8 <.LBB103_3+0xbf0>
    3b38:	00129293          	slli	t0,t0,0x1
    3b3c:	f7843503          	ld	a0,-136(s0)
    3b40:	000015b7          	lui	a1,0x1
    3b44:	40b405b3          	sub	a1,s0,a1
    3b48:	7685b603          	ld	a2,1896(a1) # 1768 <.LBB103_4+0x524>
    3b4c:	00a60533          	add	a0,a2,a0
    3b50:	000015b7          	lui	a1,0x1
    3b54:	40b405b3          	sub	a1,s0,a1
    3b58:	7655b423          	sd	t0,1896(a1) # 1768 <.LBB103_4+0x524>
    3b5c:	4055053b          	subw	a0,a0,t0
    3b60:	00e50533          	add	a0,a0,a4
    3b64:	8805051b          	addiw	a0,a0,-1920
    3b68:	40000637          	lui	a2,0x40000
    3b6c:	df043303          	ld	t1,-528(s0)
    3b70:	000015b7          	lui	a1,0x1
    3b74:	40b405b3          	sub	a1,s0,a1
    3b78:	eea5b023          	sd	a0,-288(a1) # ee0 <.LBB103_3+0xc08>
    3b7c:	00055463          	bgez	a0,3b84 <.LBB103_66>
    3b80:	c0000637          	lui	a2,0xc0000

0000000000003b84 <.LBB103_66>:
    3b84:	00001537          	lui	a0,0x1
    3b88:	40a40533          	sub	a0,s0,a0
    3b8c:	ecc53c23          	sd	a2,-296(a0) # ed8 <.LBB103_3+0xc00>
    3b90:	00181813          	slli	a6,a6,0x1
    3b94:	f8043503          	ld	a0,-128(s0)
    3b98:	000015b7          	lui	a1,0x1
    3b9c:	40b405b3          	sub	a1,s0,a1
    3ba0:	7705b603          	ld	a2,1904(a1) # 1770 <.LBB103_4+0x52c>
    3ba4:	00a60533          	add	a0,a2,a0
    3ba8:	000015b7          	lui	a1,0x1
    3bac:	40b405b3          	sub	a1,s0,a1
    3bb0:	7705b823          	sd	a6,1904(a1) # 1770 <.LBB103_4+0x52c>
    3bb4:	4105053b          	subw	a0,a0,a6
    3bb8:	00e50533          	add	a0,a0,a4
    3bbc:	8805051b          	addiw	a0,a0,-1920
    3bc0:	40000637          	lui	a2,0x40000
    3bc4:	df843283          	ld	t0,-520(s0)
    3bc8:	000015b7          	lui	a1,0x1
    3bcc:	40b405b3          	sub	a1,s0,a1
    3bd0:	eea5b823          	sd	a0,-272(a1) # ef0 <.LBB103_3+0xc18>
    3bd4:	00055463          	bgez	a0,3bdc <.LBB103_68>
    3bd8:	c0000637          	lui	a2,0xc0000

0000000000003bdc <.LBB103_68>:
    3bdc:	00001537          	lui	a0,0x1
    3be0:	40a40533          	sub	a0,s0,a0
    3be4:	eec53423          	sd	a2,-280(a0) # ee8 <.LBB103_3+0xc10>
    3be8:	00179793          	slli	a5,a5,0x1
    3bec:	f8843503          	ld	a0,-120(s0)
    3bf0:	00aa0533          	add	a0,s4,a0
    3bf4:	00078a13          	mv	s4,a5
    3bf8:	40f5053b          	subw	a0,a0,a5
    3bfc:	00e50533          	add	a0,a0,a4
    3c00:	8805051b          	addiw	a0,a0,-1920
    3c04:	40000637          	lui	a2,0x40000
    3c08:	b2043803          	ld	a6,-1248(s0)
    3c0c:	000015b7          	lui	a1,0x1
    3c10:	40b405b3          	sub	a1,s0,a1
    3c14:	f0a5b423          	sd	a0,-248(a1) # f08 <.LBB103_3+0xc30>
    3c18:	00055463          	bgez	a0,3c20 <.LBB103_70>
    3c1c:	c0000637          	lui	a2,0xc0000

0000000000003c20 <.LBB103_70>:
    3c20:	00001537          	lui	a0,0x1
    3c24:	40a40533          	sub	a0,s0,a0
    3c28:	eec53c23          	sd	a2,-264(a0) # ef8 <.LBB103_3+0xc20>
    3c2c:	00189713          	slli	a4,a7,0x1
    3c30:	e8843503          	ld	a0,-376(s0)
    3c34:	000015b7          	lui	a1,0x1
    3c38:	40b405b3          	sub	a1,s0,a1
    3c3c:	7805b603          	ld	a2,1920(a1) # 1780 <.LBB103_4+0x53c>
    3c40:	00a60533          	add	a0,a2,a0
    3c44:	01170733          	add	a4,a4,a7
    3c48:	e8043603          	ld	a2,-384(s0)
    3c4c:	40c5053b          	subw	a0,a0,a2
    3c50:	00e50533          	add	a0,a0,a4
    3c54:	8805051b          	addiw	a0,a0,-1920
    3c58:	40000637          	lui	a2,0x40000
    3c5c:	af843783          	ld	a5,-1288(s0)
    3c60:	000015b7          	lui	a1,0x1
    3c64:	40b405b3          	sub	a1,s0,a1
    3c68:	f0a5b823          	sd	a0,-240(a1) # f10 <.LBB103_3+0xc38>
    3c6c:	00055463          	bgez	a0,3c74 <.LBB103_72>
    3c70:	c0000637          	lui	a2,0xc0000

0000000000003c74 <.LBB103_72>:
    3c74:	00001537          	lui	a0,0x1
    3c78:	40a40533          	sub	a0,s0,a0
    3c7c:	f0c53023          	sd	a2,-256(a0) # f00 <.LBB103_3+0xc28>
    3c80:	e7843503          	ld	a0,-392(s0)
    3c84:	000015b7          	lui	a1,0x1
    3c88:	40b405b3          	sub	a1,s0,a1
    3c8c:	7885b603          	ld	a2,1928(a1) # 1788 <.LBB103_4+0x544>
    3c90:	00a60533          	add	a0,a2,a0
    3c94:	e7043603          	ld	a2,-400(s0)
    3c98:	40c5053b          	subw	a0,a0,a2
    3c9c:	00e50533          	add	a0,a0,a4
    3ca0:	8805051b          	addiw	a0,a0,-1920
    3ca4:	40000637          	lui	a2,0x40000
    3ca8:	000015b7          	lui	a1,0x1
    3cac:	40b405b3          	sub	a1,s0,a1
    3cb0:	f2a5b023          	sd	a0,-224(a1) # f20 <.LBB103_3+0xc48>
    3cb4:	88043883          	ld	a7,-1920(s0)
    3cb8:	00055463          	bgez	a0,3cc0 <.LBB103_74>
    3cbc:	c0000637          	lui	a2,0xc0000

0000000000003cc0 <.LBB103_74>:
    3cc0:	00001537          	lui	a0,0x1
    3cc4:	40a40533          	sub	a0,s0,a0
    3cc8:	f0c53c23          	sd	a2,-232(a0) # f18 <.LBB103_3+0xc40>
    3ccc:	e6843503          	ld	a0,-408(s0)
    3cd0:	000015b7          	lui	a1,0x1
    3cd4:	40b405b3          	sub	a1,s0,a1
    3cd8:	7905b603          	ld	a2,1936(a1) # 1790 <.LBB103_4+0x54c>
    3cdc:	00a60533          	add	a0,a2,a0
    3ce0:	e6043603          	ld	a2,-416(s0)
    3ce4:	40c5053b          	subw	a0,a0,a2
    3ce8:	00e50533          	add	a0,a0,a4
    3cec:	8805051b          	addiw	a0,a0,-1920
    3cf0:	40000637          	lui	a2,0x40000
    3cf4:	000015b7          	lui	a1,0x1
    3cf8:	40b405b3          	sub	a1,s0,a1
    3cfc:	f2a5b823          	sd	a0,-208(a1) # f30 <.LBB103_3+0xc58>
    3d00:	00055463          	bgez	a0,3d08 <.LBB103_76>
    3d04:	c0000637          	lui	a2,0xc0000

0000000000003d08 <.LBB103_76>:
    3d08:	00001537          	lui	a0,0x1
    3d0c:	40a40533          	sub	a0,s0,a0
    3d10:	f2c53423          	sd	a2,-216(a0) # f28 <.LBB103_3+0xc50>
    3d14:	e5843503          	ld	a0,-424(s0)
    3d18:	000015b7          	lui	a1,0x1
    3d1c:	40b405b3          	sub	a1,s0,a1
    3d20:	7985b603          	ld	a2,1944(a1) # 1798 <.LBB103_4+0x554>
    3d24:	00a60533          	add	a0,a2,a0
    3d28:	e5043603          	ld	a2,-432(s0)
    3d2c:	40c5053b          	subw	a0,a0,a2
    3d30:	00e50533          	add	a0,a0,a4
    3d34:	8805051b          	addiw	a0,a0,-1920
    3d38:	40000637          	lui	a2,0x40000
    3d3c:	000015b7          	lui	a1,0x1
    3d40:	40b405b3          	sub	a1,s0,a1
    3d44:	f4a5b023          	sd	a0,-192(a1) # f40 <.LBB103_3+0xc68>
    3d48:	00055463          	bgez	a0,3d50 <.LBB103_78>
    3d4c:	c0000637          	lui	a2,0xc0000

0000000000003d50 <.LBB103_78>:
    3d50:	00001537          	lui	a0,0x1
    3d54:	40a40533          	sub	a0,s0,a0
    3d58:	f2c53c23          	sd	a2,-200(a0) # f38 <.LBB103_3+0xc60>
    3d5c:	e4843503          	ld	a0,-440(s0)
    3d60:	000015b7          	lui	a1,0x1
    3d64:	40b405b3          	sub	a1,s0,a1
    3d68:	7a05b603          	ld	a2,1952(a1) # 17a0 <.LBB103_4+0x55c>
    3d6c:	00a60533          	add	a0,a2,a0
    3d70:	e4043603          	ld	a2,-448(s0)
    3d74:	40c5053b          	subw	a0,a0,a2
    3d78:	00e50533          	add	a0,a0,a4
    3d7c:	8805051b          	addiw	a0,a0,-1920
    3d80:	40000637          	lui	a2,0x40000
    3d84:	000015b7          	lui	a1,0x1
    3d88:	40b405b3          	sub	a1,s0,a1
    3d8c:	f4a5b823          	sd	a0,-176(a1) # f50 <.LBB103_3+0xc78>
    3d90:	00055463          	bgez	a0,3d98 <.LBB103_80>
    3d94:	c0000637          	lui	a2,0xc0000

0000000000003d98 <.LBB103_80>:
    3d98:	00001537          	lui	a0,0x1
    3d9c:	40a40533          	sub	a0,s0,a0
    3da0:	f4c53423          	sd	a2,-184(a0) # f48 <.LBB103_3+0xc70>
    3da4:	e3843503          	ld	a0,-456(s0)
    3da8:	000015b7          	lui	a1,0x1
    3dac:	40b405b3          	sub	a1,s0,a1
    3db0:	7a85b603          	ld	a2,1960(a1) # 17a8 <.LBB103_4+0x564>
    3db4:	00a60533          	add	a0,a2,a0
    3db8:	e3043603          	ld	a2,-464(s0)
    3dbc:	40c5053b          	subw	a0,a0,a2
    3dc0:	00e50533          	add	a0,a0,a4
    3dc4:	8805051b          	addiw	a0,a0,-1920
    3dc8:	40000637          	lui	a2,0x40000
    3dcc:	000015b7          	lui	a1,0x1
    3dd0:	40b405b3          	sub	a1,s0,a1
    3dd4:	f6a5b423          	sd	a0,-152(a1) # f68 <.LBB103_3+0xc90>
    3dd8:	00055463          	bgez	a0,3de0 <.LBB103_82>
    3ddc:	c0000637          	lui	a2,0xc0000

0000000000003de0 <.LBB103_82>:
    3de0:	00001537          	lui	a0,0x1
    3de4:	40a40533          	sub	a0,s0,a0
    3de8:	f4c53c23          	sd	a2,-168(a0) # f58 <.LBB103_3+0xc80>
    3dec:	00001537          	lui	a0,0x1
    3df0:	40a40533          	sub	a0,s0,a0
    3df4:	6c053503          	ld	a0,1728(a0) # 16c0 <.LBB103_4+0x47c>
    3df8:	000015b7          	lui	a1,0x1
    3dfc:	40b405b3          	sub	a1,s0,a1
    3e00:	7b05b603          	ld	a2,1968(a1) # 17b0 <.LBB103_4+0x56c>
    3e04:	00a60533          	add	a0,a2,a0
    3e08:	000015b7          	lui	a1,0x1
    3e0c:	40b405b3          	sub	a1,s0,a1
    3e10:	6b85b603          	ld	a2,1720(a1) # 16b8 <.LBB103_4+0x474>
    3e14:	40c5053b          	subw	a0,a0,a2
    3e18:	00e50533          	add	a0,a0,a4
    3e1c:	8805051b          	addiw	a0,a0,-1920
    3e20:	40000637          	lui	a2,0x40000
    3e24:	000015b7          	lui	a1,0x1
    3e28:	40b405b3          	sub	a1,s0,a1
    3e2c:	faa5b023          	sd	a0,-96(a1) # fa0 <.LBB103_3+0xcc8>
    3e30:	00055463          	bgez	a0,3e38 <.LBB103_84>
    3e34:	c0000637          	lui	a2,0xc0000

0000000000003e38 <.LBB103_84>:
    3e38:	00001537          	lui	a0,0x1
    3e3c:	40a40533          	sub	a0,s0,a0
    3e40:	f8c53023          	sd	a2,-128(a0) # f80 <.LBB103_3+0xca8>
    3e44:	00001537          	lui	a0,0x1
    3e48:	40a40533          	sub	a0,s0,a0
    3e4c:	6b053503          	ld	a0,1712(a0) # 16b0 <.LBB103_4+0x46c>
    3e50:	000015b7          	lui	a1,0x1
    3e54:	40b405b3          	sub	a1,s0,a1
    3e58:	7b85b603          	ld	a2,1976(a1) # 17b8 <.LBB103_4+0x574>
    3e5c:	00a60533          	add	a0,a2,a0
    3e60:	000015b7          	lui	a1,0x1
    3e64:	40b405b3          	sub	a1,s0,a1
    3e68:	6a85b603          	ld	a2,1704(a1) # 16a8 <.LBB103_4+0x464>
    3e6c:	40c5053b          	subw	a0,a0,a2
    3e70:	00e50533          	add	a0,a0,a4
    3e74:	8805051b          	addiw	a0,a0,-1920
    3e78:	40000637          	lui	a2,0x40000
    3e7c:	000015b7          	lui	a1,0x1
    3e80:	40b405b3          	sub	a1,s0,a1
    3e84:	fea5b423          	sd	a0,-24(a1) # fe8 <.LBB103_3+0xd10>
    3e88:	00055463          	bgez	a0,3e90 <.LBB103_86>
    3e8c:	c0000637          	lui	a2,0xc0000

0000000000003e90 <.LBB103_86>:
    3e90:	00001537          	lui	a0,0x1
    3e94:	40a40533          	sub	a0,s0,a0
    3e98:	fcc53023          	sd	a2,-64(a0) # fc0 <.LBB103_3+0xce8>
    3e9c:	00001537          	lui	a0,0x1
    3ea0:	40a40533          	sub	a0,s0,a0
    3ea4:	6a053503          	ld	a0,1696(a0) # 16a0 <.LBB103_4+0x45c>
    3ea8:	000015b7          	lui	a1,0x1
    3eac:	40b405b3          	sub	a1,s0,a1
    3eb0:	7c05b603          	ld	a2,1984(a1) # 17c0 <.LBB103_4+0x57c>
    3eb4:	00a60533          	add	a0,a2,a0
    3eb8:	000015b7          	lui	a1,0x1
    3ebc:	40b405b3          	sub	a1,s0,a1
    3ec0:	6985b603          	ld	a2,1688(a1) # 1698 <.LBB103_4+0x454>
    3ec4:	40c5053b          	subw	a0,a0,a2
    3ec8:	00e50533          	add	a0,a0,a4
    3ecc:	8805051b          	addiw	a0,a0,-1920
    3ed0:	40000637          	lui	a2,0x40000
    3ed4:	000015b7          	lui	a1,0x1
    3ed8:	40b405b3          	sub	a1,s0,a1
    3edc:	00a5bc23          	sd	a0,24(a1) # 1018 <.LBB103_3+0xd40>
    3ee0:	00055463          	bgez	a0,3ee8 <.LBB103_88>
    3ee4:	c0000637          	lui	a2,0xc0000

0000000000003ee8 <.LBB103_88>:
    3ee8:	00001537          	lui	a0,0x1
    3eec:	40a40533          	sub	a0,s0,a0
    3ef0:	00c53423          	sd	a2,8(a0) # 1008 <.LBB103_3+0xd30>
    3ef4:	00001537          	lui	a0,0x1
    3ef8:	40a40533          	sub	a0,s0,a0
    3efc:	69053503          	ld	a0,1680(a0) # 1690 <.LBB103_4+0x44c>
    3f00:	000015b7          	lui	a1,0x1
    3f04:	40b405b3          	sub	a1,s0,a1
    3f08:	7c85b603          	ld	a2,1992(a1) # 17c8 <.LBB103_4+0x584>
    3f0c:	00a60533          	add	a0,a2,a0
    3f10:	000015b7          	lui	a1,0x1
    3f14:	40b405b3          	sub	a1,s0,a1
    3f18:	6c85b603          	ld	a2,1736(a1) # 16c8 <.LBB103_4+0x484>
    3f1c:	40c5053b          	subw	a0,a0,a2
    3f20:	00e50533          	add	a0,a0,a4
    3f24:	8805051b          	addiw	a0,a0,-1920
    3f28:	40000637          	lui	a2,0x40000
    3f2c:	000015b7          	lui	a1,0x1
    3f30:	40b405b3          	sub	a1,s0,a1
    3f34:	02a5b823          	sd	a0,48(a1) # 1030 <.LBB103_3+0xd58>
    3f38:	00055463          	bgez	a0,3f40 <.LBB103_90>
    3f3c:	c0000637          	lui	a2,0xc0000

0000000000003f40 <.LBB103_90>:
    3f40:	00001537          	lui	a0,0x1
    3f44:	40a40533          	sub	a0,s0,a0
    3f48:	02c53423          	sd	a2,40(a0) # 1028 <.LBB103_3+0xd50>
    3f4c:	e9043503          	ld	a0,-368(s0)
    3f50:	000015b7          	lui	a1,0x1
    3f54:	40b405b3          	sub	a1,s0,a1
    3f58:	7d05b603          	ld	a2,2000(a1) # 17d0 <.LBB103_4+0x58c>
    3f5c:	00a60533          	add	a0,a2,a0
    3f60:	000015b7          	lui	a1,0x1
    3f64:	40b405b3          	sub	a1,s0,a1
    3f68:	6d05b603          	ld	a2,1744(a1) # 16d0 <.LBB103_4+0x48c>
    3f6c:	40c5053b          	subw	a0,a0,a2
    3f70:	00e50533          	add	a0,a0,a4
    3f74:	8805051b          	addiw	a0,a0,-1920
    3f78:	40000637          	lui	a2,0x40000
    3f7c:	000015b7          	lui	a1,0x1
    3f80:	40b405b3          	sub	a1,s0,a1
    3f84:	04a5b023          	sd	a0,64(a1) # 1040 <.LBB103_3+0xd68>
    3f88:	00055463          	bgez	a0,3f90 <.LBB103_92>
    3f8c:	c0000637          	lui	a2,0xc0000

0000000000003f90 <.LBB103_92>:
    3f90:	00001537          	lui	a0,0x1
    3f94:	40a40533          	sub	a0,s0,a0
    3f98:	02c53c23          	sd	a2,56(a0) # 1038 <.LBB103_3+0xd60>
    3f9c:	e9843503          	ld	a0,-360(s0)
    3fa0:	000015b7          	lui	a1,0x1
    3fa4:	40b405b3          	sub	a1,s0,a1
    3fa8:	7d85b603          	ld	a2,2008(a1) # 17d8 <.LBB103_4+0x594>
    3fac:	00a60533          	add	a0,a2,a0
    3fb0:	000015b7          	lui	a1,0x1
    3fb4:	40b405b3          	sub	a1,s0,a1
    3fb8:	6d85b603          	ld	a2,1752(a1) # 16d8 <.LBB103_4+0x494>
    3fbc:	40c5053b          	subw	a0,a0,a2
    3fc0:	00e50533          	add	a0,a0,a4
    3fc4:	8805051b          	addiw	a0,a0,-1920
    3fc8:	40000637          	lui	a2,0x40000
    3fcc:	000015b7          	lui	a1,0x1
    3fd0:	40b405b3          	sub	a1,s0,a1
    3fd4:	04a5b823          	sd	a0,80(a1) # 1050 <.LBB103_3+0xd78>
    3fd8:	00055463          	bgez	a0,3fe0 <.LBB103_94>
    3fdc:	c0000637          	lui	a2,0xc0000

0000000000003fe0 <.LBB103_94>:
    3fe0:	00001537          	lui	a0,0x1
    3fe4:	40a40533          	sub	a0,s0,a0
    3fe8:	04c53423          	sd	a2,72(a0) # 1048 <.LBB103_3+0xd70>
    3fec:	ea043503          	ld	a0,-352(s0)
    3ff0:	000015b7          	lui	a1,0x1
    3ff4:	40b405b3          	sub	a1,s0,a1
    3ff8:	7e05b603          	ld	a2,2016(a1) # 17e0 <.LBB103_4+0x59c>
    3ffc:	00a60533          	add	a0,a2,a0
    4000:	41b5053b          	subw	a0,a0,s11
    4004:	00e50533          	add	a0,a0,a4
    4008:	8805051b          	addiw	a0,a0,-1920
    400c:	40000637          	lui	a2,0x40000
    4010:	000015b7          	lui	a1,0x1
    4014:	40b405b3          	sub	a1,s0,a1
    4018:	06a5b023          	sd	a0,96(a1) # 1060 <.LBB103_3+0xd88>
    401c:	00055463          	bgez	a0,4024 <.LBB103_96>
    4020:	c0000637          	lui	a2,0xc0000

0000000000004024 <.LBB103_96>:
    4024:	00001537          	lui	a0,0x1
    4028:	40a40533          	sub	a0,s0,a0
    402c:	04c53c23          	sd	a2,88(a0) # 1058 <.LBB103_3+0xd80>
    4030:	ea843503          	ld	a0,-344(s0)
    4034:	000015b7          	lui	a1,0x1
    4038:	40b405b3          	sub	a1,s0,a1
    403c:	7e85b603          	ld	a2,2024(a1) # 17e8 <.LBB103_4+0x5a4>
    4040:	00a60533          	add	a0,a2,a0
    4044:	41a5053b          	subw	a0,a0,s10
    4048:	00e50533          	add	a0,a0,a4
    404c:	8805051b          	addiw	a0,a0,-1920
    4050:	40000637          	lui	a2,0x40000
    4054:	000015b7          	lui	a1,0x1
    4058:	40b405b3          	sub	a1,s0,a1
    405c:	06a5b823          	sd	a0,112(a1) # 1070 <.LBB103_3+0xd98>
    4060:	00055463          	bgez	a0,4068 <.LBB103_98>
    4064:	c0000637          	lui	a2,0xc0000

0000000000004068 <.LBB103_98>:
    4068:	00001537          	lui	a0,0x1
    406c:	40a40533          	sub	a0,s0,a0
    4070:	06c53423          	sd	a2,104(a0) # 1068 <.LBB103_3+0xd90>
    4074:	eb043503          	ld	a0,-336(s0)
    4078:	000015b7          	lui	a1,0x1
    407c:	40b405b3          	sub	a1,s0,a1
    4080:	7f05b603          	ld	a2,2032(a1) # 17f0 <.LBB103_4+0x5ac>
    4084:	00a60533          	add	a0,a2,a0
    4088:	000015b7          	lui	a1,0x1
    408c:	40b405b3          	sub	a1,s0,a1
    4090:	6f05b603          	ld	a2,1776(a1) # 16f0 <.LBB103_4+0x4ac>
    4094:	40c5053b          	subw	a0,a0,a2
    4098:	00e50533          	add	a0,a0,a4
    409c:	8805051b          	addiw	a0,a0,-1920
    40a0:	40000637          	lui	a2,0x40000
    40a4:	000015b7          	lui	a1,0x1
    40a8:	40b405b3          	sub	a1,s0,a1
    40ac:	08a5b023          	sd	a0,128(a1) # 1080 <.LBB103_3+0xda8>
    40b0:	00055463          	bgez	a0,40b8 <.LBB103_100>
    40b4:	c0000637          	lui	a2,0xc0000

00000000000040b8 <.LBB103_100>:
    40b8:	00001537          	lui	a0,0x1
    40bc:	40a40533          	sub	a0,s0,a0
    40c0:	06c53c23          	sd	a2,120(a0) # 1078 <.LBB103_3+0xda0>
    40c4:	eb843503          	ld	a0,-328(s0)
    40c8:	000015b7          	lui	a1,0x1
    40cc:	40b405b3          	sub	a1,s0,a1
    40d0:	7f85b603          	ld	a2,2040(a1) # 17f8 <.LBB103_4+0x5b4>
    40d4:	00a60533          	add	a0,a2,a0
    40d8:	000015b7          	lui	a1,0x1
    40dc:	40b405b3          	sub	a1,s0,a1
    40e0:	6f85b603          	ld	a2,1784(a1) # 16f8 <.LBB103_4+0x4b4>
    40e4:	40c5053b          	subw	a0,a0,a2
    40e8:	00e50533          	add	a0,a0,a4
    40ec:	8805051b          	addiw	a0,a0,-1920
    40f0:	40000637          	lui	a2,0x40000
    40f4:	000015b7          	lui	a1,0x1
    40f8:	40b405b3          	sub	a1,s0,a1
    40fc:	08a5b823          	sd	a0,144(a1) # 1090 <.LBB103_3+0xdb8>
    4100:	00055463          	bgez	a0,4108 <.LBB103_102>
    4104:	c0000637          	lui	a2,0xc0000

0000000000004108 <.LBB103_102>:
    4108:	00001537          	lui	a0,0x1
    410c:	40a40533          	sub	a0,s0,a0
    4110:	08c53423          	sd	a2,136(a0) # 1088 <.LBB103_3+0xdb0>
    4114:	ec043503          	ld	a0,-320(s0)
    4118:	80043603          	ld	a2,-2048(s0)
    411c:	00a60533          	add	a0,a2,a0
    4120:	000015b7          	lui	a1,0x1
    4124:	40b405b3          	sub	a1,s0,a1
    4128:	7005b603          	ld	a2,1792(a1) # 1700 <.LBB103_4+0x4bc>
    412c:	40c5053b          	subw	a0,a0,a2
    4130:	00e50533          	add	a0,a0,a4
    4134:	8805051b          	addiw	a0,a0,-1920
    4138:	40000637          	lui	a2,0x40000
    413c:	000015b7          	lui	a1,0x1
    4140:	40b405b3          	sub	a1,s0,a1
    4144:	0aa5b023          	sd	a0,160(a1) # 10a0 <.LBB103_3+0xdc8>
    4148:	00055463          	bgez	a0,4150 <.LBB103_104>
    414c:	c0000637          	lui	a2,0xc0000

0000000000004150 <.LBB103_104>:
    4150:	00001537          	lui	a0,0x1
    4154:	40a40533          	sub	a0,s0,a0
    4158:	08c53c23          	sd	a2,152(a0) # 1098 <.LBB103_3+0xdc0>
    415c:	ec843503          	ld	a0,-312(s0)
    4160:	80843603          	ld	a2,-2040(s0)
    4164:	00a60533          	add	a0,a2,a0
    4168:	000015b7          	lui	a1,0x1
    416c:	40b405b3          	sub	a1,s0,a1
    4170:	7085b603          	ld	a2,1800(a1) # 1708 <.LBB103_4+0x4c4>
    4174:	40c5053b          	subw	a0,a0,a2
    4178:	00e50533          	add	a0,a0,a4
    417c:	8805051b          	addiw	a0,a0,-1920
    4180:	40000637          	lui	a2,0x40000
    4184:	000015b7          	lui	a1,0x1
    4188:	40b405b3          	sub	a1,s0,a1
    418c:	0aa5b823          	sd	a0,176(a1) # 10b0 <.LBB103_3+0xdd8>
    4190:	00055463          	bgez	a0,4198 <.LBB103_106>
    4194:	c0000637          	lui	a2,0xc0000

0000000000004198 <.LBB103_106>:
    4198:	00001537          	lui	a0,0x1
    419c:	40a40533          	sub	a0,s0,a0
    41a0:	0ac53423          	sd	a2,168(a0) # 10a8 <.LBB103_3+0xdd0>
    41a4:	f2043503          	ld	a0,-224(s0)
    41a8:	81043603          	ld	a2,-2032(s0)
    41ac:	00a60533          	add	a0,a2,a0
    41b0:	000015b7          	lui	a1,0x1
    41b4:	40b405b3          	sub	a1,s0,a1
    41b8:	7105b603          	ld	a2,1808(a1) # 1710 <.LBB103_4+0x4cc>
    41bc:	40c5053b          	subw	a0,a0,a2
    41c0:	00e50533          	add	a0,a0,a4
    41c4:	8805051b          	addiw	a0,a0,-1920
    41c8:	40000637          	lui	a2,0x40000
    41cc:	000015b7          	lui	a1,0x1
    41d0:	40b405b3          	sub	a1,s0,a1
    41d4:	0ca5b023          	sd	a0,192(a1) # 10c0 <.LBB103_3+0xde8>
    41d8:	00055463          	bgez	a0,41e0 <.LBB103_108>
    41dc:	c0000637          	lui	a2,0xc0000

00000000000041e0 <.LBB103_108>:
    41e0:	00001537          	lui	a0,0x1
    41e4:	40a40533          	sub	a0,s0,a0
    41e8:	0ac53c23          	sd	a2,184(a0) # 10b8 <.LBB103_3+0xde0>
    41ec:	f2843503          	ld	a0,-216(s0)
    41f0:	81843603          	ld	a2,-2024(s0)
    41f4:	00a60533          	add	a0,a2,a0
    41f8:	000015b7          	lui	a1,0x1
    41fc:	40b405b3          	sub	a1,s0,a1
    4200:	7185b603          	ld	a2,1816(a1) # 1718 <.LBB103_4+0x4d4>
    4204:	40c5053b          	subw	a0,a0,a2
    4208:	00e50533          	add	a0,a0,a4
    420c:	8805051b          	addiw	a0,a0,-1920
    4210:	40000637          	lui	a2,0x40000
    4214:	000015b7          	lui	a1,0x1
    4218:	40b405b3          	sub	a1,s0,a1
    421c:	7ea5b423          	sd	a0,2024(a1) # 17e8 <.LBB103_4+0x5a4>
    4220:	00055463          	bgez	a0,4228 <.LBB103_110>
    4224:	c0000637          	lui	a2,0xc0000

0000000000004228 <.LBB103_110>:
    4228:	00001537          	lui	a0,0x1
    422c:	40a40533          	sub	a0,s0,a0
    4230:	0cc53423          	sd	a2,200(a0) # 10c8 <.LBB103_3+0xdf0>
    4234:	f3043503          	ld	a0,-208(s0)
    4238:	82043603          	ld	a2,-2016(s0)
    423c:	00a60533          	add	a0,a2,a0
    4240:	000015b7          	lui	a1,0x1
    4244:	40b405b3          	sub	a1,s0,a1
    4248:	7205b603          	ld	a2,1824(a1) # 1720 <.LBB103_4+0x4dc>
    424c:	40c5053b          	subw	a0,a0,a2
    4250:	00e50533          	add	a0,a0,a4
    4254:	8805051b          	addiw	a0,a0,-1920
    4258:	40000637          	lui	a2,0x40000
    425c:	000015b7          	lui	a1,0x1
    4260:	40b405b3          	sub	a1,s0,a1
    4264:	7aa5b423          	sd	a0,1960(a1) # 17a8 <.LBB103_4+0x564>
    4268:	00055463          	bgez	a0,4270 <.LBB103_112>
    426c:	c0000637          	lui	a2,0xc0000

0000000000004270 <.LBB103_112>:
    4270:	00001537          	lui	a0,0x1
    4274:	40a40533          	sub	a0,s0,a0
    4278:	0cc53823          	sd	a2,208(a0) # 10d0 <.LBB103_3+0xdf8>
    427c:	f3843503          	ld	a0,-200(s0)
    4280:	82843603          	ld	a2,-2008(s0)
    4284:	00a60533          	add	a0,a2,a0
    4288:	000015b7          	lui	a1,0x1
    428c:	40b405b3          	sub	a1,s0,a1
    4290:	7285b603          	ld	a2,1832(a1) # 1728 <.LBB103_4+0x4e4>
    4294:	40c5053b          	subw	a0,a0,a2
    4298:	00e50533          	add	a0,a0,a4
    429c:	8805051b          	addiw	a0,a0,-1920
    42a0:	40000637          	lui	a2,0x40000
    42a4:	000015b7          	lui	a1,0x1
    42a8:	40b405b3          	sub	a1,s0,a1
    42ac:	76a5bc23          	sd	a0,1912(a1) # 1778 <.LBB103_4+0x534>
    42b0:	00055463          	bgez	a0,42b8 <.LBB103_114>
    42b4:	c0000637          	lui	a2,0xc0000

00000000000042b8 <.LBB103_114>:
    42b8:	00001537          	lui	a0,0x1
    42bc:	40a40533          	sub	a0,s0,a0
    42c0:	0cc53c23          	sd	a2,216(a0) # 10d8 <.LBB103_3+0xe00>
    42c4:	f4043503          	ld	a0,-192(s0)
    42c8:	83043603          	ld	a2,-2000(s0)
    42cc:	00a60533          	add	a0,a2,a0
    42d0:	000015b7          	lui	a1,0x1
    42d4:	40b405b3          	sub	a1,s0,a1
    42d8:	7305b603          	ld	a2,1840(a1) # 1730 <.LBB103_4+0x4ec>
    42dc:	40c5053b          	subw	a0,a0,a2
    42e0:	00e50533          	add	a0,a0,a4
    42e4:	8805051b          	addiw	a0,a0,-1920
    42e8:	40000637          	lui	a2,0x40000
    42ec:	000015b7          	lui	a1,0x1
    42f0:	40b405b3          	sub	a1,s0,a1
    42f4:	0ea5b423          	sd	a0,232(a1) # 10e8 <.LBB103_3+0xe10>
    42f8:	00055463          	bgez	a0,4300 <.LBB103_116>
    42fc:	c0000637          	lui	a2,0xc0000

0000000000004300 <.LBB103_116>:
    4300:	00001537          	lui	a0,0x1
    4304:	40a40533          	sub	a0,s0,a0
    4308:	0ec53023          	sd	a2,224(a0) # 10e0 <.LBB103_3+0xe08>
    430c:	f4843503          	ld	a0,-184(s0)
    4310:	83843603          	ld	a2,-1992(s0)
    4314:	00a60533          	add	a0,a2,a0
    4318:	000015b7          	lui	a1,0x1
    431c:	40b405b3          	sub	a1,s0,a1
    4320:	7385b603          	ld	a2,1848(a1) # 1738 <.LBB103_4+0x4f4>
    4324:	40c5053b          	subw	a0,a0,a2
    4328:	00e50533          	add	a0,a0,a4
    432c:	8805051b          	addiw	a0,a0,-1920
    4330:	40000637          	lui	a2,0x40000
    4334:	000015b7          	lui	a1,0x1
    4338:	40b405b3          	sub	a1,s0,a1
    433c:	0ea5bc23          	sd	a0,248(a1) # 10f8 <.LBB103_3+0xe20>
    4340:	00055463          	bgez	a0,4348 <.LBB103_118>
    4344:	c0000637          	lui	a2,0xc0000

0000000000004348 <.LBB103_118>:
    4348:	00001537          	lui	a0,0x1
    434c:	40a40533          	sub	a0,s0,a0
    4350:	0ec53823          	sd	a2,240(a0) # 10f0 <.LBB103_3+0xe18>
    4354:	f5043503          	ld	a0,-176(s0)
    4358:	84043603          	ld	a2,-1984(s0)
    435c:	00a60533          	add	a0,a2,a0
    4360:	000015b7          	lui	a1,0x1
    4364:	40b405b3          	sub	a1,s0,a1
    4368:	7405b603          	ld	a2,1856(a1) # 1740 <.LBB103_4+0x4fc>
    436c:	40c5053b          	subw	a0,a0,a2
    4370:	00e50533          	add	a0,a0,a4
    4374:	8805051b          	addiw	a0,a0,-1920
    4378:	40000637          	lui	a2,0x40000
    437c:	000015b7          	lui	a1,0x1
    4380:	40b405b3          	sub	a1,s0,a1
    4384:	10a5b423          	sd	a0,264(a1) # 1108 <.LBB103_3+0xe30>
    4388:	00055463          	bgez	a0,4390 <.LBB103_120>
    438c:	c0000637          	lui	a2,0xc0000

0000000000004390 <.LBB103_120>:
    4390:	00001537          	lui	a0,0x1
    4394:	40a40533          	sub	a0,s0,a0
    4398:	10c53023          	sd	a2,256(a0) # 1100 <.LBB103_3+0xe28>
    439c:	f5843503          	ld	a0,-168(s0)
    43a0:	84843603          	ld	a2,-1976(s0)
    43a4:	00a60533          	add	a0,a2,a0
    43a8:	000015b7          	lui	a1,0x1
    43ac:	40b405b3          	sub	a1,s0,a1
    43b0:	7485b603          	ld	a2,1864(a1) # 1748 <.LBB103_4+0x504>
    43b4:	40c5053b          	subw	a0,a0,a2
    43b8:	00e50533          	add	a0,a0,a4
    43bc:	8805051b          	addiw	a0,a0,-1920
    43c0:	40000637          	lui	a2,0x40000
    43c4:	000015b7          	lui	a1,0x1
    43c8:	40b405b3          	sub	a1,s0,a1
    43cc:	10a5bc23          	sd	a0,280(a1) # 1118 <.LBB103_3+0xe40>
    43d0:	00055463          	bgez	a0,43d8 <.LBB103_122>
    43d4:	c0000637          	lui	a2,0xc0000

00000000000043d8 <.LBB103_122>:
    43d8:	00001537          	lui	a0,0x1
    43dc:	40a40533          	sub	a0,s0,a0
    43e0:	10c53823          	sd	a2,272(a0) # 1110 <.LBB103_3+0xe38>
    43e4:	f6043503          	ld	a0,-160(s0)
    43e8:	85043603          	ld	a2,-1968(s0)
    43ec:	00a60533          	add	a0,a2,a0
    43f0:	000015b7          	lui	a1,0x1
    43f4:	40b405b3          	sub	a1,s0,a1
    43f8:	7505b603          	ld	a2,1872(a1) # 1750 <.LBB103_4+0x50c>
    43fc:	40c5053b          	subw	a0,a0,a2
    4400:	00e50533          	add	a0,a0,a4
    4404:	8805051b          	addiw	a0,a0,-1920
    4408:	40000637          	lui	a2,0x40000
    440c:	000015b7          	lui	a1,0x1
    4410:	40b405b3          	sub	a1,s0,a1
    4414:	12a5b423          	sd	a0,296(a1) # 1128 <.LBB103_3+0xe50>
    4418:	00055463          	bgez	a0,4420 <.LBB103_124>
    441c:	c0000637          	lui	a2,0xc0000

0000000000004420 <.LBB103_124>:
    4420:	00001537          	lui	a0,0x1
    4424:	40a40533          	sub	a0,s0,a0
    4428:	12c53023          	sd	a2,288(a0) # 1120 <.LBB103_3+0xe48>
    442c:	f6843503          	ld	a0,-152(s0)
    4430:	85843603          	ld	a2,-1960(s0)
    4434:	00a60533          	add	a0,a2,a0
    4438:	000015b7          	lui	a1,0x1
    443c:	40b405b3          	sub	a1,s0,a1
    4440:	7585b603          	ld	a2,1880(a1) # 1758 <.LBB103_4+0x514>
    4444:	40c5053b          	subw	a0,a0,a2
    4448:	00e50533          	add	a0,a0,a4
    444c:	8805051b          	addiw	a0,a0,-1920
    4450:	40000637          	lui	a2,0x40000
    4454:	000015b7          	lui	a1,0x1
    4458:	40b405b3          	sub	a1,s0,a1
    445c:	12a5bc23          	sd	a0,312(a1) # 1138 <.LBB103_3+0xe60>
    4460:	00055463          	bgez	a0,4468 <.LBB103_126>
    4464:	c0000637          	lui	a2,0xc0000

0000000000004468 <.LBB103_126>:
    4468:	00001537          	lui	a0,0x1
    446c:	40a40533          	sub	a0,s0,a0
    4470:	12c53823          	sd	a2,304(a0) # 1130 <.LBB103_3+0xe58>
    4474:	f7043503          	ld	a0,-144(s0)
    4478:	86043603          	ld	a2,-1952(s0)
    447c:	00a60533          	add	a0,a2,a0
    4480:	000015b7          	lui	a1,0x1
    4484:	40b405b3          	sub	a1,s0,a1
    4488:	7605b603          	ld	a2,1888(a1) # 1760 <.LBB103_4+0x51c>
    448c:	40c5053b          	subw	a0,a0,a2
    4490:	00e50533          	add	a0,a0,a4
    4494:	8805051b          	addiw	a0,a0,-1920
    4498:	40000637          	lui	a2,0x40000
    449c:	000015b7          	lui	a1,0x1
    44a0:	40b405b3          	sub	a1,s0,a1
    44a4:	14a5b423          	sd	a0,328(a1) # 1148 <.LBB103_3+0xe70>
    44a8:	00055463          	bgez	a0,44b0 <.LBB103_128>
    44ac:	c0000637          	lui	a2,0xc0000

00000000000044b0 <.LBB103_128>:
    44b0:	00001537          	lui	a0,0x1
    44b4:	40a40533          	sub	a0,s0,a0
    44b8:	14c53023          	sd	a2,320(a0) # 1140 <.LBB103_3+0xe68>
    44bc:	f7843503          	ld	a0,-136(s0)
    44c0:	86843603          	ld	a2,-1944(s0)
    44c4:	00a60533          	add	a0,a2,a0
    44c8:	000015b7          	lui	a1,0x1
    44cc:	40b405b3          	sub	a1,s0,a1
    44d0:	7685b603          	ld	a2,1896(a1) # 1768 <.LBB103_4+0x524>
    44d4:	40c5053b          	subw	a0,a0,a2
    44d8:	00e50533          	add	a0,a0,a4
    44dc:	8805051b          	addiw	a0,a0,-1920
    44e0:	40000637          	lui	a2,0x40000
    44e4:	000015b7          	lui	a1,0x1
    44e8:	40b405b3          	sub	a1,s0,a1
    44ec:	14a5bc23          	sd	a0,344(a1) # 1158 <.LBB103_3+0xe80>
    44f0:	00055463          	bgez	a0,44f8 <.LBB103_130>
    44f4:	c0000637          	lui	a2,0xc0000

00000000000044f8 <.LBB103_130>:
    44f8:	00001537          	lui	a0,0x1
    44fc:	40a40533          	sub	a0,s0,a0
    4500:	14c53823          	sd	a2,336(a0) # 1150 <.LBB103_3+0xe78>
    4504:	f8043503          	ld	a0,-128(s0)
    4508:	87043603          	ld	a2,-1936(s0)
    450c:	00a60533          	add	a0,a2,a0
    4510:	000015b7          	lui	a1,0x1
    4514:	40b405b3          	sub	a1,s0,a1
    4518:	7705b603          	ld	a2,1904(a1) # 1770 <.LBB103_4+0x52c>
    451c:	40c5053b          	subw	a0,a0,a2
    4520:	00e50533          	add	a0,a0,a4
    4524:	8805051b          	addiw	a0,a0,-1920
    4528:	40000637          	lui	a2,0x40000
    452c:	000015b7          	lui	a1,0x1
    4530:	40b405b3          	sub	a1,s0,a1
    4534:	16a5b423          	sd	a0,360(a1) # 1168 <.LBB103_3+0xe90>
    4538:	00055463          	bgez	a0,4540 <.LBB103_132>
    453c:	c0000637          	lui	a2,0xc0000

0000000000004540 <.LBB103_132>:
    4540:	00001537          	lui	a0,0x1
    4544:	40a40533          	sub	a0,s0,a0
    4548:	16c53023          	sd	a2,352(a0) # 1160 <.LBB103_3+0xe88>
    454c:	f8843503          	ld	a0,-120(s0)
    4550:	00a90533          	add	a0,s2,a0
    4554:	4145053b          	subw	a0,a0,s4
    4558:	00e50533          	add	a0,a0,a4
    455c:	8805051b          	addiw	a0,a0,-1920
    4560:	40000637          	lui	a2,0x40000
    4564:	000015b7          	lui	a1,0x1
    4568:	40b405b3          	sub	a1,s0,a1
    456c:	18a5b023          	sd	a0,384(a1) # 1180 <.LBB103_3+0xea8>
    4570:	00055463          	bgez	a0,4578 <.LBB103_134>
    4574:	c0000637          	lui	a2,0xc0000

0000000000004578 <.LBB103_134>:
    4578:	00001537          	lui	a0,0x1
    457c:	40a40533          	sub	a0,s0,a0
    4580:	16c53823          	sd	a2,368(a0) # 1170 <.LBB103_3+0xe98>
    4584:	00001537          	lui	a0,0x1
    4588:	40a40533          	sub	a0,s0,a0
    458c:	67853583          	ld	a1,1656(a0) # 1678 <.LBB103_4+0x434>
    4590:	00159513          	slli	a0,a1,0x1
    4594:	e8843603          	ld	a2,-376(s0)
    4598:	00c88633          	add	a2,a7,a2
    459c:	00b505b3          	add	a1,a0,a1
    45a0:	e8043503          	ld	a0,-384(s0)
    45a4:	40a6053b          	subw	a0,a2,a0
    45a8:	00b50533          	add	a0,a0,a1
    45ac:	8805051b          	addiw	a0,a0,-1920
    45b0:	40000637          	lui	a2,0x40000
    45b4:	e1843903          	ld	s2,-488(s0)
    45b8:	b1843703          	ld	a4,-1256(s0)
    45bc:	000018b7          	lui	a7,0x1
    45c0:	411408b3          	sub	a7,s0,a7
    45c4:	18a8b423          	sd	a0,392(a7) # 1188 <.LBB103_3+0xeb0>
    45c8:	00055463          	bgez	a0,45d0 <.LBB103_136>
    45cc:	c0000637          	lui	a2,0xc0000

00000000000045d0 <.LBB103_136>:
    45d0:	00001537          	lui	a0,0x1
    45d4:	40a40533          	sub	a0,s0,a0
    45d8:	16c53c23          	sd	a2,376(a0) # 1178 <.LBB103_3+0xea0>
    45dc:	e7843503          	ld	a0,-392(s0)
    45e0:	88843603          	ld	a2,-1912(s0)
    45e4:	00a60533          	add	a0,a2,a0
    45e8:	e7043603          	ld	a2,-400(s0)
    45ec:	40c5053b          	subw	a0,a0,a2
    45f0:	00b50533          	add	a0,a0,a1
    45f4:	8805051b          	addiw	a0,a0,-1920
    45f8:	40000637          	lui	a2,0x40000
    45fc:	000018b7          	lui	a7,0x1
    4600:	411408b3          	sub	a7,s0,a7
    4604:	18a8bc23          	sd	a0,408(a7) # 1198 <.LBB103_3+0xec0>
    4608:	00055463          	bgez	a0,4610 <.LBB103_138>
    460c:	c0000637          	lui	a2,0xc0000

0000000000004610 <.LBB103_138>:
    4610:	00001537          	lui	a0,0x1
    4614:	40a40533          	sub	a0,s0,a0
    4618:	18c53823          	sd	a2,400(a0) # 1190 <.LBB103_3+0xeb8>
    461c:	e6843503          	ld	a0,-408(s0)
    4620:	89043603          	ld	a2,-1904(s0)
    4624:	00a60533          	add	a0,a2,a0
    4628:	e6043603          	ld	a2,-416(s0)
    462c:	40c5053b          	subw	a0,a0,a2
    4630:	00b50533          	add	a0,a0,a1
    4634:	8805051b          	addiw	a0,a0,-1920
    4638:	40000637          	lui	a2,0x40000
    463c:	000018b7          	lui	a7,0x1
    4640:	411408b3          	sub	a7,s0,a7
    4644:	1aa8b423          	sd	a0,424(a7) # 11a8 <.LBB103_3+0xed0>
    4648:	00055463          	bgez	a0,4650 <.LBB103_140>
    464c:	c0000637          	lui	a2,0xc0000

0000000000004650 <.LBB103_140>:
    4650:	00001537          	lui	a0,0x1
    4654:	40a40533          	sub	a0,s0,a0
    4658:	1ac53023          	sd	a2,416(a0) # 11a0 <.LBB103_3+0xec8>
    465c:	e5843503          	ld	a0,-424(s0)
    4660:	89843603          	ld	a2,-1896(s0)
    4664:	00a60533          	add	a0,a2,a0
    4668:	e5043603          	ld	a2,-432(s0)
    466c:	40c5053b          	subw	a0,a0,a2
    4670:	00b50533          	add	a0,a0,a1
    4674:	8805051b          	addiw	a0,a0,-1920
    4678:	40000637          	lui	a2,0x40000
    467c:	000018b7          	lui	a7,0x1
    4680:	411408b3          	sub	a7,s0,a7
    4684:	1aa8bc23          	sd	a0,440(a7) # 11b8 <.LBB103_3+0xee0>
    4688:	00055463          	bgez	a0,4690 <.LBB103_142>
    468c:	c0000637          	lui	a2,0xc0000

0000000000004690 <.LBB103_142>:
    4690:	00001537          	lui	a0,0x1
    4694:	40a40533          	sub	a0,s0,a0
    4698:	1ac53823          	sd	a2,432(a0) # 11b0 <.LBB103_3+0xed8>
    469c:	e4843503          	ld	a0,-440(s0)
    46a0:	8a043603          	ld	a2,-1888(s0)
    46a4:	00a60533          	add	a0,a2,a0
    46a8:	e4043603          	ld	a2,-448(s0)
    46ac:	40c5053b          	subw	a0,a0,a2
    46b0:	00b50533          	add	a0,a0,a1
    46b4:	8805051b          	addiw	a0,a0,-1920
    46b8:	40000637          	lui	a2,0x40000
    46bc:	000018b7          	lui	a7,0x1
    46c0:	411408b3          	sub	a7,s0,a7
    46c4:	1ca8b423          	sd	a0,456(a7) # 11c8 <.LBB103_3+0xef0>
    46c8:	00055463          	bgez	a0,46d0 <.LBB103_144>
    46cc:	c0000637          	lui	a2,0xc0000

00000000000046d0 <.LBB103_144>:
    46d0:	00001537          	lui	a0,0x1
    46d4:	40a40533          	sub	a0,s0,a0
    46d8:	1cc53023          	sd	a2,448(a0) # 11c0 <.LBB103_3+0xee8>
    46dc:	e3843503          	ld	a0,-456(s0)
    46e0:	8a843603          	ld	a2,-1880(s0)
    46e4:	00a60533          	add	a0,a2,a0
    46e8:	e3043603          	ld	a2,-464(s0)
    46ec:	40c5053b          	subw	a0,a0,a2
    46f0:	00b50533          	add	a0,a0,a1
    46f4:	8805051b          	addiw	a0,a0,-1920
    46f8:	40000637          	lui	a2,0x40000
    46fc:	000018b7          	lui	a7,0x1
    4700:	411408b3          	sub	a7,s0,a7
    4704:	1ca8bc23          	sd	a0,472(a7) # 11d8 <.LBB103_3+0xf00>
    4708:	00055463          	bgez	a0,4710 <.LBB103_146>
    470c:	c0000637          	lui	a2,0xc0000

0000000000004710 <.LBB103_146>:
    4710:	00001537          	lui	a0,0x1
    4714:	40a40533          	sub	a0,s0,a0
    4718:	1cc53823          	sd	a2,464(a0) # 11d0 <.LBB103_3+0xef8>
    471c:	00001537          	lui	a0,0x1
    4720:	40a40533          	sub	a0,s0,a0
    4724:	6c053503          	ld	a0,1728(a0) # 16c0 <.LBB103_4+0x47c>
    4728:	8b043603          	ld	a2,-1872(s0)
    472c:	00a60533          	add	a0,a2,a0
    4730:	00001637          	lui	a2,0x1
    4734:	40c40633          	sub	a2,s0,a2
    4738:	6b863603          	ld	a2,1720(a2) # 16b8 <.LBB103_4+0x474>
    473c:	40c5053b          	subw	a0,a0,a2
    4740:	00b50533          	add	a0,a0,a1
    4744:	8805051b          	addiw	a0,a0,-1920
    4748:	40000637          	lui	a2,0x40000
    474c:	000018b7          	lui	a7,0x1
    4750:	411408b3          	sub	a7,s0,a7
    4754:	1ea8b423          	sd	a0,488(a7) # 11e8 <.LBB103_3+0xf10>
    4758:	00055463          	bgez	a0,4760 <.LBB103_148>
    475c:	c0000637          	lui	a2,0xc0000

0000000000004760 <.LBB103_148>:
    4760:	00001537          	lui	a0,0x1
    4764:	40a40533          	sub	a0,s0,a0
    4768:	1ec53023          	sd	a2,480(a0) # 11e0 <.LBB103_3+0xf08>
    476c:	00001537          	lui	a0,0x1
    4770:	40a40533          	sub	a0,s0,a0
    4774:	6b053503          	ld	a0,1712(a0) # 16b0 <.LBB103_4+0x46c>
    4778:	8b843603          	ld	a2,-1864(s0)
    477c:	00a60533          	add	a0,a2,a0
    4780:	00001637          	lui	a2,0x1
    4784:	40c40633          	sub	a2,s0,a2
    4788:	6a863603          	ld	a2,1704(a2) # 16a8 <.LBB103_4+0x464>
    478c:	40c5053b          	subw	a0,a0,a2
    4790:	00b50533          	add	a0,a0,a1
    4794:	8805051b          	addiw	a0,a0,-1920
    4798:	40000637          	lui	a2,0x40000
    479c:	000018b7          	lui	a7,0x1
    47a0:	411408b3          	sub	a7,s0,a7
    47a4:	1ea8bc23          	sd	a0,504(a7) # 11f8 <.LBB103_3+0xf20>
    47a8:	00055463          	bgez	a0,47b0 <.LBB103_150>
    47ac:	c0000637          	lui	a2,0xc0000

00000000000047b0 <.LBB103_150>:
    47b0:	00001537          	lui	a0,0x1
    47b4:	40a40533          	sub	a0,s0,a0
    47b8:	1ec53823          	sd	a2,496(a0) # 11f0 <.LBB103_3+0xf18>
    47bc:	8c043503          	ld	a0,-1856(s0)
    47c0:	00001637          	lui	a2,0x1
    47c4:	40c40633          	sub	a2,s0,a2
    47c8:	6a063603          	ld	a2,1696(a2) # 16a0 <.LBB103_4+0x45c>
    47cc:	00c50533          	add	a0,a0,a2
    47d0:	00001637          	lui	a2,0x1
    47d4:	40c40633          	sub	a2,s0,a2
    47d8:	69863603          	ld	a2,1688(a2) # 1698 <.LBB103_4+0x454>
    47dc:	40c5053b          	subw	a0,a0,a2
    47e0:	00b50533          	add	a0,a0,a1
    47e4:	8805051b          	addiw	a0,a0,-1920
    47e8:	40000637          	lui	a2,0x40000
    47ec:	000018b7          	lui	a7,0x1
    47f0:	411408b3          	sub	a7,s0,a7
    47f4:	20a8b423          	sd	a0,520(a7) # 1208 <.LBB103_3+0xf30>
    47f8:	00055463          	bgez	a0,4800 <.LBB103_152>
    47fc:	c0000637          	lui	a2,0xc0000

0000000000004800 <.LBB103_152>:
    4800:	00001537          	lui	a0,0x1
    4804:	40a40533          	sub	a0,s0,a0
    4808:	20c53023          	sd	a2,512(a0) # 1200 <.LBB103_3+0xf28>
    480c:	8c843503          	ld	a0,-1848(s0)
    4810:	00001637          	lui	a2,0x1
    4814:	40c40633          	sub	a2,s0,a2
    4818:	69063603          	ld	a2,1680(a2) # 1690 <.LBB103_4+0x44c>
    481c:	00c50533          	add	a0,a0,a2
    4820:	00001637          	lui	a2,0x1
    4824:	40c40633          	sub	a2,s0,a2
    4828:	6c863603          	ld	a2,1736(a2) # 16c8 <.LBB103_4+0x484>
    482c:	40c5053b          	subw	a0,a0,a2
    4830:	00b50533          	add	a0,a0,a1
    4834:	8805051b          	addiw	a0,a0,-1920
    4838:	40000637          	lui	a2,0x40000
    483c:	000018b7          	lui	a7,0x1
    4840:	411408b3          	sub	a7,s0,a7
    4844:	20a8bc23          	sd	a0,536(a7) # 1218 <.LBB103_3+0xf40>
    4848:	00055463          	bgez	a0,4850 <.LBB103_154>
    484c:	c0000637          	lui	a2,0xc0000

0000000000004850 <.LBB103_154>:
    4850:	00001537          	lui	a0,0x1
    4854:	40a40533          	sub	a0,s0,a0
    4858:	20c53823          	sd	a2,528(a0) # 1210 <.LBB103_3+0xf38>
    485c:	8d043503          	ld	a0,-1840(s0)
    4860:	e9043603          	ld	a2,-368(s0)
    4864:	00c50533          	add	a0,a0,a2
    4868:	00001637          	lui	a2,0x1
    486c:	40c40633          	sub	a2,s0,a2
    4870:	6d063603          	ld	a2,1744(a2) # 16d0 <.LBB103_4+0x48c>
    4874:	40c5053b          	subw	a0,a0,a2
    4878:	00b50533          	add	a0,a0,a1
    487c:	8805051b          	addiw	a0,a0,-1920
    4880:	40000637          	lui	a2,0x40000
    4884:	000018b7          	lui	a7,0x1
    4888:	411408b3          	sub	a7,s0,a7
    488c:	22a8b423          	sd	a0,552(a7) # 1228 <.LBB103_3+0xf50>
    4890:	00055463          	bgez	a0,4898 <.LBB103_156>
    4894:	c0000637          	lui	a2,0xc0000

0000000000004898 <.LBB103_156>:
    4898:	00001537          	lui	a0,0x1
    489c:	40a40533          	sub	a0,s0,a0
    48a0:	22c53023          	sd	a2,544(a0) # 1220 <.LBB103_3+0xf48>
    48a4:	8d843503          	ld	a0,-1832(s0)
    48a8:	e9843603          	ld	a2,-360(s0)
    48ac:	00c50533          	add	a0,a0,a2
    48b0:	00001637          	lui	a2,0x1
    48b4:	40c40633          	sub	a2,s0,a2
    48b8:	6d863603          	ld	a2,1752(a2) # 16d8 <.LBB103_4+0x494>
    48bc:	40c5053b          	subw	a0,a0,a2
    48c0:	00b50533          	add	a0,a0,a1
    48c4:	8805051b          	addiw	a0,a0,-1920
    48c8:	40000637          	lui	a2,0x40000
    48cc:	000018b7          	lui	a7,0x1
    48d0:	411408b3          	sub	a7,s0,a7
    48d4:	22a8bc23          	sd	a0,568(a7) # 1238 <.LBB103_3+0xf60>
    48d8:	00055463          	bgez	a0,48e0 <.LBB103_158>
    48dc:	c0000637          	lui	a2,0xc0000

00000000000048e0 <.LBB103_158>:
    48e0:	00001537          	lui	a0,0x1
    48e4:	40a40533          	sub	a0,s0,a0
    48e8:	22c53823          	sd	a2,560(a0) # 1230 <.LBB103_3+0xf58>
    48ec:	8e043503          	ld	a0,-1824(s0)
    48f0:	ea043603          	ld	a2,-352(s0)
    48f4:	00c50533          	add	a0,a0,a2
    48f8:	41b5053b          	subw	a0,a0,s11
    48fc:	00b50533          	add	a0,a0,a1
    4900:	8805051b          	addiw	a0,a0,-1920
    4904:	40000637          	lui	a2,0x40000
    4908:	000018b7          	lui	a7,0x1
    490c:	411408b3          	sub	a7,s0,a7
    4910:	24a8b423          	sd	a0,584(a7) # 1248 <.LBB103_4+0x4>
    4914:	00055463          	bgez	a0,491c <.LBB103_160>
    4918:	c0000637          	lui	a2,0xc0000

000000000000491c <.LBB103_160>:
    491c:	00001537          	lui	a0,0x1
    4920:	40a40533          	sub	a0,s0,a0
    4924:	24c53023          	sd	a2,576(a0) # 1240 <.LBB103_3+0xf68>
    4928:	8e843503          	ld	a0,-1816(s0)
    492c:	ea843603          	ld	a2,-344(s0)
    4930:	00c50533          	add	a0,a0,a2
    4934:	41a5053b          	subw	a0,a0,s10
    4938:	00b50533          	add	a0,a0,a1
    493c:	8805051b          	addiw	a0,a0,-1920
    4940:	40000637          	lui	a2,0x40000
    4944:	000018b7          	lui	a7,0x1
    4948:	411408b3          	sub	a7,s0,a7
    494c:	24a8bc23          	sd	a0,600(a7) # 1258 <.LBB103_4+0x14>
    4950:	00055463          	bgez	a0,4958 <.LBB103_162>
    4954:	c0000637          	lui	a2,0xc0000

0000000000004958 <.LBB103_162>:
    4958:	00001537          	lui	a0,0x1
    495c:	40a40533          	sub	a0,s0,a0
    4960:	24c53823          	sd	a2,592(a0) # 1250 <.LBB103_4+0xc>
    4964:	8f043503          	ld	a0,-1808(s0)
    4968:	eb043603          	ld	a2,-336(s0)
    496c:	00c50533          	add	a0,a0,a2
    4970:	00001637          	lui	a2,0x1
    4974:	40c40633          	sub	a2,s0,a2
    4978:	6f063603          	ld	a2,1776(a2) # 16f0 <.LBB103_4+0x4ac>
    497c:	40c5053b          	subw	a0,a0,a2
    4980:	00b50533          	add	a0,a0,a1
    4984:	8805051b          	addiw	a0,a0,-1920
    4988:	40000637          	lui	a2,0x40000
    498c:	000018b7          	lui	a7,0x1
    4990:	411408b3          	sub	a7,s0,a7
    4994:	26a8b423          	sd	a0,616(a7) # 1268 <.LBB103_4+0x24>
    4998:	00055463          	bgez	a0,49a0 <.LBB103_164>
    499c:	c0000637          	lui	a2,0xc0000

00000000000049a0 <.LBB103_164>:
    49a0:	00001537          	lui	a0,0x1
    49a4:	40a40533          	sub	a0,s0,a0
    49a8:	26c53023          	sd	a2,608(a0) # 1260 <.LBB103_4+0x1c>
    49ac:	8f843503          	ld	a0,-1800(s0)
    49b0:	eb843603          	ld	a2,-328(s0)
    49b4:	00c50533          	add	a0,a0,a2
    49b8:	00001637          	lui	a2,0x1
    49bc:	40c40633          	sub	a2,s0,a2
    49c0:	6f863603          	ld	a2,1784(a2) # 16f8 <.LBB103_4+0x4b4>
    49c4:	40c5053b          	subw	a0,a0,a2
    49c8:	00b50533          	add	a0,a0,a1
    49cc:	8805051b          	addiw	a0,a0,-1920
    49d0:	40000637          	lui	a2,0x40000
    49d4:	000018b7          	lui	a7,0x1
    49d8:	411408b3          	sub	a7,s0,a7
    49dc:	26a8bc23          	sd	a0,632(a7) # 1278 <.LBB103_4+0x34>
    49e0:	00055463          	bgez	a0,49e8 <.LBB103_166>
    49e4:	c0000637          	lui	a2,0xc0000

00000000000049e8 <.LBB103_166>:
    49e8:	00001537          	lui	a0,0x1
    49ec:	40a40533          	sub	a0,s0,a0
    49f0:	26c53823          	sd	a2,624(a0) # 1270 <.LBB103_4+0x2c>
    49f4:	90043503          	ld	a0,-1792(s0)
    49f8:	ec043603          	ld	a2,-320(s0)
    49fc:	00c50533          	add	a0,a0,a2
    4a00:	00001637          	lui	a2,0x1
    4a04:	40c40633          	sub	a2,s0,a2
    4a08:	70063603          	ld	a2,1792(a2) # 1700 <.LBB103_4+0x4bc>
    4a0c:	40c5053b          	subw	a0,a0,a2
    4a10:	00b50533          	add	a0,a0,a1
    4a14:	8805051b          	addiw	a0,a0,-1920
    4a18:	40000637          	lui	a2,0x40000
    4a1c:	000018b7          	lui	a7,0x1
    4a20:	411408b3          	sub	a7,s0,a7
    4a24:	28a8b423          	sd	a0,648(a7) # 1288 <.LBB103_4+0x44>
    4a28:	00055463          	bgez	a0,4a30 <.LBB103_168>
    4a2c:	c0000637          	lui	a2,0xc0000

0000000000004a30 <.LBB103_168>:
    4a30:	00001537          	lui	a0,0x1
    4a34:	40a40533          	sub	a0,s0,a0
    4a38:	28c53023          	sd	a2,640(a0) # 1280 <.LBB103_4+0x3c>
    4a3c:	90843503          	ld	a0,-1784(s0)
    4a40:	ec843603          	ld	a2,-312(s0)
    4a44:	00c50533          	add	a0,a0,a2
    4a48:	00001637          	lui	a2,0x1
    4a4c:	40c40633          	sub	a2,s0,a2
    4a50:	70863603          	ld	a2,1800(a2) # 1708 <.LBB103_4+0x4c4>
    4a54:	40c5053b          	subw	a0,a0,a2
    4a58:	00b50533          	add	a0,a0,a1
    4a5c:	8805051b          	addiw	a0,a0,-1920
    4a60:	40000637          	lui	a2,0x40000
    4a64:	000018b7          	lui	a7,0x1
    4a68:	411408b3          	sub	a7,s0,a7
    4a6c:	28a8bc23          	sd	a0,664(a7) # 1298 <.LBB103_4+0x54>
    4a70:	00055463          	bgez	a0,4a78 <.LBB103_170>
    4a74:	c0000637          	lui	a2,0xc0000

0000000000004a78 <.LBB103_170>:
    4a78:	00001537          	lui	a0,0x1
    4a7c:	40a40533          	sub	a0,s0,a0
    4a80:	28c53823          	sd	a2,656(a0) # 1290 <.LBB103_4+0x4c>
    4a84:	91043503          	ld	a0,-1776(s0)
    4a88:	f2043603          	ld	a2,-224(s0)
    4a8c:	00c50533          	add	a0,a0,a2
    4a90:	00001637          	lui	a2,0x1
    4a94:	40c40633          	sub	a2,s0,a2
    4a98:	71063603          	ld	a2,1808(a2) # 1710 <.LBB103_4+0x4cc>
    4a9c:	40c5053b          	subw	a0,a0,a2
    4aa0:	00b50533          	add	a0,a0,a1
    4aa4:	8805051b          	addiw	a0,a0,-1920
    4aa8:	40000637          	lui	a2,0x40000
    4aac:	000018b7          	lui	a7,0x1
    4ab0:	411408b3          	sub	a7,s0,a7
    4ab4:	2aa8b423          	sd	a0,680(a7) # 12a8 <.LBB103_4+0x64>
    4ab8:	00055463          	bgez	a0,4ac0 <.LBB103_172>
    4abc:	c0000637          	lui	a2,0xc0000

0000000000004ac0 <.LBB103_172>:
    4ac0:	00001537          	lui	a0,0x1
    4ac4:	40a40533          	sub	a0,s0,a0
    4ac8:	2ac53023          	sd	a2,672(a0) # 12a0 <.LBB103_4+0x5c>
    4acc:	91843503          	ld	a0,-1768(s0)
    4ad0:	f2843603          	ld	a2,-216(s0)
    4ad4:	00c50533          	add	a0,a0,a2
    4ad8:	00001637          	lui	a2,0x1
    4adc:	40c40633          	sub	a2,s0,a2
    4ae0:	71863603          	ld	a2,1816(a2) # 1718 <.LBB103_4+0x4d4>
    4ae4:	40c5053b          	subw	a0,a0,a2
    4ae8:	00b50533          	add	a0,a0,a1
    4aec:	8805051b          	addiw	a0,a0,-1920
    4af0:	40000637          	lui	a2,0x40000
    4af4:	000018b7          	lui	a7,0x1
    4af8:	411408b3          	sub	a7,s0,a7
    4afc:	2aa8bc23          	sd	a0,696(a7) # 12b8 <.LBB103_4+0x74>
    4b00:	00055463          	bgez	a0,4b08 <.LBB103_174>
    4b04:	c0000637          	lui	a2,0xc0000

0000000000004b08 <.LBB103_174>:
    4b08:	00001537          	lui	a0,0x1
    4b0c:	40a40533          	sub	a0,s0,a0
    4b10:	2ac53823          	sd	a2,688(a0) # 12b0 <.LBB103_4+0x6c>
    4b14:	92043503          	ld	a0,-1760(s0)
    4b18:	f3043603          	ld	a2,-208(s0)
    4b1c:	00c50533          	add	a0,a0,a2
    4b20:	00001637          	lui	a2,0x1
    4b24:	40c40633          	sub	a2,s0,a2
    4b28:	72063603          	ld	a2,1824(a2) # 1720 <.LBB103_4+0x4dc>
    4b2c:	40c5053b          	subw	a0,a0,a2
    4b30:	00b50533          	add	a0,a0,a1
    4b34:	8805051b          	addiw	a0,a0,-1920
    4b38:	40000637          	lui	a2,0x40000
    4b3c:	000018b7          	lui	a7,0x1
    4b40:	411408b3          	sub	a7,s0,a7
    4b44:	2ca8b423          	sd	a0,712(a7) # 12c8 <.LBB103_4+0x84>
    4b48:	00055463          	bgez	a0,4b50 <.LBB103_176>
    4b4c:	c0000637          	lui	a2,0xc0000

0000000000004b50 <.LBB103_176>:
    4b50:	00001537          	lui	a0,0x1
    4b54:	40a40533          	sub	a0,s0,a0
    4b58:	2cc53023          	sd	a2,704(a0) # 12c0 <.LBB103_4+0x7c>
    4b5c:	92843503          	ld	a0,-1752(s0)
    4b60:	f3843603          	ld	a2,-200(s0)
    4b64:	00c50533          	add	a0,a0,a2
    4b68:	00001637          	lui	a2,0x1
    4b6c:	40c40633          	sub	a2,s0,a2
    4b70:	72863603          	ld	a2,1832(a2) # 1728 <.LBB103_4+0x4e4>
    4b74:	40c5053b          	subw	a0,a0,a2
    4b78:	00b50533          	add	a0,a0,a1
    4b7c:	8805051b          	addiw	a0,a0,-1920
    4b80:	40000637          	lui	a2,0x40000
    4b84:	000018b7          	lui	a7,0x1
    4b88:	411408b3          	sub	a7,s0,a7
    4b8c:	2ca8bc23          	sd	a0,728(a7) # 12d8 <.LBB103_4+0x94>
    4b90:	00055463          	bgez	a0,4b98 <.LBB103_178>
    4b94:	c0000637          	lui	a2,0xc0000

0000000000004b98 <.LBB103_178>:
    4b98:	00001537          	lui	a0,0x1
    4b9c:	40a40533          	sub	a0,s0,a0
    4ba0:	2cc53823          	sd	a2,720(a0) # 12d0 <.LBB103_4+0x8c>
    4ba4:	93043503          	ld	a0,-1744(s0)
    4ba8:	f4043603          	ld	a2,-192(s0)
    4bac:	00c50533          	add	a0,a0,a2
    4bb0:	00001637          	lui	a2,0x1
    4bb4:	40c40633          	sub	a2,s0,a2
    4bb8:	73063603          	ld	a2,1840(a2) # 1730 <.LBB103_4+0x4ec>
    4bbc:	40c5053b          	subw	a0,a0,a2
    4bc0:	00b50533          	add	a0,a0,a1
    4bc4:	8805051b          	addiw	a0,a0,-1920
    4bc8:	40000637          	lui	a2,0x40000
    4bcc:	000018b7          	lui	a7,0x1
    4bd0:	411408b3          	sub	a7,s0,a7
    4bd4:	2ea8b423          	sd	a0,744(a7) # 12e8 <.LBB103_4+0xa4>
    4bd8:	00055463          	bgez	a0,4be0 <.LBB103_180>
    4bdc:	c0000637          	lui	a2,0xc0000

0000000000004be0 <.LBB103_180>:
    4be0:	00001537          	lui	a0,0x1
    4be4:	40a40533          	sub	a0,s0,a0
    4be8:	2ec53023          	sd	a2,736(a0) # 12e0 <.LBB103_4+0x9c>
    4bec:	93843503          	ld	a0,-1736(s0)
    4bf0:	f4843603          	ld	a2,-184(s0)
    4bf4:	00c50533          	add	a0,a0,a2
    4bf8:	00001637          	lui	a2,0x1
    4bfc:	40c40633          	sub	a2,s0,a2
    4c00:	73863603          	ld	a2,1848(a2) # 1738 <.LBB103_4+0x4f4>
    4c04:	40c5053b          	subw	a0,a0,a2
    4c08:	00b50533          	add	a0,a0,a1
    4c0c:	8805051b          	addiw	a0,a0,-1920
    4c10:	40000637          	lui	a2,0x40000
    4c14:	000018b7          	lui	a7,0x1
    4c18:	411408b3          	sub	a7,s0,a7
    4c1c:	2ea8bc23          	sd	a0,760(a7) # 12f8 <.LBB103_4+0xb4>
    4c20:	00055463          	bgez	a0,4c28 <.LBB103_182>
    4c24:	c0000637          	lui	a2,0xc0000

0000000000004c28 <.LBB103_182>:
    4c28:	00001537          	lui	a0,0x1
    4c2c:	40a40533          	sub	a0,s0,a0
    4c30:	2ec53823          	sd	a2,752(a0) # 12f0 <.LBB103_4+0xac>
    4c34:	94043503          	ld	a0,-1728(s0)
    4c38:	f5043603          	ld	a2,-176(s0)
    4c3c:	00c50533          	add	a0,a0,a2
    4c40:	00001637          	lui	a2,0x1
    4c44:	40c40633          	sub	a2,s0,a2
    4c48:	74063603          	ld	a2,1856(a2) # 1740 <.LBB103_4+0x4fc>
    4c4c:	40c5053b          	subw	a0,a0,a2
    4c50:	00b50533          	add	a0,a0,a1
    4c54:	8805051b          	addiw	a0,a0,-1920
    4c58:	40000637          	lui	a2,0x40000
    4c5c:	000018b7          	lui	a7,0x1
    4c60:	411408b3          	sub	a7,s0,a7
    4c64:	30a8b423          	sd	a0,776(a7) # 1308 <.LBB103_4+0xc4>
    4c68:	00055463          	bgez	a0,4c70 <.LBB103_184>
    4c6c:	c0000637          	lui	a2,0xc0000

0000000000004c70 <.LBB103_184>:
    4c70:	00001537          	lui	a0,0x1
    4c74:	40a40533          	sub	a0,s0,a0
    4c78:	30c53023          	sd	a2,768(a0) # 1300 <.LBB103_4+0xbc>
    4c7c:	94843503          	ld	a0,-1720(s0)
    4c80:	f5843603          	ld	a2,-168(s0)
    4c84:	00c50533          	add	a0,a0,a2
    4c88:	00001637          	lui	a2,0x1
    4c8c:	40c40633          	sub	a2,s0,a2
    4c90:	74863603          	ld	a2,1864(a2) # 1748 <.LBB103_4+0x504>
    4c94:	40c5053b          	subw	a0,a0,a2
    4c98:	00b50533          	add	a0,a0,a1
    4c9c:	8805051b          	addiw	a0,a0,-1920
    4ca0:	40000637          	lui	a2,0x40000
    4ca4:	000018b7          	lui	a7,0x1
    4ca8:	411408b3          	sub	a7,s0,a7
    4cac:	30a8bc23          	sd	a0,792(a7) # 1318 <.LBB103_4+0xd4>
    4cb0:	00055463          	bgez	a0,4cb8 <.LBB103_186>
    4cb4:	c0000637          	lui	a2,0xc0000

0000000000004cb8 <.LBB103_186>:
    4cb8:	00001537          	lui	a0,0x1
    4cbc:	40a40533          	sub	a0,s0,a0
    4cc0:	30c53823          	sd	a2,784(a0) # 1310 <.LBB103_4+0xcc>
    4cc4:	95043503          	ld	a0,-1712(s0)
    4cc8:	f6043603          	ld	a2,-160(s0)
    4ccc:	00c50533          	add	a0,a0,a2
    4cd0:	00001637          	lui	a2,0x1
    4cd4:	40c40633          	sub	a2,s0,a2
    4cd8:	75063603          	ld	a2,1872(a2) # 1750 <.LBB103_4+0x50c>
    4cdc:	40c5053b          	subw	a0,a0,a2
    4ce0:	00b50533          	add	a0,a0,a1
    4ce4:	8805051b          	addiw	a0,a0,-1920
    4ce8:	40000637          	lui	a2,0x40000
    4cec:	000018b7          	lui	a7,0x1
    4cf0:	411408b3          	sub	a7,s0,a7
    4cf4:	32a8b423          	sd	a0,808(a7) # 1328 <.LBB103_4+0xe4>
    4cf8:	00055463          	bgez	a0,4d00 <.LBB103_188>
    4cfc:	c0000637          	lui	a2,0xc0000

0000000000004d00 <.LBB103_188>:
    4d00:	00001537          	lui	a0,0x1
    4d04:	40a40533          	sub	a0,s0,a0
    4d08:	32c53023          	sd	a2,800(a0) # 1320 <.LBB103_4+0xdc>
    4d0c:	95843503          	ld	a0,-1704(s0)
    4d10:	f6843603          	ld	a2,-152(s0)
    4d14:	00c50533          	add	a0,a0,a2
    4d18:	00001637          	lui	a2,0x1
    4d1c:	40c40633          	sub	a2,s0,a2
    4d20:	75863603          	ld	a2,1880(a2) # 1758 <.LBB103_4+0x514>
    4d24:	40c5053b          	subw	a0,a0,a2
    4d28:	00b50533          	add	a0,a0,a1
    4d2c:	8805051b          	addiw	a0,a0,-1920
    4d30:	40000637          	lui	a2,0x40000
    4d34:	000018b7          	lui	a7,0x1
    4d38:	411408b3          	sub	a7,s0,a7
    4d3c:	32a8bc23          	sd	a0,824(a7) # 1338 <.LBB103_4+0xf4>
    4d40:	00055463          	bgez	a0,4d48 <.LBB103_190>
    4d44:	c0000637          	lui	a2,0xc0000

0000000000004d48 <.LBB103_190>:
    4d48:	00001537          	lui	a0,0x1
    4d4c:	40a40533          	sub	a0,s0,a0
    4d50:	32c53823          	sd	a2,816(a0) # 1330 <.LBB103_4+0xec>
    4d54:	96043503          	ld	a0,-1696(s0)
    4d58:	f7043603          	ld	a2,-144(s0)
    4d5c:	00c50533          	add	a0,a0,a2
    4d60:	00001637          	lui	a2,0x1
    4d64:	40c40633          	sub	a2,s0,a2
    4d68:	76063603          	ld	a2,1888(a2) # 1760 <.LBB103_4+0x51c>
    4d6c:	40c5053b          	subw	a0,a0,a2
    4d70:	00b50533          	add	a0,a0,a1
    4d74:	8805051b          	addiw	a0,a0,-1920
    4d78:	40000637          	lui	a2,0x40000
    4d7c:	000018b7          	lui	a7,0x1
    4d80:	411408b3          	sub	a7,s0,a7
    4d84:	34a8b423          	sd	a0,840(a7) # 1348 <.LBB103_4+0x104>
    4d88:	00055463          	bgez	a0,4d90 <.LBB103_192>
    4d8c:	c0000637          	lui	a2,0xc0000

0000000000004d90 <.LBB103_192>:
    4d90:	00001537          	lui	a0,0x1
    4d94:	40a40533          	sub	a0,s0,a0
    4d98:	34c53023          	sd	a2,832(a0) # 1340 <.LBB103_4+0xfc>
    4d9c:	96843503          	ld	a0,-1688(s0)
    4da0:	f7843603          	ld	a2,-136(s0)
    4da4:	00c50533          	add	a0,a0,a2
    4da8:	00001637          	lui	a2,0x1
    4dac:	40c40633          	sub	a2,s0,a2
    4db0:	76863603          	ld	a2,1896(a2) # 1768 <.LBB103_4+0x524>
    4db4:	40c5053b          	subw	a0,a0,a2
    4db8:	00b50533          	add	a0,a0,a1
    4dbc:	8805051b          	addiw	a0,a0,-1920
    4dc0:	40000637          	lui	a2,0x40000
    4dc4:	000018b7          	lui	a7,0x1
    4dc8:	411408b3          	sub	a7,s0,a7
    4dcc:	34a8bc23          	sd	a0,856(a7) # 1358 <.LBB103_4+0x114>
    4dd0:	00055463          	bgez	a0,4dd8 <.LBB103_194>
    4dd4:	c0000637          	lui	a2,0xc0000

0000000000004dd8 <.LBB103_194>:
    4dd8:	00001537          	lui	a0,0x1
    4ddc:	40a40533          	sub	a0,s0,a0
    4de0:	34c53823          	sd	a2,848(a0) # 1350 <.LBB103_4+0x10c>
    4de4:	f8043503          	ld	a0,-128(s0)
    4de8:	00a08533          	add	a0,ra,a0
    4dec:	00001637          	lui	a2,0x1
    4df0:	40c40633          	sub	a2,s0,a2
    4df4:	77063083          	ld	ra,1904(a2) # 1770 <.LBB103_4+0x52c>
    4df8:	4015053b          	subw	a0,a0,ra
    4dfc:	00b50533          	add	a0,a0,a1
    4e00:	8805051b          	addiw	a0,a0,-1920
    4e04:	40000637          	lui	a2,0x40000
    4e08:	000018b7          	lui	a7,0x1
    4e0c:	411408b3          	sub	a7,s0,a7
    4e10:	36a8b423          	sd	a0,872(a7) # 1368 <.LBB103_4+0x124>
    4e14:	00055463          	bgez	a0,4e1c <.LBB103_196>
    4e18:	c0000637          	lui	a2,0xc0000

0000000000004e1c <.LBB103_196>:
    4e1c:	00068893          	mv	a7,a3
    4e20:	f8843503          	ld	a0,-120(s0)
    4e24:	97843683          	ld	a3,-1672(s0)
    4e28:	00a68533          	add	a0,a3,a0
    4e2c:	4145053b          	subw	a0,a0,s4
    4e30:	00b50533          	add	a0,a0,a1
    4e34:	8805051b          	addiw	a0,a0,-1920
    4e38:	400005b7          	lui	a1,0x40000
    4e3c:	000016b7          	lui	a3,0x1
    4e40:	40d406b3          	sub	a3,s0,a3
    4e44:	38a6b023          	sd	a0,896(a3) # 1380 <.LBB103_4+0x13c>
    4e48:	00055463          	bgez	a0,4e50 <.LBB103_198>
    4e4c:	c00005b7          	lui	a1,0xc0000

0000000000004e50 <.LBB103_198>:
    4e50:	00001537          	lui	a0,0x1
    4e54:	40a40533          	sub	a0,s0,a0
    4e58:	36c53023          	sd	a2,864(a0) # 1360 <.LBB103_4+0x11c>
    4e5c:	00001537          	lui	a0,0x1
    4e60:	40a40533          	sub	a0,s0,a0
    4e64:	36b53823          	sd	a1,880(a0) # 1370 <.LBB103_4+0x12c>
    4e68:	00001537          	lui	a0,0x1
    4e6c:	40a40533          	sub	a0,s0,a0
    4e70:	68053683          	ld	a3,1664(a0) # 1680 <.LBB103_4+0x43c>
    4e74:	00169513          	slli	a0,a3,0x1
    4e78:	98043583          	ld	a1,-1664(s0)
    4e7c:	e8843603          	ld	a2,-376(s0)
    4e80:	00c585b3          	add	a1,a1,a2
    4e84:	00d506b3          	add	a3,a0,a3
    4e88:	e8043503          	ld	a0,-384(s0)
    4e8c:	40a5853b          	subw	a0,a1,a0
    4e90:	00d50533          	add	a0,a0,a3
    4e94:	8805051b          	addiw	a0,a0,-1920
    4e98:	400005b7          	lui	a1,0x40000
    4e9c:	00001637          	lui	a2,0x1
    4ea0:	40c40633          	sub	a2,s0,a2
    4ea4:	38a63423          	sd	a0,904(a2) # 1388 <.LBB103_4+0x144>
    4ea8:	00055463          	bgez	a0,4eb0 <.LBB103_200>
    4eac:	c00005b7          	lui	a1,0xc0000

0000000000004eb0 <.LBB103_200>:
    4eb0:	f8e43823          	sd	a4,-112(s0)
    4eb4:	00001537          	lui	a0,0x1
    4eb8:	40a40533          	sub	a0,s0,a0
    4ebc:	36b53c23          	sd	a1,888(a0) # 1378 <.LBB103_4+0x134>
    4ec0:	98843503          	ld	a0,-1656(s0)
    4ec4:	e7843583          	ld	a1,-392(s0)
    4ec8:	00b50533          	add	a0,a0,a1
    4ecc:	e7043583          	ld	a1,-400(s0)
    4ed0:	40b5053b          	subw	a0,a0,a1
    4ed4:	00d50533          	add	a0,a0,a3
    4ed8:	8805051b          	addiw	a0,a0,-1920
    4edc:	40000637          	lui	a2,0x40000
    4ee0:	b8043583          	ld	a1,-1152(s0)
    4ee4:	00001737          	lui	a4,0x1
    4ee8:	40e40733          	sub	a4,s0,a4
    4eec:	38a73c23          	sd	a0,920(a4) # 1398 <.LBB103_4+0x154>
    4ef0:	f9043703          	ld	a4,-112(s0)
    4ef4:	00055463          	bgez	a0,4efc <.LBB103_202>
    4ef8:	c0000637          	lui	a2,0xc0000

0000000000004efc <.LBB103_202>:
    4efc:	f8b43823          	sd	a1,-112(s0)
    4f00:	00001537          	lui	a0,0x1
    4f04:	40a40533          	sub	a0,s0,a0
    4f08:	38c53823          	sd	a2,912(a0) # 1390 <.LBB103_4+0x14c>
    4f0c:	99043503          	ld	a0,-1648(s0)
    4f10:	e6843603          	ld	a2,-408(s0)
    4f14:	00c50533          	add	a0,a0,a2
    4f18:	e6043603          	ld	a2,-416(s0)
    4f1c:	40c5053b          	subw	a0,a0,a2
    4f20:	00d50533          	add	a0,a0,a3
    4f24:	8805051b          	addiw	a0,a0,-1920
    4f28:	40000637          	lui	a2,0x40000
    4f2c:	000015b7          	lui	a1,0x1
    4f30:	40b405b3          	sub	a1,s0,a1
    4f34:	3aa5b423          	sd	a0,936(a1) # 13a8 <.LBB103_4+0x164>
    4f38:	f9043583          	ld	a1,-112(s0)
    4f3c:	00055463          	bgez	a0,4f44 <.LBB103_204>
    4f40:	c0000637          	lui	a2,0xc0000

0000000000004f44 <.LBB103_204>:
    4f44:	f8b43823          	sd	a1,-112(s0)
    4f48:	00001537          	lui	a0,0x1
    4f4c:	40a40533          	sub	a0,s0,a0
    4f50:	3ac53023          	sd	a2,928(a0) # 13a0 <.LBB103_4+0x15c>
    4f54:	99843503          	ld	a0,-1640(s0)
    4f58:	e5843603          	ld	a2,-424(s0)
    4f5c:	00c50533          	add	a0,a0,a2
    4f60:	e5043603          	ld	a2,-432(s0)
    4f64:	40c5053b          	subw	a0,a0,a2
    4f68:	00d50533          	add	a0,a0,a3
    4f6c:	8805051b          	addiw	a0,a0,-1920
    4f70:	40000637          	lui	a2,0x40000
    4f74:	000015b7          	lui	a1,0x1
    4f78:	40b405b3          	sub	a1,s0,a1
    4f7c:	3aa5bc23          	sd	a0,952(a1) # 13b8 <.LBB103_4+0x174>
    4f80:	f9043583          	ld	a1,-112(s0)
    4f84:	00055463          	bgez	a0,4f8c <.LBB103_206>
    4f88:	c0000637          	lui	a2,0xc0000

0000000000004f8c <.LBB103_206>:
    4f8c:	f8b43823          	sd	a1,-112(s0)
    4f90:	00001537          	lui	a0,0x1
    4f94:	40a40533          	sub	a0,s0,a0
    4f98:	3ac53823          	sd	a2,944(a0) # 13b0 <.LBB103_4+0x16c>
    4f9c:	9a043503          	ld	a0,-1632(s0)
    4fa0:	e4843603          	ld	a2,-440(s0)
    4fa4:	00c50533          	add	a0,a0,a2
    4fa8:	e4043603          	ld	a2,-448(s0)
    4fac:	40c5053b          	subw	a0,a0,a2
    4fb0:	00d50533          	add	a0,a0,a3
    4fb4:	8805051b          	addiw	a0,a0,-1920
    4fb8:	40000637          	lui	a2,0x40000
    4fbc:	000015b7          	lui	a1,0x1
    4fc0:	40b405b3          	sub	a1,s0,a1
    4fc4:	3ca5b423          	sd	a0,968(a1) # 13c8 <.LBB103_4+0x184>
    4fc8:	f9043583          	ld	a1,-112(s0)
    4fcc:	00055463          	bgez	a0,4fd4 <.LBB103_208>
    4fd0:	c0000637          	lui	a2,0xc0000

0000000000004fd4 <.LBB103_208>:
    4fd4:	f8b43823          	sd	a1,-112(s0)
    4fd8:	00001537          	lui	a0,0x1
    4fdc:	40a40533          	sub	a0,s0,a0
    4fe0:	3cc53023          	sd	a2,960(a0) # 13c0 <.LBB103_4+0x17c>
    4fe4:	9a843503          	ld	a0,-1624(s0)
    4fe8:	e3843603          	ld	a2,-456(s0)
    4fec:	00c50533          	add	a0,a0,a2
    4ff0:	e3043603          	ld	a2,-464(s0)
    4ff4:	40c5053b          	subw	a0,a0,a2
    4ff8:	00d50533          	add	a0,a0,a3
    4ffc:	8805051b          	addiw	a0,a0,-1920
    5000:	40000637          	lui	a2,0x40000
    5004:	000015b7          	lui	a1,0x1
    5008:	40b405b3          	sub	a1,s0,a1
    500c:	3ca5bc23          	sd	a0,984(a1) # 13d8 <.LBB103_4+0x194>
    5010:	f9043583          	ld	a1,-112(s0)
    5014:	00055463          	bgez	a0,501c <.LBB103_210>
    5018:	c0000637          	lui	a2,0xc0000

000000000000501c <.LBB103_210>:
    501c:	f8b43823          	sd	a1,-112(s0)
    5020:	00001537          	lui	a0,0x1
    5024:	40a40533          	sub	a0,s0,a0
    5028:	3cc53823          	sd	a2,976(a0) # 13d0 <.LBB103_4+0x18c>
    502c:	9b043503          	ld	a0,-1616(s0)
    5030:	000015b7          	lui	a1,0x1
    5034:	40b405b3          	sub	a1,s0,a1
    5038:	6c05b603          	ld	a2,1728(a1) # 16c0 <.LBB103_4+0x47c>
    503c:	00c50533          	add	a0,a0,a2
    5040:	000015b7          	lui	a1,0x1
    5044:	40b405b3          	sub	a1,s0,a1
    5048:	6b85b603          	ld	a2,1720(a1) # 16b8 <.LBB103_4+0x474>
    504c:	40c5053b          	subw	a0,a0,a2
    5050:	00d50533          	add	a0,a0,a3
    5054:	8805051b          	addiw	a0,a0,-1920
    5058:	40000637          	lui	a2,0x40000
    505c:	000015b7          	lui	a1,0x1
    5060:	40b405b3          	sub	a1,s0,a1
    5064:	3ea5b423          	sd	a0,1000(a1) # 13e8 <.LBB103_4+0x1a4>
    5068:	f9043583          	ld	a1,-112(s0)
    506c:	00055463          	bgez	a0,5074 <.LBB103_212>
    5070:	c0000637          	lui	a2,0xc0000

0000000000005074 <.LBB103_212>:
    5074:	f8b43823          	sd	a1,-112(s0)
    5078:	00001537          	lui	a0,0x1
    507c:	40a40533          	sub	a0,s0,a0
    5080:	3ec53023          	sd	a2,992(a0) # 13e0 <.LBB103_4+0x19c>
    5084:	9b843503          	ld	a0,-1608(s0)
    5088:	000015b7          	lui	a1,0x1
    508c:	40b405b3          	sub	a1,s0,a1
    5090:	6b05b603          	ld	a2,1712(a1) # 16b0 <.LBB103_4+0x46c>
    5094:	00c50533          	add	a0,a0,a2
    5098:	000015b7          	lui	a1,0x1
    509c:	40b405b3          	sub	a1,s0,a1
    50a0:	6a85b603          	ld	a2,1704(a1) # 16a8 <.LBB103_4+0x464>
    50a4:	40c5053b          	subw	a0,a0,a2
    50a8:	00d50533          	add	a0,a0,a3
    50ac:	8805051b          	addiw	a0,a0,-1920
    50b0:	40000637          	lui	a2,0x40000
    50b4:	000015b7          	lui	a1,0x1
    50b8:	40b405b3          	sub	a1,s0,a1
    50bc:	3ea5bc23          	sd	a0,1016(a1) # 13f8 <.LBB103_4+0x1b4>
    50c0:	f9043583          	ld	a1,-112(s0)
    50c4:	00055463          	bgez	a0,50cc <.LBB103_214>
    50c8:	c0000637          	lui	a2,0xc0000

00000000000050cc <.LBB103_214>:
    50cc:	f8b43823          	sd	a1,-112(s0)
    50d0:	00001537          	lui	a0,0x1
    50d4:	40a40533          	sub	a0,s0,a0
    50d8:	3ec53823          	sd	a2,1008(a0) # 13f0 <.LBB103_4+0x1ac>
    50dc:	9c043503          	ld	a0,-1600(s0)
    50e0:	000015b7          	lui	a1,0x1
    50e4:	40b405b3          	sub	a1,s0,a1
    50e8:	6a05b603          	ld	a2,1696(a1) # 16a0 <.LBB103_4+0x45c>
    50ec:	00c50533          	add	a0,a0,a2
    50f0:	000015b7          	lui	a1,0x1
    50f4:	40b405b3          	sub	a1,s0,a1
    50f8:	6985b603          	ld	a2,1688(a1) # 1698 <.LBB103_4+0x454>
    50fc:	40c5053b          	subw	a0,a0,a2
    5100:	00d50533          	add	a0,a0,a3
    5104:	8805051b          	addiw	a0,a0,-1920
    5108:	40000637          	lui	a2,0x40000
    510c:	000015b7          	lui	a1,0x1
    5110:	40b405b3          	sub	a1,s0,a1
    5114:	40a5b423          	sd	a0,1032(a1) # 1408 <.LBB103_4+0x1c4>
    5118:	f9043583          	ld	a1,-112(s0)
    511c:	00055463          	bgez	a0,5124 <.LBB103_216>
    5120:	c0000637          	lui	a2,0xc0000

0000000000005124 <.LBB103_216>:
    5124:	f8b43823          	sd	a1,-112(s0)
    5128:	00001537          	lui	a0,0x1
    512c:	40a40533          	sub	a0,s0,a0
    5130:	40c53023          	sd	a2,1024(a0) # 1400 <.LBB103_4+0x1bc>
    5134:	9c843503          	ld	a0,-1592(s0)
    5138:	000015b7          	lui	a1,0x1
    513c:	40b405b3          	sub	a1,s0,a1
    5140:	6905b603          	ld	a2,1680(a1) # 1690 <.LBB103_4+0x44c>
    5144:	00c50533          	add	a0,a0,a2
    5148:	000015b7          	lui	a1,0x1
    514c:	40b405b3          	sub	a1,s0,a1
    5150:	6c85b603          	ld	a2,1736(a1) # 16c8 <.LBB103_4+0x484>
    5154:	40c5053b          	subw	a0,a0,a2
    5158:	00d50533          	add	a0,a0,a3
    515c:	8805051b          	addiw	a0,a0,-1920
    5160:	40000637          	lui	a2,0x40000
    5164:	000015b7          	lui	a1,0x1
    5168:	40b405b3          	sub	a1,s0,a1
    516c:	40a5bc23          	sd	a0,1048(a1) # 1418 <.LBB103_4+0x1d4>
    5170:	f9043583          	ld	a1,-112(s0)
    5174:	00055463          	bgez	a0,517c <.LBB103_218>
    5178:	c0000637          	lui	a2,0xc0000

000000000000517c <.LBB103_218>:
    517c:	f8b43823          	sd	a1,-112(s0)
    5180:	00001537          	lui	a0,0x1
    5184:	40a40533          	sub	a0,s0,a0
    5188:	40c53823          	sd	a2,1040(a0) # 1410 <.LBB103_4+0x1cc>
    518c:	9d043503          	ld	a0,-1584(s0)
    5190:	e9043603          	ld	a2,-368(s0)
    5194:	00c50533          	add	a0,a0,a2
    5198:	000015b7          	lui	a1,0x1
    519c:	40b405b3          	sub	a1,s0,a1
    51a0:	6d05b603          	ld	a2,1744(a1) # 16d0 <.LBB103_4+0x48c>
    51a4:	40c5053b          	subw	a0,a0,a2
    51a8:	00d50533          	add	a0,a0,a3
    51ac:	8805051b          	addiw	a0,a0,-1920
    51b0:	40000637          	lui	a2,0x40000
    51b4:	000015b7          	lui	a1,0x1
    51b8:	40b405b3          	sub	a1,s0,a1
    51bc:	42a5b423          	sd	a0,1064(a1) # 1428 <.LBB103_4+0x1e4>
    51c0:	f9043583          	ld	a1,-112(s0)
    51c4:	00055463          	bgez	a0,51cc <.LBB103_220>
    51c8:	c0000637          	lui	a2,0xc0000

00000000000051cc <.LBB103_220>:
    51cc:	f8b43823          	sd	a1,-112(s0)
    51d0:	00001537          	lui	a0,0x1
    51d4:	40a40533          	sub	a0,s0,a0
    51d8:	42c53023          	sd	a2,1056(a0) # 1420 <.LBB103_4+0x1dc>
    51dc:	9d843503          	ld	a0,-1576(s0)
    51e0:	e9843603          	ld	a2,-360(s0)
    51e4:	00c50533          	add	a0,a0,a2
    51e8:	000015b7          	lui	a1,0x1
    51ec:	40b405b3          	sub	a1,s0,a1
    51f0:	6d85b603          	ld	a2,1752(a1) # 16d8 <.LBB103_4+0x494>
    51f4:	40c5053b          	subw	a0,a0,a2
    51f8:	00d50533          	add	a0,a0,a3
    51fc:	8805051b          	addiw	a0,a0,-1920
    5200:	40000637          	lui	a2,0x40000
    5204:	000015b7          	lui	a1,0x1
    5208:	40b405b3          	sub	a1,s0,a1
    520c:	42a5bc23          	sd	a0,1080(a1) # 1438 <.LBB103_4+0x1f4>
    5210:	f9043583          	ld	a1,-112(s0)
    5214:	00055463          	bgez	a0,521c <.LBB103_222>
    5218:	c0000637          	lui	a2,0xc0000

000000000000521c <.LBB103_222>:
    521c:	f8b43823          	sd	a1,-112(s0)
    5220:	00001537          	lui	a0,0x1
    5224:	40a40533          	sub	a0,s0,a0
    5228:	42c53823          	sd	a2,1072(a0) # 1430 <.LBB103_4+0x1ec>
    522c:	9e043503          	ld	a0,-1568(s0)
    5230:	ea043603          	ld	a2,-352(s0)
    5234:	00c50533          	add	a0,a0,a2
    5238:	41b5053b          	subw	a0,a0,s11
    523c:	00d50533          	add	a0,a0,a3
    5240:	8805051b          	addiw	a0,a0,-1920
    5244:	40000637          	lui	a2,0x40000
    5248:	000015b7          	lui	a1,0x1
    524c:	40b405b3          	sub	a1,s0,a1
    5250:	44a5b423          	sd	a0,1096(a1) # 1448 <.LBB103_4+0x204>
    5254:	f9043583          	ld	a1,-112(s0)
    5258:	00055463          	bgez	a0,5260 <.LBB103_224>
    525c:	c0000637          	lui	a2,0xc0000

0000000000005260 <.LBB103_224>:
    5260:	f8b43823          	sd	a1,-112(s0)
    5264:	00001537          	lui	a0,0x1
    5268:	40a40533          	sub	a0,s0,a0
    526c:	44c53023          	sd	a2,1088(a0) # 1440 <.LBB103_4+0x1fc>
    5270:	9e843503          	ld	a0,-1560(s0)
    5274:	ea843603          	ld	a2,-344(s0)
    5278:	00c50533          	add	a0,a0,a2
    527c:	41a5053b          	subw	a0,a0,s10
    5280:	00d50533          	add	a0,a0,a3
    5284:	8805051b          	addiw	a0,a0,-1920
    5288:	40000637          	lui	a2,0x40000
    528c:	000015b7          	lui	a1,0x1
    5290:	40b405b3          	sub	a1,s0,a1
    5294:	44a5bc23          	sd	a0,1112(a1) # 1458 <.LBB103_4+0x214>
    5298:	f9043583          	ld	a1,-112(s0)
    529c:	00055463          	bgez	a0,52a4 <.LBB103_226>
    52a0:	c0000637          	lui	a2,0xc0000

00000000000052a4 <.LBB103_226>:
    52a4:	f8b43823          	sd	a1,-112(s0)
    52a8:	00001537          	lui	a0,0x1
    52ac:	40a40533          	sub	a0,s0,a0
    52b0:	44c53823          	sd	a2,1104(a0) # 1450 <.LBB103_4+0x20c>
    52b4:	9f043503          	ld	a0,-1552(s0)
    52b8:	eb043603          	ld	a2,-336(s0)
    52bc:	00c50533          	add	a0,a0,a2
    52c0:	000015b7          	lui	a1,0x1
    52c4:	40b405b3          	sub	a1,s0,a1
    52c8:	6f05b603          	ld	a2,1776(a1) # 16f0 <.LBB103_4+0x4ac>
    52cc:	40c5053b          	subw	a0,a0,a2
    52d0:	00d50533          	add	a0,a0,a3
