
code.o:     file format elf64-littleriscv


Disassembly of section .text.main_dispatch_11_matmul_12544x16x32_i8xi8xi32:

0000000000000000 <main_dispatch_11_matmul_12544x16x32_i8xi8xi32>:
       0:	f1501173          	csrrw	sp,0xf15,zero

0000000000000004 <.Lfunc_begin11>:
       4:	81010113          	addi	sp,sp,-2032
       8:	7e113423          	sd	ra,2024(sp)
       c:	7e813023          	sd	s0,2016(sp)
      10:	7c913c23          	sd	s1,2008(sp)
      14:	7d213823          	sd	s2,2000(sp)
      18:	7d313423          	sd	s3,1992(sp)
      1c:	7d413023          	sd	s4,1984(sp)
      20:	7b513c23          	sd	s5,1976(sp)
      24:	7b613823          	sd	s6,1968(sp)
      28:	7b713423          	sd	s7,1960(sp)
      2c:	7b813023          	sd	s8,1952(sp)
      30:	79913c23          	sd	s9,1944(sp)
      34:	79a13823          	sd	s10,1936(sp)
      38:	79b13423          	sd	s11,1928(sp)
      3c:	7f010413          	addi	s0,sp,2032
      40:	c3010113          	addi	sp,sp,-976
      44:	fc017113          	andi	sp,sp,-64
      48:	0205b503          	ld	a0,32(a1)
      4c:	54013423          	sd	zero,1352(sp)
      50:	00853583          	ld	a1,8(a0)
      54:	00053703          	ld	a4,0(a0)
      58:	00021637          	lui	a2,0x21
      5c:	2406069b          	addiw	a3,a2,576 # 21240 <.LBB77_4267>
      60:	00d586b3          	add	a3,a1,a3
      64:	08d13423          	sd	a3,136(sp)
      68:	4406061b          	addiw	a2,a2,1088
      6c:	01053503          	ld	a0,16(a0)
      70:	00c585b3          	add	a1,a1,a2
      74:	08b13023          	sd	a1,128(sp)
      78:	0000c5b7          	lui	a1,0xc
      7c:	4005859b          	addiw	a1,a1,1024 # c400 <.LBB41_1147>
      80:	00b50533          	add	a0,a0,a1
      84:	06a13c23          	sd	a0,120(sp)

0000000000000088 <.Lpcrel_hi3>:
      88:	00000517          	auipc	a0,0x0
      8c:	00050513          	mv	a0,a0
      90:	03c52583          	lw	a1,60(a0) # c4 <.Lpcrel_hi3+0x3c>
      94:	06b13823          	sd	a1,112(sp)
      98:	03852583          	lw	a1,56(a0)
      9c:	06b13423          	sd	a1,104(sp)
      a0:	03452583          	lw	a1,52(a0)
      a4:	06b13023          	sd	a1,96(sp)
      a8:	03052583          	lw	a1,48(a0)
      ac:	04b13c23          	sd	a1,88(sp)
      b0:	02c52583          	lw	a1,44(a0)
      b4:	04b13823          	sd	a1,80(sp)
      b8:	02852583          	lw	a1,40(a0)
      bc:	04b13423          	sd	a1,72(sp)
      c0:	02452583          	lw	a1,36(a0)
      c4:	04b13023          	sd	a1,64(sp)
      c8:	02052583          	lw	a1,32(a0)
      cc:	02b13c23          	sd	a1,56(sp)
      d0:	01c52583          	lw	a1,28(a0)
      d4:	02b13823          	sd	a1,48(sp)
      d8:	01852583          	lw	a1,24(a0)
      dc:	02b13423          	sd	a1,40(sp)
      e0:	01452583          	lw	a1,20(a0)
      e4:	02b13023          	sd	a1,32(sp)
      e8:	01052583          	lw	a1,16(a0)
      ec:	52b13823          	sd	a1,1328(sp)
      f0:	00c52583          	lw	a1,12(a0)
      f4:	52b13423          	sd	a1,1320(sp)
      f8:	00852583          	lw	a1,8(a0)
      fc:	52b13023          	sd	a1,1312(sp)
     100:	00452583          	lw	a1,4(a0)
     104:	54b13023          	sd	a1,1344(sp)
     108:	00052503          	lw	a0,0(a0)
     10c:	52a13c23          	sd	a0,1336(sp)
     110:	00188537          	lui	a0,0x188
     114:	0e05051b          	addiw	a0,a0,224 # 1880e0 <.Lfunc_end80+0x15f714>
     118:	08e13823          	sd	a4,144(sp)
     11c:	00a707b3          	add	a5,a4,a0
     120:	514c3537          	lui	a0,0x514c3
     124:	9025051b          	addiw	a0,a0,-1790 # 514c2902 <.Lfunc_end80+0x51499f36>
     128:	00a13c23          	sd	a0,24(sp)
     12c:	00100513          	li	a0,1
     130:	02651513          	slli	a0,a0,0x26
     134:	00a13823          	sd	a0,16(sp)
     138:	7180006f          	j	850 <.LBB11_2>

000000000000013c <.LBB11_1>:
     13c:	63b13823          	sd	s11,1584(sp)
     140:	001b8b93          	addi	s7,s7,1
     144:	54813d83          	ld	s11,1352(sp)
     148:	004d9893          	slli	a7,s11,0x4
     14c:	07813083          	ld	ra,120(sp)
     150:	011088b3          	add	a7,ra,a7
     154:	01788023          	sb	s7,0(a7)
     158:	00001bb7          	lui	s7,0x1
     15c:	01710bb3          	add	s7,sp,s7
     160:	8f0bbb83          	ld	s7,-1808(s7) # 8f0 <.LBB11_2+0xa0>
     164:	001b8b93          	addi	s7,s7,1
     168:	017880a3          	sb	s7,1(a7)
     16c:	00001bb7          	lui	s7,0x1
     170:	01710bb3          	add	s7,sp,s7
     174:	900bbb83          	ld	s7,-1792(s7) # 900 <.LBB11_2+0xb0>
     178:	001b8b93          	addi	s7,s7,1
     17c:	01788123          	sb	s7,2(a7)
     180:	00001bb7          	lui	s7,0x1
     184:	01710bb3          	add	s7,sp,s7
     188:	910bbb83          	ld	s7,-1776(s7) # 910 <.LBB11_2+0xc0>
     18c:	001b8b93          	addi	s7,s7,1
     190:	017881a3          	sb	s7,3(a7)
     194:	00001bb7          	lui	s7,0x1
     198:	01710bb3          	add	s7,sp,s7
     19c:	920bbb83          	ld	s7,-1760(s7) # 920 <.LBB11_2+0xd0>
     1a0:	001b8b93          	addi	s7,s7,1
     1a4:	01788223          	sb	s7,4(a7)
     1a8:	00001bb7          	lui	s7,0x1
     1ac:	01710bb3          	add	s7,sp,s7
     1b0:	930bbb83          	ld	s7,-1744(s7) # 930 <.LBB11_2+0xe0>
     1b4:	001b8b93          	addi	s7,s7,1
     1b8:	017882a3          	sb	s7,5(a7)
     1bc:	00001bb7          	lui	s7,0x1
     1c0:	01710bb3          	add	s7,sp,s7
     1c4:	938bbb83          	ld	s7,-1736(s7) # 938 <.LBB11_2+0xe8>
     1c8:	001b8b93          	addi	s7,s7,1
     1cc:	01788323          	sb	s7,6(a7)
     1d0:	00168b93          	addi	s7,a3,1
     1d4:	017883a3          	sb	s7,7(a7)
     1d8:	001b0b93          	addi	s7,s6,1
     1dc:	01788423          	sb	s7,8(a7)
     1e0:	001a8b93          	addi	s7,s5,1
     1e4:	017884a3          	sb	s7,9(a7)
     1e8:	001a0b93          	addi	s7,s4,1
     1ec:	01788523          	sb	s7,10(a7)
     1f0:	00198b93          	addi	s7,s3,1
     1f4:	017885a3          	sb	s7,11(a7)
     1f8:	001d0b93          	addi	s7,s10,1
     1fc:	01788623          	sb	s7,12(a7)
     200:	00190b93          	addi	s7,s2,1
     204:	017886a3          	sb	s7,13(a7)
     208:	00148b93          	addi	s7,s1,1
     20c:	01788723          	sb	s7,14(a7)
     210:	001f8b93          	addi	s7,t6,1
     214:	017887a3          	sb	s7,15(a7)
     218:	000016b7          	lui	a3,0x1
     21c:	00d106b3          	add	a3,sp,a3
     220:	8686bb83          	ld	s7,-1944(a3) # 868 <.LBB11_2+0x18>
     224:	001b8b93          	addi	s7,s7,1
     228:	01788823          	sb	s7,16(a7)
     22c:	000016b7          	lui	a3,0x1
     230:	00d106b3          	add	a3,sp,a3
     234:	8786bb83          	ld	s7,-1928(a3) # 878 <.LBB11_2+0x28>
     238:	001b8b93          	addi	s7,s7,1
     23c:	017888a3          	sb	s7,17(a7)
     240:	000016b7          	lui	a3,0x1
     244:	00d106b3          	add	a3,sp,a3
     248:	8886bb83          	ld	s7,-1912(a3) # 888 <.LBB11_2+0x38>
     24c:	001b8b93          	addi	s7,s7,1
     250:	01788923          	sb	s7,18(a7)
     254:	000016b7          	lui	a3,0x1
     258:	00d106b3          	add	a3,sp,a3
     25c:	8986bb83          	ld	s7,-1896(a3) # 898 <.LBB11_2+0x48>
     260:	001b8b93          	addi	s7,s7,1
     264:	017889a3          	sb	s7,19(a7)
     268:	000016b7          	lui	a3,0x1
     26c:	00d106b3          	add	a3,sp,a3
     270:	8a86bb83          	ld	s7,-1880(a3) # 8a8 <.LBB11_2+0x58>
     274:	001b8b93          	addi	s7,s7,1
     278:	01788a23          	sb	s7,20(a7)
     27c:	000016b7          	lui	a3,0x1
     280:	00d106b3          	add	a3,sp,a3
     284:	8b86bb83          	ld	s7,-1864(a3) # 8b8 <.LBB11_2+0x68>
     288:	001b8b93          	addi	s7,s7,1
     28c:	01788aa3          	sb	s7,21(a7)
     290:	000016b7          	lui	a3,0x1
     294:	00d106b3          	add	a3,sp,a3
     298:	8c06bb83          	ld	s7,-1856(a3) # 8c0 <.LBB11_2+0x70>
     29c:	001b8b93          	addi	s7,s7,1
     2a0:	01788b23          	sb	s7,22(a7)
     2a4:	000016b7          	lui	a3,0x1
     2a8:	00d106b3          	add	a3,sp,a3
     2ac:	8c86bb83          	ld	s7,-1848(a3) # 8c8 <.LBB11_2+0x78>
     2b0:	001b8b93          	addi	s7,s7,1
     2b4:	01788ba3          	sb	s7,23(a7)
     2b8:	000016b7          	lui	a3,0x1
     2bc:	00d106b3          	add	a3,sp,a3
     2c0:	8d06bb83          	ld	s7,-1840(a3) # 8d0 <.LBB11_2+0x80>
     2c4:	001b8b93          	addi	s7,s7,1
     2c8:	01788c23          	sb	s7,24(a7)
     2cc:	000016b7          	lui	a3,0x1
     2d0:	00d106b3          	add	a3,sp,a3
     2d4:	8d86bb83          	ld	s7,-1832(a3) # 8d8 <.LBB11_2+0x88>
     2d8:	001b8b93          	addi	s7,s7,1
     2dc:	01788ca3          	sb	s7,25(a7)
     2e0:	000016b7          	lui	a3,0x1
     2e4:	00d106b3          	add	a3,sp,a3
     2e8:	8e06bb83          	ld	s7,-1824(a3) # 8e0 <.LBB11_2+0x90>
     2ec:	001b8b93          	addi	s7,s7,1
     2f0:	01788d23          	sb	s7,26(a7)
     2f4:	000016b7          	lui	a3,0x1
     2f8:	00d106b3          	add	a3,sp,a3
     2fc:	8e86bb83          	ld	s7,-1816(a3) # 8e8 <.LBB11_2+0x98>
     300:	001b8b93          	addi	s7,s7,1
     304:	01788da3          	sb	s7,27(a7)
     308:	000016b7          	lui	a3,0x1
     30c:	00d106b3          	add	a3,sp,a3
     310:	8f86bb83          	ld	s7,-1800(a3) # 8f8 <.LBB11_2+0xa8>
     314:	001b8b93          	addi	s7,s7,1
     318:	01788e23          	sb	s7,28(a7)
     31c:	000016b7          	lui	a3,0x1
     320:	00d106b3          	add	a3,sp,a3
     324:	9086bb83          	ld	s7,-1784(a3) # 908 <.LBB11_2+0xb8>
     328:	001b8b93          	addi	s7,s7,1
     32c:	01788ea3          	sb	s7,29(a7)
     330:	000016b7          	lui	a3,0x1
     334:	00d106b3          	add	a3,sp,a3
     338:	9186bb83          	ld	s7,-1768(a3) # 918 <.LBB11_2+0xc8>
     33c:	001b8b93          	addi	s7,s7,1
     340:	01788f23          	sb	s7,30(a7)
     344:	000016b7          	lui	a3,0x1
     348:	00d106b3          	add	a3,sp,a3
     34c:	9286bb83          	ld	s7,-1752(a3) # 928 <.LBB11_2+0xd8>
     350:	001b8b93          	addi	s7,s7,1
     354:	01788fa3          	sb	s7,31(a7)
     358:	7e813b83          	ld	s7,2024(sp)
     35c:	001b8b93          	addi	s7,s7,1
     360:	03788023          	sb	s7,32(a7)
     364:	7f813b83          	ld	s7,2040(sp)
     368:	001b8b93          	addi	s7,s7,1
     36c:	037880a3          	sb	s7,33(a7)
     370:	000016b7          	lui	a3,0x1
     374:	00d106b3          	add	a3,sp,a3
     378:	8086bb83          	ld	s7,-2040(a3) # 808 <.LBB11_1+0x6cc>
     37c:	001b8b93          	addi	s7,s7,1
     380:	03788123          	sb	s7,34(a7)
     384:	000016b7          	lui	a3,0x1
     388:	00d106b3          	add	a3,sp,a3
     38c:	8186bb83          	ld	s7,-2024(a3) # 818 <.LBB11_1+0x6dc>
     390:	001b8b93          	addi	s7,s7,1
     394:	037881a3          	sb	s7,35(a7)
     398:	000016b7          	lui	a3,0x1
     39c:	00d106b3          	add	a3,sp,a3
     3a0:	8286bb83          	ld	s7,-2008(a3) # 828 <.LBB11_1+0x6ec>
     3a4:	001b8b93          	addi	s7,s7,1
     3a8:	03788223          	sb	s7,36(a7)
     3ac:	000016b7          	lui	a3,0x1
     3b0:	00d106b3          	add	a3,sp,a3
     3b4:	8386bb83          	ld	s7,-1992(a3) # 838 <.LBB11_1+0x6fc>
     3b8:	001b8b93          	addi	s7,s7,1
     3bc:	037882a3          	sb	s7,37(a7)
     3c0:	000016b7          	lui	a3,0x1
     3c4:	00d106b3          	add	a3,sp,a3
     3c8:	8406bb83          	ld	s7,-1984(a3) # 840 <.LBB11_1+0x704>
     3cc:	001b8b93          	addi	s7,s7,1
     3d0:	03788323          	sb	s7,38(a7)
     3d4:	000016b7          	lui	a3,0x1
     3d8:	00d106b3          	add	a3,sp,a3
     3dc:	8486bb83          	ld	s7,-1976(a3) # 848 <.LBB11_1+0x70c>
     3e0:	001b8b93          	addi	s7,s7,1
     3e4:	037883a3          	sb	s7,39(a7)
     3e8:	000016b7          	lui	a3,0x1
     3ec:	00d106b3          	add	a3,sp,a3
     3f0:	8506bb83          	ld	s7,-1968(a3) # 850 <.LBB11_2>
     3f4:	001b8b93          	addi	s7,s7,1
     3f8:	03788423          	sb	s7,40(a7)
     3fc:	000016b7          	lui	a3,0x1
     400:	00d106b3          	add	a3,sp,a3
     404:	8586bb83          	ld	s7,-1960(a3) # 858 <.LBB11_2+0x8>
     408:	001b8b93          	addi	s7,s7,1
     40c:	037884a3          	sb	s7,41(a7)
     410:	000016b7          	lui	a3,0x1
     414:	00d106b3          	add	a3,sp,a3
     418:	8606bb83          	ld	s7,-1952(a3) # 860 <.LBB11_2+0x10>
     41c:	001b8b93          	addi	s7,s7,1
     420:	03788523          	sb	s7,42(a7)
     424:	000016b7          	lui	a3,0x1
     428:	00d106b3          	add	a3,sp,a3
     42c:	8706bb83          	ld	s7,-1936(a3) # 870 <.LBB11_2+0x20>
     430:	001b8b93          	addi	s7,s7,1
     434:	037885a3          	sb	s7,43(a7)
     438:	000016b7          	lui	a3,0x1
     43c:	00d106b3          	add	a3,sp,a3
     440:	8806bb83          	ld	s7,-1920(a3) # 880 <.LBB11_2+0x30>
     444:	001b8b93          	addi	s7,s7,1
     448:	03788623          	sb	s7,44(a7)
     44c:	000016b7          	lui	a3,0x1
     450:	00d106b3          	add	a3,sp,a3
     454:	8906bb83          	ld	s7,-1904(a3) # 890 <.LBB11_2+0x40>
     458:	001b8b93          	addi	s7,s7,1
     45c:	037886a3          	sb	s7,45(a7)
     460:	000016b7          	lui	a3,0x1
     464:	00d106b3          	add	a3,sp,a3
     468:	8a06bb83          	ld	s7,-1888(a3) # 8a0 <.LBB11_2+0x50>
     46c:	001b8b93          	addi	s7,s7,1
     470:	03788723          	sb	s7,46(a7)
     474:	000016b7          	lui	a3,0x1
     478:	00d106b3          	add	a3,sp,a3
     47c:	8b06bb83          	ld	s7,-1872(a3) # 8b0 <.LBB11_2+0x60>
     480:	001b8b93          	addi	s7,s7,1
     484:	037887a3          	sb	s7,47(a7)
     488:	76813b83          	ld	s7,1896(sp)
     48c:	001b8b93          	addi	s7,s7,1
     490:	03788823          	sb	s7,48(a7)
     494:	77813b83          	ld	s7,1912(sp)
     498:	001b8b93          	addi	s7,s7,1
     49c:	037888a3          	sb	s7,49(a7)
     4a0:	78813b83          	ld	s7,1928(sp)
     4a4:	001b8b93          	addi	s7,s7,1
     4a8:	03788923          	sb	s7,50(a7)
     4ac:	79813b83          	ld	s7,1944(sp)
     4b0:	001b8b93          	addi	s7,s7,1
     4b4:	037889a3          	sb	s7,51(a7)
     4b8:	7a813b83          	ld	s7,1960(sp)
     4bc:	001b8b93          	addi	s7,s7,1
     4c0:	03788a23          	sb	s7,52(a7)
     4c4:	7b813b83          	ld	s7,1976(sp)
     4c8:	001b8b93          	addi	s7,s7,1
     4cc:	03788aa3          	sb	s7,53(a7)
     4d0:	7c013b83          	ld	s7,1984(sp)
     4d4:	001b8b93          	addi	s7,s7,1
     4d8:	03788b23          	sb	s7,54(a7)
     4dc:	7c813b83          	ld	s7,1992(sp)
     4e0:	001b8b93          	addi	s7,s7,1
     4e4:	03788ba3          	sb	s7,55(a7)
     4e8:	7d013b83          	ld	s7,2000(sp)
     4ec:	001b8b93          	addi	s7,s7,1
     4f0:	03788c23          	sb	s7,56(a7)
     4f4:	7d813b83          	ld	s7,2008(sp)
     4f8:	001b8b93          	addi	s7,s7,1
     4fc:	03788ca3          	sb	s7,57(a7)
     500:	7e013b83          	ld	s7,2016(sp)
     504:	001b8b93          	addi	s7,s7,1
     508:	03788d23          	sb	s7,58(a7)
     50c:	7f013b83          	ld	s7,2032(sp)
     510:	001b8b93          	addi	s7,s7,1
     514:	03788da3          	sb	s7,59(a7)
     518:	000016b7          	lui	a3,0x1
     51c:	00d106b3          	add	a3,sp,a3
     520:	8006bb83          	ld	s7,-2048(a3) # 800 <.LBB11_1+0x6c4>
     524:	001b8b93          	addi	s7,s7,1
     528:	03788e23          	sb	s7,60(a7)
     52c:	000016b7          	lui	a3,0x1
     530:	00d106b3          	add	a3,sp,a3
     534:	8106bb83          	ld	s7,-2032(a3) # 810 <.LBB11_1+0x6d4>
     538:	001b8b93          	addi	s7,s7,1
     53c:	03788ea3          	sb	s7,61(a7)
     540:	000016b7          	lui	a3,0x1
     544:	00d106b3          	add	a3,sp,a3
     548:	8206bb83          	ld	s7,-2016(a3) # 820 <.LBB11_1+0x6e4>
     54c:	001b8b93          	addi	s7,s7,1
     550:	03788f23          	sb	s7,62(a7)
     554:	000016b7          	lui	a3,0x1
     558:	00d106b3          	add	a3,sp,a3
     55c:	8306bb83          	ld	s7,-2000(a3) # 830 <.LBB11_1+0x6f4>
     560:	001b8b93          	addi	s7,s7,1
     564:	03788fa3          	sb	s7,63(a7)
     568:	6e813b83          	ld	s7,1768(sp)
     56c:	001b8b93          	addi	s7,s7,1
     570:	05788023          	sb	s7,64(a7)
     574:	6f813b83          	ld	s7,1784(sp)
     578:	001b8b93          	addi	s7,s7,1
     57c:	057880a3          	sb	s7,65(a7)
     580:	70813b83          	ld	s7,1800(sp)
     584:	001b8b93          	addi	s7,s7,1
     588:	05788123          	sb	s7,66(a7)
     58c:	71813b83          	ld	s7,1816(sp)
     590:	001b8b93          	addi	s7,s7,1
     594:	057881a3          	sb	s7,67(a7)
     598:	72813b83          	ld	s7,1832(sp)
     59c:	001b8b93          	addi	s7,s7,1
     5a0:	05788223          	sb	s7,68(a7)
     5a4:	73813b83          	ld	s7,1848(sp)
     5a8:	001b8b93          	addi	s7,s7,1
     5ac:	057882a3          	sb	s7,69(a7)
     5b0:	74013b83          	ld	s7,1856(sp)
     5b4:	001b8b93          	addi	s7,s7,1
     5b8:	05788323          	sb	s7,70(a7)
     5bc:	74813b83          	ld	s7,1864(sp)
     5c0:	001b8b93          	addi	s7,s7,1
     5c4:	057883a3          	sb	s7,71(a7)
     5c8:	75013b83          	ld	s7,1872(sp)
     5cc:	001b8b93          	addi	s7,s7,1
     5d0:	05788423          	sb	s7,72(a7)
     5d4:	75813b83          	ld	s7,1880(sp)
     5d8:	001b8b93          	addi	s7,s7,1
     5dc:	057884a3          	sb	s7,73(a7)
     5e0:	76013b83          	ld	s7,1888(sp)
     5e4:	001b8b93          	addi	s7,s7,1
     5e8:	05788523          	sb	s7,74(a7)
     5ec:	77013b83          	ld	s7,1904(sp)
     5f0:	001b8b93          	addi	s7,s7,1
     5f4:	057885a3          	sb	s7,75(a7)
     5f8:	78013b83          	ld	s7,1920(sp)
     5fc:	001b8b93          	addi	s7,s7,1
     600:	05788623          	sb	s7,76(a7)
     604:	79013b83          	ld	s7,1936(sp)
     608:	001b8b93          	addi	s7,s7,1
     60c:	057886a3          	sb	s7,77(a7)
     610:	7a013b83          	ld	s7,1952(sp)
     614:	001b8b93          	addi	s7,s7,1
     618:	05788723          	sb	s7,78(a7)
     61c:	7b013b83          	ld	s7,1968(sp)
     620:	001b8b93          	addi	s7,s7,1
     624:	057887a3          	sb	s7,79(a7)
     628:	66813b83          	ld	s7,1640(sp)
     62c:	001b8b93          	addi	s7,s7,1
     630:	05788823          	sb	s7,80(a7)
     634:	67813b83          	ld	s7,1656(sp)
     638:	001b8b93          	addi	s7,s7,1
     63c:	057888a3          	sb	s7,81(a7)
     640:	68813b83          	ld	s7,1672(sp)
     644:	001b8b93          	addi	s7,s7,1
     648:	05788923          	sb	s7,82(a7)
     64c:	69813b83          	ld	s7,1688(sp)
     650:	001b8b93          	addi	s7,s7,1
     654:	057889a3          	sb	s7,83(a7)
     658:	6a813b83          	ld	s7,1704(sp)
     65c:	001b8b93          	addi	s7,s7,1
     660:	05788a23          	sb	s7,84(a7)
     664:	6b813b83          	ld	s7,1720(sp)
     668:	001b8b93          	addi	s7,s7,1
     66c:	05788aa3          	sb	s7,85(a7)
     670:	6c013b83          	ld	s7,1728(sp)
     674:	001b8b93          	addi	s7,s7,1
     678:	05788b23          	sb	s7,86(a7)
     67c:	6c813b83          	ld	s7,1736(sp)
     680:	001b8b93          	addi	s7,s7,1
     684:	05788ba3          	sb	s7,87(a7)
     688:	6d013b83          	ld	s7,1744(sp)
     68c:	001b8b93          	addi	s7,s7,1
     690:	05788c23          	sb	s7,88(a7)
     694:	6d813b83          	ld	s7,1752(sp)
     698:	001b8b93          	addi	s7,s7,1
     69c:	05788ca3          	sb	s7,89(a7)
     6a0:	6e013b83          	ld	s7,1760(sp)
     6a4:	001b8b93          	addi	s7,s7,1
     6a8:	05788d23          	sb	s7,90(a7)
     6ac:	6f013b83          	ld	s7,1776(sp)
     6b0:	001b8b93          	addi	s7,s7,1
     6b4:	05788da3          	sb	s7,91(a7)
     6b8:	70013b83          	ld	s7,1792(sp)
     6bc:	001b8b93          	addi	s7,s7,1
     6c0:	05788e23          	sb	s7,92(a7)
     6c4:	71013b83          	ld	s7,1808(sp)
     6c8:	001b8b93          	addi	s7,s7,1
     6cc:	05788ea3          	sb	s7,93(a7)
     6d0:	72013b83          	ld	s7,1824(sp)
     6d4:	001b8b93          	addi	s7,s7,1
     6d8:	05788f23          	sb	s7,94(a7)
     6dc:	73013b83          	ld	s7,1840(sp)
     6e0:	001b8b93          	addi	s7,s7,1
     6e4:	05788fa3          	sb	s7,95(a7)
     6e8:	00150513          	addi	a0,a0,1
     6ec:	06a88023          	sb	a0,96(a7)
     6f0:	001c0c13          	addi	s8,s8,1
     6f4:	078880a3          	sb	s8,97(a7)
     6f8:	60813b03          	ld	s6,1544(sp)
     6fc:	001b0b13          	addi	s6,s6,1
     700:	07688123          	sb	s6,98(a7)
     704:	61813a03          	ld	s4,1560(sp)
     708:	001a0a13          	addi	s4,s4,1
     70c:	074881a3          	sb	s4,99(a7)
     710:	62813d03          	ld	s10,1576(sp)
     714:	001d0d13          	addi	s10,s10,1
     718:	07a88223          	sb	s10,100(a7)
     71c:	63813483          	ld	s1,1592(sp)
     720:	00148493          	addi	s1,s1,1
     724:	069882a3          	sb	s1,101(a7)
     728:	64013f83          	ld	t6,1600(sp)
     72c:	001f8f93          	addi	t6,t6,1
     730:	07f88323          	sb	t6,102(a7)
     734:	64813503          	ld	a0,1608(sp)
     738:	00150513          	addi	a0,a0,1
     73c:	06a883a3          	sb	a0,103(a7)
     740:	65013503          	ld	a0,1616(sp)
     744:	00150513          	addi	a0,a0,1
     748:	06a88423          	sb	a0,104(a7)
     74c:	65813503          	ld	a0,1624(sp)
     750:	00150513          	addi	a0,a0,1
     754:	06a884a3          	sb	a0,105(a7)
     758:	66013503          	ld	a0,1632(sp)
     75c:	00150513          	addi	a0,a0,1
     760:	06a88523          	sb	a0,106(a7)
     764:	67013503          	ld	a0,1648(sp)
     768:	00150513          	addi	a0,a0,1
     76c:	06a885a3          	sb	a0,107(a7)
     770:	68013503          	ld	a0,1664(sp)
     774:	00150513          	addi	a0,a0,1
     778:	06a88623          	sb	a0,108(a7)
     77c:	69013503          	ld	a0,1680(sp)
     780:	00150513          	addi	a0,a0,1
     784:	06a886a3          	sb	a0,109(a7)
     788:	6a013503          	ld	a0,1696(sp)
     78c:	00150513          	addi	a0,a0,1
     790:	06a88723          	sb	a0,110(a7)
     794:	6b013503          	ld	a0,1712(sp)
     798:	00150513          	addi	a0,a0,1
     79c:	06a887a3          	sb	a0,111(a7)
     7a0:	001f0f13          	addi	t5,t5,1
     7a4:	07e88823          	sb	t5,112(a7)
     7a8:	001e8e93          	addi	t4,t4,1
     7ac:	07d888a3          	sb	t4,113(a7)
     7b0:	001e0e13          	addi	t3,t3,1
     7b4:	07c88923          	sb	t3,114(a7)
     7b8:	00138393          	addi	t2,t2,1
     7bc:	067889a3          	sb	t2,115(a7)
     7c0:	00130313          	addi	t1,t1,1
     7c4:	06688a23          	sb	t1,116(a7)
     7c8:	00128293          	addi	t0,t0,1
     7cc:	06588aa3          	sb	t0,117(a7)
     7d0:	00180813          	addi	a6,a6,1
     7d4:	07088b23          	sb	a6,118(a7)
     7d8:	00178793          	addi	a5,a5,1
     7dc:	06f88ba3          	sb	a5,119(a7)
     7e0:	00170713          	addi	a4,a4,1
     7e4:	06e88c23          	sb	a4,120(a7)
     7e8:	00160613          	addi	a2,a2,1
     7ec:	06c88ca3          	sb	a2,121(a7)
     7f0:	00158593          	addi	a1,a1,1
     7f4:	06b88d23          	sb	a1,122(a7)
     7f8:	001c8c93          	addi	s9,s9,1
     7fc:	07988da3          	sb	s9,123(a7)
     800:	60013683          	ld	a3,1536(sp)
     804:	00168693          	addi	a3,a3,1
     808:	06d88e23          	sb	a3,124(a7)
     80c:	61013a83          	ld	s5,1552(sp)
     810:	001a8a93          	addi	s5,s5,1
     814:	07588ea3          	sb	s5,125(a7)
     818:	62013983          	ld	s3,1568(sp)
     81c:	00198993          	addi	s3,s3,1
     820:	07388f23          	sb	s3,126(a7)
     824:	63013903          	ld	s2,1584(sp)
     828:	00190913          	addi	s2,s2,1
     82c:	07288fa3          	sb	s2,127(a7)
     830:	003dd513          	srli	a0,s11,0x3
     834:	008d8593          	addi	a1,s11,8
     838:	51813783          	ld	a5,1304(sp)
     83c:	10078793          	addi	a5,a5,256
     840:	54b13423          	sd	a1,1352(sp)
     844:	61f00593          	li	a1,1567
     848:	00b56463          	bltu	a0,a1,850 <.LBB11_2>
     84c:	7d40606f          	j	7020 <.LBB11_772>

0000000000000850 <.LBB11_2>:
     850:	00001537          	lui	a0,0x1
     854:	00a10533          	add	a0,sp,a0
     858:	90053023          	sd	zero,-1792(a0) # 900 <.LBB11_2+0xb0>
     85c:	00001537          	lui	a0,0x1
     860:	00a10533          	add	a0,sp,a0
     864:	90053423          	sd	zero,-1784(a0) # 908 <.LBB11_2+0xb8>
     868:	00001537          	lui	a0,0x1
     86c:	00a10533          	add	a0,sp,a0
     870:	90053823          	sd	zero,-1776(a0) # 910 <.LBB11_2+0xc0>
     874:	00000093          	li	ra,0
     878:	00000d93          	li	s11,0
     87c:	00000d13          	li	s10,0
     880:	00000c13          	li	s8,0
     884:	00000b93          	li	s7,0
     888:	00000b13          	li	s6,0
     88c:	00000f13          	li	t5,0
     890:	00000e93          	li	t4,0
     894:	00000293          	li	t0,0
     898:	00000893          	li	a7,0
     89c:	00000813          	li	a6,0
     8a0:	00000693          	li	a3,0
     8a4:	00000593          	li	a1,0
     8a8:	00001537          	lui	a0,0x1
     8ac:	00a10533          	add	a0,sp,a0
     8b0:	94053023          	sd	zero,-1728(a0) # 940 <.LBB11_2+0xf0>
     8b4:	00001537          	lui	a0,0x1
     8b8:	00a10533          	add	a0,sp,a0
     8bc:	94053423          	sd	zero,-1720(a0) # 948 <.LBB11_2+0xf8>
     8c0:	00001537          	lui	a0,0x1
     8c4:	00a10533          	add	a0,sp,a0
     8c8:	94053823          	sd	zero,-1712(a0) # 950 <.LBB11_2+0x100>
     8cc:	00001537          	lui	a0,0x1
     8d0:	00a10533          	add	a0,sp,a0
     8d4:	94053c23          	sd	zero,-1704(a0) # 958 <.LBB11_2+0x108>
     8d8:	00001537          	lui	a0,0x1
     8dc:	00a10533          	add	a0,sp,a0
     8e0:	96053023          	sd	zero,-1696(a0) # 960 <.LBB11_2+0x110>
     8e4:	00001537          	lui	a0,0x1
     8e8:	00a10533          	add	a0,sp,a0
     8ec:	96053423          	sd	zero,-1688(a0) # 968 <.LBB11_2+0x118>
     8f0:	00001537          	lui	a0,0x1
     8f4:	00a10533          	add	a0,sp,a0
     8f8:	96053823          	sd	zero,-1680(a0) # 970 <.LBB11_2+0x120>
     8fc:	00001537          	lui	a0,0x1
     900:	00a10533          	add	a0,sp,a0
     904:	96053c23          	sd	zero,-1672(a0) # 978 <.LBB11_2+0x128>
     908:	7ff10513          	addi	a0,sp,2047
     90c:	18150513          	addi	a0,a0,385
     910:	00052023          	sw	zero,0(a0)
     914:	00001537          	lui	a0,0x1
     918:	00a10533          	add	a0,sp,a0
     91c:	98052223          	sw	zero,-1660(a0) # 984 <.LBB11_2+0x134>
     920:	00001537          	lui	a0,0x1
     924:	00a10533          	add	a0,sp,a0
     928:	98053423          	sd	zero,-1656(a0) # 988 <.LBB11_2+0x138>
     92c:	00001537          	lui	a0,0x1
     930:	00a10533          	add	a0,sp,a0
     934:	98053823          	sd	zero,-1648(a0) # 990 <.LBB11_2+0x140>
     938:	00001537          	lui	a0,0x1
     93c:	00a10533          	add	a0,sp,a0
     940:	98053c23          	sd	zero,-1640(a0) # 998 <.LBB11_2+0x148>
     944:	00001537          	lui	a0,0x1
     948:	00a10533          	add	a0,sp,a0
     94c:	9a053023          	sd	zero,-1632(a0) # 9a0 <.LBB11_2+0x150>
     950:	00001537          	lui	a0,0x1
     954:	00a10533          	add	a0,sp,a0
     958:	9a053423          	sd	zero,-1624(a0) # 9a8 <.LBB11_2+0x158>
     95c:	00001537          	lui	a0,0x1
     960:	00a10533          	add	a0,sp,a0
     964:	9a053823          	sd	zero,-1616(a0) # 9b0 <.LBB11_2+0x160>
     968:	00001537          	lui	a0,0x1
     96c:	00a10533          	add	a0,sp,a0
     970:	9a053c23          	sd	zero,-1608(a0) # 9b8 <.LBB11_2+0x168>
     974:	7ff10513          	addi	a0,sp,2047
     978:	1c150513          	addi	a0,a0,449
     97c:	00052023          	sw	zero,0(a0)
     980:	00001537          	lui	a0,0x1
     984:	00a10533          	add	a0,sp,a0
     988:	9c052223          	sw	zero,-1596(a0) # 9c4 <.LBB11_2+0x174>
     98c:	00001537          	lui	a0,0x1
     990:	00a10533          	add	a0,sp,a0
     994:	9c053423          	sd	zero,-1592(a0) # 9c8 <.LBB11_2+0x178>
     998:	00001537          	lui	a0,0x1
     99c:	00a10533          	add	a0,sp,a0
     9a0:	9c053823          	sd	zero,-1584(a0) # 9d0 <.LBB11_2+0x180>
     9a4:	00001537          	lui	a0,0x1
     9a8:	00a10533          	add	a0,sp,a0
     9ac:	9c053c23          	sd	zero,-1576(a0) # 9d8 <.LBB11_2+0x188>
     9b0:	00001537          	lui	a0,0x1
     9b4:	00a10533          	add	a0,sp,a0
     9b8:	9e053023          	sd	zero,-1568(a0) # 9e0 <.LBB11_2+0x190>
     9bc:	00001537          	lui	a0,0x1
     9c0:	00a10533          	add	a0,sp,a0
     9c4:	9e053423          	sd	zero,-1560(a0) # 9e8 <.LBB11_2+0x198>
     9c8:	00001537          	lui	a0,0x1
     9cc:	00a10533          	add	a0,sp,a0
     9d0:	9e053823          	sd	zero,-1552(a0) # 9f0 <.LBB11_2+0x1a0>
     9d4:	00001537          	lui	a0,0x1
     9d8:	00a10533          	add	a0,sp,a0
     9dc:	9e053c23          	sd	zero,-1544(a0) # 9f8 <.LBB11_2+0x1a8>
     9e0:	7ff10513          	addi	a0,sp,2047
     9e4:	20150513          	addi	a0,a0,513
     9e8:	00052023          	sw	zero,0(a0)
     9ec:	00001537          	lui	a0,0x1
     9f0:	00a10533          	add	a0,sp,a0
     9f4:	a0052223          	sw	zero,-1532(a0) # a04 <.LBB11_2+0x1b4>
     9f8:	00001537          	lui	a0,0x1
     9fc:	00a10533          	add	a0,sp,a0
     a00:	a0053423          	sd	zero,-1528(a0) # a08 <.LBB11_2+0x1b8>
     a04:	00001537          	lui	a0,0x1
     a08:	00a10533          	add	a0,sp,a0
     a0c:	a0053823          	sd	zero,-1520(a0) # a10 <.LBB11_2+0x1c0>
     a10:	00001537          	lui	a0,0x1
     a14:	00a10533          	add	a0,sp,a0
     a18:	a0053c23          	sd	zero,-1512(a0) # a18 <.LBB11_2+0x1c8>
     a1c:	00001537          	lui	a0,0x1
     a20:	00a10533          	add	a0,sp,a0
     a24:	a2053023          	sd	zero,-1504(a0) # a20 <.LBB11_2+0x1d0>
     a28:	00001537          	lui	a0,0x1
     a2c:	00a10533          	add	a0,sp,a0
     a30:	a2053423          	sd	zero,-1496(a0) # a28 <.LBB11_2+0x1d8>
     a34:	00001537          	lui	a0,0x1
     a38:	00a10533          	add	a0,sp,a0
     a3c:	a2053823          	sd	zero,-1488(a0) # a30 <.LBB11_2+0x1e0>
     a40:	00001537          	lui	a0,0x1
     a44:	00a10533          	add	a0,sp,a0
     a48:	a2053c23          	sd	zero,-1480(a0) # a38 <.LBB11_2+0x1e8>
     a4c:	7ff10513          	addi	a0,sp,2047
     a50:	24150513          	addi	a0,a0,577
     a54:	00052023          	sw	zero,0(a0)
     a58:	00001537          	lui	a0,0x1
     a5c:	00a10533          	add	a0,sp,a0
     a60:	a4052223          	sw	zero,-1468(a0) # a44 <.LBB11_2+0x1f4>
     a64:	00001537          	lui	a0,0x1
     a68:	00a10533          	add	a0,sp,a0
     a6c:	a4053423          	sd	zero,-1464(a0) # a48 <.LBB11_2+0x1f8>
     a70:	00001537          	lui	a0,0x1
     a74:	00a10533          	add	a0,sp,a0
     a78:	a4053823          	sd	zero,-1456(a0) # a50 <.LBB11_2+0x200>
     a7c:	00001537          	lui	a0,0x1
     a80:	00a10533          	add	a0,sp,a0
     a84:	a4053c23          	sd	zero,-1448(a0) # a58 <.LBB11_2+0x208>
     a88:	00001537          	lui	a0,0x1
     a8c:	00a10533          	add	a0,sp,a0
     a90:	a6053023          	sd	zero,-1440(a0) # a60 <.LBB11_2+0x210>
     a94:	00001537          	lui	a0,0x1
     a98:	00a10533          	add	a0,sp,a0
     a9c:	a6053423          	sd	zero,-1432(a0) # a68 <.LBB11_2+0x218>
     aa0:	00001537          	lui	a0,0x1
     aa4:	00a10533          	add	a0,sp,a0
     aa8:	a6053823          	sd	zero,-1424(a0) # a70 <.LBB11_2+0x220>
     aac:	00001537          	lui	a0,0x1
     ab0:	00a10533          	add	a0,sp,a0
     ab4:	a6053c23          	sd	zero,-1416(a0) # a78 <.LBB11_2+0x228>
     ab8:	7ff10513          	addi	a0,sp,2047
     abc:	28150513          	addi	a0,a0,641
     ac0:	00052023          	sw	zero,0(a0)
     ac4:	00001537          	lui	a0,0x1
     ac8:	00a10533          	add	a0,sp,a0
     acc:	a8052223          	sw	zero,-1404(a0) # a84 <.LBB11_2+0x234>
     ad0:	00001537          	lui	a0,0x1
     ad4:	00a10533          	add	a0,sp,a0
     ad8:	a8053423          	sd	zero,-1400(a0) # a88 <.LBB11_2+0x238>
     adc:	00001537          	lui	a0,0x1
     ae0:	00a10533          	add	a0,sp,a0
     ae4:	a8053823          	sd	zero,-1392(a0) # a90 <.LBB11_2+0x240>
     ae8:	00001537          	lui	a0,0x1
     aec:	00a10533          	add	a0,sp,a0
     af0:	a8053c23          	sd	zero,-1384(a0) # a98 <.LBB11_2+0x248>
     af4:	00001537          	lui	a0,0x1
     af8:	00a10533          	add	a0,sp,a0
     afc:	aa053023          	sd	zero,-1376(a0) # aa0 <.LBB11_2+0x250>
     b00:	00001537          	lui	a0,0x1
     b04:	00a10533          	add	a0,sp,a0
     b08:	aa053423          	sd	zero,-1368(a0) # aa8 <.LBB11_2+0x258>
     b0c:	00001537          	lui	a0,0x1
     b10:	00a10533          	add	a0,sp,a0
     b14:	aa053823          	sd	zero,-1360(a0) # ab0 <.LBB11_2+0x260>
     b18:	00001537          	lui	a0,0x1
     b1c:	00a10533          	add	a0,sp,a0
     b20:	aa053c23          	sd	zero,-1352(a0) # ab8 <.LBB11_2+0x268>
     b24:	7ff10513          	addi	a0,sp,2047
     b28:	2c150513          	addi	a0,a0,705
     b2c:	00052023          	sw	zero,0(a0)
     b30:	00001537          	lui	a0,0x1
     b34:	00a10533          	add	a0,sp,a0
     b38:	ac052223          	sw	zero,-1340(a0) # ac4 <.LBB11_2+0x274>
     b3c:	00001537          	lui	a0,0x1
     b40:	00a10533          	add	a0,sp,a0
     b44:	ac053423          	sd	zero,-1336(a0) # ac8 <.LBB11_2+0x278>
     b48:	00001537          	lui	a0,0x1
     b4c:	00a10533          	add	a0,sp,a0
     b50:	ac053823          	sd	zero,-1328(a0) # ad0 <.LBB11_2+0x280>
     b54:	00001537          	lui	a0,0x1
     b58:	00a10533          	add	a0,sp,a0
     b5c:	ac053c23          	sd	zero,-1320(a0) # ad8 <.LBB11_2+0x288>
     b60:	00001537          	lui	a0,0x1
     b64:	00a10533          	add	a0,sp,a0
     b68:	ae053023          	sd	zero,-1312(a0) # ae0 <.LBB11_2+0x290>
     b6c:	00001537          	lui	a0,0x1
     b70:	00a10533          	add	a0,sp,a0
     b74:	ae053423          	sd	zero,-1304(a0) # ae8 <.LBB11_2+0x298>
     b78:	00001537          	lui	a0,0x1
     b7c:	00a10533          	add	a0,sp,a0
     b80:	ae053823          	sd	zero,-1296(a0) # af0 <.LBB11_2+0x2a0>
     b84:	00001537          	lui	a0,0x1
     b88:	00a10533          	add	a0,sp,a0
     b8c:	ae053c23          	sd	zero,-1288(a0) # af8 <.LBB11_2+0x2a8>
     b90:	7ff10513          	addi	a0,sp,2047
     b94:	30150513          	addi	a0,a0,769
     b98:	00052023          	sw	zero,0(a0)
     b9c:	00001537          	lui	a0,0x1
     ba0:	00a10533          	add	a0,sp,a0
     ba4:	b0052223          	sw	zero,-1276(a0) # b04 <.LBB11_2+0x2b4>
     ba8:	00001537          	lui	a0,0x1
     bac:	00a10533          	add	a0,sp,a0
     bb0:	b0053423          	sd	zero,-1272(a0) # b08 <.LBB11_2+0x2b8>
     bb4:	00001537          	lui	a0,0x1
     bb8:	00a10533          	add	a0,sp,a0
     bbc:	b0053823          	sd	zero,-1264(a0) # b10 <.LBB11_2+0x2c0>
     bc0:	00001537          	lui	a0,0x1
     bc4:	00a10533          	add	a0,sp,a0
     bc8:	b0053c23          	sd	zero,-1256(a0) # b18 <.LBB11_2+0x2c8>
     bcc:	00001537          	lui	a0,0x1
     bd0:	00a10533          	add	a0,sp,a0
     bd4:	b2053023          	sd	zero,-1248(a0) # b20 <.LBB11_2+0x2d0>
     bd8:	00001537          	lui	a0,0x1
     bdc:	00a10533          	add	a0,sp,a0
     be0:	b2053423          	sd	zero,-1240(a0) # b28 <.LBB11_2+0x2d8>
     be4:	00001537          	lui	a0,0x1
     be8:	00a10533          	add	a0,sp,a0
     bec:	97c52f83          	lw	t6,-1668(a0) # 97c <.LBB11_2+0x12c>
     bf0:	00001537          	lui	a0,0x1
     bf4:	00a10533          	add	a0,sp,a0
     bf8:	97852503          	lw	a0,-1672(a0) # 978 <.LBB11_2+0x128>
     bfc:	00001637          	lui	a2,0x1
     c00:	00c10633          	add	a2,sp,a2
     c04:	88a63023          	sd	a0,-1920(a2) # 880 <.LBB11_2+0x30>
     c08:	00001537          	lui	a0,0x1
     c0c:	00a10533          	add	a0,sp,a0
     c10:	97452483          	lw	s1,-1676(a0) # 974 <.LBB11_2+0x124>
     c14:	00001537          	lui	a0,0x1
     c18:	00a10533          	add	a0,sp,a0
     c1c:	97052503          	lw	a0,-1680(a0) # 970 <.LBB11_2+0x120>
     c20:	00001637          	lui	a2,0x1
     c24:	00c10633          	add	a2,sp,a2
     c28:	80a63c23          	sd	a0,-2024(a2) # 818 <.LBB11_1+0x6dc>
     c2c:	00001537          	lui	a0,0x1
     c30:	00a10533          	add	a0,sp,a0
     c34:	96c52503          	lw	a0,-1684(a0) # 96c <.LBB11_2+0x11c>
     c38:	7ea13023          	sd	a0,2016(sp)
     c3c:	00001537          	lui	a0,0x1
     c40:	00a10533          	add	a0,sp,a0
     c44:	96852503          	lw	a0,-1688(a0) # 968 <.LBB11_2+0x118>
     c48:	7aa13423          	sd	a0,1960(sp)
     c4c:	00001537          	lui	a0,0x1
     c50:	00a10533          	add	a0,sp,a0
     c54:	96452503          	lw	a0,-1692(a0) # 964 <.LBB11_2+0x114>
     c58:	76a13823          	sd	a0,1904(sp)
     c5c:	00001537          	lui	a0,0x1
     c60:	00a10533          	add	a0,sp,a0
     c64:	96052503          	lw	a0,-1696(a0) # 960 <.LBB11_2+0x110>
     c68:	72a13c23          	sd	a0,1848(sp)
     c6c:	00001537          	lui	a0,0x1
     c70:	00a10533          	add	a0,sp,a0
     c74:	95c52503          	lw	a0,-1700(a0) # 95c <.LBB11_2+0x10c>
     c78:	6ea13c23          	sd	a0,1784(sp)
     c7c:	00001537          	lui	a0,0x1
     c80:	00a10533          	add	a0,sp,a0
     c84:	95852503          	lw	a0,-1704(a0) # 958 <.LBB11_2+0x108>
     c88:	6ca13023          	sd	a0,1728(sp)
     c8c:	00001537          	lui	a0,0x1
     c90:	00a10533          	add	a0,sp,a0
     c94:	95452503          	lw	a0,-1708(a0) # 954 <.LBB11_2+0x104>
     c98:	68a13423          	sd	a0,1672(sp)
     c9c:	00001537          	lui	a0,0x1
     ca0:	00a10533          	add	a0,sp,a0
     ca4:	95052503          	lw	a0,-1712(a0) # 950 <.LBB11_2+0x100>
     ca8:	64a13823          	sd	a0,1616(sp)
     cac:	00001537          	lui	a0,0x1
     cb0:	00a10533          	add	a0,sp,a0
     cb4:	94c52503          	lw	a0,-1716(a0) # 94c <.LBB11_2+0xfc>
     cb8:	60a13c23          	sd	a0,1560(sp)
     cbc:	00001537          	lui	a0,0x1
     cc0:	00a10533          	add	a0,sp,a0
     cc4:	94852503          	lw	a0,-1720(a0) # 948 <.LBB11_2+0xf8>
     cc8:	5ea13023          	sd	a0,1504(sp)
     ccc:	00001537          	lui	a0,0x1
     cd0:	00a10533          	add	a0,sp,a0
     cd4:	94452503          	lw	a0,-1724(a0) # 944 <.LBB11_2+0xf4>
     cd8:	5aa13423          	sd	a0,1448(sp)
     cdc:	00001537          	lui	a0,0x1
     ce0:	00a10533          	add	a0,sp,a0
     ce4:	94052503          	lw	a0,-1728(a0) # 940 <.LBB11_2+0xf0>
     ce8:	56a13823          	sd	a0,1392(sp)
     cec:	00001537          	lui	a0,0x1
     cf0:	00a10533          	add	a0,sp,a0
     cf4:	9bc52503          	lw	a0,-1604(a0) # 9bc <.LBB11_2+0x16c>
     cf8:	00001637          	lui	a2,0x1
     cfc:	00c10633          	add	a2,sp,a2
     d00:	8aa63c23          	sd	a0,-1864(a2) # 8b8 <.LBB11_2+0x68>
     d04:	00001537          	lui	a0,0x1
     d08:	00a10533          	add	a0,sp,a0
     d0c:	9b852503          	lw	a0,-1608(a0) # 9b8 <.LBB11_2+0x168>
     d10:	00001637          	lui	a2,0x1
     d14:	00c10633          	add	a2,sp,a2
     d18:	88a63423          	sd	a0,-1912(a2) # 888 <.LBB11_2+0x38>
     d1c:	00001537          	lui	a0,0x1
     d20:	00a10533          	add	a0,sp,a0
     d24:	9b452503          	lw	a0,-1612(a0) # 9b4 <.LBB11_2+0x164>
     d28:	00001637          	lui	a2,0x1
     d2c:	00c10633          	add	a2,sp,a2
     d30:	84a63823          	sd	a0,-1968(a2) # 850 <.LBB11_2>
     d34:	00001537          	lui	a0,0x1
     d38:	00a10533          	add	a0,sp,a0
     d3c:	9b052503          	lw	a0,-1616(a0) # 9b0 <.LBB11_2+0x160>
     d40:	00001637          	lui	a2,0x1
     d44:	00c10633          	add	a2,sp,a2
     d48:	82a63023          	sd	a0,-2016(a2) # 820 <.LBB11_1+0x6e4>
     d4c:	00001537          	lui	a0,0x1
     d50:	00a10533          	add	a0,sp,a0
     d54:	9ac52503          	lw	a0,-1620(a0) # 9ac <.LBB11_2+0x15c>
     d58:	7ea13423          	sd	a0,2024(sp)
     d5c:	00001537          	lui	a0,0x1
     d60:	00a10533          	add	a0,sp,a0
     d64:	9a852503          	lw	a0,-1624(a0) # 9a8 <.LBB11_2+0x158>
     d68:	7aa13823          	sd	a0,1968(sp)
     d6c:	00001537          	lui	a0,0x1
     d70:	00a10533          	add	a0,sp,a0
     d74:	9a452503          	lw	a0,-1628(a0) # 9a4 <.LBB11_2+0x154>
     d78:	76a13c23          	sd	a0,1912(sp)
     d7c:	00001537          	lui	a0,0x1
     d80:	00a10533          	add	a0,sp,a0
     d84:	9a052503          	lw	a0,-1632(a0) # 9a0 <.LBB11_2+0x150>
     d88:	74a13023          	sd	a0,1856(sp)
     d8c:	00001537          	lui	a0,0x1
     d90:	00a10533          	add	a0,sp,a0
     d94:	99c52503          	lw	a0,-1636(a0) # 99c <.LBB11_2+0x14c>
     d98:	70a13023          	sd	a0,1792(sp)
     d9c:	00001537          	lui	a0,0x1
     da0:	00a10533          	add	a0,sp,a0
     da4:	99852503          	lw	a0,-1640(a0) # 998 <.LBB11_2+0x148>
     da8:	6ca13423          	sd	a0,1736(sp)
     dac:	00001537          	lui	a0,0x1
     db0:	00a10533          	add	a0,sp,a0
     db4:	99452503          	lw	a0,-1644(a0) # 994 <.LBB11_2+0x144>
     db8:	68a13823          	sd	a0,1680(sp)
     dbc:	00001537          	lui	a0,0x1
     dc0:	00a10533          	add	a0,sp,a0
     dc4:	99052503          	lw	a0,-1648(a0) # 990 <.LBB11_2+0x140>
     dc8:	64a13c23          	sd	a0,1624(sp)
     dcc:	00001537          	lui	a0,0x1
     dd0:	00a10533          	add	a0,sp,a0
     dd4:	98c52503          	lw	a0,-1652(a0) # 98c <.LBB11_2+0x13c>
     dd8:	62a13023          	sd	a0,1568(sp)
     ddc:	00001537          	lui	a0,0x1
     de0:	00a10533          	add	a0,sp,a0
     de4:	98852503          	lw	a0,-1656(a0) # 988 <.LBB11_2+0x138>
     de8:	5ea13423          	sd	a0,1512(sp)
     dec:	00001537          	lui	a0,0x1
     df0:	00a10533          	add	a0,sp,a0
     df4:	98452503          	lw	a0,-1660(a0) # 984 <.LBB11_2+0x134>
     df8:	5aa13823          	sd	a0,1456(sp)
     dfc:	00001537          	lui	a0,0x1
     e00:	00a10533          	add	a0,sp,a0
     e04:	98052503          	lw	a0,-1664(a0) # 980 <.LBB11_2+0x130>
     e08:	56a13c23          	sd	a0,1400(sp)
     e0c:	00001537          	lui	a0,0x1
     e10:	00a10533          	add	a0,sp,a0
     e14:	9fc52503          	lw	a0,-1540(a0) # 9fc <.LBB11_2+0x1ac>
     e18:	7ea13c23          	sd	a0,2040(sp)
     e1c:	00001537          	lui	a0,0x1
     e20:	00a10533          	add	a0,sp,a0
     e24:	9f852503          	lw	a0,-1544(a0) # 9f8 <.LBB11_2+0x1a8>
     e28:	00001637          	lui	a2,0x1
     e2c:	00c10633          	add	a2,sp,a2
     e30:	88a63823          	sd	a0,-1904(a2) # 890 <.LBB11_2+0x40>
     e34:	00001537          	lui	a0,0x1
     e38:	00a10533          	add	a0,sp,a0
     e3c:	9f452503          	lw	a0,-1548(a0) # 9f4 <.LBB11_2+0x1a4>
     e40:	00001637          	lui	a2,0x1
     e44:	00c10633          	add	a2,sp,a2
     e48:	84a63c23          	sd	a0,-1960(a2) # 858 <.LBB11_2+0x8>
     e4c:	00001537          	lui	a0,0x1
     e50:	00a10533          	add	a0,sp,a0
     e54:	9f052503          	lw	a0,-1552(a0) # 9f0 <.LBB11_2+0x1a0>
     e58:	00001637          	lui	a2,0x1
     e5c:	00c10633          	add	a2,sp,a2
     e60:	82a63423          	sd	a0,-2008(a2) # 828 <.LBB11_1+0x6ec>
     e64:	00001537          	lui	a0,0x1
     e68:	00a10533          	add	a0,sp,a0
     e6c:	9ec52503          	lw	a0,-1556(a0) # 9ec <.LBB11_2+0x19c>
     e70:	7ea13823          	sd	a0,2032(sp)
     e74:	00001537          	lui	a0,0x1
     e78:	00a10533          	add	a0,sp,a0
     e7c:	9e852503          	lw	a0,-1560(a0) # 9e8 <.LBB11_2+0x198>
     e80:	7aa13c23          	sd	a0,1976(sp)
     e84:	00001537          	lui	a0,0x1
     e88:	00a10533          	add	a0,sp,a0
     e8c:	9e452503          	lw	a0,-1564(a0) # 9e4 <.LBB11_2+0x194>
     e90:	78a13023          	sd	a0,1920(sp)
     e94:	00001537          	lui	a0,0x1
     e98:	00a10533          	add	a0,sp,a0
     e9c:	9e052503          	lw	a0,-1568(a0) # 9e0 <.LBB11_2+0x190>
     ea0:	74a13423          	sd	a0,1864(sp)
     ea4:	00001537          	lui	a0,0x1
     ea8:	00a10533          	add	a0,sp,a0
     eac:	9dc52503          	lw	a0,-1572(a0) # 9dc <.LBB11_2+0x18c>
     eb0:	70a13423          	sd	a0,1800(sp)
     eb4:	00001537          	lui	a0,0x1
     eb8:	00a10533          	add	a0,sp,a0
     ebc:	9d852503          	lw	a0,-1576(a0) # 9d8 <.LBB11_2+0x188>
     ec0:	6ca13823          	sd	a0,1744(sp)
     ec4:	00001537          	lui	a0,0x1
     ec8:	00a10533          	add	a0,sp,a0
     ecc:	9d452503          	lw	a0,-1580(a0) # 9d4 <.LBB11_2+0x184>
     ed0:	68a13c23          	sd	a0,1688(sp)
     ed4:	00001537          	lui	a0,0x1
     ed8:	00a10533          	add	a0,sp,a0
     edc:	9d052503          	lw	a0,-1584(a0) # 9d0 <.LBB11_2+0x180>
     ee0:	66a13023          	sd	a0,1632(sp)
     ee4:	00001537          	lui	a0,0x1
     ee8:	00a10533          	add	a0,sp,a0
     eec:	9cc52503          	lw	a0,-1588(a0) # 9cc <.LBB11_2+0x17c>
     ef0:	62a13423          	sd	a0,1576(sp)
     ef4:	00001537          	lui	a0,0x1
     ef8:	00a10533          	add	a0,sp,a0
     efc:	9c852503          	lw	a0,-1592(a0) # 9c8 <.LBB11_2+0x178>
     f00:	5ea13823          	sd	a0,1520(sp)
     f04:	00001537          	lui	a0,0x1
     f08:	00a10533          	add	a0,sp,a0
     f0c:	9c452503          	lw	a0,-1596(a0) # 9c4 <.LBB11_2+0x174>
     f10:	5aa13c23          	sd	a0,1464(sp)
     f14:	00001537          	lui	a0,0x1
     f18:	00a10533          	add	a0,sp,a0
     f1c:	9c052503          	lw	a0,-1600(a0) # 9c0 <.LBB11_2+0x170>
     f20:	58a13023          	sd	a0,1408(sp)
     f24:	00001537          	lui	a0,0x1
     f28:	00a10533          	add	a0,sp,a0
     f2c:	a3c52503          	lw	a0,-1476(a0) # a3c <.LBB11_2+0x1ec>
     f30:	00001637          	lui	a2,0x1
     f34:	00c10633          	add	a2,sp,a2
     f38:	80a63023          	sd	a0,-2048(a2) # 800 <.LBB11_1+0x6c4>
     f3c:	00001537          	lui	a0,0x1
     f40:	00a10533          	add	a0,sp,a0
     f44:	a3852503          	lw	a0,-1480(a0) # a38 <.LBB11_2+0x1e8>
     f48:	00001637          	lui	a2,0x1
     f4c:	00c10633          	add	a2,sp,a2
     f50:	88a63c23          	sd	a0,-1896(a2) # 898 <.LBB11_2+0x48>
     f54:	00001537          	lui	a0,0x1
     f58:	00a10533          	add	a0,sp,a0
     f5c:	a3452503          	lw	a0,-1484(a0) # a34 <.LBB11_2+0x1e4>
     f60:	00001637          	lui	a2,0x1
     f64:	00c10633          	add	a2,sp,a2
     f68:	86a63023          	sd	a0,-1952(a2) # 860 <.LBB11_2+0x10>
     f6c:	00001537          	lui	a0,0x1
     f70:	00a10533          	add	a0,sp,a0
     f74:	a3052503          	lw	a0,-1488(a0) # a30 <.LBB11_2+0x1e0>
     f78:	00001637          	lui	a2,0x1
     f7c:	00c10633          	add	a2,sp,a2
     f80:	82a63823          	sd	a0,-2000(a2) # 830 <.LBB11_1+0x6f4>
     f84:	00001537          	lui	a0,0x1
     f88:	00a10533          	add	a0,sp,a0
     f8c:	a2c52703          	lw	a4,-1492(a0) # a2c <.LBB11_2+0x1dc>
     f90:	00001537          	lui	a0,0x1
     f94:	00a10533          	add	a0,sp,a0
     f98:	a2852503          	lw	a0,-1496(a0) # a28 <.LBB11_2+0x1d8>
     f9c:	7ca13023          	sd	a0,1984(sp)
     fa0:	00001537          	lui	a0,0x1
     fa4:	00a10533          	add	a0,sp,a0
     fa8:	a2452503          	lw	a0,-1500(a0) # a24 <.LBB11_2+0x1d4>
     fac:	78a13423          	sd	a0,1928(sp)
     fb0:	00001537          	lui	a0,0x1
     fb4:	00a10533          	add	a0,sp,a0
     fb8:	a2052503          	lw	a0,-1504(a0) # a20 <.LBB11_2+0x1d0>
     fbc:	74a13823          	sd	a0,1872(sp)
     fc0:	00001537          	lui	a0,0x1
     fc4:	00a10533          	add	a0,sp,a0
     fc8:	a1c52503          	lw	a0,-1508(a0) # a1c <.LBB11_2+0x1cc>
     fcc:	70a13823          	sd	a0,1808(sp)
     fd0:	00001537          	lui	a0,0x1
     fd4:	00a10533          	add	a0,sp,a0
     fd8:	a1852503          	lw	a0,-1512(a0) # a18 <.LBB11_2+0x1c8>
     fdc:	6ca13c23          	sd	a0,1752(sp)
     fe0:	00001537          	lui	a0,0x1
     fe4:	00a10533          	add	a0,sp,a0
     fe8:	a1452503          	lw	a0,-1516(a0) # a14 <.LBB11_2+0x1c4>
     fec:	6aa13023          	sd	a0,1696(sp)
     ff0:	00001537          	lui	a0,0x1
     ff4:	00a10533          	add	a0,sp,a0
     ff8:	a1052503          	lw	a0,-1520(a0) # a10 <.LBB11_2+0x1c0>
     ffc:	66a13423          	sd	a0,1640(sp)
    1000:	00001537          	lui	a0,0x1
    1004:	00a10533          	add	a0,sp,a0
    1008:	a0c52503          	lw	a0,-1524(a0) # a0c <.LBB11_2+0x1bc>
    100c:	62a13823          	sd	a0,1584(sp)
    1010:	00001537          	lui	a0,0x1
    1014:	00a10533          	add	a0,sp,a0
    1018:	a0852503          	lw	a0,-1528(a0) # a08 <.LBB11_2+0x1b8>
    101c:	5ea13c23          	sd	a0,1528(sp)
    1020:	00001537          	lui	a0,0x1
    1024:	00a10533          	add	a0,sp,a0
    1028:	a0452503          	lw	a0,-1532(a0) # a04 <.LBB11_2+0x1b4>
    102c:	5ca13023          	sd	a0,1472(sp)
    1030:	00001537          	lui	a0,0x1
    1034:	00a10533          	add	a0,sp,a0
    1038:	a0052503          	lw	a0,-1536(a0) # a00 <.LBB11_2+0x1b0>
    103c:	58a13423          	sd	a0,1416(sp)
    1040:	00001537          	lui	a0,0x1
    1044:	00a10533          	add	a0,sp,a0
    1048:	a7c52503          	lw	a0,-1412(a0) # a7c <.LBB11_2+0x22c>
    104c:	00001637          	lui	a2,0x1
    1050:	00c10633          	add	a2,sp,a2
    1054:	80a63423          	sd	a0,-2040(a2) # 808 <.LBB11_1+0x6cc>
    1058:	00001537          	lui	a0,0x1
    105c:	00a10533          	add	a0,sp,a0
    1060:	a7852503          	lw	a0,-1416(a0) # a78 <.LBB11_2+0x228>
    1064:	00001637          	lui	a2,0x1
    1068:	00c10633          	add	a2,sp,a2
    106c:	8aa63023          	sd	a0,-1888(a2) # 8a0 <.LBB11_2+0x50>
    1070:	00001537          	lui	a0,0x1
    1074:	00a10533          	add	a0,sp,a0
    1078:	a7452503          	lw	a0,-1420(a0) # a74 <.LBB11_2+0x224>
    107c:	00001637          	lui	a2,0x1
    1080:	00c10633          	add	a2,sp,a2
    1084:	86a63423          	sd	a0,-1944(a2) # 868 <.LBB11_2+0x18>
    1088:	00001537          	lui	a0,0x1
    108c:	00a10533          	add	a0,sp,a0
    1090:	a7052503          	lw	a0,-1424(a0) # a70 <.LBB11_2+0x220>
    1094:	00001637          	lui	a2,0x1
    1098:	00c10633          	add	a2,sp,a2
    109c:	82a63c23          	sd	a0,-1992(a2) # 838 <.LBB11_1+0x6fc>
    10a0:	00001537          	lui	a0,0x1
    10a4:	00a10533          	add	a0,sp,a0
    10a8:	a6c52a03          	lw	s4,-1428(a0) # a6c <.LBB11_2+0x21c>
    10ac:	00001537          	lui	a0,0x1
    10b0:	00a10533          	add	a0,sp,a0
    10b4:	a6852503          	lw	a0,-1432(a0) # a68 <.LBB11_2+0x218>
    10b8:	7ca13423          	sd	a0,1992(sp)
    10bc:	00001537          	lui	a0,0x1
    10c0:	00a10533          	add	a0,sp,a0
    10c4:	a6452503          	lw	a0,-1436(a0) # a64 <.LBB11_2+0x214>
    10c8:	78a13823          	sd	a0,1936(sp)
    10cc:	00001537          	lui	a0,0x1
    10d0:	00a10533          	add	a0,sp,a0
    10d4:	a6052503          	lw	a0,-1440(a0) # a60 <.LBB11_2+0x210>
    10d8:	74a13c23          	sd	a0,1880(sp)
    10dc:	00001537          	lui	a0,0x1
    10e0:	00a10533          	add	a0,sp,a0
    10e4:	a5c52503          	lw	a0,-1444(a0) # a5c <.LBB11_2+0x20c>
    10e8:	70a13c23          	sd	a0,1816(sp)
    10ec:	00001537          	lui	a0,0x1
    10f0:	00a10533          	add	a0,sp,a0
    10f4:	a5852503          	lw	a0,-1448(a0) # a58 <.LBB11_2+0x208>
    10f8:	6ea13023          	sd	a0,1760(sp)
    10fc:	00001537          	lui	a0,0x1
    1100:	00a10533          	add	a0,sp,a0
    1104:	a5452503          	lw	a0,-1452(a0) # a54 <.LBB11_2+0x204>
    1108:	6aa13423          	sd	a0,1704(sp)
    110c:	00001537          	lui	a0,0x1
    1110:	00a10533          	add	a0,sp,a0
    1114:	a5052503          	lw	a0,-1456(a0) # a50 <.LBB11_2+0x200>
    1118:	66a13823          	sd	a0,1648(sp)
    111c:	00001537          	lui	a0,0x1
    1120:	00a10533          	add	a0,sp,a0
    1124:	a4c52503          	lw	a0,-1460(a0) # a4c <.LBB11_2+0x1fc>
    1128:	62a13c23          	sd	a0,1592(sp)
    112c:	00001537          	lui	a0,0x1
    1130:	00a10533          	add	a0,sp,a0
    1134:	a4852503          	lw	a0,-1464(a0) # a48 <.LBB11_2+0x1f8>
    1138:	60a13023          	sd	a0,1536(sp)
    113c:	00001537          	lui	a0,0x1
    1140:	00a10533          	add	a0,sp,a0
    1144:	a4452503          	lw	a0,-1468(a0) # a44 <.LBB11_2+0x1f4>
    1148:	5ca13423          	sd	a0,1480(sp)
    114c:	00001537          	lui	a0,0x1
    1150:	00a10533          	add	a0,sp,a0
    1154:	a4052503          	lw	a0,-1472(a0) # a40 <.LBB11_2+0x1f0>
    1158:	58a13823          	sd	a0,1424(sp)
    115c:	00001537          	lui	a0,0x1
    1160:	00a10533          	add	a0,sp,a0
    1164:	abc52503          	lw	a0,-1348(a0) # abc <.LBB11_2+0x26c>
    1168:	00001637          	lui	a2,0x1
    116c:	00c10633          	add	a2,sp,a2
    1170:	80a63823          	sd	a0,-2032(a2) # 810 <.LBB11_1+0x6d4>
    1174:	00001537          	lui	a0,0x1
    1178:	00a10533          	add	a0,sp,a0
    117c:	ab852503          	lw	a0,-1352(a0) # ab8 <.LBB11_2+0x268>
    1180:	00001637          	lui	a2,0x1
    1184:	00c10633          	add	a2,sp,a2
    1188:	8aa63423          	sd	a0,-1880(a2) # 8a8 <.LBB11_2+0x58>
    118c:	00001537          	lui	a0,0x1
    1190:	00a10533          	add	a0,sp,a0
    1194:	ab452503          	lw	a0,-1356(a0) # ab4 <.LBB11_2+0x264>
    1198:	00001637          	lui	a2,0x1
    119c:	00c10633          	add	a2,sp,a2
    11a0:	86a63823          	sd	a0,-1936(a2) # 870 <.LBB11_2+0x20>
    11a4:	00001537          	lui	a0,0x1
    11a8:	00a10533          	add	a0,sp,a0
    11ac:	ab052503          	lw	a0,-1360(a0) # ab0 <.LBB11_2+0x260>
    11b0:	00001637          	lui	a2,0x1
    11b4:	00c10633          	add	a2,sp,a2
    11b8:	84a63023          	sd	a0,-1984(a2) # 840 <.LBB11_1+0x704>
    11bc:	00001537          	lui	a0,0x1
    11c0:	00a10533          	add	a0,sp,a0
    11c4:	aac52983          	lw	s3,-1364(a0) # aac <.LBB11_2+0x25c>
    11c8:	00001537          	lui	a0,0x1
    11cc:	00a10533          	add	a0,sp,a0
    11d0:	aa852503          	lw	a0,-1368(a0) # aa8 <.LBB11_2+0x258>
    11d4:	7ca13823          	sd	a0,2000(sp)
    11d8:	00001537          	lui	a0,0x1
    11dc:	00a10533          	add	a0,sp,a0
    11e0:	aa452503          	lw	a0,-1372(a0) # aa4 <.LBB11_2+0x254>
    11e4:	78a13c23          	sd	a0,1944(sp)
    11e8:	00001537          	lui	a0,0x1
    11ec:	00a10533          	add	a0,sp,a0
    11f0:	aa052503          	lw	a0,-1376(a0) # aa0 <.LBB11_2+0x250>
    11f4:	76a13023          	sd	a0,1888(sp)
    11f8:	00001537          	lui	a0,0x1
    11fc:	00a10533          	add	a0,sp,a0
    1200:	a9c52503          	lw	a0,-1380(a0) # a9c <.LBB11_2+0x24c>
    1204:	72a13023          	sd	a0,1824(sp)
    1208:	00001537          	lui	a0,0x1
    120c:	00a10533          	add	a0,sp,a0
    1210:	a9852503          	lw	a0,-1384(a0) # a98 <.LBB11_2+0x248>
    1214:	6ea13423          	sd	a0,1768(sp)
    1218:	00001537          	lui	a0,0x1
    121c:	00a10533          	add	a0,sp,a0
    1220:	a9452503          	lw	a0,-1388(a0) # a94 <.LBB11_2+0x244>
    1224:	6aa13823          	sd	a0,1712(sp)
    1228:	00001537          	lui	a0,0x1
    122c:	00a10533          	add	a0,sp,a0
    1230:	a9052503          	lw	a0,-1392(a0) # a90 <.LBB11_2+0x240>
    1234:	66a13c23          	sd	a0,1656(sp)
    1238:	00001537          	lui	a0,0x1
    123c:	00a10533          	add	a0,sp,a0
    1240:	a8c52503          	lw	a0,-1396(a0) # a8c <.LBB11_2+0x23c>
    1244:	64a13023          	sd	a0,1600(sp)
    1248:	00001537          	lui	a0,0x1
    124c:	00a10533          	add	a0,sp,a0
    1250:	a8852503          	lw	a0,-1400(a0) # a88 <.LBB11_2+0x238>
    1254:	60a13423          	sd	a0,1544(sp)
    1258:	00001537          	lui	a0,0x1
    125c:	00a10533          	add	a0,sp,a0
    1260:	a8452503          	lw	a0,-1404(a0) # a84 <.LBB11_2+0x234>
    1264:	5ca13823          	sd	a0,1488(sp)
    1268:	00001537          	lui	a0,0x1
    126c:	00a10533          	add	a0,sp,a0
    1270:	a8052503          	lw	a0,-1408(a0) # a80 <.LBB11_2+0x230>
    1274:	58a13c23          	sd	a0,1432(sp)
    1278:	00001537          	lui	a0,0x1
    127c:	00a10533          	add	a0,sp,a0
    1280:	ac052503          	lw	a0,-1344(a0) # ac0 <.LBB11_2+0x270>
    1284:	72a13823          	sd	a0,1840(sp)
    1288:	00001537          	lui	a0,0x1
    128c:	00a10533          	add	a0,sp,a0
    1290:	afc52503          	lw	a0,-1284(a0) # afc <.LBB11_2+0x2ac>
    1294:	00001637          	lui	a2,0x1
    1298:	00c10633          	add	a2,sp,a2
    129c:	8aa63823          	sd	a0,-1872(a2) # 8b0 <.LBB11_2+0x60>
    12a0:	00001537          	lui	a0,0x1
    12a4:	00a10533          	add	a0,sp,a0
    12a8:	af852503          	lw	a0,-1288(a0) # af8 <.LBB11_2+0x2a8>
    12ac:	00001637          	lui	a2,0x1
    12b0:	00c10633          	add	a2,sp,a2
    12b4:	86a63c23          	sd	a0,-1928(a2) # 878 <.LBB11_2+0x28>
    12b8:	00001537          	lui	a0,0x1
    12bc:	00a10533          	add	a0,sp,a0
    12c0:	af452503          	lw	a0,-1292(a0) # af4 <.LBB11_2+0x2a4>
    12c4:	00001637          	lui	a2,0x1
    12c8:	00c10633          	add	a2,sp,a2
    12cc:	84a63423          	sd	a0,-1976(a2) # 848 <.LBB11_1+0x70c>
    12d0:	00001537          	lui	a0,0x1
    12d4:	00a10533          	add	a0,sp,a0
    12d8:	af052903          	lw	s2,-1296(a0) # af0 <.LBB11_2+0x2a0>
    12dc:	00001537          	lui	a0,0x1
    12e0:	00a10533          	add	a0,sp,a0
    12e4:	aec52503          	lw	a0,-1300(a0) # aec <.LBB11_2+0x29c>
    12e8:	7ca13c23          	sd	a0,2008(sp)
    12ec:	00001537          	lui	a0,0x1
    12f0:	00a10533          	add	a0,sp,a0
    12f4:	ae852503          	lw	a0,-1304(a0) # ae8 <.LBB11_2+0x298>
    12f8:	7aa13023          	sd	a0,1952(sp)
    12fc:	00001537          	lui	a0,0x1
    1300:	00a10533          	add	a0,sp,a0
    1304:	ae452503          	lw	a0,-1308(a0) # ae4 <.LBB11_2+0x294>
    1308:	76a13423          	sd	a0,1896(sp)
    130c:	00001537          	lui	a0,0x1
    1310:	00a10533          	add	a0,sp,a0
    1314:	ae052503          	lw	a0,-1312(a0) # ae0 <.LBB11_2+0x290>
    1318:	72a13423          	sd	a0,1832(sp)
    131c:	00001537          	lui	a0,0x1
    1320:	00a10533          	add	a0,sp,a0
    1324:	adc52503          	lw	a0,-1316(a0) # adc <.LBB11_2+0x28c>
    1328:	6ea13823          	sd	a0,1776(sp)
    132c:	00001537          	lui	a0,0x1
    1330:	00a10533          	add	a0,sp,a0
    1334:	ad852503          	lw	a0,-1320(a0) # ad8 <.LBB11_2+0x288>
    1338:	6aa13c23          	sd	a0,1720(sp)
    133c:	00001537          	lui	a0,0x1
    1340:	00a10533          	add	a0,sp,a0
    1344:	ad452503          	lw	a0,-1324(a0) # ad4 <.LBB11_2+0x284>
    1348:	68a13023          	sd	a0,1664(sp)
    134c:	00001537          	lui	a0,0x1
    1350:	00a10533          	add	a0,sp,a0
    1354:	ad052503          	lw	a0,-1328(a0) # ad0 <.LBB11_2+0x280>
    1358:	64a13423          	sd	a0,1608(sp)
    135c:	00001537          	lui	a0,0x1
    1360:	00a10533          	add	a0,sp,a0
    1364:	acc52503          	lw	a0,-1332(a0) # acc <.LBB11_2+0x27c>
    1368:	60a13823          	sd	a0,1552(sp)
    136c:	00001537          	lui	a0,0x1
    1370:	00a10533          	add	a0,sp,a0
    1374:	ac852503          	lw	a0,-1336(a0) # ac8 <.LBB11_2+0x278>
    1378:	5ca13c23          	sd	a0,1496(sp)
    137c:	00001537          	lui	a0,0x1
    1380:	00a10533          	add	a0,sp,a0
    1384:	ac452503          	lw	a0,-1340(a0) # ac4 <.LBB11_2+0x274>
    1388:	5aa13023          	sd	a0,1440(sp)
    138c:	00001537          	lui	a0,0x1
    1390:	00a10533          	add	a0,sp,a0
    1394:	b2053823          	sd	zero,-1232(a0) # b30 <.LBB11_2+0x2e0>
    1398:	00001537          	lui	a0,0x1
    139c:	00a10533          	add	a0,sp,a0
    13a0:	b2053c23          	sd	zero,-1224(a0) # b38 <.LBB11_2+0x2e8>
    13a4:	02000513          	li	a0,32
    13a8:	50f13c23          	sd	a5,1304(sp)
    13ac:	08813a83          	ld	s5,136(sp)

00000000000013b0 <.LBB11_3>:
    13b0:	54a13823          	sd	a0,1360(sp)
    13b4:	54e13c23          	sd	a4,1368(sp)
    13b8:	00001537          	lui	a0,0x1
    13bc:	00a10533          	add	a0,sp,a0
    13c0:	8c153023          	sd	ra,-1856(a0) # 8c0 <.LBB11_2+0x70>
    13c4:	00001537          	lui	a0,0x1
    13c8:	00a10533          	add	a0,sp,a0
    13cc:	8db53423          	sd	s11,-1848(a0) # 8c8 <.LBB11_2+0x78>
    13d0:	00001537          	lui	a0,0x1
    13d4:	00a10533          	add	a0,sp,a0
    13d8:	8da53823          	sd	s10,-1840(a0) # 8d0 <.LBB11_2+0x80>
    13dc:	00001537          	lui	a0,0x1
    13e0:	00a10533          	add	a0,sp,a0
    13e4:	8d853c23          	sd	s8,-1832(a0) # 8d8 <.LBB11_2+0x88>
    13e8:	00001537          	lui	a0,0x1
    13ec:	00a10533          	add	a0,sp,a0
    13f0:	91753c23          	sd	s7,-1768(a0) # 918 <.LBB11_2+0xc8>
    13f4:	00001537          	lui	a0,0x1
    13f8:	00a10533          	add	a0,sp,a0
    13fc:	8f653023          	sd	s6,-1824(a0) # 8e0 <.LBB11_2+0x90>
    1400:	00001537          	lui	a0,0x1
    1404:	00a10533          	add	a0,sp,a0
    1408:	8fe53423          	sd	t5,-1816(a0) # 8e8 <.LBB11_2+0x98>
    140c:	00001537          	lui	a0,0x1
    1410:	00a10533          	add	a0,sp,a0
    1414:	8fd53823          	sd	t4,-1808(a0) # 8f0 <.LBB11_2+0xa0>
    1418:	00001537          	lui	a0,0x1
    141c:	00a10533          	add	a0,sp,a0
    1420:	92553023          	sd	t0,-1760(a0) # 920 <.LBB11_2+0xd0>
    1424:	00001537          	lui	a0,0x1
    1428:	00a10533          	add	a0,sp,a0
    142c:	93153423          	sd	a7,-1752(a0) # 928 <.LBB11_2+0xd8>
    1430:	00001537          	lui	a0,0x1
    1434:	00a10533          	add	a0,sp,a0
    1438:	93053823          	sd	a6,-1744(a0) # 930 <.LBB11_2+0xe0>
    143c:	00001537          	lui	a0,0x1
    1440:	00a10533          	add	a0,sp,a0
    1444:	8ed53c23          	sd	a3,-1800(a0) # 8f8 <.LBB11_2+0xa8>
    1448:	00001537          	lui	a0,0x1
    144c:	00a10533          	add	a0,sp,a0
    1450:	92b53c23          	sd	a1,-1736(a0) # 938 <.LBB11_2+0xe8>
    1454:	f2078603          	lb	a2,-224(a5)
    1458:	f4078d03          	lb	s10,-192(a5)
    145c:	000a8b03          	lb	s6,0(s5)
    1460:	001a8b83          	lb	s7,1(s5)
    1464:	002a8c03          	lb	s8,2(s5)
    1468:	003a8503          	lb	a0,3(s5)
    146c:	004a8583          	lb	a1,4(s5)
    1470:	005a8803          	lb	a6,5(s5)
    1474:	006a8883          	lb	a7,6(s5)
    1478:	007a8c83          	lb	s9,7(s5)
    147c:	008a8d83          	lb	s11,8(s5)
    1480:	009a8083          	lb	ra,9(s5)
    1484:	00aa8683          	lb	a3,10(s5)
    1488:	00ba8283          	lb	t0,11(s5)
    148c:	00ca8303          	lb	t1,12(s5)
    1490:	00da8383          	lb	t2,13(s5)
    1494:	00ea8e03          	lb	t3,14(s5)
    1498:	00fa8e83          	lb	t4,15(s5)
    149c:	03860f33          	mul	t5,a2,s8
    14a0:	5e013703          	ld	a4,1504(sp)
    14a4:	00ef0733          	add	a4,t5,a4
    14a8:	5ee13023          	sd	a4,1504(sp)
    14ac:	03760f33          	mul	t5,a2,s7
    14b0:	5a813703          	ld	a4,1448(sp)
    14b4:	00ef0733          	add	a4,t5,a4
    14b8:	5ae13423          	sd	a4,1448(sp)
    14bc:	03660f33          	mul	t5,a2,s6
    14c0:	57013703          	ld	a4,1392(sp)
    14c4:	00ef0733          	add	a4,t5,a4
    14c8:	56e13823          	sd	a4,1392(sp)
    14cc:	02a60f33          	mul	t5,a2,a0
    14d0:	61813703          	ld	a4,1560(sp)
    14d4:	00ef0733          	add	a4,t5,a4
    14d8:	60e13c23          	sd	a4,1560(sp)
    14dc:	02b60f33          	mul	t5,a2,a1
    14e0:	65013703          	ld	a4,1616(sp)
    14e4:	00ef0733          	add	a4,t5,a4
    14e8:	64e13823          	sd	a4,1616(sp)
    14ec:	03060f33          	mul	t5,a2,a6
    14f0:	68813703          	ld	a4,1672(sp)
    14f4:	00ef0733          	add	a4,t5,a4
    14f8:	68e13423          	sd	a4,1672(sp)
    14fc:	03160f33          	mul	t5,a2,a7
    1500:	6c013703          	ld	a4,1728(sp)
    1504:	00ef0733          	add	a4,t5,a4
    1508:	6ce13023          	sd	a4,1728(sp)
    150c:	03960f33          	mul	t5,a2,s9
    1510:	6f813703          	ld	a4,1784(sp)
    1514:	00ef0733          	add	a4,t5,a4
    1518:	6ee13c23          	sd	a4,1784(sp)
    151c:	03b60f33          	mul	t5,a2,s11
    1520:	73813703          	ld	a4,1848(sp)
    1524:	00ef0733          	add	a4,t5,a4
    1528:	72e13c23          	sd	a4,1848(sp)
    152c:	02160f33          	mul	t5,a2,ra
    1530:	77013703          	ld	a4,1904(sp)
    1534:	00ef0733          	add	a4,t5,a4
    1538:	76e13823          	sd	a4,1904(sp)
    153c:	02d60f33          	mul	t5,a2,a3
    1540:	7a813703          	ld	a4,1960(sp)
    1544:	00ef0733          	add	a4,t5,a4
    1548:	7ae13423          	sd	a4,1960(sp)
    154c:	02560f33          	mul	t5,a2,t0
    1550:	7e013703          	ld	a4,2016(sp)
    1554:	00ef0733          	add	a4,t5,a4
    1558:	7ee13023          	sd	a4,2016(sp)
    155c:	02660f33          	mul	t5,a2,t1
    1560:	000a0713          	mv	a4,s4
    1564:	00098a13          	mv	s4,s3
    1568:	00090993          	mv	s3,s2
    156c:	00001937          	lui	s2,0x1
    1570:	01210933          	add	s2,sp,s2
    1574:	81893903          	ld	s2,-2024(s2) # 818 <.LBB11_1+0x6dc>
    1578:	012f0933          	add	s2,t5,s2
    157c:	00001f37          	lui	t5,0x1
    1580:	01e10f33          	add	t5,sp,t5
    1584:	812f3c23          	sd	s2,-2024(t5) # 818 <.LBB11_1+0x6dc>
    1588:	00098913          	mv	s2,s3
    158c:	000a0993          	mv	s3,s4
    1590:	00070a13          	mv	s4,a4
    1594:	02760f33          	mul	t5,a2,t2
    1598:	009f04b3          	add	s1,t5,s1
    159c:	56913023          	sd	s1,1376(sp)
    15a0:	03c60f33          	mul	t5,a2,t3
    15a4:	00001737          	lui	a4,0x1
    15a8:	00e10733          	add	a4,sp,a4
    15ac:	88073483          	ld	s1,-1920(a4) # 880 <.LBB11_2+0x30>
    15b0:	009f04b3          	add	s1,t5,s1
    15b4:	00001737          	lui	a4,0x1
    15b8:	00e10733          	add	a4,sp,a4
    15bc:	88973023          	sd	s1,-1920(a4) # 880 <.LBB11_2+0x30>
    15c0:	f6078f03          	lb	t5,-160(a5)
    15c4:	03d60633          	mul	a2,a2,t4
    15c8:	01f60fb3          	add	t6,a2,t6
    15cc:	57f13423          	sd	t6,1384(sp)
    15d0:	038d0633          	mul	a2,s10,s8
    15d4:	5e813703          	ld	a4,1512(sp)
    15d8:	00e60733          	add	a4,a2,a4
    15dc:	5ee13423          	sd	a4,1512(sp)
    15e0:	037d0633          	mul	a2,s10,s7
    15e4:	5b013703          	ld	a4,1456(sp)
    15e8:	00e60733          	add	a4,a2,a4
    15ec:	5ae13823          	sd	a4,1456(sp)
    15f0:	036d0633          	mul	a2,s10,s6
    15f4:	57813703          	ld	a4,1400(sp)
    15f8:	00e60733          	add	a4,a2,a4
    15fc:	56e13c23          	sd	a4,1400(sp)
    1600:	02ad0633          	mul	a2,s10,a0
    1604:	62013703          	ld	a4,1568(sp)
    1608:	00e60733          	add	a4,a2,a4
    160c:	62e13023          	sd	a4,1568(sp)
    1610:	02bd0633          	mul	a2,s10,a1
    1614:	65813703          	ld	a4,1624(sp)
    1618:	00e60733          	add	a4,a2,a4
    161c:	64e13c23          	sd	a4,1624(sp)
    1620:	030d0633          	mul	a2,s10,a6
    1624:	69013703          	ld	a4,1680(sp)
    1628:	00e60733          	add	a4,a2,a4
    162c:	68e13823          	sd	a4,1680(sp)
    1630:	031d0633          	mul	a2,s10,a7
    1634:	6c813703          	ld	a4,1736(sp)
    1638:	00e60733          	add	a4,a2,a4
    163c:	6ce13423          	sd	a4,1736(sp)
    1640:	039d0633          	mul	a2,s10,s9
    1644:	70013703          	ld	a4,1792(sp)
    1648:	00e60733          	add	a4,a2,a4
    164c:	70e13023          	sd	a4,1792(sp)
    1650:	03bd0633          	mul	a2,s10,s11
    1654:	74013703          	ld	a4,1856(sp)
    1658:	00e60733          	add	a4,a2,a4
    165c:	74e13023          	sd	a4,1856(sp)
    1660:	021d0633          	mul	a2,s10,ra
    1664:	77813703          	ld	a4,1912(sp)
    1668:	00e60733          	add	a4,a2,a4
    166c:	76e13c23          	sd	a4,1912(sp)
    1670:	02dd0633          	mul	a2,s10,a3
    1674:	7b013703          	ld	a4,1968(sp)
    1678:	00e60733          	add	a4,a2,a4
    167c:	7ae13823          	sd	a4,1968(sp)
    1680:	025d0633          	mul	a2,s10,t0
    1684:	7e813703          	ld	a4,2024(sp)
    1688:	00e60733          	add	a4,a2,a4
    168c:	7ee13423          	sd	a4,2024(sp)
    1690:	026d0633          	mul	a2,s10,t1
    1694:	00001737          	lui	a4,0x1
    1698:	00e10733          	add	a4,sp,a4
    169c:	82073f83          	ld	t6,-2016(a4) # 820 <.LBB11_1+0x6e4>
    16a0:	01f60fb3          	add	t6,a2,t6
    16a4:	00001637          	lui	a2,0x1
    16a8:	00c10633          	add	a2,sp,a2
    16ac:	83f63023          	sd	t6,-2016(a2) # 820 <.LBB11_1+0x6e4>
    16b0:	027d0633          	mul	a2,s10,t2
    16b4:	00001737          	lui	a4,0x1
    16b8:	00e10733          	add	a4,sp,a4
    16bc:	85073f83          	ld	t6,-1968(a4) # 850 <.LBB11_2>
    16c0:	01f60fb3          	add	t6,a2,t6
    16c4:	00001637          	lui	a2,0x1
    16c8:	00c10633          	add	a2,sp,a2
    16cc:	85f63823          	sd	t6,-1968(a2) # 850 <.LBB11_2>
    16d0:	03cd0633          	mul	a2,s10,t3
    16d4:	00001737          	lui	a4,0x1
    16d8:	00e10733          	add	a4,sp,a4
    16dc:	88873f83          	ld	t6,-1912(a4) # 888 <.LBB11_2+0x38>
    16e0:	01f60fb3          	add	t6,a2,t6
    16e4:	00001637          	lui	a2,0x1
    16e8:	00c10633          	add	a2,sp,a2
    16ec:	89f63423          	sd	t6,-1912(a2) # 888 <.LBB11_2+0x38>
    16f0:	f8078603          	lb	a2,-128(a5)
    16f4:	03dd0d33          	mul	s10,s10,t4
    16f8:	00001737          	lui	a4,0x1
    16fc:	00e10733          	add	a4,sp,a4
    1700:	8b873f83          	ld	t6,-1864(a4) # 8b8 <.LBB11_2+0x68>
    1704:	01fd0fb3          	add	t6,s10,t6
    1708:	00001737          	lui	a4,0x1
    170c:	00e10733          	add	a4,sp,a4
    1710:	8bf73c23          	sd	t6,-1864(a4) # 8b8 <.LBB11_2+0x68>
    1714:	038f0d33          	mul	s10,t5,s8
    1718:	5f013703          	ld	a4,1520(sp)
    171c:	00ed0733          	add	a4,s10,a4
    1720:	5ee13823          	sd	a4,1520(sp)
    1724:	037f0d33          	mul	s10,t5,s7
    1728:	5b813703          	ld	a4,1464(sp)
    172c:	00ed0733          	add	a4,s10,a4
    1730:	5ae13c23          	sd	a4,1464(sp)
    1734:	036f0d33          	mul	s10,t5,s6
    1738:	58013703          	ld	a4,1408(sp)
    173c:	00ed0733          	add	a4,s10,a4
    1740:	58e13023          	sd	a4,1408(sp)
    1744:	02af0d33          	mul	s10,t5,a0
    1748:	62813703          	ld	a4,1576(sp)
    174c:	00ed0733          	add	a4,s10,a4
    1750:	62e13423          	sd	a4,1576(sp)
    1754:	02bf0d33          	mul	s10,t5,a1
    1758:	66013703          	ld	a4,1632(sp)
    175c:	00ed0733          	add	a4,s10,a4
    1760:	66e13023          	sd	a4,1632(sp)
    1764:	030f0d33          	mul	s10,t5,a6
    1768:	69813703          	ld	a4,1688(sp)
    176c:	00ed0733          	add	a4,s10,a4
    1770:	68e13c23          	sd	a4,1688(sp)
    1774:	031f0d33          	mul	s10,t5,a7
    1778:	6d013703          	ld	a4,1744(sp)
    177c:	00ed0733          	add	a4,s10,a4
    1780:	6ce13823          	sd	a4,1744(sp)
    1784:	039f0d33          	mul	s10,t5,s9
    1788:	70813703          	ld	a4,1800(sp)
    178c:	00ed0733          	add	a4,s10,a4
    1790:	70e13423          	sd	a4,1800(sp)
    1794:	03bf0d33          	mul	s10,t5,s11
    1798:	74813703          	ld	a4,1864(sp)
    179c:	00ed0733          	add	a4,s10,a4
    17a0:	74e13423          	sd	a4,1864(sp)
    17a4:	021f0d33          	mul	s10,t5,ra
    17a8:	78013703          	ld	a4,1920(sp)
    17ac:	00ed0733          	add	a4,s10,a4
    17b0:	78e13023          	sd	a4,1920(sp)
    17b4:	02df0d33          	mul	s10,t5,a3
    17b8:	7b813703          	ld	a4,1976(sp)
    17bc:	00ed0733          	add	a4,s10,a4
    17c0:	7ae13c23          	sd	a4,1976(sp)
    17c4:	025f0d33          	mul	s10,t5,t0
    17c8:	7f013703          	ld	a4,2032(sp)
    17cc:	00ed0733          	add	a4,s10,a4
    17d0:	7ee13823          	sd	a4,2032(sp)
    17d4:	026f0d33          	mul	s10,t5,t1
    17d8:	00001737          	lui	a4,0x1
    17dc:	00e10733          	add	a4,sp,a4
    17e0:	82873f83          	ld	t6,-2008(a4) # 828 <.LBB11_1+0x6ec>
    17e4:	01fd0fb3          	add	t6,s10,t6
    17e8:	00001737          	lui	a4,0x1
    17ec:	00e10733          	add	a4,sp,a4
    17f0:	83f73423          	sd	t6,-2008(a4) # 828 <.LBB11_1+0x6ec>
    17f4:	027f0d33          	mul	s10,t5,t2
    17f8:	00001737          	lui	a4,0x1
    17fc:	00e10733          	add	a4,sp,a4
    1800:	85873f83          	ld	t6,-1960(a4) # 858 <.LBB11_2+0x8>
    1804:	01fd0fb3          	add	t6,s10,t6
    1808:	00001737          	lui	a4,0x1
    180c:	00e10733          	add	a4,sp,a4
    1810:	85f73c23          	sd	t6,-1960(a4) # 858 <.LBB11_2+0x8>
    1814:	03cf0d33          	mul	s10,t5,t3
    1818:	00001737          	lui	a4,0x1
    181c:	00e10733          	add	a4,sp,a4
    1820:	89073f83          	ld	t6,-1904(a4) # 890 <.LBB11_2+0x40>
    1824:	01fd0fb3          	add	t6,s10,t6
    1828:	00001737          	lui	a4,0x1
    182c:	00e10733          	add	a4,sp,a4
    1830:	89f73823          	sd	t6,-1904(a4) # 890 <.LBB11_2+0x40>
    1834:	fa078d03          	lb	s10,-96(a5)
    1838:	03df0f33          	mul	t5,t5,t4
    183c:	7f813703          	ld	a4,2040(sp)
    1840:	00ef0733          	add	a4,t5,a4
    1844:	7ee13c23          	sd	a4,2040(sp)
    1848:	55813703          	ld	a4,1368(sp)
    184c:	03860f33          	mul	t5,a2,s8
    1850:	5f813f83          	ld	t6,1528(sp)
    1854:	01ff0fb3          	add	t6,t5,t6
    1858:	5ff13c23          	sd	t6,1528(sp)
    185c:	03760f33          	mul	t5,a2,s7
    1860:	5c013f83          	ld	t6,1472(sp)
    1864:	01ff0fb3          	add	t6,t5,t6
    1868:	5df13023          	sd	t6,1472(sp)
    186c:	03660f33          	mul	t5,a2,s6
    1870:	58813f83          	ld	t6,1416(sp)
    1874:	01ff0fb3          	add	t6,t5,t6
    1878:	59f13423          	sd	t6,1416(sp)
    187c:	02a60f33          	mul	t5,a2,a0
    1880:	63013f83          	ld	t6,1584(sp)
    1884:	01ff0fb3          	add	t6,t5,t6
    1888:	63f13823          	sd	t6,1584(sp)
    188c:	02b60f33          	mul	t5,a2,a1
    1890:	66813f83          	ld	t6,1640(sp)
    1894:	01ff0fb3          	add	t6,t5,t6
    1898:	67f13423          	sd	t6,1640(sp)
    189c:	03060f33          	mul	t5,a2,a6
    18a0:	6a013f83          	ld	t6,1696(sp)
    18a4:	01ff0fb3          	add	t6,t5,t6
    18a8:	6bf13023          	sd	t6,1696(sp)
    18ac:	03160f33          	mul	t5,a2,a7
    18b0:	6d813f83          	ld	t6,1752(sp)
    18b4:	01ff0fb3          	add	t6,t5,t6
    18b8:	6df13c23          	sd	t6,1752(sp)
    18bc:	03960f33          	mul	t5,a2,s9
    18c0:	71013f83          	ld	t6,1808(sp)
    18c4:	01ff0fb3          	add	t6,t5,t6
    18c8:	71f13823          	sd	t6,1808(sp)
    18cc:	03b60f33          	mul	t5,a2,s11
    18d0:	75013f83          	ld	t6,1872(sp)
    18d4:	01ff0fb3          	add	t6,t5,t6
    18d8:	75f13823          	sd	t6,1872(sp)
    18dc:	02160f33          	mul	t5,a2,ra
    18e0:	78813f83          	ld	t6,1928(sp)
    18e4:	01ff0fb3          	add	t6,t5,t6
    18e8:	79f13423          	sd	t6,1928(sp)
    18ec:	02d60f33          	mul	t5,a2,a3
    18f0:	7c013f83          	ld	t6,1984(sp)
    18f4:	01ff0fb3          	add	t6,t5,t6
    18f8:	7df13023          	sd	t6,1984(sp)
    18fc:	02560f33          	mul	t5,a2,t0
    1900:	00ef0733          	add	a4,t5,a4
    1904:	02660f33          	mul	t5,a2,t1
    1908:	00001fb7          	lui	t6,0x1
    190c:	01f10fb3          	add	t6,sp,t6
    1910:	830fbf83          	ld	t6,-2000(t6) # 830 <.LBB11_1+0x6f4>
    1914:	01ff0fb3          	add	t6,t5,t6
    1918:	00001f37          	lui	t5,0x1
    191c:	01e10f33          	add	t5,sp,t5
    1920:	83ff3823          	sd	t6,-2000(t5) # 830 <.LBB11_1+0x6f4>
    1924:	02760f33          	mul	t5,a2,t2
    1928:	00001fb7          	lui	t6,0x1
    192c:	01f10fb3          	add	t6,sp,t6
    1930:	860fbf83          	ld	t6,-1952(t6) # 860 <.LBB11_2+0x10>
    1934:	01ff0fb3          	add	t6,t5,t6
    1938:	00001f37          	lui	t5,0x1
    193c:	01e10f33          	add	t5,sp,t5
    1940:	87ff3023          	sd	t6,-1952(t5) # 860 <.LBB11_2+0x10>
    1944:	03c60f33          	mul	t5,a2,t3
    1948:	00001fb7          	lui	t6,0x1
    194c:	01f10fb3          	add	t6,sp,t6
    1950:	898fbf83          	ld	t6,-1896(t6) # 898 <.LBB11_2+0x48>
    1954:	01ff0fb3          	add	t6,t5,t6
    1958:	00001f37          	lui	t5,0x1
    195c:	01e10f33          	add	t5,sp,t5
    1960:	89ff3c23          	sd	t6,-1896(t5) # 898 <.LBB11_2+0x48>
    1964:	fc078f03          	lb	t5,-64(a5)
    1968:	03d60633          	mul	a2,a2,t4
    196c:	00001fb7          	lui	t6,0x1
    1970:	01f10fb3          	add	t6,sp,t6
    1974:	800fbf83          	ld	t6,-2048(t6) # 800 <.LBB11_1+0x6c4>
    1978:	01f60fb3          	add	t6,a2,t6
    197c:	00001637          	lui	a2,0x1
    1980:	00c10633          	add	a2,sp,a2
    1984:	81f63023          	sd	t6,-2048(a2) # 800 <.LBB11_1+0x6c4>
    1988:	038d0633          	mul	a2,s10,s8
    198c:	60013f83          	ld	t6,1536(sp)
    1990:	01f60fb3          	add	t6,a2,t6
    1994:	61f13023          	sd	t6,1536(sp)
    1998:	037d0633          	mul	a2,s10,s7
    199c:	5c813f83          	ld	t6,1480(sp)
    19a0:	01f60fb3          	add	t6,a2,t6
    19a4:	5df13423          	sd	t6,1480(sp)
    19a8:	036d0633          	mul	a2,s10,s6
    19ac:	59013f83          	ld	t6,1424(sp)
    19b0:	01f60fb3          	add	t6,a2,t6
    19b4:	59f13823          	sd	t6,1424(sp)
    19b8:	02ad0633          	mul	a2,s10,a0
    19bc:	63813f83          	ld	t6,1592(sp)
    19c0:	01f60fb3          	add	t6,a2,t6
    19c4:	63f13c23          	sd	t6,1592(sp)
    19c8:	02bd0633          	mul	a2,s10,a1
    19cc:	67013f83          	ld	t6,1648(sp)
    19d0:	01f60fb3          	add	t6,a2,t6
    19d4:	67f13823          	sd	t6,1648(sp)
    19d8:	030d0633          	mul	a2,s10,a6
    19dc:	6a813f83          	ld	t6,1704(sp)
    19e0:	01f60fb3          	add	t6,a2,t6
    19e4:	6bf13423          	sd	t6,1704(sp)
    19e8:	031d0633          	mul	a2,s10,a7
    19ec:	6e013f83          	ld	t6,1760(sp)
    19f0:	01f60fb3          	add	t6,a2,t6
    19f4:	6ff13023          	sd	t6,1760(sp)
    19f8:	039d0633          	mul	a2,s10,s9
    19fc:	71813f83          	ld	t6,1816(sp)
    1a00:	01f60fb3          	add	t6,a2,t6
    1a04:	71f13c23          	sd	t6,1816(sp)
    1a08:	03bd0633          	mul	a2,s10,s11
    1a0c:	75813f83          	ld	t6,1880(sp)
    1a10:	01f60fb3          	add	t6,a2,t6
    1a14:	75f13c23          	sd	t6,1880(sp)
    1a18:	021d0633          	mul	a2,s10,ra
    1a1c:	79013f83          	ld	t6,1936(sp)
    1a20:	01f60fb3          	add	t6,a2,t6
    1a24:	79f13823          	sd	t6,1936(sp)
    1a28:	02dd0633          	mul	a2,s10,a3
    1a2c:	7c813f83          	ld	t6,1992(sp)
    1a30:	01f60fb3          	add	t6,a2,t6
    1a34:	7df13423          	sd	t6,1992(sp)
    1a38:	025d0633          	mul	a2,s10,t0
    1a3c:	01460a33          	add	s4,a2,s4
    1a40:	026d0633          	mul	a2,s10,t1
    1a44:	00001fb7          	lui	t6,0x1
    1a48:	01f10fb3          	add	t6,sp,t6
    1a4c:	838fbf83          	ld	t6,-1992(t6) # 838 <.LBB11_1+0x6fc>
    1a50:	01f60fb3          	add	t6,a2,t6
    1a54:	00001637          	lui	a2,0x1
    1a58:	00c10633          	add	a2,sp,a2
    1a5c:	83f63c23          	sd	t6,-1992(a2) # 838 <.LBB11_1+0x6fc>
    1a60:	027d0633          	mul	a2,s10,t2
    1a64:	00001fb7          	lui	t6,0x1
    1a68:	01f10fb3          	add	t6,sp,t6
    1a6c:	868fbf83          	ld	t6,-1944(t6) # 868 <.LBB11_2+0x18>
    1a70:	01f60fb3          	add	t6,a2,t6
    1a74:	00001637          	lui	a2,0x1
    1a78:	00c10633          	add	a2,sp,a2
    1a7c:	87f63423          	sd	t6,-1944(a2) # 868 <.LBB11_2+0x18>
    1a80:	03cd0633          	mul	a2,s10,t3
    1a84:	00001fb7          	lui	t6,0x1
    1a88:	01f10fb3          	add	t6,sp,t6
    1a8c:	8a0fbf83          	ld	t6,-1888(t6) # 8a0 <.LBB11_2+0x50>
    1a90:	01f60fb3          	add	t6,a2,t6
    1a94:	00001637          	lui	a2,0x1
    1a98:	00c10633          	add	a2,sp,a2
    1a9c:	8bf63023          	sd	t6,-1888(a2) # 8a0 <.LBB11_2+0x50>
    1aa0:	fe078603          	lb	a2,-32(a5)
    1aa4:	03dd0d33          	mul	s10,s10,t4
    1aa8:	00001fb7          	lui	t6,0x1
    1aac:	01f10fb3          	add	t6,sp,t6
    1ab0:	808fbf83          	ld	t6,-2040(t6) # 808 <.LBB11_1+0x6cc>
    1ab4:	01fd0fb3          	add	t6,s10,t6
    1ab8:	000014b7          	lui	s1,0x1
    1abc:	009104b3          	add	s1,sp,s1
    1ac0:	81f4b423          	sd	t6,-2040(s1) # 808 <.LBB11_1+0x6cc>
    1ac4:	038f0d33          	mul	s10,t5,s8
    1ac8:	60813f83          	ld	t6,1544(sp)
    1acc:	01fd0fb3          	add	t6,s10,t6
    1ad0:	61f13423          	sd	t6,1544(sp)
    1ad4:	037f0d33          	mul	s10,t5,s7
    1ad8:	5d013f83          	ld	t6,1488(sp)
    1adc:	01fd0fb3          	add	t6,s10,t6
    1ae0:	5df13823          	sd	t6,1488(sp)
    1ae4:	036f0d33          	mul	s10,t5,s6
    1ae8:	59813f83          	ld	t6,1432(sp)
    1aec:	01fd0fb3          	add	t6,s10,t6
    1af0:	59f13c23          	sd	t6,1432(sp)
    1af4:	02af0d33          	mul	s10,t5,a0
    1af8:	64013f83          	ld	t6,1600(sp)
    1afc:	01fd0fb3          	add	t6,s10,t6
    1b00:	65f13023          	sd	t6,1600(sp)
    1b04:	02bf0d33          	mul	s10,t5,a1
    1b08:	67813f83          	ld	t6,1656(sp)
    1b0c:	01fd0fb3          	add	t6,s10,t6
    1b10:	67f13c23          	sd	t6,1656(sp)
    1b14:	030f0d33          	mul	s10,t5,a6
    1b18:	6b013f83          	ld	t6,1712(sp)
    1b1c:	01fd0fb3          	add	t6,s10,t6
    1b20:	6bf13823          	sd	t6,1712(sp)
    1b24:	031f0d33          	mul	s10,t5,a7
    1b28:	6e813f83          	ld	t6,1768(sp)
    1b2c:	01fd0fb3          	add	t6,s10,t6
    1b30:	6ff13423          	sd	t6,1768(sp)
    1b34:	039f0d33          	mul	s10,t5,s9
    1b38:	72013f83          	ld	t6,1824(sp)
    1b3c:	01fd0fb3          	add	t6,s10,t6
    1b40:	73f13023          	sd	t6,1824(sp)
    1b44:	03bf0d33          	mul	s10,t5,s11
    1b48:	76013f83          	ld	t6,1888(sp)
    1b4c:	01fd0fb3          	add	t6,s10,t6
    1b50:	77f13023          	sd	t6,1888(sp)
    1b54:	021f0d33          	mul	s10,t5,ra
    1b58:	79813f83          	ld	t6,1944(sp)
    1b5c:	01fd0fb3          	add	t6,s10,t6
    1b60:	79f13c23          	sd	t6,1944(sp)
    1b64:	02df0d33          	mul	s10,t5,a3
    1b68:	7d013f83          	ld	t6,2000(sp)
    1b6c:	01fd0fb3          	add	t6,s10,t6
    1b70:	7df13823          	sd	t6,2000(sp)
    1b74:	025f0d33          	mul	s10,t5,t0
    1b78:	013d09b3          	add	s3,s10,s3
    1b7c:	026f0d33          	mul	s10,t5,t1
    1b80:	00001fb7          	lui	t6,0x1
    1b84:	01f10fb3          	add	t6,sp,t6
    1b88:	840fbf83          	ld	t6,-1984(t6) # 840 <.LBB11_1+0x704>
    1b8c:	01fd0fb3          	add	t6,s10,t6
    1b90:	000014b7          	lui	s1,0x1
    1b94:	009104b3          	add	s1,sp,s1
    1b98:	85f4b023          	sd	t6,-1984(s1) # 840 <.LBB11_1+0x704>
    1b9c:	027f0d33          	mul	s10,t5,t2
    1ba0:	00001fb7          	lui	t6,0x1
    1ba4:	01f10fb3          	add	t6,sp,t6
    1ba8:	870fbf83          	ld	t6,-1936(t6) # 870 <.LBB11_2+0x20>
    1bac:	01fd0fb3          	add	t6,s10,t6
    1bb0:	000014b7          	lui	s1,0x1
    1bb4:	009104b3          	add	s1,sp,s1
    1bb8:	87f4b823          	sd	t6,-1936(s1) # 870 <.LBB11_2+0x20>
    1bbc:	03cf0d33          	mul	s10,t5,t3
    1bc0:	00001fb7          	lui	t6,0x1
    1bc4:	01f10fb3          	add	t6,sp,t6
    1bc8:	8a8fbf83          	ld	t6,-1880(t6) # 8a8 <.LBB11_2+0x58>
    1bcc:	01fd0fb3          	add	t6,s10,t6
    1bd0:	000014b7          	lui	s1,0x1
    1bd4:	009104b3          	add	s1,sp,s1
    1bd8:	8bf4b423          	sd	t6,-1880(s1) # 8a8 <.LBB11_2+0x58>
    1bdc:	00078d03          	lb	s10,0(a5)
    1be0:	03df0f33          	mul	t5,t5,t4
    1be4:	00001fb7          	lui	t6,0x1
    1be8:	01f10fb3          	add	t6,sp,t6
    1bec:	810fbf83          	ld	t6,-2032(t6) # 810 <.LBB11_1+0x6d4>
    1bf0:	01ff0fb3          	add	t6,t5,t6
    1bf4:	00001f37          	lui	t5,0x1
    1bf8:	01e10f33          	add	t5,sp,t5
    1bfc:	81ff3823          	sd	t6,-2032(t5) # 810 <.LBB11_1+0x6d4>
    1c00:	03860f33          	mul	t5,a2,s8
    1c04:	5d813f83          	ld	t6,1496(sp)
    1c08:	01ff0fb3          	add	t6,t5,t6
    1c0c:	5df13c23          	sd	t6,1496(sp)
    1c10:	03760f33          	mul	t5,a2,s7
    1c14:	5a013f83          	ld	t6,1440(sp)
    1c18:	01ff0fb3          	add	t6,t5,t6
    1c1c:	5bf13023          	sd	t6,1440(sp)
    1c20:	03660f33          	mul	t5,a2,s6
    1c24:	73013f83          	ld	t6,1840(sp)
    1c28:	01ff0fb3          	add	t6,t5,t6
    1c2c:	73f13823          	sd	t6,1840(sp)
    1c30:	02a60f33          	mul	t5,a2,a0
    1c34:	61013f83          	ld	t6,1552(sp)
    1c38:	01ff0fb3          	add	t6,t5,t6
    1c3c:	61f13823          	sd	t6,1552(sp)
    1c40:	02b60f33          	mul	t5,a2,a1
    1c44:	64813f83          	ld	t6,1608(sp)
    1c48:	01ff0fb3          	add	t6,t5,t6
    1c4c:	65f13423          	sd	t6,1608(sp)
    1c50:	03060f33          	mul	t5,a2,a6
    1c54:	68013f83          	ld	t6,1664(sp)
    1c58:	01ff0fb3          	add	t6,t5,t6
    1c5c:	69f13023          	sd	t6,1664(sp)
    1c60:	03160f33          	mul	t5,a2,a7
    1c64:	6b813f83          	ld	t6,1720(sp)
    1c68:	01ff0fb3          	add	t6,t5,t6
    1c6c:	6bf13c23          	sd	t6,1720(sp)
    1c70:	03960f33          	mul	t5,a2,s9
    1c74:	6f013f83          	ld	t6,1776(sp)
    1c78:	01ff0fb3          	add	t6,t5,t6
    1c7c:	6ff13823          	sd	t6,1776(sp)
    1c80:	03b60f33          	mul	t5,a2,s11
    1c84:	72813f83          	ld	t6,1832(sp)
    1c88:	01ff0fb3          	add	t6,t5,t6
    1c8c:	73f13423          	sd	t6,1832(sp)
    1c90:	02160f33          	mul	t5,a2,ra
    1c94:	76813f83          	ld	t6,1896(sp)
    1c98:	01ff0fb3          	add	t6,t5,t6
    1c9c:	77f13423          	sd	t6,1896(sp)
    1ca0:	02d60f33          	mul	t5,a2,a3
    1ca4:	7a013f83          	ld	t6,1952(sp)
    1ca8:	01ff0fb3          	add	t6,t5,t6
    1cac:	7bf13023          	sd	t6,1952(sp)
    1cb0:	02560f33          	mul	t5,a2,t0
    1cb4:	7d813f83          	ld	t6,2008(sp)
    1cb8:	01ff0fb3          	add	t6,t5,t6
    1cbc:	7df13c23          	sd	t6,2008(sp)
    1cc0:	02660f33          	mul	t5,a2,t1
    1cc4:	012f0933          	add	s2,t5,s2
    1cc8:	02760f33          	mul	t5,a2,t2
    1ccc:	00001fb7          	lui	t6,0x1
    1cd0:	01f10fb3          	add	t6,sp,t6
    1cd4:	848fbf83          	ld	t6,-1976(t6) # 848 <.LBB11_1+0x70c>
    1cd8:	01ff0fb3          	add	t6,t5,t6
    1cdc:	00001f37          	lui	t5,0x1
    1ce0:	01e10f33          	add	t5,sp,t5
    1ce4:	85ff3423          	sd	t6,-1976(t5) # 848 <.LBB11_1+0x70c>
    1ce8:	03c60f33          	mul	t5,a2,t3
    1cec:	00001fb7          	lui	t6,0x1
    1cf0:	01f10fb3          	add	t6,sp,t6
    1cf4:	878fbf83          	ld	t6,-1928(t6) # 878 <.LBB11_2+0x28>
    1cf8:	01ff0fb3          	add	t6,t5,t6
    1cfc:	00001f37          	lui	t5,0x1
    1d00:	01e10f33          	add	t5,sp,t5
    1d04:	87ff3c23          	sd	t6,-1928(t5) # 878 <.LBB11_2+0x28>
    1d08:	03d60633          	mul	a2,a2,t4
    1d0c:	00001f37          	lui	t5,0x1
    1d10:	01e10f33          	add	t5,sp,t5
    1d14:	8b0f3f03          	ld	t5,-1872(t5) # 8b0 <.LBB11_2+0x60>
    1d18:	01e60f33          	add	t5,a2,t5
    1d1c:	00001637          	lui	a2,0x1
    1d20:	00c10633          	add	a2,sp,a2
    1d24:	8be63823          	sd	t5,-1872(a2) # 8b0 <.LBB11_2+0x60>
    1d28:	03dd0633          	mul	a2,s10,t4
    1d2c:	03cd0e33          	mul	t3,s10,t3
    1d30:	027d03b3          	mul	t2,s10,t2
    1d34:	026d0333          	mul	t1,s10,t1
    1d38:	025d02b3          	mul	t0,s10,t0
    1d3c:	02dd06b3          	mul	a3,s10,a3
    1d40:	021d0eb3          	mul	t4,s10,ra
    1d44:	00001f37          	lui	t5,0x1
    1d48:	01e10f33          	add	t5,sp,t5
    1d4c:	8c0f3083          	ld	ra,-1856(t5) # 8c0 <.LBB11_2+0x70>
    1d50:	03bd0f33          	mul	t5,s10,s11
    1d54:	00001fb7          	lui	t6,0x1
    1d58:	01f10fb3          	add	t6,sp,t6
    1d5c:	8c8fbd83          	ld	s11,-1848(t6) # 8c8 <.LBB11_2+0x78>
    1d60:	039d0cb3          	mul	s9,s10,s9
    1d64:	031d08b3          	mul	a7,s10,a7
    1d68:	030d0833          	mul	a6,s10,a6
    1d6c:	02bd05b3          	mul	a1,s10,a1
    1d70:	02ad0533          	mul	a0,s10,a0
    1d74:	036d0b33          	mul	s6,s10,s6
    1d78:	037d0bb3          	mul	s7,s10,s7
    1d7c:	038d0c33          	mul	s8,s10,s8
    1d80:	00001fb7          	lui	t6,0x1
    1d84:	01f10fb3          	add	t6,sp,t6
    1d88:	8d0fbd03          	ld	s10,-1840(t6) # 8d0 <.LBB11_2+0x80>
    1d8c:	00001fb7          	lui	t6,0x1
    1d90:	01f10fb3          	add	t6,sp,t6
    1d94:	910fbf83          	ld	t6,-1776(t6) # 910 <.LBB11_2+0xc0>
    1d98:	01fc0fb3          	add	t6,s8,t6
    1d9c:	000014b7          	lui	s1,0x1
    1da0:	009104b3          	add	s1,sp,s1
    1da4:	91f4b823          	sd	t6,-1776(s1) # 910 <.LBB11_2+0xc0>
    1da8:	00001fb7          	lui	t6,0x1
    1dac:	01f10fb3          	add	t6,sp,t6
    1db0:	908fbf83          	ld	t6,-1784(t6) # 908 <.LBB11_2+0xb8>
    1db4:	000014b7          	lui	s1,0x1
    1db8:	009104b3          	add	s1,sp,s1
    1dbc:	9004b483          	ld	s1,-1792(s1) # 900 <.LBB11_2+0xb0>
    1dc0:	00001c37          	lui	s8,0x1
    1dc4:	01810c33          	add	s8,sp,s8
    1dc8:	8d8c3c03          	ld	s8,-1832(s8) # 8d8 <.LBB11_2+0x88>
    1dcc:	01fb8fb3          	add	t6,s7,t6
    1dd0:	00001bb7          	lui	s7,0x1
    1dd4:	01710bb3          	add	s7,sp,s7
    1dd8:	91fbb423          	sd	t6,-1784(s7) # 908 <.LBB11_2+0xb8>
    1ddc:	56813f83          	ld	t6,1384(sp)
    1de0:	009b04b3          	add	s1,s6,s1
    1de4:	00001b37          	lui	s6,0x1
    1de8:	01610b33          	add	s6,sp,s6
    1dec:	909b3023          	sd	s1,-1792(s6) # 900 <.LBB11_2+0xb0>
    1df0:	56013483          	ld	s1,1376(sp)
    1df4:	00001b37          	lui	s6,0x1
    1df8:	01610b33          	add	s6,sp,s6
    1dfc:	8e0b3b03          	ld	s6,-1824(s6) # 8e0 <.LBB11_2+0x90>
    1e00:	001500b3          	add	ra,a0,ra
    1e04:	01b58db3          	add	s11,a1,s11
    1e08:	01a80d33          	add	s10,a6,s10
    1e0c:	01888c33          	add	s8,a7,s8
    1e10:	00001537          	lui	a0,0x1
    1e14:	00a10533          	add	a0,sp,a0
    1e18:	91853503          	ld	a0,-1768(a0) # 918 <.LBB11_2+0xc8>
    1e1c:	00ac8533          	add	a0,s9,a0
    1e20:	000015b7          	lui	a1,0x1
    1e24:	00b105b3          	add	a1,sp,a1
    1e28:	90a5bc23          	sd	a0,-1768(a1) # 918 <.LBB11_2+0xc8>
    1e2c:	00001537          	lui	a0,0x1
    1e30:	00a10533          	add	a0,sp,a0
    1e34:	91853b83          	ld	s7,-1768(a0) # 918 <.LBB11_2+0xc8>
    1e38:	016f0b33          	add	s6,t5,s6
    1e3c:	00001537          	lui	a0,0x1
    1e40:	00a10533          	add	a0,sp,a0
    1e44:	8e853f03          	ld	t5,-1816(a0) # 8e8 <.LBB11_2+0x98>
    1e48:	01ee8f33          	add	t5,t4,t5
    1e4c:	00001537          	lui	a0,0x1
    1e50:	00a10533          	add	a0,sp,a0
    1e54:	8f053e83          	ld	t4,-1808(a0) # 8f0 <.LBB11_2+0xa0>
    1e58:	01d68eb3          	add	t4,a3,t4
    1e5c:	00001537          	lui	a0,0x1
    1e60:	00a10533          	add	a0,sp,a0
    1e64:	8f853683          	ld	a3,-1800(a0) # 8f8 <.LBB11_2+0xa8>
    1e68:	00001537          	lui	a0,0x1
    1e6c:	00a10533          	add	a0,sp,a0
    1e70:	92053503          	ld	a0,-1760(a0) # 920 <.LBB11_2+0xd0>
    1e74:	00a28533          	add	a0,t0,a0
    1e78:	000015b7          	lui	a1,0x1
    1e7c:	00b105b3          	add	a1,sp,a1
    1e80:	92a5b023          	sd	a0,-1760(a1) # 920 <.LBB11_2+0xd0>
    1e84:	00001537          	lui	a0,0x1
    1e88:	00a10533          	add	a0,sp,a0
    1e8c:	92053283          	ld	t0,-1760(a0) # 920 <.LBB11_2+0xd0>
    1e90:	00001537          	lui	a0,0x1
    1e94:	00a10533          	add	a0,sp,a0
    1e98:	92853503          	ld	a0,-1752(a0) # 928 <.LBB11_2+0xd8>
    1e9c:	00a30533          	add	a0,t1,a0
    1ea0:	000015b7          	lui	a1,0x1
    1ea4:	00b105b3          	add	a1,sp,a1
    1ea8:	92a5b423          	sd	a0,-1752(a1) # 928 <.LBB11_2+0xd8>
    1eac:	00001537          	lui	a0,0x1
    1eb0:	00a10533          	add	a0,sp,a0
    1eb4:	92853883          	ld	a7,-1752(a0) # 928 <.LBB11_2+0xd8>
    1eb8:	00001537          	lui	a0,0x1
    1ebc:	00a10533          	add	a0,sp,a0
    1ec0:	93053503          	ld	a0,-1744(a0) # 930 <.LBB11_2+0xe0>
    1ec4:	00a38533          	add	a0,t2,a0
    1ec8:	000015b7          	lui	a1,0x1
    1ecc:	00b105b3          	add	a1,sp,a1
    1ed0:	92a5b823          	sd	a0,-1744(a1) # 930 <.LBB11_2+0xe0>
    1ed4:	00001537          	lui	a0,0x1
    1ed8:	00a10533          	add	a0,sp,a0
    1edc:	93053803          	ld	a6,-1744(a0) # 930 <.LBB11_2+0xe0>
    1ee0:	00de06b3          	add	a3,t3,a3
    1ee4:	00001537          	lui	a0,0x1
    1ee8:	00a10533          	add	a0,sp,a0
    1eec:	93853503          	ld	a0,-1736(a0) # 938 <.LBB11_2+0xe8>
    1ef0:	00a60533          	add	a0,a2,a0
    1ef4:	000015b7          	lui	a1,0x1
    1ef8:	00b105b3          	add	a1,sp,a1
    1efc:	92a5bc23          	sd	a0,-1736(a1) # 938 <.LBB11_2+0xe8>
    1f00:	55013503          	ld	a0,1360(sp)
    1f04:	000015b7          	lui	a1,0x1
    1f08:	00b105b3          	add	a1,sp,a1
    1f0c:	9385b583          	ld	a1,-1736(a1) # 938 <.LBB11_2+0xe8>
    1f10:	010a8a93          	addi	s5,s5,16
    1f14:	fff50513          	addi	a0,a0,-1
    1f18:	00178793          	addi	a5,a5,1
    1f1c:	c8051a63          	bnez	a0,13b0 <.LBB11_3>
    1f20:	57013503          	ld	a0,1392(sp)
    1f24:	00001637          	lui	a2,0x1
    1f28:	00c10633          	add	a2,sp,a2
    1f2c:	94a62023          	sw	a0,-1728(a2) # 940 <.LBB11_2+0xf0>
    1f30:	5a813503          	ld	a0,1448(sp)
    1f34:	00001637          	lui	a2,0x1
    1f38:	00c10633          	add	a2,sp,a2
    1f3c:	94a62223          	sw	a0,-1724(a2) # 944 <.LBB11_2+0xf4>
    1f40:	5e013503          	ld	a0,1504(sp)
    1f44:	00001637          	lui	a2,0x1
    1f48:	00c10633          	add	a2,sp,a2
    1f4c:	94a62423          	sw	a0,-1720(a2) # 948 <.LBB11_2+0xf8>
    1f50:	61813503          	ld	a0,1560(sp)
    1f54:	00001637          	lui	a2,0x1
    1f58:	00c10633          	add	a2,sp,a2
    1f5c:	94a62623          	sw	a0,-1716(a2) # 94c <.LBB11_2+0xfc>
    1f60:	65013503          	ld	a0,1616(sp)
    1f64:	00001637          	lui	a2,0x1
    1f68:	00c10633          	add	a2,sp,a2
    1f6c:	94a62823          	sw	a0,-1712(a2) # 950 <.LBB11_2+0x100>
    1f70:	68813503          	ld	a0,1672(sp)
    1f74:	00001637          	lui	a2,0x1
    1f78:	00c10633          	add	a2,sp,a2
    1f7c:	94a62a23          	sw	a0,-1708(a2) # 954 <.LBB11_2+0x104>
    1f80:	6c013503          	ld	a0,1728(sp)
    1f84:	00001637          	lui	a2,0x1
    1f88:	00c10633          	add	a2,sp,a2
    1f8c:	94a62c23          	sw	a0,-1704(a2) # 958 <.LBB11_2+0x108>
    1f90:	6f813503          	ld	a0,1784(sp)
    1f94:	00001637          	lui	a2,0x1
    1f98:	00c10633          	add	a2,sp,a2
    1f9c:	94a62e23          	sw	a0,-1700(a2) # 95c <.LBB11_2+0x10c>
    1fa0:	73813503          	ld	a0,1848(sp)
    1fa4:	00001637          	lui	a2,0x1
    1fa8:	00c10633          	add	a2,sp,a2
    1fac:	96a62023          	sw	a0,-1696(a2) # 960 <.LBB11_2+0x110>
    1fb0:	77013503          	ld	a0,1904(sp)
    1fb4:	00001637          	lui	a2,0x1
    1fb8:	00c10633          	add	a2,sp,a2
    1fbc:	96a62223          	sw	a0,-1692(a2) # 964 <.LBB11_2+0x114>
    1fc0:	7a813503          	ld	a0,1960(sp)
    1fc4:	00001637          	lui	a2,0x1
    1fc8:	00c10633          	add	a2,sp,a2
    1fcc:	96a62423          	sw	a0,-1688(a2) # 968 <.LBB11_2+0x118>
    1fd0:	7e013503          	ld	a0,2016(sp)
    1fd4:	00001637          	lui	a2,0x1
    1fd8:	00c10633          	add	a2,sp,a2
    1fdc:	96a62623          	sw	a0,-1684(a2) # 96c <.LBB11_2+0x11c>
    1fe0:	00001537          	lui	a0,0x1
    1fe4:	00a10533          	add	a0,sp,a0
    1fe8:	81853503          	ld	a0,-2024(a0) # 818 <.LBB11_1+0x6dc>
    1fec:	00001637          	lui	a2,0x1
    1ff0:	00c10633          	add	a2,sp,a2
    1ff4:	96a62823          	sw	a0,-1680(a2) # 970 <.LBB11_2+0x120>
    1ff8:	00001537          	lui	a0,0x1
    1ffc:	00a10533          	add	a0,sp,a0
    2000:	96952a23          	sw	s1,-1676(a0) # 974 <.LBB11_2+0x124>
    2004:	00001537          	lui	a0,0x1
    2008:	00a10533          	add	a0,sp,a0
    200c:	88053503          	ld	a0,-1920(a0) # 880 <.LBB11_2+0x30>
    2010:	00001637          	lui	a2,0x1
    2014:	00c10633          	add	a2,sp,a2
    2018:	96a62c23          	sw	a0,-1672(a2) # 978 <.LBB11_2+0x128>
    201c:	00001537          	lui	a0,0x1
    2020:	00a10533          	add	a0,sp,a0
    2024:	97f52e23          	sw	t6,-1668(a0) # 97c <.LBB11_2+0x12c>
    2028:	7ff10513          	addi	a0,sp,2047
    202c:	18150513          	addi	a0,a0,385
    2030:	57813603          	ld	a2,1400(sp)
    2034:	00c52023          	sw	a2,0(a0)
    2038:	5b013503          	ld	a0,1456(sp)
    203c:	00001637          	lui	a2,0x1
    2040:	00c10633          	add	a2,sp,a2
    2044:	98a62223          	sw	a0,-1660(a2) # 984 <.LBB11_2+0x134>
    2048:	5e813503          	ld	a0,1512(sp)
    204c:	00001637          	lui	a2,0x1
    2050:	00c10633          	add	a2,sp,a2
    2054:	98a62423          	sw	a0,-1656(a2) # 988 <.LBB11_2+0x138>
    2058:	62013503          	ld	a0,1568(sp)
    205c:	00001637          	lui	a2,0x1
    2060:	00c10633          	add	a2,sp,a2
    2064:	98a62623          	sw	a0,-1652(a2) # 98c <.LBB11_2+0x13c>
    2068:	65813503          	ld	a0,1624(sp)
    206c:	00001637          	lui	a2,0x1
    2070:	00c10633          	add	a2,sp,a2
    2074:	98a62823          	sw	a0,-1648(a2) # 990 <.LBB11_2+0x140>
    2078:	69013503          	ld	a0,1680(sp)
    207c:	00001637          	lui	a2,0x1
    2080:	00c10633          	add	a2,sp,a2
    2084:	98a62a23          	sw	a0,-1644(a2) # 994 <.LBB11_2+0x144>
    2088:	6c813503          	ld	a0,1736(sp)
    208c:	00001637          	lui	a2,0x1
    2090:	00c10633          	add	a2,sp,a2
    2094:	98a62c23          	sw	a0,-1640(a2) # 998 <.LBB11_2+0x148>
    2098:	70013503          	ld	a0,1792(sp)
    209c:	00001637          	lui	a2,0x1
    20a0:	00c10633          	add	a2,sp,a2
    20a4:	98a62e23          	sw	a0,-1636(a2) # 99c <.LBB11_2+0x14c>
    20a8:	74013503          	ld	a0,1856(sp)
    20ac:	00001637          	lui	a2,0x1
    20b0:	00c10633          	add	a2,sp,a2
    20b4:	9aa62023          	sw	a0,-1632(a2) # 9a0 <.LBB11_2+0x150>
    20b8:	77813503          	ld	a0,1912(sp)
    20bc:	00001637          	lui	a2,0x1
    20c0:	00c10633          	add	a2,sp,a2
    20c4:	9aa62223          	sw	a0,-1628(a2) # 9a4 <.LBB11_2+0x154>
    20c8:	7b013503          	ld	a0,1968(sp)
    20cc:	00001637          	lui	a2,0x1
    20d0:	00c10633          	add	a2,sp,a2
    20d4:	9aa62423          	sw	a0,-1624(a2) # 9a8 <.LBB11_2+0x158>
    20d8:	7e813503          	ld	a0,2024(sp)
    20dc:	00001637          	lui	a2,0x1
    20e0:	00c10633          	add	a2,sp,a2
    20e4:	9aa62623          	sw	a0,-1620(a2) # 9ac <.LBB11_2+0x15c>
    20e8:	00001537          	lui	a0,0x1
    20ec:	00a10533          	add	a0,sp,a0
    20f0:	82053503          	ld	a0,-2016(a0) # 820 <.LBB11_1+0x6e4>
    20f4:	00001637          	lui	a2,0x1
    20f8:	00c10633          	add	a2,sp,a2
    20fc:	9aa62823          	sw	a0,-1616(a2) # 9b0 <.LBB11_2+0x160>
    2100:	00001537          	lui	a0,0x1
    2104:	00a10533          	add	a0,sp,a0
    2108:	85053503          	ld	a0,-1968(a0) # 850 <.LBB11_2>
    210c:	00001637          	lui	a2,0x1
    2110:	00c10633          	add	a2,sp,a2
    2114:	9aa62a23          	sw	a0,-1612(a2) # 9b4 <.LBB11_2+0x164>
    2118:	00001537          	lui	a0,0x1
    211c:	00a10533          	add	a0,sp,a0
    2120:	88853503          	ld	a0,-1912(a0) # 888 <.LBB11_2+0x38>
    2124:	00001637          	lui	a2,0x1
    2128:	00c10633          	add	a2,sp,a2
    212c:	9aa62c23          	sw	a0,-1608(a2) # 9b8 <.LBB11_2+0x168>
    2130:	00001537          	lui	a0,0x1
    2134:	00a10533          	add	a0,sp,a0
    2138:	8b853503          	ld	a0,-1864(a0) # 8b8 <.LBB11_2+0x68>
    213c:	00001637          	lui	a2,0x1
    2140:	00c10633          	add	a2,sp,a2
    2144:	9aa62e23          	sw	a0,-1604(a2) # 9bc <.LBB11_2+0x16c>
    2148:	7ff10513          	addi	a0,sp,2047
    214c:	1c150513          	addi	a0,a0,449
    2150:	58013603          	ld	a2,1408(sp)
    2154:	00c52023          	sw	a2,0(a0)
    2158:	5b813503          	ld	a0,1464(sp)
    215c:	00001637          	lui	a2,0x1
    2160:	00c10633          	add	a2,sp,a2
    2164:	9ca62223          	sw	a0,-1596(a2) # 9c4 <.LBB11_2+0x174>
    2168:	5f013503          	ld	a0,1520(sp)
    216c:	00001637          	lui	a2,0x1
    2170:	00c10633          	add	a2,sp,a2
    2174:	9ca62423          	sw	a0,-1592(a2) # 9c8 <.LBB11_2+0x178>
    2178:	62813503          	ld	a0,1576(sp)
    217c:	00001637          	lui	a2,0x1
    2180:	00c10633          	add	a2,sp,a2
    2184:	9ca62623          	sw	a0,-1588(a2) # 9cc <.LBB11_2+0x17c>
    2188:	66013503          	ld	a0,1632(sp)
    218c:	00001637          	lui	a2,0x1
    2190:	00c10633          	add	a2,sp,a2
    2194:	9ca62823          	sw	a0,-1584(a2) # 9d0 <.LBB11_2+0x180>
    2198:	69813503          	ld	a0,1688(sp)
    219c:	00001637          	lui	a2,0x1
    21a0:	00c10633          	add	a2,sp,a2
    21a4:	9ca62a23          	sw	a0,-1580(a2) # 9d4 <.LBB11_2+0x184>
    21a8:	6d013503          	ld	a0,1744(sp)
    21ac:	00001637          	lui	a2,0x1
    21b0:	00c10633          	add	a2,sp,a2
    21b4:	9ca62c23          	sw	a0,-1576(a2) # 9d8 <.LBB11_2+0x188>
    21b8:	70813503          	ld	a0,1800(sp)
    21bc:	00001637          	lui	a2,0x1
    21c0:	00c10633          	add	a2,sp,a2
    21c4:	9ca62e23          	sw	a0,-1572(a2) # 9dc <.LBB11_2+0x18c>
    21c8:	74813503          	ld	a0,1864(sp)
    21cc:	00001637          	lui	a2,0x1
    21d0:	00c10633          	add	a2,sp,a2
    21d4:	9ea62023          	sw	a0,-1568(a2) # 9e0 <.LBB11_2+0x190>
    21d8:	78013503          	ld	a0,1920(sp)
    21dc:	00001637          	lui	a2,0x1
    21e0:	00c10633          	add	a2,sp,a2
    21e4:	9ea62223          	sw	a0,-1564(a2) # 9e4 <.LBB11_2+0x194>
    21e8:	7b813503          	ld	a0,1976(sp)
    21ec:	00001637          	lui	a2,0x1
    21f0:	00c10633          	add	a2,sp,a2
    21f4:	9ea62423          	sw	a0,-1560(a2) # 9e8 <.LBB11_2+0x198>
    21f8:	7f013503          	ld	a0,2032(sp)
    21fc:	00001637          	lui	a2,0x1
    2200:	00c10633          	add	a2,sp,a2
    2204:	9ea62623          	sw	a0,-1556(a2) # 9ec <.LBB11_2+0x19c>
    2208:	00001537          	lui	a0,0x1
    220c:	00a10533          	add	a0,sp,a0
    2210:	82853503          	ld	a0,-2008(a0) # 828 <.LBB11_1+0x6ec>
    2214:	00001637          	lui	a2,0x1
    2218:	00c10633          	add	a2,sp,a2
    221c:	9ea62823          	sw	a0,-1552(a2) # 9f0 <.LBB11_2+0x1a0>
    2220:	00001537          	lui	a0,0x1
    2224:	00a10533          	add	a0,sp,a0
    2228:	85853503          	ld	a0,-1960(a0) # 858 <.LBB11_2+0x8>
    222c:	00001637          	lui	a2,0x1
    2230:	00c10633          	add	a2,sp,a2
    2234:	9ea62a23          	sw	a0,-1548(a2) # 9f4 <.LBB11_2+0x1a4>
    2238:	00001537          	lui	a0,0x1
    223c:	00a10533          	add	a0,sp,a0
    2240:	89053503          	ld	a0,-1904(a0) # 890 <.LBB11_2+0x40>
    2244:	00001637          	lui	a2,0x1
    2248:	00c10633          	add	a2,sp,a2
    224c:	9ea62c23          	sw	a0,-1544(a2) # 9f8 <.LBB11_2+0x1a8>
    2250:	7f813503          	ld	a0,2040(sp)
    2254:	00001637          	lui	a2,0x1
    2258:	00c10633          	add	a2,sp,a2
    225c:	9ea62e23          	sw	a0,-1540(a2) # 9fc <.LBB11_2+0x1ac>
    2260:	7ff10513          	addi	a0,sp,2047
    2264:	20150513          	addi	a0,a0,513
    2268:	58813603          	ld	a2,1416(sp)
    226c:	00c52023          	sw	a2,0(a0)
    2270:	5c013503          	ld	a0,1472(sp)
    2274:	00001637          	lui	a2,0x1
    2278:	00c10633          	add	a2,sp,a2
    227c:	a0a62223          	sw	a0,-1532(a2) # a04 <.LBB11_2+0x1b4>
    2280:	5f813503          	ld	a0,1528(sp)
    2284:	00001637          	lui	a2,0x1
    2288:	00c10633          	add	a2,sp,a2
    228c:	a0a62423          	sw	a0,-1528(a2) # a08 <.LBB11_2+0x1b8>
    2290:	63013503          	ld	a0,1584(sp)
    2294:	00001637          	lui	a2,0x1
    2298:	00c10633          	add	a2,sp,a2
    229c:	a0a62623          	sw	a0,-1524(a2) # a0c <.LBB11_2+0x1bc>
    22a0:	66813503          	ld	a0,1640(sp)
    22a4:	00001637          	lui	a2,0x1
    22a8:	00c10633          	add	a2,sp,a2
    22ac:	a0a62823          	sw	a0,-1520(a2) # a10 <.LBB11_2+0x1c0>
    22b0:	6a013503          	ld	a0,1696(sp)
    22b4:	00001637          	lui	a2,0x1
    22b8:	00c10633          	add	a2,sp,a2
    22bc:	a0a62a23          	sw	a0,-1516(a2) # a14 <.LBB11_2+0x1c4>
    22c0:	6d813503          	ld	a0,1752(sp)
    22c4:	00001637          	lui	a2,0x1
    22c8:	00c10633          	add	a2,sp,a2
    22cc:	a0a62c23          	sw	a0,-1512(a2) # a18 <.LBB11_2+0x1c8>
    22d0:	71013503          	ld	a0,1808(sp)
    22d4:	00001637          	lui	a2,0x1
    22d8:	00c10633          	add	a2,sp,a2
    22dc:	a0a62e23          	sw	a0,-1508(a2) # a1c <.LBB11_2+0x1cc>
    22e0:	75013503          	ld	a0,1872(sp)
    22e4:	00001637          	lui	a2,0x1
    22e8:	00c10633          	add	a2,sp,a2
    22ec:	a2a62023          	sw	a0,-1504(a2) # a20 <.LBB11_2+0x1d0>
    22f0:	78813503          	ld	a0,1928(sp)
    22f4:	00001637          	lui	a2,0x1
    22f8:	00c10633          	add	a2,sp,a2
    22fc:	a2a62223          	sw	a0,-1500(a2) # a24 <.LBB11_2+0x1d4>
    2300:	7c013503          	ld	a0,1984(sp)
    2304:	00001637          	lui	a2,0x1
    2308:	00c10633          	add	a2,sp,a2
    230c:	a2a62423          	sw	a0,-1496(a2) # a28 <.LBB11_2+0x1d8>
    2310:	00001537          	lui	a0,0x1
    2314:	00a10533          	add	a0,sp,a0
    2318:	a2e52623          	sw	a4,-1492(a0) # a2c <.LBB11_2+0x1dc>
    231c:	00001537          	lui	a0,0x1
    2320:	00a10533          	add	a0,sp,a0
    2324:	83053503          	ld	a0,-2000(a0) # 830 <.LBB11_1+0x6f4>
    2328:	00001637          	lui	a2,0x1
    232c:	00c10633          	add	a2,sp,a2
    2330:	a2a62823          	sw	a0,-1488(a2) # a30 <.LBB11_2+0x1e0>
    2334:	00001537          	lui	a0,0x1
    2338:	00a10533          	add	a0,sp,a0
    233c:	86053503          	ld	a0,-1952(a0) # 860 <.LBB11_2+0x10>
    2340:	00001637          	lui	a2,0x1
    2344:	00c10633          	add	a2,sp,a2
    2348:	a2a62a23          	sw	a0,-1484(a2) # a34 <.LBB11_2+0x1e4>
    234c:	00001537          	lui	a0,0x1
    2350:	00a10533          	add	a0,sp,a0
    2354:	89853503          	ld	a0,-1896(a0) # 898 <.LBB11_2+0x48>
    2358:	00001637          	lui	a2,0x1
    235c:	00c10633          	add	a2,sp,a2
    2360:	a2a62c23          	sw	a0,-1480(a2) # a38 <.LBB11_2+0x1e8>
    2364:	00001537          	lui	a0,0x1
    2368:	00a10533          	add	a0,sp,a0
    236c:	80053503          	ld	a0,-2048(a0) # 800 <.LBB11_1+0x6c4>
    2370:	00001637          	lui	a2,0x1
    2374:	00c10633          	add	a2,sp,a2
    2378:	a2a62e23          	sw	a0,-1476(a2) # a3c <.LBB11_2+0x1ec>
    237c:	7ff10513          	addi	a0,sp,2047
    2380:	24150513          	addi	a0,a0,577
    2384:	59013603          	ld	a2,1424(sp)
    2388:	00c52023          	sw	a2,0(a0)
    238c:	5c813503          	ld	a0,1480(sp)
    2390:	00001637          	lui	a2,0x1
    2394:	00c10633          	add	a2,sp,a2
    2398:	a4a62223          	sw	a0,-1468(a2) # a44 <.LBB11_2+0x1f4>
    239c:	60013503          	ld	a0,1536(sp)
    23a0:	00001637          	lui	a2,0x1
    23a4:	00c10633          	add	a2,sp,a2
    23a8:	a4a62423          	sw	a0,-1464(a2) # a48 <.LBB11_2+0x1f8>
    23ac:	63813503          	ld	a0,1592(sp)
    23b0:	00001637          	lui	a2,0x1
    23b4:	00c10633          	add	a2,sp,a2
    23b8:	a4a62623          	sw	a0,-1460(a2) # a4c <.LBB11_2+0x1fc>
    23bc:	67013503          	ld	a0,1648(sp)
    23c0:	00001637          	lui	a2,0x1
    23c4:	00c10633          	add	a2,sp,a2
    23c8:	a4a62823          	sw	a0,-1456(a2) # a50 <.LBB11_2+0x200>
    23cc:	6a813503          	ld	a0,1704(sp)
    23d0:	00001637          	lui	a2,0x1
    23d4:	00c10633          	add	a2,sp,a2
    23d8:	a4a62a23          	sw	a0,-1452(a2) # a54 <.LBB11_2+0x204>
    23dc:	6e013503          	ld	a0,1760(sp)
    23e0:	00001637          	lui	a2,0x1
    23e4:	00c10633          	add	a2,sp,a2
    23e8:	a4a62c23          	sw	a0,-1448(a2) # a58 <.LBB11_2+0x208>
    23ec:	71813503          	ld	a0,1816(sp)
    23f0:	00001637          	lui	a2,0x1
    23f4:	00c10633          	add	a2,sp,a2
    23f8:	a4a62e23          	sw	a0,-1444(a2) # a5c <.LBB11_2+0x20c>
    23fc:	75813503          	ld	a0,1880(sp)
    2400:	00001637          	lui	a2,0x1
    2404:	00c10633          	add	a2,sp,a2
    2408:	a6a62023          	sw	a0,-1440(a2) # a60 <.LBB11_2+0x210>
    240c:	79013503          	ld	a0,1936(sp)
    2410:	00001637          	lui	a2,0x1
    2414:	00c10633          	add	a2,sp,a2
    2418:	a6a62223          	sw	a0,-1436(a2) # a64 <.LBB11_2+0x214>
    241c:	7c813503          	ld	a0,1992(sp)
    2420:	00001637          	lui	a2,0x1
    2424:	00c10633          	add	a2,sp,a2
    2428:	a6a62423          	sw	a0,-1432(a2) # a68 <.LBB11_2+0x218>
    242c:	00001537          	lui	a0,0x1
    2430:	00a10533          	add	a0,sp,a0
    2434:	a7452623          	sw	s4,-1428(a0) # a6c <.LBB11_2+0x21c>
    2438:	00001537          	lui	a0,0x1
    243c:	00a10533          	add	a0,sp,a0
    2440:	83853503          	ld	a0,-1992(a0) # 838 <.LBB11_1+0x6fc>
    2444:	00001637          	lui	a2,0x1
    2448:	00c10633          	add	a2,sp,a2
    244c:	a6a62823          	sw	a0,-1424(a2) # a70 <.LBB11_2+0x220>
    2450:	00001537          	lui	a0,0x1
    2454:	00a10533          	add	a0,sp,a0
    2458:	86853503          	ld	a0,-1944(a0) # 868 <.LBB11_2+0x18>
    245c:	00001637          	lui	a2,0x1
    2460:	00c10633          	add	a2,sp,a2
    2464:	a6a62a23          	sw	a0,-1420(a2) # a74 <.LBB11_2+0x224>
    2468:	00001537          	lui	a0,0x1
    246c:	00a10533          	add	a0,sp,a0
    2470:	8a053503          	ld	a0,-1888(a0) # 8a0 <.LBB11_2+0x50>
    2474:	00001637          	lui	a2,0x1
    2478:	00c10633          	add	a2,sp,a2
    247c:	a6a62c23          	sw	a0,-1416(a2) # a78 <.LBB11_2+0x228>
    2480:	00001537          	lui	a0,0x1
    2484:	00a10533          	add	a0,sp,a0
    2488:	80853503          	ld	a0,-2040(a0) # 808 <.LBB11_1+0x6cc>
    248c:	00001637          	lui	a2,0x1
    2490:	00c10633          	add	a2,sp,a2
    2494:	a6a62e23          	sw	a0,-1412(a2) # a7c <.LBB11_2+0x22c>
    2498:	7ff10513          	addi	a0,sp,2047
    249c:	28150513          	addi	a0,a0,641
    24a0:	59813603          	ld	a2,1432(sp)
    24a4:	00c52023          	sw	a2,0(a0)
    24a8:	5d013503          	ld	a0,1488(sp)
    24ac:	00001637          	lui	a2,0x1
    24b0:	00c10633          	add	a2,sp,a2
    24b4:	a8a62223          	sw	a0,-1404(a2) # a84 <.LBB11_2+0x234>
    24b8:	60813503          	ld	a0,1544(sp)
    24bc:	00001637          	lui	a2,0x1
    24c0:	00c10633          	add	a2,sp,a2
    24c4:	a8a62423          	sw	a0,-1400(a2) # a88 <.LBB11_2+0x238>
    24c8:	64013503          	ld	a0,1600(sp)
    24cc:	00001637          	lui	a2,0x1
    24d0:	00c10633          	add	a2,sp,a2
    24d4:	a8a62623          	sw	a0,-1396(a2) # a8c <.LBB11_2+0x23c>
    24d8:	67813503          	ld	a0,1656(sp)
    24dc:	00001637          	lui	a2,0x1
    24e0:	00c10633          	add	a2,sp,a2
    24e4:	a8a62823          	sw	a0,-1392(a2) # a90 <.LBB11_2+0x240>
    24e8:	6b013503          	ld	a0,1712(sp)
    24ec:	00001637          	lui	a2,0x1
    24f0:	00c10633          	add	a2,sp,a2
    24f4:	a8a62a23          	sw	a0,-1388(a2) # a94 <.LBB11_2+0x244>
    24f8:	6e813503          	ld	a0,1768(sp)
    24fc:	00001637          	lui	a2,0x1
    2500:	00c10633          	add	a2,sp,a2
    2504:	a8a62c23          	sw	a0,-1384(a2) # a98 <.LBB11_2+0x248>
    2508:	72013503          	ld	a0,1824(sp)
    250c:	00001637          	lui	a2,0x1
    2510:	00c10633          	add	a2,sp,a2
    2514:	a8a62e23          	sw	a0,-1380(a2) # a9c <.LBB11_2+0x24c>
    2518:	76013503          	ld	a0,1888(sp)
    251c:	00001637          	lui	a2,0x1
    2520:	00c10633          	add	a2,sp,a2
    2524:	aaa62023          	sw	a0,-1376(a2) # aa0 <.LBB11_2+0x250>
    2528:	79813503          	ld	a0,1944(sp)
    252c:	00001637          	lui	a2,0x1
    2530:	00c10633          	add	a2,sp,a2
    2534:	aaa62223          	sw	a0,-1372(a2) # aa4 <.LBB11_2+0x254>
    2538:	7d013503          	ld	a0,2000(sp)
    253c:	00001637          	lui	a2,0x1
    2540:	00c10633          	add	a2,sp,a2
    2544:	aaa62423          	sw	a0,-1368(a2) # aa8 <.LBB11_2+0x258>
    2548:	00001537          	lui	a0,0x1
    254c:	00a10533          	add	a0,sp,a0
    2550:	ab352623          	sw	s3,-1364(a0) # aac <.LBB11_2+0x25c>
    2554:	00001537          	lui	a0,0x1
    2558:	00a10533          	add	a0,sp,a0
    255c:	84053503          	ld	a0,-1984(a0) # 840 <.LBB11_1+0x704>
    2560:	00001637          	lui	a2,0x1
    2564:	00c10633          	add	a2,sp,a2
    2568:	aaa62823          	sw	a0,-1360(a2) # ab0 <.LBB11_2+0x260>
    256c:	00001537          	lui	a0,0x1
    2570:	00a10533          	add	a0,sp,a0
    2574:	87053503          	ld	a0,-1936(a0) # 870 <.LBB11_2+0x20>
    2578:	00001637          	lui	a2,0x1
    257c:	00c10633          	add	a2,sp,a2
    2580:	aaa62a23          	sw	a0,-1356(a2) # ab4 <.LBB11_2+0x264>
    2584:	00001537          	lui	a0,0x1
    2588:	00a10533          	add	a0,sp,a0
    258c:	8a853503          	ld	a0,-1880(a0) # 8a8 <.LBB11_2+0x58>
    2590:	00001637          	lui	a2,0x1
    2594:	00c10633          	add	a2,sp,a2
    2598:	aaa62c23          	sw	a0,-1352(a2) # ab8 <.LBB11_2+0x268>
    259c:	00001537          	lui	a0,0x1
    25a0:	00a10533          	add	a0,sp,a0
    25a4:	81053503          	ld	a0,-2032(a0) # 810 <.LBB11_1+0x6d4>
    25a8:	00001637          	lui	a2,0x1
    25ac:	00c10633          	add	a2,sp,a2
    25b0:	aaa62e23          	sw	a0,-1348(a2) # abc <.LBB11_2+0x26c>
    25b4:	7ff10513          	addi	a0,sp,2047
    25b8:	2c150513          	addi	a0,a0,705
    25bc:	73013603          	ld	a2,1840(sp)
    25c0:	00c52023          	sw	a2,0(a0)
    25c4:	5a013503          	ld	a0,1440(sp)
    25c8:	00001637          	lui	a2,0x1
    25cc:	00c10633          	add	a2,sp,a2
    25d0:	aca62223          	sw	a0,-1340(a2) # ac4 <.LBB11_2+0x274>
    25d4:	5d813503          	ld	a0,1496(sp)
    25d8:	00001637          	lui	a2,0x1
    25dc:	00c10633          	add	a2,sp,a2
    25e0:	aca62423          	sw	a0,-1336(a2) # ac8 <.LBB11_2+0x278>
    25e4:	61013503          	ld	a0,1552(sp)
    25e8:	00001637          	lui	a2,0x1
    25ec:	00c10633          	add	a2,sp,a2
    25f0:	aca62623          	sw	a0,-1332(a2) # acc <.LBB11_2+0x27c>
    25f4:	64813503          	ld	a0,1608(sp)
    25f8:	00001637          	lui	a2,0x1
    25fc:	00c10633          	add	a2,sp,a2
    2600:	aca62823          	sw	a0,-1328(a2) # ad0 <.LBB11_2+0x280>
    2604:	68013503          	ld	a0,1664(sp)
    2608:	00001637          	lui	a2,0x1
    260c:	00c10633          	add	a2,sp,a2
    2610:	aca62a23          	sw	a0,-1324(a2) # ad4 <.LBB11_2+0x284>
    2614:	6b813503          	ld	a0,1720(sp)
    2618:	00001637          	lui	a2,0x1
    261c:	00c10633          	add	a2,sp,a2
    2620:	aca62c23          	sw	a0,-1320(a2) # ad8 <.LBB11_2+0x288>
    2624:	6f013503          	ld	a0,1776(sp)
    2628:	00001637          	lui	a2,0x1
    262c:	00c10633          	add	a2,sp,a2
    2630:	aca62e23          	sw	a0,-1316(a2) # adc <.LBB11_2+0x28c>
    2634:	72813503          	ld	a0,1832(sp)
    2638:	00001637          	lui	a2,0x1
    263c:	00c10633          	add	a2,sp,a2
    2640:	aea62023          	sw	a0,-1312(a2) # ae0 <.LBB11_2+0x290>
    2644:	76813503          	ld	a0,1896(sp)
    2648:	00001637          	lui	a2,0x1
    264c:	00c10633          	add	a2,sp,a2
    2650:	aea62223          	sw	a0,-1308(a2) # ae4 <.LBB11_2+0x294>
    2654:	7a013503          	ld	a0,1952(sp)
    2658:	00001637          	lui	a2,0x1
    265c:	00c10633          	add	a2,sp,a2
    2660:	aea62423          	sw	a0,-1304(a2) # ae8 <.LBB11_2+0x298>
    2664:	7d813503          	ld	a0,2008(sp)
    2668:	00001637          	lui	a2,0x1
    266c:	00c10633          	add	a2,sp,a2
    2670:	aea62623          	sw	a0,-1300(a2) # aec <.LBB11_2+0x29c>
    2674:	00001537          	lui	a0,0x1
    2678:	00a10533          	add	a0,sp,a0
    267c:	af252823          	sw	s2,-1296(a0) # af0 <.LBB11_2+0x2a0>
    2680:	00001537          	lui	a0,0x1
    2684:	00a10533          	add	a0,sp,a0
    2688:	84853503          	ld	a0,-1976(a0) # 848 <.LBB11_1+0x70c>
    268c:	00001637          	lui	a2,0x1
    2690:	00c10633          	add	a2,sp,a2
    2694:	aea62a23          	sw	a0,-1292(a2) # af4 <.LBB11_2+0x2a4>
    2698:	00001537          	lui	a0,0x1
    269c:	00a10533          	add	a0,sp,a0
    26a0:	87853503          	ld	a0,-1928(a0) # 878 <.LBB11_2+0x28>
    26a4:	00001637          	lui	a2,0x1
    26a8:	00c10633          	add	a2,sp,a2
    26ac:	aea62c23          	sw	a0,-1288(a2) # af8 <.LBB11_2+0x2a8>
    26b0:	00001537          	lui	a0,0x1
    26b4:	00a10533          	add	a0,sp,a0
    26b8:	8b053503          	ld	a0,-1872(a0) # 8b0 <.LBB11_2+0x60>
    26bc:	00001637          	lui	a2,0x1
    26c0:	00c10633          	add	a2,sp,a2
    26c4:	aea62e23          	sw	a0,-1284(a2) # afc <.LBB11_2+0x2ac>
    26c8:	7ff10513          	addi	a0,sp,2047
    26cc:	30150513          	addi	a0,a0,769
    26d0:	00001637          	lui	a2,0x1
    26d4:	00c10633          	add	a2,sp,a2
    26d8:	90063603          	ld	a2,-1792(a2) # 900 <.LBB11_2+0xb0>
    26dc:	00c52023          	sw	a2,0(a0)
    26e0:	00001537          	lui	a0,0x1
    26e4:	00a10533          	add	a0,sp,a0
    26e8:	90853503          	ld	a0,-1784(a0) # 908 <.LBB11_2+0xb8>
    26ec:	00001637          	lui	a2,0x1
    26f0:	00c10633          	add	a2,sp,a2
    26f4:	b0a62223          	sw	a0,-1276(a2) # b04 <.LBB11_2+0x2b4>
    26f8:	00001537          	lui	a0,0x1
    26fc:	00a10533          	add	a0,sp,a0
    2700:	91053503          	ld	a0,-1776(a0) # 910 <.LBB11_2+0xc0>
    2704:	00001637          	lui	a2,0x1
    2708:	00c10633          	add	a2,sp,a2
    270c:	b0a62423          	sw	a0,-1272(a2) # b08 <.LBB11_2+0x2b8>
    2710:	00001537          	lui	a0,0x1
    2714:	00a10533          	add	a0,sp,a0
    2718:	8c153023          	sd	ra,-1856(a0) # 8c0 <.LBB11_2+0x70>
    271c:	00001537          	lui	a0,0x1
    2720:	00a10533          	add	a0,sp,a0
    2724:	b0152623          	sw	ra,-1268(a0) # b0c <.LBB11_2+0x2bc>
    2728:	00001537          	lui	a0,0x1
    272c:	00a10533          	add	a0,sp,a0
    2730:	8db53423          	sd	s11,-1848(a0) # 8c8 <.LBB11_2+0x78>
    2734:	00001537          	lui	a0,0x1
    2738:	00a10533          	add	a0,sp,a0
    273c:	b1b52823          	sw	s11,-1264(a0) # b10 <.LBB11_2+0x2c0>
    2740:	00001537          	lui	a0,0x1
    2744:	00a10533          	add	a0,sp,a0
    2748:	8da53823          	sd	s10,-1840(a0) # 8d0 <.LBB11_2+0x80>
    274c:	00001537          	lui	a0,0x1
    2750:	00a10533          	add	a0,sp,a0
    2754:	b1a52a23          	sw	s10,-1260(a0) # b14 <.LBB11_2+0x2c4>
    2758:	00001537          	lui	a0,0x1
    275c:	00a10533          	add	a0,sp,a0
    2760:	8d853c23          	sd	s8,-1832(a0) # 8d8 <.LBB11_2+0x88>
    2764:	00001537          	lui	a0,0x1
    2768:	00a10533          	add	a0,sp,a0
    276c:	b1852c23          	sw	s8,-1256(a0) # b18 <.LBB11_2+0x2c8>
    2770:	00001537          	lui	a0,0x1
    2774:	00a10533          	add	a0,sp,a0
    2778:	b1752e23          	sw	s7,-1252(a0) # b1c <.LBB11_2+0x2cc>
    277c:	00001537          	lui	a0,0x1
    2780:	00a10533          	add	a0,sp,a0
    2784:	8f653023          	sd	s6,-1824(a0) # 8e0 <.LBB11_2+0x90>
    2788:	00001537          	lui	a0,0x1
    278c:	00a10533          	add	a0,sp,a0
    2790:	b3652023          	sw	s6,-1248(a0) # b20 <.LBB11_2+0x2d0>
    2794:	00001537          	lui	a0,0x1
    2798:	00a10533          	add	a0,sp,a0
    279c:	8fe53423          	sd	t5,-1816(a0) # 8e8 <.LBB11_2+0x98>
    27a0:	00001537          	lui	a0,0x1
    27a4:	00a10533          	add	a0,sp,a0
    27a8:	b3e52223          	sw	t5,-1244(a0) # b24 <.LBB11_2+0x2d4>
    27ac:	00001537          	lui	a0,0x1
    27b0:	00a10533          	add	a0,sp,a0
    27b4:	8fd53823          	sd	t4,-1808(a0) # 8f0 <.LBB11_2+0xa0>
    27b8:	00001537          	lui	a0,0x1
    27bc:	00a10533          	add	a0,sp,a0
    27c0:	b3d52423          	sw	t4,-1240(a0) # b28 <.LBB11_2+0x2d8>
    27c4:	00001537          	lui	a0,0x1
    27c8:	00a10533          	add	a0,sp,a0
    27cc:	b2552623          	sw	t0,-1236(a0) # b2c <.LBB11_2+0x2dc>
    27d0:	00001537          	lui	a0,0x1
    27d4:	00a10533          	add	a0,sp,a0
    27d8:	b3152823          	sw	a7,-1232(a0) # b30 <.LBB11_2+0x2e0>
    27dc:	00001537          	lui	a0,0x1
    27e0:	00a10533          	add	a0,sp,a0
    27e4:	b3052a23          	sw	a6,-1228(a0) # b34 <.LBB11_2+0x2e4>
    27e8:	00001537          	lui	a0,0x1
    27ec:	00a10533          	add	a0,sp,a0
    27f0:	8ed53c23          	sd	a3,-1800(a0) # 8f8 <.LBB11_2+0xa8>
    27f4:	00001537          	lui	a0,0x1
    27f8:	00a10533          	add	a0,sp,a0
    27fc:	b2d52c23          	sw	a3,-1224(a0) # b38 <.LBB11_2+0x2e8>
    2800:	00001537          	lui	a0,0x1
    2804:	00a10533          	add	a0,sp,a0
    2808:	b2b52e23          	sw	a1,-1220(a0) # b3c <.LBB11_2+0x2ec>
    280c:	00001537          	lui	a0,0x1
    2810:	00a10533          	add	a0,sp,a0
    2814:	97c52503          	lw	a0,-1668(a0) # 97c <.LBB11_2+0x12c>
    2818:	000015b7          	lui	a1,0x1
    281c:	00b105b3          	add	a1,sp,a1
    2820:	86a5b423          	sd	a0,-1944(a1) # 868 <.LBB11_2+0x18>
    2824:	00001537          	lui	a0,0x1
    2828:	00a10533          	add	a0,sp,a0
    282c:	97852503          	lw	a0,-1672(a0) # 978 <.LBB11_2+0x128>
    2830:	000015b7          	lui	a1,0x1
    2834:	00b105b3          	add	a1,sp,a1
    2838:	86a5b023          	sd	a0,-1952(a1) # 860 <.LBB11_2+0x10>
    283c:	00001537          	lui	a0,0x1
    2840:	00a10533          	add	a0,sp,a0
    2844:	97452503          	lw	a0,-1676(a0) # 974 <.LBB11_2+0x124>
    2848:	000015b7          	lui	a1,0x1
    284c:	00b105b3          	add	a1,sp,a1
    2850:	84a5b423          	sd	a0,-1976(a1) # 848 <.LBB11_1+0x70c>
    2854:	00001537          	lui	a0,0x1
    2858:	00a10533          	add	a0,sp,a0
    285c:	97052503          	lw	a0,-1680(a0) # 970 <.LBB11_2+0x120>
    2860:	000015b7          	lui	a1,0x1
    2864:	00b105b3          	add	a1,sp,a1
    2868:	84a5b023          	sd	a0,-1984(a1) # 840 <.LBB11_1+0x704>
    286c:	00001537          	lui	a0,0x1
    2870:	00a10533          	add	a0,sp,a0
    2874:	96c52503          	lw	a0,-1684(a0) # 96c <.LBB11_2+0x11c>
    2878:	000015b7          	lui	a1,0x1
    287c:	00b105b3          	add	a1,sp,a1
    2880:	80a5bc23          	sd	a0,-2024(a1) # 818 <.LBB11_1+0x6dc>
    2884:	00001537          	lui	a0,0x1
    2888:	00a10533          	add	a0,sp,a0
    288c:	96852503          	lw	a0,-1688(a0) # 968 <.LBB11_2+0x118>
    2890:	7ea13c23          	sd	a0,2040(sp)
    2894:	00001537          	lui	a0,0x1
    2898:	00a10533          	add	a0,sp,a0
    289c:	96452503          	lw	a0,-1692(a0) # 964 <.LBB11_2+0x114>
    28a0:	7ca13c23          	sd	a0,2008(sp)
    28a4:	00001537          	lui	a0,0x1
    28a8:	00a10533          	add	a0,sp,a0
    28ac:	96052503          	lw	a0,-1696(a0) # 960 <.LBB11_2+0x110>
    28b0:	7ca13423          	sd	a0,1992(sp)
    28b4:	00001537          	lui	a0,0x1
    28b8:	00a10533          	add	a0,sp,a0
    28bc:	95c52503          	lw	a0,-1700(a0) # 95c <.LBB11_2+0x10c>
    28c0:	000015b7          	lui	a1,0x1
    28c4:	00b105b3          	add	a1,sp,a1
    28c8:	88a5b023          	sd	a0,-1920(a1) # 880 <.LBB11_2+0x30>
    28cc:	00001537          	lui	a0,0x1
    28d0:	00a10533          	add	a0,sp,a0
    28d4:	95852f83          	lw	t6,-1704(a0) # 958 <.LBB11_2+0x108>
    28d8:	01f13023          	sd	t6,0(sp)
    28dc:	00001537          	lui	a0,0x1
    28e0:	00a10533          	add	a0,sp,a0
    28e4:	95452903          	lw	s2,-1708(a0) # 954 <.LBB11_2+0x104>
    28e8:	00001537          	lui	a0,0x1
    28ec:	00a10533          	add	a0,sp,a0
    28f0:	95052d83          	lw	s11,-1712(a0) # 950 <.LBB11_2+0x100>
    28f4:	00001537          	lui	a0,0x1
    28f8:	00a10533          	add	a0,sp,a0
    28fc:	94c52583          	lw	a1,-1716(a0) # 94c <.LBB11_2+0xfc>
    2900:	00001537          	lui	a0,0x1
    2904:	00a10533          	add	a0,sp,a0
    2908:	94852783          	lw	a5,-1720(a0) # 948 <.LBB11_2+0xf8>
    290c:	00001537          	lui	a0,0x1
    2910:	00a10533          	add	a0,sp,a0
    2914:	94452703          	lw	a4,-1724(a0) # 944 <.LBB11_2+0xf4>
    2918:	00001537          	lui	a0,0x1
    291c:	00a10533          	add	a0,sp,a0
    2920:	94052603          	lw	a2,-1728(a0) # 940 <.LBB11_2+0xf0>
    2924:	00001537          	lui	a0,0x1
    2928:	00a10533          	add	a0,sp,a0
    292c:	9bc52503          	lw	a0,-1604(a0) # 9bc <.LBB11_2+0x16c>
    2930:	000016b7          	lui	a3,0x1
    2934:	00d106b3          	add	a3,sp,a3
    2938:	82a6b823          	sd	a0,-2000(a3) # 830 <.LBB11_1+0x6f4>
    293c:	00001537          	lui	a0,0x1
    2940:	00a10533          	add	a0,sp,a0
    2944:	9b852503          	lw	a0,-1608(a0) # 9b8 <.LBB11_2+0x168>
    2948:	000016b7          	lui	a3,0x1
    294c:	00d106b3          	add	a3,sp,a3
    2950:	82a6b023          	sd	a0,-2016(a3) # 820 <.LBB11_1+0x6e4>
    2954:	54813503          	ld	a0,1352(sp)
    2958:	00251513          	slli	a0,a0,0x2
    295c:	09013683          	ld	a3,144(sp)
    2960:	00a68533          	add	a0,a3,a0
    2964:	00052683          	lw	a3,0(a0)
    2968:	00452803          	lw	a6,4(a0)
    296c:	75013c23          	sd	a6,1880(sp)
    2970:	00852803          	lw	a6,8(a0)
    2974:	000018b7          	lui	a7,0x1
    2978:	011108b3          	add	a7,sp,a7
    297c:	8108b823          	sd	a6,-2032(a7) # 810 <.LBB11_1+0x6d4>
    2980:	00c52803          	lw	a6,12(a0)
    2984:	7b013823          	sd	a6,1968(sp)
    2988:	01052803          	lw	a6,16(a0)
    298c:	73013823          	sd	a6,1840(sp)
    2990:	01452803          	lw	a6,20(a0)
    2994:	6b013823          	sd	a6,1712(sp)
    2998:	08013983          	ld	s3,128(sp)
    299c:	0009a803          	lw	a6,0(s3)
    29a0:	01852883          	lw	a7,24(a0)
    29a4:	63113c23          	sd	a7,1592(sp)
    29a8:	01c52503          	lw	a0,28(a0)
    29ac:	5ea13823          	sd	a0,1520(sp)
    29b0:	00c00513          	li	a0,12
    29b4:	02a68533          	mul	a0,a3,a0
    29b8:	00781813          	slli	a6,a6,0x7
    29bc:	53813683          	ld	a3,1336(sp)
    29c0:	00d60633          	add	a2,a2,a3
    29c4:	000016b7          	lui	a3,0x1
    29c8:	00d106b3          	add	a3,sp,a3
    29cc:	8b06bc23          	sd	a6,-1864(a3) # 8b8 <.LBB11_2+0x68>
    29d0:	01060633          	add	a2,a2,a6
    29d4:	ffff42b7          	lui	t0,0xffff4
    29d8:	005602b3          	add	t0,a2,t0
    29dc:	00001637          	lui	a2,0x1
    29e0:	00c10633          	add	a2,sp,a2
    29e4:	9b462603          	lw	a2,-1612(a2) # 9b4 <.LBB11_2+0x164>
    29e8:	7cc13023          	sd	a2,1984(sp)
    29ec:	00001637          	lui	a2,0x1
    29f0:	00c10633          	add	a2,sp,a2
    29f4:	9b062603          	lw	a2,-1616(a2) # 9b0 <.LBB11_2+0x160>
    29f8:	74c13423          	sd	a2,1864(sp)
    29fc:	00001637          	lui	a2,0x1
    2a00:	00c10633          	add	a2,sp,a2
    2a04:	9ac62603          	lw	a2,-1620(a2) # 9ac <.LBB11_2+0x15c>
    2a08:	6ac13c23          	sd	a2,1720(sp)
    2a0c:	00001637          	lui	a2,0x1
    2a10:	00c10633          	add	a2,sp,a2
    2a14:	9a862603          	lw	a2,-1624(a2) # 9a8 <.LBB11_2+0x158>
    2a18:	50c13823          	sd	a2,1296(sp)
    2a1c:	00001637          	lui	a2,0x1
    2a20:	00c10633          	add	a2,sp,a2
    2a24:	9a462603          	lw	a2,-1628(a2) # 9a4 <.LBB11_2+0x154>
    2a28:	48c13823          	sd	a2,1168(sp)
    2a2c:	00001637          	lui	a2,0x1
    2a30:	00c10633          	add	a2,sp,a2
    2a34:	9a062603          	lw	a2,-1632(a2) # 9a0 <.LBB11_2+0x150>
    2a38:	44c13c23          	sd	a2,1112(sp)
    2a3c:	00001637          	lui	a2,0x1
    2a40:	00c10633          	add	a2,sp,a2
    2a44:	99c62603          	lw	a2,-1636(a2) # 99c <.LBB11_2+0x14c>
    2a48:	4ac13823          	sd	a2,1200(sp)
    2a4c:	00001637          	lui	a2,0x1
    2a50:	00c10633          	add	a2,sp,a2
    2a54:	99862603          	lw	a2,-1640(a2) # 998 <.LBB11_2+0x148>
    2a58:	56c13423          	sd	a2,1384(sp)
    2a5c:	00001637          	lui	a2,0x1
    2a60:	00c10633          	add	a2,sp,a2
    2a64:	99462603          	lw	a2,-1644(a2) # 994 <.LBB11_2+0x144>
    2a68:	6cc13c23          	sd	a2,1752(sp)
    2a6c:	00001637          	lui	a2,0x1
    2a70:	00c10633          	add	a2,sp,a2
    2a74:	99062603          	lw	a2,-1648(a2) # 990 <.LBB11_2+0x140>
    2a78:	76c13423          	sd	a2,1896(sp)
    2a7c:	00001637          	lui	a2,0x1
    2a80:	00c10633          	add	a2,sp,a2
    2a84:	98c62603          	lw	a2,-1652(a2) # 98c <.LBB11_2+0x13c>
    2a88:	6cc13423          	sd	a2,1736(sp)
    2a8c:	00001637          	lui	a2,0x1
    2a90:	00c10633          	add	a2,sp,a2
    2a94:	98862d03          	lw	s10,-1656(a2) # 988 <.LBB11_2+0x138>
    2a98:	00001637          	lui	a2,0x1
    2a9c:	00c10633          	add	a2,sp,a2
    2aa0:	98462083          	lw	ra,-1660(a2) # 984 <.LBB11_2+0x134>
    2aa4:	00001637          	lui	a2,0x1
    2aa8:	00c10633          	add	a2,sp,a2
    2aac:	98062603          	lw	a2,-1664(a2) # 980 <.LBB11_2+0x130>
    2ab0:	000016b7          	lui	a3,0x1
    2ab4:	00d106b3          	add	a3,sp,a3
    2ab8:	9fc6a683          	lw	a3,-1540(a3) # 9fc <.LBB11_2+0x1ac>
    2abc:	7ad13023          	sd	a3,1952(sp)
    2ac0:	000016b7          	lui	a3,0x1
    2ac4:	00d106b3          	add	a3,sp,a3
    2ac8:	9f86a683          	lw	a3,-1544(a3) # 9f8 <.LBB11_2+0x1a8>
    2acc:	78d13023          	sd	a3,1920(sp)
    2ad0:	000016b7          	lui	a3,0x1
    2ad4:	00d106b3          	add	a3,sp,a3
    2ad8:	9f46a683          	lw	a3,-1548(a3) # 9f4 <.LBB11_2+0x1a4>
    2adc:	76d13823          	sd	a3,1904(sp)
    2ae0:	000016b7          	lui	a3,0x1
    2ae4:	00d106b3          	add	a3,sp,a3
    2ae8:	9f06a683          	lw	a3,-1552(a3) # 9f0 <.LBB11_2+0x1a0>
    2aec:	74d13023          	sd	a3,1856(sp)
    2af0:	000016b7          	lui	a3,0x1
    2af4:	00d106b3          	add	a3,sp,a3
    2af8:	9ec6a683          	lw	a3,-1556(a3) # 9ec <.LBB11_2+0x19c>
    2afc:	64d13c23          	sd	a3,1624(sp)
    2b00:	000016b7          	lui	a3,0x1
    2b04:	00d106b3          	add	a3,sp,a3
    2b08:	9e86a683          	lw	a3,-1560(a3) # 9e8 <.LBB11_2+0x198>
    2b0c:	50d13023          	sd	a3,1280(sp)
    2b10:	000016b7          	lui	a3,0x1
    2b14:	00d106b3          	add	a3,sp,a3
    2b18:	9e46a683          	lw	a3,-1564(a3) # 9e4 <.LBB11_2+0x194>
    2b1c:	48d13023          	sd	a3,1152(sp)
    2b20:	000016b7          	lui	a3,0x1
    2b24:	00d106b3          	add	a3,sp,a3
    2b28:	9e06a683          	lw	a3,-1568(a3) # 9e0 <.LBB11_2+0x190>
    2b2c:	46d13023          	sd	a3,1120(sp)
    2b30:	000016b7          	lui	a3,0x1
    2b34:	00d106b3          	add	a3,sp,a3
    2b38:	9dc6a683          	lw	a3,-1572(a3) # 9dc <.LBB11_2+0x18c>
    2b3c:	4ad13423          	sd	a3,1192(sp)
    2b40:	000016b7          	lui	a3,0x1
    2b44:	00d106b3          	add	a3,sp,a3
    2b48:	9d86a683          	lw	a3,-1576(a3) # 9d8 <.LBB11_2+0x188>
    2b4c:	56d13023          	sd	a3,1376(sp)
    2b50:	000016b7          	lui	a3,0x1
    2b54:	00d106b3          	add	a3,sp,a3
    2b58:	9d46a683          	lw	a3,-1580(a3) # 9d4 <.LBB11_2+0x184>
    2b5c:	6cd13823          	sd	a3,1744(sp)
    2b60:	000016b7          	lui	a3,0x1
    2b64:	00d106b3          	add	a3,sp,a3
    2b68:	9d06a683          	lw	a3,-1584(a3) # 9d0 <.LBB11_2+0x180>
    2b6c:	76d13023          	sd	a3,1888(sp)
    2b70:	000016b7          	lui	a3,0x1
    2b74:	00d106b3          	add	a3,sp,a3
    2b78:	9cc6a683          	lw	a3,-1588(a3) # 9cc <.LBB11_2+0x17c>
    2b7c:	7cd13823          	sd	a3,2000(sp)
    2b80:	000016b7          	lui	a3,0x1
    2b84:	00d106b3          	add	a3,sp,a3
    2b88:	9c86a683          	lw	a3,-1592(a3) # 9c8 <.LBB11_2+0x178>
    2b8c:	00001837          	lui	a6,0x1
    2b90:	01010833          	add	a6,sp,a6
    2b94:	80d83423          	sd	a3,-2040(a6) # 808 <.LBB11_1+0x6cc>
    2b98:	000016b7          	lui	a3,0x1
    2b9c:	00d106b3          	add	a3,sp,a3
    2ba0:	9c46a683          	lw	a3,-1596(a3) # 9c4 <.LBB11_2+0x174>
    2ba4:	00001837          	lui	a6,0x1
    2ba8:	01010833          	add	a6,sp,a6
    2bac:	80d83023          	sd	a3,-2048(a6) # 800 <.LBB11_1+0x6c4>
    2bb0:	000016b7          	lui	a3,0x1
    2bb4:	00d106b3          	add	a3,sp,a3
    2bb8:	9c06a683          	lw	a3,-1600(a3) # 9c0 <.LBB11_2+0x170>
    2bbc:	7ed13823          	sd	a3,2032(sp)
    2bc0:	000016b7          	lui	a3,0x1
    2bc4:	00d106b3          	add	a3,sp,a3
    2bc8:	a3c6a683          	lw	a3,-1476(a3) # a3c <.LBB11_2+0x1ec>
    2bcc:	72d13023          	sd	a3,1824(sp)
    2bd0:	000016b7          	lui	a3,0x1
    2bd4:	00d106b3          	add	a3,sp,a3
    2bd8:	a386a683          	lw	a3,-1480(a3) # a38 <.LBB11_2+0x1e8>
    2bdc:	70d13023          	sd	a3,1792(sp)
    2be0:	000016b7          	lui	a3,0x1
    2be4:	00d106b3          	add	a3,sp,a3
    2be8:	a346a683          	lw	a3,-1484(a3) # a34 <.LBB11_2+0x1e4>
    2bec:	6ed13823          	sd	a3,1776(sp)
    2bf0:	000016b7          	lui	a3,0x1
    2bf4:	00d106b3          	add	a3,sp,a3
    2bf8:	a306a683          	lw	a3,-1488(a3) # a30 <.LBB11_2+0x1e0>
    2bfc:	6ed13423          	sd	a3,1768(sp)
    2c00:	000016b7          	lui	a3,0x1
    2c04:	00d106b3          	add	a3,sp,a3
    2c08:	a2c6a683          	lw	a3,-1492(a3) # a2c <.LBB11_2+0x1dc>
    2c0c:	64d13423          	sd	a3,1608(sp)
    2c10:	000016b7          	lui	a3,0x1
    2c14:	00d106b3          	add	a3,sp,a3
    2c18:	a286a683          	lw	a3,-1496(a3) # a28 <.LBB11_2+0x1d8>
    2c1c:	4ed13823          	sd	a3,1264(sp)
    2c20:	000016b7          	lui	a3,0x1
    2c24:	00d106b3          	add	a3,sp,a3
    2c28:	a246a683          	lw	a3,-1500(a3) # a24 <.LBB11_2+0x1d4>
    2c2c:	46d13823          	sd	a3,1136(sp)
    2c30:	000016b7          	lui	a3,0x1
    2c34:	00d106b3          	add	a3,sp,a3
    2c38:	a206a683          	lw	a3,-1504(a3) # a20 <.LBB11_2+0x1d0>
    2c3c:	46d13423          	sd	a3,1128(sp)
    2c40:	000016b7          	lui	a3,0x1
    2c44:	00d106b3          	add	a3,sp,a3
    2c48:	a1c6a683          	lw	a3,-1508(a3) # a1c <.LBB11_2+0x1cc>
    2c4c:	48d13c23          	sd	a3,1176(sp)
    2c50:	000016b7          	lui	a3,0x1
    2c54:	00d106b3          	add	a3,sp,a3
    2c58:	a186a683          	lw	a3,-1512(a3) # a18 <.LBB11_2+0x1c8>
    2c5c:	54d13823          	sd	a3,1360(sp)
    2c60:	000016b7          	lui	a3,0x1
    2c64:	00d106b3          	add	a3,sp,a3
    2c68:	a146a683          	lw	a3,-1516(a3) # a14 <.LBB11_2+0x1c4>
    2c6c:	6cd13023          	sd	a3,1728(sp)
    2c70:	000016b7          	lui	a3,0x1
    2c74:	00d106b3          	add	a3,sp,a3
    2c78:	a106a683          	lw	a3,-1520(a3) # a10 <.LBB11_2+0x1c0>
    2c7c:	74d13823          	sd	a3,1872(sp)
    2c80:	000016b7          	lui	a3,0x1
    2c84:	00d106b3          	add	a3,sp,a3
    2c88:	a0c6a683          	lw	a3,-1524(a3) # a0c <.LBB11_2+0x1bc>
    2c8c:	78d13c23          	sd	a3,1944(sp)
    2c90:	000016b7          	lui	a3,0x1
    2c94:	00d106b3          	add	a3,sp,a3
    2c98:	a086a683          	lw	a3,-1528(a3) # a08 <.LBB11_2+0x1b8>
    2c9c:	78d13423          	sd	a3,1928(sp)
    2ca0:	000016b7          	lui	a3,0x1
    2ca4:	00d106b3          	add	a3,sp,a3
    2ca8:	a046a683          	lw	a3,-1532(a3) # a04 <.LBB11_2+0x1b4>
    2cac:	78d13823          	sd	a3,1936(sp)
    2cb0:	000016b7          	lui	a3,0x1
    2cb4:	00d106b3          	add	a3,sp,a3
    2cb8:	a006a683          	lw	a3,-1536(a3) # a00 <.LBB11_2+0x1b0>
    2cbc:	76d13c23          	sd	a3,1912(sp)
    2cc0:	000016b7          	lui	a3,0x1
    2cc4:	00d106b3          	add	a3,sp,a3
    2cc8:	a7c6a683          	lw	a3,-1412(a3) # a7c <.LBB11_2+0x22c>
    2ccc:	6ad13023          	sd	a3,1696(sp)
    2cd0:	000016b7          	lui	a3,0x1
    2cd4:	00d106b3          	add	a3,sp,a3
    2cd8:	a786a683          	lw	a3,-1416(a3) # a78 <.LBB11_2+0x228>
    2cdc:	68d13023          	sd	a3,1664(sp)
    2ce0:	000016b7          	lui	a3,0x1
    2ce4:	00d106b3          	add	a3,sp,a3
    2ce8:	a746a683          	lw	a3,-1420(a3) # a74 <.LBB11_2+0x224>
    2cec:	66d13823          	sd	a3,1648(sp)
    2cf0:	000016b7          	lui	a3,0x1
    2cf4:	00d106b3          	add	a3,sp,a3
    2cf8:	a706a683          	lw	a3,-1424(a3) # a70 <.LBB11_2+0x220>
    2cfc:	66d13423          	sd	a3,1640(sp)
    2d00:	000016b7          	lui	a3,0x1
    2d04:	00d106b3          	add	a3,sp,a3
    2d08:	a6c6a683          	lw	a3,-1428(a3) # a6c <.LBB11_2+0x21c>
    2d0c:	64d13023          	sd	a3,1600(sp)
    2d10:	000016b7          	lui	a3,0x1
    2d14:	00d106b3          	add	a3,sp,a3
    2d18:	a686a683          	lw	a3,-1432(a3) # a68 <.LBB11_2+0x218>
    2d1c:	4ed13023          	sd	a3,1248(sp)
    2d20:	000016b7          	lui	a3,0x1
    2d24:	00d106b3          	add	a3,sp,a3
    2d28:	a646a683          	lw	a3,-1436(a3) # a64 <.LBB11_2+0x214>
    2d2c:	4cd13423          	sd	a3,1224(sp)
    2d30:	000016b7          	lui	a3,0x1
    2d34:	00d106b3          	add	a3,sp,a3
    2d38:	a606a683          	lw	a3,-1440(a3) # a60 <.LBB11_2+0x210>
    2d3c:	46d13c23          	sd	a3,1144(sp)
    2d40:	000016b7          	lui	a3,0x1
    2d44:	00d106b3          	add	a3,sp,a3
    2d48:	a5c6a683          	lw	a3,-1444(a3) # a5c <.LBB11_2+0x20c>
    2d4c:	48d13423          	sd	a3,1160(sp)
    2d50:	000016b7          	lui	a3,0x1
    2d54:	00d106b3          	add	a3,sp,a3
    2d58:	a586a683          	lw	a3,-1448(a3) # a58 <.LBB11_2+0x208>
    2d5c:	50d13423          	sd	a3,1288(sp)
    2d60:	000016b7          	lui	a3,0x1
    2d64:	00d106b3          	add	a3,sp,a3
    2d68:	a546a683          	lw	a3,-1452(a3) # a54 <.LBB11_2+0x204>
    2d6c:	66d13023          	sd	a3,1632(sp)
    2d70:	000016b7          	lui	a3,0x1
    2d74:	00d106b3          	add	a3,sp,a3
    2d78:	a506a683          	lw	a3,-1456(a3) # a50 <.LBB11_2+0x200>
    2d7c:	72d13423          	sd	a3,1832(sp)
    2d80:	000016b7          	lui	a3,0x1
    2d84:	00d106b3          	add	a3,sp,a3
    2d88:	a4c6a683          	lw	a3,-1460(a3) # a4c <.LBB11_2+0x1fc>
    2d8c:	70d13c23          	sd	a3,1816(sp)
    2d90:	000016b7          	lui	a3,0x1
    2d94:	00d106b3          	add	a3,sp,a3
    2d98:	a486a683          	lw	a3,-1464(a3) # a48 <.LBB11_2+0x1f8>
    2d9c:	70d13423          	sd	a3,1800(sp)
    2da0:	000016b7          	lui	a3,0x1
    2da4:	00d106b3          	add	a3,sp,a3
    2da8:	a446a683          	lw	a3,-1468(a3) # a44 <.LBB11_2+0x1f4>
    2dac:	70d13823          	sd	a3,1808(sp)
    2db0:	000016b7          	lui	a3,0x1
    2db4:	00d106b3          	add	a3,sp,a3
    2db8:	a406a683          	lw	a3,-1472(a3) # a40 <.LBB11_2+0x1f0>
    2dbc:	6ed13c23          	sd	a3,1784(sp)
    2dc0:	000016b7          	lui	a3,0x1
    2dc4:	00d106b3          	add	a3,sp,a3
    2dc8:	abc6a683          	lw	a3,-1348(a3) # abc <.LBB11_2+0x26c>
    2dcc:	62d13823          	sd	a3,1584(sp)
    2dd0:	000016b7          	lui	a3,0x1
    2dd4:	00d106b3          	add	a3,sp,a3
    2dd8:	ab86a683          	lw	a3,-1352(a3) # ab8 <.LBB11_2+0x268>
    2ddc:	62d13023          	sd	a3,1568(sp)
    2de0:	000016b7          	lui	a3,0x1
    2de4:	00d106b3          	add	a3,sp,a3
    2de8:	ab46a683          	lw	a3,-1356(a3) # ab4 <.LBB11_2+0x264>
    2dec:	5cd13423          	sd	a3,1480(sp)
    2df0:	000016b7          	lui	a3,0x1
    2df4:	00d106b3          	add	a3,sp,a3
    2df8:	ab06a683          	lw	a3,-1360(a3) # ab0 <.LBB11_2+0x260>
    2dfc:	5ad13823          	sd	a3,1456(sp)
    2e00:	000016b7          	lui	a3,0x1
    2e04:	00d106b3          	add	a3,sp,a3
    2e08:	aac6a683          	lw	a3,-1364(a3) # aac <.LBB11_2+0x25c>
    2e0c:	58d13c23          	sd	a3,1432(sp)
    2e10:	000016b7          	lui	a3,0x1
    2e14:	00d106b3          	add	a3,sp,a3
    2e18:	aa86a683          	lw	a3,-1368(a3) # aa8 <.LBB11_2+0x258>
    2e1c:	56d13c23          	sd	a3,1400(sp)
    2e20:	000016b7          	lui	a3,0x1
    2e24:	00d106b3          	add	a3,sp,a3
    2e28:	aa46a683          	lw	a3,-1372(a3) # aa4 <.LBB11_2+0x254>
    2e2c:	4ed13423          	sd	a3,1256(sp)
    2e30:	000016b7          	lui	a3,0x1
    2e34:	00d106b3          	add	a3,sp,a3
    2e38:	aa06a683          	lw	a3,-1376(a3) # aa0 <.LBB11_2+0x250>
    2e3c:	4cd13c23          	sd	a3,1240(sp)
    2e40:	000016b7          	lui	a3,0x1
    2e44:	00d106b3          	add	a3,sp,a3
    2e48:	a9c6a683          	lw	a3,-1380(a3) # a9c <.LBB11_2+0x24c>
    2e4c:	4cd13823          	sd	a3,1232(sp)
    2e50:	000016b7          	lui	a3,0x1
    2e54:	00d106b3          	add	a3,sp,a3
    2e58:	a986a683          	lw	a3,-1384(a3) # a98 <.LBB11_2+0x248>
    2e5c:	4ed13c23          	sd	a3,1272(sp)
    2e60:	000016b7          	lui	a3,0x1
    2e64:	00d106b3          	add	a3,sp,a3
    2e68:	a946a683          	lw	a3,-1388(a3) # a94 <.LBB11_2+0x244>
    2e6c:	64d13823          	sd	a3,1616(sp)
    2e70:	000016b7          	lui	a3,0x1
    2e74:	00d106b3          	add	a3,sp,a3
    2e78:	a906a683          	lw	a3,-1392(a3) # a90 <.LBB11_2+0x240>
    2e7c:	6ad13423          	sd	a3,1704(sp)
    2e80:	000016b7          	lui	a3,0x1
    2e84:	00d106b3          	add	a3,sp,a3
    2e88:	a8c6a683          	lw	a3,-1396(a3) # a8c <.LBB11_2+0x23c>
    2e8c:	68d13c23          	sd	a3,1688(sp)
    2e90:	000016b7          	lui	a3,0x1
    2e94:	00d106b3          	add	a3,sp,a3
    2e98:	a886a683          	lw	a3,-1400(a3) # a88 <.LBB11_2+0x238>
    2e9c:	68d13423          	sd	a3,1672(sp)
    2ea0:	000016b7          	lui	a3,0x1
    2ea4:	00d106b3          	add	a3,sp,a3
    2ea8:	a846a683          	lw	a3,-1404(a3) # a84 <.LBB11_2+0x234>
    2eac:	68d13823          	sd	a3,1680(sp)
    2eb0:	000016b7          	lui	a3,0x1
    2eb4:	00d106b3          	add	a3,sp,a3
    2eb8:	a806a683          	lw	a3,-1408(a3) # a80 <.LBB11_2+0x230>
    2ebc:	66d13c23          	sd	a3,1656(sp)
    2ec0:	000016b7          	lui	a3,0x1
    2ec4:	00d106b3          	add	a3,sp,a3
    2ec8:	afc6a683          	lw	a3,-1284(a3) # afc <.LBB11_2+0x2ac>
    2ecc:	5ed13423          	sd	a3,1512(sp)
    2ed0:	000016b7          	lui	a3,0x1
    2ed4:	00d106b3          	add	a3,sp,a3
    2ed8:	af86a683          	lw	a3,-1288(a3) # af8 <.LBB11_2+0x2a8>
    2edc:	5ed13023          	sd	a3,1504(sp)
    2ee0:	000016b7          	lui	a3,0x1
    2ee4:	00d106b3          	add	a3,sp,a3
    2ee8:	af46a683          	lw	a3,-1292(a3) # af4 <.LBB11_2+0x2a4>
    2eec:	5cd13c23          	sd	a3,1496(sp)
    2ef0:	000016b7          	lui	a3,0x1
    2ef4:	00d106b3          	add	a3,sp,a3
    2ef8:	af06a683          	lw	a3,-1296(a3) # af0 <.LBB11_2+0x2a0>
    2efc:	5cd13823          	sd	a3,1488(sp)
    2f00:	000016b7          	lui	a3,0x1
    2f04:	00d106b3          	add	a3,sp,a3
    2f08:	aec6a683          	lw	a3,-1300(a3) # aec <.LBB11_2+0x29c>
    2f0c:	5cd13023          	sd	a3,1472(sp)
    2f10:	000016b7          	lui	a3,0x1
    2f14:	00d106b3          	add	a3,sp,a3
    2f18:	ae86a683          	lw	a3,-1304(a3) # ae8 <.LBB11_2+0x298>
    2f1c:	5ad13c23          	sd	a3,1464(sp)
    2f20:	000016b7          	lui	a3,0x1
    2f24:	00d106b3          	add	a3,sp,a3
    2f28:	ae46a683          	lw	a3,-1308(a3) # ae4 <.LBB11_2+0x294>
    2f2c:	5ad13423          	sd	a3,1448(sp)
    2f30:	000016b7          	lui	a3,0x1
    2f34:	00d106b3          	add	a3,sp,a3
    2f38:	ae06a683          	lw	a3,-1312(a3) # ae0 <.LBB11_2+0x290>
    2f3c:	5ad13023          	sd	a3,1440(sp)
    2f40:	000016b7          	lui	a3,0x1
    2f44:	00d106b3          	add	a3,sp,a3
    2f48:	adc6a683          	lw	a3,-1316(a3) # adc <.LBB11_2+0x28c>
    2f4c:	58d13823          	sd	a3,1424(sp)
    2f50:	000016b7          	lui	a3,0x1
    2f54:	00d106b3          	add	a3,sp,a3
    2f58:	ad86a683          	lw	a3,-1320(a3) # ad8 <.LBB11_2+0x288>
    2f5c:	58d13423          	sd	a3,1416(sp)
    2f60:	000016b7          	lui	a3,0x1
    2f64:	00d106b3          	add	a3,sp,a3
    2f68:	ad46a683          	lw	a3,-1324(a3) # ad4 <.LBB11_2+0x284>
    2f6c:	58d13023          	sd	a3,1408(sp)
    2f70:	000016b7          	lui	a3,0x1
    2f74:	00d106b3          	add	a3,sp,a3
    2f78:	ad06a683          	lw	a3,-1328(a3) # ad0 <.LBB11_2+0x280>
    2f7c:	62d13423          	sd	a3,1576(sp)
    2f80:	000016b7          	lui	a3,0x1
    2f84:	00d106b3          	add	a3,sp,a3
    2f88:	acc6a683          	lw	a3,-1332(a3) # acc <.LBB11_2+0x27c>
    2f8c:	60d13c23          	sd	a3,1560(sp)
    2f90:	000016b7          	lui	a3,0x1
    2f94:	00d106b3          	add	a3,sp,a3
    2f98:	ac86a683          	lw	a3,-1336(a3) # ac8 <.LBB11_2+0x278>
    2f9c:	60d13423          	sd	a3,1544(sp)
    2fa0:	000016b7          	lui	a3,0x1
    2fa4:	00d106b3          	add	a3,sp,a3
    2fa8:	ac46a683          	lw	a3,-1340(a3) # ac4 <.LBB11_2+0x274>
    2fac:	60d13823          	sd	a3,1552(sp)
    2fb0:	000016b7          	lui	a3,0x1
    2fb4:	00d106b3          	add	a3,sp,a3
    2fb8:	ac06a683          	lw	a3,-1344(a3) # ac0 <.LBB11_2+0x270>
    2fbc:	60d13023          	sd	a3,1536(sp)
    2fc0:	0049af03          	lw	t5,4(s3)
    2fc4:	0089ae83          	lw	t4,8(s3)
    2fc8:	00c9a303          	lw	t1,12(s3)
    2fcc:	0109ae03          	lw	t3,16(s3)
    2fd0:	0149a803          	lw	a6,20(s3)
    2fd4:	0189a383          	lw	t2,24(s3)
    2fd8:	01c9a883          	lw	a7,28(s3)
    2fdc:	0209ab83          	lw	s7,32(s3)
    2fe0:	0249a683          	lw	a3,36(s3)
    2fe4:	0289ab03          	lw	s6,40(s3)
    2fe8:	02c9ac83          	lw	s9,44(s3)
    2fec:	0309aa83          	lw	s5,48(s3)
    2ff0:	0349aa03          	lw	s4,52(s3)
    2ff4:	0389ac03          	lw	s8,56(s3)
    2ff8:	03c9a983          	lw	s3,60(s3)
    2ffc:	40a282bb          	subw	t0,t0,a0
    3000:	400004b7          	lui	s1,0x40000
    3004:	00001fb7          	lui	t6,0x1
    3008:	01f10fb3          	add	t6,sp,t6
    300c:	869fbc23          	sd	s1,-1928(t6) # 878 <.LBB11_2+0x28>
    3010:	00013f83          	ld	t6,0(sp)
    3014:	000014b7          	lui	s1,0x1
    3018:	009104b3          	add	s1,sp,s1
    301c:	8654b823          	sd	t0,-1936(s1) # 870 <.LBB11_2+0x20>
    3020:	0002da63          	bgez	t0,3034 <.LBB11_6>
    3024:	c00002b7          	lui	t0,0xc0000
    3028:	000014b7          	lui	s1,0x1
    302c:	009104b3          	add	s1,sp,s1
    3030:	8654bc23          	sd	t0,-1928(s1) # 878 <.LBB11_2+0x28>

0000000000003034 <.LBB11_6>:
    3034:	007f1f13          	slli	t5,t5,0x7
    3038:	54013283          	ld	t0,1344(sp)
    303c:	00570733          	add	a4,a4,t0
    3040:	000012b7          	lui	t0,0x1
    3044:	005102b3          	add	t0,sp,t0
    3048:	8be2b823          	sd	t5,-1872(t0) # 8b0 <.LBB11_2+0x60>
    304c:	01e70733          	add	a4,a4,t5
    3050:	ffff42b7          	lui	t0,0xffff4
    3054:	00570733          	add	a4,a4,t0
    3058:	40a7073b          	subw	a4,a4,a0
    305c:	400002b7          	lui	t0,0x40000
    3060:	00001f37          	lui	t5,0x1
    3064:	01e10f33          	add	t5,sp,t5
    3068:	84ef3c23          	sd	a4,-1960(t5) # 858 <.LBB11_2+0x8>
    306c:	00075463          	bgez	a4,3074 <.LBB11_8>
    3070:	c00002b7          	lui	t0,0xc0000

0000000000003074 <.LBB11_8>:
    3074:	00001737          	lui	a4,0x1
    3078:	00e10733          	add	a4,sp,a4
    307c:	84573823          	sd	t0,-1968(a4) # 850 <.LBB11_2>
    3080:	007e9e93          	slli	t4,t4,0x7
    3084:	52013703          	ld	a4,1312(sp)
    3088:	00e787b3          	add	a5,a5,a4
    308c:	00001737          	lui	a4,0x1
    3090:	00e10733          	add	a4,sp,a4
    3094:	8bd73423          	sd	t4,-1880(a4) # 8a8 <.LBB11_2+0x58>
    3098:	01d787b3          	add	a5,a5,t4
    309c:	ffff4737          	lui	a4,0xffff4
    30a0:	00e787b3          	add	a5,a5,a4
    30a4:	40a787bb          	subw	a5,a5,a0
    30a8:	40000eb7          	lui	t4,0x40000
    30ac:	06813703          	ld	a4,104(sp)
    30b0:	05013283          	ld	t0,80(sp)
    30b4:	02813f03          	ld	t5,40(sp)
    30b8:	000014b7          	lui	s1,0x1
    30bc:	009104b3          	add	s1,sp,s1
    30c0:	82f4bc23          	sd	a5,-1992(s1) # 838 <.LBB11_1+0x6fc>
    30c4:	0007d463          	bgez	a5,30cc <.LBB11_10>
    30c8:	c0000eb7          	lui	t4,0xc0000

00000000000030cc <.LBB11_10>:
    30cc:	000017b7          	lui	a5,0x1
    30d0:	00f107b3          	add	a5,sp,a5
    30d4:	83d7b423          	sd	t4,-2008(a5) # 828 <.LBB11_1+0x6ec>
    30d8:	00731313          	slli	t1,t1,0x7
    30dc:	52813783          	ld	a5,1320(sp)
    30e0:	00f585b3          	add	a1,a1,a5
    30e4:	000017b7          	lui	a5,0x1
    30e8:	00f107b3          	add	a5,sp,a5
    30ec:	8a67b023          	sd	t1,-1888(a5) # 8a0 <.LBB11_2+0x50>
    30f0:	006585b3          	add	a1,a1,t1
    30f4:	ffff47b7          	lui	a5,0xffff4
    30f8:	00f585b3          	add	a1,a1,a5
    30fc:	40a585bb          	subw	a1,a1,a0
    3100:	40000337          	lui	t1,0x40000
    3104:	07013783          	ld	a5,112(sp)
    3108:	03013e83          	ld	t4,48(sp)
    310c:	7eb13423          	sd	a1,2024(sp)
    3110:	0005d463          	bgez	a1,3118 <.LBB11_12>
    3114:	c0000337          	lui	t1,0xc0000

0000000000003118 <.LBB11_12>:
    3118:	7e613023          	sd	t1,2016(sp)
    311c:	007e1e13          	slli	t3,t3,0x7
    3120:	53013583          	ld	a1,1328(sp)
    3124:	00bd8db3          	add	s11,s11,a1
    3128:	000015b7          	lui	a1,0x1
    312c:	00b105b3          	add	a1,sp,a1
    3130:	89c5bc23          	sd	t3,-1896(a1) # 898 <.LBB11_2+0x48>
    3134:	01cd8db3          	add	s11,s11,t3
    3138:	ffff45b7          	lui	a1,0xffff4
    313c:	00bd8db3          	add	s11,s11,a1
    3140:	40ad85bb          	subw	a1,s11,a0
    3144:	40000e37          	lui	t3,0x40000
    3148:	04813303          	ld	t1,72(sp)
    314c:	7ab13c23          	sd	a1,1976(sp)
    3150:	0005d463          	bgez	a1,3158 <.LBB11_14>
    3154:	c0000e37          	lui	t3,0xc0000

0000000000003158 <.LBB11_14>:
    3158:	7bc13423          	sd	t3,1960(sp)
    315c:	00781813          	slli	a6,a6,0x7
    3160:	02013d83          	ld	s11,32(sp)
    3164:	01b90933          	add	s2,s2,s11
    3168:	000015b7          	lui	a1,0x1
    316c:	00b105b3          	add	a1,sp,a1
    3170:	8905b823          	sd	a6,-1904(a1) # 890 <.LBB11_2+0x40>
    3174:	01090933          	add	s2,s2,a6
    3178:	ffff45b7          	lui	a1,0xffff4
    317c:	00b90933          	add	s2,s2,a1
    3180:	40a905bb          	subw	a1,s2,a0
    3184:	40000837          	lui	a6,0x40000
    3188:	03813e03          	ld	t3,56(sp)
    318c:	72b13c23          	sd	a1,1848(sp)
    3190:	0005d463          	bgez	a1,3198 <.LBB11_16>
    3194:	c0000837          	lui	a6,0xc0000

0000000000003198 <.LBB11_16>:
    3198:	6f013023          	sd	a6,1760(sp)
    319c:	00739393          	slli	t2,t2,0x7
    31a0:	01ef8fb3          	add	t6,t6,t5
    31a4:	000015b7          	lui	a1,0x1
    31a8:	00b105b3          	add	a1,sp,a1
    31ac:	8875b423          	sd	t2,-1912(a1) # 888 <.LBB11_2+0x38>
    31b0:	007f8fb3          	add	t6,t6,t2
    31b4:	ffff45b7          	lui	a1,0xffff4
    31b8:	00bf8fb3          	add	t6,t6,a1
    31bc:	40af85bb          	subw	a1,t6,a0
    31c0:	400003b7          	lui	t2,0x40000
    31c4:	05813803          	ld	a6,88(sp)
    31c8:	52813903          	ld	s2,1320(sp)
    31cc:	5eb13c23          	sd	a1,1528(sp)
    31d0:	0005d463          	bgez	a1,31d8 <.LBB11_18>
    31d4:	c00003b7          	lui	t2,0xc0000

00000000000031d8 <.LBB11_18>:
    31d8:	56713823          	sd	t2,1392(sp)
    31dc:	00789893          	slli	a7,a7,0x7
    31e0:	000015b7          	lui	a1,0x1
    31e4:	00b105b3          	add	a1,sp,a1
    31e8:	8805b583          	ld	a1,-1920(a1) # 880 <.LBB11_2+0x30>
    31ec:	01d585b3          	add	a1,a1,t4
    31f0:	000013b7          	lui	t2,0x1
    31f4:	007103b3          	add	t2,sp,t2
    31f8:	8913b023          	sd	a7,-1920(t2) # 880 <.LBB11_2+0x30>
    31fc:	011585b3          	add	a1,a1,a7
    3200:	ffff48b7          	lui	a7,0xffff4
    3204:	011585b3          	add	a1,a1,a7
    3208:	40a585bb          	subw	a1,a1,a0
    320c:	400008b7          	lui	a7,0x40000
    3210:	04013383          	ld	t2,64(sp)
    3214:	53013f83          	ld	t6,1328(sp)
    3218:	4cb13023          	sd	a1,1216(sp)
    321c:	0005d463          	bgez	a1,3224 <.LBB11_20>
    3220:	c00008b7          	lui	a7,0xc0000

0000000000003224 <.LBB11_20>:
    3224:	4b113c23          	sd	a7,1208(sp)
    3228:	007b9b93          	slli	s7,s7,0x7
    322c:	7c813583          	ld	a1,1992(sp)
    3230:	01c585b3          	add	a1,a1,t3
    3234:	017585b3          	add	a1,a1,s7
    3238:	ffff48b7          	lui	a7,0xffff4
    323c:	011585b3          	add	a1,a1,a7
    3240:	40a585bb          	subw	a1,a1,a0
    3244:	400004b7          	lui	s1,0x40000
    3248:	06013883          	ld	a7,96(sp)
    324c:	44b13023          	sd	a1,1088(sp)
    3250:	0005d463          	bgez	a1,3258 <.LBB11_22>
    3254:	c00004b7          	lui	s1,0xc0000

0000000000003258 <.LBB11_22>:
    3258:	42913c23          	sd	s1,1080(sp)
    325c:	00769693          	slli	a3,a3,0x7
    3260:	7d813583          	ld	a1,2008(sp)
    3264:	007585b3          	add	a1,a1,t2
    3268:	00d585b3          	add	a1,a1,a3
    326c:	ffff44b7          	lui	s1,0xffff4
    3270:	009585b3          	add	a1,a1,s1
    3274:	40a585bb          	subw	a1,a1,a0
    3278:	400004b7          	lui	s1,0x40000
    327c:	3cb13023          	sd	a1,960(sp)
    3280:	0005d463          	bgez	a1,3288 <.LBB11_24>
    3284:	c00004b7          	lui	s1,0xc0000

0000000000003288 <.LBB11_24>:
    3288:	3a913c23          	sd	s1,952(sp)
    328c:	007b1b13          	slli	s6,s6,0x7
    3290:	7f813583          	ld	a1,2040(sp)
    3294:	006585b3          	add	a1,a1,t1
    3298:	016585b3          	add	a1,a1,s6
    329c:	ffff44b7          	lui	s1,0xffff4
    32a0:	009585b3          	add	a1,a1,s1
    32a4:	40a585bb          	subw	a1,a1,a0
    32a8:	400004b7          	lui	s1,0x40000
    32ac:	34b13023          	sd	a1,832(sp)
    32b0:	0005d463          	bgez	a1,32b8 <.LBB11_26>
    32b4:	c00004b7          	lui	s1,0xc0000

00000000000032b8 <.LBB11_26>:
    32b8:	32913c23          	sd	s1,824(sp)
    32bc:	007c9c93          	slli	s9,s9,0x7
    32c0:	000015b7          	lui	a1,0x1
    32c4:	00b105b3          	add	a1,sp,a1
    32c8:	8185b583          	ld	a1,-2024(a1) # 818 <.LBB11_1+0x6dc>
    32cc:	005585b3          	add	a1,a1,t0
    32d0:	019585b3          	add	a1,a1,s9
    32d4:	ffff44b7          	lui	s1,0xffff4
    32d8:	009585b3          	add	a1,a1,s1
    32dc:	40a585bb          	subw	a1,a1,a0
    32e0:	400004b7          	lui	s1,0x40000
    32e4:	2cb13423          	sd	a1,712(sp)
    32e8:	0005d463          	bgez	a1,32f0 <.LBB11_28>
    32ec:	c00004b7          	lui	s1,0xc0000

00000000000032f0 <.LBB11_28>:
    32f0:	2c913023          	sd	s1,704(sp)
    32f4:	007a9a93          	slli	s5,s5,0x7
    32f8:	000015b7          	lui	a1,0x1
    32fc:	00b105b3          	add	a1,sp,a1
    3300:	8405b583          	ld	a1,-1984(a1) # 840 <.LBB11_1+0x704>
    3304:	010585b3          	add	a1,a1,a6
    3308:	015585b3          	add	a1,a1,s5
    330c:	ffff44b7          	lui	s1,0xffff4
    3310:	009585b3          	add	a1,a1,s1
    3314:	40a585bb          	subw	a1,a1,a0
    3318:	400004b7          	lui	s1,0x40000
    331c:	24b13c23          	sd	a1,600(sp)
    3320:	0005d463          	bgez	a1,3328 <.LBB11_30>
    3324:	c00004b7          	lui	s1,0xc0000

0000000000003328 <.LBB11_30>:
    3328:	24913823          	sd	s1,592(sp)
    332c:	007a1a13          	slli	s4,s4,0x7
    3330:	000015b7          	lui	a1,0x1
    3334:	00b105b3          	add	a1,sp,a1
    3338:	8485b583          	ld	a1,-1976(a1) # 848 <.LBB11_1+0x70c>
    333c:	011585b3          	add	a1,a1,a7
    3340:	014585b3          	add	a1,a1,s4
    3344:	ffff44b7          	lui	s1,0xffff4
    3348:	009585b3          	add	a1,a1,s1
    334c:	40a585bb          	subw	a1,a1,a0
    3350:	400004b7          	lui	s1,0x40000
    3354:	1eb13023          	sd	a1,480(sp)
    3358:	0005d463          	bgez	a1,3360 <.LBB11_32>
    335c:	c00004b7          	lui	s1,0xc0000

0000000000003360 <.LBB11_32>:
    3360:	1c913c23          	sd	s1,472(sp)
    3364:	007c1c13          	slli	s8,s8,0x7
    3368:	000015b7          	lui	a1,0x1
    336c:	00b105b3          	add	a1,sp,a1
    3370:	8605b583          	ld	a1,-1952(a1) # 860 <.LBB11_2+0x10>
    3374:	00e585b3          	add	a1,a1,a4
    3378:	018585b3          	add	a1,a1,s8
    337c:	ffff44b7          	lui	s1,0xffff4
    3380:	009585b3          	add	a1,a1,s1
    3384:	40a585bb          	subw	a1,a1,a0
    3388:	400004b7          	lui	s1,0x40000
    338c:	16b13823          	sd	a1,368(sp)
    3390:	0005d463          	bgez	a1,3398 <.LBB11_34>
    3394:	c00004b7          	lui	s1,0xc0000

0000000000003398 <.LBB11_34>:
    3398:	16913423          	sd	s1,360(sp)
    339c:	00799993          	slli	s3,s3,0x7
    33a0:	000015b7          	lui	a1,0x1
    33a4:	00b105b3          	add	a1,sp,a1
    33a8:	8685b583          	ld	a1,-1944(a1) # 868 <.LBB11_2+0x18>
    33ac:	00f585b3          	add	a1,a1,a5
    33b0:	013585b3          	add	a1,a1,s3
    33b4:	ffff44b7          	lui	s1,0xffff4
    33b8:	009585b3          	add	a1,a1,s1
    33bc:	40a585bb          	subw	a1,a1,a0
    33c0:	40000537          	lui	a0,0x40000
    33c4:	10b13023          	sd	a1,256(sp)
    33c8:	0005d463          	bgez	a1,33d0 <.LBB11_36>
    33cc:	c0000537          	lui	a0,0xc0000

00000000000033d0 <.LBB11_36>:
    33d0:	0ea13423          	sd	a0,232(sp)
    33d4:	00c00513          	li	a0,12
    33d8:	75813583          	ld	a1,1880(sp)
    33dc:	02a58533          	mul	a0,a1,a0
    33e0:	53813583          	ld	a1,1336(sp)
    33e4:	00b60633          	add	a2,a2,a1
    33e8:	000015b7          	lui	a1,0x1
    33ec:	00b105b3          	add	a1,sp,a1
    33f0:	8b85b583          	ld	a1,-1864(a1) # 8b8 <.LBB11_2+0x68>
    33f4:	00b60633          	add	a2,a2,a1
    33f8:	ffff45b7          	lui	a1,0xffff4
    33fc:	00b60633          	add	a2,a2,a1
    3400:	40a6063b          	subw	a2,a2,a0
    3404:	400005b7          	lui	a1,0x40000
    3408:	000014b7          	lui	s1,0x1
    340c:	009104b3          	add	s1,sp,s1
    3410:	86c4b423          	sd	a2,-1944(s1) # 868 <.LBB11_2+0x18>
    3414:	00065463          	bgez	a2,341c <.LBB11_38>
    3418:	c00005b7          	lui	a1,0xc0000

000000000000341c <.LBB11_38>:
    341c:	00001637          	lui	a2,0x1
    3420:	00c10633          	add	a2,sp,a2
    3424:	86b63023          	sd	a1,-1952(a2) # 860 <.LBB11_2+0x10>
    3428:	54013603          	ld	a2,1344(sp)
    342c:	00c080b3          	add	ra,ra,a2
    3430:	000015b7          	lui	a1,0x1
    3434:	00b105b3          	add	a1,sp,a1
    3438:	8b05b583          	ld	a1,-1872(a1) # 8b0 <.LBB11_2+0x60>
    343c:	00b080b3          	add	ra,ra,a1
    3440:	ffff45b7          	lui	a1,0xffff4
    3444:	00b080b3          	add	ra,ra,a1
    3448:	40a085bb          	subw	a1,ra,a0
    344c:	400004b7          	lui	s1,0x40000
    3450:	000010b7          	lui	ra,0x1
    3454:	001100b3          	add	ra,sp,ra
    3458:	84b0b423          	sd	a1,-1976(ra) # 848 <.LBB11_1+0x70c>
    345c:	0005d463          	bgez	a1,3464 <.LBB11_40>
    3460:	c00004b7          	lui	s1,0xc0000

0000000000003464 <.LBB11_40>:
    3464:	000015b7          	lui	a1,0x1
    3468:	00b105b3          	add	a1,sp,a1
    346c:	8495b023          	sd	s1,-1984(a1) # 840 <.LBB11_1+0x704>
    3470:	52013083          	ld	ra,1312(sp)
    3474:	001d0d33          	add	s10,s10,ra
    3478:	000015b7          	lui	a1,0x1
    347c:	00b105b3          	add	a1,sp,a1
    3480:	8a85b583          	ld	a1,-1880(a1) # 8a8 <.LBB11_2+0x58>
    3484:	00bd0d33          	add	s10,s10,a1
    3488:	ffff45b7          	lui	a1,0xffff4
    348c:	00bd0d33          	add	s10,s10,a1
    3490:	40ad05bb          	subw	a1,s10,a0
    3494:	400004b7          	lui	s1,0x40000
    3498:	00001d37          	lui	s10,0x1
    349c:	01a10d33          	add	s10,sp,s10
    34a0:	80bd3c23          	sd	a1,-2024(s10) # 818 <.LBB11_1+0x6dc>
    34a4:	0005d463          	bgez	a1,34ac <.LBB11_42>
    34a8:	c00004b7          	lui	s1,0xc0000

00000000000034ac <.LBB11_42>:
    34ac:	7e913c23          	sd	s1,2040(sp)
    34b0:	6c813483          	ld	s1,1736(sp)
    34b4:	012484b3          	add	s1,s1,s2
    34b8:	000015b7          	lui	a1,0x1
    34bc:	00b105b3          	add	a1,sp,a1
    34c0:	8a05b583          	ld	a1,-1888(a1) # 8a0 <.LBB11_2+0x50>
    34c4:	00b484b3          	add	s1,s1,a1
    34c8:	ffff45b7          	lui	a1,0xffff4
    34cc:	00b484b3          	add	s1,s1,a1
    34d0:	40a484bb          	subw	s1,s1,a0
    34d4:	400005b7          	lui	a1,0x40000
    34d8:	7c913c23          	sd	s1,2008(sp)
    34dc:	0004d463          	bgez	s1,34e4 <.LBB11_44>
    34e0:	c00005b7          	lui	a1,0xc0000

00000000000034e4 <.LBB11_44>:
    34e4:	7cb13423          	sd	a1,1992(sp)
    34e8:	76813583          	ld	a1,1896(sp)
    34ec:	01f585b3          	add	a1,a1,t6
    34f0:	000014b7          	lui	s1,0x1
    34f4:	009104b3          	add	s1,sp,s1
    34f8:	8984b483          	ld	s1,-1896(s1) # 898 <.LBB11_2+0x48>
    34fc:	009585b3          	add	a1,a1,s1
    3500:	ffff44b7          	lui	s1,0xffff4
    3504:	009585b3          	add	a1,a1,s1
    3508:	40a585bb          	subw	a1,a1,a0
    350c:	40000d37          	lui	s10,0x40000
    3510:	53813483          	ld	s1,1336(sp)
    3514:	76b13423          	sd	a1,1896(sp)
    3518:	0005d463          	bgez	a1,3520 <.LBB11_46>
    351c:	c0000d37          	lui	s10,0xc0000

0000000000003520 <.LBB11_46>:
    3520:	75a13c23          	sd	s10,1880(sp)
    3524:	6d813583          	ld	a1,1752(sp)
    3528:	01b585b3          	add	a1,a1,s11
    352c:	00001d37          	lui	s10,0x1
    3530:	01a10d33          	add	s10,sp,s10
    3534:	890d3d03          	ld	s10,-1904(s10) # 890 <.LBB11_2+0x40>
    3538:	01a585b3          	add	a1,a1,s10
    353c:	ffff4d37          	lui	s10,0xffff4
    3540:	01a585b3          	add	a1,a1,s10
    3544:	40a585bb          	subw	a1,a1,a0
    3548:	40000d37          	lui	s10,0x40000
    354c:	6cb13c23          	sd	a1,1752(sp)
    3550:	0005d463          	bgez	a1,3558 <.LBB11_48>
    3554:	c0000d37          	lui	s10,0xc0000

0000000000003558 <.LBB11_48>:
    3558:	6da13423          	sd	s10,1736(sp)
    355c:	56813583          	ld	a1,1384(sp)
    3560:	01e585b3          	add	a1,a1,t5
    3564:	00001d37          	lui	s10,0x1
    3568:	01a10d33          	add	s10,sp,s10
    356c:	888d3d03          	ld	s10,-1912(s10) # 888 <.LBB11_2+0x38>
    3570:	01a585b3          	add	a1,a1,s10
    3574:	ffff4d37          	lui	s10,0xffff4
    3578:	01a585b3          	add	a1,a1,s10
    357c:	40a585bb          	subw	a1,a1,a0
    3580:	40000d37          	lui	s10,0x40000
    3584:	56b13423          	sd	a1,1384(sp)
    3588:	0005d463          	bgez	a1,3590 <.LBB11_50>
    358c:	c0000d37          	lui	s10,0xc0000

0000000000003590 <.LBB11_50>:
    3590:	55a13c23          	sd	s10,1368(sp)
    3594:	4b013583          	ld	a1,1200(sp)
    3598:	01d585b3          	add	a1,a1,t4
    359c:	00001d37          	lui	s10,0x1
    35a0:	01a10d33          	add	s10,sp,s10
    35a4:	880d3d03          	ld	s10,-1920(s10) # 880 <.LBB11_2+0x30>
    35a8:	01a585b3          	add	a1,a1,s10
    35ac:	ffff4d37          	lui	s10,0xffff4
    35b0:	01a585b3          	add	a1,a1,s10
    35b4:	40a585bb          	subw	a1,a1,a0
    35b8:	40000d37          	lui	s10,0x40000
    35bc:	4ab13823          	sd	a1,1200(sp)
    35c0:	0005d463          	bgez	a1,35c8 <.LBB11_52>
    35c4:	c0000d37          	lui	s10,0xc0000

00000000000035c8 <.LBB11_52>:
    35c8:	4ba13023          	sd	s10,1184(sp)
    35cc:	45813583          	ld	a1,1112(sp)
    35d0:	01c585b3          	add	a1,a1,t3
    35d4:	017585b3          	add	a1,a1,s7
    35d8:	ffff4d37          	lui	s10,0xffff4
    35dc:	01a585b3          	add	a1,a1,s10
    35e0:	40a585bb          	subw	a1,a1,a0
    35e4:	40000d37          	lui	s10,0x40000
    35e8:	42b13823          	sd	a1,1072(sp)
    35ec:	0005d463          	bgez	a1,35f4 <.LBB11_54>
    35f0:	c0000d37          	lui	s10,0xc0000

00000000000035f4 <.LBB11_54>:
    35f4:	43a13023          	sd	s10,1056(sp)
    35f8:	49013583          	ld	a1,1168(sp)
    35fc:	007585b3          	add	a1,a1,t2
    3600:	00d585b3          	add	a1,a1,a3
    3604:	ffff4d37          	lui	s10,0xffff4
    3608:	01a585b3          	add	a1,a1,s10
    360c:	40a585bb          	subw	a1,a1,a0
    3610:	40000d37          	lui	s10,0x40000
    3614:	3ab13823          	sd	a1,944(sp)
    3618:	0005d463          	bgez	a1,3620 <.LBB11_56>
    361c:	c0000d37          	lui	s10,0xc0000

0000000000003620 <.LBB11_56>:
    3620:	3ba13023          	sd	s10,928(sp)
    3624:	51013583          	ld	a1,1296(sp)
    3628:	006585b3          	add	a1,a1,t1
    362c:	016585b3          	add	a1,a1,s6
    3630:	ffff4d37          	lui	s10,0xffff4
    3634:	01a585b3          	add	a1,a1,s10
    3638:	40a585bb          	subw	a1,a1,a0
    363c:	40000d37          	lui	s10,0x40000
    3640:	32b13823          	sd	a1,816(sp)
    3644:	0005d463          	bgez	a1,364c <.LBB11_58>
    3648:	c0000d37          	lui	s10,0xc0000

000000000000364c <.LBB11_58>:
    364c:	33a13023          	sd	s10,800(sp)
    3650:	6b813583          	ld	a1,1720(sp)
    3654:	005585b3          	add	a1,a1,t0
    3658:	019585b3          	add	a1,a1,s9
    365c:	ffff4d37          	lui	s10,0xffff4
    3660:	01a585b3          	add	a1,a1,s10
    3664:	40a585bb          	subw	a1,a1,a0
    3668:	40000d37          	lui	s10,0x40000
    366c:	2ab13c23          	sd	a1,696(sp)
    3670:	0005d463          	bgez	a1,3678 <.LBB11_60>
    3674:	c0000d37          	lui	s10,0xc0000

0000000000003678 <.LBB11_60>:
    3678:	2ba13423          	sd	s10,680(sp)
    367c:	74813583          	ld	a1,1864(sp)
    3680:	010585b3          	add	a1,a1,a6
    3684:	015585b3          	add	a1,a1,s5
    3688:	ffff4d37          	lui	s10,0xffff4
    368c:	01a585b3          	add	a1,a1,s10
    3690:	40a585bb          	subw	a1,a1,a0
    3694:	40000d37          	lui	s10,0x40000
    3698:	24b13423          	sd	a1,584(sp)
    369c:	0005d463          	bgez	a1,36a4 <.LBB11_62>
    36a0:	c0000d37          	lui	s10,0xc0000

00000000000036a4 <.LBB11_62>:
    36a4:	23a13c23          	sd	s10,568(sp)
    36a8:	7c013583          	ld	a1,1984(sp)
    36ac:	011585b3          	add	a1,a1,a7
    36b0:	014585b3          	add	a1,a1,s4
    36b4:	ffff4d37          	lui	s10,0xffff4
    36b8:	01a585b3          	add	a1,a1,s10
    36bc:	40a585bb          	subw	a1,a1,a0
    36c0:	40000d37          	lui	s10,0x40000
    36c4:	1cb13823          	sd	a1,464(sp)
    36c8:	0005d463          	bgez	a1,36d0 <.LBB11_64>
    36cc:	c0000d37          	lui	s10,0xc0000

00000000000036d0 <.LBB11_64>:
    36d0:	1da13023          	sd	s10,448(sp)
    36d4:	000015b7          	lui	a1,0x1
    36d8:	00b105b3          	add	a1,sp,a1
    36dc:	8205b583          	ld	a1,-2016(a1) # 820 <.LBB11_1+0x6e4>
    36e0:	00e585b3          	add	a1,a1,a4
    36e4:	018585b3          	add	a1,a1,s8
    36e8:	ffff4d37          	lui	s10,0xffff4
    36ec:	01a585b3          	add	a1,a1,s10
    36f0:	40a585bb          	subw	a1,a1,a0
    36f4:	40000d37          	lui	s10,0x40000
    36f8:	16b13023          	sd	a1,352(sp)
    36fc:	0005d463          	bgez	a1,3704 <.LBB11_66>
    3700:	c0000d37          	lui	s10,0xc0000

0000000000003704 <.LBB11_66>:
    3704:	15a13823          	sd	s10,336(sp)
    3708:	000015b7          	lui	a1,0x1
    370c:	00b105b3          	add	a1,sp,a1
    3710:	8305b583          	ld	a1,-2000(a1) # 830 <.LBB11_1+0x6f4>
    3714:	00f585b3          	add	a1,a1,a5
    3718:	013585b3          	add	a1,a1,s3
    371c:	ffff4d37          	lui	s10,0xffff4
    3720:	01a585b3          	add	a1,a1,s10
    3724:	40a585bb          	subw	a1,a1,a0
    3728:	40000537          	lui	a0,0x40000
    372c:	0eb13c23          	sd	a1,248(sp)
    3730:	0005d463          	bgez	a1,3738 <.LBB11_68>
    3734:	c0000537          	lui	a0,0xc0000

0000000000003738 <.LBB11_68>:
    3738:	0ea13023          	sd	a0,224(sp)
    373c:	00c00513          	li	a0,12
    3740:	00c13023          	sd	a2,0(sp)
    3744:	000015b7          	lui	a1,0x1
    3748:	00b105b3          	add	a1,sp,a1
    374c:	8105b583          	ld	a1,-2032(a1) # 810 <.LBB11_1+0x6d4>
    3750:	02a58533          	mul	a0,a1,a0
    3754:	7f013583          	ld	a1,2032(sp)
    3758:	009585b3          	add	a1,a1,s1
    375c:	00001637          	lui	a2,0x1
    3760:	00c10633          	add	a2,sp,a2
    3764:	8b863d03          	ld	s10,-1864(a2) # 8b8 <.LBB11_2+0x68>
    3768:	01a585b3          	add	a1,a1,s10
    376c:	ffff4d37          	lui	s10,0xffff4
    3770:	01a585b3          	add	a1,a1,s10
    3774:	40a585bb          	subw	a1,a1,a0
    3778:	40000d37          	lui	s10,0x40000
    377c:	00001637          	lui	a2,0x1
    3780:	00c10633          	add	a2,sp,a2
    3784:	82b63823          	sd	a1,-2000(a2) # 830 <.LBB11_1+0x6f4>
    3788:	00013603          	ld	a2,0(sp)
    378c:	0005d463          	bgez	a1,3794 <.LBB11_70>
    3790:	c0000d37          	lui	s10,0xc0000

0000000000003794 <.LBB11_70>:
    3794:	00d13023          	sd	a3,0(sp)
    3798:	000015b7          	lui	a1,0x1
    379c:	00b105b3          	add	a1,sp,a1
    37a0:	83a5b023          	sd	s10,-2016(a1) # 820 <.LBB11_1+0x6e4>
    37a4:	000015b7          	lui	a1,0x1
    37a8:	00b105b3          	add	a1,sp,a1
    37ac:	8005b583          	ld	a1,-2048(a1) # 800 <.LBB11_1+0x6c4>
    37b0:	00c585b3          	add	a1,a1,a2
    37b4:	000016b7          	lui	a3,0x1
    37b8:	00d106b3          	add	a3,sp,a3
    37bc:	8b06bd03          	ld	s10,-1872(a3) # 8b0 <.LBB11_2+0x60>
    37c0:	01a585b3          	add	a1,a1,s10
    37c4:	ffff4d37          	lui	s10,0xffff4
    37c8:	01a585b3          	add	a1,a1,s10
    37cc:	40a585bb          	subw	a1,a1,a0
    37d0:	40000d37          	lui	s10,0x40000
    37d4:	000016b7          	lui	a3,0x1
    37d8:	00d106b3          	add	a3,sp,a3
    37dc:	80b6b823          	sd	a1,-2032(a3) # 810 <.LBB11_1+0x6d4>
    37e0:	00013683          	ld	a3,0(sp)
    37e4:	0005d463          	bgez	a1,37ec <.LBB11_72>
    37e8:	c0000d37          	lui	s10,0xc0000

00000000000037ec <.LBB11_72>:
    37ec:	00c13023          	sd	a2,0(sp)
    37f0:	000015b7          	lui	a1,0x1
    37f4:	00b105b3          	add	a1,sp,a1
    37f8:	81a5b023          	sd	s10,-2048(a1) # 800 <.LBB11_1+0x6c4>
    37fc:	000015b7          	lui	a1,0x1
    3800:	00b105b3          	add	a1,sp,a1
    3804:	8085b583          	ld	a1,-2040(a1) # 808 <.LBB11_1+0x6cc>
    3808:	001585b3          	add	a1,a1,ra
    380c:	00001637          	lui	a2,0x1
    3810:	00c10633          	add	a2,sp,a2
    3814:	8a863d03          	ld	s10,-1880(a2) # 8a8 <.LBB11_2+0x58>
    3818:	01a585b3          	add	a1,a1,s10
    381c:	ffff4d37          	lui	s10,0xffff4
    3820:	01a585b3          	add	a1,a1,s10
    3824:	40a585bb          	subw	a1,a1,a0
    3828:	40000d37          	lui	s10,0x40000
    382c:	00001637          	lui	a2,0x1
    3830:	00c10633          	add	a2,sp,a2
    3834:	80b63423          	sd	a1,-2040(a2) # 808 <.LBB11_1+0x6cc>
    3838:	00013603          	ld	a2,0(sp)
    383c:	0005d463          	bgez	a1,3844 <.LBB11_74>
    3840:	c0000d37          	lui	s10,0xc0000

0000000000003844 <.LBB11_74>:
    3844:	7fa13823          	sd	s10,2032(sp)
    3848:	7d013583          	ld	a1,2000(sp)
    384c:	012585b3          	add	a1,a1,s2
    3850:	00001d37          	lui	s10,0x1
    3854:	01a10d33          	add	s10,sp,s10
    3858:	8a0d3d03          	ld	s10,-1888(s10) # 8a0 <.LBB11_2+0x50>
    385c:	01a585b3          	add	a1,a1,s10
    3860:	ffff4d37          	lui	s10,0xffff4
    3864:	01a585b3          	add	a1,a1,s10
    3868:	40a585bb          	subw	a1,a1,a0
    386c:	40000d37          	lui	s10,0x40000
    3870:	7cb13823          	sd	a1,2000(sp)
    3874:	0005d463          	bgez	a1,387c <.LBB11_76>
    3878:	c0000d37          	lui	s10,0xc0000

000000000000387c <.LBB11_76>:
    387c:	7da13023          	sd	s10,1984(sp)
    3880:	76013583          	ld	a1,1888(sp)
    3884:	01f585b3          	add	a1,a1,t6
    3888:	00001d37          	lui	s10,0x1
    388c:	01a10d33          	add	s10,sp,s10
    3890:	898d3d03          	ld	s10,-1896(s10) # 898 <.LBB11_2+0x48>
    3894:	01a585b3          	add	a1,a1,s10
    3898:	ffff4d37          	lui	s10,0xffff4
    389c:	01a585b3          	add	a1,a1,s10
    38a0:	40a585bb          	subw	a1,a1,a0
    38a4:	40000d37          	lui	s10,0x40000
    38a8:	76b13023          	sd	a1,1888(sp)
    38ac:	0005d463          	bgez	a1,38b4 <.LBB11_78>
    38b0:	c0000d37          	lui	s10,0xc0000

00000000000038b4 <.LBB11_78>:
    38b4:	75a13423          	sd	s10,1864(sp)
    38b8:	6d013583          	ld	a1,1744(sp)
    38bc:	01b585b3          	add	a1,a1,s11
    38c0:	00001d37          	lui	s10,0x1
    38c4:	01a10d33          	add	s10,sp,s10
    38c8:	890d3d03          	ld	s10,-1904(s10) # 890 <.LBB11_2+0x40>
    38cc:	01a585b3          	add	a1,a1,s10
    38d0:	ffff4d37          	lui	s10,0xffff4
    38d4:	01a585b3          	add	a1,a1,s10
    38d8:	40a585bb          	subw	a1,a1,a0
    38dc:	40000d37          	lui	s10,0x40000
    38e0:	6cb13823          	sd	a1,1744(sp)
    38e4:	0005d463          	bgez	a1,38ec <.LBB11_80>
    38e8:	c0000d37          	lui	s10,0xc0000

00000000000038ec <.LBB11_80>:
    38ec:	6ba13c23          	sd	s10,1720(sp)
    38f0:	56013583          	ld	a1,1376(sp)
    38f4:	01e585b3          	add	a1,a1,t5
    38f8:	00001d37          	lui	s10,0x1
    38fc:	01a10d33          	add	s10,sp,s10
    3900:	888d3d03          	ld	s10,-1912(s10) # 888 <.LBB11_2+0x38>
    3904:	01a585b3          	add	a1,a1,s10
    3908:	ffff4d37          	lui	s10,0xffff4
    390c:	01a585b3          	add	a1,a1,s10
    3910:	40a585bb          	subw	a1,a1,a0
    3914:	40000d37          	lui	s10,0x40000
    3918:	56b13023          	sd	a1,1376(sp)
    391c:	0005d463          	bgez	a1,3924 <.LBB11_82>
    3920:	c0000d37          	lui	s10,0xc0000

0000000000003924 <.LBB11_82>:
    3924:	51a13823          	sd	s10,1296(sp)
    3928:	4a813583          	ld	a1,1192(sp)
    392c:	01d585b3          	add	a1,a1,t4
    3930:	00001d37          	lui	s10,0x1
    3934:	01a10d33          	add	s10,sp,s10
    3938:	880d3d03          	ld	s10,-1920(s10) # 880 <.LBB11_2+0x30>
    393c:	01a585b3          	add	a1,a1,s10
    3940:	ffff4d37          	lui	s10,0xffff4
    3944:	01a585b3          	add	a1,a1,s10
    3948:	40a585bb          	subw	a1,a1,a0
    394c:	40000d37          	lui	s10,0x40000
    3950:	4ab13423          	sd	a1,1192(sp)
    3954:	0005d463          	bgez	a1,395c <.LBB11_84>
    3958:	c0000d37          	lui	s10,0xc0000

000000000000395c <.LBB11_84>:
    395c:	49a13823          	sd	s10,1168(sp)
    3960:	46013583          	ld	a1,1120(sp)
    3964:	01c585b3          	add	a1,a1,t3
    3968:	017585b3          	add	a1,a1,s7
    396c:	ffff4d37          	lui	s10,0xffff4
    3970:	01a585b3          	add	a1,a1,s10
    3974:	40a585bb          	subw	a1,a1,a0
    3978:	40000d37          	lui	s10,0x40000
    397c:	42b13423          	sd	a1,1064(sp)
    3980:	0005d463          	bgez	a1,3988 <.LBB11_86>
    3984:	c0000d37          	lui	s10,0xc0000

0000000000003988 <.LBB11_86>:
    3988:	41a13823          	sd	s10,1040(sp)
    398c:	48013583          	ld	a1,1152(sp)
    3990:	007585b3          	add	a1,a1,t2
    3994:	00d585b3          	add	a1,a1,a3
    3998:	ffff4d37          	lui	s10,0xffff4
    399c:	01a585b3          	add	a1,a1,s10
    39a0:	40a585bb          	subw	a1,a1,a0
    39a4:	40000d37          	lui	s10,0x40000
    39a8:	3ab13423          	sd	a1,936(sp)
    39ac:	0005d463          	bgez	a1,39b4 <.LBB11_88>
    39b0:	c0000d37          	lui	s10,0xc0000

00000000000039b4 <.LBB11_88>:
    39b4:	39a13823          	sd	s10,912(sp)
    39b8:	50013583          	ld	a1,1280(sp)
    39bc:	006585b3          	add	a1,a1,t1
    39c0:	016585b3          	add	a1,a1,s6
    39c4:	ffff4d37          	lui	s10,0xffff4
    39c8:	01a585b3          	add	a1,a1,s10
    39cc:	40a585bb          	subw	a1,a1,a0
    39d0:	40000d37          	lui	s10,0x40000
    39d4:	32b13423          	sd	a1,808(sp)
    39d8:	0005d463          	bgez	a1,39e0 <.LBB11_90>
    39dc:	c0000d37          	lui	s10,0xc0000

00000000000039e0 <.LBB11_90>:
    39e0:	31a13823          	sd	s10,784(sp)
    39e4:	65813583          	ld	a1,1624(sp)
    39e8:	005585b3          	add	a1,a1,t0
    39ec:	019585b3          	add	a1,a1,s9
    39f0:	ffff4d37          	lui	s10,0xffff4
    39f4:	01a585b3          	add	a1,a1,s10
    39f8:	40a585bb          	subw	a1,a1,a0
    39fc:	40000d37          	lui	s10,0x40000
    3a00:	2ab13823          	sd	a1,688(sp)
    3a04:	0005d463          	bgez	a1,3a0c <.LBB11_92>
    3a08:	c0000d37          	lui	s10,0xc0000

0000000000003a0c <.LBB11_92>:
    3a0c:	29a13c23          	sd	s10,664(sp)
    3a10:	74013583          	ld	a1,1856(sp)
    3a14:	010585b3          	add	a1,a1,a6
    3a18:	015585b3          	add	a1,a1,s5
    3a1c:	ffff4d37          	lui	s10,0xffff4
    3a20:	01a585b3          	add	a1,a1,s10
    3a24:	40a585bb          	subw	a1,a1,a0
    3a28:	40000d37          	lui	s10,0x40000
    3a2c:	24b13023          	sd	a1,576(sp)
    3a30:	0005d463          	bgez	a1,3a38 <.LBB11_94>
    3a34:	c0000d37          	lui	s10,0xc0000

0000000000003a38 <.LBB11_94>:
    3a38:	23a13423          	sd	s10,552(sp)
    3a3c:	77013583          	ld	a1,1904(sp)
    3a40:	011585b3          	add	a1,a1,a7
    3a44:	014585b3          	add	a1,a1,s4
    3a48:	ffff4d37          	lui	s10,0xffff4
    3a4c:	01a585b3          	add	a1,a1,s10
    3a50:	40a585bb          	subw	a1,a1,a0
    3a54:	40000d37          	lui	s10,0x40000
    3a58:	1cb13423          	sd	a1,456(sp)
    3a5c:	0005d463          	bgez	a1,3a64 <.LBB11_96>
    3a60:	c0000d37          	lui	s10,0xc0000

0000000000003a64 <.LBB11_96>:
    3a64:	1ba13823          	sd	s10,432(sp)
    3a68:	78013583          	ld	a1,1920(sp)
    3a6c:	00e585b3          	add	a1,a1,a4
    3a70:	018585b3          	add	a1,a1,s8
    3a74:	ffff4d37          	lui	s10,0xffff4
    3a78:	01a585b3          	add	a1,a1,s10
    3a7c:	40a585bb          	subw	a1,a1,a0
    3a80:	40000d37          	lui	s10,0x40000
    3a84:	14b13c23          	sd	a1,344(sp)
    3a88:	0005d463          	bgez	a1,3a90 <.LBB11_98>
    3a8c:	c0000d37          	lui	s10,0xc0000

0000000000003a90 <.LBB11_98>:
    3a90:	15a13023          	sd	s10,320(sp)
    3a94:	7a013583          	ld	a1,1952(sp)
    3a98:	00f585b3          	add	a1,a1,a5
    3a9c:	013585b3          	add	a1,a1,s3
    3aa0:	ffff4d37          	lui	s10,0xffff4
    3aa4:	01a585b3          	add	a1,a1,s10
    3aa8:	40a585bb          	subw	a1,a1,a0
    3aac:	40000537          	lui	a0,0x40000
    3ab0:	0eb13823          	sd	a1,240(sp)
    3ab4:	0005d463          	bgez	a1,3abc <.LBB11_100>
    3ab8:	c0000537          	lui	a0,0xc0000

0000000000003abc <.LBB11_100>:
    3abc:	0ca13823          	sd	a0,208(sp)
    3ac0:	00c00513          	li	a0,12
    3ac4:	7b013583          	ld	a1,1968(sp)
    3ac8:	02a58533          	mul	a0,a1,a0
    3acc:	77813583          	ld	a1,1912(sp)
    3ad0:	009585b3          	add	a1,a1,s1
    3ad4:	00001d37          	lui	s10,0x1
    3ad8:	01a10d33          	add	s10,sp,s10
    3adc:	8b8d3d03          	ld	s10,-1864(s10) # 8b8 <.LBB11_2+0x68>
    3ae0:	01a585b3          	add	a1,a1,s10
    3ae4:	ffff4d37          	lui	s10,0xffff4
    3ae8:	01a585b3          	add	a1,a1,s10
    3aec:	40a585bb          	subw	a1,a1,a0
    3af0:	40000d37          	lui	s10,0x40000
    3af4:	7ab13823          	sd	a1,1968(sp)
    3af8:	0005d463          	bgez	a1,3b00 <.LBB11_102>
    3afc:	c0000d37          	lui	s10,0xc0000

0000000000003b00 <.LBB11_102>:
    3b00:	7ba13023          	sd	s10,1952(sp)
    3b04:	79013583          	ld	a1,1936(sp)
    3b08:	00c585b3          	add	a1,a1,a2
    3b0c:	00001d37          	lui	s10,0x1
    3b10:	01a10d33          	add	s10,sp,s10
    3b14:	8b0d3d03          	ld	s10,-1872(s10) # 8b0 <.LBB11_2+0x60>
    3b18:	01a585b3          	add	a1,a1,s10
    3b1c:	ffff4d37          	lui	s10,0xffff4
    3b20:	01a585b3          	add	a1,a1,s10
    3b24:	40a585bb          	subw	a1,a1,a0
    3b28:	40000d37          	lui	s10,0x40000
    3b2c:	78b13823          	sd	a1,1936(sp)
    3b30:	0005d463          	bgez	a1,3b38 <.LBB11_104>
    3b34:	c0000d37          	lui	s10,0xc0000

0000000000003b38 <.LBB11_104>:
    3b38:	79a13023          	sd	s10,1920(sp)
    3b3c:	78813583          	ld	a1,1928(sp)
    3b40:	001585b3          	add	a1,a1,ra
    3b44:	00001d37          	lui	s10,0x1
    3b48:	01a10d33          	add	s10,sp,s10
    3b4c:	8a8d3d03          	ld	s10,-1880(s10) # 8a8 <.LBB11_2+0x58>
    3b50:	01a585b3          	add	a1,a1,s10
    3b54:	ffff4d37          	lui	s10,0xffff4
    3b58:	01a585b3          	add	a1,a1,s10
    3b5c:	40a585bb          	subw	a1,a1,a0
    3b60:	40000d37          	lui	s10,0x40000
    3b64:	78b13423          	sd	a1,1928(sp)
    3b68:	0005d463          	bgez	a1,3b70 <.LBB11_106>
    3b6c:	c0000d37          	lui	s10,0xc0000

0000000000003b70 <.LBB11_106>:
    3b70:	77a13c23          	sd	s10,1912(sp)
    3b74:	79813583          	ld	a1,1944(sp)
    3b78:	012585b3          	add	a1,a1,s2
    3b7c:	00001d37          	lui	s10,0x1
    3b80:	01a10d33          	add	s10,sp,s10
    3b84:	8a0d3d03          	ld	s10,-1888(s10) # 8a0 <.LBB11_2+0x50>
    3b88:	01a585b3          	add	a1,a1,s10
    3b8c:	ffff4d37          	lui	s10,0xffff4
    3b90:	01a585b3          	add	a1,a1,s10
    3b94:	40a585bb          	subw	a1,a1,a0
    3b98:	40000d37          	lui	s10,0x40000
    3b9c:	78b13c23          	sd	a1,1944(sp)
    3ba0:	0005d463          	bgez	a1,3ba8 <.LBB11_108>
    3ba4:	c0000d37          	lui	s10,0xc0000

0000000000003ba8 <.LBB11_108>:
    3ba8:	77a13823          	sd	s10,1904(sp)
    3bac:	75013583          	ld	a1,1872(sp)
    3bb0:	01f585b3          	add	a1,a1,t6
    3bb4:	00001d37          	lui	s10,0x1
    3bb8:	01a10d33          	add	s10,sp,s10
    3bbc:	898d3d03          	ld	s10,-1896(s10) # 898 <.LBB11_2+0x48>
    3bc0:	01a585b3          	add	a1,a1,s10
    3bc4:	ffff4d37          	lui	s10,0xffff4
    3bc8:	01a585b3          	add	a1,a1,s10
    3bcc:	40a585bb          	subw	a1,a1,a0
    3bd0:	40000d37          	lui	s10,0x40000
    3bd4:	74b13823          	sd	a1,1872(sp)
    3bd8:	0005d463          	bgez	a1,3be0 <.LBB11_110>
    3bdc:	c0000d37          	lui	s10,0xc0000

0000000000003be0 <.LBB11_110>:
    3be0:	75a13023          	sd	s10,1856(sp)
    3be4:	6c013583          	ld	a1,1728(sp)
    3be8:	01b585b3          	add	a1,a1,s11
    3bec:	00001d37          	lui	s10,0x1
    3bf0:	01a10d33          	add	s10,sp,s10
    3bf4:	890d3d03          	ld	s10,-1904(s10) # 890 <.LBB11_2+0x40>
    3bf8:	01a585b3          	add	a1,a1,s10
    3bfc:	ffff4d37          	lui	s10,0xffff4
    3c00:	01a585b3          	add	a1,a1,s10
    3c04:	40a585bb          	subw	a1,a1,a0
    3c08:	40000d37          	lui	s10,0x40000
    3c0c:	6cb13023          	sd	a1,1728(sp)
    3c10:	0005d463          	bgez	a1,3c18 <.LBB11_112>
    3c14:	c0000d37          	lui	s10,0xc0000

0000000000003c18 <.LBB11_112>:
    3c18:	65a13c23          	sd	s10,1624(sp)
    3c1c:	55013583          	ld	a1,1360(sp)
    3c20:	01e585b3          	add	a1,a1,t5
    3c24:	00001d37          	lui	s10,0x1
    3c28:	01a10d33          	add	s10,sp,s10
    3c2c:	888d3d03          	ld	s10,-1912(s10) # 888 <.LBB11_2+0x38>
    3c30:	01a585b3          	add	a1,a1,s10
    3c34:	ffff4d37          	lui	s10,0xffff4
    3c38:	01a585b3          	add	a1,a1,s10
    3c3c:	40a585bb          	subw	a1,a1,a0
    3c40:	40000d37          	lui	s10,0x40000
    3c44:	54b13823          	sd	a1,1360(sp)
    3c48:	0005d463          	bgez	a1,3c50 <.LBB11_114>
    3c4c:	c0000d37          	lui	s10,0xc0000

0000000000003c50 <.LBB11_114>:
    3c50:	51a13023          	sd	s10,1280(sp)
    3c54:	49813583          	ld	a1,1176(sp)
    3c58:	01d585b3          	add	a1,a1,t4
    3c5c:	00001d37          	lui	s10,0x1
    3c60:	01a10d33          	add	s10,sp,s10
    3c64:	880d3d03          	ld	s10,-1920(s10) # 880 <.LBB11_2+0x30>
    3c68:	01a585b3          	add	a1,a1,s10
    3c6c:	ffff4d37          	lui	s10,0xffff4
    3c70:	01a585b3          	add	a1,a1,s10
    3c74:	40a585bb          	subw	a1,a1,a0
    3c78:	40000d37          	lui	s10,0x40000
    3c7c:	48b13c23          	sd	a1,1176(sp)
    3c80:	0005d463          	bgez	a1,3c88 <.LBB11_116>
    3c84:	c0000d37          	lui	s10,0xc0000

0000000000003c88 <.LBB11_116>:
    3c88:	49a13023          	sd	s10,1152(sp)
    3c8c:	46813583          	ld	a1,1128(sp)
    3c90:	01c585b3          	add	a1,a1,t3
    3c94:	017585b3          	add	a1,a1,s7
    3c98:	ffff4d37          	lui	s10,0xffff4
    3c9c:	01a585b3          	add	a1,a1,s10
    3ca0:	40a585bb          	subw	a1,a1,a0
    3ca4:	40000d37          	lui	s10,0x40000
    3ca8:	40b13c23          	sd	a1,1048(sp)
    3cac:	0005d463          	bgez	a1,3cb4 <.LBB11_118>
    3cb0:	c0000d37          	lui	s10,0xc0000

0000000000003cb4 <.LBB11_118>:
    3cb4:	41a13023          	sd	s10,1024(sp)
    3cb8:	47013583          	ld	a1,1136(sp)
    3cbc:	007585b3          	add	a1,a1,t2
    3cc0:	00d585b3          	add	a1,a1,a3
    3cc4:	ffff4d37          	lui	s10,0xffff4
    3cc8:	01a585b3          	add	a1,a1,s10
    3ccc:	40a585bb          	subw	a1,a1,a0
    3cd0:	40000d37          	lui	s10,0x40000
    3cd4:	38b13c23          	sd	a1,920(sp)
    3cd8:	0005d463          	bgez	a1,3ce0 <.LBB11_120>
    3cdc:	c0000d37          	lui	s10,0xc0000

0000000000003ce0 <.LBB11_120>:
    3ce0:	39a13023          	sd	s10,896(sp)
    3ce4:	4f013583          	ld	a1,1264(sp)
    3ce8:	006585b3          	add	a1,a1,t1
    3cec:	016585b3          	add	a1,a1,s6
    3cf0:	ffff4d37          	lui	s10,0xffff4
    3cf4:	01a585b3          	add	a1,a1,s10
    3cf8:	40a585bb          	subw	a1,a1,a0
    3cfc:	40000d37          	lui	s10,0x40000
    3d00:	30b13c23          	sd	a1,792(sp)
    3d04:	0005d463          	bgez	a1,3d0c <.LBB11_122>
    3d08:	c0000d37          	lui	s10,0xc0000

0000000000003d0c <.LBB11_122>:
    3d0c:	31a13023          	sd	s10,768(sp)
    3d10:	64813583          	ld	a1,1608(sp)
    3d14:	005585b3          	add	a1,a1,t0
    3d18:	019585b3          	add	a1,a1,s9
    3d1c:	ffff4d37          	lui	s10,0xffff4
    3d20:	01a585b3          	add	a1,a1,s10
    3d24:	40a585bb          	subw	a1,a1,a0
    3d28:	40000d37          	lui	s10,0x40000
    3d2c:	2ab13023          	sd	a1,672(sp)
    3d30:	0005d463          	bgez	a1,3d38 <.LBB11_124>
    3d34:	c0000d37          	lui	s10,0xc0000

0000000000003d38 <.LBB11_124>:
    3d38:	29a13423          	sd	s10,648(sp)
    3d3c:	6e813583          	ld	a1,1768(sp)
    3d40:	010585b3          	add	a1,a1,a6
    3d44:	015585b3          	add	a1,a1,s5
    3d48:	ffff4d37          	lui	s10,0xffff4
    3d4c:	01a585b3          	add	a1,a1,s10
    3d50:	40a585bb          	subw	a1,a1,a0
    3d54:	40000d37          	lui	s10,0x40000
    3d58:	22b13823          	sd	a1,560(sp)
    3d5c:	0005d463          	bgez	a1,3d64 <.LBB11_126>
    3d60:	c0000d37          	lui	s10,0xc0000

0000000000003d64 <.LBB11_126>:
    3d64:	21a13c23          	sd	s10,536(sp)
    3d68:	6f013583          	ld	a1,1776(sp)
    3d6c:	011585b3          	add	a1,a1,a7
    3d70:	014585b3          	add	a1,a1,s4
    3d74:	ffff4d37          	lui	s10,0xffff4
    3d78:	01a585b3          	add	a1,a1,s10
    3d7c:	40a585bb          	subw	a1,a1,a0
    3d80:	40000d37          	lui	s10,0x40000
    3d84:	1ab13c23          	sd	a1,440(sp)
    3d88:	0005d463          	bgez	a1,3d90 <.LBB11_128>
    3d8c:	c0000d37          	lui	s10,0xc0000

0000000000003d90 <.LBB11_128>:
    3d90:	1ba13023          	sd	s10,416(sp)
    3d94:	70013583          	ld	a1,1792(sp)
    3d98:	00e585b3          	add	a1,a1,a4
    3d9c:	018585b3          	add	a1,a1,s8
    3da0:	ffff4d37          	lui	s10,0xffff4
    3da4:	01a585b3          	add	a1,a1,s10
    3da8:	40a585bb          	subw	a1,a1,a0
    3dac:	40000d37          	lui	s10,0x40000
    3db0:	14b13423          	sd	a1,328(sp)
    3db4:	0005d463          	bgez	a1,3dbc <.LBB11_130>
    3db8:	c0000d37          	lui	s10,0xc0000

0000000000003dbc <.LBB11_130>:
    3dbc:	13a13823          	sd	s10,304(sp)
    3dc0:	72013583          	ld	a1,1824(sp)
    3dc4:	00f585b3          	add	a1,a1,a5
    3dc8:	013585b3          	add	a1,a1,s3
    3dcc:	ffff4d37          	lui	s10,0xffff4
    3dd0:	01a585b3          	add	a1,a1,s10
    3dd4:	40a585bb          	subw	a1,a1,a0
    3dd8:	40000537          	lui	a0,0x40000
    3ddc:	0cb13c23          	sd	a1,216(sp)
    3de0:	0005d463          	bgez	a1,3de8 <.LBB11_132>
    3de4:	c0000537          	lui	a0,0xc0000

0000000000003de8 <.LBB11_132>:
    3de8:	0ca13023          	sd	a0,192(sp)
    3dec:	00c00513          	li	a0,12
    3df0:	73013583          	ld	a1,1840(sp)
    3df4:	02a58533          	mul	a0,a1,a0
    3df8:	6f813583          	ld	a1,1784(sp)
    3dfc:	009585b3          	add	a1,a1,s1
    3e00:	00001d37          	lui	s10,0x1
    3e04:	01a10d33          	add	s10,sp,s10
    3e08:	8b8d3d03          	ld	s10,-1864(s10) # 8b8 <.LBB11_2+0x68>
    3e0c:	01a585b3          	add	a1,a1,s10
    3e10:	ffff4d37          	lui	s10,0xffff4
    3e14:	01a585b3          	add	a1,a1,s10
    3e18:	40a585bb          	subw	a1,a1,a0
    3e1c:	40000d37          	lui	s10,0x40000
    3e20:	72b13823          	sd	a1,1840(sp)
    3e24:	0005d463          	bgez	a1,3e2c <.LBB11_134>
    3e28:	c0000d37          	lui	s10,0xc0000

0000000000003e2c <.LBB11_134>:
    3e2c:	73a13023          	sd	s10,1824(sp)
    3e30:	71013583          	ld	a1,1808(sp)
    3e34:	00c585b3          	add	a1,a1,a2
    3e38:	00001d37          	lui	s10,0x1
    3e3c:	01a10d33          	add	s10,sp,s10
    3e40:	8b0d3d03          	ld	s10,-1872(s10) # 8b0 <.LBB11_2+0x60>
    3e44:	01a585b3          	add	a1,a1,s10
    3e48:	ffff4d37          	lui	s10,0xffff4
    3e4c:	01a585b3          	add	a1,a1,s10
    3e50:	40a585bb          	subw	a1,a1,a0
    3e54:	40000d37          	lui	s10,0x40000
    3e58:	70b13823          	sd	a1,1808(sp)
    3e5c:	0005d463          	bgez	a1,3e64 <.LBB11_136>
    3e60:	c0000d37          	lui	s10,0xc0000

0000000000003e64 <.LBB11_136>:
    3e64:	71a13023          	sd	s10,1792(sp)
    3e68:	70813583          	ld	a1,1800(sp)
    3e6c:	001585b3          	add	a1,a1,ra
    3e70:	00001d37          	lui	s10,0x1
    3e74:	01a10d33          	add	s10,sp,s10
    3e78:	8a8d3d03          	ld	s10,-1880(s10) # 8a8 <.LBB11_2+0x58>
    3e7c:	01a585b3          	add	a1,a1,s10
    3e80:	ffff4d37          	lui	s10,0xffff4
    3e84:	01a585b3          	add	a1,a1,s10
    3e88:	40a585bb          	subw	a1,a1,a0
    3e8c:	40000d37          	lui	s10,0x40000
    3e90:	70b13423          	sd	a1,1800(sp)
    3e94:	0005d463          	bgez	a1,3e9c <.LBB11_138>
    3e98:	c0000d37          	lui	s10,0xc0000

0000000000003e9c <.LBB11_138>:
    3e9c:	6fa13c23          	sd	s10,1784(sp)
    3ea0:	71813583          	ld	a1,1816(sp)
    3ea4:	012585b3          	add	a1,a1,s2
    3ea8:	00001d37          	lui	s10,0x1
    3eac:	01a10d33          	add	s10,sp,s10
    3eb0:	8a0d3d03          	ld	s10,-1888(s10) # 8a0 <.LBB11_2+0x50>
    3eb4:	01a585b3          	add	a1,a1,s10
    3eb8:	ffff4d37          	lui	s10,0xffff4
    3ebc:	01a585b3          	add	a1,a1,s10
    3ec0:	40a585bb          	subw	a1,a1,a0
    3ec4:	40000d37          	lui	s10,0x40000
    3ec8:	70b13c23          	sd	a1,1816(sp)
    3ecc:	0005d463          	bgez	a1,3ed4 <.LBB11_140>
    3ed0:	c0000d37          	lui	s10,0xc0000

0000000000003ed4 <.LBB11_140>:
    3ed4:	6fa13823          	sd	s10,1776(sp)
    3ed8:	72813583          	ld	a1,1832(sp)
    3edc:	01f585b3          	add	a1,a1,t6
    3ee0:	00001d37          	lui	s10,0x1
    3ee4:	01a10d33          	add	s10,sp,s10
    3ee8:	898d3d03          	ld	s10,-1896(s10) # 898 <.LBB11_2+0x48>
    3eec:	01a585b3          	add	a1,a1,s10
    3ef0:	ffff4d37          	lui	s10,0xffff4
    3ef4:	01a585b3          	add	a1,a1,s10
    3ef8:	40a585bb          	subw	a1,a1,a0
    3efc:	40000d37          	lui	s10,0x40000
    3f00:	72b13423          	sd	a1,1832(sp)
    3f04:	0005d463          	bgez	a1,3f0c <.LBB11_142>
    3f08:	c0000d37          	lui	s10,0xc0000

0000000000003f0c <.LBB11_142>:
    3f0c:	6fa13423          	sd	s10,1768(sp)
    3f10:	66013583          	ld	a1,1632(sp)
    3f14:	01b585b3          	add	a1,a1,s11
    3f18:	00001d37          	lui	s10,0x1
    3f1c:	01a10d33          	add	s10,sp,s10
    3f20:	890d3d03          	ld	s10,-1904(s10) # 890 <.LBB11_2+0x40>
    3f24:	01a585b3          	add	a1,a1,s10
    3f28:	ffff4d37          	lui	s10,0xffff4
    3f2c:	01a585b3          	add	a1,a1,s10
    3f30:	40a585bb          	subw	a1,a1,a0
    3f34:	40000d37          	lui	s10,0x40000
    3f38:	66b13023          	sd	a1,1632(sp)
    3f3c:	0005d463          	bgez	a1,3f44 <.LBB11_144>
    3f40:	c0000d37          	lui	s10,0xc0000

0000000000003f44 <.LBB11_144>:
    3f44:	65a13423          	sd	s10,1608(sp)
    3f48:	50813583          	ld	a1,1288(sp)
    3f4c:	01e585b3          	add	a1,a1,t5
    3f50:	00001d37          	lui	s10,0x1
    3f54:	01a10d33          	add	s10,sp,s10
    3f58:	888d3d03          	ld	s10,-1912(s10) # 888 <.LBB11_2+0x38>
    3f5c:	01a585b3          	add	a1,a1,s10
    3f60:	ffff4d37          	lui	s10,0xffff4
    3f64:	01a585b3          	add	a1,a1,s10
    3f68:	40a585bb          	subw	a1,a1,a0
    3f6c:	40000d37          	lui	s10,0x40000
    3f70:	50b13423          	sd	a1,1288(sp)
    3f74:	0005d463          	bgez	a1,3f7c <.LBB11_146>
    3f78:	c0000d37          	lui	s10,0xc0000

0000000000003f7c <.LBB11_146>:
    3f7c:	4fa13823          	sd	s10,1264(sp)
    3f80:	48813583          	ld	a1,1160(sp)
    3f84:	01d585b3          	add	a1,a1,t4
    3f88:	00001d37          	lui	s10,0x1
    3f8c:	01a10d33          	add	s10,sp,s10
    3f90:	880d3d03          	ld	s10,-1920(s10) # 880 <.LBB11_2+0x30>
    3f94:	01a585b3          	add	a1,a1,s10
    3f98:	ffff4d37          	lui	s10,0xffff4
    3f9c:	01a585b3          	add	a1,a1,s10
    3fa0:	40a585bb          	subw	a1,a1,a0
    3fa4:	40000d37          	lui	s10,0x40000
    3fa8:	48b13423          	sd	a1,1160(sp)
    3fac:	0005d463          	bgez	a1,3fb4 <.LBB11_148>
    3fb0:	c0000d37          	lui	s10,0xc0000

0000000000003fb4 <.LBB11_148>:
    3fb4:	47a13823          	sd	s10,1136(sp)
    3fb8:	47813583          	ld	a1,1144(sp)
    3fbc:	01c585b3          	add	a1,a1,t3
    3fc0:	017585b3          	add	a1,a1,s7
    3fc4:	ffff4d37          	lui	s10,0xffff4
    3fc8:	01a585b3          	add	a1,a1,s10
    3fcc:	40a585bb          	subw	a1,a1,a0
    3fd0:	40000d37          	lui	s10,0x40000
    3fd4:	40b13423          	sd	a1,1032(sp)
    3fd8:	0005d463          	bgez	a1,3fe0 <.LBB11_150>
    3fdc:	c0000d37          	lui	s10,0xc0000

0000000000003fe0 <.LBB11_150>:
    3fe0:	3fa13823          	sd	s10,1008(sp)
    3fe4:	4c813583          	ld	a1,1224(sp)
    3fe8:	007585b3          	add	a1,a1,t2
    3fec:	00d585b3          	add	a1,a1,a3
    3ff0:	ffff4d37          	lui	s10,0xffff4
    3ff4:	01a585b3          	add	a1,a1,s10
    3ff8:	40a585bb          	subw	a1,a1,a0
    3ffc:	40000d37          	lui	s10,0x40000
    4000:	38b13423          	sd	a1,904(sp)
    4004:	0005d463          	bgez	a1,400c <.LBB11_152>
    4008:	c0000d37          	lui	s10,0xc0000

000000000000400c <.LBB11_152>:
    400c:	37a13823          	sd	s10,880(sp)
    4010:	4e013583          	ld	a1,1248(sp)
    4014:	006585b3          	add	a1,a1,t1
    4018:	016585b3          	add	a1,a1,s6
    401c:	ffff4d37          	lui	s10,0xffff4
    4020:	01a585b3          	add	a1,a1,s10
    4024:	40a585bb          	subw	a1,a1,a0
    4028:	40000d37          	lui	s10,0x40000
    402c:	30b13423          	sd	a1,776(sp)
    4030:	0005d463          	bgez	a1,4038 <.LBB11_154>
    4034:	c0000d37          	lui	s10,0xc0000

0000000000004038 <.LBB11_154>:
    4038:	2fa13823          	sd	s10,752(sp)
    403c:	64013583          	ld	a1,1600(sp)
    4040:	005585b3          	add	a1,a1,t0
    4044:	019585b3          	add	a1,a1,s9
    4048:	ffff4d37          	lui	s10,0xffff4
    404c:	01a585b3          	add	a1,a1,s10
    4050:	40a585bb          	subw	a1,a1,a0
    4054:	40000d37          	lui	s10,0x40000
    4058:	28b13823          	sd	a1,656(sp)
    405c:	0005d463          	bgez	a1,4064 <.LBB11_156>
    4060:	c0000d37          	lui	s10,0xc0000

0000000000004064 <.LBB11_156>:
    4064:	27a13c23          	sd	s10,632(sp)
    4068:	66813583          	ld	a1,1640(sp)
    406c:	010585b3          	add	a1,a1,a6
    4070:	015585b3          	add	a1,a1,s5
    4074:	ffff4d37          	lui	s10,0xffff4
    4078:	01a585b3          	add	a1,a1,s10
    407c:	40a585bb          	subw	a1,a1,a0
    4080:	40000d37          	lui	s10,0x40000
    4084:	22b13023          	sd	a1,544(sp)
    4088:	0005d463          	bgez	a1,4090 <.LBB11_158>
    408c:	c0000d37          	lui	s10,0xc0000

0000000000004090 <.LBB11_158>:
    4090:	21a13423          	sd	s10,520(sp)
    4094:	67013583          	ld	a1,1648(sp)
    4098:	011585b3          	add	a1,a1,a7
    409c:	014585b3          	add	a1,a1,s4
    40a0:	ffff4d37          	lui	s10,0xffff4
    40a4:	01a585b3          	add	a1,a1,s10
    40a8:	40a585bb          	subw	a1,a1,a0
    40ac:	40000d37          	lui	s10,0x40000
    40b0:	1ab13423          	sd	a1,424(sp)
    40b4:	0005d463          	bgez	a1,40bc <.LBB11_160>
    40b8:	c0000d37          	lui	s10,0xc0000

00000000000040bc <.LBB11_160>:
    40bc:	19a13823          	sd	s10,400(sp)
    40c0:	68013583          	ld	a1,1664(sp)
    40c4:	00e585b3          	add	a1,a1,a4
    40c8:	018585b3          	add	a1,a1,s8
    40cc:	ffff4d37          	lui	s10,0xffff4
    40d0:	01a585b3          	add	a1,a1,s10
    40d4:	40a585bb          	subw	a1,a1,a0
    40d8:	40000d37          	lui	s10,0x40000
    40dc:	12b13c23          	sd	a1,312(sp)
    40e0:	0005d463          	bgez	a1,40e8 <.LBB11_162>
    40e4:	c0000d37          	lui	s10,0xc0000

00000000000040e8 <.LBB11_162>:
    40e8:	13a13023          	sd	s10,288(sp)
    40ec:	6a013583          	ld	a1,1696(sp)
    40f0:	00f585b3          	add	a1,a1,a5
    40f4:	013585b3          	add	a1,a1,s3
    40f8:	ffff4d37          	lui	s10,0xffff4
    40fc:	01a585b3          	add	a1,a1,s10
    4100:	40a585bb          	subw	a1,a1,a0
    4104:	40000537          	lui	a0,0x40000
    4108:	0cb13423          	sd	a1,200(sp)
    410c:	0005d463          	bgez	a1,4114 <.LBB11_164>
    4110:	c0000537          	lui	a0,0xc0000

0000000000004114 <.LBB11_164>:
    4114:	0aa13823          	sd	a0,176(sp)
    4118:	6b013503          	ld	a0,1712(sp)
    411c:	00c00593          	li	a1,12
    4120:	02b50533          	mul	a0,a0,a1
    4124:	67813583          	ld	a1,1656(sp)
    4128:	009585b3          	add	a1,a1,s1
    412c:	00001d37          	lui	s10,0x1
    4130:	01a10d33          	add	s10,sp,s10
    4134:	8b8d3d03          	ld	s10,-1864(s10) # 8b8 <.LBB11_2+0x68>
    4138:	01a585b3          	add	a1,a1,s10
    413c:	ffff4d37          	lui	s10,0xffff4
    4140:	01a585b3          	add	a1,a1,s10
    4144:	40a585bb          	subw	a1,a1,a0
    4148:	40000d37          	lui	s10,0x40000
    414c:	6ab13823          	sd	a1,1712(sp)
    4150:	0005d463          	bgez	a1,4158 <.LBB11_166>
    4154:	c0000d37          	lui	s10,0xc0000

0000000000004158 <.LBB11_166>:
    4158:	6ba13023          	sd	s10,1696(sp)
    415c:	69013583          	ld	a1,1680(sp)
    4160:	00c585b3          	add	a1,a1,a2
    4164:	00001d37          	lui	s10,0x1
    4168:	01a10d33          	add	s10,sp,s10
    416c:	8b0d3d03          	ld	s10,-1872(s10) # 8b0 <.LBB11_2+0x60>
    4170:	01a585b3          	add	a1,a1,s10
    4174:	ffff4d37          	lui	s10,0xffff4
    4178:	01a585b3          	add	a1,a1,s10
    417c:	40a585bb          	subw	a1,a1,a0
    4180:	40000d37          	lui	s10,0x40000
    4184:	68b13823          	sd	a1,1680(sp)
    4188:	0005d463          	bgez	a1,4190 <.LBB11_168>
    418c:	c0000d37          	lui	s10,0xc0000

0000000000004190 <.LBB11_168>:
    4190:	69a13023          	sd	s10,1664(sp)
    4194:	68813583          	ld	a1,1672(sp)
    4198:	001585b3          	add	a1,a1,ra
    419c:	00001d37          	lui	s10,0x1
    41a0:	01a10d33          	add	s10,sp,s10
    41a4:	8a8d3d03          	ld	s10,-1880(s10) # 8a8 <.LBB11_2+0x58>
    41a8:	01a585b3          	add	a1,a1,s10
    41ac:	ffff4d37          	lui	s10,0xffff4
    41b0:	01a585b3          	add	a1,a1,s10
    41b4:	40a585bb          	subw	a1,a1,a0
    41b8:	40000d37          	lui	s10,0x40000
    41bc:	68b13423          	sd	a1,1672(sp)
    41c0:	0005d463          	bgez	a1,41c8 <.LBB11_170>
    41c4:	c0000d37          	lui	s10,0xc0000

00000000000041c8 <.LBB11_170>:
    41c8:	67a13c23          	sd	s10,1656(sp)
    41cc:	69813583          	ld	a1,1688(sp)
    41d0:	012585b3          	add	a1,a1,s2
    41d4:	00001d37          	lui	s10,0x1
    41d8:	01a10d33          	add	s10,sp,s10
    41dc:	8a0d3d03          	ld	s10,-1888(s10) # 8a0 <.LBB11_2+0x50>
    41e0:	01a585b3          	add	a1,a1,s10
    41e4:	ffff4d37          	lui	s10,0xffff4
    41e8:	01a585b3          	add	a1,a1,s10
    41ec:	40a585bb          	subw	a1,a1,a0
    41f0:	40000d37          	lui	s10,0x40000
    41f4:	68b13c23          	sd	a1,1688(sp)
    41f8:	0005d463          	bgez	a1,4200 <.LBB11_172>
    41fc:	c0000d37          	lui	s10,0xc0000

0000000000004200 <.LBB11_172>:
    4200:	67a13823          	sd	s10,1648(sp)
    4204:	6a813583          	ld	a1,1704(sp)
    4208:	01f585b3          	add	a1,a1,t6
    420c:	00001d37          	lui	s10,0x1
    4210:	01a10d33          	add	s10,sp,s10
    4214:	898d3d03          	ld	s10,-1896(s10) # 898 <.LBB11_2+0x48>
    4218:	01a585b3          	add	a1,a1,s10
    421c:	ffff4d37          	lui	s10,0xffff4
    4220:	01a585b3          	add	a1,a1,s10
    4224:	40a585bb          	subw	a1,a1,a0
    4228:	40000d37          	lui	s10,0x40000
    422c:	6ab13423          	sd	a1,1704(sp)
    4230:	0005d463          	bgez	a1,4238 <.LBB11_174>
    4234:	c0000d37          	lui	s10,0xc0000

0000000000004238 <.LBB11_174>:
    4238:	67a13423          	sd	s10,1640(sp)
    423c:	65013583          	ld	a1,1616(sp)
    4240:	01b585b3          	add	a1,a1,s11
    4244:	00001d37          	lui	s10,0x1
    4248:	01a10d33          	add	s10,sp,s10
    424c:	890d3d03          	ld	s10,-1904(s10) # 890 <.LBB11_2+0x40>
    4250:	01a585b3          	add	a1,a1,s10
    4254:	ffff4d37          	lui	s10,0xffff4
    4258:	01a585b3          	add	a1,a1,s10
    425c:	40a585bb          	subw	a1,a1,a0
    4260:	40000d37          	lui	s10,0x40000
    4264:	64b13823          	sd	a1,1616(sp)
    4268:	0005d463          	bgez	a1,4270 <.LBB11_176>
    426c:	c0000d37          	lui	s10,0xc0000

0000000000004270 <.LBB11_176>:
    4270:	65a13023          	sd	s10,1600(sp)
    4274:	4f813583          	ld	a1,1272(sp)
    4278:	01e585b3          	add	a1,a1,t5
    427c:	00001d37          	lui	s10,0x1
    4280:	01a10d33          	add	s10,sp,s10
    4284:	888d3d03          	ld	s10,-1912(s10) # 888 <.LBB11_2+0x38>
    4288:	01a585b3          	add	a1,a1,s10
    428c:	ffff4d37          	lui	s10,0xffff4
    4290:	01a585b3          	add	a1,a1,s10
    4294:	40a585bb          	subw	a1,a1,a0
    4298:	40000d37          	lui	s10,0x40000
    429c:	4eb13c23          	sd	a1,1272(sp)
    42a0:	0005d463          	bgez	a1,42a8 <.LBB11_178>
    42a4:	c0000d37          	lui	s10,0xc0000

00000000000042a8 <.LBB11_178>:
    42a8:	4fa13023          	sd	s10,1248(sp)
    42ac:	4d013583          	ld	a1,1232(sp)
    42b0:	01d585b3          	add	a1,a1,t4
    42b4:	00001d37          	lui	s10,0x1
    42b8:	01a10d33          	add	s10,sp,s10
    42bc:	880d3d03          	ld	s10,-1920(s10) # 880 <.LBB11_2+0x30>
    42c0:	01a585b3          	add	a1,a1,s10
    42c4:	ffff4d37          	lui	s10,0xffff4
    42c8:	01a585b3          	add	a1,a1,s10
    42cc:	40a585bb          	subw	a1,a1,a0
    42d0:	40000d37          	lui	s10,0x40000
    42d4:	46b13c23          	sd	a1,1144(sp)
    42d8:	0005d463          	bgez	a1,42e0 <.LBB11_180>
    42dc:	c0000d37          	lui	s10,0xc0000

00000000000042e0 <.LBB11_180>:
    42e0:	47a13023          	sd	s10,1120(sp)
    42e4:	4d813583          	ld	a1,1240(sp)
    42e8:	01c585b3          	add	a1,a1,t3
    42ec:	017585b3          	add	a1,a1,s7
    42f0:	ffff4d37          	lui	s10,0xffff4
    42f4:	01a585b3          	add	a1,a1,s10
    42f8:	40a585bb          	subw	a1,a1,a0
    42fc:	40000d37          	lui	s10,0x40000
    4300:	3eb13c23          	sd	a1,1016(sp)
    4304:	0005d463          	bgez	a1,430c <.LBB11_182>
    4308:	c0000d37          	lui	s10,0xc0000

000000000000430c <.LBB11_182>:
    430c:	3fa13023          	sd	s10,992(sp)
    4310:	4e813583          	ld	a1,1256(sp)
    4314:	007585b3          	add	a1,a1,t2
    4318:	00d585b3          	add	a1,a1,a3
    431c:	ffff4d37          	lui	s10,0xffff4
    4320:	01a585b3          	add	a1,a1,s10
    4324:	40a585bb          	subw	a1,a1,a0
    4328:	40000d37          	lui	s10,0x40000
    432c:	36b13c23          	sd	a1,888(sp)
    4330:	0005d463          	bgez	a1,4338 <.LBB11_184>
    4334:	c0000d37          	lui	s10,0xc0000

0000000000004338 <.LBB11_184>:
    4338:	37a13023          	sd	s10,864(sp)
    433c:	57813583          	ld	a1,1400(sp)
    4340:	006585b3          	add	a1,a1,t1
    4344:	016585b3          	add	a1,a1,s6
    4348:	ffff4d37          	lui	s10,0xffff4
    434c:	01a585b3          	add	a1,a1,s10
    4350:	40a585bb          	subw	a1,a1,a0
    4354:	40000d37          	lui	s10,0x40000
    4358:	2eb13c23          	sd	a1,760(sp)
    435c:	0005d463          	bgez	a1,4364 <.LBB11_186>
    4360:	c0000d37          	lui	s10,0xc0000

0000000000004364 <.LBB11_186>:
    4364:	2fa13023          	sd	s10,736(sp)
    4368:	59813583          	ld	a1,1432(sp)
    436c:	005585b3          	add	a1,a1,t0
    4370:	019585b3          	add	a1,a1,s9
    4374:	ffff4d37          	lui	s10,0xffff4
    4378:	01a585b3          	add	a1,a1,s10
    437c:	40a585bb          	subw	a1,a1,a0
    4380:	40000d37          	lui	s10,0x40000
    4384:	28b13023          	sd	a1,640(sp)
    4388:	0005d463          	bgez	a1,4390 <.LBB11_188>
    438c:	c0000d37          	lui	s10,0xc0000

0000000000004390 <.LBB11_188>:
    4390:	27a13423          	sd	s10,616(sp)
    4394:	5b013583          	ld	a1,1456(sp)
    4398:	010585b3          	add	a1,a1,a6
    439c:	015585b3          	add	a1,a1,s5
    43a0:	ffff4d37          	lui	s10,0xffff4
    43a4:	01a585b3          	add	a1,a1,s10
    43a8:	40a585bb          	subw	a1,a1,a0
    43ac:	40000d37          	lui	s10,0x40000
    43b0:	20b13823          	sd	a1,528(sp)
    43b4:	0005d463          	bgez	a1,43bc <.LBB11_190>
    43b8:	c0000d37          	lui	s10,0xc0000

00000000000043bc <.LBB11_190>:
    43bc:	1fa13c23          	sd	s10,504(sp)
    43c0:	5c813583          	ld	a1,1480(sp)
    43c4:	011585b3          	add	a1,a1,a7
    43c8:	014585b3          	add	a1,a1,s4
    43cc:	ffff4d37          	lui	s10,0xffff4
    43d0:	01a585b3          	add	a1,a1,s10
    43d4:	40a585bb          	subw	a1,a1,a0
    43d8:	40000d37          	lui	s10,0x40000
    43dc:	18b13c23          	sd	a1,408(sp)
    43e0:	0005d463          	bgez	a1,43e8 <.LBB11_192>
    43e4:	c0000d37          	lui	s10,0xc0000

00000000000043e8 <.LBB11_192>:
    43e8:	19a13023          	sd	s10,384(sp)
    43ec:	62013583          	ld	a1,1568(sp)
    43f0:	00e585b3          	add	a1,a1,a4
    43f4:	018585b3          	add	a1,a1,s8
    43f8:	ffff4d37          	lui	s10,0xffff4
    43fc:	01a585b3          	add	a1,a1,s10
    4400:	40a585bb          	subw	a1,a1,a0
    4404:	40000d37          	lui	s10,0x40000
    4408:	12b13423          	sd	a1,296(sp)
    440c:	0005d463          	bgez	a1,4414 <.LBB11_194>
    4410:	c0000d37          	lui	s10,0xc0000

0000000000004414 <.LBB11_194>:
    4414:	11a13823          	sd	s10,272(sp)
    4418:	63013583          	ld	a1,1584(sp)
    441c:	00f585b3          	add	a1,a1,a5
    4420:	013585b3          	add	a1,a1,s3
    4424:	ffff4d37          	lui	s10,0xffff4
    4428:	01a585b3          	add	a1,a1,s10
    442c:	40a585bb          	subw	a1,a1,a0
    4430:	40000537          	lui	a0,0x40000
    4434:	0ab13c23          	sd	a1,184(sp)
    4438:	0005d463          	bgez	a1,4440 <.LBB11_196>
    443c:	c0000537          	lui	a0,0xc0000

0000000000004440 <.LBB11_196>:
    4440:	0aa13023          	sd	a0,160(sp)
    4444:	63813503          	ld	a0,1592(sp)
    4448:	00c00593          	li	a1,12
    444c:	02b50533          	mul	a0,a0,a1
    4450:	60013583          	ld	a1,1536(sp)
    4454:	009585b3          	add	a1,a1,s1
    4458:	00001d37          	lui	s10,0x1
    445c:	01a10d33          	add	s10,sp,s10
    4460:	8b8d3d03          	ld	s10,-1864(s10) # 8b8 <.LBB11_2+0x68>
    4464:	01a585b3          	add	a1,a1,s10
    4468:	ffff4d37          	lui	s10,0xffff4
    446c:	01a585b3          	add	a1,a1,s10
    4470:	40a585bb          	subw	a1,a1,a0
    4474:	40000d37          	lui	s10,0x40000
    4478:	62b13823          	sd	a1,1584(sp)
    447c:	0005d463          	bgez	a1,4484 <.LBB11_198>
    4480:	c0000d37          	lui	s10,0xc0000

0000000000004484 <.LBB11_198>:
    4484:	63a13023          	sd	s10,1568(sp)
    4488:	61013583          	ld	a1,1552(sp)
    448c:	00c585b3          	add	a1,a1,a2
    4490:	00001637          	lui	a2,0x1
    4494:	00c10633          	add	a2,sp,a2
    4498:	8b063603          	ld	a2,-1872(a2) # 8b0 <.LBB11_2+0x60>
    449c:	00c585b3          	add	a1,a1,a2
    44a0:	ffff4637          	lui	a2,0xffff4
    44a4:	00c585b3          	add	a1,a1,a2
    44a8:	40a585bb          	subw	a1,a1,a0
    44ac:	40000637          	lui	a2,0x40000
    44b0:	00001d37          	lui	s10,0x1
    44b4:	01a10d33          	add	s10,sp,s10
    44b8:	8d0d3d03          	ld	s10,-1840(s10) # 8d0 <.LBB11_2+0x80>
    44bc:	60b13823          	sd	a1,1552(sp)
    44c0:	0005d463          	bgez	a1,44c8 <.LBB11_200>
    44c4:	c0000637          	lui	a2,0xc0000

00000000000044c8 <.LBB11_200>:
    44c8:	60c13023          	sd	a2,1536(sp)
    44cc:	60813583          	ld	a1,1544(sp)
    44d0:	001585b3          	add	a1,a1,ra
    44d4:	00001637          	lui	a2,0x1
    44d8:	00c10633          	add	a2,sp,a2
    44dc:	8a863603          	ld	a2,-1880(a2) # 8a8 <.LBB11_2+0x58>
    44e0:	00c585b3          	add	a1,a1,a2
    44e4:	ffff4637          	lui	a2,0xffff4
    44e8:	00c585b3          	add	a1,a1,a2
    44ec:	40a585bb          	subw	a1,a1,a0
    44f0:	40000637          	lui	a2,0x40000
    44f4:	60b13423          	sd	a1,1544(sp)
    44f8:	0005d463          	bgez	a1,4500 <.LBB11_202>
    44fc:	c0000637          	lui	a2,0xc0000

0000000000004500 <.LBB11_202>:
    4500:	5cc13423          	sd	a2,1480(sp)
    4504:	61813583          	ld	a1,1560(sp)
    4508:	012585b3          	add	a1,a1,s2
    450c:	00001637          	lui	a2,0x1
    4510:	00c10633          	add	a2,sp,a2
    4514:	8a063603          	ld	a2,-1888(a2) # 8a0 <.LBB11_2+0x50>
    4518:	00c585b3          	add	a1,a1,a2
    451c:	ffff4637          	lui	a2,0xffff4
    4520:	00c585b3          	add	a1,a1,a2
    4524:	40a585bb          	subw	a1,a1,a0
    4528:	40000637          	lui	a2,0x40000
    452c:	60b13c23          	sd	a1,1560(sp)
    4530:	0005d463          	bgez	a1,4538 <.LBB11_204>
    4534:	c0000637          	lui	a2,0xc0000

0000000000004538 <.LBB11_204>:
    4538:	5ac13823          	sd	a2,1456(sp)
    453c:	62813583          	ld	a1,1576(sp)
    4540:	01f585b3          	add	a1,a1,t6
    4544:	00001637          	lui	a2,0x1
    4548:	00c10633          	add	a2,sp,a2
    454c:	89863603          	ld	a2,-1896(a2) # 898 <.LBB11_2+0x48>
    4550:	00c585b3          	add	a1,a1,a2
    4554:	ffff4637          	lui	a2,0xffff4
    4558:	00c585b3          	add	a1,a1,a2
    455c:	40a585bb          	subw	a1,a1,a0
    4560:	40000637          	lui	a2,0x40000
    4564:	62b13423          	sd	a1,1576(sp)
    4568:	0005d463          	bgez	a1,4570 <.LBB11_206>
    456c:	c0000637          	lui	a2,0xc0000

0000000000004570 <.LBB11_206>:
    4570:	58c13c23          	sd	a2,1432(sp)
    4574:	58013583          	ld	a1,1408(sp)
    4578:	01b585b3          	add	a1,a1,s11
    457c:	00001637          	lui	a2,0x1
    4580:	00c10633          	add	a2,sp,a2
    4584:	89063603          	ld	a2,-1904(a2) # 890 <.LBB11_2+0x40>
    4588:	00c585b3          	add	a1,a1,a2
    458c:	ffff4637          	lui	a2,0xffff4
    4590:	00c585b3          	add	a1,a1,a2
    4594:	40a585bb          	subw	a1,a1,a0
    4598:	40000637          	lui	a2,0x40000
    459c:	62b13c23          	sd	a1,1592(sp)
    45a0:	0005d463          	bgez	a1,45a8 <.LBB11_208>
    45a4:	c0000637          	lui	a2,0xc0000

00000000000045a8 <.LBB11_208>:
    45a8:	58c13023          	sd	a2,1408(sp)
    45ac:	58813583          	ld	a1,1416(sp)
    45b0:	01e585b3          	add	a1,a1,t5
    45b4:	00001637          	lui	a2,0x1
    45b8:	00c10633          	add	a2,sp,a2
    45bc:	88863603          	ld	a2,-1912(a2) # 888 <.LBB11_2+0x38>
    45c0:	00c585b3          	add	a1,a1,a2
    45c4:	ffff4637          	lui	a2,0xffff4
    45c8:	00c585b3          	add	a1,a1,a2
    45cc:	40a585bb          	subw	a1,a1,a0
    45d0:	40000637          	lui	a2,0x40000
    45d4:	4eb13423          	sd	a1,1256(sp)
    45d8:	0005d463          	bgez	a1,45e0 <.LBB11_210>
    45dc:	c0000637          	lui	a2,0xc0000

00000000000045e0 <.LBB11_210>:
    45e0:	4cc13823          	sd	a2,1232(sp)
    45e4:	59013583          	ld	a1,1424(sp)
    45e8:	01d585b3          	add	a1,a1,t4
    45ec:	00001637          	lui	a2,0x1
    45f0:	00c10633          	add	a2,sp,a2
    45f4:	88063603          	ld	a2,-1920(a2) # 880 <.LBB11_2+0x30>
    45f8:	00c585b3          	add	a1,a1,a2
    45fc:	ffff4637          	lui	a2,0xffff4
    4600:	00c585b3          	add	a1,a1,a2
    4604:	40a585bb          	subw	a1,a1,a0
    4608:	40000637          	lui	a2,0x40000
    460c:	46b13423          	sd	a1,1128(sp)
    4610:	0005d463          	bgez	a1,4618 <.LBB11_212>
    4614:	c0000637          	lui	a2,0xc0000

0000000000004618 <.LBB11_212>:
    4618:	44c13823          	sd	a2,1104(sp)
    461c:	5a013583          	ld	a1,1440(sp)
    4620:	01c585b3          	add	a1,a1,t3
    4624:	017585b3          	add	a1,a1,s7
    4628:	ffff4637          	lui	a2,0xffff4
    462c:	00c585b3          	add	a1,a1,a2
    4630:	40a585bb          	subw	a1,a1,a0
    4634:	40000637          	lui	a2,0x40000
    4638:	3eb13423          	sd	a1,1000(sp)
    463c:	0005d463          	bgez	a1,4644 <.LBB11_214>
    4640:	c0000637          	lui	a2,0xc0000

0000000000004644 <.LBB11_214>:
    4644:	3cc13823          	sd	a2,976(sp)
    4648:	5a813583          	ld	a1,1448(sp)
    464c:	007585b3          	add	a1,a1,t2
    4650:	00d585b3          	add	a1,a1,a3
    4654:	ffff4637          	lui	a2,0xffff4
    4658:	00c585b3          	add	a1,a1,a2
    465c:	40a585bb          	subw	a1,a1,a0
    4660:	40000637          	lui	a2,0x40000
    4664:	36b13423          	sd	a1,872(sp)
    4668:	0005d463          	bgez	a1,4670 <.LBB11_216>
    466c:	c0000637          	lui	a2,0xc0000

0000000000004670 <.LBB11_216>:
    4670:	34c13823          	sd	a2,848(sp)
    4674:	5b813583          	ld	a1,1464(sp)
    4678:	006585b3          	add	a1,a1,t1
    467c:	016585b3          	add	a1,a1,s6
    4680:	ffff4637          	lui	a2,0xffff4
    4684:	00c585b3          	add	a1,a1,a2
    4688:	40a585bb          	subw	a1,a1,a0
    468c:	40000637          	lui	a2,0x40000
    4690:	2eb13423          	sd	a1,744(sp)
    4694:	0005d463          	bgez	a1,469c <.LBB11_218>
    4698:	c0000637          	lui	a2,0xc0000

000000000000469c <.LBB11_218>:
    469c:	2cc13c23          	sd	a2,728(sp)
    46a0:	5c013583          	ld	a1,1472(sp)
    46a4:	005585b3          	add	a1,a1,t0
    46a8:	019585b3          	add	a1,a1,s9
    46ac:	ffff4637          	lui	a2,0xffff4
    46b0:	00c585b3          	add	a1,a1,a2
    46b4:	40a585bb          	subw	a1,a1,a0
    46b8:	40000637          	lui	a2,0x40000
    46bc:	26b13823          	sd	a1,624(sp)
    46c0:	0005d463          	bgez	a1,46c8 <.LBB11_220>
    46c4:	c0000637          	lui	a2,0xc0000

00000000000046c8 <.LBB11_220>:
    46c8:	26c13023          	sd	a2,608(sp)
    46cc:	5d013583          	ld	a1,1488(sp)
    46d0:	010585b3          	add	a1,a1,a6
    46d4:	015585b3          	add	a1,a1,s5
    46d8:	ffff4637          	lui	a2,0xffff4
    46dc:	00c585b3          	add	a1,a1,a2
    46e0:	40a585bb          	subw	a1,a1,a0
    46e4:	40000637          	lui	a2,0x40000
    46e8:	20b13023          	sd	a1,512(sp)
    46ec:	0005d463          	bgez	a1,46f4 <.LBB11_222>
    46f0:	c0000637          	lui	a2,0xc0000

00000000000046f4 <.LBB11_222>:
    46f4:	1ec13823          	sd	a2,496(sp)
    46f8:	5d813583          	ld	a1,1496(sp)
    46fc:	011585b3          	add	a1,a1,a7
    4700:	014585b3          	add	a1,a1,s4
    4704:	ffff4637          	lui	a2,0xffff4
    4708:	00c585b3          	add	a1,a1,a2
    470c:	40a585bb          	subw	a1,a1,a0
    4710:	40000637          	lui	a2,0x40000
    4714:	18b13423          	sd	a1,392(sp)
    4718:	0005d463          	bgez	a1,4720 <.LBB11_224>
    471c:	c0000637          	lui	a2,0xc0000

0000000000004720 <.LBB11_224>:
    4720:	16c13c23          	sd	a2,376(sp)
    4724:	5e013583          	ld	a1,1504(sp)
    4728:	00e585b3          	add	a1,a1,a4
    472c:	018585b3          	add	a1,a1,s8
    4730:	ffff4637          	lui	a2,0xffff4
    4734:	00c585b3          	add	a1,a1,a2
    4738:	40a585bb          	subw	a1,a1,a0
    473c:	40000637          	lui	a2,0x40000
    4740:	10b13c23          	sd	a1,280(sp)
    4744:	0005d463          	bgez	a1,474c <.LBB11_226>
    4748:	c0000637          	lui	a2,0xc0000

000000000000474c <.LBB11_226>:
    474c:	10c13423          	sd	a2,264(sp)
    4750:	5e813583          	ld	a1,1512(sp)
    4754:	00f585b3          	add	a1,a1,a5
    4758:	013585b3          	add	a1,a1,s3
    475c:	ffff4637          	lui	a2,0xffff4
    4760:	00c585b3          	add	a1,a1,a2
    4764:	40a585bb          	subw	a1,a1,a0
    4768:	40000537          	lui	a0,0x40000
    476c:	0ab13423          	sd	a1,168(sp)
    4770:	0005d463          	bgez	a1,4778 <.LBB11_228>
    4774:	c0000537          	lui	a0,0xc0000

0000000000004778 <.LBB11_228>:
    4778:	08a13c23          	sd	a0,152(sp)
    477c:	5f013503          	ld	a0,1520(sp)
    4780:	00c00593          	li	a1,12
    4784:	02b50533          	mul	a0,a0,a1
    4788:	000015b7          	lui	a1,0x1
    478c:	00b105b3          	add	a1,sp,a1
    4790:	9005b583          	ld	a1,-1792(a1) # 900 <.LBB11_2+0xb0>
    4794:	009585b3          	add	a1,a1,s1
    4798:	00001637          	lui	a2,0x1
    479c:	00c10633          	add	a2,sp,a2
    47a0:	8b863603          	ld	a2,-1864(a2) # 8b8 <.LBB11_2+0x68>
    47a4:	00c585b3          	add	a1,a1,a2
    47a8:	ffff4637          	lui	a2,0xffff4
    47ac:	40c5063b          	subw	a2,a0,a2
    47b0:	40c585bb          	subw	a1,a1,a2
    47b4:	40000637          	lui	a2,0x40000
    47b8:	5eb13823          	sd	a1,1520(sp)
    47bc:	0005d463          	bgez	a1,47c4 <.LBB11_230>
    47c0:	c0000637          	lui	a2,0xc0000

00000000000047c4 <.LBB11_230>:
    47c4:	5ec13423          	sd	a2,1512(sp)
    47c8:	54013583          	ld	a1,1344(sp)
    47cc:	00001637          	lui	a2,0x1
    47d0:	00c10633          	add	a2,sp,a2
    47d4:	90863603          	ld	a2,-1784(a2) # 908 <.LBB11_2+0xb8>
    47d8:	00b605b3          	add	a1,a2,a1
    47dc:	00001637          	lui	a2,0x1
    47e0:	00c10633          	add	a2,sp,a2
    47e4:	8b063603          	ld	a2,-1872(a2) # 8b0 <.LBB11_2+0x60>
    47e8:	00c585b3          	add	a1,a1,a2
    47ec:	ffff4637          	lui	a2,0xffff4
    47f0:	40c5063b          	subw	a2,a0,a2
    47f4:	40c5863b          	subw	a2,a1,a2
    47f8:	400004b7          	lui	s1,0x40000
    47fc:	000015b7          	lui	a1,0x1
    4800:	00b105b3          	add	a1,sp,a1
    4804:	9105b583          	ld	a1,-1776(a1) # 910 <.LBB11_2+0xc0>
    4808:	5ec13023          	sd	a2,1504(sp)
    480c:	00065463          	bgez	a2,4814 <.LBB11_232>
    4810:	c00004b7          	lui	s1,0xc0000

0000000000004814 <.LBB11_232>:
    4814:	001585b3          	add	a1,a1,ra
    4818:	00001637          	lui	a2,0x1
    481c:	00c10633          	add	a2,sp,a2
    4820:	8a863603          	ld	a2,-1880(a2) # 8a8 <.LBB11_2+0x58>
    4824:	00c585b3          	add	a1,a1,a2
    4828:	ffff4637          	lui	a2,0xffff4
    482c:	40c5063b          	subw	a2,a0,a2
    4830:	40c585bb          	subw	a1,a1,a2
    4834:	40000637          	lui	a2,0x40000
    4838:	5cb13823          	sd	a1,1488(sp)
    483c:	0005d463          	bgez	a1,4844 <.LBB11_234>
    4840:	c0000637          	lui	a2,0xc0000

0000000000004844 <.LBB11_234>:
    4844:	5cc13023          	sd	a2,1472(sp)
    4848:	000015b7          	lui	a1,0x1
    484c:	00b105b3          	add	a1,sp,a1
    4850:	8c05b583          	ld	a1,-1856(a1) # 8c0 <.LBB11_2+0x70>
    4854:	012585b3          	add	a1,a1,s2
    4858:	00001637          	lui	a2,0x1
    485c:	00c10633          	add	a2,sp,a2
    4860:	8a063603          	ld	a2,-1888(a2) # 8a0 <.LBB11_2+0x50>
    4864:	00c585b3          	add	a1,a1,a2
    4868:	ffff4637          	lui	a2,0xffff4
    486c:	40c5063b          	subw	a2,a0,a2
    4870:	40c585bb          	subw	a1,a1,a2
    4874:	40000637          	lui	a2,0x40000
    4878:	5ab13c23          	sd	a1,1464(sp)
    487c:	0005d463          	bgez	a1,4884 <.LBB11_236>
    4880:	c0000637          	lui	a2,0xc0000

0000000000004884 <.LBB11_236>:
    4884:	5ac13423          	sd	a2,1448(sp)
    4888:	000015b7          	lui	a1,0x1
    488c:	00b105b3          	add	a1,sp,a1
    4890:	8c85b583          	ld	a1,-1848(a1) # 8c8 <.LBB11_2+0x78>
    4894:	01f585b3          	add	a1,a1,t6
    4898:	00001637          	lui	a2,0x1
    489c:	00c10633          	add	a2,sp,a2
    48a0:	89863603          	ld	a2,-1896(a2) # 898 <.LBB11_2+0x48>
    48a4:	00c585b3          	add	a1,a1,a2
    48a8:	ffff4637          	lui	a2,0xffff4
    48ac:	40c5063b          	subw	a2,a0,a2
    48b0:	40c585bb          	subw	a1,a1,a2
    48b4:	40000637          	lui	a2,0x40000
    48b8:	5ab13023          	sd	a1,1440(sp)
    48bc:	0005d463          	bgez	a1,48c4 <.LBB11_238>
    48c0:	c0000637          	lui	a2,0xc0000

00000000000048c4 <.LBB11_238>:
    48c4:	58c13823          	sd	a2,1424(sp)
    48c8:	01bd05b3          	add	a1,s10,s11
    48cc:	00001637          	lui	a2,0x1
    48d0:	00c10633          	add	a2,sp,a2
    48d4:	89063603          	ld	a2,-1904(a2) # 890 <.LBB11_2+0x40>
    48d8:	00c585b3          	add	a1,a1,a2
    48dc:	ffff4637          	lui	a2,0xffff4
    48e0:	40c5063b          	subw	a2,a0,a2
    48e4:	40c585bb          	subw	a1,a1,a2
    48e8:	40000637          	lui	a2,0x40000
    48ec:	58b13423          	sd	a1,1416(sp)
    48f0:	0005d463          	bgez	a1,48f8 <.LBB11_240>
    48f4:	c0000637          	lui	a2,0xc0000

00000000000048f8 <.LBB11_240>:
    48f8:	56c13c23          	sd	a2,1400(sp)
    48fc:	000015b7          	lui	a1,0x1
    4900:	00b105b3          	add	a1,sp,a1
    4904:	8d85b583          	ld	a1,-1832(a1) # 8d8 <.LBB11_2+0x88>
    4908:	01e585b3          	add	a1,a1,t5
    490c:	00001637          	lui	a2,0x1
    4910:	00c10633          	add	a2,sp,a2
    4914:	88863603          	ld	a2,-1912(a2) # 888 <.LBB11_2+0x38>
    4918:	00c585b3          	add	a1,a1,a2
    491c:	ffff4637          	lui	a2,0xffff4
    4920:	40c5063b          	subw	a2,a0,a2
    4924:	40c585bb          	subw	a1,a1,a2
    4928:	40000637          	lui	a2,0x40000
    492c:	01013d83          	ld	s11,16(sp)
    4930:	4cb13c23          	sd	a1,1240(sp)
    4934:	0005d463          	bgez	a1,493c <.LBB11_242>
    4938:	c0000637          	lui	a2,0xc0000

000000000000493c <.LBB11_242>:
    493c:	4cc13423          	sd	a2,1224(sp)
    4940:	000015b7          	lui	a1,0x1
    4944:	00b105b3          	add	a1,sp,a1
    4948:	9185b583          	ld	a1,-1768(a1) # 918 <.LBB11_2+0xc8>
    494c:	01d585b3          	add	a1,a1,t4
    4950:	00001637          	lui	a2,0x1
    4954:	00c10633          	add	a2,sp,a2
    4958:	88063603          	ld	a2,-1920(a2) # 880 <.LBB11_2+0x30>
    495c:	00c585b3          	add	a1,a1,a2
    4960:	ffff4637          	lui	a2,0xffff4
    4964:	40c5063b          	subw	a2,a0,a2
    4968:	40c585bb          	subw	a1,a1,a2
    496c:	40000637          	lui	a2,0x40000
    4970:	01813f03          	ld	t5,24(sp)
    4974:	44b13c23          	sd	a1,1112(sp)
    4978:	0005d463          	bgez	a1,4980 <.LBB11_244>
    497c:	c0000637          	lui	a2,0xc0000

0000000000004980 <.LBB11_244>:
    4980:	44c13423          	sd	a2,1096(sp)
    4984:	000015b7          	lui	a1,0x1
    4988:	00b105b3          	add	a1,sp,a1
    498c:	8e05b583          	ld	a1,-1824(a1) # 8e0 <.LBB11_2+0x90>
    4990:	01c585b3          	add	a1,a1,t3
    4994:	017585b3          	add	a1,a1,s7
    4998:	ffff4637          	lui	a2,0xffff4
    499c:	40c5063b          	subw	a2,a0,a2
    49a0:	40c585bb          	subw	a1,a1,a2
    49a4:	40000637          	lui	a2,0x40000
    49a8:	00001e37          	lui	t3,0x1
    49ac:	01c10e33          	add	t3,sp,t3
    49b0:	8f0e3e03          	ld	t3,-1808(t3) # 8f0 <.LBB11_2+0xa0>
    49b4:	00001eb7          	lui	t4,0x1
    49b8:	01d10eb3          	add	t4,sp,t4
    49bc:	828ebe83          	ld	t4,-2008(t4) # 828 <.LBB11_1+0x6ec>
    49c0:	3cb13c23          	sd	a1,984(sp)
    49c4:	0005d463          	bgez	a1,49cc <.LBB11_246>
    49c8:	c0000637          	lui	a2,0xc0000

00000000000049cc <.LBB11_246>:
    49cc:	3cc13423          	sd	a2,968(sp)
    49d0:	000015b7          	lui	a1,0x1
    49d4:	00b105b3          	add	a1,sp,a1
    49d8:	8e85b583          	ld	a1,-1816(a1) # 8e8 <.LBB11_2+0x98>
    49dc:	007585b3          	add	a1,a1,t2
    49e0:	00d585b3          	add	a1,a1,a3
    49e4:	ffff4637          	lui	a2,0xffff4
    49e8:	40c5063b          	subw	a2,a0,a2
    49ec:	40c585bb          	subw	a1,a1,a2
    49f0:	40000637          	lui	a2,0x40000
    49f4:	34b13c23          	sd	a1,856(sp)
    49f8:	0005d463          	bgez	a1,4a00 <.LBB11_248>
    49fc:	c0000637          	lui	a2,0xc0000

0000000000004a00 <.LBB11_248>:
    4a00:	34c13423          	sd	a2,840(sp)
    4a04:	006e05b3          	add	a1,t3,t1
    4a08:	016585b3          	add	a1,a1,s6
    4a0c:	ffff4637          	lui	a2,0xffff4
    4a10:	40c5063b          	subw	a2,a0,a2
    4a14:	40c58e3b          	subw	t3,a1,a2
    4a18:	400005b7          	lui	a1,0x40000
    4a1c:	00001637          	lui	a2,0x1
    4a20:	00c10633          	add	a2,sp,a2
    4a24:	93063303          	ld	t1,-1744(a2) # 930 <.LBB11_2+0xe0>
    4a28:	000e5463          	bgez	t3,4a30 <.LBB11_250>
    4a2c:	c00005b7          	lui	a1,0xc0000

0000000000004a30 <.LBB11_250>:
    4a30:	2cb13823          	sd	a1,720(sp)
    4a34:	000015b7          	lui	a1,0x1
    4a38:	00b105b3          	add	a1,sp,a1
    4a3c:	9205b583          	ld	a1,-1760(a1) # 920 <.LBB11_2+0xd0>
    4a40:	005585b3          	add	a1,a1,t0
    4a44:	019585b3          	add	a1,a1,s9
    4a48:	ffff4637          	lui	a2,0xffff4
    4a4c:	40c5063b          	subw	a2,a0,a2
    4a50:	40c585bb          	subw	a1,a1,a2
    4a54:	40000cb7          	lui	s9,0x40000
    4a58:	7a813383          	ld	t2,1960(sp)
    4a5c:	0005d463          	bgez	a1,4a64 <.LBB11_252>
    4a60:	c0000cb7          	lui	s9,0xc0000

0000000000004a64 <.LBB11_252>:
    4a64:	00001637          	lui	a2,0x1
    4a68:	00c10633          	add	a2,sp,a2
    4a6c:	92863603          	ld	a2,-1752(a2) # 928 <.LBB11_2+0xd8>
    4a70:	01060633          	add	a2,a2,a6
    4a74:	01560633          	add	a2,a2,s5
    4a78:	ffff46b7          	lui	a3,0xffff4
    4a7c:	40d506bb          	subw	a3,a0,a3
    4a80:	40d6083b          	subw	a6,a2,a3
    4a84:	40000637          	lui	a2,0x40000
    4a88:	00085463          	bgez	a6,4a90 <.LBB11_254>
    4a8c:	c0000637          	lui	a2,0xc0000

0000000000004a90 <.LBB11_254>:
    4a90:	1ec13423          	sd	a2,488(sp)
    4a94:	01130633          	add	a2,t1,a7
    4a98:	01460633          	add	a2,a2,s4
    4a9c:	ffff46b7          	lui	a3,0xffff4
    4aa0:	40d506bb          	subw	a3,a0,a3
    4aa4:	40d6063b          	subw	a2,a2,a3
    4aa8:	400002b7          	lui	t0,0x40000
    4aac:	00065463          	bgez	a2,4ab4 <.LBB11_256>
    4ab0:	c00002b7          	lui	t0,0xc0000

0000000000004ab4 <.LBB11_256>:
    4ab4:	000016b7          	lui	a3,0x1
    4ab8:	00d106b3          	add	a3,sp,a3
    4abc:	8f86b683          	ld	a3,-1800(a3) # 8f8 <.LBB11_2+0xa8>
    4ac0:	00e686b3          	add	a3,a3,a4
    4ac4:	018686b3          	add	a3,a3,s8
    4ac8:	ffff4737          	lui	a4,0xffff4
    4acc:	40e5073b          	subw	a4,a0,a4
    4ad0:	40e6873b          	subw	a4,a3,a4
    4ad4:	40000337          	lui	t1,0x40000
    4ad8:	400008b7          	lui	a7,0x40000
    4adc:	00075463          	bgez	a4,4ae4 <.LBB11_258>
    4ae0:	c0000337          	lui	t1,0xc0000

0000000000004ae4 <.LBB11_258>:
    4ae4:	000016b7          	lui	a3,0x1
    4ae8:	00d106b3          	add	a3,sp,a3
    4aec:	9386b683          	ld	a3,-1736(a3) # 938 <.LBB11_2+0xe8>
    4af0:	00f686b3          	add	a3,a3,a5
    4af4:	013686b3          	add	a3,a3,s3
    4af8:	ffff47b7          	lui	a5,0xffff4
    4afc:	40f5053b          	subw	a0,a0,a5
    4b00:	40a686bb          	subw	a3,a3,a0
    4b04:	0006d463          	bgez	a3,4b0c <.LBB11_260>
    4b08:	c00008b7          	lui	a7,0xc0000

0000000000004b0c <.LBB11_260>:
    4b0c:	10013503          	ld	a0,256(sp)
    4b10:	03e50533          	mul	a0,a0,t5
    4b14:	0e813783          	ld	a5,232(sp)
    4b18:	01b787b3          	add	a5,a5,s11
    4b1c:	00f50533          	add	a0,a0,a5
    4b20:	42755093          	srai	ra,a0,0x27
    4b24:	f7f00b93          	li	s7,-129
    4b28:	001bc463          	blt	s7,ra,4b30 <.LBB11_262>
    4b2c:	f7f00093          	li	ra,-129

0000000000004b30 <.LBB11_262>:
    4b30:	5c913c23          	sd	s1,1496(sp)
    4b34:	17013503          	ld	a0,368(sp)
    4b38:	03e50533          	mul	a0,a0,t5
    4b3c:	16813783          	ld	a5,360(sp)
    4b40:	01b787b3          	add	a5,a5,s11
    4b44:	00f50533          	add	a0,a0,a5
    4b48:	42755f93          	srai	t6,a0,0x27
    4b4c:	01fbc463          	blt	s7,t6,4b54 <.LBB11_264>
    4b50:	f7f00f93          	li	t6,-129

0000000000004b54 <.LBB11_264>:
    4b54:	1e013503          	ld	a0,480(sp)
    4b58:	03e50533          	mul	a0,a0,t5
    4b5c:	1d813783          	ld	a5,472(sp)
    4b60:	01b787b3          	add	a5,a5,s11
    4b64:	00f50533          	add	a0,a0,a5
    4b68:	42755493          	srai	s1,a0,0x27
    4b6c:	009bc463          	blt	s7,s1,4b74 <.LBB11_266>
    4b70:	f7f00493          	li	s1,-129

0000000000004b74 <.LBB11_266>:
    4b74:	25813503          	ld	a0,600(sp)
    4b78:	03e50533          	mul	a0,a0,t5
    4b7c:	25013783          	ld	a5,592(sp)
    4b80:	01b787b3          	add	a5,a5,s11
    4b84:	00f50533          	add	a0,a0,a5
    4b88:	42755913          	srai	s2,a0,0x27
    4b8c:	012bc463          	blt	s7,s2,4b94 <.LBB11_268>
    4b90:	f7f00913          	li	s2,-129

0000000000004b94 <.LBB11_268>:
    4b94:	2c813503          	ld	a0,712(sp)
    4b98:	03e50533          	mul	a0,a0,t5
    4b9c:	2c013783          	ld	a5,704(sp)
    4ba0:	01b787b3          	add	a5,a5,s11
    4ba4:	00f50533          	add	a0,a0,a5
    4ba8:	42755d13          	srai	s10,a0,0x27
    4bac:	01abc463          	blt	s7,s10,4bb4 <.LBB11_270>
    4bb0:	f7f00d13          	li	s10,-129

0000000000004bb4 <.LBB11_270>:
    4bb4:	34013503          	ld	a0,832(sp)
    4bb8:	03e50533          	mul	a0,a0,t5
    4bbc:	33813783          	ld	a5,824(sp)
    4bc0:	01b787b3          	add	a5,a5,s11
    4bc4:	00f50533          	add	a0,a0,a5
    4bc8:	42755993          	srai	s3,a0,0x27
    4bcc:	013bc463          	blt	s7,s3,4bd4 <.LBB11_272>
    4bd0:	f7f00993          	li	s3,-129

0000000000004bd4 <.LBB11_272>:
    4bd4:	3c013503          	ld	a0,960(sp)
    4bd8:	03e50533          	mul	a0,a0,t5
    4bdc:	3b813783          	ld	a5,952(sp)
    4be0:	01b787b3          	add	a5,a5,s11
    4be4:	00f50533          	add	a0,a0,a5
    4be8:	42755a13          	srai	s4,a0,0x27
    4bec:	014bc463          	blt	s7,s4,4bf4 <.LBB11_274>
    4bf0:	f7f00a13          	li	s4,-129

0000000000004bf4 <.LBB11_274>:
    4bf4:	44013503          	ld	a0,1088(sp)
    4bf8:	03e50533          	mul	a0,a0,t5
    4bfc:	43813783          	ld	a5,1080(sp)
    4c00:	01b787b3          	add	a5,a5,s11
    4c04:	00f50533          	add	a0,a0,a5
    4c08:	42755a93          	srai	s5,a0,0x27
    4c0c:	015bc463          	blt	s7,s5,4c14 <.LBB11_276>
    4c10:	f7f00a93          	li	s5,-129

0000000000004c14 <.LBB11_276>:
    4c14:	4c013503          	ld	a0,1216(sp)
    4c18:	03e50533          	mul	a0,a0,t5
    4c1c:	4b813783          	ld	a5,1208(sp)
    4c20:	01b787b3          	add	a5,a5,s11
    4c24:	00f50533          	add	a0,a0,a5
    4c28:	42755b13          	srai	s6,a0,0x27
    4c2c:	016bc463          	blt	s7,s6,4c34 <.LBB11_278>
    4c30:	f7f00b13          	li	s6,-129

0000000000004c34 <.LBB11_278>:
    4c34:	5f813503          	ld	a0,1528(sp)
    4c38:	03e50533          	mul	a0,a0,t5
    4c3c:	57013783          	ld	a5,1392(sp)
    4c40:	01b787b3          	add	a5,a5,s11
    4c44:	00f50533          	add	a0,a0,a5
    4c48:	42755513          	srai	a0,a0,0x27
    4c4c:	000017b7          	lui	a5,0x1
    4c50:	00f107b3          	add	a5,sp,a5
    4c54:	92a7bc23          	sd	a0,-1736(a5) # 938 <.LBB11_2+0xe8>
    4c58:	00abca63          	blt	s7,a0,4c6c <.LBB11_280>
    4c5c:	f7f00513          	li	a0,-129
    4c60:	000017b7          	lui	a5,0x1
    4c64:	00f107b3          	add	a5,sp,a5
    4c68:	92a7bc23          	sd	a0,-1736(a5) # 938 <.LBB11_2+0xe8>

0000000000004c6c <.LBB11_280>:
    4c6c:	73813503          	ld	a0,1848(sp)
    4c70:	03e50533          	mul	a0,a0,t5
    4c74:	6e013783          	ld	a5,1760(sp)
    4c78:	01b787b3          	add	a5,a5,s11
    4c7c:	00f50533          	add	a0,a0,a5
    4c80:	42755513          	srai	a0,a0,0x27
    4c84:	000017b7          	lui	a5,0x1
    4c88:	00f107b3          	add	a5,sp,a5
    4c8c:	92a7b823          	sd	a0,-1744(a5) # 930 <.LBB11_2+0xe0>
    4c90:	00abca63          	blt	s7,a0,4ca4 <.LBB11_282>
    4c94:	f7f00513          	li	a0,-129
    4c98:	000017b7          	lui	a5,0x1
    4c9c:	00f107b3          	add	a5,sp,a5
    4ca0:	92a7b823          	sd	a0,-1744(a5) # 930 <.LBB11_2+0xe0>

0000000000004ca4 <.LBB11_282>:
    4ca4:	7b813503          	ld	a0,1976(sp)
    4ca8:	03e50533          	mul	a0,a0,t5
    4cac:	01b387b3          	add	a5,t2,s11
    4cb0:	00f50533          	add	a0,a0,a5
    4cb4:	42755513          	srai	a0,a0,0x27
    4cb8:	000017b7          	lui	a5,0x1
    4cbc:	00f107b3          	add	a5,sp,a5
    4cc0:	92a7b023          	sd	a0,-1760(a5) # 920 <.LBB11_2+0xd0>
    4cc4:	00abca63          	blt	s7,a0,4cd8 <.LBB11_284>
    4cc8:	f7f00513          	li	a0,-129
    4ccc:	000017b7          	lui	a5,0x1
    4cd0:	00f107b3          	add	a5,sp,a5
    4cd4:	92a7b023          	sd	a0,-1760(a5) # 920 <.LBB11_2+0xd0>

0000000000004cd8 <.LBB11_284>:
    4cd8:	7e813503          	ld	a0,2024(sp)
    4cdc:	03e50533          	mul	a0,a0,t5
    4ce0:	7e013783          	ld	a5,2016(sp)
    4ce4:	01b787b3          	add	a5,a5,s11
    4ce8:	00f50533          	add	a0,a0,a5
    4cec:	42755513          	srai	a0,a0,0x27
    4cf0:	000017b7          	lui	a5,0x1
    4cf4:	00f107b3          	add	a5,sp,a5
    4cf8:	90a7b823          	sd	a0,-1776(a5) # 910 <.LBB11_2+0xc0>
    4cfc:	00abca63          	blt	s7,a0,4d10 <.LBB11_286>
    4d00:	f7f00513          	li	a0,-129
    4d04:	000017b7          	lui	a5,0x1
    4d08:	00f107b3          	add	a5,sp,a5
    4d0c:	90a7b823          	sd	a0,-1776(a5) # 910 <.LBB11_2+0xc0>

0000000000004d10 <.LBB11_286>:
    4d10:	00001537          	lui	a0,0x1
    4d14:	00a10533          	add	a0,sp,a0
    4d18:	83853503          	ld	a0,-1992(a0) # 838 <.LBB11_1+0x6fc>
    4d1c:	03e50533          	mul	a0,a0,t5
    4d20:	01be87b3          	add	a5,t4,s11
    4d24:	00f50533          	add	a0,a0,a5
    4d28:	42755513          	srai	a0,a0,0x27
    4d2c:	000017b7          	lui	a5,0x1
    4d30:	00f107b3          	add	a5,sp,a5
    4d34:	90a7b023          	sd	a0,-1792(a5) # 900 <.LBB11_2+0xb0>
    4d38:	00abca63          	blt	s7,a0,4d4c <.LBB11_288>
    4d3c:	f7f00513          	li	a0,-129
    4d40:	000017b7          	lui	a5,0x1
    4d44:	00f107b3          	add	a5,sp,a5
    4d48:	90a7b023          	sd	a0,-1792(a5) # 900 <.LBB11_2+0xb0>

0000000000004d4c <.LBB11_288>:
    4d4c:	00001537          	lui	a0,0x1
    4d50:	00a10533          	add	a0,sp,a0
    4d54:	85853503          	ld	a0,-1960(a0) # 858 <.LBB11_2+0x8>
    4d58:	03e50533          	mul	a0,a0,t5
    4d5c:	000017b7          	lui	a5,0x1
    4d60:	00f107b3          	add	a5,sp,a5
    4d64:	8507b783          	ld	a5,-1968(a5) # 850 <.LBB11_2>
    4d68:	01b787b3          	add	a5,a5,s11
    4d6c:	00f50533          	add	a0,a0,a5
    4d70:	42755513          	srai	a0,a0,0x27
    4d74:	000017b7          	lui	a5,0x1
    4d78:	00f107b3          	add	a5,sp,a5
    4d7c:	8ea7b823          	sd	a0,-1808(a5) # 8f0 <.LBB11_2+0xa0>
    4d80:	00abca63          	blt	s7,a0,4d94 <.LBB11_290>
    4d84:	f7f00513          	li	a0,-129
    4d88:	000017b7          	lui	a5,0x1
    4d8c:	00f107b3          	add	a5,sp,a5
    4d90:	8ea7b823          	sd	a0,-1808(a5) # 8f0 <.LBB11_2+0xa0>

0000000000004d94 <.LBB11_290>:
    4d94:	00001537          	lui	a0,0x1
    4d98:	00a10533          	add	a0,sp,a0
    4d9c:	87053503          	ld	a0,-1936(a0) # 870 <.LBB11_2+0x20>
    4da0:	03e50533          	mul	a0,a0,t5
    4da4:	000017b7          	lui	a5,0x1
    4da8:	00f107b3          	add	a5,sp,a5
    4dac:	8787b783          	ld	a5,-1928(a5) # 878 <.LBB11_2+0x28>
    4db0:	01b787b3          	add	a5,a5,s11
    4db4:	00f50533          	add	a0,a0,a5
    4db8:	42755513          	srai	a0,a0,0x27
    4dbc:	5ea13c23          	sd	a0,1528(sp)
    4dc0:	00abc663          	blt	s7,a0,4dcc <.LBB11_292>
    4dc4:	f7f00513          	li	a0,-129
    4dc8:	5ea13c23          	sd	a0,1528(sp)

0000000000004dcc <.LBB11_292>:
    4dcc:	0f813503          	ld	a0,248(sp)
    4dd0:	03e50533          	mul	a0,a0,t5
    4dd4:	0e013783          	ld	a5,224(sp)
    4dd8:	01b787b3          	add	a5,a5,s11
    4ddc:	00f50533          	add	a0,a0,a5
    4de0:	42755513          	srai	a0,a0,0x27
    4de4:	000017b7          	lui	a5,0x1
    4de8:	00f107b3          	add	a5,sp,a5
    4dec:	92a7b423          	sd	a0,-1752(a5) # 928 <.LBB11_2+0xd8>
    4df0:	00abca63          	blt	s7,a0,4e04 <.LBB11_294>
    4df4:	f7f00513          	li	a0,-129
    4df8:	000017b7          	lui	a5,0x1
    4dfc:	00f107b3          	add	a5,sp,a5
    4e00:	92a7b423          	sd	a0,-1752(a5) # 928 <.LBB11_2+0xd8>

0000000000004e04 <.LBB11_294>:
    4e04:	16013503          	ld	a0,352(sp)
    4e08:	03e50533          	mul	a0,a0,t5
    4e0c:	15013783          	ld	a5,336(sp)
    4e10:	01b787b3          	add	a5,a5,s11
    4e14:	00f50533          	add	a0,a0,a5
    4e18:	42755513          	srai	a0,a0,0x27
    4e1c:	000017b7          	lui	a5,0x1
    4e20:	00f107b3          	add	a5,sp,a5
    4e24:	90a7bc23          	sd	a0,-1768(a5) # 918 <.LBB11_2+0xc8>
    4e28:	00abca63          	blt	s7,a0,4e3c <.LBB11_296>
    4e2c:	f7f00513          	li	a0,-129
    4e30:	000017b7          	lui	a5,0x1
    4e34:	00f107b3          	add	a5,sp,a5
    4e38:	90a7bc23          	sd	a0,-1768(a5) # 918 <.LBB11_2+0xc8>

0000000000004e3c <.LBB11_296>:
    4e3c:	1d013503          	ld	a0,464(sp)
    4e40:	03e50533          	mul	a0,a0,t5
    4e44:	1c013783          	ld	a5,448(sp)
    4e48:	01b787b3          	add	a5,a5,s11
    4e4c:	00f50533          	add	a0,a0,a5
    4e50:	42755513          	srai	a0,a0,0x27
    4e54:	000017b7          	lui	a5,0x1
    4e58:	00f107b3          	add	a5,sp,a5
    4e5c:	90a7b423          	sd	a0,-1784(a5) # 908 <.LBB11_2+0xb8>
    4e60:	00abca63          	blt	s7,a0,4e74 <.LBB11_298>
    4e64:	f7f00513          	li	a0,-129
    4e68:	000017b7          	lui	a5,0x1
    4e6c:	00f107b3          	add	a5,sp,a5
    4e70:	90a7b423          	sd	a0,-1784(a5) # 908 <.LBB11_2+0xb8>

0000000000004e74 <.LBB11_298>:
    4e74:	24813503          	ld	a0,584(sp)
    4e78:	03e50533          	mul	a0,a0,t5
    4e7c:	23813783          	ld	a5,568(sp)
    4e80:	01b787b3          	add	a5,a5,s11
    4e84:	00f50533          	add	a0,a0,a5
    4e88:	42755513          	srai	a0,a0,0x27
    4e8c:	000017b7          	lui	a5,0x1
    4e90:	00f107b3          	add	a5,sp,a5
    4e94:	8ea7bc23          	sd	a0,-1800(a5) # 8f8 <.LBB11_2+0xa8>
    4e98:	00abca63          	blt	s7,a0,4eac <.LBB11_300>
    4e9c:	f7f00513          	li	a0,-129
    4ea0:	000017b7          	lui	a5,0x1
    4ea4:	00f107b3          	add	a5,sp,a5
    4ea8:	8ea7bc23          	sd	a0,-1800(a5) # 8f8 <.LBB11_2+0xa8>

0000000000004eac <.LBB11_300>:
    4eac:	2b813503          	ld	a0,696(sp)
    4eb0:	03e50533          	mul	a0,a0,t5
    4eb4:	2a813783          	ld	a5,680(sp)
    4eb8:	01b787b3          	add	a5,a5,s11
    4ebc:	00f50533          	add	a0,a0,a5
    4ec0:	42755513          	srai	a0,a0,0x27
    4ec4:	000017b7          	lui	a5,0x1
    4ec8:	00f107b3          	add	a5,sp,a5
    4ecc:	8ea7b423          	sd	a0,-1816(a5) # 8e8 <.LBB11_2+0x98>
    4ed0:	00abca63          	blt	s7,a0,4ee4 <.LBB11_302>
    4ed4:	f7f00513          	li	a0,-129
    4ed8:	000017b7          	lui	a5,0x1
    4edc:	00f107b3          	add	a5,sp,a5
    4ee0:	8ea7b423          	sd	a0,-1816(a5) # 8e8 <.LBB11_2+0x98>

0000000000004ee4 <.LBB11_302>:
    4ee4:	33013503          	ld	a0,816(sp)
    4ee8:	03e50533          	mul	a0,a0,t5
    4eec:	32013783          	ld	a5,800(sp)
    4ef0:	01b787b3          	add	a5,a5,s11
    4ef4:	00f50533          	add	a0,a0,a5
    4ef8:	42755513          	srai	a0,a0,0x27
    4efc:	000017b7          	lui	a5,0x1
    4f00:	00f107b3          	add	a5,sp,a5
    4f04:	8ea7b023          	sd	a0,-1824(a5) # 8e0 <.LBB11_2+0x90>
    4f08:	00abca63          	blt	s7,a0,4f1c <.LBB11_304>
    4f0c:	f7f00513          	li	a0,-129
    4f10:	000017b7          	lui	a5,0x1
    4f14:	00f107b3          	add	a5,sp,a5
    4f18:	8ea7b023          	sd	a0,-1824(a5) # 8e0 <.LBB11_2+0x90>

0000000000004f1c <.LBB11_304>:
    4f1c:	3b013503          	ld	a0,944(sp)
    4f20:	03e50533          	mul	a0,a0,t5
    4f24:	3a013783          	ld	a5,928(sp)
    4f28:	01b787b3          	add	a5,a5,s11
    4f2c:	00f50533          	add	a0,a0,a5
    4f30:	42755513          	srai	a0,a0,0x27
    4f34:	000017b7          	lui	a5,0x1
    4f38:	00f107b3          	add	a5,sp,a5
    4f3c:	8ca7bc23          	sd	a0,-1832(a5) # 8d8 <.LBB11_2+0x88>
    4f40:	00abca63          	blt	s7,a0,4f54 <.LBB11_306>
    4f44:	f7f00513          	li	a0,-129
    4f48:	000017b7          	lui	a5,0x1
    4f4c:	00f107b3          	add	a5,sp,a5
    4f50:	8ca7bc23          	sd	a0,-1832(a5) # 8d8 <.LBB11_2+0x88>

0000000000004f54 <.LBB11_306>:
    4f54:	43013503          	ld	a0,1072(sp)
    4f58:	03e50533          	mul	a0,a0,t5
    4f5c:	42013783          	ld	a5,1056(sp)
    4f60:	01b787b3          	add	a5,a5,s11
    4f64:	00f50533          	add	a0,a0,a5
    4f68:	42755513          	srai	a0,a0,0x27
    4f6c:	000017b7          	lui	a5,0x1
    4f70:	00f107b3          	add	a5,sp,a5
    4f74:	8ca7b823          	sd	a0,-1840(a5) # 8d0 <.LBB11_2+0x80>
    4f78:	00abca63          	blt	s7,a0,4f8c <.LBB11_308>
    4f7c:	f7f00513          	li	a0,-129
    4f80:	000017b7          	lui	a5,0x1
    4f84:	00f107b3          	add	a5,sp,a5
    4f88:	8ca7b823          	sd	a0,-1840(a5) # 8d0 <.LBB11_2+0x80>

0000000000004f8c <.LBB11_308>:
    4f8c:	4b013503          	ld	a0,1200(sp)
    4f90:	03e50533          	mul	a0,a0,t5
    4f94:	4a013783          	ld	a5,1184(sp)
    4f98:	01b787b3          	add	a5,a5,s11
    4f9c:	00f50533          	add	a0,a0,a5
    4fa0:	42755513          	srai	a0,a0,0x27
    4fa4:	000017b7          	lui	a5,0x1
    4fa8:	00f107b3          	add	a5,sp,a5
    4fac:	8ca7b423          	sd	a0,-1848(a5) # 8c8 <.LBB11_2+0x78>
    4fb0:	00abca63          	blt	s7,a0,4fc4 <.LBB11_310>
    4fb4:	f7f00513          	li	a0,-129
    4fb8:	000017b7          	lui	a5,0x1
    4fbc:	00f107b3          	add	a5,sp,a5
    4fc0:	8ca7b423          	sd	a0,-1848(a5) # 8c8 <.LBB11_2+0x78>

0000000000004fc4 <.LBB11_310>:
    4fc4:	56813503          	ld	a0,1384(sp)
    4fc8:	03e50533          	mul	a0,a0,t5
    4fcc:	55813783          	ld	a5,1368(sp)
    4fd0:	01b787b3          	add	a5,a5,s11
    4fd4:	00f50533          	add	a0,a0,a5
    4fd8:	42755513          	srai	a0,a0,0x27
    4fdc:	000017b7          	lui	a5,0x1
    4fe0:	00f107b3          	add	a5,sp,a5
    4fe4:	8ca7b023          	sd	a0,-1856(a5) # 8c0 <.LBB11_2+0x70>
    4fe8:	00abca63          	blt	s7,a0,4ffc <.LBB11_312>
    4fec:	f7f00513          	li	a0,-129
    4ff0:	000017b7          	lui	a5,0x1
    4ff4:	00f107b3          	add	a5,sp,a5
    4ff8:	8ca7b023          	sd	a0,-1856(a5) # 8c0 <.LBB11_2+0x70>

0000000000004ffc <.LBB11_312>:
    4ffc:	6d813503          	ld	a0,1752(sp)
    5000:	03e50533          	mul	a0,a0,t5
    5004:	6c813783          	ld	a5,1736(sp)
    5008:	01b787b3          	add	a5,a5,s11
    500c:	00f50533          	add	a0,a0,a5
    5010:	42755513          	srai	a0,a0,0x27
    5014:	000017b7          	lui	a5,0x1
    5018:	00f107b3          	add	a5,sp,a5
    501c:	8aa7bc23          	sd	a0,-1864(a5) # 8b8 <.LBB11_2+0x68>
    5020:	00abca63          	blt	s7,a0,5034 <.LBB11_314>
    5024:	f7f00513          	li	a0,-129
    5028:	000017b7          	lui	a5,0x1
    502c:	00f107b3          	add	a5,sp,a5
    5030:	8aa7bc23          	sd	a0,-1864(a5) # 8b8 <.LBB11_2+0x68>

0000000000005034 <.LBB11_314>:
    5034:	76813503          	ld	a0,1896(sp)
    5038:	03e50533          	mul	a0,a0,t5
    503c:	75813783          	ld	a5,1880(sp)
    5040:	01b787b3          	add	a5,a5,s11
    5044:	00f50533          	add	a0,a0,a5
    5048:	42755513          	srai	a0,a0,0x27
    504c:	000017b7          	lui	a5,0x1
    5050:	00f107b3          	add	a5,sp,a5
    5054:	8aa7b423          	sd	a0,-1880(a5) # 8a8 <.LBB11_2+0x58>
    5058:	00abca63          	blt	s7,a0,506c <.LBB11_316>
    505c:	f7f00513          	li	a0,-129
    5060:	000017b7          	lui	a5,0x1
    5064:	00f107b3          	add	a5,sp,a5
    5068:	8aa7b423          	sd	a0,-1880(a5) # 8a8 <.LBB11_2+0x58>

000000000000506c <.LBB11_316>:
    506c:	7d813503          	ld	a0,2008(sp)
    5070:	03e50533          	mul	a0,a0,t5
    5074:	7c813783          	ld	a5,1992(sp)
    5078:	01b787b3          	add	a5,a5,s11
    507c:	00f50533          	add	a0,a0,a5
    5080:	42755513          	srai	a0,a0,0x27
    5084:	000017b7          	lui	a5,0x1
    5088:	00f107b3          	add	a5,sp,a5
    508c:	88a7bc23          	sd	a0,-1896(a5) # 898 <.LBB11_2+0x48>
    5090:	00abca63          	blt	s7,a0,50a4 <.LBB11_318>
    5094:	f7f00513          	li	a0,-129
    5098:	000017b7          	lui	a5,0x1
    509c:	00f107b3          	add	a5,sp,a5
    50a0:	88a7bc23          	sd	a0,-1896(a5) # 898 <.LBB11_2+0x48>

00000000000050a4 <.LBB11_318>:
    50a4:	00001537          	lui	a0,0x1
    50a8:	00a10533          	add	a0,sp,a0
    50ac:	81853503          	ld	a0,-2024(a0) # 818 <.LBB11_1+0x6dc>
    50b0:	03e50533          	mul	a0,a0,t5
    50b4:	7f813783          	ld	a5,2040(sp)
    50b8:	01b787b3          	add	a5,a5,s11
    50bc:	00f50533          	add	a0,a0,a5
    50c0:	42755513          	srai	a0,a0,0x27
    50c4:	000017b7          	lui	a5,0x1
    50c8:	00f107b3          	add	a5,sp,a5
    50cc:	88a7b423          	sd	a0,-1912(a5) # 888 <.LBB11_2+0x38>
    50d0:	00abca63          	blt	s7,a0,50e4 <.LBB11_320>
    50d4:	f7f00513          	li	a0,-129
    50d8:	000017b7          	lui	a5,0x1
    50dc:	00f107b3          	add	a5,sp,a5
    50e0:	88a7b423          	sd	a0,-1912(a5) # 888 <.LBB11_2+0x38>

00000000000050e4 <.LBB11_320>:
    50e4:	00001537          	lui	a0,0x1
    50e8:	00a10533          	add	a0,sp,a0
    50ec:	84853503          	ld	a0,-1976(a0) # 848 <.LBB11_1+0x70c>
    50f0:	03e50533          	mul	a0,a0,t5
    50f4:	000017b7          	lui	a5,0x1
    50f8:	00f107b3          	add	a5,sp,a5
    50fc:	8407b783          	ld	a5,-1984(a5) # 840 <.LBB11_1+0x704>
    5100:	01b787b3          	add	a5,a5,s11
    5104:	00f50533          	add	a0,a0,a5
    5108:	42755513          	srai	a0,a0,0x27
    510c:	000017b7          	lui	a5,0x1
    5110:	00f107b3          	add	a5,sp,a5
    5114:	86a7bc23          	sd	a0,-1928(a5) # 878 <.LBB11_2+0x28>
    5118:	00abca63          	blt	s7,a0,512c <.LBB11_322>
    511c:	f7f00513          	li	a0,-129
    5120:	000017b7          	lui	a5,0x1
    5124:	00f107b3          	add	a5,sp,a5
    5128:	86a7bc23          	sd	a0,-1928(a5) # 878 <.LBB11_2+0x28>

000000000000512c <.LBB11_322>:
    512c:	00001537          	lui	a0,0x1
    5130:	00a10533          	add	a0,sp,a0
    5134:	86853503          	ld	a0,-1944(a0) # 868 <.LBB11_2+0x18>
    5138:	03e50533          	mul	a0,a0,t5
    513c:	000017b7          	lui	a5,0x1
    5140:	00f107b3          	add	a5,sp,a5
    5144:	8607b783          	ld	a5,-1952(a5) # 860 <.LBB11_2+0x10>
    5148:	01b787b3          	add	a5,a5,s11
    514c:	00f50533          	add	a0,a0,a5
    5150:	42755513          	srai	a0,a0,0x27
    5154:	000017b7          	lui	a5,0x1
    5158:	00f107b3          	add	a5,sp,a5
    515c:	86a7b423          	sd	a0,-1944(a5) # 868 <.LBB11_2+0x18>
    5160:	00abca63          	blt	s7,a0,5174 <.LBB11_324>
    5164:	f7f00513          	li	a0,-129
    5168:	000017b7          	lui	a5,0x1
    516c:	00f107b3          	add	a5,sp,a5
    5170:	86a7b423          	sd	a0,-1944(a5) # 868 <.LBB11_2+0x18>

0000000000005174 <.LBB11_324>:
    5174:	0f013503          	ld	a0,240(sp)
    5178:	03e50533          	mul	a0,a0,t5
    517c:	0d013783          	ld	a5,208(sp)
    5180:	01b787b3          	add	a5,a5,s11
    5184:	00f50533          	add	a0,a0,a5
    5188:	42755513          	srai	a0,a0,0x27
    518c:	000017b7          	lui	a5,0x1
    5190:	00f107b3          	add	a5,sp,a5
    5194:	8aa7b823          	sd	a0,-1872(a5) # 8b0 <.LBB11_2+0x60>
    5198:	00abca63          	blt	s7,a0,51ac <.LBB11_326>
    519c:	f7f00513          	li	a0,-129
    51a0:	000017b7          	lui	a5,0x1
    51a4:	00f107b3          	add	a5,sp,a5
    51a8:	8aa7b823          	sd	a0,-1872(a5) # 8b0 <.LBB11_2+0x60>

00000000000051ac <.LBB11_326>:
    51ac:	15813503          	ld	a0,344(sp)
    51b0:	03e50533          	mul	a0,a0,t5
    51b4:	14013783          	ld	a5,320(sp)
    51b8:	01b787b3          	add	a5,a5,s11
    51bc:	00f50533          	add	a0,a0,a5
    51c0:	42755513          	srai	a0,a0,0x27
    51c4:	000017b7          	lui	a5,0x1
    51c8:	00f107b3          	add	a5,sp,a5
    51cc:	8aa7b023          	sd	a0,-1888(a5) # 8a0 <.LBB11_2+0x50>
    51d0:	00abca63          	blt	s7,a0,51e4 <.LBB11_328>
    51d4:	f7f00513          	li	a0,-129
    51d8:	000017b7          	lui	a5,0x1
    51dc:	00f107b3          	add	a5,sp,a5
    51e0:	8aa7b023          	sd	a0,-1888(a5) # 8a0 <.LBB11_2+0x50>

00000000000051e4 <.LBB11_328>:
    51e4:	1c813503          	ld	a0,456(sp)
    51e8:	03e50533          	mul	a0,a0,t5
    51ec:	1b013783          	ld	a5,432(sp)
    51f0:	01b787b3          	add	a5,a5,s11
    51f4:	00f50533          	add	a0,a0,a5
    51f8:	42755513          	srai	a0,a0,0x27
    51fc:	000017b7          	lui	a5,0x1
    5200:	00f107b3          	add	a5,sp,a5
    5204:	88a7b823          	sd	a0,-1904(a5) # 890 <.LBB11_2+0x40>
    5208:	00abca63          	blt	s7,a0,521c <.LBB11_330>
    520c:	f7f00513          	li	a0,-129
    5210:	000017b7          	lui	a5,0x1
    5214:	00f107b3          	add	a5,sp,a5
    5218:	88a7b823          	sd	a0,-1904(a5) # 890 <.LBB11_2+0x40>

000000000000521c <.LBB11_330>:
    521c:	24013503          	ld	a0,576(sp)
    5220:	03e50533          	mul	a0,a0,t5
    5224:	22813783          	ld	a5,552(sp)
    5228:	01b787b3          	add	a5,a5,s11
    522c:	00f50533          	add	a0,a0,a5
    5230:	42755513          	srai	a0,a0,0x27
    5234:	000017b7          	lui	a5,0x1
    5238:	00f107b3          	add	a5,sp,a5
    523c:	88a7b023          	sd	a0,-1920(a5) # 880 <.LBB11_2+0x30>
    5240:	00abca63          	blt	s7,a0,5254 <.LBB11_332>
    5244:	f7f00513          	li	a0,-129
    5248:	000017b7          	lui	a5,0x1
    524c:	00f107b3          	add	a5,sp,a5
    5250:	88a7b023          	sd	a0,-1920(a5) # 880 <.LBB11_2+0x30>

0000000000005254 <.LBB11_332>:
    5254:	2b013503          	ld	a0,688(sp)
    5258:	03e50533          	mul	a0,a0,t5
    525c:	29813783          	ld	a5,664(sp)
    5260:	01b787b3          	add	a5,a5,s11
    5264:	00f50533          	add	a0,a0,a5
    5268:	42755513          	srai	a0,a0,0x27
    526c:	000017b7          	lui	a5,0x1
    5270:	00f107b3          	add	a5,sp,a5
    5274:	86a7b823          	sd	a0,-1936(a5) # 870 <.LBB11_2+0x20>
    5278:	00abca63          	blt	s7,a0,528c <.LBB11_334>
    527c:	f7f00513          	li	a0,-129
    5280:	000017b7          	lui	a5,0x1
    5284:	00f107b3          	add	a5,sp,a5
    5288:	86a7b823          	sd	a0,-1936(a5) # 870 <.LBB11_2+0x20>

000000000000528c <.LBB11_334>:
    528c:	32813503          	ld	a0,808(sp)
    5290:	03e50533          	mul	a0,a0,t5
    5294:	31013783          	ld	a5,784(sp)
    5298:	01b787b3          	add	a5,a5,s11
    529c:	00f50533          	add	a0,a0,a5
    52a0:	42755513          	srai	a0,a0,0x27
    52a4:	000017b7          	lui	a5,0x1
    52a8:	00f107b3          	add	a5,sp,a5
    52ac:	86a7b023          	sd	a0,-1952(a5) # 860 <.LBB11_2+0x10>
    52b0:	00abca63          	blt	s7,a0,52c4 <.LBB11_336>
    52b4:	f7f00513          	li	a0,-129
    52b8:	000017b7          	lui	a5,0x1
    52bc:	00f107b3          	add	a5,sp,a5
    52c0:	86a7b023          	sd	a0,-1952(a5) # 860 <.LBB11_2+0x10>

00000000000052c4 <.LBB11_336>:
    52c4:	3a813503          	ld	a0,936(sp)
    52c8:	03e50533          	mul	a0,a0,t5
    52cc:	39013783          	ld	a5,912(sp)
    52d0:	01b787b3          	add	a5,a5,s11
    52d4:	00f50533          	add	a0,a0,a5
    52d8:	42755513          	srai	a0,a0,0x27
    52dc:	000017b7          	lui	a5,0x1
    52e0:	00f107b3          	add	a5,sp,a5
    52e4:	84a7bc23          	sd	a0,-1960(a5) # 858 <.LBB11_2+0x8>
    52e8:	00abca63          	blt	s7,a0,52fc <.LBB11_338>
    52ec:	f7f00513          	li	a0,-129
    52f0:	000017b7          	lui	a5,0x1
    52f4:	00f107b3          	add	a5,sp,a5
    52f8:	84a7bc23          	sd	a0,-1960(a5) # 858 <.LBB11_2+0x8>

00000000000052fc <.LBB11_338>:
    52fc:	42813503          	ld	a0,1064(sp)
    5300:	03e50533          	mul	a0,a0,t5
    5304:	41013783          	ld	a5,1040(sp)
    5308:	01b787b3          	add	a5,a5,s11
    530c:	00f50533          	add	a0,a0,a5
    5310:	42755513          	srai	a0,a0,0x27
    5314:	000017b7          	lui	a5,0x1
    5318:	00f107b3          	add	a5,sp,a5
    531c:	84a7b823          	sd	a0,-1968(a5) # 850 <.LBB11_2>
    5320:	00abca63          	blt	s7,a0,5334 <.LBB11_340>
    5324:	f7f00513          	li	a0,-129
    5328:	000017b7          	lui	a5,0x1
    532c:	00f107b3          	add	a5,sp,a5
    5330:	84a7b823          	sd	a0,-1968(a5) # 850 <.LBB11_2>

0000000000005334 <.LBB11_340>:
    5334:	4a813503          	ld	a0,1192(sp)
    5338:	03e50533          	mul	a0,a0,t5
    533c:	49013783          	ld	a5,1168(sp)
    5340:	01b787b3          	add	a5,a5,s11
    5344:	00f50533          	add	a0,a0,a5
    5348:	42755513          	srai	a0,a0,0x27
    534c:	000017b7          	lui	a5,0x1
    5350:	00f107b3          	add	a5,sp,a5
    5354:	84a7b423          	sd	a0,-1976(a5) # 848 <.LBB11_1+0x70c>
    5358:	00abca63          	blt	s7,a0,536c <.LBB11_342>
    535c:	f7f00513          	li	a0,-129
    5360:	000017b7          	lui	a5,0x1
    5364:	00f107b3          	add	a5,sp,a5
    5368:	84a7b423          	sd	a0,-1976(a5) # 848 <.LBB11_1+0x70c>

000000000000536c <.LBB11_342>:
    536c:	56013503          	ld	a0,1376(sp)
    5370:	03e50533          	mul	a0,a0,t5
    5374:	51013783          	ld	a5,1296(sp)
    5378:	01b787b3          	add	a5,a5,s11
    537c:	00f50533          	add	a0,a0,a5
    5380:	42755513          	srai	a0,a0,0x27
    5384:	000017b7          	lui	a5,0x1
    5388:	00f107b3          	add	a5,sp,a5
    538c:	84a7b023          	sd	a0,-1984(a5) # 840 <.LBB11_1+0x704>
    5390:	00abca63          	blt	s7,a0,53a4 <.LBB11_344>
    5394:	f7f00513          	li	a0,-129
    5398:	000017b7          	lui	a5,0x1
    539c:	00f107b3          	add	a5,sp,a5
    53a0:	84a7b023          	sd	a0,-1984(a5) # 840 <.LBB11_1+0x704>

00000000000053a4 <.LBB11_344>:
    53a4:	6d013503          	ld	a0,1744(sp)
    53a8:	03e50533          	mul	a0,a0,t5
    53ac:	6b813783          	ld	a5,1720(sp)
    53b0:	01b787b3          	add	a5,a5,s11
    53b4:	00f50533          	add	a0,a0,a5
    53b8:	42755513          	srai	a0,a0,0x27
    53bc:	000017b7          	lui	a5,0x1
    53c0:	00f107b3          	add	a5,sp,a5
    53c4:	82a7bc23          	sd	a0,-1992(a5) # 838 <.LBB11_1+0x6fc>
    53c8:	00abca63          	blt	s7,a0,53dc <.LBB11_346>
    53cc:	f7f00513          	li	a0,-129
    53d0:	000017b7          	lui	a5,0x1
    53d4:	00f107b3          	add	a5,sp,a5
    53d8:	82a7bc23          	sd	a0,-1992(a5) # 838 <.LBB11_1+0x6fc>

00000000000053dc <.LBB11_346>:
    53dc:	76013503          	ld	a0,1888(sp)
    53e0:	03e50533          	mul	a0,a0,t5
    53e4:	74813783          	ld	a5,1864(sp)
    53e8:	01b787b3          	add	a5,a5,s11
    53ec:	00f50533          	add	a0,a0,a5
    53f0:	42755513          	srai	a0,a0,0x27
    53f4:	000017b7          	lui	a5,0x1
    53f8:	00f107b3          	add	a5,sp,a5
    53fc:	82a7b423          	sd	a0,-2008(a5) # 828 <.LBB11_1+0x6ec>
    5400:	00abca63          	blt	s7,a0,5414 <.LBB11_348>
    5404:	f7f00513          	li	a0,-129
    5408:	000017b7          	lui	a5,0x1
    540c:	00f107b3          	add	a5,sp,a5
    5410:	82a7b423          	sd	a0,-2008(a5) # 828 <.LBB11_1+0x6ec>

0000000000005414 <.LBB11_348>:
    5414:	7d013503          	ld	a0,2000(sp)
    5418:	03e50533          	mul	a0,a0,t5
    541c:	7c013783          	ld	a5,1984(sp)
    5420:	01b787b3          	add	a5,a5,s11
    5424:	00f50533          	add	a0,a0,a5
    5428:	42755513          	srai	a0,a0,0x27
    542c:	000017b7          	lui	a5,0x1
    5430:	00f107b3          	add	a5,sp,a5
    5434:	80a7bc23          	sd	a0,-2024(a5) # 818 <.LBB11_1+0x6dc>
    5438:	00abca63          	blt	s7,a0,544c <.LBB11_350>
    543c:	f7f00513          	li	a0,-129
    5440:	000017b7          	lui	a5,0x1
    5444:	00f107b3          	add	a5,sp,a5
    5448:	80a7bc23          	sd	a0,-2024(a5) # 818 <.LBB11_1+0x6dc>

000000000000544c <.LBB11_350>:
    544c:	00001537          	lui	a0,0x1
    5450:	00a10533          	add	a0,sp,a0
    5454:	80853503          	ld	a0,-2040(a0) # 808 <.LBB11_1+0x6cc>
    5458:	03e50533          	mul	a0,a0,t5
    545c:	7f013783          	ld	a5,2032(sp)
    5460:	01b787b3          	add	a5,a5,s11
    5464:	00f50533          	add	a0,a0,a5
    5468:	42755513          	srai	a0,a0,0x27
    546c:	000017b7          	lui	a5,0x1
    5470:	00f107b3          	add	a5,sp,a5
    5474:	80a7b423          	sd	a0,-2040(a5) # 808 <.LBB11_1+0x6cc>
    5478:	00abca63          	blt	s7,a0,548c <.LBB11_352>
    547c:	f7f00513          	li	a0,-129
    5480:	000017b7          	lui	a5,0x1
    5484:	00f107b3          	add	a5,sp,a5
    5488:	80a7b423          	sd	a0,-2040(a5) # 808 <.LBB11_1+0x6cc>

000000000000548c <.LBB11_352>:
    548c:	00001537          	lui	a0,0x1
    5490:	00a10533          	add	a0,sp,a0
    5494:	81053503          	ld	a0,-2032(a0) # 810 <.LBB11_1+0x6d4>
    5498:	03e50533          	mul	a0,a0,t5
    549c:	000017b7          	lui	a5,0x1
    54a0:	00f107b3          	add	a5,sp,a5
    54a4:	8007b783          	ld	a5,-2048(a5) # 800 <.LBB11_1+0x6c4>
    54a8:	01b787b3          	add	a5,a5,s11
    54ac:	00f50533          	add	a0,a0,a5
    54b0:	42755513          	srai	a0,a0,0x27
    54b4:	7ea13c23          	sd	a0,2040(sp)
    54b8:	00abc663          	blt	s7,a0,54c4 <.LBB11_354>
    54bc:	f7f00513          	li	a0,-129
    54c0:	7ea13c23          	sd	a0,2040(sp)

00000000000054c4 <.LBB11_354>:
    54c4:	00001537          	lui	a0,0x1
    54c8:	00a10533          	add	a0,sp,a0
    54cc:	83053503          	ld	a0,-2000(a0) # 830 <.LBB11_1+0x6f4>
    54d0:	03e50533          	mul	a0,a0,t5
    54d4:	000017b7          	lui	a5,0x1
    54d8:	00f107b3          	add	a5,sp,a5
    54dc:	8207b783          	ld	a5,-2016(a5) # 820 <.LBB11_1+0x6e4>
    54e0:	01b787b3          	add	a5,a5,s11
    54e4:	00f50533          	add	a0,a0,a5
    54e8:	42755513          	srai	a0,a0,0x27
    54ec:	7ea13423          	sd	a0,2024(sp)
    54f0:	00abc663          	blt	s7,a0,54fc <.LBB11_356>
    54f4:	f7f00513          	li	a0,-129
    54f8:	7ea13423          	sd	a0,2024(sp)

00000000000054fc <.LBB11_356>:
    54fc:	0d813503          	ld	a0,216(sp)
    5500:	03e50533          	mul	a0,a0,t5
    5504:	0c013783          	ld	a5,192(sp)
    5508:	01b787b3          	add	a5,a5,s11
    550c:	00f50533          	add	a0,a0,a5
    5510:	42755513          	srai	a0,a0,0x27
    5514:	000017b7          	lui	a5,0x1
    5518:	00f107b3          	add	a5,sp,a5
    551c:	82a7b823          	sd	a0,-2000(a5) # 830 <.LBB11_1+0x6f4>
    5520:	00abca63          	blt	s7,a0,5534 <.LBB11_358>
    5524:	f7f00513          	li	a0,-129
    5528:	000017b7          	lui	a5,0x1
    552c:	00f107b3          	add	a5,sp,a5
    5530:	82a7b823          	sd	a0,-2000(a5) # 830 <.LBB11_1+0x6f4>

0000000000005534 <.LBB11_358>:
    5534:	14813503          	ld	a0,328(sp)
    5538:	03e50533          	mul	a0,a0,t5
    553c:	13013783          	ld	a5,304(sp)
    5540:	01b787b3          	add	a5,a5,s11
    5544:	00f50533          	add	a0,a0,a5
    5548:	42755513          	srai	a0,a0,0x27
    554c:	000017b7          	lui	a5,0x1
    5550:	00f107b3          	add	a5,sp,a5
    5554:	82a7b023          	sd	a0,-2016(a5) # 820 <.LBB11_1+0x6e4>
    5558:	00abca63          	blt	s7,a0,556c <.LBB11_360>
    555c:	f7f00513          	li	a0,-129
    5560:	000017b7          	lui	a5,0x1
    5564:	00f107b3          	add	a5,sp,a5
    5568:	82a7b023          	sd	a0,-2016(a5) # 820 <.LBB11_1+0x6e4>

000000000000556c <.LBB11_360>:
    556c:	1b813503          	ld	a0,440(sp)
    5570:	03e50533          	mul	a0,a0,t5
    5574:	1a013783          	ld	a5,416(sp)
    5578:	01b787b3          	add	a5,a5,s11
    557c:	00f50533          	add	a0,a0,a5
    5580:	42755513          	srai	a0,a0,0x27
    5584:	000017b7          	lui	a5,0x1
    5588:	00f107b3          	add	a5,sp,a5
    558c:	80a7b823          	sd	a0,-2032(a5) # 810 <.LBB11_1+0x6d4>
    5590:	00abca63          	blt	s7,a0,55a4 <.LBB11_362>
    5594:	f7f00513          	li	a0,-129
    5598:	000017b7          	lui	a5,0x1
    559c:	00f107b3          	add	a5,sp,a5
    55a0:	80a7b823          	sd	a0,-2032(a5) # 810 <.LBB11_1+0x6d4>

00000000000055a4 <.LBB11_362>:
    55a4:	23013503          	ld	a0,560(sp)
    55a8:	03e50533          	mul	a0,a0,t5
    55ac:	21813783          	ld	a5,536(sp)
    55b0:	01b787b3          	add	a5,a5,s11
    55b4:	00f50533          	add	a0,a0,a5
    55b8:	42755513          	srai	a0,a0,0x27
    55bc:	000017b7          	lui	a5,0x1
    55c0:	00f107b3          	add	a5,sp,a5
    55c4:	80a7b023          	sd	a0,-2048(a5) # 800 <.LBB11_1+0x6c4>
    55c8:	00abca63          	blt	s7,a0,55dc <.LBB11_364>
    55cc:	f7f00513          	li	a0,-129
    55d0:	000017b7          	lui	a5,0x1
    55d4:	00f107b3          	add	a5,sp,a5
    55d8:	80a7b023          	sd	a0,-2048(a5) # 800 <.LBB11_1+0x6c4>

00000000000055dc <.LBB11_364>:
    55dc:	2a013503          	ld	a0,672(sp)
    55e0:	03e50533          	mul	a0,a0,t5
    55e4:	28813783          	ld	a5,648(sp)
    55e8:	01b787b3          	add	a5,a5,s11
    55ec:	00f50533          	add	a0,a0,a5
    55f0:	42755513          	srai	a0,a0,0x27
    55f4:	7ea13823          	sd	a0,2032(sp)
    55f8:	00abc663          	blt	s7,a0,5604 <.LBB11_366>
    55fc:	f7f00513          	li	a0,-129
    5600:	7ea13823          	sd	a0,2032(sp)

0000000000005604 <.LBB11_366>:
    5604:	31813503          	ld	a0,792(sp)
    5608:	03e50533          	mul	a0,a0,t5
    560c:	30013783          	ld	a5,768(sp)
    5610:	01b787b3          	add	a5,a5,s11
    5614:	00f50533          	add	a0,a0,a5
    5618:	42755513          	srai	a0,a0,0x27
    561c:	7ea13023          	sd	a0,2016(sp)
    5620:	00abc663          	blt	s7,a0,562c <.LBB11_368>
    5624:	f7f00513          	li	a0,-129
    5628:	7ea13023          	sd	a0,2016(sp)

000000000000562c <.LBB11_368>:
    562c:	39813503          	ld	a0,920(sp)
    5630:	03e50533          	mul	a0,a0,t5
    5634:	38013783          	ld	a5,896(sp)
    5638:	01b787b3          	add	a5,a5,s11
    563c:	00f50533          	add	a0,a0,a5
    5640:	42755513          	srai	a0,a0,0x27
    5644:	7ca13c23          	sd	a0,2008(sp)
    5648:	00abc663          	blt	s7,a0,5654 <.LBB11_370>
    564c:	f7f00513          	li	a0,-129
    5650:	7ca13c23          	sd	a0,2008(sp)

0000000000005654 <.LBB11_370>:
    5654:	41813503          	ld	a0,1048(sp)
    5658:	03e50533          	mul	a0,a0,t5
    565c:	40013783          	ld	a5,1024(sp)
    5660:	01b787b3          	add	a5,a5,s11
    5664:	00f50533          	add	a0,a0,a5
    5668:	42755513          	srai	a0,a0,0x27
    566c:	7ca13823          	sd	a0,2000(sp)
    5670:	00abc663          	blt	s7,a0,567c <.LBB11_372>
    5674:	f7f00513          	li	a0,-129
    5678:	7ca13823          	sd	a0,2000(sp)

000000000000567c <.LBB11_372>:
    567c:	49813503          	ld	a0,1176(sp)
    5680:	03e50533          	mul	a0,a0,t5
    5684:	48013783          	ld	a5,1152(sp)
    5688:	01b787b3          	add	a5,a5,s11
    568c:	00f50533          	add	a0,a0,a5
    5690:	42755513          	srai	a0,a0,0x27
    5694:	7ca13423          	sd	a0,1992(sp)
    5698:	00abc663          	blt	s7,a0,56a4 <.LBB11_374>
    569c:	f7f00513          	li	a0,-129
    56a0:	7ca13423          	sd	a0,1992(sp)

00000000000056a4 <.LBB11_374>:
    56a4:	55013503          	ld	a0,1360(sp)
    56a8:	03e50533          	mul	a0,a0,t5
    56ac:	50013783          	ld	a5,1280(sp)
    56b0:	01b787b3          	add	a5,a5,s11
    56b4:	00f50533          	add	a0,a0,a5
    56b8:	42755513          	srai	a0,a0,0x27
    56bc:	7ca13023          	sd	a0,1984(sp)
    56c0:	00abc663          	blt	s7,a0,56cc <.LBB11_376>
    56c4:	f7f00513          	li	a0,-129
    56c8:	7ca13023          	sd	a0,1984(sp)

00000000000056cc <.LBB11_376>:
    56cc:	6c013503          	ld	a0,1728(sp)
    56d0:	03e50533          	mul	a0,a0,t5
    56d4:	65813783          	ld	a5,1624(sp)
    56d8:	01b787b3          	add	a5,a5,s11
    56dc:	00f50533          	add	a0,a0,a5
    56e0:	42755513          	srai	a0,a0,0x27
    56e4:	7aa13c23          	sd	a0,1976(sp)
    56e8:	00abc663          	blt	s7,a0,56f4 <.LBB11_378>
    56ec:	f7f00513          	li	a0,-129
    56f0:	7aa13c23          	sd	a0,1976(sp)

00000000000056f4 <.LBB11_378>:
    56f4:	75013503          	ld	a0,1872(sp)
    56f8:	03e50533          	mul	a0,a0,t5
    56fc:	74013783          	ld	a5,1856(sp)
    5700:	01b787b3          	add	a5,a5,s11
    5704:	00f50533          	add	a0,a0,a5
    5708:	42755513          	srai	a0,a0,0x27
    570c:	7aa13423          	sd	a0,1960(sp)
    5710:	00abc663          	blt	s7,a0,571c <.LBB11_380>
    5714:	f7f00513          	li	a0,-129
    5718:	7aa13423          	sd	a0,1960(sp)

000000000000571c <.LBB11_380>:
    571c:	79813503          	ld	a0,1944(sp)
    5720:	03e50533          	mul	a0,a0,t5
    5724:	77013783          	ld	a5,1904(sp)
    5728:	01b787b3          	add	a5,a5,s11
    572c:	00f50533          	add	a0,a0,a5
    5730:	42755513          	srai	a0,a0,0x27
    5734:	78a13c23          	sd	a0,1944(sp)
    5738:	00abc663          	blt	s7,a0,5744 <.LBB11_382>
    573c:	f7f00513          	li	a0,-129
    5740:	78a13c23          	sd	a0,1944(sp)

0000000000005744 <.LBB11_382>:
    5744:	78813503          	ld	a0,1928(sp)
    5748:	03e50533          	mul	a0,a0,t5
    574c:	77813783          	ld	a5,1912(sp)
    5750:	01b787b3          	add	a5,a5,s11
    5754:	00f50533          	add	a0,a0,a5
    5758:	42755513          	srai	a0,a0,0x27
    575c:	78a13423          	sd	a0,1928(sp)
    5760:	00abc663          	blt	s7,a0,576c <.LBB11_384>
    5764:	f7f00513          	li	a0,-129
    5768:	78a13423          	sd	a0,1928(sp)

000000000000576c <.LBB11_384>:
    576c:	79013503          	ld	a0,1936(sp)
    5770:	03e50533          	mul	a0,a0,t5
    5774:	78013783          	ld	a5,1920(sp)
    5778:	01b787b3          	add	a5,a5,s11
    577c:	00f50533          	add	a0,a0,a5
    5780:	42755513          	srai	a0,a0,0x27
    5784:	76a13c23          	sd	a0,1912(sp)
    5788:	00abc663          	blt	s7,a0,5794 <.LBB11_386>
    578c:	f7f00513          	li	a0,-129
    5790:	76a13c23          	sd	a0,1912(sp)

0000000000005794 <.LBB11_386>:
    5794:	7b013503          	ld	a0,1968(sp)
    5798:	03e50533          	mul	a0,a0,t5
    579c:	7a013783          	ld	a5,1952(sp)
    57a0:	01b787b3          	add	a5,a5,s11
    57a4:	00f50533          	add	a0,a0,a5
    57a8:	42755513          	srai	a0,a0,0x27
    57ac:	76a13423          	sd	a0,1896(sp)
    57b0:	00abc663          	blt	s7,a0,57bc <.LBB11_388>
    57b4:	f7f00513          	li	a0,-129
    57b8:	76a13423          	sd	a0,1896(sp)

00000000000057bc <.LBB11_388>:
    57bc:	0c813503          	ld	a0,200(sp)
    57c0:	03e50533          	mul	a0,a0,t5
    57c4:	0b013783          	ld	a5,176(sp)
    57c8:	01b787b3          	add	a5,a5,s11
    57cc:	00f50533          	add	a0,a0,a5
    57d0:	42755513          	srai	a0,a0,0x27
    57d4:	7aa13823          	sd	a0,1968(sp)
    57d8:	00abc663          	blt	s7,a0,57e4 <.LBB11_390>
    57dc:	f7f00513          	li	a0,-129
    57e0:	7aa13823          	sd	a0,1968(sp)

00000000000057e4 <.LBB11_390>:
    57e4:	13813503          	ld	a0,312(sp)
    57e8:	03e50533          	mul	a0,a0,t5
    57ec:	12013783          	ld	a5,288(sp)
    57f0:	01b787b3          	add	a5,a5,s11
    57f4:	00f50533          	add	a0,a0,a5
    57f8:	42755513          	srai	a0,a0,0x27
    57fc:	7aa13023          	sd	a0,1952(sp)
    5800:	00abc663          	blt	s7,a0,580c <.LBB11_392>
    5804:	f7f00513          	li	a0,-129
    5808:	7aa13023          	sd	a0,1952(sp)

000000000000580c <.LBB11_392>:
    580c:	1a813503          	ld	a0,424(sp)
    5810:	03e50533          	mul	a0,a0,t5
    5814:	19013783          	ld	a5,400(sp)
    5818:	01b787b3          	add	a5,a5,s11
    581c:	00f50533          	add	a0,a0,a5
    5820:	42755513          	srai	a0,a0,0x27
    5824:	78a13823          	sd	a0,1936(sp)
    5828:	00abc663          	blt	s7,a0,5834 <.LBB11_394>
    582c:	f7f00513          	li	a0,-129
    5830:	78a13823          	sd	a0,1936(sp)

0000000000005834 <.LBB11_394>:
    5834:	22013503          	ld	a0,544(sp)
    5838:	03e50533          	mul	a0,a0,t5
    583c:	20813783          	ld	a5,520(sp)
    5840:	01b787b3          	add	a5,a5,s11
    5844:	00f50533          	add	a0,a0,a5
    5848:	42755513          	srai	a0,a0,0x27
    584c:	78a13023          	sd	a0,1920(sp)
    5850:	00abc663          	blt	s7,a0,585c <.LBB11_396>
    5854:	f7f00513          	li	a0,-129
    5858:	78a13023          	sd	a0,1920(sp)

000000000000585c <.LBB11_396>:
    585c:	29013503          	ld	a0,656(sp)
    5860:	03e50533          	mul	a0,a0,t5
    5864:	27813783          	ld	a5,632(sp)
    5868:	01b787b3          	add	a5,a5,s11
    586c:	00f50533          	add	a0,a0,a5
    5870:	42755513          	srai	a0,a0,0x27
    5874:	76a13823          	sd	a0,1904(sp)
    5878:	00abc663          	blt	s7,a0,5884 <.LBB11_398>
    587c:	f7f00513          	li	a0,-129
    5880:	76a13823          	sd	a0,1904(sp)

0000000000005884 <.LBB11_398>:
    5884:	30813503          	ld	a0,776(sp)
    5888:	03e50533          	mul	a0,a0,t5
    588c:	2f013783          	ld	a5,752(sp)
    5890:	01b787b3          	add	a5,a5,s11
    5894:	00f50533          	add	a0,a0,a5
    5898:	42755513          	srai	a0,a0,0x27
    589c:	76a13023          	sd	a0,1888(sp)
    58a0:	00abc663          	blt	s7,a0,58ac <.LBB11_400>
    58a4:	f7f00513          	li	a0,-129
    58a8:	76a13023          	sd	a0,1888(sp)

00000000000058ac <.LBB11_400>:
    58ac:	38813503          	ld	a0,904(sp)
    58b0:	03e50533          	mul	a0,a0,t5
    58b4:	37013783          	ld	a5,880(sp)
    58b8:	01b787b3          	add	a5,a5,s11
    58bc:	00f50533          	add	a0,a0,a5
    58c0:	42755513          	srai	a0,a0,0x27
    58c4:	74a13c23          	sd	a0,1880(sp)
    58c8:	00abc663          	blt	s7,a0,58d4 <.LBB11_402>
    58cc:	f7f00513          	li	a0,-129
    58d0:	74a13c23          	sd	a0,1880(sp)

00000000000058d4 <.LBB11_402>:
    58d4:	40813503          	ld	a0,1032(sp)
    58d8:	03e50533          	mul	a0,a0,t5
    58dc:	3f013783          	ld	a5,1008(sp)
    58e0:	01b787b3          	add	a5,a5,s11
    58e4:	00f50533          	add	a0,a0,a5
    58e8:	42755513          	srai	a0,a0,0x27
    58ec:	74a13823          	sd	a0,1872(sp)
    58f0:	00abc663          	blt	s7,a0,58fc <.LBB11_404>
    58f4:	f7f00513          	li	a0,-129
    58f8:	74a13823          	sd	a0,1872(sp)

00000000000058fc <.LBB11_404>:
    58fc:	48813503          	ld	a0,1160(sp)
    5900:	03e50533          	mul	a0,a0,t5
    5904:	47013783          	ld	a5,1136(sp)
    5908:	01b787b3          	add	a5,a5,s11
    590c:	00f50533          	add	a0,a0,a5
    5910:	42755513          	srai	a0,a0,0x27
    5914:	74a13423          	sd	a0,1864(sp)
    5918:	00abc663          	blt	s7,a0,5924 <.LBB11_406>
    591c:	f7f00513          	li	a0,-129
    5920:	74a13423          	sd	a0,1864(sp)

0000000000005924 <.LBB11_406>:
    5924:	50813503          	ld	a0,1288(sp)
    5928:	03e50533          	mul	a0,a0,t5
    592c:	4f013783          	ld	a5,1264(sp)
    5930:	01b787b3          	add	a5,a5,s11
    5934:	00f50533          	add	a0,a0,a5
    5938:	42755513          	srai	a0,a0,0x27
    593c:	74a13023          	sd	a0,1856(sp)
    5940:	00abc663          	blt	s7,a0,594c <.LBB11_408>
    5944:	f7f00513          	li	a0,-129
    5948:	74a13023          	sd	a0,1856(sp)

000000000000594c <.LBB11_408>:
    594c:	66013503          	ld	a0,1632(sp)
    5950:	03e50533          	mul	a0,a0,t5
    5954:	64813783          	ld	a5,1608(sp)
    5958:	01b787b3          	add	a5,a5,s11
    595c:	00f50533          	add	a0,a0,a5
    5960:	42755513          	srai	a0,a0,0x27
    5964:	72a13c23          	sd	a0,1848(sp)
    5968:	00abc663          	blt	s7,a0,5974 <.LBB11_410>
    596c:	f7f00513          	li	a0,-129
    5970:	72a13c23          	sd	a0,1848(sp)

0000000000005974 <.LBB11_410>:
    5974:	72813503          	ld	a0,1832(sp)
    5978:	03e50533          	mul	a0,a0,t5
    597c:	6e813783          	ld	a5,1768(sp)
    5980:	01b787b3          	add	a5,a5,s11
    5984:	00f50533          	add	a0,a0,a5
    5988:	42755513          	srai	a0,a0,0x27
    598c:	72a13423          	sd	a0,1832(sp)
    5990:	00abc663          	blt	s7,a0,599c <.LBB11_412>
    5994:	f7f00513          	li	a0,-129
    5998:	72a13423          	sd	a0,1832(sp)

000000000000599c <.LBB11_412>:
    599c:	71813503          	ld	a0,1816(sp)
    59a0:	03e50533          	mul	a0,a0,t5
    59a4:	6f013783          	ld	a5,1776(sp)
    59a8:	01b787b3          	add	a5,a5,s11
    59ac:	00f50533          	add	a0,a0,a5
    59b0:	42755513          	srai	a0,a0,0x27
    59b4:	70a13c23          	sd	a0,1816(sp)
    59b8:	00abc663          	blt	s7,a0,59c4 <.LBB11_414>
    59bc:	f7f00513          	li	a0,-129
    59c0:	70a13c23          	sd	a0,1816(sp)

00000000000059c4 <.LBB11_414>:
    59c4:	70813503          	ld	a0,1800(sp)
    59c8:	03e50533          	mul	a0,a0,t5
    59cc:	6f813783          	ld	a5,1784(sp)
    59d0:	01b787b3          	add	a5,a5,s11
    59d4:	00f50533          	add	a0,a0,a5
    59d8:	42755513          	srai	a0,a0,0x27
    59dc:	70a13423          	sd	a0,1800(sp)
    59e0:	00abc663          	blt	s7,a0,59ec <.LBB11_416>
    59e4:	f7f00513          	li	a0,-129
    59e8:	70a13423          	sd	a0,1800(sp)

00000000000059ec <.LBB11_416>:
    59ec:	71013503          	ld	a0,1808(sp)
    59f0:	03e50533          	mul	a0,a0,t5
    59f4:	70013783          	ld	a5,1792(sp)
    59f8:	01b787b3          	add	a5,a5,s11
    59fc:	00f50533          	add	a0,a0,a5
    5a00:	42755513          	srai	a0,a0,0x27
    5a04:	6ea13c23          	sd	a0,1784(sp)
    5a08:	00abc663          	blt	s7,a0,5a14 <.LBB11_418>
    5a0c:	f7f00513          	li	a0,-129
    5a10:	6ea13c23          	sd	a0,1784(sp)

0000000000005a14 <.LBB11_418>:
    5a14:	73013503          	ld	a0,1840(sp)
    5a18:	03e50533          	mul	a0,a0,t5
    5a1c:	72013783          	ld	a5,1824(sp)
    5a20:	01b787b3          	add	a5,a5,s11
    5a24:	00f50533          	add	a0,a0,a5
    5a28:	42755513          	srai	a0,a0,0x27
    5a2c:	6ea13423          	sd	a0,1768(sp)
    5a30:	00abc663          	blt	s7,a0,5a3c <.LBB11_420>
    5a34:	f7f00513          	li	a0,-129
    5a38:	6ea13423          	sd	a0,1768(sp)

0000000000005a3c <.LBB11_420>:
    5a3c:	0b813503          	ld	a0,184(sp)
    5a40:	03e50533          	mul	a0,a0,t5
    5a44:	0a013783          	ld	a5,160(sp)
    5a48:	01b787b3          	add	a5,a5,s11
    5a4c:	00f50533          	add	a0,a0,a5
    5a50:	42755513          	srai	a0,a0,0x27
    5a54:	72a13823          	sd	a0,1840(sp)
    5a58:	00abc663          	blt	s7,a0,5a64 <.LBB11_422>
    5a5c:	f7f00513          	li	a0,-129
    5a60:	72a13823          	sd	a0,1840(sp)

0000000000005a64 <.LBB11_422>:
    5a64:	12813503          	ld	a0,296(sp)
    5a68:	03e50533          	mul	a0,a0,t5
    5a6c:	11013783          	ld	a5,272(sp)
    5a70:	01b787b3          	add	a5,a5,s11
    5a74:	00f50533          	add	a0,a0,a5
    5a78:	42755513          	srai	a0,a0,0x27
    5a7c:	72a13023          	sd	a0,1824(sp)
    5a80:	00abc663          	blt	s7,a0,5a8c <.LBB11_424>
    5a84:	f7f00513          	li	a0,-129
    5a88:	72a13023          	sd	a0,1824(sp)

0000000000005a8c <.LBB11_424>:
    5a8c:	19813503          	ld	a0,408(sp)
    5a90:	03e50533          	mul	a0,a0,t5
    5a94:	18013783          	ld	a5,384(sp)
    5a98:	01b787b3          	add	a5,a5,s11
    5a9c:	00f50533          	add	a0,a0,a5
    5aa0:	42755513          	srai	a0,a0,0x27
    5aa4:	70a13823          	sd	a0,1808(sp)
    5aa8:	00abc663          	blt	s7,a0,5ab4 <.LBB11_426>
    5aac:	f7f00513          	li	a0,-129
    5ab0:	70a13823          	sd	a0,1808(sp)

0000000000005ab4 <.LBB11_426>:
    5ab4:	21013503          	ld	a0,528(sp)
    5ab8:	03e50533          	mul	a0,a0,t5
    5abc:	1f813783          	ld	a5,504(sp)
    5ac0:	01b787b3          	add	a5,a5,s11
    5ac4:	00f50533          	add	a0,a0,a5
    5ac8:	42755513          	srai	a0,a0,0x27
    5acc:	70a13023          	sd	a0,1792(sp)
    5ad0:	00abc663          	blt	s7,a0,5adc <.LBB11_428>
    5ad4:	f7f00513          	li	a0,-129
    5ad8:	70a13023          	sd	a0,1792(sp)

0000000000005adc <.LBB11_428>:
    5adc:	28013503          	ld	a0,640(sp)
    5ae0:	03e50533          	mul	a0,a0,t5
    5ae4:	26813783          	ld	a5,616(sp)
    5ae8:	01b787b3          	add	a5,a5,s11
    5aec:	00f50533          	add	a0,a0,a5
    5af0:	42755513          	srai	a0,a0,0x27
    5af4:	6ea13823          	sd	a0,1776(sp)
    5af8:	00abc663          	blt	s7,a0,5b04 <.LBB11_430>
    5afc:	f7f00513          	li	a0,-129
    5b00:	6ea13823          	sd	a0,1776(sp)

0000000000005b04 <.LBB11_430>:
    5b04:	2f813503          	ld	a0,760(sp)
    5b08:	03e50533          	mul	a0,a0,t5
    5b0c:	2e013783          	ld	a5,736(sp)
    5b10:	01b787b3          	add	a5,a5,s11
    5b14:	00f50533          	add	a0,a0,a5
    5b18:	42755513          	srai	a0,a0,0x27
    5b1c:	6ea13023          	sd	a0,1760(sp)
    5b20:	00abc663          	blt	s7,a0,5b2c <.LBB11_432>
    5b24:	f7f00513          	li	a0,-129
    5b28:	6ea13023          	sd	a0,1760(sp)

0000000000005b2c <.LBB11_432>:
    5b2c:	37813503          	ld	a0,888(sp)
    5b30:	03e50533          	mul	a0,a0,t5
    5b34:	36013783          	ld	a5,864(sp)
    5b38:	01b787b3          	add	a5,a5,s11
    5b3c:	00f50533          	add	a0,a0,a5
    5b40:	42755513          	srai	a0,a0,0x27
    5b44:	6ca13c23          	sd	a0,1752(sp)
    5b48:	00abc663          	blt	s7,a0,5b54 <.LBB11_434>
    5b4c:	f7f00513          	li	a0,-129
    5b50:	6ca13c23          	sd	a0,1752(sp)

0000000000005b54 <.LBB11_434>:
    5b54:	3f813503          	ld	a0,1016(sp)
    5b58:	03e50533          	mul	a0,a0,t5
    5b5c:	3e013783          	ld	a5,992(sp)
    5b60:	01b787b3          	add	a5,a5,s11
    5b64:	00f50533          	add	a0,a0,a5
    5b68:	42755513          	srai	a0,a0,0x27
    5b6c:	6ca13823          	sd	a0,1744(sp)
    5b70:	00abc663          	blt	s7,a0,5b7c <.LBB11_436>
    5b74:	f7f00513          	li	a0,-129
    5b78:	6ca13823          	sd	a0,1744(sp)

0000000000005b7c <.LBB11_436>:
    5b7c:	47813503          	ld	a0,1144(sp)
    5b80:	03e50533          	mul	a0,a0,t5
    5b84:	46013783          	ld	a5,1120(sp)
    5b88:	01b787b3          	add	a5,a5,s11
    5b8c:	00f50533          	add	a0,a0,a5
    5b90:	42755513          	srai	a0,a0,0x27
    5b94:	6ca13423          	sd	a0,1736(sp)
    5b98:	00abc663          	blt	s7,a0,5ba4 <.LBB11_438>
    5b9c:	f7f00513          	li	a0,-129
    5ba0:	6ca13423          	sd	a0,1736(sp)

0000000000005ba4 <.LBB11_438>:
    5ba4:	4f813503          	ld	a0,1272(sp)
    5ba8:	03e50533          	mul	a0,a0,t5
    5bac:	4e013783          	ld	a5,1248(sp)
    5bb0:	01b787b3          	add	a5,a5,s11
    5bb4:	00f50533          	add	a0,a0,a5
    5bb8:	42755513          	srai	a0,a0,0x27
    5bbc:	6ca13023          	sd	a0,1728(sp)
    5bc0:	00abc663          	blt	s7,a0,5bcc <.LBB11_440>
    5bc4:	f7f00513          	li	a0,-129
    5bc8:	6ca13023          	sd	a0,1728(sp)

0000000000005bcc <.LBB11_440>:
    5bcc:	65013503          	ld	a0,1616(sp)
    5bd0:	03e50533          	mul	a0,a0,t5
    5bd4:	64013783          	ld	a5,1600(sp)
    5bd8:	01b787b3          	add	a5,a5,s11
    5bdc:	00f50533          	add	a0,a0,a5
    5be0:	42755513          	srai	a0,a0,0x27
    5be4:	6aa13c23          	sd	a0,1720(sp)
    5be8:	00abc663          	blt	s7,a0,5bf4 <.LBB11_442>
    5bec:	f7f00513          	li	a0,-129
    5bf0:	6aa13c23          	sd	a0,1720(sp)

0000000000005bf4 <.LBB11_442>:
    5bf4:	6a813503          	ld	a0,1704(sp)
    5bf8:	03e50533          	mul	a0,a0,t5
    5bfc:	66813783          	ld	a5,1640(sp)
    5c00:	01b787b3          	add	a5,a5,s11
    5c04:	00f50533          	add	a0,a0,a5
    5c08:	42755513          	srai	a0,a0,0x27
    5c0c:	6aa13423          	sd	a0,1704(sp)
    5c10:	00abc663          	blt	s7,a0,5c1c <.LBB11_444>
    5c14:	f7f00513          	li	a0,-129
    5c18:	6aa13423          	sd	a0,1704(sp)

0000000000005c1c <.LBB11_444>:
    5c1c:	69813503          	ld	a0,1688(sp)
    5c20:	03e50533          	mul	a0,a0,t5
    5c24:	67013783          	ld	a5,1648(sp)
    5c28:	01b787b3          	add	a5,a5,s11
    5c2c:	00f50533          	add	a0,a0,a5
    5c30:	42755513          	srai	a0,a0,0x27
    5c34:	68a13c23          	sd	a0,1688(sp)
    5c38:	00abc663          	blt	s7,a0,5c44 <.LBB11_446>
    5c3c:	f7f00513          	li	a0,-129
    5c40:	68a13c23          	sd	a0,1688(sp)

0000000000005c44 <.LBB11_446>:
    5c44:	68813503          	ld	a0,1672(sp)
    5c48:	03e50533          	mul	a0,a0,t5
    5c4c:	67813783          	ld	a5,1656(sp)
    5c50:	01b787b3          	add	a5,a5,s11
    5c54:	00f50533          	add	a0,a0,a5
    5c58:	42755513          	srai	a0,a0,0x27
    5c5c:	68a13423          	sd	a0,1672(sp)
    5c60:	00abc663          	blt	s7,a0,5c6c <.LBB11_448>
    5c64:	f7f00513          	li	a0,-129
    5c68:	68a13423          	sd	a0,1672(sp)

0000000000005c6c <.LBB11_448>:
    5c6c:	69013503          	ld	a0,1680(sp)
    5c70:	03e50533          	mul	a0,a0,t5
    5c74:	68013783          	ld	a5,1664(sp)
    5c78:	01b787b3          	add	a5,a5,s11
    5c7c:	00f50533          	add	a0,a0,a5
    5c80:	42755513          	srai	a0,a0,0x27
    5c84:	66a13c23          	sd	a0,1656(sp)
    5c88:	00abc663          	blt	s7,a0,5c94 <.LBB11_450>
    5c8c:	f7f00513          	li	a0,-129
    5c90:	66a13c23          	sd	a0,1656(sp)

0000000000005c94 <.LBB11_450>:
    5c94:	6b013503          	ld	a0,1712(sp)
    5c98:	03e50533          	mul	a0,a0,t5
    5c9c:	6a013783          	ld	a5,1696(sp)
    5ca0:	01b787b3          	add	a5,a5,s11
    5ca4:	00f50533          	add	a0,a0,a5
    5ca8:	42755513          	srai	a0,a0,0x27
    5cac:	66a13423          	sd	a0,1640(sp)
    5cb0:	00abc663          	blt	s7,a0,5cbc <.LBB11_452>
    5cb4:	f7f00513          	li	a0,-129
    5cb8:	66a13423          	sd	a0,1640(sp)

0000000000005cbc <.LBB11_452>:
    5cbc:	0a813503          	ld	a0,168(sp)
    5cc0:	03e50533          	mul	a0,a0,t5
    5cc4:	09813783          	ld	a5,152(sp)
    5cc8:	01b787b3          	add	a5,a5,s11
    5ccc:	00f50533          	add	a0,a0,a5
    5cd0:	42755513          	srai	a0,a0,0x27
    5cd4:	6aa13823          	sd	a0,1712(sp)
    5cd8:	00abc663          	blt	s7,a0,5ce4 <.LBB11_454>
    5cdc:	f7f00513          	li	a0,-129
    5ce0:	6aa13823          	sd	a0,1712(sp)

0000000000005ce4 <.LBB11_454>:
    5ce4:	11813503          	ld	a0,280(sp)
    5ce8:	03e50533          	mul	a0,a0,t5
    5cec:	10813783          	ld	a5,264(sp)
    5cf0:	01b787b3          	add	a5,a5,s11
    5cf4:	00f50533          	add	a0,a0,a5
    5cf8:	42755513          	srai	a0,a0,0x27
    5cfc:	6aa13023          	sd	a0,1696(sp)
    5d00:	00abc663          	blt	s7,a0,5d0c <.LBB11_456>
    5d04:	f7f00513          	li	a0,-129
    5d08:	6aa13023          	sd	a0,1696(sp)

0000000000005d0c <.LBB11_456>:
    5d0c:	18813503          	ld	a0,392(sp)
    5d10:	03e50533          	mul	a0,a0,t5
    5d14:	17813783          	ld	a5,376(sp)
    5d18:	01b787b3          	add	a5,a5,s11
    5d1c:	00f50533          	add	a0,a0,a5
    5d20:	42755513          	srai	a0,a0,0x27
    5d24:	68a13823          	sd	a0,1680(sp)
    5d28:	00abc663          	blt	s7,a0,5d34 <.LBB11_458>
    5d2c:	f7f00513          	li	a0,-129
    5d30:	68a13823          	sd	a0,1680(sp)

0000000000005d34 <.LBB11_458>:
    5d34:	20013503          	ld	a0,512(sp)
    5d38:	03e50533          	mul	a0,a0,t5
    5d3c:	1f013783          	ld	a5,496(sp)
    5d40:	01b787b3          	add	a5,a5,s11
    5d44:	00f50533          	add	a0,a0,a5
    5d48:	42755513          	srai	a0,a0,0x27
    5d4c:	68a13023          	sd	a0,1664(sp)
    5d50:	00abc663          	blt	s7,a0,5d5c <.LBB11_460>
    5d54:	f7f00513          	li	a0,-129
    5d58:	68a13023          	sd	a0,1664(sp)

0000000000005d5c <.LBB11_460>:
    5d5c:	27013503          	ld	a0,624(sp)
    5d60:	03e50533          	mul	a0,a0,t5
    5d64:	26013783          	ld	a5,608(sp)
    5d68:	01b787b3          	add	a5,a5,s11
    5d6c:	00f50533          	add	a0,a0,a5
    5d70:	42755513          	srai	a0,a0,0x27
    5d74:	66a13823          	sd	a0,1648(sp)
    5d78:	00abc663          	blt	s7,a0,5d84 <.LBB11_462>
    5d7c:	f7f00513          	li	a0,-129
    5d80:	66a13823          	sd	a0,1648(sp)

0000000000005d84 <.LBB11_462>:
    5d84:	2e813503          	ld	a0,744(sp)
    5d88:	03e50533          	mul	a0,a0,t5
    5d8c:	2d813783          	ld	a5,728(sp)
    5d90:	01b787b3          	add	a5,a5,s11
    5d94:	00f50533          	add	a0,a0,a5
    5d98:	42755513          	srai	a0,a0,0x27
    5d9c:	66a13023          	sd	a0,1632(sp)
    5da0:	00abc663          	blt	s7,a0,5dac <.LBB11_464>
    5da4:	f7f00513          	li	a0,-129
    5da8:	66a13023          	sd	a0,1632(sp)

0000000000005dac <.LBB11_464>:
    5dac:	36813503          	ld	a0,872(sp)
    5db0:	03e50533          	mul	a0,a0,t5
    5db4:	35013783          	ld	a5,848(sp)
    5db8:	01b787b3          	add	a5,a5,s11
    5dbc:	00f50533          	add	a0,a0,a5
    5dc0:	42755513          	srai	a0,a0,0x27
    5dc4:	64a13c23          	sd	a0,1624(sp)
    5dc8:	00abc663          	blt	s7,a0,5dd4 <.LBB11_466>
    5dcc:	f7f00513          	li	a0,-129
    5dd0:	64a13c23          	sd	a0,1624(sp)

0000000000005dd4 <.LBB11_466>:
    5dd4:	3e813503          	ld	a0,1000(sp)
    5dd8:	03e50533          	mul	a0,a0,t5
    5ddc:	3d013783          	ld	a5,976(sp)
    5de0:	01b787b3          	add	a5,a5,s11
    5de4:	00f50533          	add	a0,a0,a5
    5de8:	42755513          	srai	a0,a0,0x27
    5dec:	64a13823          	sd	a0,1616(sp)
    5df0:	00abc663          	blt	s7,a0,5dfc <.LBB11_468>
    5df4:	f7f00513          	li	a0,-129
    5df8:	64a13823          	sd	a0,1616(sp)

0000000000005dfc <.LBB11_468>:
    5dfc:	46813503          	ld	a0,1128(sp)
    5e00:	03e50533          	mul	a0,a0,t5
    5e04:	45013783          	ld	a5,1104(sp)
    5e08:	01b787b3          	add	a5,a5,s11
    5e0c:	00f50533          	add	a0,a0,a5
    5e10:	42755513          	srai	a0,a0,0x27
    5e14:	64a13423          	sd	a0,1608(sp)
    5e18:	00abc663          	blt	s7,a0,5e24 <.LBB11_470>
    5e1c:	f7f00513          	li	a0,-129
    5e20:	64a13423          	sd	a0,1608(sp)

0000000000005e24 <.LBB11_470>:
    5e24:	4e813503          	ld	a0,1256(sp)
    5e28:	03e50533          	mul	a0,a0,t5
    5e2c:	4d013783          	ld	a5,1232(sp)
    5e30:	01b787b3          	add	a5,a5,s11
    5e34:	00f50533          	add	a0,a0,a5
    5e38:	42755513          	srai	a0,a0,0x27
    5e3c:	64a13023          	sd	a0,1600(sp)
    5e40:	00abc663          	blt	s7,a0,5e4c <.LBB11_472>
    5e44:	f7f00513          	li	a0,-129
    5e48:	64a13023          	sd	a0,1600(sp)

0000000000005e4c <.LBB11_472>:
    5e4c:	63813503          	ld	a0,1592(sp)
    5e50:	03e50533          	mul	a0,a0,t5
    5e54:	58013783          	ld	a5,1408(sp)
    5e58:	01b787b3          	add	a5,a5,s11
    5e5c:	00f50533          	add	a0,a0,a5
    5e60:	42755513          	srai	a0,a0,0x27
    5e64:	62a13c23          	sd	a0,1592(sp)
    5e68:	00abc663          	blt	s7,a0,5e74 <.LBB11_474>
    5e6c:	f7f00513          	li	a0,-129
    5e70:	62a13c23          	sd	a0,1592(sp)

0000000000005e74 <.LBB11_474>:
    5e74:	62813503          	ld	a0,1576(sp)
    5e78:	03e50533          	mul	a0,a0,t5
    5e7c:	59813783          	ld	a5,1432(sp)
    5e80:	01b787b3          	add	a5,a5,s11
    5e84:	00f50533          	add	a0,a0,a5
    5e88:	42755513          	srai	a0,a0,0x27
    5e8c:	62a13423          	sd	a0,1576(sp)
    5e90:	00abc663          	blt	s7,a0,5e9c <.LBB11_476>
    5e94:	f7f00513          	li	a0,-129
    5e98:	62a13423          	sd	a0,1576(sp)

0000000000005e9c <.LBB11_476>:
    5e9c:	61813503          	ld	a0,1560(sp)
    5ea0:	03e50533          	mul	a0,a0,t5
    5ea4:	5b013783          	ld	a5,1456(sp)
    5ea8:	01b787b3          	add	a5,a5,s11
    5eac:	00f50533          	add	a0,a0,a5
    5eb0:	42755513          	srai	a0,a0,0x27
    5eb4:	60a13c23          	sd	a0,1560(sp)
    5eb8:	00abc663          	blt	s7,a0,5ec4 <.LBB11_478>
    5ebc:	f7f00513          	li	a0,-129
    5ec0:	60a13c23          	sd	a0,1560(sp)

0000000000005ec4 <.LBB11_478>:
    5ec4:	60813503          	ld	a0,1544(sp)
    5ec8:	03e50533          	mul	a0,a0,t5
    5ecc:	5c813783          	ld	a5,1480(sp)
    5ed0:	01b787b3          	add	a5,a5,s11
    5ed4:	00f50533          	add	a0,a0,a5
    5ed8:	42755513          	srai	a0,a0,0x27
    5edc:	60a13423          	sd	a0,1544(sp)
    5ee0:	00abc663          	blt	s7,a0,5eec <.LBB11_480>
    5ee4:	f7f00513          	li	a0,-129
    5ee8:	60a13423          	sd	a0,1544(sp)

0000000000005eec <.LBB11_480>:
    5eec:	61013503          	ld	a0,1552(sp)
    5ef0:	03e50533          	mul	a0,a0,t5
    5ef4:	60013783          	ld	a5,1536(sp)
    5ef8:	01b787b3          	add	a5,a5,s11
    5efc:	00f50533          	add	a0,a0,a5
    5f00:	42755c13          	srai	s8,a0,0x27
    5f04:	018bc463          	blt	s7,s8,5f0c <.LBB11_482>
    5f08:	f7f00c13          	li	s8,-129

0000000000005f0c <.LBB11_482>:
    5f0c:	63013503          	ld	a0,1584(sp)
    5f10:	03e50533          	mul	a0,a0,t5
    5f14:	62013783          	ld	a5,1568(sp)
    5f18:	01b787b3          	add	a5,a5,s11
    5f1c:	00f50533          	add	a0,a0,a5
    5f20:	42755513          	srai	a0,a0,0x27
    5f24:	00abc463          	blt	s7,a0,5f2c <.LBB11_484>
    5f28:	f7f00513          	li	a0,-129

0000000000005f2c <.LBB11_484>:
    5f2c:	03e686b3          	mul	a3,a3,t5
    5f30:	01b887b3          	add	a5,a7,s11
    5f34:	00f686b3          	add	a3,a3,a5
    5f38:	4276d693          	srai	a3,a3,0x27
    5f3c:	00dbc463          	blt	s7,a3,5f44 <.LBB11_486>
    5f40:	f7f00693          	li	a3,-129

0000000000005f44 <.LBB11_486>:
    5f44:	62d13823          	sd	a3,1584(sp)
    5f48:	03e706b3          	mul	a3,a4,t5
    5f4c:	01b30333          	add	t1,t1,s11
    5f50:	006686b3          	add	a3,a3,t1
    5f54:	4276d693          	srai	a3,a3,0x27
    5f58:	62d13023          	sd	a3,1568(sp)
    5f5c:	00dbc663          	blt	s7,a3,5f68 <.LBB11_488>
    5f60:	f7f00693          	li	a3,-129
    5f64:	62d13023          	sd	a3,1568(sp)

0000000000005f68 <.LBB11_488>:
    5f68:	03e60633          	mul	a2,a2,t5
    5f6c:	01b282b3          	add	t0,t0,s11
    5f70:	00560633          	add	a2,a2,t0
    5f74:	42765613          	srai	a2,a2,0x27
    5f78:	60c13823          	sd	a2,1552(sp)
    5f7c:	00cbc663          	blt	s7,a2,5f88 <.LBB11_490>
    5f80:	f7f00613          	li	a2,-129
    5f84:	60c13823          	sd	a2,1552(sp)

0000000000005f88 <.LBB11_490>:
    5f88:	03e80633          	mul	a2,a6,t5
    5f8c:	1e813683          	ld	a3,488(sp)
    5f90:	01b686b3          	add	a3,a3,s11
    5f94:	00d60633          	add	a2,a2,a3
    5f98:	42765613          	srai	a2,a2,0x27
    5f9c:	60c13023          	sd	a2,1536(sp)
    5fa0:	00cbc663          	blt	s7,a2,5fac <.LBB11_492>
    5fa4:	f7f00613          	li	a2,-129
    5fa8:	60c13023          	sd	a2,1536(sp)

0000000000005fac <.LBB11_492>:
    5fac:	03e585b3          	mul	a1,a1,t5
    5fb0:	01bc8633          	add	a2,s9,s11
    5fb4:	00c585b3          	add	a1,a1,a2
    5fb8:	4275dc93          	srai	s9,a1,0x27
    5fbc:	019bc463          	blt	s7,s9,5fc4 <.LBB11_494>
    5fc0:	f7f00c93          	li	s9,-129

0000000000005fc4 <.LBB11_494>:
    5fc4:	03ee05b3          	mul	a1,t3,t5
    5fc8:	2d013603          	ld	a2,720(sp)
    5fcc:	01b60633          	add	a2,a2,s11
    5fd0:	00c585b3          	add	a1,a1,a2
    5fd4:	4275d593          	srai	a1,a1,0x27
    5fd8:	00bbc463          	blt	s7,a1,5fe0 <.LBB11_496>
    5fdc:	f7f00593          	li	a1,-129

0000000000005fe0 <.LBB11_496>:
    5fe0:	35813603          	ld	a2,856(sp)
    5fe4:	03e60633          	mul	a2,a2,t5
    5fe8:	34813703          	ld	a4,840(sp)
    5fec:	01b70733          	add	a4,a4,s11
    5ff0:	00e60633          	add	a2,a2,a4
    5ff4:	42765613          	srai	a2,a2,0x27
    5ff8:	00cbc463          	blt	s7,a2,6000 <.LBB11_498>
    5ffc:	f7f00613          	li	a2,-129

0000000000006000 <.LBB11_498>:
    6000:	3d813683          	ld	a3,984(sp)
    6004:	03e68733          	mul	a4,a3,t5
    6008:	3c813783          	ld	a5,968(sp)
    600c:	01b787b3          	add	a5,a5,s11
    6010:	00f70733          	add	a4,a4,a5
    6014:	42775713          	srai	a4,a4,0x27
    6018:	00ebc463          	blt	s7,a4,6020 <.LBB11_500>
    601c:	f7f00713          	li	a4,-129

0000000000006020 <.LBB11_500>:
    6020:	45813683          	ld	a3,1112(sp)
    6024:	03e687b3          	mul	a5,a3,t5
    6028:	44813803          	ld	a6,1096(sp)
    602c:	01b80833          	add	a6,a6,s11
    6030:	010787b3          	add	a5,a5,a6
    6034:	4277d793          	srai	a5,a5,0x27
    6038:	00fbc463          	blt	s7,a5,6040 <.LBB11_502>
    603c:	f7f00793          	li	a5,-129

0000000000006040 <.LBB11_502>:
    6040:	4d813683          	ld	a3,1240(sp)
    6044:	03e68833          	mul	a6,a3,t5
    6048:	4c813883          	ld	a7,1224(sp)
    604c:	01b888b3          	add	a7,a7,s11
    6050:	01180833          	add	a6,a6,a7
    6054:	42785813          	srai	a6,a6,0x27
    6058:	010bc463          	blt	s7,a6,6060 <.LBB11_504>
    605c:	f7f00813          	li	a6,-129

0000000000006060 <.LBB11_504>:
    6060:	58813683          	ld	a3,1416(sp)
    6064:	03e688b3          	mul	a7,a3,t5
    6068:	57813283          	ld	t0,1400(sp)
    606c:	01b282b3          	add	t0,t0,s11
    6070:	005888b3          	add	a7,a7,t0
    6074:	4278d293          	srai	t0,a7,0x27
    6078:	005bc463          	blt	s7,t0,6080 <.LBB11_506>
    607c:	f7f00293          	li	t0,-129

0000000000006080 <.LBB11_506>:
    6080:	5a013683          	ld	a3,1440(sp)
    6084:	03e688b3          	mul	a7,a3,t5
    6088:	59013303          	ld	t1,1424(sp)
    608c:	01b30333          	add	t1,t1,s11
    6090:	006888b3          	add	a7,a7,t1
    6094:	4278d313          	srai	t1,a7,0x27
    6098:	006bc463          	blt	s7,t1,60a0 <.LBB11_508>
    609c:	f7f00313          	li	t1,-129

00000000000060a0 <.LBB11_508>:
    60a0:	5b813683          	ld	a3,1464(sp)
    60a4:	03e688b3          	mul	a7,a3,t5
    60a8:	5a813383          	ld	t2,1448(sp)
    60ac:	01b383b3          	add	t2,t2,s11
    60b0:	007888b3          	add	a7,a7,t2
    60b4:	4278d393          	srai	t2,a7,0x27
    60b8:	007bc463          	blt	s7,t2,60c0 <.LBB11_510>
    60bc:	f7f00393          	li	t2,-129

00000000000060c0 <.LBB11_510>:
    60c0:	5d013683          	ld	a3,1488(sp)
    60c4:	03e688b3          	mul	a7,a3,t5
    60c8:	5c013e03          	ld	t3,1472(sp)
    60cc:	01be0e33          	add	t3,t3,s11
    60d0:	01c888b3          	add	a7,a7,t3
    60d4:	4278de13          	srai	t3,a7,0x27
    60d8:	01cbc463          	blt	s7,t3,60e0 <.LBB11_512>
    60dc:	f7f00e13          	li	t3,-129

00000000000060e0 <.LBB11_512>:
    60e0:	5e013683          	ld	a3,1504(sp)
    60e4:	03e688b3          	mul	a7,a3,t5
    60e8:	5d813e83          	ld	t4,1496(sp)
    60ec:	01be8eb3          	add	t4,t4,s11
    60f0:	01d888b3          	add	a7,a7,t4
    60f4:	4278de93          	srai	t4,a7,0x27
    60f8:	01dbc463          	blt	s7,t4,6100 <.LBB11_514>
    60fc:	f7f00e93          	li	t4,-129

0000000000006100 <.LBB11_514>:
    6100:	5f013683          	ld	a3,1520(sp)
    6104:	03e688b3          	mul	a7,a3,t5
    6108:	5e813f03          	ld	t5,1512(sp)
    610c:	01bf0f33          	add	t5,t5,s11
    6110:	01e888b3          	add	a7,a7,t5
    6114:	4278df13          	srai	t5,a7,0x27
    6118:	51ebda63          	bge	s7,t5,662c <.LBB11_643>
    611c:	07e00893          	li	a7,126
    6120:	5f813b83          	ld	s7,1528(sp)
    6124:	511bdc63          	bge	s7,a7,663c <.LBB11_644>

0000000000006128 <.LBB11_516>:
    6128:	000016b7          	lui	a3,0x1
    612c:	00d106b3          	add	a3,sp,a3
    6130:	8f06b683          	ld	a3,-1808(a3) # 8f0 <.LBB11_2+0xa0>
    6134:	5116de63          	bge	a3,a7,6650 <.LBB11_645>

0000000000006138 <.LBB11_517>:
    6138:	000016b7          	lui	a3,0x1
    613c:	00d106b3          	add	a3,sp,a3
    6140:	9006b683          	ld	a3,-1792(a3) # 900 <.LBB11_2+0xb0>
    6144:	5316d663          	bge	a3,a7,6670 <.LBB11_646>

0000000000006148 <.LBB11_518>:
    6148:	000016b7          	lui	a3,0x1
    614c:	00d106b3          	add	a3,sp,a3
    6150:	9106b683          	ld	a3,-1776(a3) # 910 <.LBB11_2+0xc0>
    6154:	5316de63          	bge	a3,a7,6690 <.LBB11_647>

0000000000006158 <.LBB11_519>:
    6158:	000016b7          	lui	a3,0x1
    615c:	00d106b3          	add	a3,sp,a3
    6160:	9206b683          	ld	a3,-1760(a3) # 920 <.LBB11_2+0xd0>
    6164:	5516d663          	bge	a3,a7,66b0 <.LBB11_648>

0000000000006168 <.LBB11_520>:
    6168:	000016b7          	lui	a3,0x1
    616c:	00d106b3          	add	a3,sp,a3
    6170:	9306b683          	ld	a3,-1744(a3) # 930 <.LBB11_2+0xe0>
    6174:	5516de63          	bge	a3,a7,66d0 <.LBB11_649>

0000000000006178 <.LBB11_521>:
    6178:	000016b7          	lui	a3,0x1
    617c:	00d106b3          	add	a3,sp,a3
    6180:	9386b683          	ld	a3,-1736(a3) # 938 <.LBB11_2+0xe8>
    6184:	5716d663          	bge	a3,a7,66f0 <.LBB11_650>

0000000000006188 <.LBB11_522>:
    6188:	571b5e63          	bge	s6,a7,6704 <.LBB11_651>

000000000000618c <.LBB11_523>:
    618c:	591ad063          	bge	s5,a7,670c <.LBB11_652>

0000000000006190 <.LBB11_524>:
    6190:	591a5263          	bge	s4,a7,6714 <.LBB11_653>

0000000000006194 <.LBB11_525>:
    6194:	5919d463          	bge	s3,a7,671c <.LBB11_654>

0000000000006198 <.LBB11_526>:
    6198:	591d5663          	bge	s10,a7,6724 <.LBB11_655>

000000000000619c <.LBB11_527>:
    619c:	59195863          	bge	s2,a7,672c <.LBB11_656>

00000000000061a0 <.LBB11_528>:
    61a0:	5914da63          	bge	s1,a7,6734 <.LBB11_657>

00000000000061a4 <.LBB11_529>:
    61a4:	591fdc63          	bge	t6,a7,673c <.LBB11_658>

00000000000061a8 <.LBB11_530>:
    61a8:	5910de63          	bge	ra,a7,6744 <.LBB11_659>

00000000000061ac <.LBB11_531>:
    61ac:	000016b7          	lui	a3,0x1
    61b0:	00d106b3          	add	a3,sp,a3
    61b4:	8686b683          	ld	a3,-1944(a3) # 868 <.LBB11_2+0x18>
    61b8:	5b16d063          	bge	a3,a7,6758 <.LBB11_660>

00000000000061bc <.LBB11_532>:
    61bc:	000016b7          	lui	a3,0x1
    61c0:	00d106b3          	add	a3,sp,a3
    61c4:	8786b683          	ld	a3,-1928(a3) # 878 <.LBB11_2+0x28>
    61c8:	5b16d863          	bge	a3,a7,6778 <.LBB11_661>

00000000000061cc <.LBB11_533>:
    61cc:	000016b7          	lui	a3,0x1
    61d0:	00d106b3          	add	a3,sp,a3
    61d4:	8886b683          	ld	a3,-1912(a3) # 888 <.LBB11_2+0x38>
    61d8:	5d16d063          	bge	a3,a7,6798 <.LBB11_662>

00000000000061dc <.LBB11_534>:
    61dc:	000016b7          	lui	a3,0x1
    61e0:	00d106b3          	add	a3,sp,a3
    61e4:	8986b683          	ld	a3,-1896(a3) # 898 <.LBB11_2+0x48>
    61e8:	5d16d863          	bge	a3,a7,67b8 <.LBB11_663>

00000000000061ec <.LBB11_535>:
    61ec:	000016b7          	lui	a3,0x1
    61f0:	00d106b3          	add	a3,sp,a3
    61f4:	8a86b683          	ld	a3,-1880(a3) # 8a8 <.LBB11_2+0x58>
    61f8:	5f16d063          	bge	a3,a7,67d8 <.LBB11_664>

00000000000061fc <.LBB11_536>:
    61fc:	000016b7          	lui	a3,0x1
    6200:	00d106b3          	add	a3,sp,a3
    6204:	8b86b683          	ld	a3,-1864(a3) # 8b8 <.LBB11_2+0x68>
    6208:	5f16d863          	bge	a3,a7,67f8 <.LBB11_665>

000000000000620c <.LBB11_537>:
    620c:	000016b7          	lui	a3,0x1
    6210:	00d106b3          	add	a3,sp,a3
    6214:	8c06b683          	ld	a3,-1856(a3) # 8c0 <.LBB11_2+0x70>
    6218:	6116d063          	bge	a3,a7,6818 <.LBB11_666>

000000000000621c <.LBB11_538>:
    621c:	000016b7          	lui	a3,0x1
    6220:	00d106b3          	add	a3,sp,a3
    6224:	8c86b683          	ld	a3,-1848(a3) # 8c8 <.LBB11_2+0x78>
    6228:	6116d863          	bge	a3,a7,6838 <.LBB11_667>

000000000000622c <.LBB11_539>:
    622c:	000016b7          	lui	a3,0x1
    6230:	00d106b3          	add	a3,sp,a3
    6234:	8d06b683          	ld	a3,-1840(a3) # 8d0 <.LBB11_2+0x80>
    6238:	6316d063          	bge	a3,a7,6858 <.LBB11_668>

000000000000623c <.LBB11_540>:
    623c:	000016b7          	lui	a3,0x1
    6240:	00d106b3          	add	a3,sp,a3
    6244:	8d86b683          	ld	a3,-1832(a3) # 8d8 <.LBB11_2+0x88>
    6248:	6316d863          	bge	a3,a7,6878 <.LBB11_669>

000000000000624c <.LBB11_541>:
    624c:	000016b7          	lui	a3,0x1
    6250:	00d106b3          	add	a3,sp,a3
    6254:	8e06b683          	ld	a3,-1824(a3) # 8e0 <.LBB11_2+0x90>
    6258:	6516d063          	bge	a3,a7,6898 <.LBB11_670>

000000000000625c <.LBB11_542>:
    625c:	000016b7          	lui	a3,0x1
    6260:	00d106b3          	add	a3,sp,a3
    6264:	8e86b683          	ld	a3,-1816(a3) # 8e8 <.LBB11_2+0x98>
    6268:	6516d863          	bge	a3,a7,68b8 <.LBB11_671>

000000000000626c <.LBB11_543>:
    626c:	000016b7          	lui	a3,0x1
    6270:	00d106b3          	add	a3,sp,a3
    6274:	8f86b683          	ld	a3,-1800(a3) # 8f8 <.LBB11_2+0xa8>
    6278:	6716d063          	bge	a3,a7,68d8 <.LBB11_672>

000000000000627c <.LBB11_544>:
    627c:	000016b7          	lui	a3,0x1
    6280:	00d106b3          	add	a3,sp,a3
    6284:	9086b683          	ld	a3,-1784(a3) # 908 <.LBB11_2+0xb8>
    6288:	6716d863          	bge	a3,a7,68f8 <.LBB11_673>

000000000000628c <.LBB11_545>:
    628c:	000016b7          	lui	a3,0x1
    6290:	00d106b3          	add	a3,sp,a3
    6294:	9186b683          	ld	a3,-1768(a3) # 918 <.LBB11_2+0xc8>
    6298:	6916d063          	bge	a3,a7,6918 <.LBB11_674>

000000000000629c <.LBB11_546>:
    629c:	000016b7          	lui	a3,0x1
    62a0:	00d106b3          	add	a3,sp,a3
    62a4:	9286b683          	ld	a3,-1752(a3) # 928 <.LBB11_2+0xd8>
    62a8:	6916d863          	bge	a3,a7,6938 <.LBB11_675>

00000000000062ac <.LBB11_547>:
    62ac:	7e813683          	ld	a3,2024(sp)
    62b0:	6b16d063          	bge	a3,a7,6950 <.LBB11_676>

00000000000062b4 <.LBB11_548>:
    62b4:	7f813683          	ld	a3,2040(sp)
    62b8:	6b16d463          	bge	a3,a7,6960 <.LBB11_677>

00000000000062bc <.LBB11_549>:
    62bc:	000016b7          	lui	a3,0x1
    62c0:	00d106b3          	add	a3,sp,a3
    62c4:	8086b683          	ld	a3,-2040(a3) # 808 <.LBB11_1+0x6cc>
    62c8:	6b16d863          	bge	a3,a7,6978 <.LBB11_678>

00000000000062cc <.LBB11_550>:
    62cc:	000016b7          	lui	a3,0x1
    62d0:	00d106b3          	add	a3,sp,a3
    62d4:	8186b683          	ld	a3,-2024(a3) # 818 <.LBB11_1+0x6dc>
    62d8:	6d16d063          	bge	a3,a7,6998 <.LBB11_679>

00000000000062dc <.LBB11_551>:
    62dc:	000016b7          	lui	a3,0x1
    62e0:	00d106b3          	add	a3,sp,a3
    62e4:	8286b683          	ld	a3,-2008(a3) # 828 <.LBB11_1+0x6ec>
    62e8:	6d16d863          	bge	a3,a7,69b8 <.LBB11_680>

00000000000062ec <.LBB11_552>:
    62ec:	000016b7          	lui	a3,0x1
    62f0:	00d106b3          	add	a3,sp,a3
    62f4:	8386b683          	ld	a3,-1992(a3) # 838 <.LBB11_1+0x6fc>
    62f8:	6f16d063          	bge	a3,a7,69d8 <.LBB11_681>

00000000000062fc <.LBB11_553>:
    62fc:	000016b7          	lui	a3,0x1
    6300:	00d106b3          	add	a3,sp,a3
    6304:	8406b683          	ld	a3,-1984(a3) # 840 <.LBB11_1+0x704>
    6308:	6f16d863          	bge	a3,a7,69f8 <.LBB11_682>

000000000000630c <.LBB11_554>:
    630c:	000016b7          	lui	a3,0x1
    6310:	00d106b3          	add	a3,sp,a3
    6314:	8486b683          	ld	a3,-1976(a3) # 848 <.LBB11_1+0x70c>
    6318:	7116d063          	bge	a3,a7,6a18 <.LBB11_683>

000000000000631c <.LBB11_555>:
    631c:	000016b7          	lui	a3,0x1
    6320:	00d106b3          	add	a3,sp,a3
    6324:	8506b683          	ld	a3,-1968(a3) # 850 <.LBB11_2>
    6328:	7116d863          	bge	a3,a7,6a38 <.LBB11_684>

000000000000632c <.LBB11_556>:
    632c:	000016b7          	lui	a3,0x1
    6330:	00d106b3          	add	a3,sp,a3
    6334:	8586b683          	ld	a3,-1960(a3) # 858 <.LBB11_2+0x8>
    6338:	7316d063          	bge	a3,a7,6a58 <.LBB11_685>

000000000000633c <.LBB11_557>:
    633c:	000016b7          	lui	a3,0x1
    6340:	00d106b3          	add	a3,sp,a3
    6344:	8606b683          	ld	a3,-1952(a3) # 860 <.LBB11_2+0x10>
    6348:	7316d863          	bge	a3,a7,6a78 <.LBB11_686>

000000000000634c <.LBB11_558>:
    634c:	000016b7          	lui	a3,0x1
    6350:	00d106b3          	add	a3,sp,a3
    6354:	8706b683          	ld	a3,-1936(a3) # 870 <.LBB11_2+0x20>
    6358:	7516d063          	bge	a3,a7,6a98 <.LBB11_687>

000000000000635c <.LBB11_559>:
    635c:	000016b7          	lui	a3,0x1
    6360:	00d106b3          	add	a3,sp,a3
    6364:	8806b683          	ld	a3,-1920(a3) # 880 <.LBB11_2+0x30>
    6368:	7516d863          	bge	a3,a7,6ab8 <.LBB11_688>

000000000000636c <.LBB11_560>:
    636c:	000016b7          	lui	a3,0x1
    6370:	00d106b3          	add	a3,sp,a3
    6374:	8906b683          	ld	a3,-1904(a3) # 890 <.LBB11_2+0x40>
    6378:	7716d063          	bge	a3,a7,6ad8 <.LBB11_689>

000000000000637c <.LBB11_561>:
    637c:	000016b7          	lui	a3,0x1
    6380:	00d106b3          	add	a3,sp,a3
    6384:	8a06b683          	ld	a3,-1888(a3) # 8a0 <.LBB11_2+0x50>
    6388:	7716d863          	bge	a3,a7,6af8 <.LBB11_690>

000000000000638c <.LBB11_562>:
    638c:	000016b7          	lui	a3,0x1
    6390:	00d106b3          	add	a3,sp,a3
    6394:	8b06b683          	ld	a3,-1872(a3) # 8b0 <.LBB11_2+0x60>
    6398:	7916d063          	bge	a3,a7,6b18 <.LBB11_691>

000000000000639c <.LBB11_563>:
    639c:	76813683          	ld	a3,1896(sp)
    63a0:	7916d863          	bge	a3,a7,6b30 <.LBB11_692>

00000000000063a4 <.LBB11_564>:
    63a4:	77813683          	ld	a3,1912(sp)
    63a8:	7916dc63          	bge	a3,a7,6b40 <.LBB11_693>

00000000000063ac <.LBB11_565>:
    63ac:	78813683          	ld	a3,1928(sp)
    63b0:	7b16d063          	bge	a3,a7,6b50 <.LBB11_694>

00000000000063b4 <.LBB11_566>:
    63b4:	79813683          	ld	a3,1944(sp)
    63b8:	7b16d463          	bge	a3,a7,6b60 <.LBB11_695>

00000000000063bc <.LBB11_567>:
    63bc:	7a813683          	ld	a3,1960(sp)
    63c0:	7b16d863          	bge	a3,a7,6b70 <.LBB11_696>

00000000000063c4 <.LBB11_568>:
    63c4:	7b813683          	ld	a3,1976(sp)
    63c8:	7b16dc63          	bge	a3,a7,6b80 <.LBB11_697>

00000000000063cc <.LBB11_569>:
    63cc:	7c013683          	ld	a3,1984(sp)
    63d0:	7d16d063          	bge	a3,a7,6b90 <.LBB11_698>

00000000000063d4 <.LBB11_570>:
    63d4:	7c813683          	ld	a3,1992(sp)
    63d8:	7d16d463          	bge	a3,a7,6ba0 <.LBB11_699>

00000000000063dc <.LBB11_571>:
    63dc:	7d013683          	ld	a3,2000(sp)
    63e0:	7d16d863          	bge	a3,a7,6bb0 <.LBB11_700>

00000000000063e4 <.LBB11_572>:
    63e4:	7d813683          	ld	a3,2008(sp)
    63e8:	7d16dc63          	bge	a3,a7,6bc0 <.LBB11_701>

00000000000063ec <.LBB11_573>:
    63ec:	7e013683          	ld	a3,2016(sp)
    63f0:	7f16d063          	bge	a3,a7,6bd0 <.LBB11_702>

00000000000063f4 <.LBB11_574>:
    63f4:	7f013683          	ld	a3,2032(sp)
    63f8:	7f16d463          	bge	a3,a7,6be0 <.LBB11_703>

00000000000063fc <.LBB11_575>:
    63fc:	000016b7          	lui	a3,0x1
    6400:	00d106b3          	add	a3,sp,a3
    6404:	8006b683          	ld	a3,-2048(a3) # 800 <.LBB11_1+0x6c4>
    6408:	7f16d863          	bge	a3,a7,6bf8 <.LBB11_704>

000000000000640c <.LBB11_576>:
    640c:	000016b7          	lui	a3,0x1
    6410:	00d106b3          	add	a3,sp,a3
    6414:	8106b683          	ld	a3,-2032(a3) # 810 <.LBB11_1+0x6d4>
    6418:	0116d0e3          	bge	a3,a7,6c18 <.LBB11_705>

000000000000641c <.LBB11_577>:
    641c:	000016b7          	lui	a3,0x1
    6420:	00d106b3          	add	a3,sp,a3
    6424:	8206b683          	ld	a3,-2016(a3) # 820 <.LBB11_1+0x6e4>
    6428:	0116d8e3          	bge	a3,a7,6c38 <.LBB11_706>

000000000000642c <.LBB11_578>:
    642c:	000016b7          	lui	a3,0x1
    6430:	00d106b3          	add	a3,sp,a3
    6434:	8306b683          	ld	a3,-2000(a3) # 830 <.LBB11_1+0x6f4>
    6438:	0316d0e3          	bge	a3,a7,6c58 <.LBB11_707>

000000000000643c <.LBB11_579>:
    643c:	6e813683          	ld	a3,1768(sp)
    6440:	0316d8e3          	bge	a3,a7,6c70 <.LBB11_708>

0000000000006444 <.LBB11_580>:
    6444:	6f813683          	ld	a3,1784(sp)
    6448:	0316dce3          	bge	a3,a7,6c80 <.LBB11_709>

000000000000644c <.LBB11_581>:
    644c:	70813683          	ld	a3,1800(sp)
    6450:	0516d0e3          	bge	a3,a7,6c90 <.LBB11_710>

0000000000006454 <.LBB11_582>:
    6454:	71813683          	ld	a3,1816(sp)
    6458:	0516d4e3          	bge	a3,a7,6ca0 <.LBB11_711>

000000000000645c <.LBB11_583>:
    645c:	72813683          	ld	a3,1832(sp)
    6460:	0516d8e3          	bge	a3,a7,6cb0 <.LBB11_712>

0000000000006464 <.LBB11_584>:
    6464:	73813683          	ld	a3,1848(sp)
    6468:	0516dce3          	bge	a3,a7,6cc0 <.LBB11_713>

000000000000646c <.LBB11_585>:
    646c:	74013683          	ld	a3,1856(sp)
    6470:	0716d0e3          	bge	a3,a7,6cd0 <.LBB11_714>

0000000000006474 <.LBB11_586>:
    6474:	74813683          	ld	a3,1864(sp)
    6478:	0716d4e3          	bge	a3,a7,6ce0 <.LBB11_715>

000000000000647c <.LBB11_587>:
    647c:	75013683          	ld	a3,1872(sp)
    6480:	0716d8e3          	bge	a3,a7,6cf0 <.LBB11_716>

0000000000006484 <.LBB11_588>:
    6484:	75813683          	ld	a3,1880(sp)
    6488:	0716dce3          	bge	a3,a7,6d00 <.LBB11_717>

000000000000648c <.LBB11_589>:
    648c:	76013683          	ld	a3,1888(sp)
    6490:	0916d0e3          	bge	a3,a7,6d10 <.LBB11_718>

0000000000006494 <.LBB11_590>:
    6494:	77013683          	ld	a3,1904(sp)
    6498:	0916d4e3          	bge	a3,a7,6d20 <.LBB11_719>

000000000000649c <.LBB11_591>:
    649c:	78013683          	ld	a3,1920(sp)
    64a0:	0916d8e3          	bge	a3,a7,6d30 <.LBB11_720>

00000000000064a4 <.LBB11_592>:
    64a4:	79013683          	ld	a3,1936(sp)
    64a8:	0916dce3          	bge	a3,a7,6d40 <.LBB11_721>

00000000000064ac <.LBB11_593>:
    64ac:	7a013683          	ld	a3,1952(sp)
    64b0:	0b16d0e3          	bge	a3,a7,6d50 <.LBB11_722>

00000000000064b4 <.LBB11_594>:
    64b4:	7b013683          	ld	a3,1968(sp)
    64b8:	0b16d4e3          	bge	a3,a7,6d60 <.LBB11_723>

00000000000064bc <.LBB11_595>:
    64bc:	66813683          	ld	a3,1640(sp)
    64c0:	0b16d8e3          	bge	a3,a7,6d70 <.LBB11_724>

00000000000064c4 <.LBB11_596>:
    64c4:	67813683          	ld	a3,1656(sp)
    64c8:	0b16dce3          	bge	a3,a7,6d80 <.LBB11_725>

00000000000064cc <.LBB11_597>:
    64cc:	68813683          	ld	a3,1672(sp)
    64d0:	0d16d0e3          	bge	a3,a7,6d90 <.LBB11_726>

00000000000064d4 <.LBB11_598>:
    64d4:	69813683          	ld	a3,1688(sp)
    64d8:	0d16d4e3          	bge	a3,a7,6da0 <.LBB11_727>

00000000000064dc <.LBB11_599>:
    64dc:	6a813683          	ld	a3,1704(sp)
    64e0:	0d16d8e3          	bge	a3,a7,6db0 <.LBB11_728>

00000000000064e4 <.LBB11_600>:
    64e4:	6b813683          	ld	a3,1720(sp)
    64e8:	0d16dce3          	bge	a3,a7,6dc0 <.LBB11_729>

00000000000064ec <.LBB11_601>:
    64ec:	6c013683          	ld	a3,1728(sp)
    64f0:	0f16d0e3          	bge	a3,a7,6dd0 <.LBB11_730>

00000000000064f4 <.LBB11_602>:
    64f4:	6c813683          	ld	a3,1736(sp)
    64f8:	0f16d4e3          	bge	a3,a7,6de0 <.LBB11_731>

00000000000064fc <.LBB11_603>:
    64fc:	6d013683          	ld	a3,1744(sp)
    6500:	0f16d8e3          	bge	a3,a7,6df0 <.LBB11_732>

0000000000006504 <.LBB11_604>:
    6504:	6d813683          	ld	a3,1752(sp)
    6508:	0f16dce3          	bge	a3,a7,6e00 <.LBB11_733>

000000000000650c <.LBB11_605>:
    650c:	6e013683          	ld	a3,1760(sp)
    6510:	1116d0e3          	bge	a3,a7,6e10 <.LBB11_734>

0000000000006514 <.LBB11_606>:
    6514:	6f013683          	ld	a3,1776(sp)
    6518:	1116d4e3          	bge	a3,a7,6e20 <.LBB11_735>

000000000000651c <.LBB11_607>:
    651c:	70013683          	ld	a3,1792(sp)
    6520:	1116d8e3          	bge	a3,a7,6e30 <.LBB11_736>

0000000000006524 <.LBB11_608>:
    6524:	71013683          	ld	a3,1808(sp)
    6528:	1116dce3          	bge	a3,a7,6e40 <.LBB11_737>

000000000000652c <.LBB11_609>:
    652c:	72013683          	ld	a3,1824(sp)
    6530:	1316d0e3          	bge	a3,a7,6e50 <.LBB11_738>

0000000000006534 <.LBB11_610>:
    6534:	73013683          	ld	a3,1840(sp)
    6538:	1316d4e3          	bge	a3,a7,6e60 <.LBB11_739>

000000000000653c <.LBB11_611>:
    653c:	131558e3          	bge	a0,a7,6e6c <.LBB11_740>

0000000000006540 <.LBB11_612>:
    6540:	131c5ae3          	bge	s8,a7,6e74 <.LBB11_741>

0000000000006544 <.LBB11_613>:
    6544:	60813683          	ld	a3,1544(sp)
    6548:	1316dce3          	bge	a3,a7,6e80 <.LBB11_742>

000000000000654c <.LBB11_614>:
    654c:	61813683          	ld	a3,1560(sp)
    6550:	1516d0e3          	bge	a3,a7,6e90 <.LBB11_743>

0000000000006554 <.LBB11_615>:
    6554:	62813683          	ld	a3,1576(sp)
    6558:	1516d4e3          	bge	a3,a7,6ea0 <.LBB11_744>

000000000000655c <.LBB11_616>:
    655c:	63813683          	ld	a3,1592(sp)
    6560:	1516d8e3          	bge	a3,a7,6eb0 <.LBB11_745>

0000000000006564 <.LBB11_617>:
    6564:	64013683          	ld	a3,1600(sp)
    6568:	1516dce3          	bge	a3,a7,6ec0 <.LBB11_746>

000000000000656c <.LBB11_618>:
    656c:	64813683          	ld	a3,1608(sp)
    6570:	1716d0e3          	bge	a3,a7,6ed0 <.LBB11_747>

0000000000006574 <.LBB11_619>:
    6574:	65013683          	ld	a3,1616(sp)
    6578:	1716d4e3          	bge	a3,a7,6ee0 <.LBB11_748>

000000000000657c <.LBB11_620>:
    657c:	65813683          	ld	a3,1624(sp)
    6580:	1716d8e3          	bge	a3,a7,6ef0 <.LBB11_749>

0000000000006584 <.LBB11_621>:
    6584:	66013683          	ld	a3,1632(sp)
    6588:	1716dce3          	bge	a3,a7,6f00 <.LBB11_750>

000000000000658c <.LBB11_622>:
    658c:	67013683          	ld	a3,1648(sp)
    6590:	1916d0e3          	bge	a3,a7,6f10 <.LBB11_751>

0000000000006594 <.LBB11_623>:
    6594:	68013683          	ld	a3,1664(sp)
    6598:	1916d4e3          	bge	a3,a7,6f20 <.LBB11_752>

000000000000659c <.LBB11_624>:
    659c:	69013683          	ld	a3,1680(sp)
    65a0:	1916d8e3          	bge	a3,a7,6f30 <.LBB11_753>

00000000000065a4 <.LBB11_625>:
    65a4:	6a013683          	ld	a3,1696(sp)
    65a8:	1916dce3          	bge	a3,a7,6f40 <.LBB11_754>

00000000000065ac <.LBB11_626>:
    65ac:	6b013683          	ld	a3,1712(sp)
    65b0:	1b16d0e3          	bge	a3,a7,6f50 <.LBB11_755>

00000000000065b4 <.LBB11_627>:
    65b4:	1b1f54e3          	bge	t5,a7,6f5c <.LBB11_756>

00000000000065b8 <.LBB11_628>:
    65b8:	1b1ed6e3          	bge	t4,a7,6f64 <.LBB11_757>

00000000000065bc <.LBB11_629>:
    65bc:	1b1e58e3          	bge	t3,a7,6f6c <.LBB11_758>

00000000000065c0 <.LBB11_630>:
    65c0:	1b13dae3          	bge	t2,a7,6f74 <.LBB11_759>

00000000000065c4 <.LBB11_631>:
    65c4:	1b135ce3          	bge	t1,a7,6f7c <.LBB11_760>

00000000000065c8 <.LBB11_632>:
    65c8:	1b12dee3          	bge	t0,a7,6f84 <.LBB11_761>

00000000000065cc <.LBB11_633>:
    65cc:	1d1850e3          	bge	a6,a7,6f8c <.LBB11_762>

00000000000065d0 <.LBB11_634>:
    65d0:	000b0693          	mv	a3,s6
    65d4:	1d17d2e3          	bge	a5,a7,6f98 <.LBB11_763>

00000000000065d8 <.LBB11_635>:
    65d8:	000a8b13          	mv	s6,s5
    65dc:	1d1754e3          	bge	a4,a7,6fa4 <.LBB11_764>

00000000000065e0 <.LBB11_636>:
    65e0:	000a0a93          	mv	s5,s4
    65e4:	1d1656e3          	bge	a2,a7,6fb0 <.LBB11_765>

00000000000065e8 <.LBB11_637>:
    65e8:	00098a13          	mv	s4,s3
    65ec:	1d15d8e3          	bge	a1,a7,6fbc <.LBB11_766>

00000000000065f0 <.LBB11_638>:
    65f0:	000d0993          	mv	s3,s10
    65f4:	1d1cdae3          	bge	s9,a7,6fc8 <.LBB11_767>

00000000000065f8 <.LBB11_639>:
    65f8:	00090d13          	mv	s10,s2
    65fc:	60013903          	ld	s2,1536(sp)
    6600:	1d195ce3          	bge	s2,a7,6fd8 <.LBB11_768>

0000000000006604 <.LBB11_640>:
    6604:	00048913          	mv	s2,s1
    6608:	61013483          	ld	s1,1552(sp)
    660c:	1f14d0e3          	bge	s1,a7,6fec <.LBB11_769>

0000000000006610 <.LBB11_641>:
    6610:	000f8493          	mv	s1,t6
    6614:	62013f83          	ld	t6,1568(sp)
    6618:	1f1fd4e3          	bge	t6,a7,7000 <.LBB11_770>

000000000000661c <.LBB11_642>:
    661c:	00008f93          	mv	t6,ra
    6620:	63013d83          	ld	s11,1584(sp)
    6624:	1f1ddae3          	bge	s11,a7,7018 <.LBB11_771>
    6628:	b15f906f          	j	13c <.LBB11_1>

000000000000662c <.LBB11_643>:
    662c:	f7f00f13          	li	t5,-129
    6630:	07e00893          	li	a7,126
    6634:	5f813b83          	ld	s7,1528(sp)
    6638:	af1bc8e3          	blt	s7,a7,6128 <.LBB11_516>

000000000000663c <.LBB11_644>:
    663c:	07e00b93          	li	s7,126
    6640:	000016b7          	lui	a3,0x1
    6644:	00d106b3          	add	a3,sp,a3
    6648:	8f06b683          	ld	a3,-1808(a3) # 8f0 <.LBB11_2+0xa0>
    664c:	af16c6e3          	blt	a3,a7,6138 <.LBB11_517>

0000000000006650 <.LBB11_645>:
    6650:	07e00693          	li	a3,126
    6654:	00001db7          	lui	s11,0x1
    6658:	01b10db3          	add	s11,sp,s11
    665c:	8eddb823          	sd	a3,-1808(s11) # 8f0 <.LBB11_2+0xa0>
    6660:	000016b7          	lui	a3,0x1
    6664:	00d106b3          	add	a3,sp,a3
    6668:	9006b683          	ld	a3,-1792(a3) # 900 <.LBB11_2+0xb0>
    666c:	ad16cee3          	blt	a3,a7,6148 <.LBB11_518>

0000000000006670 <.LBB11_646>:
    6670:	07e00693          	li	a3,126
    6674:	00001db7          	lui	s11,0x1
    6678:	01b10db3          	add	s11,sp,s11
    667c:	90ddb023          	sd	a3,-1792(s11) # 900 <.LBB11_2+0xb0>
    6680:	000016b7          	lui	a3,0x1
    6684:	00d106b3          	add	a3,sp,a3
    6688:	9106b683          	ld	a3,-1776(a3) # 910 <.LBB11_2+0xc0>
    668c:	ad16c6e3          	blt	a3,a7,6158 <.LBB11_519>

0000000000006690 <.LBB11_647>:
    6690:	07e00693          	li	a3,126
    6694:	00001db7          	lui	s11,0x1
    6698:	01b10db3          	add	s11,sp,s11
    669c:	90ddb823          	sd	a3,-1776(s11) # 910 <.LBB11_2+0xc0>
    66a0:	000016b7          	lui	a3,0x1
    66a4:	00d106b3          	add	a3,sp,a3
    66a8:	9206b683          	ld	a3,-1760(a3) # 920 <.LBB11_2+0xd0>
    66ac:	ab16cee3          	blt	a3,a7,6168 <.LBB11_520>

00000000000066b0 <.LBB11_648>:
    66b0:	07e00693          	li	a3,126
    66b4:	00001db7          	lui	s11,0x1
    66b8:	01b10db3          	add	s11,sp,s11
    66bc:	92ddb023          	sd	a3,-1760(s11) # 920 <.LBB11_2+0xd0>
    66c0:	000016b7          	lui	a3,0x1
    66c4:	00d106b3          	add	a3,sp,a3
    66c8:	9306b683          	ld	a3,-1744(a3) # 930 <.LBB11_2+0xe0>
    66cc:	ab16c6e3          	blt	a3,a7,6178 <.LBB11_521>

00000000000066d0 <.LBB11_649>:
    66d0:	07e00693          	li	a3,126
    66d4:	00001db7          	lui	s11,0x1
    66d8:	01b10db3          	add	s11,sp,s11
    66dc:	92ddb823          	sd	a3,-1744(s11) # 930 <.LBB11_2+0xe0>
    66e0:	000016b7          	lui	a3,0x1
    66e4:	00d106b3          	add	a3,sp,a3
    66e8:	9386b683          	ld	a3,-1736(a3) # 938 <.LBB11_2+0xe8>
    66ec:	a916cee3          	blt	a3,a7,6188 <.LBB11_522>

00000000000066f0 <.LBB11_650>:
    66f0:	07e00693          	li	a3,126
    66f4:	00001db7          	lui	s11,0x1
    66f8:	01b10db3          	add	s11,sp,s11
    66fc:	92ddbc23          	sd	a3,-1736(s11) # 938 <.LBB11_2+0xe8>
    6700:	a91b46e3          	blt	s6,a7,618c <.LBB11_523>

0000000000006704 <.LBB11_651>:
    6704:	07e00b13          	li	s6,126
    6708:	a91ac4e3          	blt	s5,a7,6190 <.LBB11_524>

000000000000670c <.LBB11_652>:
    670c:	07e00a93          	li	s5,126
    6710:	a91a42e3          	blt	s4,a7,6194 <.LBB11_525>

0000000000006714 <.LBB11_653>:
    6714:	07e00a13          	li	s4,126
    6718:	a919c0e3          	blt	s3,a7,6198 <.LBB11_526>

000000000000671c <.LBB11_654>:
    671c:	07e00993          	li	s3,126
    6720:	a71d4ee3          	blt	s10,a7,619c <.LBB11_527>

0000000000006724 <.LBB11_655>:
    6724:	07e00d13          	li	s10,126
    6728:	a7194ce3          	blt	s2,a7,61a0 <.LBB11_528>

000000000000672c <.LBB11_656>:
    672c:	07e00913          	li	s2,126
    6730:	a714cae3          	blt	s1,a7,61a4 <.LBB11_529>

0000000000006734 <.LBB11_657>:
    6734:	07e00493          	li	s1,126
    6738:	a71fc8e3          	blt	t6,a7,61a8 <.LBB11_530>

000000000000673c <.LBB11_658>:
    673c:	07e00f93          	li	t6,126
    6740:	a710c6e3          	blt	ra,a7,61ac <.LBB11_531>

0000000000006744 <.LBB11_659>:
    6744:	07e00093          	li	ra,126
    6748:	000016b7          	lui	a3,0x1
    674c:	00d106b3          	add	a3,sp,a3
    6750:	8686b683          	ld	a3,-1944(a3) # 868 <.LBB11_2+0x18>
    6754:	a716c4e3          	blt	a3,a7,61bc <.LBB11_532>

0000000000006758 <.LBB11_660>:
    6758:	07e00693          	li	a3,126
    675c:	00001db7          	lui	s11,0x1
    6760:	01b10db3          	add	s11,sp,s11
    6764:	86ddb423          	sd	a3,-1944(s11) # 868 <.LBB11_2+0x18>
    6768:	000016b7          	lui	a3,0x1
    676c:	00d106b3          	add	a3,sp,a3
    6770:	8786b683          	ld	a3,-1928(a3) # 878 <.LBB11_2+0x28>
    6774:	a516cce3          	blt	a3,a7,61cc <.LBB11_533>

0000000000006778 <.LBB11_661>:
    6778:	07e00693          	li	a3,126
    677c:	00001db7          	lui	s11,0x1
    6780:	01b10db3          	add	s11,sp,s11
    6784:	86ddbc23          	sd	a3,-1928(s11) # 878 <.LBB11_2+0x28>
    6788:	000016b7          	lui	a3,0x1
    678c:	00d106b3          	add	a3,sp,a3
    6790:	8886b683          	ld	a3,-1912(a3) # 888 <.LBB11_2+0x38>
    6794:	a516c4e3          	blt	a3,a7,61dc <.LBB11_534>

0000000000006798 <.LBB11_662>:
    6798:	07e00693          	li	a3,126
    679c:	00001db7          	lui	s11,0x1
    67a0:	01b10db3          	add	s11,sp,s11
    67a4:	88ddb423          	sd	a3,-1912(s11) # 888 <.LBB11_2+0x38>
    67a8:	000016b7          	lui	a3,0x1
    67ac:	00d106b3          	add	a3,sp,a3
    67b0:	8986b683          	ld	a3,-1896(a3) # 898 <.LBB11_2+0x48>
    67b4:	a316cce3          	blt	a3,a7,61ec <.LBB11_535>

00000000000067b8 <.LBB11_663>:
    67b8:	07e00693          	li	a3,126
    67bc:	00001db7          	lui	s11,0x1
    67c0:	01b10db3          	add	s11,sp,s11
    67c4:	88ddbc23          	sd	a3,-1896(s11) # 898 <.LBB11_2+0x48>
    67c8:	000016b7          	lui	a3,0x1
    67cc:	00d106b3          	add	a3,sp,a3
    67d0:	8a86b683          	ld	a3,-1880(a3) # 8a8 <.LBB11_2+0x58>
    67d4:	a316c4e3          	blt	a3,a7,61fc <.LBB11_536>

00000000000067d8 <.LBB11_664>:
    67d8:	07e00693          	li	a3,126
    67dc:	00001db7          	lui	s11,0x1
    67e0:	01b10db3          	add	s11,sp,s11
    67e4:	8addb423          	sd	a3,-1880(s11) # 8a8 <.LBB11_2+0x58>
    67e8:	000016b7          	lui	a3,0x1
    67ec:	00d106b3          	add	a3,sp,a3
    67f0:	8b86b683          	ld	a3,-1864(a3) # 8b8 <.LBB11_2+0x68>
    67f4:	a116cce3          	blt	a3,a7,620c <.LBB11_537>

00000000000067f8 <.LBB11_665>:
    67f8:	07e00693          	li	a3,126
    67fc:	00001db7          	lui	s11,0x1
    6800:	01b10db3          	add	s11,sp,s11
    6804:	8addbc23          	sd	a3,-1864(s11) # 8b8 <.LBB11_2+0x68>
    6808:	000016b7          	lui	a3,0x1
    680c:	00d106b3          	add	a3,sp,a3
    6810:	8c06b683          	ld	a3,-1856(a3) # 8c0 <.LBB11_2+0x70>
    6814:	a116c4e3          	blt	a3,a7,621c <.LBB11_538>

0000000000006818 <.LBB11_666>:
    6818:	07e00693          	li	a3,126
    681c:	00001db7          	lui	s11,0x1
    6820:	01b10db3          	add	s11,sp,s11
    6824:	8cddb023          	sd	a3,-1856(s11) # 8c0 <.LBB11_2+0x70>
    6828:	000016b7          	lui	a3,0x1
    682c:	00d106b3          	add	a3,sp,a3
    6830:	8c86b683          	ld	a3,-1848(a3) # 8c8 <.LBB11_2+0x78>
    6834:	9f16cce3          	blt	a3,a7,622c <.LBB11_539>

0000000000006838 <.LBB11_667>:
    6838:	07e00693          	li	a3,126
    683c:	00001db7          	lui	s11,0x1
    6840:	01b10db3          	add	s11,sp,s11
    6844:	8cddb423          	sd	a3,-1848(s11) # 8c8 <.LBB11_2+0x78>
    6848:	000016b7          	lui	a3,0x1
    684c:	00d106b3          	add	a3,sp,a3
    6850:	8d06b683          	ld	a3,-1840(a3) # 8d0 <.LBB11_2+0x80>
    6854:	9f16c4e3          	blt	a3,a7,623c <.LBB11_540>

0000000000006858 <.LBB11_668>:
    6858:	07e00693          	li	a3,126
    685c:	00001db7          	lui	s11,0x1
    6860:	01b10db3          	add	s11,sp,s11
    6864:	8cddb823          	sd	a3,-1840(s11) # 8d0 <.LBB11_2+0x80>
    6868:	000016b7          	lui	a3,0x1
    686c:	00d106b3          	add	a3,sp,a3
    6870:	8d86b683          	ld	a3,-1832(a3) # 8d8 <.LBB11_2+0x88>
    6874:	9d16cce3          	blt	a3,a7,624c <.LBB11_541>

0000000000006878 <.LBB11_669>:
    6878:	07e00693          	li	a3,126
    687c:	00001db7          	lui	s11,0x1
    6880:	01b10db3          	add	s11,sp,s11
    6884:	8cddbc23          	sd	a3,-1832(s11) # 8d8 <.LBB11_2+0x88>
    6888:	000016b7          	lui	a3,0x1
    688c:	00d106b3          	add	a3,sp,a3
    6890:	8e06b683          	ld	a3,-1824(a3) # 8e0 <.LBB11_2+0x90>
    6894:	9d16c4e3          	blt	a3,a7,625c <.LBB11_542>

0000000000006898 <.LBB11_670>:
    6898:	07e00693          	li	a3,126
    689c:	00001db7          	lui	s11,0x1
    68a0:	01b10db3          	add	s11,sp,s11
    68a4:	8eddb023          	sd	a3,-1824(s11) # 8e0 <.LBB11_2+0x90>
    68a8:	000016b7          	lui	a3,0x1
    68ac:	00d106b3          	add	a3,sp,a3
    68b0:	8e86b683          	ld	a3,-1816(a3) # 8e8 <.LBB11_2+0x98>
    68b4:	9b16cce3          	blt	a3,a7,626c <.LBB11_543>

00000000000068b8 <.LBB11_671>:
    68b8:	07e00693          	li	a3,126
    68bc:	00001db7          	lui	s11,0x1
    68c0:	01b10db3          	add	s11,sp,s11
    68c4:	8eddb423          	sd	a3,-1816(s11) # 8e8 <.LBB11_2+0x98>
    68c8:	000016b7          	lui	a3,0x1
    68cc:	00d106b3          	add	a3,sp,a3
    68d0:	8f86b683          	ld	a3,-1800(a3) # 8f8 <.LBB11_2+0xa8>
    68d4:	9b16c4e3          	blt	a3,a7,627c <.LBB11_544>

00000000000068d8 <.LBB11_672>:
    68d8:	07e00693          	li	a3,126
    68dc:	00001db7          	lui	s11,0x1
    68e0:	01b10db3          	add	s11,sp,s11
    68e4:	8eddbc23          	sd	a3,-1800(s11) # 8f8 <.LBB11_2+0xa8>
    68e8:	000016b7          	lui	a3,0x1
    68ec:	00d106b3          	add	a3,sp,a3
    68f0:	9086b683          	ld	a3,-1784(a3) # 908 <.LBB11_2+0xb8>
    68f4:	9916cce3          	blt	a3,a7,628c <.LBB11_545>

00000000000068f8 <.LBB11_673>:
    68f8:	07e00693          	li	a3,126
    68fc:	00001db7          	lui	s11,0x1
    6900:	01b10db3          	add	s11,sp,s11
    6904:	90ddb423          	sd	a3,-1784(s11) # 908 <.LBB11_2+0xb8>
    6908:	000016b7          	lui	a3,0x1
    690c:	00d106b3          	add	a3,sp,a3
    6910:	9186b683          	ld	a3,-1768(a3) # 918 <.LBB11_2+0xc8>
    6914:	9916c4e3          	blt	a3,a7,629c <.LBB11_546>

0000000000006918 <.LBB11_674>:
    6918:	07e00693          	li	a3,126
    691c:	00001db7          	lui	s11,0x1
    6920:	01b10db3          	add	s11,sp,s11
    6924:	90ddbc23          	sd	a3,-1768(s11) # 918 <.LBB11_2+0xc8>
    6928:	000016b7          	lui	a3,0x1
    692c:	00d106b3          	add	a3,sp,a3
    6930:	9286b683          	ld	a3,-1752(a3) # 928 <.LBB11_2+0xd8>
    6934:	9716cce3          	blt	a3,a7,62ac <.LBB11_547>

0000000000006938 <.LBB11_675>:
    6938:	07e00693          	li	a3,126
    693c:	00001db7          	lui	s11,0x1
    6940:	01b10db3          	add	s11,sp,s11
    6944:	92ddb423          	sd	a3,-1752(s11) # 928 <.LBB11_2+0xd8>
    6948:	7e813683          	ld	a3,2024(sp)
    694c:	9716c4e3          	blt	a3,a7,62b4 <.LBB11_548>

0000000000006950 <.LBB11_676>:
    6950:	07e00693          	li	a3,126
    6954:	7ed13423          	sd	a3,2024(sp)
    6958:	7f813683          	ld	a3,2040(sp)
    695c:	9716c0e3          	blt	a3,a7,62bc <.LBB11_549>

0000000000006960 <.LBB11_677>:
    6960:	07e00693          	li	a3,126
    6964:	7ed13c23          	sd	a3,2040(sp)
    6968:	000016b7          	lui	a3,0x1
    696c:	00d106b3          	add	a3,sp,a3
    6970:	8086b683          	ld	a3,-2040(a3) # 808 <.LBB11_1+0x6cc>
    6974:	9516cce3          	blt	a3,a7,62cc <.LBB11_550>

0000000000006978 <.LBB11_678>:
    6978:	07e00693          	li	a3,126
    697c:	00001db7          	lui	s11,0x1
    6980:	01b10db3          	add	s11,sp,s11
    6984:	80ddb423          	sd	a3,-2040(s11) # 808 <.LBB11_1+0x6cc>
    6988:	000016b7          	lui	a3,0x1
    698c:	00d106b3          	add	a3,sp,a3
    6990:	8186b683          	ld	a3,-2024(a3) # 818 <.LBB11_1+0x6dc>
    6994:	9516c4e3          	blt	a3,a7,62dc <.LBB11_551>

0000000000006998 <.LBB11_679>:
    6998:	07e00693          	li	a3,126
    699c:	00001db7          	lui	s11,0x1
    69a0:	01b10db3          	add	s11,sp,s11
    69a4:	80ddbc23          	sd	a3,-2024(s11) # 818 <.LBB11_1+0x6dc>
    69a8:	000016b7          	lui	a3,0x1
    69ac:	00d106b3          	add	a3,sp,a3
    69b0:	8286b683          	ld	a3,-2008(a3) # 828 <.LBB11_1+0x6ec>
    69b4:	9316cce3          	blt	a3,a7,62ec <.LBB11_552>

00000000000069b8 <.LBB11_680>:
    69b8:	07e00693          	li	a3,126
    69bc:	00001db7          	lui	s11,0x1
    69c0:	01b10db3          	add	s11,sp,s11
    69c4:	82ddb423          	sd	a3,-2008(s11) # 828 <.LBB11_1+0x6ec>
    69c8:	000016b7          	lui	a3,0x1
    69cc:	00d106b3          	add	a3,sp,a3
    69d0:	8386b683          	ld	a3,-1992(a3) # 838 <.LBB11_1+0x6fc>
    69d4:	9316c4e3          	blt	a3,a7,62fc <.LBB11_553>

00000000000069d8 <.LBB11_681>:
    69d8:	07e00693          	li	a3,126
    69dc:	00001db7          	lui	s11,0x1
    69e0:	01b10db3          	add	s11,sp,s11
    69e4:	82ddbc23          	sd	a3,-1992(s11) # 838 <.LBB11_1+0x6fc>
    69e8:	000016b7          	lui	a3,0x1
    69ec:	00d106b3          	add	a3,sp,a3
    69f0:	8406b683          	ld	a3,-1984(a3) # 840 <.LBB11_1+0x704>
    69f4:	9116cce3          	blt	a3,a7,630c <.LBB11_554>

00000000000069f8 <.LBB11_682>:
    69f8:	07e00693          	li	a3,126
    69fc:	00001db7          	lui	s11,0x1
    6a00:	01b10db3          	add	s11,sp,s11
    6a04:	84ddb023          	sd	a3,-1984(s11) # 840 <.LBB11_1+0x704>
    6a08:	000016b7          	lui	a3,0x1
    6a0c:	00d106b3          	add	a3,sp,a3
    6a10:	8486b683          	ld	a3,-1976(a3) # 848 <.LBB11_1+0x70c>
    6a14:	9116c4e3          	blt	a3,a7,631c <.LBB11_555>

0000000000006a18 <.LBB11_683>:
    6a18:	07e00693          	li	a3,126
    6a1c:	00001db7          	lui	s11,0x1
    6a20:	01b10db3          	add	s11,sp,s11
    6a24:	84ddb423          	sd	a3,-1976(s11) # 848 <.LBB11_1+0x70c>
    6a28:	000016b7          	lui	a3,0x1
    6a2c:	00d106b3          	add	a3,sp,a3
    6a30:	8506b683          	ld	a3,-1968(a3) # 850 <.LBB11_2>
    6a34:	8f16cce3          	blt	a3,a7,632c <.LBB11_556>

0000000000006a38 <.LBB11_684>:
    6a38:	07e00693          	li	a3,126
    6a3c:	00001db7          	lui	s11,0x1
    6a40:	01b10db3          	add	s11,sp,s11
    6a44:	84ddb823          	sd	a3,-1968(s11) # 850 <.LBB11_2>
    6a48:	000016b7          	lui	a3,0x1
    6a4c:	00d106b3          	add	a3,sp,a3
    6a50:	8586b683          	ld	a3,-1960(a3) # 858 <.LBB11_2+0x8>
    6a54:	8f16c4e3          	blt	a3,a7,633c <.LBB11_557>

0000000000006a58 <.LBB11_685>:
    6a58:	07e00693          	li	a3,126
    6a5c:	00001db7          	lui	s11,0x1
    6a60:	01b10db3          	add	s11,sp,s11
    6a64:	84ddbc23          	sd	a3,-1960(s11) # 858 <.LBB11_2+0x8>
    6a68:	000016b7          	lui	a3,0x1
    6a6c:	00d106b3          	add	a3,sp,a3
    6a70:	8606b683          	ld	a3,-1952(a3) # 860 <.LBB11_2+0x10>
    6a74:	8d16cce3          	blt	a3,a7,634c <.LBB11_558>

0000000000006a78 <.LBB11_686>:
    6a78:	07e00693          	li	a3,126
    6a7c:	00001db7          	lui	s11,0x1
    6a80:	01b10db3          	add	s11,sp,s11
    6a84:	86ddb023          	sd	a3,-1952(s11) # 860 <.LBB11_2+0x10>
    6a88:	000016b7          	lui	a3,0x1
    6a8c:	00d106b3          	add	a3,sp,a3
    6a90:	8706b683          	ld	a3,-1936(a3) # 870 <.LBB11_2+0x20>
    6a94:	8d16c4e3          	blt	a3,a7,635c <.LBB11_559>

0000000000006a98 <.LBB11_687>:
    6a98:	07e00693          	li	a3,126
    6a9c:	00001db7          	lui	s11,0x1
    6aa0:	01b10db3          	add	s11,sp,s11
    6aa4:	86ddb823          	sd	a3,-1936(s11) # 870 <.LBB11_2+0x20>
    6aa8:	000016b7          	lui	a3,0x1
    6aac:	00d106b3          	add	a3,sp,a3
    6ab0:	8806b683          	ld	a3,-1920(a3) # 880 <.LBB11_2+0x30>
    6ab4:	8b16cce3          	blt	a3,a7,636c <.LBB11_560>

0000000000006ab8 <.LBB11_688>:
    6ab8:	07e00693          	li	a3,126
    6abc:	00001db7          	lui	s11,0x1
    6ac0:	01b10db3          	add	s11,sp,s11
    6ac4:	88ddb023          	sd	a3,-1920(s11) # 880 <.LBB11_2+0x30>
    6ac8:	000016b7          	lui	a3,0x1
    6acc:	00d106b3          	add	a3,sp,a3
    6ad0:	8906b683          	ld	a3,-1904(a3) # 890 <.LBB11_2+0x40>
    6ad4:	8b16c4e3          	blt	a3,a7,637c <.LBB11_561>

0000000000006ad8 <.LBB11_689>:
    6ad8:	07e00693          	li	a3,126
    6adc:	00001db7          	lui	s11,0x1
    6ae0:	01b10db3          	add	s11,sp,s11
    6ae4:	88ddb823          	sd	a3,-1904(s11) # 890 <.LBB11_2+0x40>
    6ae8:	000016b7          	lui	a3,0x1
    6aec:	00d106b3          	add	a3,sp,a3
    6af0:	8a06b683          	ld	a3,-1888(a3) # 8a0 <.LBB11_2+0x50>
    6af4:	8916cce3          	blt	a3,a7,638c <.LBB11_562>

0000000000006af8 <.LBB11_690>:
    6af8:	07e00693          	li	a3,126
    6afc:	00001db7          	lui	s11,0x1
    6b00:	01b10db3          	add	s11,sp,s11
    6b04:	8addb023          	sd	a3,-1888(s11) # 8a0 <.LBB11_2+0x50>
    6b08:	000016b7          	lui	a3,0x1
    6b0c:	00d106b3          	add	a3,sp,a3
    6b10:	8b06b683          	ld	a3,-1872(a3) # 8b0 <.LBB11_2+0x60>
    6b14:	8916c4e3          	blt	a3,a7,639c <.LBB11_563>

0000000000006b18 <.LBB11_691>:
    6b18:	07e00693          	li	a3,126
    6b1c:	00001db7          	lui	s11,0x1
    6b20:	01b10db3          	add	s11,sp,s11
    6b24:	8addb823          	sd	a3,-1872(s11) # 8b0 <.LBB11_2+0x60>
    6b28:	76813683          	ld	a3,1896(sp)
    6b2c:	8716cce3          	blt	a3,a7,63a4 <.LBB11_564>

0000000000006b30 <.LBB11_692>:
    6b30:	07e00693          	li	a3,126
    6b34:	76d13423          	sd	a3,1896(sp)
    6b38:	77813683          	ld	a3,1912(sp)
    6b3c:	8716c8e3          	blt	a3,a7,63ac <.LBB11_565>

0000000000006b40 <.LBB11_693>:
    6b40:	07e00693          	li	a3,126
    6b44:	76d13c23          	sd	a3,1912(sp)
    6b48:	78813683          	ld	a3,1928(sp)
    6b4c:	8716c4e3          	blt	a3,a7,63b4 <.LBB11_566>

0000000000006b50 <.LBB11_694>:
    6b50:	07e00693          	li	a3,126
    6b54:	78d13423          	sd	a3,1928(sp)
    6b58:	79813683          	ld	a3,1944(sp)
    6b5c:	8716c0e3          	blt	a3,a7,63bc <.LBB11_567>

0000000000006b60 <.LBB11_695>:
    6b60:	07e00693          	li	a3,126
    6b64:	78d13c23          	sd	a3,1944(sp)
    6b68:	7a813683          	ld	a3,1960(sp)
    6b6c:	8516cce3          	blt	a3,a7,63c4 <.LBB11_568>

0000000000006b70 <.LBB11_696>:
    6b70:	07e00693          	li	a3,126
    6b74:	7ad13423          	sd	a3,1960(sp)
    6b78:	7b813683          	ld	a3,1976(sp)
    6b7c:	8516c8e3          	blt	a3,a7,63cc <.LBB11_569>

0000000000006b80 <.LBB11_697>:
    6b80:	07e00693          	li	a3,126
    6b84:	7ad13c23          	sd	a3,1976(sp)
    6b88:	7c013683          	ld	a3,1984(sp)
    6b8c:	8516c4e3          	blt	a3,a7,63d4 <.LBB11_570>

0000000000006b90 <.LBB11_698>:
    6b90:	07e00693          	li	a3,126
    6b94:	7cd13023          	sd	a3,1984(sp)
    6b98:	7c813683          	ld	a3,1992(sp)
    6b9c:	8516c0e3          	blt	a3,a7,63dc <.LBB11_571>

0000000000006ba0 <.LBB11_699>:
    6ba0:	07e00693          	li	a3,126
    6ba4:	7cd13423          	sd	a3,1992(sp)
    6ba8:	7d013683          	ld	a3,2000(sp)
    6bac:	8316cce3          	blt	a3,a7,63e4 <.LBB11_572>

0000000000006bb0 <.LBB11_700>:
    6bb0:	07e00693          	li	a3,126
    6bb4:	7cd13823          	sd	a3,2000(sp)
    6bb8:	7d813683          	ld	a3,2008(sp)
    6bbc:	8316c8e3          	blt	a3,a7,63ec <.LBB11_573>

0000000000006bc0 <.LBB11_701>:
    6bc0:	07e00693          	li	a3,126
    6bc4:	7cd13c23          	sd	a3,2008(sp)
    6bc8:	7e013683          	ld	a3,2016(sp)
    6bcc:	8316c4e3          	blt	a3,a7,63f4 <.LBB11_574>

0000000000006bd0 <.LBB11_702>:
    6bd0:	07e00693          	li	a3,126
    6bd4:	7ed13023          	sd	a3,2016(sp)
    6bd8:	7f013683          	ld	a3,2032(sp)
    6bdc:	8316c0e3          	blt	a3,a7,63fc <.LBB11_575>

0000000000006be0 <.LBB11_703>:
    6be0:	07e00693          	li	a3,126
    6be4:	7ed13823          	sd	a3,2032(sp)
    6be8:	000016b7          	lui	a3,0x1
    6bec:	00d106b3          	add	a3,sp,a3
    6bf0:	8006b683          	ld	a3,-2048(a3) # 800 <.LBB11_1+0x6c4>
    6bf4:	8116cce3          	blt	a3,a7,640c <.LBB11_576>

0000000000006bf8 <.LBB11_704>:
    6bf8:	07e00693          	li	a3,126
    6bfc:	00001db7          	lui	s11,0x1
    6c00:	01b10db3          	add	s11,sp,s11
    6c04:	80ddb023          	sd	a3,-2048(s11) # 800 <.LBB11_1+0x6c4>
    6c08:	000016b7          	lui	a3,0x1
    6c0c:	00d106b3          	add	a3,sp,a3
    6c10:	8106b683          	ld	a3,-2032(a3) # 810 <.LBB11_1+0x6d4>
    6c14:	8116c4e3          	blt	a3,a7,641c <.LBB11_577>

0000000000006c18 <.LBB11_705>:
    6c18:	07e00693          	li	a3,126
    6c1c:	00001db7          	lui	s11,0x1
    6c20:	01b10db3          	add	s11,sp,s11
    6c24:	80ddb823          	sd	a3,-2032(s11) # 810 <.LBB11_1+0x6d4>
    6c28:	000016b7          	lui	a3,0x1
    6c2c:	00d106b3          	add	a3,sp,a3
    6c30:	8206b683          	ld	a3,-2016(a3) # 820 <.LBB11_1+0x6e4>
    6c34:	ff16cc63          	blt	a3,a7,642c <.LBB11_578>

0000000000006c38 <.LBB11_706>:
    6c38:	07e00693          	li	a3,126
    6c3c:	00001db7          	lui	s11,0x1
    6c40:	01b10db3          	add	s11,sp,s11
    6c44:	82ddb023          	sd	a3,-2016(s11) # 820 <.LBB11_1+0x6e4>
    6c48:	000016b7          	lui	a3,0x1
    6c4c:	00d106b3          	add	a3,sp,a3
    6c50:	8306b683          	ld	a3,-2000(a3) # 830 <.LBB11_1+0x6f4>
    6c54:	ff16c463          	blt	a3,a7,643c <.LBB11_579>

0000000000006c58 <.LBB11_707>:
    6c58:	07e00693          	li	a3,126
    6c5c:	00001db7          	lui	s11,0x1
    6c60:	01b10db3          	add	s11,sp,s11
    6c64:	82ddb823          	sd	a3,-2000(s11) # 830 <.LBB11_1+0x6f4>
    6c68:	6e813683          	ld	a3,1768(sp)
    6c6c:	fd16cc63          	blt	a3,a7,6444 <.LBB11_580>

0000000000006c70 <.LBB11_708>:
    6c70:	07e00693          	li	a3,126
    6c74:	6ed13423          	sd	a3,1768(sp)
    6c78:	6f813683          	ld	a3,1784(sp)
    6c7c:	fd16c863          	blt	a3,a7,644c <.LBB11_581>

0000000000006c80 <.LBB11_709>:
    6c80:	07e00693          	li	a3,126
    6c84:	6ed13c23          	sd	a3,1784(sp)
    6c88:	70813683          	ld	a3,1800(sp)
    6c8c:	fd16c463          	blt	a3,a7,6454 <.LBB11_582>

0000000000006c90 <.LBB11_710>:
    6c90:	07e00693          	li	a3,126
    6c94:	70d13423          	sd	a3,1800(sp)
    6c98:	71813683          	ld	a3,1816(sp)
    6c9c:	fd16c063          	blt	a3,a7,645c <.LBB11_583>

0000000000006ca0 <.LBB11_711>:
    6ca0:	07e00693          	li	a3,126
    6ca4:	70d13c23          	sd	a3,1816(sp)
    6ca8:	72813683          	ld	a3,1832(sp)
    6cac:	fb16cc63          	blt	a3,a7,6464 <.LBB11_584>

0000000000006cb0 <.LBB11_712>:
    6cb0:	07e00693          	li	a3,126
    6cb4:	72d13423          	sd	a3,1832(sp)
    6cb8:	73813683          	ld	a3,1848(sp)
    6cbc:	fb16c863          	blt	a3,a7,646c <.LBB11_585>

0000000000006cc0 <.LBB11_713>:
    6cc0:	07e00693          	li	a3,126
    6cc4:	72d13c23          	sd	a3,1848(sp)
    6cc8:	74013683          	ld	a3,1856(sp)
    6ccc:	fb16c463          	blt	a3,a7,6474 <.LBB11_586>

0000000000006cd0 <.LBB11_714>:
    6cd0:	07e00693          	li	a3,126
    6cd4:	74d13023          	sd	a3,1856(sp)
    6cd8:	74813683          	ld	a3,1864(sp)
    6cdc:	fb16c063          	blt	a3,a7,647c <.LBB11_587>

0000000000006ce0 <.LBB11_715>:
    6ce0:	07e00693          	li	a3,126
    6ce4:	74d13423          	sd	a3,1864(sp)
    6ce8:	75013683          	ld	a3,1872(sp)
    6cec:	f916cc63          	blt	a3,a7,6484 <.LBB11_588>

0000000000006cf0 <.LBB11_716>:
    6cf0:	07e00693          	li	a3,126
    6cf4:	74d13823          	sd	a3,1872(sp)
    6cf8:	75813683          	ld	a3,1880(sp)
    6cfc:	f916c863          	blt	a3,a7,648c <.LBB11_589>

0000000000006d00 <.LBB11_717>:
    6d00:	07e00693          	li	a3,126
    6d04:	74d13c23          	sd	a3,1880(sp)
    6d08:	76013683          	ld	a3,1888(sp)
    6d0c:	f916c463          	blt	a3,a7,6494 <.LBB11_590>

0000000000006d10 <.LBB11_718>:
    6d10:	07e00693          	li	a3,126
    6d14:	76d13023          	sd	a3,1888(sp)
    6d18:	77013683          	ld	a3,1904(sp)
    6d1c:	f916c063          	blt	a3,a7,649c <.LBB11_591>

0000000000006d20 <.LBB11_719>:
    6d20:	07e00693          	li	a3,126
    6d24:	76d13823          	sd	a3,1904(sp)
    6d28:	78013683          	ld	a3,1920(sp)
    6d2c:	f716cc63          	blt	a3,a7,64a4 <.LBB11_592>

0000000000006d30 <.LBB11_720>:
    6d30:	07e00693          	li	a3,126
    6d34:	78d13023          	sd	a3,1920(sp)
    6d38:	79013683          	ld	a3,1936(sp)
    6d3c:	f716c863          	blt	a3,a7,64ac <.LBB11_593>

0000000000006d40 <.LBB11_721>:
    6d40:	07e00693          	li	a3,126
    6d44:	78d13823          	sd	a3,1936(sp)
    6d48:	7a013683          	ld	a3,1952(sp)
    6d4c:	f716c463          	blt	a3,a7,64b4 <.LBB11_594>

0000000000006d50 <.LBB11_722>:
    6d50:	07e00693          	li	a3,126
    6d54:	7ad13023          	sd	a3,1952(sp)
    6d58:	7b013683          	ld	a3,1968(sp)
    6d5c:	f716c063          	blt	a3,a7,64bc <.LBB11_595>

0000000000006d60 <.LBB11_723>:
    6d60:	07e00693          	li	a3,126
    6d64:	7ad13823          	sd	a3,1968(sp)
    6d68:	66813683          	ld	a3,1640(sp)
    6d6c:	f516cc63          	blt	a3,a7,64c4 <.LBB11_596>

0000000000006d70 <.LBB11_724>:
    6d70:	07e00693          	li	a3,126
    6d74:	66d13423          	sd	a3,1640(sp)
    6d78:	67813683          	ld	a3,1656(sp)
    6d7c:	f516c863          	blt	a3,a7,64cc <.LBB11_597>

0000000000006d80 <.LBB11_725>:
    6d80:	07e00693          	li	a3,126
    6d84:	66d13c23          	sd	a3,1656(sp)
    6d88:	68813683          	ld	a3,1672(sp)
    6d8c:	f516c463          	blt	a3,a7,64d4 <.LBB11_598>

0000000000006d90 <.LBB11_726>:
    6d90:	07e00693          	li	a3,126
    6d94:	68d13423          	sd	a3,1672(sp)
    6d98:	69813683          	ld	a3,1688(sp)
    6d9c:	f516c063          	blt	a3,a7,64dc <.LBB11_599>

0000000000006da0 <.LBB11_727>:
    6da0:	07e00693          	li	a3,126
    6da4:	68d13c23          	sd	a3,1688(sp)
    6da8:	6a813683          	ld	a3,1704(sp)
    6dac:	f316cc63          	blt	a3,a7,64e4 <.LBB11_600>

0000000000006db0 <.LBB11_728>:
    6db0:	07e00693          	li	a3,126
    6db4:	6ad13423          	sd	a3,1704(sp)
    6db8:	6b813683          	ld	a3,1720(sp)
    6dbc:	f316c863          	blt	a3,a7,64ec <.LBB11_601>

0000000000006dc0 <.LBB11_729>:
    6dc0:	07e00693          	li	a3,126
    6dc4:	6ad13c23          	sd	a3,1720(sp)
    6dc8:	6c013683          	ld	a3,1728(sp)
    6dcc:	f316c463          	blt	a3,a7,64f4 <.LBB11_602>

0000000000006dd0 <.LBB11_730>:
    6dd0:	07e00693          	li	a3,126
    6dd4:	6cd13023          	sd	a3,1728(sp)
    6dd8:	6c813683          	ld	a3,1736(sp)
    6ddc:	f316c063          	blt	a3,a7,64fc <.LBB11_603>

0000000000006de0 <.LBB11_731>:
    6de0:	07e00693          	li	a3,126
    6de4:	6cd13423          	sd	a3,1736(sp)
    6de8:	6d013683          	ld	a3,1744(sp)
    6dec:	f116cc63          	blt	a3,a7,6504 <.LBB11_604>

0000000000006df0 <.LBB11_732>:
    6df0:	07e00693          	li	a3,126
    6df4:	6cd13823          	sd	a3,1744(sp)
    6df8:	6d813683          	ld	a3,1752(sp)
    6dfc:	f116c863          	blt	a3,a7,650c <.LBB11_605>

0000000000006e00 <.LBB11_733>:
    6e00:	07e00693          	li	a3,126
    6e04:	6cd13c23          	sd	a3,1752(sp)
    6e08:	6e013683          	ld	a3,1760(sp)
    6e0c:	f116c463          	blt	a3,a7,6514 <.LBB11_606>

0000000000006e10 <.LBB11_734>:
    6e10:	07e00693          	li	a3,126
    6e14:	6ed13023          	sd	a3,1760(sp)
    6e18:	6f013683          	ld	a3,1776(sp)
    6e1c:	f116c063          	blt	a3,a7,651c <.LBB11_607>

0000000000006e20 <.LBB11_735>:
    6e20:	07e00693          	li	a3,126
    6e24:	6ed13823          	sd	a3,1776(sp)
    6e28:	70013683          	ld	a3,1792(sp)
    6e2c:	ef16cc63          	blt	a3,a7,6524 <.LBB11_608>

0000000000006e30 <.LBB11_736>:
    6e30:	07e00693          	li	a3,126
    6e34:	70d13023          	sd	a3,1792(sp)
    6e38:	71013683          	ld	a3,1808(sp)
    6e3c:	ef16c863          	blt	a3,a7,652c <.LBB11_609>

0000000000006e40 <.LBB11_737>:
    6e40:	07e00693          	li	a3,126
    6e44:	70d13823          	sd	a3,1808(sp)
    6e48:	72013683          	ld	a3,1824(sp)
    6e4c:	ef16c463          	blt	a3,a7,6534 <.LBB11_610>

0000000000006e50 <.LBB11_738>:
    6e50:	07e00693          	li	a3,126
    6e54:	72d13023          	sd	a3,1824(sp)
    6e58:	73013683          	ld	a3,1840(sp)
    6e5c:	ef16c063          	blt	a3,a7,653c <.LBB11_611>

0000000000006e60 <.LBB11_739>:
    6e60:	07e00693          	li	a3,126
    6e64:	72d13823          	sd	a3,1840(sp)
    6e68:	ed154c63          	blt	a0,a7,6540 <.LBB11_612>

0000000000006e6c <.LBB11_740>:
    6e6c:	07e00513          	li	a0,126
    6e70:	ed1c4a63          	blt	s8,a7,6544 <.LBB11_613>

0000000000006e74 <.LBB11_741>:
    6e74:	07e00c13          	li	s8,126
    6e78:	60813683          	ld	a3,1544(sp)
    6e7c:	ed16c863          	blt	a3,a7,654c <.LBB11_614>

0000000000006e80 <.LBB11_742>:
    6e80:	07e00693          	li	a3,126
    6e84:	60d13423          	sd	a3,1544(sp)
    6e88:	61813683          	ld	a3,1560(sp)
    6e8c:	ed16c463          	blt	a3,a7,6554 <.LBB11_615>

0000000000006e90 <.LBB11_743>:
    6e90:	07e00693          	li	a3,126
    6e94:	60d13c23          	sd	a3,1560(sp)
    6e98:	62813683          	ld	a3,1576(sp)
    6e9c:	ed16c063          	blt	a3,a7,655c <.LBB11_616>

0000000000006ea0 <.LBB11_744>:
    6ea0:	07e00693          	li	a3,126
    6ea4:	62d13423          	sd	a3,1576(sp)
    6ea8:	63813683          	ld	a3,1592(sp)
    6eac:	eb16cc63          	blt	a3,a7,6564 <.LBB11_617>

0000000000006eb0 <.LBB11_745>:
    6eb0:	07e00693          	li	a3,126
    6eb4:	62d13c23          	sd	a3,1592(sp)
    6eb8:	64013683          	ld	a3,1600(sp)
    6ebc:	eb16c863          	blt	a3,a7,656c <.LBB11_618>

0000000000006ec0 <.LBB11_746>:
    6ec0:	07e00693          	li	a3,126
    6ec4:	64d13023          	sd	a3,1600(sp)
    6ec8:	64813683          	ld	a3,1608(sp)
    6ecc:	eb16c463          	blt	a3,a7,6574 <.LBB11_619>

0000000000006ed0 <.LBB11_747>:
    6ed0:	07e00693          	li	a3,126
    6ed4:	64d13423          	sd	a3,1608(sp)
    6ed8:	65013683          	ld	a3,1616(sp)
    6edc:	eb16c063          	blt	a3,a7,657c <.LBB11_620>

0000000000006ee0 <.LBB11_748>:
    6ee0:	07e00693          	li	a3,126
    6ee4:	64d13823          	sd	a3,1616(sp)
    6ee8:	65813683          	ld	a3,1624(sp)
    6eec:	e916cc63          	blt	a3,a7,6584 <.LBB11_621>

0000000000006ef0 <.LBB11_749>:
    6ef0:	07e00693          	li	a3,126
    6ef4:	64d13c23          	sd	a3,1624(sp)
    6ef8:	66013683          	ld	a3,1632(sp)
    6efc:	e916c863          	blt	a3,a7,658c <.LBB11_622>

0000000000006f00 <.LBB11_750>:
    6f00:	07e00693          	li	a3,126
    6f04:	66d13023          	sd	a3,1632(sp)
    6f08:	67013683          	ld	a3,1648(sp)
    6f0c:	e916c463          	blt	a3,a7,6594 <.LBB11_623>

0000000000006f10 <.LBB11_751>:
    6f10:	07e00693          	li	a3,126
    6f14:	66d13823          	sd	a3,1648(sp)
    6f18:	68013683          	ld	a3,1664(sp)
    6f1c:	e916c063          	blt	a3,a7,659c <.LBB11_624>

0000000000006f20 <.LBB11_752>:
    6f20:	07e00693          	li	a3,126
    6f24:	68d13023          	sd	a3,1664(sp)
    6f28:	69013683          	ld	a3,1680(sp)
    6f2c:	e716cc63          	blt	a3,a7,65a4 <.LBB11_625>

0000000000006f30 <.LBB11_753>:
    6f30:	07e00693          	li	a3,126
    6f34:	68d13823          	sd	a3,1680(sp)
    6f38:	6a013683          	ld	a3,1696(sp)
    6f3c:	e716c863          	blt	a3,a7,65ac <.LBB11_626>

0000000000006f40 <.LBB11_754>:
    6f40:	07e00693          	li	a3,126
    6f44:	6ad13023          	sd	a3,1696(sp)
    6f48:	6b013683          	ld	a3,1712(sp)
    6f4c:	e716c463          	blt	a3,a7,65b4 <.LBB11_627>

0000000000006f50 <.LBB11_755>:
    6f50:	07e00693          	li	a3,126
    6f54:	6ad13823          	sd	a3,1712(sp)
    6f58:	e71f4063          	blt	t5,a7,65b8 <.LBB11_628>

0000000000006f5c <.LBB11_756>:
    6f5c:	07e00f13          	li	t5,126
    6f60:	e51ece63          	blt	t4,a7,65bc <.LBB11_629>

0000000000006f64 <.LBB11_757>:
    6f64:	07e00e93          	li	t4,126
    6f68:	e51e4c63          	blt	t3,a7,65c0 <.LBB11_630>

0000000000006f6c <.LBB11_758>:
    6f6c:	07e00e13          	li	t3,126
    6f70:	e513ca63          	blt	t2,a7,65c4 <.LBB11_631>

0000000000006f74 <.LBB11_759>:
    6f74:	07e00393          	li	t2,126
    6f78:	e5134863          	blt	t1,a7,65c8 <.LBB11_632>

0000000000006f7c <.LBB11_760>:
    6f7c:	07e00313          	li	t1,126
    6f80:	e512c663          	blt	t0,a7,65cc <.LBB11_633>

0000000000006f84 <.LBB11_761>:
    6f84:	07e00293          	li	t0,126
    6f88:	e5184463          	blt	a6,a7,65d0 <.LBB11_634>

0000000000006f8c <.LBB11_762>:
    6f8c:	07e00813          	li	a6,126
    6f90:	000b0693          	mv	a3,s6
    6f94:	e517c263          	blt	a5,a7,65d8 <.LBB11_635>

0000000000006f98 <.LBB11_763>:
    6f98:	07e00793          	li	a5,126
    6f9c:	000a8b13          	mv	s6,s5
    6fa0:	e5174063          	blt	a4,a7,65e0 <.LBB11_636>

0000000000006fa4 <.LBB11_764>:
    6fa4:	07e00713          	li	a4,126
    6fa8:	000a0a93          	mv	s5,s4
    6fac:	e3164e63          	blt	a2,a7,65e8 <.LBB11_637>

0000000000006fb0 <.LBB11_765>:
    6fb0:	07e00613          	li	a2,126
    6fb4:	00098a13          	mv	s4,s3
    6fb8:	e315cc63          	blt	a1,a7,65f0 <.LBB11_638>

0000000000006fbc <.LBB11_766>:
    6fbc:	07e00593          	li	a1,126
    6fc0:	000d0993          	mv	s3,s10
    6fc4:	e31cca63          	blt	s9,a7,65f8 <.LBB11_639>

0000000000006fc8 <.LBB11_767>:
    6fc8:	07e00c93          	li	s9,126
    6fcc:	00090d13          	mv	s10,s2
    6fd0:	60013903          	ld	s2,1536(sp)
    6fd4:	e3194863          	blt	s2,a7,6604 <.LBB11_640>

0000000000006fd8 <.LBB11_768>:
    6fd8:	07e00913          	li	s2,126
    6fdc:	61213023          	sd	s2,1536(sp)
    6fe0:	00048913          	mv	s2,s1
    6fe4:	61013483          	ld	s1,1552(sp)
    6fe8:	e314c463          	blt	s1,a7,6610 <.LBB11_641>

0000000000006fec <.LBB11_769>:
    6fec:	07e00493          	li	s1,126
    6ff0:	60913823          	sd	s1,1552(sp)
    6ff4:	000f8493          	mv	s1,t6
    6ff8:	62013f83          	ld	t6,1568(sp)
    6ffc:	e31fc063          	blt	t6,a7,661c <.LBB11_642>

0000000000007000 <.LBB11_770>:
    7000:	07e00f93          	li	t6,126
    7004:	63f13023          	sd	t6,1568(sp)
    7008:	00008f93          	mv	t6,ra
    700c:	63013d83          	ld	s11,1584(sp)
    7010:	011dd463          	bge	s11,a7,7018 <.LBB11_771>
    7014:	928f906f          	j	13c <.LBB11_1>

0000000000007018 <.LBB11_771>:
    7018:	07e00d93          	li	s11,126
    701c:	920f906f          	j	13c <.LBB11_1>

0000000000007020 <.LBB11_772>:
    7020:	00000513          	li	a0,0
    7024:	80040113          	addi	sp,s0,-2048
    7028:	c4010113          	addi	sp,sp,-960
    702c:	3d010113          	addi	sp,sp,976
    7030:	7e813083          	ld	ra,2024(sp)
    7034:	7e013403          	ld	s0,2016(sp)
    7038:	7d813483          	ld	s1,2008(sp)
    703c:	7d013903          	ld	s2,2000(sp)
    7040:	7c813983          	ld	s3,1992(sp)
    7044:	7c013a03          	ld	s4,1984(sp)
    7048:	7b813a83          	ld	s5,1976(sp)
    704c:	7b013b03          	ld	s6,1968(sp)
    7050:	7a813b83          	ld	s7,1960(sp)
    7054:	7a013c03          	ld	s8,1952(sp)
    7058:	79813c83          	ld	s9,1944(sp)
    705c:	79013d03          	ld	s10,1936(sp)
    7060:	78813d83          	ld	s11,1928(sp)
    7064:	7f010113          	addi	sp,sp,2032
    7068:	00008067          	ret
