
code.o:     file format elf64-littleriscv


Disassembly of section .text.main_dispatch_137_matmul_49x320x960_i8xi8xi32:

0000000000000000 <main_dispatch_137_matmul_49x320x960_i8xi8xi32>:
       0:	81010113          	addi	sp,sp,-2032
       4:	7e113423          	sd	ra,2024(sp)
       8:	7e813023          	sd	s0,2016(sp)
       c:	7c913c23          	sd	s1,2008(sp)
      10:	7d213823          	sd	s2,2000(sp)
      14:	7d313423          	sd	s3,1992(sp)
      18:	7d413023          	sd	s4,1984(sp)
      1c:	7b513c23          	sd	s5,1976(sp)
      20:	7b613823          	sd	s6,1968(sp)
      24:	7b713423          	sd	s7,1960(sp)
      28:	7b813023          	sd	s8,1952(sp)
      2c:	79913c23          	sd	s9,1944(sp)
      30:	79a13823          	sd	s10,1936(sp)
      34:	79b13423          	sd	s11,1928(sp)
      38:	7f010413          	addi	s0,sp,2032
      3c:	80010113          	addi	sp,sp,-2048
      40:	b1010113          	addi	sp,sp,-1264
      44:	0205b583          	ld	a1,32(a1)
      48:	00000513          	li	a0,0
      4c:	0085b603          	ld	a2,8(a1)
      50:	0005b703          	ld	a4,0(a1)
      54:	001886b7          	lui	a3,0x188
      58:	e806869b          	addiw	a3,a3,-384 # 187e80 <.Lfunc_end80+0x15f4b8>
      5c:	00d60333          	add	t1,a2,a3
      60:	000116b7          	lui	a3,0x11
      64:	f806869b          	addiw	a3,a3,-128 # 10f80 <.LBB80_1933>
      68:	00d606b3          	add	a3,a2,a3
      6c:	000017b7          	lui	a5,0x1
      70:	40f407b3          	sub	a5,s0,a5
      74:	bad7b023          	sd	a3,-1120(a5) # ba0 <.LBB101_3+0x94c>
      78:	0000b6b7          	lui	a3,0xb
      7c:	7c06869b          	addiw	a3,a3,1984 # b7c0 <.LBB101_1410+0x8>
      80:	00d706b3          	add	a3,a4,a3
      84:	000017b7          	lui	a5,0x1
      88:	40f407b3          	sub	a5,s0,a5
      8c:	b2d7bc23          	sd	a3,-1224(a5) # b38 <.LBB101_3+0x8e4>
      90:	001d36b7          	lui	a3,0x1d3
      94:	e806869b          	addiw	a3,a3,-384 # 1d2e80 <.Lfunc_end80+0x1aa4b8>
      98:	0105b583          	ld	a1,16(a1)
      9c:	00d60633          	add	a2,a2,a3
      a0:	000016b7          	lui	a3,0x1
      a4:	40d406b3          	sub	a3,s0,a3
      a8:	b8c6bc23          	sd	a2,-1128(a3) # b98 <.LBB101_3+0x944>
      ac:	0000c637          	lui	a2,0xc
      b0:	8c06061b          	addiw	a2,a2,-1856 # b8c0 <.LBB101_1426+0x8>
      b4:	00c585b3          	add	a1,a1,a2
      b8:	00001637          	lui	a2,0x1
      bc:	40c40633          	sub	a2,s0,a2
      c0:	b4b63423          	sd	a1,-1208(a2) # b48 <.LBB101_3+0x8f4>
      c4:	000015b7          	lui	a1,0x1
      c8:	6805859b          	addiw	a1,a1,1664 # 1680 <.LBB101_5+0x230>
      cc:	00001637          	lui	a2,0x1
      d0:	40c40633          	sub	a2,s0,a2
      d4:	66b63023          	sd	a1,1632(a2) # 1660 <.LBB101_5+0x210>
      d8:	699b05b7          	lui	a1,0x699b0
      dc:	b425859b          	addiw	a1,a1,-1214 # 699afb42 <.Lfunc_end80+0x6998717a>
      e0:	00001637          	lui	a2,0x1
      e4:	40c40633          	sub	a2,s0,a2
      e8:	66b63423          	sd	a1,1640(a2) # 1668 <.LBB101_5+0x218>
      ec:	00100593          	li	a1,1
      f0:	02759593          	slli	a1,a1,0x27
      f4:	e6b43023          	sd	a1,-416(s0)
      f8:	00f00593          	li	a1,15
      fc:	00959593          	slli	a1,a1,0x9
     100:	00001637          	lui	a2,0x1
     104:	40c40633          	sub	a2,s0,a2
     108:	b2b63823          	sd	a1,-1232(a2) # b30 <.LBB101_3+0x8dc>
     10c:	000015b7          	lui	a1,0x1
     110:	40b405b3          	sub	a1,s0,a1
     114:	b2e5b423          	sd	a4,-1240(a1) # b28 <.LBB101_3+0x8d4>
     118:	000015b7          	lui	a1,0x1
     11c:	40b405b3          	sub	a1,s0,a1
     120:	bae5b423          	sd	a4,-1112(a1) # ba8 <.LBB101_3+0x954>
     124:	000015b7          	lui	a1,0x1
     128:	40b405b3          	sub	a1,s0,a1
     12c:	b465b823          	sd	t1,-1200(a1) # b50 <.LBB101_3+0x8fc>
     130:	0540006f          	j	184 <.LBB101_2>

0000000000000134 <.LBB101_1>:
     134:	00001537          	lui	a0,0x1
     138:	40a40533          	sub	a0,s0,a0
     13c:	b4053683          	ld	a3,-1216(a0) # b40 <.LBB101_3+0x8ec>
     140:	00868513          	addi	a0,a3,8
     144:	000015b7          	lui	a1,0x1
     148:	40b405b3          	sub	a1,s0,a1
     14c:	b305b583          	ld	a1,-1232(a1) # b30 <.LBB101_3+0x8dc>
     150:	00001637          	lui	a2,0x1
     154:	40c40633          	sub	a2,s0,a2
     158:	ba863603          	ld	a2,-1112(a2) # ba8 <.LBB101_3+0x954>
     15c:	00b60633          	add	a2,a2,a1
     160:	000015b7          	lui	a1,0x1
     164:	40b405b3          	sub	a1,s0,a1
     168:	bac5b423          	sd	a2,-1112(a1) # ba8 <.LBB101_3+0x954>
     16c:	000015b7          	lui	a1,0x1
     170:	40b405b3          	sub	a1,s0,a1
     174:	b505b303          	ld	t1,-1200(a1) # b50 <.LBB101_3+0x8fc>
     178:	02800593          	li	a1,40
     17c:	00b6e463          	bltu	a3,a1,184 <.LBB101_2>
     180:	5bd0b06f          	j	bf3c <.LBB101_1542>

0000000000000184 <.LBB101_2>:
     184:	00000593          	li	a1,0
     188:	00050693          	mv	a3,a0
     18c:	00251513          	slli	a0,a0,0x2
     190:	00001637          	lui	a2,0x1
     194:	40c40633          	sub	a2,s0,a2
     198:	b3863603          	ld	a2,-1224(a2) # b38 <.LBB101_3+0x8e4>
     19c:	00a60533          	add	a0,a2,a0
     1a0:	00001637          	lui	a2,0x1
     1a4:	40c40633          	sub	a2,s0,a2
     1a8:	64a63823          	sd	a0,1616(a2) # 1650 <.LBB101_5+0x200>
     1ac:	14000513          	li	a0,320
     1b0:	00001637          	lui	a2,0x1
     1b4:	40c40633          	sub	a2,s0,a2
     1b8:	b4d63023          	sd	a3,-1216(a2) # b40 <.LBB101_3+0x8ec>
     1bc:	02a68533          	mul	a0,a3,a0
     1c0:	00001637          	lui	a2,0x1
     1c4:	40c40633          	sub	a2,s0,a2
     1c8:	b4863603          	ld	a2,-1208(a2) # b48 <.LBB101_3+0x8f4>
     1cc:	00a60533          	add	a0,a2,a0
     1d0:	14050613          	addi	a2,a0,320
     1d4:	000016b7          	lui	a3,0x1
     1d8:	40d406b3          	sub	a3,s0,a3
     1dc:	b8c6b423          	sd	a2,-1144(a3) # b88 <.LBB101_3+0x934>
     1e0:	28050613          	addi	a2,a0,640
     1e4:	000016b7          	lui	a3,0x1
     1e8:	40d406b3          	sub	a3,s0,a3
     1ec:	b8c6b023          	sd	a2,-1152(a3) # b80 <.LBB101_3+0x92c>
     1f0:	3c050613          	addi	a2,a0,960
     1f4:	000016b7          	lui	a3,0x1
     1f8:	40d406b3          	sub	a3,s0,a3
     1fc:	b6c6bc23          	sd	a2,-1160(a3) # b78 <.LBB101_3+0x924>
     200:	50050613          	addi	a2,a0,1280
     204:	000016b7          	lui	a3,0x1
     208:	40d406b3          	sub	a3,s0,a3
     20c:	b6c6b823          	sd	a2,-1168(a3) # b70 <.LBB101_3+0x91c>
     210:	64050613          	addi	a2,a0,1600
     214:	000016b7          	lui	a3,0x1
     218:	40d406b3          	sub	a3,s0,a3
     21c:	b6c6b423          	sd	a2,-1176(a3) # b68 <.LBB101_3+0x914>
     220:	78050613          	addi	a2,a0,1920
     224:	000016b7          	lui	a3,0x1
     228:	40d406b3          	sub	a3,s0,a3
     22c:	b6c6b023          	sd	a2,-1184(a3) # b60 <.LBB101_3+0x90c>
     230:	00001637          	lui	a2,0x1
     234:	40c40633          	sub	a2,s0,a2
     238:	b8a63823          	sd	a0,-1136(a2) # b90 <.LBB101_3+0x93c>
     23c:	7ff50513          	addi	a0,a0,2047
     240:	0c150513          	addi	a0,a0,193
     244:	00001637          	lui	a2,0x1
     248:	40c40633          	sub	a2,s0,a2
     24c:	b4a63c23          	sd	a0,-1192(a2) # b58 <.LBB101_3+0x904>
     250:	45d0006f          	j	eac <.LBB101_4>

0000000000000254 <.LBB101_3>:
     254:	94143823          	sd	ra,-1712(s0)
     258:	d6043903          	ld	s2,-672(s0)
     25c:	00290913          	addi	s2,s2,2
     260:	00001eb7          	lui	t4,0x1
     264:	41d40eb3          	sub	t4,s0,t4
     268:	b90eb083          	ld	ra,-1136(t4) # b90 <.LBB101_3+0x93c>
     26c:	00001eb7          	lui	t4,0x1
     270:	41d40eb3          	sub	t4,s0,t4
     274:	658ebe83          	ld	t4,1624(t4) # 1658 <.LBB101_5+0x208>
     278:	01d080b3          	add	ra,ra,t4
     27c:	012081a3          	sb	s2,3(ra)
     280:	e4843903          	ld	s2,-440(s0)
     284:	00290913          	addi	s2,s2,2
     288:	01208123          	sb	s2,2(ra)
     28c:	e5843903          	ld	s2,-424(s0)
     290:	00290913          	addi	s2,s2,2
     294:	012080a3          	sb	s2,1(ra)
     298:	e7043903          	ld	s2,-400(s0)
     29c:	00290913          	addi	s2,s2,2
     2a0:	01208023          	sb	s2,0(ra)
     2a4:	e8043903          	ld	s2,-384(s0)
     2a8:	00290913          	addi	s2,s2,2
     2ac:	01208223          	sb	s2,4(ra)
     2b0:	e9043903          	ld	s2,-368(s0)
     2b4:	00290913          	addi	s2,s2,2
     2b8:	012082a3          	sb	s2,5(ra)
     2bc:	ea043903          	ld	s2,-352(s0)
     2c0:	00290913          	addi	s2,s2,2
     2c4:	01208323          	sb	s2,6(ra)
     2c8:	eb043903          	ld	s2,-336(s0)
     2cc:	00290913          	addi	s2,s2,2
     2d0:	012083a3          	sb	s2,7(ra)
     2d4:	ec043903          	ld	s2,-320(s0)
     2d8:	00290913          	addi	s2,s2,2
     2dc:	01208423          	sb	s2,8(ra)
     2e0:	ed043903          	ld	s2,-304(s0)
     2e4:	00290913          	addi	s2,s2,2
     2e8:	012084a3          	sb	s2,9(ra)
     2ec:	ee043903          	ld	s2,-288(s0)
     2f0:	00290913          	addi	s2,s2,2
     2f4:	01208523          	sb	s2,10(ra)
     2f8:	ee843903          	ld	s2,-280(s0)
     2fc:	00290913          	addi	s2,s2,2
     300:	012085a3          	sb	s2,11(ra)
     304:	ef043903          	ld	s2,-272(s0)
     308:	00290913          	addi	s2,s2,2
     30c:	01208623          	sb	s2,12(ra)
     310:	ef843903          	ld	s2,-264(s0)
     314:	00290913          	addi	s2,s2,2
     318:	012086a3          	sb	s2,13(ra)
     31c:	f0043903          	ld	s2,-256(s0)
     320:	00290913          	addi	s2,s2,2
     324:	01208723          	sb	s2,14(ra)
     328:	f0843903          	ld	s2,-248(s0)
     32c:	00290913          	addi	s2,s2,2
     330:	012087a3          	sb	s2,15(ra)
     334:	f1043903          	ld	s2,-240(s0)
     338:	00290913          	addi	s2,s2,2
     33c:	01208823          	sb	s2,16(ra)
     340:	f1843903          	ld	s2,-232(s0)
     344:	00290913          	addi	s2,s2,2
     348:	012088a3          	sb	s2,17(ra)
     34c:	f2043903          	ld	s2,-224(s0)
     350:	00290913          	addi	s2,s2,2
     354:	01208923          	sb	s2,18(ra)
     358:	f2843903          	ld	s2,-216(s0)
     35c:	00290913          	addi	s2,s2,2
     360:	012089a3          	sb	s2,19(ra)
     364:	f3043903          	ld	s2,-208(s0)
     368:	00290913          	addi	s2,s2,2
     36c:	01208a23          	sb	s2,20(ra)
     370:	f3843903          	ld	s2,-200(s0)
     374:	00290913          	addi	s2,s2,2
     378:	01208aa3          	sb	s2,21(ra)
     37c:	f4043903          	ld	s2,-192(s0)
     380:	00290913          	addi	s2,s2,2
     384:	01208b23          	sb	s2,22(ra)
     388:	f4843903          	ld	s2,-184(s0)
     38c:	00290913          	addi	s2,s2,2
     390:	01208ba3          	sb	s2,23(ra)
     394:	f5043903          	ld	s2,-176(s0)
     398:	00290913          	addi	s2,s2,2
     39c:	01208c23          	sb	s2,24(ra)
     3a0:	f5843903          	ld	s2,-168(s0)
     3a4:	00290913          	addi	s2,s2,2
     3a8:	01208ca3          	sb	s2,25(ra)
     3ac:	f6043903          	ld	s2,-160(s0)
     3b0:	00290913          	addi	s2,s2,2
     3b4:	01208d23          	sb	s2,26(ra)
     3b8:	f6843903          	ld	s2,-152(s0)
     3bc:	00290913          	addi	s2,s2,2
     3c0:	01208da3          	sb	s2,27(ra)
     3c4:	f7043903          	ld	s2,-144(s0)
     3c8:	00290913          	addi	s2,s2,2
     3cc:	01208e23          	sb	s2,28(ra)
     3d0:	f7843903          	ld	s2,-136(s0)
     3d4:	00290913          	addi	s2,s2,2
     3d8:	01208ea3          	sb	s2,29(ra)
     3dc:	f8043903          	ld	s2,-128(s0)
     3e0:	00290913          	addi	s2,s2,2
     3e4:	01208f23          	sb	s2,30(ra)
     3e8:	f8843903          	ld	s2,-120(s0)
     3ec:	00290913          	addi	s2,s2,2
     3f0:	01208fa3          	sb	s2,31(ra)
     3f4:	d3843083          	ld	ra,-712(s0)
     3f8:	00208093          	addi	ra,ra,2
     3fc:	00001937          	lui	s2,0x1
     400:	41240933          	sub	s2,s0,s2
     404:	b8893903          	ld	s2,-1144(s2) # b88 <.LBB101_3+0x934>
     408:	01d90933          	add	s2,s2,t4
     40c:	001901a3          	sb	ra,3(s2)
     410:	d4843083          	ld	ra,-696(s0)
     414:	00208093          	addi	ra,ra,2
     418:	00190123          	sb	ra,2(s2)
     41c:	d5843083          	ld	ra,-680(s0)
     420:	00208093          	addi	ra,ra,2
     424:	001900a3          	sb	ra,1(s2)
     428:	d7043083          	ld	ra,-656(s0)
     42c:	00208093          	addi	ra,ra,2
     430:	00190023          	sb	ra,0(s2)
     434:	d8043083          	ld	ra,-640(s0)
     438:	00208093          	addi	ra,ra,2
     43c:	00190223          	sb	ra,4(s2)
     440:	d9043083          	ld	ra,-624(s0)
     444:	00208093          	addi	ra,ra,2
     448:	001902a3          	sb	ra,5(s2)
     44c:	da043083          	ld	ra,-608(s0)
     450:	00208093          	addi	ra,ra,2
     454:	00190323          	sb	ra,6(s2)
     458:	db043083          	ld	ra,-592(s0)
     45c:	00208093          	addi	ra,ra,2
     460:	001903a3          	sb	ra,7(s2)
     464:	dc043083          	ld	ra,-576(s0)
     468:	00208093          	addi	ra,ra,2
     46c:	00190423          	sb	ra,8(s2)
     470:	dd043083          	ld	ra,-560(s0)
     474:	00208093          	addi	ra,ra,2
     478:	001904a3          	sb	ra,9(s2)
     47c:	de043083          	ld	ra,-544(s0)
     480:	00208093          	addi	ra,ra,2
     484:	00190523          	sb	ra,10(s2)
     488:	de843083          	ld	ra,-536(s0)
     48c:	00208093          	addi	ra,ra,2
     490:	001905a3          	sb	ra,11(s2)
     494:	df043083          	ld	ra,-528(s0)
     498:	00208093          	addi	ra,ra,2
     49c:	00190623          	sb	ra,12(s2)
     4a0:	df843083          	ld	ra,-520(s0)
     4a4:	00208093          	addi	ra,ra,2
     4a8:	001906a3          	sb	ra,13(s2)
     4ac:	e0043083          	ld	ra,-512(s0)
     4b0:	00208093          	addi	ra,ra,2
     4b4:	00190723          	sb	ra,14(s2)
     4b8:	e0843083          	ld	ra,-504(s0)
     4bc:	00208093          	addi	ra,ra,2
     4c0:	001907a3          	sb	ra,15(s2)
     4c4:	e1043083          	ld	ra,-496(s0)
     4c8:	00208093          	addi	ra,ra,2
     4cc:	00190823          	sb	ra,16(s2)
     4d0:	e1843083          	ld	ra,-488(s0)
     4d4:	00208093          	addi	ra,ra,2
     4d8:	001908a3          	sb	ra,17(s2)
     4dc:	e2043083          	ld	ra,-480(s0)
     4e0:	00208093          	addi	ra,ra,2
     4e4:	00190923          	sb	ra,18(s2)
     4e8:	e2843083          	ld	ra,-472(s0)
     4ec:	00208093          	addi	ra,ra,2
     4f0:	001909a3          	sb	ra,19(s2)
     4f4:	e3043083          	ld	ra,-464(s0)
     4f8:	00208093          	addi	ra,ra,2
     4fc:	00190a23          	sb	ra,20(s2)
     500:	e3843083          	ld	ra,-456(s0)
     504:	00208093          	addi	ra,ra,2
     508:	00190aa3          	sb	ra,21(s2)
     50c:	e4043083          	ld	ra,-448(s0)
     510:	00208093          	addi	ra,ra,2
     514:	00190b23          	sb	ra,22(s2)
     518:	e5043083          	ld	ra,-432(s0)
     51c:	00208093          	addi	ra,ra,2
     520:	00190ba3          	sb	ra,23(s2)
     524:	e6843083          	ld	ra,-408(s0)
     528:	00208093          	addi	ra,ra,2
     52c:	00190c23          	sb	ra,24(s2)
     530:	e7843083          	ld	ra,-392(s0)
     534:	00208093          	addi	ra,ra,2
     538:	00190ca3          	sb	ra,25(s2)
     53c:	e8843083          	ld	ra,-376(s0)
     540:	00208093          	addi	ra,ra,2
     544:	00190d23          	sb	ra,26(s2)
     548:	e9843083          	ld	ra,-360(s0)
     54c:	00208093          	addi	ra,ra,2
     550:	00190da3          	sb	ra,27(s2)
     554:	ea843083          	ld	ra,-344(s0)
     558:	00208093          	addi	ra,ra,2
     55c:	00190e23          	sb	ra,28(s2)
     560:	eb843083          	ld	ra,-328(s0)
     564:	00208093          	addi	ra,ra,2
     568:	00190ea3          	sb	ra,29(s2)
     56c:	ec843083          	ld	ra,-312(s0)
     570:	00208093          	addi	ra,ra,2
     574:	00190f23          	sb	ra,30(s2)
     578:	ed843083          	ld	ra,-296(s0)
     57c:	00208093          	addi	ra,ra,2
     580:	00190fa3          	sb	ra,31(s2)
     584:	c3843083          	ld	ra,-968(s0)
     588:	00208093          	addi	ra,ra,2
     58c:	00001937          	lui	s2,0x1
     590:	41240933          	sub	s2,s0,s2
     594:	b8093903          	ld	s2,-1152(s2) # b80 <.LBB101_3+0x92c>
     598:	01d90933          	add	s2,s2,t4
     59c:	001901a3          	sb	ra,3(s2)
     5a0:	c4843083          	ld	ra,-952(s0)
     5a4:	00208093          	addi	ra,ra,2
     5a8:	00190123          	sb	ra,2(s2)
     5ac:	c5843083          	ld	ra,-936(s0)
     5b0:	00208093          	addi	ra,ra,2
     5b4:	001900a3          	sb	ra,1(s2)
     5b8:	c6843083          	ld	ra,-920(s0)
     5bc:	00208093          	addi	ra,ra,2
     5c0:	00190023          	sb	ra,0(s2)
     5c4:	c7843083          	ld	ra,-904(s0)
     5c8:	00208093          	addi	ra,ra,2
     5cc:	00190223          	sb	ra,4(s2)
     5d0:	c8843083          	ld	ra,-888(s0)
     5d4:	00208093          	addi	ra,ra,2
     5d8:	001902a3          	sb	ra,5(s2)
     5dc:	c9843083          	ld	ra,-872(s0)
     5e0:	00208093          	addi	ra,ra,2
     5e4:	00190323          	sb	ra,6(s2)
     5e8:	ca843083          	ld	ra,-856(s0)
     5ec:	00208093          	addi	ra,ra,2
     5f0:	001903a3          	sb	ra,7(s2)
     5f4:	cb843083          	ld	ra,-840(s0)
     5f8:	00208093          	addi	ra,ra,2
     5fc:	00190423          	sb	ra,8(s2)
     600:	cc843083          	ld	ra,-824(s0)
     604:	00208093          	addi	ra,ra,2
     608:	001904a3          	sb	ra,9(s2)
     60c:	cd843083          	ld	ra,-808(s0)
     610:	00208093          	addi	ra,ra,2
     614:	00190523          	sb	ra,10(s2)
     618:	ce043083          	ld	ra,-800(s0)
     61c:	00208093          	addi	ra,ra,2
     620:	001905a3          	sb	ra,11(s2)
     624:	ce843083          	ld	ra,-792(s0)
     628:	00208093          	addi	ra,ra,2
     62c:	00190623          	sb	ra,12(s2)
     630:	cf043083          	ld	ra,-784(s0)
     634:	00208093          	addi	ra,ra,2
     638:	001906a3          	sb	ra,13(s2)
     63c:	cf843083          	ld	ra,-776(s0)
     640:	00208093          	addi	ra,ra,2
     644:	00190723          	sb	ra,14(s2)
     648:	d0043083          	ld	ra,-768(s0)
     64c:	00208093          	addi	ra,ra,2
     650:	001907a3          	sb	ra,15(s2)
     654:	d0843083          	ld	ra,-760(s0)
     658:	00208093          	addi	ra,ra,2
     65c:	00190823          	sb	ra,16(s2)
     660:	d1043083          	ld	ra,-752(s0)
     664:	00208093          	addi	ra,ra,2
     668:	001908a3          	sb	ra,17(s2)
     66c:	d1843083          	ld	ra,-744(s0)
     670:	00208093          	addi	ra,ra,2
     674:	00190923          	sb	ra,18(s2)
     678:	d2043083          	ld	ra,-736(s0)
     67c:	00208093          	addi	ra,ra,2
     680:	001909a3          	sb	ra,19(s2)
     684:	d2843083          	ld	ra,-728(s0)
     688:	00208093          	addi	ra,ra,2
     68c:	00190a23          	sb	ra,20(s2)
     690:	d3043083          	ld	ra,-720(s0)
     694:	00208093          	addi	ra,ra,2
     698:	00190aa3          	sb	ra,21(s2)
     69c:	d4043083          	ld	ra,-704(s0)
     6a0:	00208093          	addi	ra,ra,2
     6a4:	00190b23          	sb	ra,22(s2)
     6a8:	d5043083          	ld	ra,-688(s0)
     6ac:	00208093          	addi	ra,ra,2
     6b0:	00190ba3          	sb	ra,23(s2)
     6b4:	d6843083          	ld	ra,-664(s0)
     6b8:	00208093          	addi	ra,ra,2
     6bc:	00190c23          	sb	ra,24(s2)
     6c0:	d7843083          	ld	ra,-648(s0)
     6c4:	00208093          	addi	ra,ra,2
     6c8:	00190ca3          	sb	ra,25(s2)
     6cc:	d8843083          	ld	ra,-632(s0)
     6d0:	00208093          	addi	ra,ra,2
     6d4:	00190d23          	sb	ra,26(s2)
     6d8:	d9843083          	ld	ra,-616(s0)
     6dc:	00208093          	addi	ra,ra,2
     6e0:	00190da3          	sb	ra,27(s2)
     6e4:	da843083          	ld	ra,-600(s0)
     6e8:	00208093          	addi	ra,ra,2
     6ec:	00190e23          	sb	ra,28(s2)
     6f0:	db843083          	ld	ra,-584(s0)
     6f4:	00208093          	addi	ra,ra,2
     6f8:	00190ea3          	sb	ra,29(s2)
     6fc:	dc843083          	ld	ra,-568(s0)
     700:	00208093          	addi	ra,ra,2
     704:	00190f23          	sb	ra,30(s2)
     708:	dd843083          	ld	ra,-552(s0)
     70c:	00208093          	addi	ra,ra,2
     710:	00190fa3          	sb	ra,31(s2)
     714:	b3843083          	ld	ra,-1224(s0)
     718:	00208093          	addi	ra,ra,2
     71c:	00001937          	lui	s2,0x1
     720:	41240933          	sub	s2,s0,s2
     724:	b7893903          	ld	s2,-1160(s2) # b78 <.LBB101_3+0x924>
     728:	01d90933          	add	s2,s2,t4
     72c:	001901a3          	sb	ra,3(s2)
     730:	b4843083          	ld	ra,-1208(s0)
     734:	00208093          	addi	ra,ra,2
     738:	00190123          	sb	ra,2(s2)
     73c:	b5843083          	ld	ra,-1192(s0)
     740:	00208093          	addi	ra,ra,2
     744:	001900a3          	sb	ra,1(s2)
     748:	b6843083          	ld	ra,-1176(s0)
     74c:	00208093          	addi	ra,ra,2
     750:	00190023          	sb	ra,0(s2)
     754:	b7843083          	ld	ra,-1160(s0)
     758:	00208093          	addi	ra,ra,2
     75c:	00190223          	sb	ra,4(s2)
     760:	b8843083          	ld	ra,-1144(s0)
     764:	00208093          	addi	ra,ra,2
     768:	001902a3          	sb	ra,5(s2)
     76c:	b9843083          	ld	ra,-1128(s0)
     770:	00208093          	addi	ra,ra,2
     774:	00190323          	sb	ra,6(s2)
     778:	ba843083          	ld	ra,-1112(s0)
     77c:	00208093          	addi	ra,ra,2
     780:	001903a3          	sb	ra,7(s2)
     784:	bb843083          	ld	ra,-1096(s0)
     788:	00208093          	addi	ra,ra,2
     78c:	00190423          	sb	ra,8(s2)
     790:	bc843083          	ld	ra,-1080(s0)
     794:	00208093          	addi	ra,ra,2
     798:	001904a3          	sb	ra,9(s2)
     79c:	bd843083          	ld	ra,-1064(s0)
     7a0:	00208093          	addi	ra,ra,2
     7a4:	00190523          	sb	ra,10(s2)
     7a8:	be043083          	ld	ra,-1056(s0)
     7ac:	00208093          	addi	ra,ra,2
     7b0:	001905a3          	sb	ra,11(s2)
     7b4:	be843083          	ld	ra,-1048(s0)
     7b8:	00208093          	addi	ra,ra,2
     7bc:	00190623          	sb	ra,12(s2)
     7c0:	bf043083          	ld	ra,-1040(s0)
     7c4:	00208093          	addi	ra,ra,2
     7c8:	001906a3          	sb	ra,13(s2)
     7cc:	bf843083          	ld	ra,-1032(s0)
     7d0:	00208093          	addi	ra,ra,2
     7d4:	00190723          	sb	ra,14(s2)
     7d8:	c0043083          	ld	ra,-1024(s0)
     7dc:	00208093          	addi	ra,ra,2
     7e0:	001907a3          	sb	ra,15(s2)
     7e4:	c0843083          	ld	ra,-1016(s0)
     7e8:	00208093          	addi	ra,ra,2
     7ec:	00190823          	sb	ra,16(s2)
     7f0:	c1043083          	ld	ra,-1008(s0)
     7f4:	00208093          	addi	ra,ra,2
     7f8:	001908a3          	sb	ra,17(s2)
     7fc:	c1843083          	ld	ra,-1000(s0)
     800:	00208093          	addi	ra,ra,2
     804:	00190923          	sb	ra,18(s2)
     808:	c2043083          	ld	ra,-992(s0)
     80c:	00208093          	addi	ra,ra,2
     810:	001909a3          	sb	ra,19(s2)
     814:	c2843083          	ld	ra,-984(s0)
     818:	00208093          	addi	ra,ra,2
     81c:	00190a23          	sb	ra,20(s2)
     820:	c3043083          	ld	ra,-976(s0)
     824:	00208093          	addi	ra,ra,2
     828:	00190aa3          	sb	ra,21(s2)
     82c:	c4043083          	ld	ra,-960(s0)
     830:	00208093          	addi	ra,ra,2
     834:	00190b23          	sb	ra,22(s2)
     838:	c5043083          	ld	ra,-944(s0)
     83c:	00208093          	addi	ra,ra,2
     840:	00190ba3          	sb	ra,23(s2)
     844:	c6043083          	ld	ra,-928(s0)
     848:	00208093          	addi	ra,ra,2
     84c:	00190c23          	sb	ra,24(s2)
     850:	c7043083          	ld	ra,-912(s0)
     854:	00208093          	addi	ra,ra,2
     858:	00190ca3          	sb	ra,25(s2)
     85c:	c8043083          	ld	ra,-896(s0)
     860:	00208093          	addi	ra,ra,2
     864:	00190d23          	sb	ra,26(s2)
     868:	c9043083          	ld	ra,-880(s0)
     86c:	00208093          	addi	ra,ra,2
     870:	00190da3          	sb	ra,27(s2)
     874:	ca043083          	ld	ra,-864(s0)
     878:	00208093          	addi	ra,ra,2
     87c:	00190e23          	sb	ra,28(s2)
     880:	cb043083          	ld	ra,-848(s0)
     884:	00208093          	addi	ra,ra,2
     888:	00190ea3          	sb	ra,29(s2)
     88c:	cc043083          	ld	ra,-832(s0)
     890:	00208093          	addi	ra,ra,2
     894:	00190f23          	sb	ra,30(s2)
     898:	cd043083          	ld	ra,-816(s0)
     89c:	00208093          	addi	ra,ra,2
     8a0:	00190fa3          	sb	ra,31(s2)
     8a4:	a3843083          	ld	ra,-1480(s0)
     8a8:	00208093          	addi	ra,ra,2
     8ac:	00001937          	lui	s2,0x1
     8b0:	41240933          	sub	s2,s0,s2
     8b4:	b7093903          	ld	s2,-1168(s2) # b70 <.LBB101_3+0x91c>
     8b8:	01d90933          	add	s2,s2,t4
     8bc:	001901a3          	sb	ra,3(s2)
     8c0:	a4843083          	ld	ra,-1464(s0)
     8c4:	00208093          	addi	ra,ra,2
     8c8:	00190123          	sb	ra,2(s2)
     8cc:	a5843083          	ld	ra,-1448(s0)
     8d0:	00208093          	addi	ra,ra,2
     8d4:	001900a3          	sb	ra,1(s2)
     8d8:	a6843083          	ld	ra,-1432(s0)
     8dc:	00208093          	addi	ra,ra,2
     8e0:	00190023          	sb	ra,0(s2)
     8e4:	a7843083          	ld	ra,-1416(s0)
     8e8:	00208093          	addi	ra,ra,2
     8ec:	00190223          	sb	ra,4(s2)
     8f0:	a8843083          	ld	ra,-1400(s0)
     8f4:	00208093          	addi	ra,ra,2
     8f8:	001902a3          	sb	ra,5(s2)
     8fc:	a9843083          	ld	ra,-1384(s0)
     900:	00208093          	addi	ra,ra,2
     904:	00190323          	sb	ra,6(s2)
     908:	aa843083          	ld	ra,-1368(s0)
     90c:	00208093          	addi	ra,ra,2
     910:	001903a3          	sb	ra,7(s2)
     914:	ab843083          	ld	ra,-1352(s0)
     918:	00208093          	addi	ra,ra,2
     91c:	00190423          	sb	ra,8(s2)
     920:	ac843083          	ld	ra,-1336(s0)
     924:	00208093          	addi	ra,ra,2
     928:	001904a3          	sb	ra,9(s2)
     92c:	ad843083          	ld	ra,-1320(s0)
     930:	00208093          	addi	ra,ra,2
     934:	00190523          	sb	ra,10(s2)
     938:	ae043083          	ld	ra,-1312(s0)
     93c:	00208093          	addi	ra,ra,2
     940:	001905a3          	sb	ra,11(s2)
     944:	ae843083          	ld	ra,-1304(s0)
     948:	00208093          	addi	ra,ra,2
     94c:	00190623          	sb	ra,12(s2)
     950:	af043083          	ld	ra,-1296(s0)
     954:	00208093          	addi	ra,ra,2
     958:	001906a3          	sb	ra,13(s2)
     95c:	af843083          	ld	ra,-1288(s0)
     960:	00208093          	addi	ra,ra,2
     964:	00190723          	sb	ra,14(s2)
     968:	b0043083          	ld	ra,-1280(s0)
     96c:	00208093          	addi	ra,ra,2
     970:	001907a3          	sb	ra,15(s2)
     974:	b0843083          	ld	ra,-1272(s0)
     978:	00208093          	addi	ra,ra,2
     97c:	00190823          	sb	ra,16(s2)
     980:	b1043083          	ld	ra,-1264(s0)
     984:	00208093          	addi	ra,ra,2
     988:	001908a3          	sb	ra,17(s2)
     98c:	b1843083          	ld	ra,-1256(s0)
     990:	00208093          	addi	ra,ra,2
     994:	00190923          	sb	ra,18(s2)
     998:	b2043083          	ld	ra,-1248(s0)
     99c:	00208093          	addi	ra,ra,2
     9a0:	001909a3          	sb	ra,19(s2)
     9a4:	b2843083          	ld	ra,-1240(s0)
     9a8:	00208093          	addi	ra,ra,2
     9ac:	00190a23          	sb	ra,20(s2)
     9b0:	b3043083          	ld	ra,-1232(s0)
     9b4:	00208093          	addi	ra,ra,2
     9b8:	00190aa3          	sb	ra,21(s2)
     9bc:	b4043083          	ld	ra,-1216(s0)
     9c0:	00208093          	addi	ra,ra,2
     9c4:	00190b23          	sb	ra,22(s2)
     9c8:	b5043083          	ld	ra,-1200(s0)
     9cc:	00208093          	addi	ra,ra,2
     9d0:	00190ba3          	sb	ra,23(s2)
     9d4:	b6043083          	ld	ra,-1184(s0)
     9d8:	00208093          	addi	ra,ra,2
     9dc:	00190c23          	sb	ra,24(s2)
     9e0:	b7043083          	ld	ra,-1168(s0)
     9e4:	00208093          	addi	ra,ra,2
     9e8:	00190ca3          	sb	ra,25(s2)
     9ec:	b8043083          	ld	ra,-1152(s0)
     9f0:	00208093          	addi	ra,ra,2
     9f4:	00190d23          	sb	ra,26(s2)
     9f8:	b9043083          	ld	ra,-1136(s0)
     9fc:	00208093          	addi	ra,ra,2
     a00:	00190da3          	sb	ra,27(s2)
     a04:	ba043083          	ld	ra,-1120(s0)
     a08:	00208093          	addi	ra,ra,2
     a0c:	00190e23          	sb	ra,28(s2)
     a10:	bb043083          	ld	ra,-1104(s0)
     a14:	00208093          	addi	ra,ra,2
     a18:	00190ea3          	sb	ra,29(s2)
     a1c:	bc043083          	ld	ra,-1088(s0)
     a20:	00208093          	addi	ra,ra,2
     a24:	00190f23          	sb	ra,30(s2)
     a28:	bd043083          	ld	ra,-1072(s0)
     a2c:	00208093          	addi	ra,ra,2
     a30:	00190fa3          	sb	ra,31(s2)
     a34:	9b843083          	ld	ra,-1608(s0)
     a38:	00208093          	addi	ra,ra,2
     a3c:	00001937          	lui	s2,0x1
     a40:	41240933          	sub	s2,s0,s2
     a44:	b6893903          	ld	s2,-1176(s2) # b68 <.LBB101_3+0x914>
     a48:	01d90933          	add	s2,s2,t4
     a4c:	001901a3          	sb	ra,3(s2)
     a50:	00298093          	addi	ra,s3,2
     a54:	00190123          	sb	ra,2(s2)
     a58:	002d0093          	addi	ra,s10,2
     a5c:	001900a3          	sb	ra,1(s2)
     a60:	002c0093          	addi	ra,s8,2
     a64:	00190023          	sb	ra,0(s2)
     a68:	002a0093          	addi	ra,s4,2
     a6c:	00190223          	sb	ra,4(s2)
     a70:	00248093          	addi	ra,s1,2
     a74:	001902a3          	sb	ra,5(s2)
     a78:	00268093          	addi	ra,a3,2
     a7c:	00190323          	sb	ra,6(s2)
     a80:	00228093          	addi	ra,t0,2
     a84:	001903a3          	sb	ra,7(s2)
     a88:	00250093          	addi	ra,a0,2
     a8c:	00190423          	sb	ra,8(s2)
     a90:	9c843083          	ld	ra,-1592(s0)
     a94:	00208093          	addi	ra,ra,2
     a98:	001904a3          	sb	ra,9(s2)
     a9c:	9d843083          	ld	ra,-1576(s0)
     aa0:	00208093          	addi	ra,ra,2
     aa4:	00190523          	sb	ra,10(s2)
     aa8:	9e043083          	ld	ra,-1568(s0)
     aac:	00208093          	addi	ra,ra,2
     ab0:	001905a3          	sb	ra,11(s2)
     ab4:	9e843083          	ld	ra,-1560(s0)
     ab8:	00208093          	addi	ra,ra,2
     abc:	00190623          	sb	ra,12(s2)
     ac0:	9f043083          	ld	ra,-1552(s0)
     ac4:	00208093          	addi	ra,ra,2
     ac8:	001906a3          	sb	ra,13(s2)
     acc:	9f843083          	ld	ra,-1544(s0)
     ad0:	00208093          	addi	ra,ra,2
     ad4:	00190723          	sb	ra,14(s2)
     ad8:	a0043083          	ld	ra,-1536(s0)
     adc:	00208093          	addi	ra,ra,2
     ae0:	001907a3          	sb	ra,15(s2)
     ae4:	a0843083          	ld	ra,-1528(s0)
     ae8:	00208093          	addi	ra,ra,2
     aec:	00190823          	sb	ra,16(s2)
     af0:	a1043083          	ld	ra,-1520(s0)
     af4:	00208093          	addi	ra,ra,2
     af8:	001908a3          	sb	ra,17(s2)
     afc:	a1843083          	ld	ra,-1512(s0)
     b00:	00208093          	addi	ra,ra,2
     b04:	00190923          	sb	ra,18(s2)
     b08:	a2043083          	ld	ra,-1504(s0)
     b0c:	00208093          	addi	ra,ra,2
     b10:	001909a3          	sb	ra,19(s2)
     b14:	a2843083          	ld	ra,-1496(s0)
     b18:	00208093          	addi	ra,ra,2
     b1c:	00190a23          	sb	ra,20(s2)
     b20:	a3043083          	ld	ra,-1488(s0)
     b24:	00208093          	addi	ra,ra,2
     b28:	00190aa3          	sb	ra,21(s2)
     b2c:	a4043083          	ld	ra,-1472(s0)
     b30:	00208093          	addi	ra,ra,2
     b34:	00190b23          	sb	ra,22(s2)
     b38:	a5043083          	ld	ra,-1456(s0)
     b3c:	00208093          	addi	ra,ra,2
     b40:	00190ba3          	sb	ra,23(s2)
     b44:	a6043083          	ld	ra,-1440(s0)
     b48:	00208093          	addi	ra,ra,2
     b4c:	00190c23          	sb	ra,24(s2)
     b50:	a7043083          	ld	ra,-1424(s0)
     b54:	00208093          	addi	ra,ra,2
     b58:	00190ca3          	sb	ra,25(s2)
     b5c:	a8043083          	ld	ra,-1408(s0)
     b60:	00208093          	addi	ra,ra,2
     b64:	00190d23          	sb	ra,26(s2)
     b68:	a9043083          	ld	ra,-1392(s0)
     b6c:	00208093          	addi	ra,ra,2
     b70:	00190da3          	sb	ra,27(s2)
     b74:	aa043083          	ld	ra,-1376(s0)
     b78:	00208093          	addi	ra,ra,2
     b7c:	00190e23          	sb	ra,28(s2)
     b80:	ab043083          	ld	ra,-1360(s0)
     b84:	00208093          	addi	ra,ra,2
     b88:	00190ea3          	sb	ra,29(s2)
     b8c:	ac043083          	ld	ra,-1344(s0)
     b90:	00208093          	addi	ra,ra,2
     b94:	00190f23          	sb	ra,30(s2)
     b98:	ad043083          	ld	ra,-1328(s0)
     b9c:	00208093          	addi	ra,ra,2
     ba0:	00190fa3          	sb	ra,31(s2)
     ba4:	8b843903          	ld	s2,-1864(s0)
     ba8:	00290913          	addi	s2,s2,2
     bac:	00001537          	lui	a0,0x1
     bb0:	40a40533          	sub	a0,s0,a0
     bb4:	b6053283          	ld	t0,-1184(a0) # b60 <.LBB101_3+0x90c>
     bb8:	000e8513          	mv	a0,t4
     bbc:	01d282b3          	add	t0,t0,t4
     bc0:	012281a3          	sb	s2,3(t0)
     bc4:	8c843e83          	ld	t4,-1848(s0)
     bc8:	002e8e93          	addi	t4,t4,2
     bcc:	01d28123          	sb	t4,2(t0)
     bd0:	8d843e83          	ld	t4,-1832(s0)
     bd4:	002e8e93          	addi	t4,t4,2
     bd8:	01d280a3          	sb	t4,1(t0)
     bdc:	8e843e83          	ld	t4,-1816(s0)
     be0:	002e8e93          	addi	t4,t4,2
     be4:	01d28023          	sb	t4,0(t0)
     be8:	8f843e83          	ld	t4,-1800(s0)
     bec:	002e8e93          	addi	t4,t4,2
     bf0:	01d28223          	sb	t4,4(t0)
     bf4:	90843e83          	ld	t4,-1784(s0)
     bf8:	002e8e93          	addi	t4,t4,2
     bfc:	01d282a3          	sb	t4,5(t0)
     c00:	91843e83          	ld	t4,-1768(s0)
     c04:	002e8e93          	addi	t4,t4,2
     c08:	01d28323          	sb	t4,6(t0)
     c0c:	92843e83          	ld	t4,-1752(s0)
     c10:	002e8e93          	addi	t4,t4,2
     c14:	01d283a3          	sb	t4,7(t0)
     c18:	93843e83          	ld	t4,-1736(s0)
     c1c:	002e8e93          	addi	t4,t4,2
     c20:	01d28423          	sb	t4,8(t0)
     c24:	94843e83          	ld	t4,-1720(s0)
     c28:	002e8e93          	addi	t4,t4,2
     c2c:	01d284a3          	sb	t4,9(t0)
     c30:	95843e83          	ld	t4,-1704(s0)
     c34:	002e8e93          	addi	t4,t4,2
     c38:	01d28523          	sb	t4,10(t0)
     c3c:	96043e83          	ld	t4,-1696(s0)
     c40:	002e8e93          	addi	t4,t4,2
     c44:	01d285a3          	sb	t4,11(t0)
     c48:	96843e83          	ld	t4,-1688(s0)
     c4c:	002e8e93          	addi	t4,t4,2
     c50:	01d28623          	sb	t4,12(t0)
     c54:	97043e83          	ld	t4,-1680(s0)
     c58:	002e8e93          	addi	t4,t4,2
     c5c:	01d286a3          	sb	t4,13(t0)
     c60:	97843e83          	ld	t4,-1672(s0)
     c64:	002e8e93          	addi	t4,t4,2
     c68:	01d28723          	sb	t4,14(t0)
     c6c:	98043e83          	ld	t4,-1664(s0)
     c70:	002e8e93          	addi	t4,t4,2
     c74:	01d287a3          	sb	t4,15(t0)
     c78:	98843e83          	ld	t4,-1656(s0)
     c7c:	002e8e93          	addi	t4,t4,2
     c80:	01d28823          	sb	t4,16(t0)
     c84:	99043e83          	ld	t4,-1648(s0)
     c88:	002e8e93          	addi	t4,t4,2
     c8c:	01d288a3          	sb	t4,17(t0)
     c90:	99843e83          	ld	t4,-1640(s0)
     c94:	002e8e93          	addi	t4,t4,2
     c98:	01d28923          	sb	t4,18(t0)
     c9c:	9a043e83          	ld	t4,-1632(s0)
     ca0:	002e8e93          	addi	t4,t4,2
     ca4:	01d289a3          	sb	t4,19(t0)
     ca8:	9a843e83          	ld	t4,-1624(s0)
     cac:	002e8e93          	addi	t4,t4,2
     cb0:	01d28a23          	sb	t4,20(t0)
     cb4:	9b043e83          	ld	t4,-1616(s0)
     cb8:	002e8e93          	addi	t4,t4,2
     cbc:	01d28aa3          	sb	t4,21(t0)
     cc0:	002d8e93          	addi	t4,s11,2
     cc4:	01d28b23          	sb	t4,22(t0)
     cc8:	002f8e93          	addi	t4,t6,2
     ccc:	01d28ba3          	sb	t4,23(t0)
     cd0:	00288e93          	addi	t4,a7,2
     cd4:	01d28c23          	sb	t4,24(t0)
     cd8:	002b8e93          	addi	t4,s7,2
     cdc:	01d28ca3          	sb	t4,25(t0)
     ce0:	002e0e93          	addi	t4,t3,2
     ce4:	01d28d23          	sb	t4,26(t0)
     ce8:	00238e93          	addi	t4,t2,2
     cec:	01d28da3          	sb	t4,27(t0)
     cf0:	00230e93          	addi	t4,t1,2
     cf4:	01d28e23          	sb	t4,28(t0)
     cf8:	84843e83          	ld	t4,-1976(s0)
     cfc:	002e8e93          	addi	t4,t4,2
     d00:	01d28ea3          	sb	t4,29(t0)
     d04:	9c043e83          	ld	t4,-1600(s0)
     d08:	002e8e93          	addi	t4,t4,2
     d0c:	01d28f23          	sb	t4,30(t0)
     d10:	9d043e83          	ld	t4,-1584(s0)
     d14:	002e8e93          	addi	t4,t4,2
     d18:	01d28fa3          	sb	t4,31(t0)
     d1c:	00278293          	addi	t0,a5,2
     d20:	000016b7          	lui	a3,0x1
     d24:	40d406b3          	sub	a3,s0,a3
     d28:	b586b783          	ld	a5,-1192(a3) # b58 <.LBB101_3+0x904>
     d2c:	00a787b3          	add	a5,a5,a0
     d30:	00050e93          	mv	t4,a0
     d34:	005781a3          	sb	t0,3(a5)
     d38:	002f0f13          	addi	t5,t5,2
     d3c:	01e78123          	sb	t5,2(a5)
     d40:	00280813          	addi	a6,a6,2
     d44:	010780a3          	sb	a6,1(a5)
     d48:	00260d93          	addi	s11,a2,2
     d4c:	01b78023          	sb	s11,0(a5)
     d50:	00270713          	addi	a4,a4,2
     d54:	00e78223          	sb	a4,4(a5)
     d58:	00258993          	addi	s3,a1,2
     d5c:	013782a3          	sb	s3,5(a5)
     d60:	002b0f93          	addi	t6,s6,2
     d64:	01f78323          	sb	t6,6(a5)
     d68:	002a8d13          	addi	s10,s5,2
     d6c:	01a783a3          	sb	s10,7(a5)
     d70:	002c8c93          	addi	s9,s9,2
     d74:	01978423          	sb	s9,8(a5)
     d78:	85043c03          	ld	s8,-1968(s0)
     d7c:	002c0c13          	addi	s8,s8,2
     d80:	018784a3          	sb	s8,9(a5)
     d84:	85843b83          	ld	s7,-1960(s0)
     d88:	002b8b93          	addi	s7,s7,2
     d8c:	01778523          	sb	s7,10(a5)
     d90:	86043b03          	ld	s6,-1952(s0)
     d94:	002b0b13          	addi	s6,s6,2
     d98:	016785a3          	sb	s6,11(a5)
     d9c:	86843a83          	ld	s5,-1944(s0)
     da0:	002a8a93          	addi	s5,s5,2
     da4:	01578623          	sb	s5,12(a5)
     da8:	87043a03          	ld	s4,-1936(s0)
     dac:	002a0a13          	addi	s4,s4,2
     db0:	014786a3          	sb	s4,13(a5)
     db4:	87843603          	ld	a2,-1928(s0)
     db8:	00260613          	addi	a2,a2,2
     dbc:	00c78723          	sb	a2,14(a5)
     dc0:	88043583          	ld	a1,-1920(s0)
     dc4:	00258593          	addi	a1,a1,2
     dc8:	00b787a3          	sb	a1,15(a5)
     dcc:	88843e03          	ld	t3,-1912(s0)
     dd0:	002e0e13          	addi	t3,t3,2
     dd4:	01c78823          	sb	t3,16(a5)
     dd8:	89043503          	ld	a0,-1904(s0)
     ddc:	00250513          	addi	a0,a0,2
     de0:	00a788a3          	sb	a0,17(a5)
     de4:	89843483          	ld	s1,-1896(s0)
     de8:	00248493          	addi	s1,s1,2
     dec:	00978923          	sb	s1,18(a5)
     df0:	8a043383          	ld	t2,-1888(s0)
     df4:	00238393          	addi	t2,t2,2
     df8:	007789a3          	sb	t2,19(a5)
     dfc:	8a843683          	ld	a3,-1880(s0)
     e00:	00268693          	addi	a3,a3,2
     e04:	00d78a23          	sb	a3,20(a5)
     e08:	8b043303          	ld	t1,-1872(s0)
     e0c:	00230313          	addi	t1,t1,2
     e10:	00678aa3          	sb	t1,21(a5)
     e14:	8c043883          	ld	a7,-1856(s0)
     e18:	00288893          	addi	a7,a7,2
     e1c:	01178b23          	sb	a7,22(a5)
     e20:	8d043503          	ld	a0,-1840(s0)
     e24:	00250513          	addi	a0,a0,2
     e28:	00a78ba3          	sb	a0,23(a5)
     e2c:	8e043503          	ld	a0,-1824(s0)
     e30:	00250513          	addi	a0,a0,2
     e34:	00a78c23          	sb	a0,24(a5)
     e38:	8f043503          	ld	a0,-1808(s0)
     e3c:	00250513          	addi	a0,a0,2
     e40:	00a78ca3          	sb	a0,25(a5)
     e44:	90043503          	ld	a0,-1792(s0)
     e48:	00250513          	addi	a0,a0,2
     e4c:	00a78d23          	sb	a0,26(a5)
     e50:	91043503          	ld	a0,-1776(s0)
     e54:	00250513          	addi	a0,a0,2
     e58:	00a78da3          	sb	a0,27(a5)
     e5c:	92043503          	ld	a0,-1760(s0)
     e60:	00250513          	addi	a0,a0,2
     e64:	00a78e23          	sb	a0,28(a5)
     e68:	93043503          	ld	a0,-1744(s0)
     e6c:	00250513          	addi	a0,a0,2
     e70:	00a78ea3          	sb	a0,29(a5)
     e74:	94043503          	ld	a0,-1728(s0)
     e78:	00250513          	addi	a0,a0,2
     e7c:	00a78f23          	sb	a0,30(a5)
     e80:	95043503          	ld	a0,-1712(s0)
     e84:	00250513          	addi	a0,a0,2
     e88:	00a78fa3          	sb	a0,31(a5)
     e8c:	000e8613          	mv	a2,t4
     e90:	020e8593          	addi	a1,t4,32
     e94:	00001537          	lui	a0,0x1
     e98:	40a40533          	sub	a0,s0,a0
     e9c:	64853303          	ld	t1,1608(a0) # 1648 <.LBB101_5+0x1f8>
     ea0:	02030313          	addi	t1,t1,32
     ea4:	12000513          	li	a0,288
     ea8:	a8aef663          	bgeu	t4,a0,134 <.LBB101_1>

0000000000000eac <.LBB101_4>:
     eac:	00001537          	lui	a0,0x1
     eb0:	40a40533          	sub	a0,s0,a0
     eb4:	64b53c23          	sd	a1,1624(a0) # 1658 <.LBB101_5+0x208>
     eb8:	0004b837          	lui	a6,0x4b
     ebc:	00001537          	lui	a0,0x1
     ec0:	40a40533          	sub	a0,s0,a0
     ec4:	ba853e83          	ld	t4,-1112(a0) # ba8 <.LBB101_3+0x954>
     ec8:	00001537          	lui	a0,0x1
     ecc:	40a40533          	sub	a0,s0,a0
     ed0:	64653423          	sd	t1,1608(a0) # 1648 <.LBB101_5+0x1f8>
     ed4:	00030f13          	mv	t5,t1
     ed8:	00001537          	lui	a0,0x1
     edc:	40a40533          	sub	a0,s0,a0
     ee0:	6c053023          	sd	zero,1728(a0) # 16c0 <.LBB101_5+0x270>
     ee4:	00001537          	lui	a0,0x1
     ee8:	40a40533          	sub	a0,s0,a0
     eec:	6a053c23          	sd	zero,1720(a0) # 16b8 <.LBB101_5+0x268>
     ef0:	00001537          	lui	a0,0x1
     ef4:	40a40533          	sub	a0,s0,a0
     ef8:	6a053023          	sd	zero,1696(a0) # 16a0 <.LBB101_5+0x250>
     efc:	00001537          	lui	a0,0x1
     f00:	40a40533          	sub	a0,s0,a0
     f04:	6a053423          	sd	zero,1704(a0) # 16a8 <.LBB101_5+0x258>
     f08:	00001537          	lui	a0,0x1
     f0c:	40a40533          	sub	a0,s0,a0
     f10:	6c053423          	sd	zero,1736(a0) # 16c8 <.LBB101_5+0x278>
     f14:	00001537          	lui	a0,0x1
     f18:	40a40533          	sub	a0,s0,a0
     f1c:	6a053823          	sd	zero,1712(a0) # 16b0 <.LBB101_5+0x260>
     f20:	00001537          	lui	a0,0x1
     f24:	40a40533          	sub	a0,s0,a0
     f28:	68053c23          	sd	zero,1688(a0) # 1698 <.LBB101_5+0x248>
     f2c:	00001537          	lui	a0,0x1
     f30:	40a40533          	sub	a0,s0,a0
     f34:	68053823          	sd	zero,1680(a0) # 1690 <.LBB101_5+0x240>
     f38:	00001537          	lui	a0,0x1
     f3c:	40a40533          	sub	a0,s0,a0
     f40:	68053423          	sd	zero,1672(a0) # 1688 <.LBB101_5+0x238>
     f44:	00001537          	lui	a0,0x1
     f48:	40a40533          	sub	a0,s0,a0
     f4c:	6c053823          	sd	zero,1744(a0) # 16d0 <.LBB101_5+0x280>
     f50:	00001537          	lui	a0,0x1
     f54:	40a40533          	sub	a0,s0,a0
     f58:	6c053c23          	sd	zero,1752(a0) # 16d8 <.LBB101_5+0x288>
     f5c:	00001537          	lui	a0,0x1
     f60:	40a40533          	sub	a0,s0,a0
     f64:	6e053023          	sd	zero,1760(a0) # 16e0 <.LBB101_5+0x290>
     f68:	00001537          	lui	a0,0x1
     f6c:	40a40533          	sub	a0,s0,a0
     f70:	6e053423          	sd	zero,1768(a0) # 16e8 <.LBB101_5+0x298>
     f74:	00001537          	lui	a0,0x1
     f78:	40a40533          	sub	a0,s0,a0
     f7c:	6e053823          	sd	zero,1776(a0) # 16f0 <.LBB101_5+0x2a0>
     f80:	00001537          	lui	a0,0x1
     f84:	40a40533          	sub	a0,s0,a0
     f88:	6e053c23          	sd	zero,1784(a0) # 16f8 <.LBB101_5+0x2a8>
     f8c:	00001537          	lui	a0,0x1
     f90:	40a40533          	sub	a0,s0,a0
     f94:	70053023          	sd	zero,1792(a0) # 1700 <.LBB101_5+0x2b0>
     f98:	00001537          	lui	a0,0x1
     f9c:	40a40533          	sub	a0,s0,a0
     fa0:	70053423          	sd	zero,1800(a0) # 1708 <.LBB101_5+0x2b8>
     fa4:	00001537          	lui	a0,0x1
     fa8:	40a40533          	sub	a0,s0,a0
     fac:	70053823          	sd	zero,1808(a0) # 1710 <.LBB101_5+0x2c0>
     fb0:	00001537          	lui	a0,0x1
     fb4:	40a40533          	sub	a0,s0,a0
     fb8:	70053c23          	sd	zero,1816(a0) # 1718 <.LBB101_5+0x2c8>
     fbc:	00001537          	lui	a0,0x1
     fc0:	40a40533          	sub	a0,s0,a0
     fc4:	72053023          	sd	zero,1824(a0) # 1720 <.LBB101_5+0x2d0>
     fc8:	00001537          	lui	a0,0x1
     fcc:	40a40533          	sub	a0,s0,a0
     fd0:	72053423          	sd	zero,1832(a0) # 1728 <.LBB101_5+0x2d8>
     fd4:	00001537          	lui	a0,0x1
     fd8:	40a40533          	sub	a0,s0,a0
     fdc:	72053823          	sd	zero,1840(a0) # 1730 <.LBB101_5+0x2e0>
     fe0:	00001537          	lui	a0,0x1
     fe4:	40a40533          	sub	a0,s0,a0
     fe8:	72053c23          	sd	zero,1848(a0) # 1738 <.LBB101_5+0x2e8>
     fec:	00001537          	lui	a0,0x1
     ff0:	40a40533          	sub	a0,s0,a0
     ff4:	74053023          	sd	zero,1856(a0) # 1740 <.LBB101_5+0x2f0>
     ff8:	00001537          	lui	a0,0x1
     ffc:	40a40533          	sub	a0,s0,a0
    1000:	74053423          	sd	zero,1864(a0) # 1748 <.LBB101_5+0x2f8>
    1004:	00001537          	lui	a0,0x1
    1008:	40a40533          	sub	a0,s0,a0
    100c:	74053823          	sd	zero,1872(a0) # 1750 <.LBB101_5+0x300>
    1010:	00001537          	lui	a0,0x1
    1014:	40a40533          	sub	a0,s0,a0
    1018:	74053c23          	sd	zero,1880(a0) # 1758 <.LBB101_5+0x308>
    101c:	00001537          	lui	a0,0x1
    1020:	40a40533          	sub	a0,s0,a0
    1024:	76053023          	sd	zero,1888(a0) # 1760 <.LBB101_5+0x310>
    1028:	00001537          	lui	a0,0x1
    102c:	40a40533          	sub	a0,s0,a0
    1030:	76053423          	sd	zero,1896(a0) # 1768 <.LBB101_5+0x318>
    1034:	00001537          	lui	a0,0x1
    1038:	40a40533          	sub	a0,s0,a0
    103c:	76053823          	sd	zero,1904(a0) # 1770 <.LBB101_5+0x320>
    1040:	00001537          	lui	a0,0x1
    1044:	40a40533          	sub	a0,s0,a0
    1048:	76053c23          	sd	zero,1912(a0) # 1778 <.LBB101_5+0x328>
    104c:	00001537          	lui	a0,0x1
    1050:	40a40533          	sub	a0,s0,a0
    1054:	78053023          	sd	zero,1920(a0) # 1780 <.LBB101_5+0x330>
    1058:	00001537          	lui	a0,0x1
    105c:	40a40533          	sub	a0,s0,a0
    1060:	7a053023          	sd	zero,1952(a0) # 17a0 <.LBB101_5+0x350>
    1064:	00001537          	lui	a0,0x1
    1068:	40a40533          	sub	a0,s0,a0
    106c:	78053c23          	sd	zero,1944(a0) # 1798 <.LBB101_5+0x348>
    1070:	00001537          	lui	a0,0x1
    1074:	40a40533          	sub	a0,s0,a0
    1078:	78053823          	sd	zero,1936(a0) # 1790 <.LBB101_5+0x340>
    107c:	00001537          	lui	a0,0x1
    1080:	40a40533          	sub	a0,s0,a0
    1084:	78053423          	sd	zero,1928(a0) # 1788 <.LBB101_5+0x338>
    1088:	00001537          	lui	a0,0x1
    108c:	40a40533          	sub	a0,s0,a0
    1090:	7a053423          	sd	zero,1960(a0) # 17a8 <.LBB101_5+0x358>
    1094:	00001537          	lui	a0,0x1
    1098:	40a40533          	sub	a0,s0,a0
    109c:	7a053823          	sd	zero,1968(a0) # 17b0 <.LBB101_5+0x360>
    10a0:	00001537          	lui	a0,0x1
    10a4:	40a40533          	sub	a0,s0,a0
    10a8:	7a053c23          	sd	zero,1976(a0) # 17b8 <.LBB101_5+0x368>
    10ac:	00001537          	lui	a0,0x1
    10b0:	40a40533          	sub	a0,s0,a0
    10b4:	7c053023          	sd	zero,1984(a0) # 17c0 <.LBB101_5+0x370>
    10b8:	00001537          	lui	a0,0x1
    10bc:	40a40533          	sub	a0,s0,a0
    10c0:	7c053423          	sd	zero,1992(a0) # 17c8 <.LBB101_5+0x378>
    10c4:	00001537          	lui	a0,0x1
    10c8:	40a40533          	sub	a0,s0,a0
    10cc:	7c053823          	sd	zero,2000(a0) # 17d0 <.LBB101_5+0x380>
    10d0:	00001537          	lui	a0,0x1
    10d4:	40a40533          	sub	a0,s0,a0
    10d8:	7c053c23          	sd	zero,2008(a0) # 17d8 <.LBB101_5+0x388>
    10dc:	00001537          	lui	a0,0x1
    10e0:	40a40533          	sub	a0,s0,a0
    10e4:	7e053023          	sd	zero,2016(a0) # 17e0 <.LBB101_5+0x390>
    10e8:	00001537          	lui	a0,0x1
    10ec:	40a40533          	sub	a0,s0,a0
    10f0:	7e053423          	sd	zero,2024(a0) # 17e8 <.LBB101_5+0x398>
    10f4:	00001537          	lui	a0,0x1
    10f8:	40a40533          	sub	a0,s0,a0
    10fc:	7e053823          	sd	zero,2032(a0) # 17f0 <.LBB101_5+0x3a0>
    1100:	00001537          	lui	a0,0x1
    1104:	40a40533          	sub	a0,s0,a0
    1108:	7e053c23          	sd	zero,2040(a0) # 17f8 <.LBB101_5+0x3a8>
    110c:	80043023          	sd	zero,-2048(s0)
    1110:	80043423          	sd	zero,-2040(s0)
    1114:	80043823          	sd	zero,-2032(s0)
    1118:	80043c23          	sd	zero,-2024(s0)
    111c:	82043023          	sd	zero,-2016(s0)
    1120:	82043423          	sd	zero,-2008(s0)
    1124:	82043823          	sd	zero,-2000(s0)
    1128:	82043c23          	sd	zero,-1992(s0)
    112c:	84043023          	sd	zero,-1984(s0)
    1130:	84043423          	sd	zero,-1976(s0)
    1134:	84043823          	sd	zero,-1968(s0)
    1138:	84043c23          	sd	zero,-1960(s0)
    113c:	86043023          	sd	zero,-1952(s0)
    1140:	86043423          	sd	zero,-1944(s0)
    1144:	86043823          	sd	zero,-1936(s0)
    1148:	86043c23          	sd	zero,-1928(s0)
    114c:	88043023          	sd	zero,-1920(s0)
    1150:	8a043023          	sd	zero,-1888(s0)
    1154:	88043c23          	sd	zero,-1896(s0)
    1158:	88043823          	sd	zero,-1904(s0)
    115c:	88043423          	sd	zero,-1912(s0)
    1160:	8a043423          	sd	zero,-1880(s0)
    1164:	8a043823          	sd	zero,-1872(s0)
    1168:	8a043c23          	sd	zero,-1864(s0)
    116c:	8c043023          	sd	zero,-1856(s0)
    1170:	8c043423          	sd	zero,-1848(s0)
    1174:	8c043823          	sd	zero,-1840(s0)
    1178:	8c043c23          	sd	zero,-1832(s0)
    117c:	8e043023          	sd	zero,-1824(s0)
    1180:	8e043423          	sd	zero,-1816(s0)
    1184:	8e043823          	sd	zero,-1808(s0)
    1188:	8e043c23          	sd	zero,-1800(s0)
    118c:	90043023          	sd	zero,-1792(s0)
    1190:	90043423          	sd	zero,-1784(s0)
    1194:	90043823          	sd	zero,-1776(s0)
    1198:	90043c23          	sd	zero,-1768(s0)
    119c:	92043023          	sd	zero,-1760(s0)
    11a0:	92043423          	sd	zero,-1752(s0)
    11a4:	92043823          	sd	zero,-1744(s0)
    11a8:	92043c23          	sd	zero,-1736(s0)
    11ac:	94043023          	sd	zero,-1728(s0)
    11b0:	94043423          	sd	zero,-1720(s0)
    11b4:	94043823          	sd	zero,-1712(s0)
    11b8:	94043c23          	sd	zero,-1704(s0)
    11bc:	96043023          	sd	zero,-1696(s0)
    11c0:	96043423          	sd	zero,-1688(s0)
    11c4:	96043823          	sd	zero,-1680(s0)
    11c8:	96043c23          	sd	zero,-1672(s0)
    11cc:	98043023          	sd	zero,-1664(s0)
    11d0:	9a043023          	sd	zero,-1632(s0)
    11d4:	98043c23          	sd	zero,-1640(s0)
    11d8:	98043823          	sd	zero,-1648(s0)
    11dc:	98043423          	sd	zero,-1656(s0)
    11e0:	9a043423          	sd	zero,-1624(s0)
    11e4:	9a043823          	sd	zero,-1616(s0)
    11e8:	9a043c23          	sd	zero,-1608(s0)
    11ec:	9c043023          	sd	zero,-1600(s0)
    11f0:	9c043423          	sd	zero,-1592(s0)
    11f4:	9c043823          	sd	zero,-1584(s0)
    11f8:	9c043c23          	sd	zero,-1576(s0)
    11fc:	9e043023          	sd	zero,-1568(s0)
    1200:	9e043423          	sd	zero,-1560(s0)
    1204:	9e043823          	sd	zero,-1552(s0)
    1208:	9e043c23          	sd	zero,-1544(s0)
    120c:	a0043023          	sd	zero,-1536(s0)
    1210:	a0043423          	sd	zero,-1528(s0)
    1214:	a0043823          	sd	zero,-1520(s0)
    1218:	a0043c23          	sd	zero,-1512(s0)
    121c:	a2043023          	sd	zero,-1504(s0)
    1220:	a2043423          	sd	zero,-1496(s0)
    1224:	a2043823          	sd	zero,-1488(s0)
    1228:	a2043c23          	sd	zero,-1480(s0)
    122c:	a4043023          	sd	zero,-1472(s0)
    1230:	a4043423          	sd	zero,-1464(s0)
    1234:	a4043823          	sd	zero,-1456(s0)
    1238:	a4043c23          	sd	zero,-1448(s0)
    123c:	a6043023          	sd	zero,-1440(s0)
    1240:	a6043423          	sd	zero,-1432(s0)
    1244:	a6043823          	sd	zero,-1424(s0)
    1248:	a6043c23          	sd	zero,-1416(s0)
    124c:	a8043023          	sd	zero,-1408(s0)
    1250:	aa043023          	sd	zero,-1376(s0)
    1254:	a8043c23          	sd	zero,-1384(s0)
    1258:	a8043823          	sd	zero,-1392(s0)
    125c:	a8043423          	sd	zero,-1400(s0)
    1260:	aa043423          	sd	zero,-1368(s0)
    1264:	aa043823          	sd	zero,-1360(s0)
    1268:	aa043c23          	sd	zero,-1352(s0)
    126c:	ac043023          	sd	zero,-1344(s0)
    1270:	ac043423          	sd	zero,-1336(s0)
    1274:	ac043823          	sd	zero,-1328(s0)
    1278:	ac043c23          	sd	zero,-1320(s0)
    127c:	ae043023          	sd	zero,-1312(s0)
    1280:	ae043423          	sd	zero,-1304(s0)
    1284:	ae043823          	sd	zero,-1296(s0)
    1288:	ae043c23          	sd	zero,-1288(s0)
    128c:	b0043023          	sd	zero,-1280(s0)
    1290:	b0043423          	sd	zero,-1272(s0)
    1294:	b0043823          	sd	zero,-1264(s0)
    1298:	b0043c23          	sd	zero,-1256(s0)
    129c:	b2043023          	sd	zero,-1248(s0)
    12a0:	b2043423          	sd	zero,-1240(s0)
    12a4:	b2043823          	sd	zero,-1232(s0)
    12a8:	b2043c23          	sd	zero,-1224(s0)
    12ac:	b4043023          	sd	zero,-1216(s0)
    12b0:	b4043423          	sd	zero,-1208(s0)
    12b4:	b4043823          	sd	zero,-1200(s0)
    12b8:	b4043c23          	sd	zero,-1192(s0)
    12bc:	b6043023          	sd	zero,-1184(s0)
    12c0:	b6043423          	sd	zero,-1176(s0)
    12c4:	b6043823          	sd	zero,-1168(s0)
    12c8:	b6043c23          	sd	zero,-1160(s0)
    12cc:	b8043023          	sd	zero,-1152(s0)
    12d0:	ba043023          	sd	zero,-1120(s0)
    12d4:	b8043c23          	sd	zero,-1128(s0)
    12d8:	b8043823          	sd	zero,-1136(s0)
    12dc:	b8043423          	sd	zero,-1144(s0)
    12e0:	ba043423          	sd	zero,-1112(s0)
    12e4:	ba043823          	sd	zero,-1104(s0)
    12e8:	ba043c23          	sd	zero,-1096(s0)
    12ec:	bc043023          	sd	zero,-1088(s0)
    12f0:	bc043423          	sd	zero,-1080(s0)
    12f4:	bc043823          	sd	zero,-1072(s0)
    12f8:	bc043c23          	sd	zero,-1064(s0)
    12fc:	be043023          	sd	zero,-1056(s0)
    1300:	be043423          	sd	zero,-1048(s0)
    1304:	be043823          	sd	zero,-1040(s0)
    1308:	be043c23          	sd	zero,-1032(s0)
    130c:	c0043023          	sd	zero,-1024(s0)
    1310:	c0043423          	sd	zero,-1016(s0)
    1314:	c0043823          	sd	zero,-1008(s0)
    1318:	c0043c23          	sd	zero,-1000(s0)
    131c:	c2043023          	sd	zero,-992(s0)
    1320:	c2043423          	sd	zero,-984(s0)
    1324:	c2043823          	sd	zero,-976(s0)
    1328:	c2043c23          	sd	zero,-968(s0)
    132c:	c4043023          	sd	zero,-960(s0)
    1330:	c4043423          	sd	zero,-952(s0)
    1334:	c4043823          	sd	zero,-944(s0)
    1338:	c4043c23          	sd	zero,-936(s0)
    133c:	c6043023          	sd	zero,-928(s0)
    1340:	c6043423          	sd	zero,-920(s0)
    1344:	c6043823          	sd	zero,-912(s0)
    1348:	c6043c23          	sd	zero,-904(s0)
    134c:	c8043023          	sd	zero,-896(s0)
    1350:	ca043023          	sd	zero,-864(s0)
    1354:	c8043c23          	sd	zero,-872(s0)
    1358:	c8043823          	sd	zero,-880(s0)
    135c:	c8043423          	sd	zero,-888(s0)
    1360:	ca043423          	sd	zero,-856(s0)
    1364:	ca043823          	sd	zero,-848(s0)
    1368:	ca043c23          	sd	zero,-840(s0)
    136c:	cc043023          	sd	zero,-832(s0)
    1370:	cc043423          	sd	zero,-824(s0)
    1374:	cc043823          	sd	zero,-816(s0)
    1378:	cc043c23          	sd	zero,-808(s0)
    137c:	ce043023          	sd	zero,-800(s0)
    1380:	ce043423          	sd	zero,-792(s0)
    1384:	ce043823          	sd	zero,-784(s0)
    1388:	ce043c23          	sd	zero,-776(s0)
    138c:	d0043023          	sd	zero,-768(s0)
    1390:	d0043423          	sd	zero,-760(s0)
    1394:	d0043823          	sd	zero,-752(s0)
    1398:	d0043c23          	sd	zero,-744(s0)
    139c:	d2043023          	sd	zero,-736(s0)
    13a0:	d2043423          	sd	zero,-728(s0)
    13a4:	d2043823          	sd	zero,-720(s0)
    13a8:	d2043c23          	sd	zero,-712(s0)
    13ac:	d4043023          	sd	zero,-704(s0)
    13b0:	d4043423          	sd	zero,-696(s0)
    13b4:	d4043823          	sd	zero,-688(s0)
    13b8:	d4043c23          	sd	zero,-680(s0)
    13bc:	d6043023          	sd	zero,-672(s0)
    13c0:	d6043423          	sd	zero,-664(s0)
    13c4:	d6043823          	sd	zero,-656(s0)
    13c8:	d6043c23          	sd	zero,-648(s0)
    13cc:	d8043023          	sd	zero,-640(s0)
    13d0:	da043023          	sd	zero,-608(s0)
    13d4:	d8043c23          	sd	zero,-616(s0)
    13d8:	d8043823          	sd	zero,-624(s0)
    13dc:	d8043423          	sd	zero,-632(s0)
    13e0:	da043423          	sd	zero,-600(s0)
    13e4:	da043823          	sd	zero,-592(s0)
    13e8:	da043c23          	sd	zero,-584(s0)
    13ec:	dc043023          	sd	zero,-576(s0)
    13f0:	dc043423          	sd	zero,-568(s0)
    13f4:	dc043823          	sd	zero,-560(s0)
    13f8:	00000093          	li	ra,0
    13fc:	de043023          	sd	zero,-544(s0)
    1400:	00000d13          	li	s10,0
    1404:	00000c93          	li	s9,0
    1408:	00000c13          	li	s8,0
    140c:	00000b93          	li	s7,0
    1410:	00000b13          	li	s6,0
    1414:	00000a13          	li	s4,0
    1418:	00000993          	li	s3,0
    141c:	00000713          	li	a4,0
    1420:	00000693          	li	a3,0
    1424:	00000613          	li	a2,0
    1428:	00000593          	li	a1,0
    142c:	00000513          	li	a0,0
    1430:	00000e13          	li	t3,0
    1434:	00000393          	li	t2,0
    1438:	00000313          	li	t1,0
    143c:	00000293          	li	t0,0
    1440:	00000793          	li	a5,0
    1444:	00000893          	li	a7,0
    1448:	00000d93          	li	s11,0
    144c:	00000a93          	li	s5,0

0000000000001450 <.LBB101_5>:
    1450:	f9e43423          	sd	t5,-120(s0)
    1454:	f9d43023          	sd	t4,-128(s0)
    1458:	00001fb7          	lui	t6,0x1
    145c:	41f40fb3          	sub	t6,s0,t6
    1460:	690fb023          	sd	a6,1664(t6) # 1680 <.LBB101_5+0x230>
    1464:	dc143c23          	sd	ra,-552(s0)
    1468:	dfa43423          	sd	s10,-536(s0)
    146c:	df943823          	sd	s9,-528(s0)
    1470:	df843c23          	sd	s8,-520(s0)
    1474:	e1743023          	sd	s7,-512(s0)
    1478:	e1643423          	sd	s6,-504(s0)
    147c:	e1443823          	sd	s4,-496(s0)
    1480:	e1343c23          	sd	s3,-488(s0)
    1484:	f0e43823          	sd	a4,-240(s0)
    1488:	f0d43c23          	sd	a3,-232(s0)
    148c:	f2c43023          	sd	a2,-224(s0)
    1490:	f2b43423          	sd	a1,-216(s0)
    1494:	f2a43823          	sd	a0,-208(s0)
    1498:	e3c43023          	sd	t3,-480(s0)
    149c:	e2743423          	sd	t2,-472(s0)
    14a0:	e2643823          	sd	t1,-464(s0)
    14a4:	e2543c23          	sd	t0,-456(s0)
    14a8:	e4f43023          	sd	a5,-448(s0)
    14ac:	e5143423          	sd	a7,-440(s0)
    14b0:	e5b43823          	sd	s11,-432(s0)
    14b4:	e5543c23          	sd	s5,-424(s0)
    14b8:	000e8503          	lb	a0,0(t4)
    14bc:	002f0603          	lb	a2,2(t5)
    14c0:	f2c43c23          	sd	a2,-200(s0)
    14c4:	001f0683          	lb	a3,1(t5)
    14c8:	ead43423          	sd	a3,-344(s0)
    14cc:	000f0703          	lb	a4,0(t5)
    14d0:	003f0783          	lb	a5,3(t5)
    14d4:	eaf43023          	sd	a5,-352(s0)
    14d8:	004f0803          	lb	a6,4(t5)
    14dc:	005f0883          	lb	a7,5(t5)
    14e0:	f5143423          	sd	a7,-184(s0)
    14e4:	006f0083          	lb	ra,6(t5)
    14e8:	007f0283          	lb	t0,7(t5)
    14ec:	f6543023          	sd	t0,-160(s0)
    14f0:	008f0303          	lb	t1,8(t5)
    14f4:	f6643423          	sd	t1,-152(s0)
    14f8:	009f0d03          	lb	s10,9(t5)
    14fc:	eba43c23          	sd	s10,-328(s0)
    1500:	00af0483          	lb	s1,10(t5)
    1504:	f4943023          	sd	s1,-192(s0)
    1508:	00bf0a03          	lb	s4,11(t5)
    150c:	e9443423          	sd	s4,-376(s0)
    1510:	00cf0c03          	lb	s8,12(t5)
    1514:	eb843823          	sd	s8,-336(s0)
    1518:	00df0383          	lb	t2,13(t5)
    151c:	f0743423          	sd	t2,-248(s0)
    1520:	00ef0b83          	lb	s7,14(t5)
    1524:	00ff0b03          	lb	s6,15(t5)
    1528:	010f0e83          	lb	t4,16(t5)
    152c:	011f0a83          	lb	s5,17(t5)
    1530:	ef543423          	sd	s5,-280(s0)
    1534:	012f0e03          	lb	t3,18(t5)
    1538:	013f0983          	lb	s3,19(t5)
    153c:	f8843583          	ld	a1,-120(s0)
    1540:	01458c83          	lb	s9,20(a1)
    1544:	f8843583          	ld	a1,-120(s0)
    1548:	01558903          	lb	s2,21(a1)
    154c:	ed243423          	sd	s2,-312(s0)
    1550:	f8843583          	ld	a1,-120(s0)
    1554:	01658f83          	lb	t6,22(a1)
    1558:	edf43823          	sd	t6,-304(s0)
    155c:	f8843583          	ld	a1,-120(s0)
    1560:	01758d83          	lb	s11,23(a1)
    1564:	efb43c23          	sd	s11,-264(s0)
    1568:	f8843583          	ld	a1,-120(s0)
    156c:	01858f03          	lb	t5,24(a1)
    1570:	f7e43823          	sd	t5,-144(s0)
    1574:	02c505b3          	mul	a1,a0,a2
    1578:	00001637          	lui	a2,0x1
    157c:	40c40633          	sub	a2,s0,a2
    1580:	6a063603          	ld	a2,1696(a2) # 16a0 <.LBB101_5+0x250>
    1584:	00c58633          	add	a2,a1,a2
    1588:	000015b7          	lui	a1,0x1
    158c:	40b405b3          	sub	a1,s0,a1
    1590:	6ac5b023          	sd	a2,1696(a1) # 16a0 <.LBB101_5+0x250>
    1594:	02d505b3          	mul	a1,a0,a3
    1598:	00001637          	lui	a2,0x1
    159c:	40c40633          	sub	a2,s0,a2
    15a0:	6b863603          	ld	a2,1720(a2) # 16b8 <.LBB101_5+0x268>
    15a4:	00c58633          	add	a2,a1,a2
    15a8:	000015b7          	lui	a1,0x1
    15ac:	40b405b3          	sub	a1,s0,a1
    15b0:	6ac5bc23          	sd	a2,1720(a1) # 16b8 <.LBB101_5+0x268>
    15b4:	02e505b3          	mul	a1,a0,a4
    15b8:	eee43023          	sd	a4,-288(s0)
    15bc:	00001637          	lui	a2,0x1
    15c0:	40c40633          	sub	a2,s0,a2
    15c4:	6c063603          	ld	a2,1728(a2) # 16c0 <.LBB101_5+0x270>
    15c8:	00c58633          	add	a2,a1,a2
    15cc:	000015b7          	lui	a1,0x1
    15d0:	40b405b3          	sub	a1,s0,a1
    15d4:	6cc5b023          	sd	a2,1728(a1) # 16c0 <.LBB101_5+0x270>
    15d8:	02f505b3          	mul	a1,a0,a5
    15dc:	00001637          	lui	a2,0x1
    15e0:	40c40633          	sub	a2,s0,a2
    15e4:	6a863603          	ld	a2,1704(a2) # 16a8 <.LBB101_5+0x258>
    15e8:	00c58633          	add	a2,a1,a2
    15ec:	000015b7          	lui	a1,0x1
    15f0:	40b405b3          	sub	a1,s0,a1
    15f4:	6ac5b423          	sd	a2,1704(a1) # 16a8 <.LBB101_5+0x258>
    15f8:	030505b3          	mul	a1,a0,a6
    15fc:	00080793          	mv	a5,a6
    1600:	00001637          	lui	a2,0x1
    1604:	40c40633          	sub	a2,s0,a2
    1608:	6c863603          	ld	a2,1736(a2) # 16c8 <.LBB101_5+0x278>
    160c:	00c58633          	add	a2,a1,a2
    1610:	000015b7          	lui	a1,0x1
    1614:	40b405b3          	sub	a1,s0,a1
    1618:	6cc5b423          	sd	a2,1736(a1) # 16c8 <.LBB101_5+0x278>
    161c:	031505b3          	mul	a1,a0,a7
    1620:	00001637          	lui	a2,0x1
    1624:	40c40633          	sub	a2,s0,a2
    1628:	6b063603          	ld	a2,1712(a2) # 16b0 <.LBB101_5+0x260>
    162c:	00c58633          	add	a2,a1,a2
    1630:	000015b7          	lui	a1,0x1
    1634:	40b405b3          	sub	a1,s0,a1
    1638:	6ac5b823          	sd	a2,1712(a1) # 16b0 <.LBB101_5+0x260>
    163c:	021505b3          	mul	a1,a0,ra
    1640:	00001637          	lui	a2,0x1
    1644:	40c40633          	sub	a2,s0,a2
    1648:	69863603          	ld	a2,1688(a2) # 1698 <.LBB101_5+0x248>
    164c:	00c58633          	add	a2,a1,a2
    1650:	000015b7          	lui	a1,0x1
    1654:	40b405b3          	sub	a1,s0,a1
    1658:	68c5bc23          	sd	a2,1688(a1) # 1698 <.LBB101_5+0x248>
    165c:	025505b3          	mul	a1,a0,t0
    1660:	00001637          	lui	a2,0x1
    1664:	40c40633          	sub	a2,s0,a2
    1668:	69063603          	ld	a2,1680(a2) # 1690 <.LBB101_5+0x240>
    166c:	00c58633          	add	a2,a1,a2
    1670:	000015b7          	lui	a1,0x1
    1674:	40b405b3          	sub	a1,s0,a1
    1678:	68c5b823          	sd	a2,1680(a1) # 1690 <.LBB101_5+0x240>
    167c:	026505b3          	mul	a1,a0,t1
    1680:	00001637          	lui	a2,0x1
    1684:	40c40633          	sub	a2,s0,a2
    1688:	68863603          	ld	a2,1672(a2) # 1688 <.LBB101_5+0x238>
    168c:	00c58633          	add	a2,a1,a2
    1690:	000015b7          	lui	a1,0x1
    1694:	40b405b3          	sub	a1,s0,a1
    1698:	68c5b423          	sd	a2,1672(a1) # 1688 <.LBB101_5+0x238>
    169c:	03a505b3          	mul	a1,a0,s10
    16a0:	00001637          	lui	a2,0x1
    16a4:	40c40633          	sub	a2,s0,a2
    16a8:	6d063603          	ld	a2,1744(a2) # 16d0 <.LBB101_5+0x280>
    16ac:	00c58633          	add	a2,a1,a2
    16b0:	000015b7          	lui	a1,0x1
    16b4:	40b405b3          	sub	a1,s0,a1
    16b8:	6cc5b823          	sd	a2,1744(a1) # 16d0 <.LBB101_5+0x280>
    16bc:	029505b3          	mul	a1,a0,s1
    16c0:	00001637          	lui	a2,0x1
    16c4:	40c40633          	sub	a2,s0,a2
    16c8:	6d863603          	ld	a2,1752(a2) # 16d8 <.LBB101_5+0x288>
    16cc:	00c58633          	add	a2,a1,a2
    16d0:	000015b7          	lui	a1,0x1
    16d4:	40b405b3          	sub	a1,s0,a1
    16d8:	6cc5bc23          	sd	a2,1752(a1) # 16d8 <.LBB101_5+0x288>
    16dc:	034505b3          	mul	a1,a0,s4
    16e0:	00001637          	lui	a2,0x1
    16e4:	40c40633          	sub	a2,s0,a2
    16e8:	6e063603          	ld	a2,1760(a2) # 16e0 <.LBB101_5+0x290>
    16ec:	00c58633          	add	a2,a1,a2
    16f0:	000015b7          	lui	a1,0x1
    16f4:	40b405b3          	sub	a1,s0,a1
    16f8:	6ec5b023          	sd	a2,1760(a1) # 16e0 <.LBB101_5+0x290>
    16fc:	038505b3          	mul	a1,a0,s8
    1700:	00001637          	lui	a2,0x1
    1704:	40c40633          	sub	a2,s0,a2
    1708:	6e863603          	ld	a2,1768(a2) # 16e8 <.LBB101_5+0x298>
    170c:	00c58633          	add	a2,a1,a2
    1710:	000015b7          	lui	a1,0x1
    1714:	40b405b3          	sub	a1,s0,a1
    1718:	6ec5b423          	sd	a2,1768(a1) # 16e8 <.LBB101_5+0x298>
    171c:	027505b3          	mul	a1,a0,t2
    1720:	00001637          	lui	a2,0x1
    1724:	40c40633          	sub	a2,s0,a2
    1728:	6f063603          	ld	a2,1776(a2) # 16f0 <.LBB101_5+0x2a0>
    172c:	00c58633          	add	a2,a1,a2
    1730:	000015b7          	lui	a1,0x1
    1734:	40b405b3          	sub	a1,s0,a1
    1738:	6ec5b823          	sd	a2,1776(a1) # 16f0 <.LBB101_5+0x2a0>
    173c:	037505b3          	mul	a1,a0,s7
    1740:	000b8d13          	mv	s10,s7
    1744:	e9743823          	sd	s7,-368(s0)
    1748:	00001637          	lui	a2,0x1
    174c:	40c40633          	sub	a2,s0,a2
    1750:	6f863603          	ld	a2,1784(a2) # 16f8 <.LBB101_5+0x2a8>
    1754:	00c58633          	add	a2,a1,a2
    1758:	000015b7          	lui	a1,0x1
    175c:	40b405b3          	sub	a1,s0,a1
    1760:	6ec5bc23          	sd	a2,1784(a1) # 16f8 <.LBB101_5+0x2a8>
    1764:	036505b3          	mul	a1,a0,s6
    1768:	000b0a13          	mv	s4,s6
    176c:	ef643823          	sd	s6,-272(s0)
    1770:	00001637          	lui	a2,0x1
    1774:	40c40633          	sub	a2,s0,a2
    1778:	70063603          	ld	a2,1792(a2) # 1700 <.LBB101_5+0x2b0>
    177c:	00c58633          	add	a2,a1,a2
    1780:	000015b7          	lui	a1,0x1
    1784:	40b405b3          	sub	a1,s0,a1
    1788:	70c5b023          	sd	a2,1792(a1) # 1700 <.LBB101_5+0x2b0>
    178c:	03d505b3          	mul	a1,a0,t4
    1790:	000e8b93          	mv	s7,t4
    1794:	00001637          	lui	a2,0x1
    1798:	40c40633          	sub	a2,s0,a2
    179c:	70863603          	ld	a2,1800(a2) # 1708 <.LBB101_5+0x2b8>
    17a0:	00c58633          	add	a2,a1,a2
    17a4:	000015b7          	lui	a1,0x1
    17a8:	40b405b3          	sub	a1,s0,a1
    17ac:	70c5b423          	sd	a2,1800(a1) # 1708 <.LBB101_5+0x2b8>
    17b0:	035505b3          	mul	a1,a0,s5
    17b4:	00001637          	lui	a2,0x1
    17b8:	40c40633          	sub	a2,s0,a2
    17bc:	71063603          	ld	a2,1808(a2) # 1710 <.LBB101_5+0x2c0>
    17c0:	00c58633          	add	a2,a1,a2
    17c4:	000015b7          	lui	a1,0x1
    17c8:	40b405b3          	sub	a1,s0,a1
    17cc:	70c5b823          	sd	a2,1808(a1) # 1710 <.LBB101_5+0x2c0>
    17d0:	03c505b3          	mul	a1,a0,t3
    17d4:	000e0493          	mv	s1,t3
    17d8:	e9c43c23          	sd	t3,-360(s0)
    17dc:	00001637          	lui	a2,0x1
    17e0:	40c40633          	sub	a2,s0,a2
    17e4:	71863603          	ld	a2,1816(a2) # 1718 <.LBB101_5+0x2c8>
    17e8:	00c58633          	add	a2,a1,a2
    17ec:	000015b7          	lui	a1,0x1
    17f0:	40b405b3          	sub	a1,s0,a1
    17f4:	70c5bc23          	sd	a2,1816(a1) # 1718 <.LBB101_5+0x2c8>
    17f8:	033505b3          	mul	a1,a0,s3
    17fc:	00001637          	lui	a2,0x1
    1800:	40c40633          	sub	a2,s0,a2
    1804:	72063603          	ld	a2,1824(a2) # 1720 <.LBB101_5+0x2d0>
    1808:	00c58633          	add	a2,a1,a2
    180c:	000015b7          	lui	a1,0x1
    1810:	40b405b3          	sub	a1,s0,a1
    1814:	72c5b023          	sd	a2,1824(a1) # 1720 <.LBB101_5+0x2d0>
    1818:	000c8293          	mv	t0,s9
    181c:	f1943023          	sd	s9,-256(s0)
    1820:	039505b3          	mul	a1,a0,s9
    1824:	00001637          	lui	a2,0x1
    1828:	40c40633          	sub	a2,s0,a2
    182c:	72863603          	ld	a2,1832(a2) # 1728 <.LBB101_5+0x2d8>
    1830:	00c58633          	add	a2,a1,a2
    1834:	000015b7          	lui	a1,0x1
    1838:	40b405b3          	sub	a1,s0,a1
    183c:	72c5b423          	sd	a2,1832(a1) # 1728 <.LBB101_5+0x2d8>
    1840:	032505b3          	mul	a1,a0,s2
    1844:	00001637          	lui	a2,0x1
    1848:	40c40633          	sub	a2,s0,a2
    184c:	73063603          	ld	a2,1840(a2) # 1730 <.LBB101_5+0x2e0>
    1850:	00c58633          	add	a2,a1,a2
    1854:	000015b7          	lui	a1,0x1
    1858:	40b405b3          	sub	a1,s0,a1
    185c:	72c5b823          	sd	a2,1840(a1) # 1730 <.LBB101_5+0x2e0>
    1860:	03f505b3          	mul	a1,a0,t6
    1864:	00001637          	lui	a2,0x1
    1868:	40c40633          	sub	a2,s0,a2
    186c:	73863603          	ld	a2,1848(a2) # 1738 <.LBB101_5+0x2e8>
    1870:	00c58633          	add	a2,a1,a2
    1874:	000015b7          	lui	a1,0x1
    1878:	40b405b3          	sub	a1,s0,a1
    187c:	72c5bc23          	sd	a2,1848(a1) # 1738 <.LBB101_5+0x2e8>
    1880:	03b505b3          	mul	a1,a0,s11
    1884:	00001637          	lui	a2,0x1
    1888:	40c40633          	sub	a2,s0,a2
    188c:	74063603          	ld	a2,1856(a2) # 1740 <.LBB101_5+0x2f0>
    1890:	00c58633          	add	a2,a1,a2
    1894:	000015b7          	lui	a1,0x1
    1898:	40b405b3          	sub	a1,s0,a1
    189c:	74c5b023          	sd	a2,1856(a1) # 1740 <.LBB101_5+0x2f0>
    18a0:	f8843583          	ld	a1,-120(s0)
    18a4:	01958683          	lb	a3,25(a1)
    18a8:	f6d43c23          	sd	a3,-136(s0)
    18ac:	03e505b3          	mul	a1,a0,t5
    18b0:	00001637          	lui	a2,0x1
    18b4:	40c40633          	sub	a2,s0,a2
    18b8:	74863603          	ld	a2,1864(a2) # 1748 <.LBB101_5+0x2f8>
    18bc:	00c58633          	add	a2,a1,a2
    18c0:	000015b7          	lui	a1,0x1
    18c4:	40b405b3          	sub	a1,s0,a1
    18c8:	74c5b423          	sd	a2,1864(a1) # 1748 <.LBB101_5+0x2f8>
    18cc:	f8843583          	ld	a1,-120(s0)
    18d0:	01a58d83          	lb	s11,26(a1)
    18d4:	02d505b3          	mul	a1,a0,a3
    18d8:	00001637          	lui	a2,0x1
    18dc:	40c40633          	sub	a2,s0,a2
    18e0:	75063603          	ld	a2,1872(a2) # 1750 <.LBB101_5+0x300>
    18e4:	00c58633          	add	a2,a1,a2
    18e8:	000015b7          	lui	a1,0x1
    18ec:	40b405b3          	sub	a1,s0,a1
    18f0:	74c5b823          	sd	a2,1872(a1) # 1750 <.LBB101_5+0x300>
    18f4:	f8843583          	ld	a1,-120(s0)
    18f8:	01b58683          	lb	a3,27(a1)
    18fc:	000015b7          	lui	a1,0x1
    1900:	40b405b3          	sub	a1,s0,a1
    1904:	66d5bc23          	sd	a3,1656(a1) # 1678 <.LBB101_5+0x228>
    1908:	03b505b3          	mul	a1,a0,s11
    190c:	edb43023          	sd	s11,-320(s0)
    1910:	00001637          	lui	a2,0x1
    1914:	40c40633          	sub	a2,s0,a2
    1918:	75863603          	ld	a2,1880(a2) # 1758 <.LBB101_5+0x308>
    191c:	00c58633          	add	a2,a1,a2
    1920:	000015b7          	lui	a1,0x1
    1924:	40b405b3          	sub	a1,s0,a1
    1928:	74c5bc23          	sd	a2,1880(a1) # 1758 <.LBB101_5+0x308>
    192c:	f8843583          	ld	a1,-120(s0)
    1930:	01c58903          	lb	s2,28(a1)
    1934:	02d505b3          	mul	a1,a0,a3
    1938:	00001637          	lui	a2,0x1
    193c:	40c40633          	sub	a2,s0,a2
    1940:	76063603          	ld	a2,1888(a2) # 1760 <.LBB101_5+0x310>
    1944:	00c58633          	add	a2,a1,a2
    1948:	000015b7          	lui	a1,0x1
    194c:	40b405b3          	sub	a1,s0,a1
    1950:	76c5b023          	sd	a2,1888(a1) # 1760 <.LBB101_5+0x310>
    1954:	f8843583          	ld	a1,-120(s0)
    1958:	01d58683          	lb	a3,29(a1)
    195c:	032505b3          	mul	a1,a0,s2
    1960:	00001637          	lui	a2,0x1
    1964:	40c40633          	sub	a2,s0,a2
    1968:	76863603          	ld	a2,1896(a2) # 1768 <.LBB101_5+0x318>
    196c:	00c58633          	add	a2,a1,a2
    1970:	000015b7          	lui	a1,0x1
    1974:	40b405b3          	sub	a1,s0,a1
    1978:	76c5b423          	sd	a2,1896(a1) # 1768 <.LBB101_5+0x318>
    197c:	f8843583          	ld	a1,-120(s0)
    1980:	01e58383          	lb	t2,30(a1)
    1984:	02d505b3          	mul	a1,a0,a3
    1988:	00068e93          	mv	t4,a3
    198c:	e8d43023          	sd	a3,-384(s0)
    1990:	00001637          	lui	a2,0x1
    1994:	40c40633          	sub	a2,s0,a2
    1998:	77063603          	ld	a2,1904(a2) # 1770 <.LBB101_5+0x320>
    199c:	00c58633          	add	a2,a1,a2
    19a0:	000015b7          	lui	a1,0x1
    19a4:	40b405b3          	sub	a1,s0,a1
    19a8:	76c5b823          	sd	a2,1904(a1) # 1770 <.LBB101_5+0x320>
    19ac:	f8843583          	ld	a1,-120(s0)
    19b0:	01f58683          	lb	a3,31(a1)
    19b4:	f8043583          	ld	a1,-128(s0)
    19b8:	3c058583          	lb	a1,960(a1)
    19bc:	02750ab3          	mul	s5,a0,t2
    19c0:	00001637          	lui	a2,0x1
    19c4:	40c40633          	sub	a2,s0,a2
    19c8:	77863603          	ld	a2,1912(a2) # 1778 <.LBB101_5+0x328>
    19cc:	00ca8633          	add	a2,s5,a2
    19d0:	00001837          	lui	a6,0x1
    19d4:	41040833          	sub	a6,s0,a6
    19d8:	76c83c23          	sd	a2,1912(a6) # 1778 <.LBB101_5+0x328>
    19dc:	02d50533          	mul	a0,a0,a3
    19e0:	00068b13          	mv	s6,a3
    19e4:	00001637          	lui	a2,0x1
    19e8:	40c40633          	sub	a2,s0,a2
    19ec:	78063603          	ld	a2,1920(a2) # 1780 <.LBB101_5+0x330>
    19f0:	00c50633          	add	a2,a0,a2
    19f4:	00001537          	lui	a0,0x1
    19f8:	40a40533          	sub	a0,s0,a0
    19fc:	78c53023          	sd	a2,1920(a0) # 1780 <.LBB101_5+0x330>
    1a00:	02e58533          	mul	a0,a1,a4
    1a04:	00001637          	lui	a2,0x1
    1a08:	40c40633          	sub	a2,s0,a2
    1a0c:	7a063603          	ld	a2,1952(a2) # 17a0 <.LBB101_5+0x350>
    1a10:	00c50633          	add	a2,a0,a2
    1a14:	00001537          	lui	a0,0x1
    1a18:	40a40533          	sub	a0,s0,a0
    1a1c:	7ac53023          	sd	a2,1952(a0) # 17a0 <.LBB101_5+0x350>
    1a20:	ea843303          	ld	t1,-344(s0)
    1a24:	02658533          	mul	a0,a1,t1
    1a28:	00001637          	lui	a2,0x1
    1a2c:	40c40633          	sub	a2,s0,a2
    1a30:	79863603          	ld	a2,1944(a2) # 1798 <.LBB101_5+0x348>
    1a34:	00c50633          	add	a2,a0,a2
    1a38:	00001537          	lui	a0,0x1
    1a3c:	40a40533          	sub	a0,s0,a0
    1a40:	78c53c23          	sd	a2,1944(a0) # 1798 <.LBB101_5+0x348>
    1a44:	f3843803          	ld	a6,-200(s0)
    1a48:	03058533          	mul	a0,a1,a6
    1a4c:	00001637          	lui	a2,0x1
    1a50:	40c40633          	sub	a2,s0,a2
    1a54:	79063603          	ld	a2,1936(a2) # 1790 <.LBB101_5+0x340>
    1a58:	00c50633          	add	a2,a0,a2
    1a5c:	00001537          	lui	a0,0x1
    1a60:	40a40533          	sub	a0,s0,a0
    1a64:	78c53823          	sd	a2,1936(a0) # 1790 <.LBB101_5+0x340>
    1a68:	ea043883          	ld	a7,-352(s0)
    1a6c:	03158533          	mul	a0,a1,a7
    1a70:	00001637          	lui	a2,0x1
    1a74:	40c40633          	sub	a2,s0,a2
    1a78:	78863603          	ld	a2,1928(a2) # 1788 <.LBB101_5+0x338>
    1a7c:	00c50633          	add	a2,a0,a2
    1a80:	00001537          	lui	a0,0x1
    1a84:	40a40533          	sub	a0,s0,a0
    1a88:	78c53423          	sd	a2,1928(a0) # 1788 <.LBB101_5+0x338>
    1a8c:	f4f43823          	sd	a5,-176(s0)
    1a90:	02f58533          	mul	a0,a1,a5
    1a94:	00001637          	lui	a2,0x1
    1a98:	40c40633          	sub	a2,s0,a2
    1a9c:	7a863603          	ld	a2,1960(a2) # 17a8 <.LBB101_5+0x358>
    1aa0:	00c50633          	add	a2,a0,a2
    1aa4:	00001537          	lui	a0,0x1
    1aa8:	40a40533          	sub	a0,s0,a0
    1aac:	7ac53423          	sd	a2,1960(a0) # 17a8 <.LBB101_5+0x358>
    1ab0:	f4843683          	ld	a3,-184(s0)
    1ab4:	02d58533          	mul	a0,a1,a3
    1ab8:	00001637          	lui	a2,0x1
    1abc:	40c40633          	sub	a2,s0,a2
    1ac0:	7b063603          	ld	a2,1968(a2) # 17b0 <.LBB101_5+0x360>
    1ac4:	00c50633          	add	a2,a0,a2
    1ac8:	00001537          	lui	a0,0x1
    1acc:	40a40533          	sub	a0,s0,a0
    1ad0:	7ac53823          	sd	a2,1968(a0) # 17b0 <.LBB101_5+0x360>
    1ad4:	00008c13          	mv	s8,ra
    1ad8:	f4143c23          	sd	ra,-168(s0)
    1adc:	02158533          	mul	a0,a1,ra
    1ae0:	00001637          	lui	a2,0x1
    1ae4:	40c40633          	sub	a2,s0,a2
    1ae8:	7b863603          	ld	a2,1976(a2) # 17b8 <.LBB101_5+0x368>
    1aec:	00c50633          	add	a2,a0,a2
    1af0:	00001537          	lui	a0,0x1
    1af4:	40a40533          	sub	a0,s0,a0
    1af8:	7ac53c23          	sd	a2,1976(a0) # 17b8 <.LBB101_5+0x368>
    1afc:	f6043083          	ld	ra,-160(s0)
    1b00:	02158533          	mul	a0,a1,ra
    1b04:	00001637          	lui	a2,0x1
    1b08:	40c40633          	sub	a2,s0,a2
    1b0c:	7c063603          	ld	a2,1984(a2) # 17c0 <.LBB101_5+0x370>
    1b10:	00c50633          	add	a2,a0,a2
    1b14:	00001537          	lui	a0,0x1
    1b18:	40a40533          	sub	a0,s0,a0
    1b1c:	7cc53023          	sd	a2,1984(a0) # 17c0 <.LBB101_5+0x370>
    1b20:	f6843f83          	ld	t6,-152(s0)
    1b24:	03f58533          	mul	a0,a1,t6
    1b28:	00001637          	lui	a2,0x1
    1b2c:	40c40633          	sub	a2,s0,a2
    1b30:	7c863603          	ld	a2,1992(a2) # 17c8 <.LBB101_5+0x378>
    1b34:	00c50633          	add	a2,a0,a2
    1b38:	00001537          	lui	a0,0x1
    1b3c:	40a40533          	sub	a0,s0,a0
    1b40:	7cc53423          	sd	a2,1992(a0) # 17c8 <.LBB101_5+0x378>
    1b44:	eb843c83          	ld	s9,-328(s0)
    1b48:	03958533          	mul	a0,a1,s9
    1b4c:	00001637          	lui	a2,0x1
    1b50:	40c40633          	sub	a2,s0,a2
    1b54:	7d063603          	ld	a2,2000(a2) # 17d0 <.LBB101_5+0x380>
    1b58:	00c50633          	add	a2,a0,a2
    1b5c:	00001537          	lui	a0,0x1
    1b60:	40a40533          	sub	a0,s0,a0
    1b64:	7cc53823          	sd	a2,2000(a0) # 17d0 <.LBB101_5+0x380>
    1b68:	f4043503          	ld	a0,-192(s0)
    1b6c:	02a58533          	mul	a0,a1,a0
    1b70:	00001637          	lui	a2,0x1
    1b74:	40c40633          	sub	a2,s0,a2
    1b78:	7d863603          	ld	a2,2008(a2) # 17d8 <.LBB101_5+0x388>
    1b7c:	00c50633          	add	a2,a0,a2
    1b80:	00001537          	lui	a0,0x1
    1b84:	40a40533          	sub	a0,s0,a0
    1b88:	7cc53c23          	sd	a2,2008(a0) # 17d8 <.LBB101_5+0x388>
    1b8c:	e8843e03          	ld	t3,-376(s0)
    1b90:	03c58533          	mul	a0,a1,t3
    1b94:	00001637          	lui	a2,0x1
    1b98:	40c40633          	sub	a2,s0,a2
    1b9c:	7e063603          	ld	a2,2016(a2) # 17e0 <.LBB101_5+0x390>
    1ba0:	00c50633          	add	a2,a0,a2
    1ba4:	00001537          	lui	a0,0x1
    1ba8:	40a40533          	sub	a0,s0,a0
    1bac:	7ec53023          	sd	a2,2016(a0) # 17e0 <.LBB101_5+0x390>
    1bb0:	eb043f03          	ld	t5,-336(s0)
    1bb4:	03e58533          	mul	a0,a1,t5
    1bb8:	00001637          	lui	a2,0x1
    1bbc:	40c40633          	sub	a2,s0,a2
    1bc0:	7e863603          	ld	a2,2024(a2) # 17e8 <.LBB101_5+0x398>
    1bc4:	00c50633          	add	a2,a0,a2
    1bc8:	00001537          	lui	a0,0x1
    1bcc:	40a40533          	sub	a0,s0,a0
    1bd0:	7ec53423          	sd	a2,2024(a0) # 17e8 <.LBB101_5+0x398>
    1bd4:	f0843503          	ld	a0,-248(s0)
    1bd8:	02a58533          	mul	a0,a1,a0
    1bdc:	00001637          	lui	a2,0x1
    1be0:	40c40633          	sub	a2,s0,a2
    1be4:	7f063603          	ld	a2,2032(a2) # 17f0 <.LBB101_5+0x3a0>
    1be8:	00c50633          	add	a2,a0,a2
    1bec:	00001537          	lui	a0,0x1
    1bf0:	40a40533          	sub	a0,s0,a0
    1bf4:	7ec53823          	sd	a2,2032(a0) # 17f0 <.LBB101_5+0x3a0>
    1bf8:	03a58533          	mul	a0,a1,s10
    1bfc:	00001637          	lui	a2,0x1
    1c00:	40c40633          	sub	a2,s0,a2
    1c04:	7f863603          	ld	a2,2040(a2) # 17f8 <.LBB101_5+0x3a8>
    1c08:	00c50633          	add	a2,a0,a2
    1c0c:	00001537          	lui	a0,0x1
    1c10:	40a40533          	sub	a0,s0,a0
    1c14:	7ec53c23          	sd	a2,2040(a0) # 17f8 <.LBB101_5+0x3a8>
    1c18:	03458533          	mul	a0,a1,s4
    1c1c:	80043603          	ld	a2,-2048(s0)
    1c20:	00c50633          	add	a2,a0,a2
    1c24:	80c43023          	sd	a2,-2048(s0)
    1c28:	03758533          	mul	a0,a1,s7
    1c2c:	e7743823          	sd	s7,-400(s0)
    1c30:	80843603          	ld	a2,-2040(s0)
    1c34:	00c50633          	add	a2,a0,a2
    1c38:	80c43423          	sd	a2,-2040(s0)
    1c3c:	ee843703          	ld	a4,-280(s0)
    1c40:	02e58533          	mul	a0,a1,a4
    1c44:	81043603          	ld	a2,-2032(s0)
    1c48:	00c50633          	add	a2,a0,a2
    1c4c:	80c43823          	sd	a2,-2032(s0)
    1c50:	02958533          	mul	a0,a1,s1
    1c54:	81843603          	ld	a2,-2024(s0)
    1c58:	00c50633          	add	a2,a0,a2
    1c5c:	80c43c23          	sd	a2,-2024(s0)
    1c60:	03358533          	mul	a0,a1,s3
    1c64:	82043603          	ld	a2,-2016(s0)
    1c68:	00c50633          	add	a2,a0,a2
    1c6c:	82c43023          	sd	a2,-2016(s0)
    1c70:	02558533          	mul	a0,a1,t0
    1c74:	82843603          	ld	a2,-2008(s0)
    1c78:	00c50633          	add	a2,a0,a2
    1c7c:	82c43423          	sd	a2,-2008(s0)
    1c80:	ec843d03          	ld	s10,-312(s0)
    1c84:	03a58533          	mul	a0,a1,s10
    1c88:	83043603          	ld	a2,-2000(s0)
    1c8c:	00c50633          	add	a2,a0,a2
    1c90:	82c43823          	sd	a2,-2000(s0)
    1c94:	ed043483          	ld	s1,-304(s0)
    1c98:	02958533          	mul	a0,a1,s1
    1c9c:	83843603          	ld	a2,-1992(s0)
    1ca0:	00c50633          	add	a2,a0,a2
    1ca4:	82c43c23          	sd	a2,-1992(s0)
    1ca8:	ef843a03          	ld	s4,-264(s0)
    1cac:	03458533          	mul	a0,a1,s4
    1cb0:	84043603          	ld	a2,-1984(s0)
    1cb4:	00c50633          	add	a2,a0,a2
    1cb8:	84c43023          	sd	a2,-1984(s0)
    1cbc:	f7043503          	ld	a0,-144(s0)
    1cc0:	02a58533          	mul	a0,a1,a0
    1cc4:	84843603          	ld	a2,-1976(s0)
    1cc8:	00c50633          	add	a2,a0,a2
    1ccc:	84c43423          	sd	a2,-1976(s0)
    1cd0:	f7843503          	ld	a0,-136(s0)
    1cd4:	02a58533          	mul	a0,a1,a0
    1cd8:	85043603          	ld	a2,-1968(s0)
    1cdc:	00c50633          	add	a2,a0,a2
    1ce0:	84c43823          	sd	a2,-1968(s0)
    1ce4:	03b58533          	mul	a0,a1,s11
    1ce8:	85843603          	ld	a2,-1960(s0)
    1cec:	00c50633          	add	a2,a0,a2
    1cf0:	84c43c23          	sd	a2,-1960(s0)
    1cf4:	00001537          	lui	a0,0x1
    1cf8:	40a40533          	sub	a0,s0,a0
    1cfc:	67853283          	ld	t0,1656(a0) # 1678 <.LBB101_5+0x228>
    1d00:	02558533          	mul	a0,a1,t0
    1d04:	86043603          	ld	a2,-1952(s0)
    1d08:	00c50633          	add	a2,a0,a2
    1d0c:	86c43023          	sd	a2,-1952(s0)
    1d10:	03258533          	mul	a0,a1,s2
    1d14:	00090d93          	mv	s11,s2
    1d18:	ed243c23          	sd	s2,-296(s0)
    1d1c:	86843603          	ld	a2,-1944(s0)
    1d20:	00c50633          	add	a2,a0,a2
    1d24:	86c43423          	sd	a2,-1944(s0)
    1d28:	03d58533          	mul	a0,a1,t4
    1d2c:	87043603          	ld	a2,-1936(s0)
    1d30:	00c50633          	add	a2,a0,a2
    1d34:	86c43823          	sd	a2,-1936(s0)
    1d38:	f8043503          	ld	a0,-128(s0)
    1d3c:	78050503          	lb	a0,1920(a0)
    1d40:	02758ab3          	mul	s5,a1,t2
    1d44:	00038e93          	mv	t4,t2
    1d48:	e6743c23          	sd	t2,-392(s0)
    1d4c:	87843603          	ld	a2,-1928(s0)
    1d50:	00ca8633          	add	a2,s5,a2
    1d54:	86c43c23          	sd	a2,-1928(s0)
    1d58:	036585b3          	mul	a1,a1,s6
    1d5c:	88043603          	ld	a2,-1920(s0)
    1d60:	00c58633          	add	a2,a1,a2
    1d64:	88c43023          	sd	a2,-1920(s0)
    1d68:	ee043583          	ld	a1,-288(s0)
    1d6c:	02b505b3          	mul	a1,a0,a1
    1d70:	8a043603          	ld	a2,-1888(s0)
    1d74:	00c58633          	add	a2,a1,a2
    1d78:	8ac43023          	sd	a2,-1888(s0)
    1d7c:	026505b3          	mul	a1,a0,t1
    1d80:	89843603          	ld	a2,-1896(s0)
    1d84:	00c58633          	add	a2,a1,a2
    1d88:	88c43c23          	sd	a2,-1896(s0)
    1d8c:	030505b3          	mul	a1,a0,a6
    1d90:	89043603          	ld	a2,-1904(s0)
    1d94:	00c58633          	add	a2,a1,a2
    1d98:	88c43823          	sd	a2,-1904(s0)
    1d9c:	031505b3          	mul	a1,a0,a7
    1da0:	88843603          	ld	a2,-1912(s0)
    1da4:	00c58633          	add	a2,a1,a2
    1da8:	88c43423          	sd	a2,-1912(s0)
    1dac:	02f505b3          	mul	a1,a0,a5
    1db0:	8a843603          	ld	a2,-1880(s0)
    1db4:	00c58633          	add	a2,a1,a2
    1db8:	8ac43423          	sd	a2,-1880(s0)
    1dbc:	02d505b3          	mul	a1,a0,a3
    1dc0:	8b043603          	ld	a2,-1872(s0)
    1dc4:	00c58633          	add	a2,a1,a2
    1dc8:	8ac43823          	sd	a2,-1872(s0)
    1dcc:	038505b3          	mul	a1,a0,s8
    1dd0:	8b843603          	ld	a2,-1864(s0)
    1dd4:	00c58633          	add	a2,a1,a2
    1dd8:	8ac43c23          	sd	a2,-1864(s0)
    1ddc:	021505b3          	mul	a1,a0,ra
    1de0:	8c043603          	ld	a2,-1856(s0)
    1de4:	00c58633          	add	a2,a1,a2
    1de8:	8cc43023          	sd	a2,-1856(s0)
    1dec:	03f505b3          	mul	a1,a0,t6
    1df0:	8c843603          	ld	a2,-1848(s0)
    1df4:	00c58633          	add	a2,a1,a2
    1df8:	8cc43423          	sd	a2,-1848(s0)
    1dfc:	039505b3          	mul	a1,a0,s9
    1e00:	8d043603          	ld	a2,-1840(s0)
    1e04:	00c58633          	add	a2,a1,a2
    1e08:	8cc43823          	sd	a2,-1840(s0)
    1e0c:	f4043903          	ld	s2,-192(s0)
    1e10:	032505b3          	mul	a1,a0,s2
    1e14:	8d843603          	ld	a2,-1832(s0)
    1e18:	00c58633          	add	a2,a1,a2
    1e1c:	8cc43c23          	sd	a2,-1832(s0)
    1e20:	03c505b3          	mul	a1,a0,t3
    1e24:	000e0a93          	mv	s5,t3
    1e28:	8e043603          	ld	a2,-1824(s0)
    1e2c:	00c58633          	add	a2,a1,a2
    1e30:	8ec43023          	sd	a2,-1824(s0)
    1e34:	03e505b3          	mul	a1,a0,t5
    1e38:	8e843603          	ld	a2,-1816(s0)
    1e3c:	00c58633          	add	a2,a1,a2
    1e40:	8ec43423          	sd	a2,-1816(s0)
    1e44:	f0843383          	ld	t2,-248(s0)
    1e48:	027505b3          	mul	a1,a0,t2
    1e4c:	8f043603          	ld	a2,-1808(s0)
    1e50:	00c58633          	add	a2,a1,a2
    1e54:	8ec43823          	sd	a2,-1808(s0)
    1e58:	e9043803          	ld	a6,-368(s0)
    1e5c:	030505b3          	mul	a1,a0,a6
    1e60:	8f843603          	ld	a2,-1800(s0)
    1e64:	00c58633          	add	a2,a1,a2
    1e68:	8ec43c23          	sd	a2,-1800(s0)
    1e6c:	ef043783          	ld	a5,-272(s0)
    1e70:	02f505b3          	mul	a1,a0,a5
    1e74:	90043603          	ld	a2,-1792(s0)
    1e78:	00c58633          	add	a2,a1,a2
    1e7c:	90c43023          	sd	a2,-1792(s0)
    1e80:	037505b3          	mul	a1,a0,s7
    1e84:	90843603          	ld	a2,-1784(s0)
    1e88:	00c58633          	add	a2,a1,a2
    1e8c:	90c43423          	sd	a2,-1784(s0)
    1e90:	02e505b3          	mul	a1,a0,a4
    1e94:	00070093          	mv	ra,a4
    1e98:	91043603          	ld	a2,-1776(s0)
    1e9c:	00c58633          	add	a2,a1,a2
    1ea0:	90c43823          	sd	a2,-1776(s0)
    1ea4:	e9843583          	ld	a1,-360(s0)
    1ea8:	02b505b3          	mul	a1,a0,a1
    1eac:	91843603          	ld	a2,-1768(s0)
    1eb0:	00c58633          	add	a2,a1,a2
    1eb4:	90c43c23          	sd	a2,-1768(s0)
    1eb8:	033505b3          	mul	a1,a0,s3
    1ebc:	00098f93          	mv	t6,s3
    1ec0:	00001637          	lui	a2,0x1
    1ec4:	40c40633          	sub	a2,s0,a2
    1ec8:	67363823          	sd	s3,1648(a2) # 1670 <.LBB101_5+0x220>
    1ecc:	92043603          	ld	a2,-1760(s0)
    1ed0:	00c58633          	add	a2,a1,a2
    1ed4:	92c43023          	sd	a2,-1760(s0)
    1ed8:	f0043583          	ld	a1,-256(s0)
    1edc:	02b505b3          	mul	a1,a0,a1
    1ee0:	92843603          	ld	a2,-1752(s0)
    1ee4:	00c58633          	add	a2,a1,a2
    1ee8:	92c43423          	sd	a2,-1752(s0)
    1eec:	03a505b3          	mul	a1,a0,s10
    1ef0:	93043603          	ld	a2,-1744(s0)
    1ef4:	00c58633          	add	a2,a1,a2
    1ef8:	92c43823          	sd	a2,-1744(s0)
    1efc:	029505b3          	mul	a1,a0,s1
    1f00:	00048b93          	mv	s7,s1
    1f04:	93843603          	ld	a2,-1736(s0)
    1f08:	00c58633          	add	a2,a1,a2
    1f0c:	92c43c23          	sd	a2,-1736(s0)
    1f10:	034505b3          	mul	a1,a0,s4
    1f14:	94043603          	ld	a2,-1728(s0)
    1f18:	00c58633          	add	a2,a1,a2
    1f1c:	94c43023          	sd	a2,-1728(s0)
    1f20:	f7043683          	ld	a3,-144(s0)
    1f24:	02d505b3          	mul	a1,a0,a3
    1f28:	94843603          	ld	a2,-1720(s0)
    1f2c:	00c58633          	add	a2,a1,a2
    1f30:	94c43423          	sd	a2,-1720(s0)
    1f34:	f7843a03          	ld	s4,-136(s0)
    1f38:	034505b3          	mul	a1,a0,s4
    1f3c:	95043603          	ld	a2,-1712(s0)
    1f40:	00c58633          	add	a2,a1,a2
    1f44:	94c43823          	sd	a2,-1712(s0)
    1f48:	ec043f03          	ld	t5,-320(s0)
    1f4c:	03e505b3          	mul	a1,a0,t5
    1f50:	95843603          	ld	a2,-1704(s0)
    1f54:	00c58633          	add	a2,a1,a2
    1f58:	94c43c23          	sd	a2,-1704(s0)
    1f5c:	00028893          	mv	a7,t0
    1f60:	025505b3          	mul	a1,a0,t0
    1f64:	96043603          	ld	a2,-1696(s0)
    1f68:	00c58633          	add	a2,a1,a2
    1f6c:	96c43023          	sd	a2,-1696(s0)
    1f70:	03b505b3          	mul	a1,a0,s11
    1f74:	96843603          	ld	a2,-1688(s0)
    1f78:	00c58633          	add	a2,a1,a2
    1f7c:	96c43423          	sd	a2,-1688(s0)
    1f80:	e8043703          	ld	a4,-384(s0)
    1f84:	02e505b3          	mul	a1,a0,a4
    1f88:	97043603          	ld	a2,-1680(s0)
    1f8c:	00c58633          	add	a2,a1,a2
    1f90:	96c43823          	sd	a2,-1680(s0)
    1f94:	f8043583          	ld	a1,-128(s0)
    1f98:	7ff58c13          	addi	s8,a1,2047
    1f9c:	341c0583          	lb	a1,833(s8)
    1fa0:	03d50db3          	mul	s11,a0,t4
    1fa4:	97843603          	ld	a2,-1672(s0)
    1fa8:	00cd8633          	add	a2,s11,a2
    1fac:	96c43c23          	sd	a2,-1672(s0)
    1fb0:	03650533          	mul	a0,a0,s6
    1fb4:	e7643423          	sd	s6,-408(s0)
    1fb8:	98043603          	ld	a2,-1664(s0)
    1fbc:	00c50633          	add	a2,a0,a2
    1fc0:	98c43023          	sd	a2,-1664(s0)
    1fc4:	ee043e03          	ld	t3,-288(s0)
    1fc8:	03c58533          	mul	a0,a1,t3
    1fcc:	9a043603          	ld	a2,-1632(s0)
    1fd0:	00c50633          	add	a2,a0,a2
    1fd4:	9ac43023          	sd	a2,-1632(s0)
    1fd8:	02658533          	mul	a0,a1,t1
    1fdc:	99843603          	ld	a2,-1640(s0)
    1fe0:	00c50633          	add	a2,a0,a2
    1fe4:	98c43c23          	sd	a2,-1640(s0)
    1fe8:	f3843d03          	ld	s10,-200(s0)
    1fec:	03a58533          	mul	a0,a1,s10
    1ff0:	99043603          	ld	a2,-1648(s0)
    1ff4:	00c50633          	add	a2,a0,a2
    1ff8:	98c43823          	sd	a2,-1648(s0)
    1ffc:	ea043983          	ld	s3,-352(s0)
    2000:	03358533          	mul	a0,a1,s3
    2004:	98843603          	ld	a2,-1656(s0)
    2008:	00c50633          	add	a2,a0,a2
    200c:	98c43423          	sd	a2,-1656(s0)
    2010:	f5043503          	ld	a0,-176(s0)
    2014:	02a58533          	mul	a0,a1,a0
    2018:	9a843603          	ld	a2,-1624(s0)
    201c:	00c50633          	add	a2,a0,a2
    2020:	9ac43423          	sd	a2,-1624(s0)
    2024:	f4843503          	ld	a0,-184(s0)
    2028:	02a58533          	mul	a0,a1,a0
    202c:	9b043603          	ld	a2,-1616(s0)
    2030:	00c50633          	add	a2,a0,a2
    2034:	9ac43823          	sd	a2,-1616(s0)
    2038:	f5843503          	ld	a0,-168(s0)
    203c:	02a58533          	mul	a0,a1,a0
    2040:	9b843603          	ld	a2,-1608(s0)
    2044:	00c50633          	add	a2,a0,a2
    2048:	9ac43c23          	sd	a2,-1608(s0)
    204c:	f6043503          	ld	a0,-160(s0)
    2050:	02a58533          	mul	a0,a1,a0
    2054:	9c043603          	ld	a2,-1600(s0)
    2058:	00c50633          	add	a2,a0,a2
    205c:	9cc43023          	sd	a2,-1600(s0)
    2060:	f6843503          	ld	a0,-152(s0)
    2064:	02a58533          	mul	a0,a1,a0
    2068:	9c843603          	ld	a2,-1592(s0)
    206c:	00c50633          	add	a2,a0,a2
    2070:	9cc43423          	sd	a2,-1592(s0)
    2074:	03958533          	mul	a0,a1,s9
    2078:	9d043603          	ld	a2,-1584(s0)
    207c:	00c50633          	add	a2,a0,a2
    2080:	9cc43823          	sd	a2,-1584(s0)
    2084:	03258533          	mul	a0,a1,s2
    2088:	9d843603          	ld	a2,-1576(s0)
    208c:	00c50633          	add	a2,a0,a2
    2090:	9cc43c23          	sd	a2,-1576(s0)
    2094:	03558533          	mul	a0,a1,s5
    2098:	9e043603          	ld	a2,-1568(s0)
    209c:	00c50633          	add	a2,a0,a2
    20a0:	9ec43023          	sd	a2,-1568(s0)
    20a4:	eb043c83          	ld	s9,-336(s0)
    20a8:	03958533          	mul	a0,a1,s9
    20ac:	9e843603          	ld	a2,-1560(s0)
    20b0:	00c50633          	add	a2,a0,a2
    20b4:	9ec43423          	sd	a2,-1560(s0)
    20b8:	00038493          	mv	s1,t2
    20bc:	02758533          	mul	a0,a1,t2
    20c0:	9f043603          	ld	a2,-1552(s0)
    20c4:	00c50633          	add	a2,a0,a2
    20c8:	9ec43823          	sd	a2,-1552(s0)
    20cc:	00080293          	mv	t0,a6
    20d0:	03058533          	mul	a0,a1,a6
    20d4:	9f843603          	ld	a2,-1544(s0)
    20d8:	00c50633          	add	a2,a0,a2
    20dc:	9ec43c23          	sd	a2,-1544(s0)
    20e0:	02f58533          	mul	a0,a1,a5
    20e4:	a0043603          	ld	a2,-1536(s0)
    20e8:	00c50633          	add	a2,a0,a2
    20ec:	a0c43023          	sd	a2,-1536(s0)
    20f0:	e7043903          	ld	s2,-400(s0)
    20f4:	03258533          	mul	a0,a1,s2
    20f8:	a0843603          	ld	a2,-1528(s0)
    20fc:	00c50633          	add	a2,a0,a2
    2100:	a0c43423          	sd	a2,-1528(s0)
    2104:	02158533          	mul	a0,a1,ra
    2108:	a1043603          	ld	a2,-1520(s0)
    210c:	00c50633          	add	a2,a0,a2
    2110:	a0c43823          	sd	a2,-1520(s0)
    2114:	e9843083          	ld	ra,-360(s0)
    2118:	02158533          	mul	a0,a1,ra
    211c:	a1843603          	ld	a2,-1512(s0)
    2120:	00c50633          	add	a2,a0,a2
    2124:	a0c43c23          	sd	a2,-1512(s0)
    2128:	03f58533          	mul	a0,a1,t6
    212c:	a2043603          	ld	a2,-1504(s0)
    2130:	00c50633          	add	a2,a0,a2
    2134:	a2c43023          	sd	a2,-1504(s0)
    2138:	f0043503          	ld	a0,-256(s0)
    213c:	02a58533          	mul	a0,a1,a0
    2140:	a2843603          	ld	a2,-1496(s0)
    2144:	00c50633          	add	a2,a0,a2
    2148:	a2c43423          	sd	a2,-1496(s0)
    214c:	ec843e83          	ld	t4,-312(s0)
    2150:	03d58533          	mul	a0,a1,t4
    2154:	a3043603          	ld	a2,-1488(s0)
    2158:	00c50633          	add	a2,a0,a2
    215c:	a2c43823          	sd	a2,-1488(s0)
    2160:	03758533          	mul	a0,a1,s7
    2164:	a3843603          	ld	a2,-1480(s0)
    2168:	00c50633          	add	a2,a0,a2
    216c:	a2c43c23          	sd	a2,-1480(s0)
    2170:	ef843503          	ld	a0,-264(s0)
    2174:	02a58533          	mul	a0,a1,a0
    2178:	a4043603          	ld	a2,-1472(s0)
    217c:	00c50633          	add	a2,a0,a2
    2180:	a4c43023          	sd	a2,-1472(s0)
    2184:	02d58533          	mul	a0,a1,a3
    2188:	a4843603          	ld	a2,-1464(s0)
    218c:	00c50633          	add	a2,a0,a2
    2190:	a4c43423          	sd	a2,-1464(s0)
    2194:	03458533          	mul	a0,a1,s4
    2198:	a5043603          	ld	a2,-1456(s0)
    219c:	00c50633          	add	a2,a0,a2
    21a0:	a4c43823          	sd	a2,-1456(s0)
    21a4:	03e58533          	mul	a0,a1,t5
    21a8:	a5843603          	ld	a2,-1448(s0)
    21ac:	00c50633          	add	a2,a0,a2
    21b0:	a4c43c23          	sd	a2,-1448(s0)
    21b4:	03158533          	mul	a0,a1,a7
    21b8:	00088393          	mv	t2,a7
    21bc:	a6043603          	ld	a2,-1440(s0)
    21c0:	00c50633          	add	a2,a0,a2
    21c4:	a6c43023          	sd	a2,-1440(s0)
    21c8:	ed843883          	ld	a7,-296(s0)
    21cc:	03158533          	mul	a0,a1,a7
    21d0:	a6843603          	ld	a2,-1432(s0)
    21d4:	00c50633          	add	a2,a0,a2
    21d8:	a6c43423          	sd	a2,-1432(s0)
    21dc:	02e58533          	mul	a0,a1,a4
    21e0:	a7043603          	ld	a2,-1424(s0)
    21e4:	00c50633          	add	a2,a0,a2
    21e8:	a6c43823          	sd	a2,-1424(s0)
    21ec:	341c0513          	addi	a0,s8,833
    21f0:	3c050a83          	lb	s5,960(a0)
    21f4:	e7843803          	ld	a6,-392(s0)
    21f8:	03058db3          	mul	s11,a1,a6
    21fc:	a7843603          	ld	a2,-1416(s0)
    2200:	00cd8633          	add	a2,s11,a2
    2204:	a6c43c23          	sd	a2,-1416(s0)
    2208:	036585b3          	mul	a1,a1,s6
    220c:	a8043603          	ld	a2,-1408(s0)
    2210:	00c58633          	add	a2,a1,a2
    2214:	a8c43023          	sd	a2,-1408(s0)
    2218:	03ca85b3          	mul	a1,s5,t3
    221c:	000e0b13          	mv	s6,t3
    2220:	aa043603          	ld	a2,-1376(s0)
    2224:	00c58633          	add	a2,a1,a2
    2228:	aac43023          	sd	a2,-1376(s0)
    222c:	026a85b3          	mul	a1,s5,t1
    2230:	a9843603          	ld	a2,-1384(s0)
    2234:	00c58633          	add	a2,a1,a2
    2238:	a8c43c23          	sd	a2,-1384(s0)
    223c:	03aa85b3          	mul	a1,s5,s10
    2240:	a9043603          	ld	a2,-1392(s0)
    2244:	00c58633          	add	a2,a1,a2
    2248:	a8c43823          	sd	a2,-1392(s0)
    224c:	00098793          	mv	a5,s3
    2250:	033a85b3          	mul	a1,s5,s3
    2254:	a8843603          	ld	a2,-1400(s0)
    2258:	00c58633          	add	a2,a1,a2
    225c:	a8c43423          	sd	a2,-1400(s0)
    2260:	f5043703          	ld	a4,-176(s0)
    2264:	02ea85b3          	mul	a1,s5,a4
    2268:	aa843603          	ld	a2,-1368(s0)
    226c:	00c58633          	add	a2,a1,a2
    2270:	aac43423          	sd	a2,-1368(s0)
    2274:	f4843a03          	ld	s4,-184(s0)
    2278:	034a85b3          	mul	a1,s5,s4
    227c:	ab043603          	ld	a2,-1360(s0)
    2280:	00c58633          	add	a2,a1,a2
    2284:	aac43823          	sd	a2,-1360(s0)
    2288:	f5843303          	ld	t1,-168(s0)
    228c:	026a85b3          	mul	a1,s5,t1
    2290:	ab843603          	ld	a2,-1352(s0)
    2294:	00c58633          	add	a2,a1,a2
    2298:	aac43c23          	sd	a2,-1352(s0)
    229c:	f6043e03          	ld	t3,-160(s0)
    22a0:	03ca85b3          	mul	a1,s5,t3
    22a4:	ac043603          	ld	a2,-1344(s0)
    22a8:	00c58633          	add	a2,a1,a2
    22ac:	acc43023          	sd	a2,-1344(s0)
    22b0:	f6843f83          	ld	t6,-152(s0)
    22b4:	03fa85b3          	mul	a1,s5,t6
    22b8:	ac843603          	ld	a2,-1336(s0)
    22bc:	00c58633          	add	a2,a1,a2
    22c0:	acc43423          	sd	a2,-1336(s0)
    22c4:	eb843683          	ld	a3,-328(s0)
    22c8:	02da85b3          	mul	a1,s5,a3
    22cc:	ad043603          	ld	a2,-1328(s0)
    22d0:	00c58633          	add	a2,a1,a2
    22d4:	acc43823          	sd	a2,-1328(s0)
    22d8:	f4043583          	ld	a1,-192(s0)
    22dc:	02ba85b3          	mul	a1,s5,a1
    22e0:	ad843603          	ld	a2,-1320(s0)
    22e4:	00c58633          	add	a2,a1,a2
    22e8:	acc43c23          	sd	a2,-1320(s0)
    22ec:	e8843c03          	ld	s8,-376(s0)
    22f0:	038a85b3          	mul	a1,s5,s8
    22f4:	ae043603          	ld	a2,-1312(s0)
    22f8:	00c58633          	add	a2,a1,a2
    22fc:	aec43023          	sd	a2,-1312(s0)
    2300:	039a85b3          	mul	a1,s5,s9
    2304:	ae843603          	ld	a2,-1304(s0)
    2308:	00c58633          	add	a2,a1,a2
    230c:	aec43423          	sd	a2,-1304(s0)
    2310:	00048d93          	mv	s11,s1
    2314:	029a85b3          	mul	a1,s5,s1
    2318:	af043603          	ld	a2,-1296(s0)
    231c:	00c58633          	add	a2,a1,a2
    2320:	aec43823          	sd	a2,-1296(s0)
    2324:	025a85b3          	mul	a1,s5,t0
    2328:	af843603          	ld	a2,-1288(s0)
    232c:	00c58633          	add	a2,a1,a2
    2330:	aec43c23          	sd	a2,-1288(s0)
    2334:	ef043583          	ld	a1,-272(s0)
    2338:	02ba85b3          	mul	a1,s5,a1
    233c:	b0043603          	ld	a2,-1280(s0)
    2340:	00c58633          	add	a2,a1,a2
    2344:	b0c43023          	sd	a2,-1280(s0)
    2348:	032a85b3          	mul	a1,s5,s2
    234c:	b0843603          	ld	a2,-1272(s0)
    2350:	00c58633          	add	a2,a1,a2
    2354:	b0c43423          	sd	a2,-1272(s0)
    2358:	ee843583          	ld	a1,-280(s0)
    235c:	02ba85b3          	mul	a1,s5,a1
    2360:	b1043603          	ld	a2,-1264(s0)
    2364:	00c58633          	add	a2,a1,a2
    2368:	b0c43823          	sd	a2,-1264(s0)
    236c:	00008993          	mv	s3,ra
    2370:	021a85b3          	mul	a1,s5,ra
    2374:	b1843603          	ld	a2,-1256(s0)
    2378:	00c58633          	add	a2,a1,a2
    237c:	b0c43c23          	sd	a2,-1256(s0)
    2380:	000015b7          	lui	a1,0x1
    2384:	40b405b3          	sub	a1,s0,a1
    2388:	6705b483          	ld	s1,1648(a1) # 1670 <.LBB101_5+0x220>
    238c:	029a85b3          	mul	a1,s5,s1
    2390:	b2043603          	ld	a2,-1248(s0)
    2394:	00c58633          	add	a2,a1,a2
    2398:	b2c43023          	sd	a2,-1248(s0)
    239c:	f0043b83          	ld	s7,-256(s0)
    23a0:	037a85b3          	mul	a1,s5,s7
    23a4:	b2843603          	ld	a2,-1240(s0)
    23a8:	00c58633          	add	a2,a1,a2
    23ac:	b2c43423          	sd	a2,-1240(s0)
    23b0:	03da85b3          	mul	a1,s5,t4
    23b4:	000e8d13          	mv	s10,t4
    23b8:	b3043603          	ld	a2,-1232(s0)
    23bc:	00c58633          	add	a2,a1,a2
    23c0:	b2c43823          	sd	a2,-1232(s0)
    23c4:	ed043e83          	ld	t4,-304(s0)
    23c8:	03da85b3          	mul	a1,s5,t4
    23cc:	b3843603          	ld	a2,-1224(s0)
    23d0:	00c58633          	add	a2,a1,a2
    23d4:	b2c43c23          	sd	a2,-1224(s0)
    23d8:	ef843903          	ld	s2,-264(s0)
    23dc:	032a85b3          	mul	a1,s5,s2
    23e0:	b4043603          	ld	a2,-1216(s0)
    23e4:	00c58633          	add	a2,a1,a2
    23e8:	b4c43023          	sd	a2,-1216(s0)
    23ec:	f7043083          	ld	ra,-144(s0)
    23f0:	021a85b3          	mul	a1,s5,ra
    23f4:	b4843603          	ld	a2,-1208(s0)
    23f8:	00c58633          	add	a2,a1,a2
    23fc:	b4c43423          	sd	a2,-1208(s0)
    2400:	f7843583          	ld	a1,-136(s0)
    2404:	02ba85b3          	mul	a1,s5,a1
    2408:	b5043603          	ld	a2,-1200(s0)
    240c:	00c58633          	add	a2,a1,a2
    2410:	b4c43823          	sd	a2,-1200(s0)
    2414:	03ea85b3          	mul	a1,s5,t5
    2418:	b5843603          	ld	a2,-1192(s0)
    241c:	00c58633          	add	a2,a1,a2
    2420:	b4c43c23          	sd	a2,-1192(s0)
    2424:	00038293          	mv	t0,t2
    2428:	027a85b3          	mul	a1,s5,t2
    242c:	b6043603          	ld	a2,-1184(s0)
    2430:	00c58633          	add	a2,a1,a2
    2434:	b6c43023          	sd	a2,-1184(s0)
    2438:	031a85b3          	mul	a1,s5,a7
    243c:	b6843603          	ld	a2,-1176(s0)
    2440:	00c58633          	add	a2,a1,a2
    2444:	b6c43423          	sd	a2,-1176(s0)
    2448:	e8043383          	ld	t2,-384(s0)
    244c:	027a85b3          	mul	a1,s5,t2
    2450:	b7043603          	ld	a2,-1168(s0)
    2454:	00c58633          	add	a2,a1,a2
    2458:	b6c43823          	sd	a2,-1168(s0)
    245c:	78050503          	lb	a0,1920(a0)
    2460:	030a85b3          	mul	a1,s5,a6
    2464:	b7843603          	ld	a2,-1160(s0)
    2468:	00c58633          	add	a2,a1,a2
    246c:	b6c43c23          	sd	a2,-1160(s0)
    2470:	e6843803          	ld	a6,-408(s0)
    2474:	030a85b3          	mul	a1,s5,a6
    2478:	b8043603          	ld	a2,-1152(s0)
    247c:	00c58633          	add	a2,a1,a2
    2480:	b8c43023          	sd	a2,-1152(s0)
    2484:	036505b3          	mul	a1,a0,s6
    2488:	ba043603          	ld	a2,-1120(s0)
    248c:	00c58633          	add	a2,a1,a2
    2490:	bac43023          	sd	a2,-1120(s0)
    2494:	ea843883          	ld	a7,-344(s0)
    2498:	031505b3          	mul	a1,a0,a7
    249c:	b9843603          	ld	a2,-1128(s0)
    24a0:	00c58633          	add	a2,a1,a2
    24a4:	b8c43c23          	sd	a2,-1128(s0)
    24a8:	f3843f03          	ld	t5,-200(s0)
    24ac:	03e505b3          	mul	a1,a0,t5
    24b0:	b9043603          	ld	a2,-1136(s0)
    24b4:	00c58633          	add	a2,a1,a2
    24b8:	b8c43823          	sd	a2,-1136(s0)
    24bc:	02f505b3          	mul	a1,a0,a5
    24c0:	b8843603          	ld	a2,-1144(s0)
    24c4:	00c58633          	add	a2,a1,a2
    24c8:	b8c43423          	sd	a2,-1144(s0)
    24cc:	02e505b3          	mul	a1,a0,a4
    24d0:	ba843603          	ld	a2,-1112(s0)
    24d4:	00c58633          	add	a2,a1,a2
    24d8:	bac43423          	sd	a2,-1112(s0)
    24dc:	034505b3          	mul	a1,a0,s4
    24e0:	bb043603          	ld	a2,-1104(s0)
    24e4:	00c58633          	add	a2,a1,a2
    24e8:	bac43823          	sd	a2,-1104(s0)
    24ec:	026505b3          	mul	a1,a0,t1
    24f0:	bb843603          	ld	a2,-1096(s0)
    24f4:	00c58633          	add	a2,a1,a2
    24f8:	bac43c23          	sd	a2,-1096(s0)
    24fc:	03c505b3          	mul	a1,a0,t3
    2500:	bc043603          	ld	a2,-1088(s0)
    2504:	00c58633          	add	a2,a1,a2
    2508:	bcc43023          	sd	a2,-1088(s0)
    250c:	03f505b3          	mul	a1,a0,t6
    2510:	bc843603          	ld	a2,-1080(s0)
    2514:	00c58633          	add	a2,a1,a2
    2518:	bcc43423          	sd	a2,-1080(s0)
    251c:	02d505b3          	mul	a1,a0,a3
    2520:	bd043603          	ld	a2,-1072(s0)
    2524:	00c58633          	add	a2,a1,a2
    2528:	bcc43823          	sd	a2,-1072(s0)
    252c:	f4043703          	ld	a4,-192(s0)
    2530:	02e505b3          	mul	a1,a0,a4
    2534:	bd843603          	ld	a2,-1064(s0)
    2538:	00c58633          	add	a2,a1,a2
    253c:	bcc43c23          	sd	a2,-1064(s0)
    2540:	038505b3          	mul	a1,a0,s8
    2544:	be043603          	ld	a2,-1056(s0)
    2548:	00c58633          	add	a2,a1,a2
    254c:	bec43023          	sd	a2,-1056(s0)
    2550:	039505b3          	mul	a1,a0,s9
    2554:	be843603          	ld	a2,-1048(s0)
    2558:	00c58633          	add	a2,a1,a2
    255c:	bec43423          	sd	a2,-1048(s0)
    2560:	03b505b3          	mul	a1,a0,s11
    2564:	bf043603          	ld	a2,-1040(s0)
    2568:	00c58633          	add	a2,a1,a2
    256c:	bec43823          	sd	a2,-1040(s0)
    2570:	e9043303          	ld	t1,-368(s0)
    2574:	026505b3          	mul	a1,a0,t1
    2578:	bf843603          	ld	a2,-1032(s0)
    257c:	00c58633          	add	a2,a1,a2
    2580:	bec43c23          	sd	a2,-1032(s0)
    2584:	ef043e03          	ld	t3,-272(s0)
    2588:	03c505b3          	mul	a1,a0,t3
    258c:	c0043603          	ld	a2,-1024(s0)
    2590:	00c58633          	add	a2,a1,a2
    2594:	c0c43023          	sd	a2,-1024(s0)
    2598:	e7043683          	ld	a3,-400(s0)
    259c:	02d505b3          	mul	a1,a0,a3
    25a0:	c0843603          	ld	a2,-1016(s0)
    25a4:	00c58633          	add	a2,a1,a2
    25a8:	c0c43423          	sd	a2,-1016(s0)
    25ac:	ee843f83          	ld	t6,-280(s0)
    25b0:	03f505b3          	mul	a1,a0,t6
    25b4:	c1043603          	ld	a2,-1008(s0)
    25b8:	00c58633          	add	a2,a1,a2
    25bc:	c0c43823          	sd	a2,-1008(s0)
    25c0:	033505b3          	mul	a1,a0,s3
    25c4:	c1843603          	ld	a2,-1000(s0)
    25c8:	00c58633          	add	a2,a1,a2
    25cc:	c0c43c23          	sd	a2,-1000(s0)
    25d0:	029505b3          	mul	a1,a0,s1
    25d4:	c2043603          	ld	a2,-992(s0)
    25d8:	00c58633          	add	a2,a1,a2
    25dc:	c2c43023          	sd	a2,-992(s0)
    25e0:	037505b3          	mul	a1,a0,s7
    25e4:	c2843603          	ld	a2,-984(s0)
    25e8:	00c58633          	add	a2,a1,a2
    25ec:	c2c43423          	sd	a2,-984(s0)
    25f0:	03a505b3          	mul	a1,a0,s10
    25f4:	c3043603          	ld	a2,-976(s0)
    25f8:	00c58633          	add	a2,a1,a2
    25fc:	c2c43823          	sd	a2,-976(s0)
    2600:	03d505b3          	mul	a1,a0,t4
    2604:	c3843603          	ld	a2,-968(s0)
    2608:	00c58633          	add	a2,a1,a2
    260c:	c2c43c23          	sd	a2,-968(s0)
    2610:	032505b3          	mul	a1,a0,s2
    2614:	c4043603          	ld	a2,-960(s0)
    2618:	00c58633          	add	a2,a1,a2
    261c:	c4c43023          	sd	a2,-960(s0)
    2620:	021505b3          	mul	a1,a0,ra
    2624:	c4843603          	ld	a2,-952(s0)
    2628:	00c58633          	add	a2,a1,a2
    262c:	c4c43423          	sd	a2,-952(s0)
    2630:	f7843583          	ld	a1,-136(s0)
    2634:	02b505b3          	mul	a1,a0,a1
    2638:	c5043603          	ld	a2,-944(s0)
    263c:	00c58633          	add	a2,a1,a2
    2640:	c4c43823          	sd	a2,-944(s0)
    2644:	ec043583          	ld	a1,-320(s0)
    2648:	02b505b3          	mul	a1,a0,a1
    264c:	c5843603          	ld	a2,-936(s0)
    2650:	00c58633          	add	a2,a1,a2
    2654:	c4c43c23          	sd	a2,-936(s0)
    2658:	025505b3          	mul	a1,a0,t0
    265c:	c6043603          	ld	a2,-928(s0)
    2660:	00c58633          	add	a2,a1,a2
    2664:	c6c43023          	sd	a2,-928(s0)
    2668:	ed843583          	ld	a1,-296(s0)
    266c:	02b505b3          	mul	a1,a0,a1
    2670:	c6843603          	ld	a2,-920(s0)
    2674:	00c58633          	add	a2,a1,a2
    2678:	c6c43423          	sd	a2,-920(s0)
    267c:	027505b3          	mul	a1,a0,t2
    2680:	c7043603          	ld	a2,-912(s0)
    2684:	00c58633          	add	a2,a1,a2
    2688:	c6c43823          	sd	a2,-912(s0)
    268c:	f8043a83          	ld	s5,-128(s0)
    2690:	000015b7          	lui	a1,0x1
    2694:	40b405b3          	sub	a1,s0,a1
    2698:	6605b583          	ld	a1,1632(a1) # 1660 <.LBB101_5+0x210>
    269c:	00ba8ab3          	add	s5,s5,a1
    26a0:	000a8583          	lb	a1,0(s5)
    26a4:	e7843e83          	ld	t4,-392(s0)
    26a8:	03d50db3          	mul	s11,a0,t4
    26ac:	c7843603          	ld	a2,-904(s0)
    26b0:	00cd8633          	add	a2,s11,a2
    26b4:	c6c43c23          	sd	a2,-904(s0)
    26b8:	03050533          	mul	a0,a0,a6
    26bc:	c8043603          	ld	a2,-896(s0)
    26c0:	00c50633          	add	a2,a0,a2
    26c4:	c8c43023          	sd	a2,-896(s0)
    26c8:	03658533          	mul	a0,a1,s6
    26cc:	ca043603          	ld	a2,-864(s0)
    26d0:	00c50633          	add	a2,a0,a2
    26d4:	cac43023          	sd	a2,-864(s0)
    26d8:	03158533          	mul	a0,a1,a7
    26dc:	c9843603          	ld	a2,-872(s0)
    26e0:	00c50633          	add	a2,a0,a2
    26e4:	c8c43c23          	sd	a2,-872(s0)
    26e8:	03e58533          	mul	a0,a1,t5
    26ec:	c9043603          	ld	a2,-880(s0)
    26f0:	00c50633          	add	a2,a0,a2
    26f4:	c8c43823          	sd	a2,-880(s0)
    26f8:	02f58533          	mul	a0,a1,a5
    26fc:	c8843603          	ld	a2,-888(s0)
    2700:	00c50633          	add	a2,a0,a2
    2704:	c8c43423          	sd	a2,-888(s0)
    2708:	f5043503          	ld	a0,-176(s0)
    270c:	02a58533          	mul	a0,a1,a0
    2710:	ca843603          	ld	a2,-856(s0)
    2714:	00c50633          	add	a2,a0,a2
    2718:	cac43423          	sd	a2,-856(s0)
    271c:	03458533          	mul	a0,a1,s4
    2720:	cb043603          	ld	a2,-848(s0)
    2724:	00c50633          	add	a2,a0,a2
    2728:	cac43823          	sd	a2,-848(s0)
    272c:	f5843503          	ld	a0,-168(s0)
    2730:	02a58533          	mul	a0,a1,a0
    2734:	cb843603          	ld	a2,-840(s0)
    2738:	00c50633          	add	a2,a0,a2
    273c:	cac43c23          	sd	a2,-840(s0)
    2740:	f6043083          	ld	ra,-160(s0)
    2744:	02158533          	mul	a0,a1,ra
    2748:	cc043603          	ld	a2,-832(s0)
    274c:	00c50633          	add	a2,a0,a2
    2750:	ccc43023          	sd	a2,-832(s0)
    2754:	f6843d03          	ld	s10,-152(s0)
    2758:	03a58533          	mul	a0,a1,s10
    275c:	cc843603          	ld	a2,-824(s0)
    2760:	00c50633          	add	a2,a0,a2
    2764:	ccc43423          	sd	a2,-824(s0)
    2768:	eb843c83          	ld	s9,-328(s0)
    276c:	03958533          	mul	a0,a1,s9
    2770:	cd043603          	ld	a2,-816(s0)
    2774:	00c50633          	add	a2,a0,a2
    2778:	ccc43823          	sd	a2,-816(s0)
    277c:	00070d93          	mv	s11,a4
    2780:	02e58533          	mul	a0,a1,a4
    2784:	cd843603          	ld	a2,-808(s0)
    2788:	00c50633          	add	a2,a0,a2
    278c:	ccc43c23          	sd	a2,-808(s0)
    2790:	03858533          	mul	a0,a1,s8
    2794:	ce043603          	ld	a2,-800(s0)
    2798:	00c50633          	add	a2,a0,a2
    279c:	cec43023          	sd	a2,-800(s0)
    27a0:	eb043b03          	ld	s6,-336(s0)
    27a4:	03658533          	mul	a0,a1,s6
    27a8:	ce843603          	ld	a2,-792(s0)
    27ac:	00c50633          	add	a2,a0,a2
    27b0:	cec43423          	sd	a2,-792(s0)
    27b4:	f0843783          	ld	a5,-248(s0)
    27b8:	02f58533          	mul	a0,a1,a5
    27bc:	cf043603          	ld	a2,-784(s0)
    27c0:	00c50633          	add	a2,a0,a2
    27c4:	cec43823          	sd	a2,-784(s0)
    27c8:	02658533          	mul	a0,a1,t1
    27cc:	cf843603          	ld	a2,-776(s0)
    27d0:	00c50633          	add	a2,a0,a2
    27d4:	cec43c23          	sd	a2,-776(s0)
    27d8:	03c58533          	mul	a0,a1,t3
    27dc:	000e0a13          	mv	s4,t3
    27e0:	d0043603          	ld	a2,-768(s0)
    27e4:	00c50633          	add	a2,a0,a2
    27e8:	d0c43023          	sd	a2,-768(s0)
    27ec:	00068313          	mv	t1,a3
    27f0:	02d58533          	mul	a0,a1,a3
    27f4:	d0843603          	ld	a2,-760(s0)
    27f8:	00c50633          	add	a2,a0,a2
    27fc:	d0c43423          	sd	a2,-760(s0)
    2800:	03f58533          	mul	a0,a1,t6
    2804:	000f8993          	mv	s3,t6
    2808:	d1043603          	ld	a2,-752(s0)
    280c:	00c50633          	add	a2,a0,a2
    2810:	d0c43823          	sd	a2,-752(s0)
    2814:	e9843e03          	ld	t3,-360(s0)
    2818:	03c58533          	mul	a0,a1,t3
    281c:	d1843603          	ld	a2,-744(s0)
    2820:	00c50633          	add	a2,a0,a2
    2824:	d0c43c23          	sd	a2,-744(s0)
    2828:	00048713          	mv	a4,s1
    282c:	02958533          	mul	a0,a1,s1
    2830:	d2043603          	ld	a2,-736(s0)
    2834:	00c50633          	add	a2,a0,a2
    2838:	d2c43023          	sd	a2,-736(s0)
    283c:	03758533          	mul	a0,a1,s7
    2840:	d2843603          	ld	a2,-728(s0)
    2844:	00c50633          	add	a2,a0,a2
    2848:	d2c43423          	sd	a2,-728(s0)
    284c:	ec843f83          	ld	t6,-312(s0)
    2850:	03f58533          	mul	a0,a1,t6
    2854:	d3043603          	ld	a2,-720(s0)
    2858:	00c50633          	add	a2,a0,a2
    285c:	d2c43823          	sd	a2,-720(s0)
    2860:	ed043683          	ld	a3,-304(s0)
    2864:	02d58533          	mul	a0,a1,a3
    2868:	d3843603          	ld	a2,-712(s0)
    286c:	00c50633          	add	a2,a0,a2
    2870:	d2c43c23          	sd	a2,-712(s0)
    2874:	03258533          	mul	a0,a1,s2
    2878:	d4043603          	ld	a2,-704(s0)
    287c:	00c50633          	add	a2,a0,a2
    2880:	d4c43023          	sd	a2,-704(s0)
    2884:	f7043483          	ld	s1,-144(s0)
    2888:	02958533          	mul	a0,a1,s1
    288c:	d4843603          	ld	a2,-696(s0)
    2890:	00c50633          	add	a2,a0,a2
    2894:	d4c43423          	sd	a2,-696(s0)
    2898:	f7843803          	ld	a6,-136(s0)
    289c:	03058533          	mul	a0,a1,a6
    28a0:	d5043603          	ld	a2,-688(s0)
    28a4:	00c50633          	add	a2,a0,a2
    28a8:	d4c43823          	sd	a2,-688(s0)
    28ac:	ec043f03          	ld	t5,-320(s0)
    28b0:	03e58533          	mul	a0,a1,t5
    28b4:	d5843603          	ld	a2,-680(s0)
    28b8:	00c50633          	add	a2,a0,a2
    28bc:	d4c43c23          	sd	a2,-680(s0)
    28c0:	02558533          	mul	a0,a1,t0
    28c4:	d6043603          	ld	a2,-672(s0)
    28c8:	00c50633          	add	a2,a0,a2
    28cc:	d6c43023          	sd	a2,-672(s0)
    28d0:	ed843883          	ld	a7,-296(s0)
    28d4:	03158533          	mul	a0,a1,a7
    28d8:	d6843603          	ld	a2,-664(s0)
    28dc:	00c50633          	add	a2,a0,a2
    28e0:	d6c43423          	sd	a2,-664(s0)
    28e4:	02758533          	mul	a0,a1,t2
    28e8:	d7043603          	ld	a2,-656(s0)
    28ec:	00c50633          	add	a2,a0,a2
    28f0:	d6c43823          	sd	a2,-656(s0)
    28f4:	3c0a8a83          	lb	s5,960(s5)
    28f8:	03d58533          	mul	a0,a1,t4
    28fc:	d7843603          	ld	a2,-648(s0)
    2900:	00c50633          	add	a2,a0,a2
    2904:	d6c43c23          	sd	a2,-648(s0)
    2908:	e6843603          	ld	a2,-408(s0)
    290c:	02c58533          	mul	a0,a1,a2
    2910:	d8043583          	ld	a1,-640(s0)
    2914:	00b505b3          	add	a1,a0,a1
    2918:	d8b43023          	sd	a1,-640(s0)
    291c:	02ca8533          	mul	a0,s5,a2
    2920:	e6a43423          	sd	a0,-408(s0)
    2924:	03da8533          	mul	a0,s5,t4
    2928:	e6a43c23          	sd	a0,-392(s0)
    292c:	027a8533          	mul	a0,s5,t2
    2930:	e8a43023          	sd	a0,-384(s0)
    2934:	031a8533          	mul	a0,s5,a7
    2938:	eca43c23          	sd	a0,-296(s0)
    293c:	025a8533          	mul	a0,s5,t0
    2940:	000015b7          	lui	a1,0x1
    2944:	40b405b3          	sub	a1,s0,a1
    2948:	66a5bc23          	sd	a0,1656(a1) # 1678 <.LBB101_5+0x228>
    294c:	03ea8533          	mul	a0,s5,t5
    2950:	eca43023          	sd	a0,-320(s0)
    2954:	030a8833          	mul	a6,s5,a6
    2958:	029a88b3          	mul	a7,s5,s1
    295c:	032a8933          	mul	s2,s5,s2
    2960:	02da84b3          	mul	s1,s5,a3
    2964:	03fa8fb3          	mul	t6,s5,t6
    2968:	037a8f33          	mul	t5,s5,s7
    296c:	02ea8eb3          	mul	t4,s5,a4
    2970:	03ca8e33          	mul	t3,s5,t3
    2974:	033a82b3          	mul	t0,s5,s3
    2978:	026a8333          	mul	t1,s5,t1
    297c:	034a83b3          	mul	t2,s5,s4
    2980:	e9043503          	ld	a0,-368(s0)
    2984:	02aa89b3          	mul	s3,s5,a0
    2988:	02fa8a33          	mul	s4,s5,a5
    298c:	036a8b33          	mul	s6,s5,s6
    2990:	038a8bb3          	mul	s7,s5,s8
    2994:	03ba8c33          	mul	s8,s5,s11
    2998:	039a8cb3          	mul	s9,s5,s9
    299c:	03aa8d33          	mul	s10,s5,s10
    29a0:	021a8db3          	mul	s11,s5,ra
    29a4:	f5843503          	ld	a0,-168(s0)
    29a8:	02aa8733          	mul	a4,s5,a0
    29ac:	f4843503          	ld	a0,-184(s0)
    29b0:	02aa80b3          	mul	ra,s5,a0
    29b4:	f5043503          	ld	a0,-176(s0)
    29b8:	02aa86b3          	mul	a3,s5,a0
    29bc:	ea043503          	ld	a0,-352(s0)
    29c0:	02aa8633          	mul	a2,s5,a0
    29c4:	f3843503          	ld	a0,-200(s0)
    29c8:	02aa85b3          	mul	a1,s5,a0
    29cc:	ea843503          	ld	a0,-344(s0)
    29d0:	02aa8533          	mul	a0,s5,a0
    29d4:	ee043783          	ld	a5,-288(s0)
    29d8:	02fa8ab3          	mul	s5,s5,a5
    29dc:	da043783          	ld	a5,-608(s0)
    29e0:	00fa87b3          	add	a5,s5,a5
    29e4:	daf43023          	sd	a5,-608(s0)
    29e8:	d9843783          	ld	a5,-616(s0)
    29ec:	00f507b3          	add	a5,a0,a5
    29f0:	d8f43c23          	sd	a5,-616(s0)
    29f4:	d9043503          	ld	a0,-624(s0)
    29f8:	00a58533          	add	a0,a1,a0
    29fc:	d8a43823          	sd	a0,-624(s0)
    2a00:	d8843503          	ld	a0,-632(s0)
    2a04:	00a60533          	add	a0,a2,a0
    2a08:	d8a43423          	sd	a0,-632(s0)
    2a0c:	da843503          	ld	a0,-600(s0)
    2a10:	00a68533          	add	a0,a3,a0
    2a14:	daa43423          	sd	a0,-600(s0)
    2a18:	db043503          	ld	a0,-592(s0)
    2a1c:	00a08533          	add	a0,ra,a0
    2a20:	daa43823          	sd	a0,-592(s0)
    2a24:	dd843083          	ld	ra,-552(s0)
    2a28:	db843503          	ld	a0,-584(s0)
    2a2c:	00a70533          	add	a0,a4,a0
    2a30:	daa43c23          	sd	a0,-584(s0)
    2a34:	dc043503          	ld	a0,-576(s0)
    2a38:	00ad8533          	add	a0,s11,a0
    2a3c:	dca43023          	sd	a0,-576(s0)
    2a40:	e5043d83          	ld	s11,-432(s0)
    2a44:	e5843a83          	ld	s5,-424(s0)
    2a48:	dc843503          	ld	a0,-568(s0)
    2a4c:	00ad0533          	add	a0,s10,a0
    2a50:	dca43423          	sd	a0,-568(s0)
    2a54:	de843d03          	ld	s10,-536(s0)
    2a58:	dd043503          	ld	a0,-560(s0)
    2a5c:	00ac8533          	add	a0,s9,a0
    2a60:	dca43823          	sd	a0,-560(s0)
    2a64:	df043c83          	ld	s9,-528(s0)
    2a68:	001c00b3          	add	ra,s8,ra
    2a6c:	df843c03          	ld	s8,-520(s0)
    2a70:	de043503          	ld	a0,-544(s0)
    2a74:	00ab8533          	add	a0,s7,a0
    2a78:	dea43023          	sd	a0,-544(s0)
    2a7c:	e0043b83          	ld	s7,-512(s0)
    2a80:	01ab0d33          	add	s10,s6,s10
    2a84:	e0843b03          	ld	s6,-504(s0)
    2a88:	019a0cb3          	add	s9,s4,s9
    2a8c:	e1043a03          	ld	s4,-496(s0)
    2a90:	01898c33          	add	s8,s3,s8
    2a94:	e1843983          	ld	s3,-488(s0)
    2a98:	01738bb3          	add	s7,t2,s7
    2a9c:	e2843383          	ld	t2,-472(s0)
    2aa0:	01630b33          	add	s6,t1,s6
    2aa4:	e3043303          	ld	t1,-464(s0)
    2aa8:	01428a33          	add	s4,t0,s4
    2aac:	e3843283          	ld	t0,-456(s0)
    2ab0:	013e09b3          	add	s3,t3,s3
    2ab4:	e2043e03          	ld	t3,-480(s0)
    2ab8:	f1043503          	ld	a0,-240(s0)
    2abc:	00ae8533          	add	a0,t4,a0
    2ac0:	f8043e83          	ld	t4,-128(s0)
    2ac4:	f0a43823          	sd	a0,-240(s0)
    2ac8:	f1043703          	ld	a4,-240(s0)
    2acc:	f1843503          	ld	a0,-232(s0)
    2ad0:	00af0533          	add	a0,t5,a0
    2ad4:	f8843f03          	ld	t5,-120(s0)
    2ad8:	f0a43c23          	sd	a0,-232(s0)
    2adc:	f1843683          	ld	a3,-232(s0)
    2ae0:	f2043503          	ld	a0,-224(s0)
    2ae4:	00af8533          	add	a0,t6,a0
    2ae8:	f2a43023          	sd	a0,-224(s0)
    2aec:	f2043603          	ld	a2,-224(s0)
    2af0:	f2843503          	ld	a0,-216(s0)
    2af4:	00a48533          	add	a0,s1,a0
    2af8:	f2a43423          	sd	a0,-216(s0)
    2afc:	f2843583          	ld	a1,-216(s0)
    2b00:	f3043503          	ld	a0,-208(s0)
    2b04:	00a90533          	add	a0,s2,a0
    2b08:	f2a43823          	sd	a0,-208(s0)
    2b0c:	f3043503          	ld	a0,-208(s0)
    2b10:	01c88e33          	add	t3,a7,t3
    2b14:	e4843883          	ld	a7,-440(s0)
    2b18:	007803b3          	add	t2,a6,t2
    2b1c:	000017b7          	lui	a5,0x1
    2b20:	40f407b3          	sub	a5,s0,a5
    2b24:	6807b803          	ld	a6,1664(a5) # 1680 <.LBB101_5+0x230>
    2b28:	ec043783          	ld	a5,-320(s0)
    2b2c:	00678333          	add	t1,a5,t1
    2b30:	e4043783          	ld	a5,-448(s0)
    2b34:	00001fb7          	lui	t6,0x1
    2b38:	41f40fb3          	sub	t6,s0,t6
    2b3c:	678fbf83          	ld	t6,1656(t6) # 1678 <.LBB101_5+0x228>
    2b40:	005f82b3          	add	t0,t6,t0
    2b44:	ed843f83          	ld	t6,-296(s0)
    2b48:	00ff87b3          	add	a5,t6,a5
    2b4c:	e8043f83          	ld	t6,-384(s0)
    2b50:	011f88b3          	add	a7,t6,a7
    2b54:	e7843f83          	ld	t6,-392(s0)
    2b58:	01bf8db3          	add	s11,t6,s11
    2b5c:	e6843f83          	ld	t6,-408(s0)
    2b60:	015f8ab3          	add	s5,t6,s5
    2b64:	ec080813          	addi	a6,a6,-320
    2b68:	140f0f13          	addi	t5,t5,320
    2b6c:	001e8e93          	addi	t4,t4,1
    2b70:	00080463          	beqz	a6,2b78 <.LBB101_6>
    2b74:	8ddfe06f          	j	1450 <.LBB101_5>

0000000000002b78 <.LBB101_6>:
    2b78:	00001537          	lui	a0,0x1
    2b7c:	40a40533          	sub	a0,s0,a0
    2b80:	6a053903          	ld	s2,1696(a0) # 16a0 <.LBB101_5+0x250>
    2b84:	00001537          	lui	a0,0x1
    2b88:	40a40533          	sub	a0,s0,a0
    2b8c:	69853483          	ld	s1,1688(a0) # 1698 <.LBB101_5+0x248>
    2b90:	00001537          	lui	a0,0x1
    2b94:	40a40533          	sub	a0,s0,a0
    2b98:	69053f83          	ld	t6,1680(a0) # 1690 <.LBB101_5+0x240>
    2b9c:	00001537          	lui	a0,0x1
    2ba0:	40a40533          	sub	a0,s0,a0
    2ba4:	68853f03          	ld	t5,1672(a0) # 1688 <.LBB101_5+0x238>
    2ba8:	00001537          	lui	a0,0x1
    2bac:	40a40533          	sub	a0,s0,a0
    2bb0:	65853503          	ld	a0,1624(a0) # 1658 <.LBB101_5+0x208>
    2bb4:	00251513          	slli	a0,a0,0x2
    2bb8:	000015b7          	lui	a1,0x1
    2bbc:	40b405b3          	sub	a1,s0,a1
    2bc0:	ba05b603          	ld	a2,-1120(a1) # ba0 <.LBB101_3+0x94c>
    2bc4:	00a60633          	add	a2,a2,a0
    2bc8:	000015b7          	lui	a1,0x1
    2bcc:	40b405b3          	sub	a1,s0,a1
    2bd0:	6505b583          	ld	a1,1616(a1) # 1650 <.LBB101_5+0x200>
    2bd4:	0005a583          	lw	a1,0(a1)
    2bd8:	000016b7          	lui	a3,0x1
    2bdc:	40d406b3          	sub	a3,s0,a3
    2be0:	b986b683          	ld	a3,-1128(a3) # b98 <.LBB101_3+0x944>
    2be4:	00a68533          	add	a0,a3,a0
    2be8:	00c52683          	lw	a3,12(a0)
    2bec:	00c62e83          	lw	t4,12(a2)
    2bf0:	00459713          	slli	a4,a1,0x4
    2bf4:	00b70833          	add	a6,a4,a1
    2bf8:	00769593          	slli	a1,a3,0x7
    2bfc:	ebd43823          	sd	t4,-336(s0)
    2c00:	000016b7          	lui	a3,0x1
    2c04:	40d406b3          	sub	a3,s0,a3
    2c08:	6a86b683          	ld	a3,1704(a3) # 16a8 <.LBB101_5+0x258>
    2c0c:	01d686b3          	add	a3,a3,t4
    2c10:	eab43423          	sd	a1,-344(s0)
    2c14:	00b686b3          	add	a3,a3,a1
    2c18:	001fe5b7          	lui	a1,0x1fe
    2c1c:	00b80733          	add	a4,a6,a1
    2c20:	00e6873b          	addw	a4,a3,a4
    2c24:	400006b7          	lui	a3,0x40000
    2c28:	00001eb7          	lui	t4,0x1
    2c2c:	41d40eb3          	sub	t4,s0,t4
    2c30:	68deb023          	sd	a3,1664(t4) # 1680 <.LBB101_5+0x230>
    2c34:	00001eb7          	lui	t4,0x1
    2c38:	41d40eb3          	sub	t4,s0,t4
    2c3c:	66eebc23          	sd	a4,1656(t4) # 1678 <.LBB101_5+0x228>
    2c40:	00075463          	bgez	a4,2c48 <.LBB101_8>
    2c44:	c00006b7          	lui	a3,0xc0000

0000000000002c48 <.LBB101_8>:
    2c48:	00001737          	lui	a4,0x1
    2c4c:	40e40733          	sub	a4,s0,a4
    2c50:	66d73823          	sd	a3,1648(a4) # 1670 <.LBB101_5+0x220>
    2c54:	00852683          	lw	a3,8(a0)
    2c58:	00862703          	lw	a4,8(a2)
    2c5c:	00769e93          	slli	t4,a3,0x7
    2c60:	eae43023          	sd	a4,-352(s0)
    2c64:	00e906b3          	add	a3,s2,a4
    2c68:	e9d43c23          	sd	t4,-360(s0)
    2c6c:	01d686b3          	add	a3,a3,t4
    2c70:	00b80733          	add	a4,a6,a1
    2c74:	00e686bb          	addw	a3,a3,a4
    2c78:	40000737          	lui	a4,0x40000
    2c7c:	00001eb7          	lui	t4,0x1
    2c80:	41d40eb3          	sub	t4,s0,t4
    2c84:	64deb023          	sd	a3,1600(t4) # 1640 <.LBB101_5+0x1f0>
    2c88:	00001eb7          	lui	t4,0x1
    2c8c:	41d40eb3          	sub	t4,s0,t4
    2c90:	6b0eb903          	ld	s2,1712(t4) # 16b0 <.LBB101_5+0x260>
    2c94:	0006d463          	bgez	a3,2c9c <.LBB101_10>
    2c98:	c0000737          	lui	a4,0xc0000

0000000000002c9c <.LBB101_10>:
    2c9c:	000016b7          	lui	a3,0x1
    2ca0:	40d406b3          	sub	a3,s0,a3
    2ca4:	62e6bc23          	sd	a4,1592(a3) # 1638 <.LBB101_5+0x1e8>
    2ca8:	00452683          	lw	a3,4(a0)
    2cac:	00462703          	lw	a4,4(a2)
    2cb0:	00769e93          	slli	t4,a3,0x7
    2cb4:	e8e43823          	sd	a4,-368(s0)
    2cb8:	000016b7          	lui	a3,0x1
    2cbc:	40d406b3          	sub	a3,s0,a3
    2cc0:	6b86b683          	ld	a3,1720(a3) # 16b8 <.LBB101_5+0x268>
    2cc4:	00e686b3          	add	a3,a3,a4
    2cc8:	e9d43423          	sd	t4,-376(s0)
    2ccc:	01d686b3          	add	a3,a3,t4
    2cd0:	00b80733          	add	a4,a6,a1
    2cd4:	00e686bb          	addw	a3,a3,a4
    2cd8:	40000737          	lui	a4,0x40000
    2cdc:	00001eb7          	lui	t4,0x1
    2ce0:	41d40eb3          	sub	t4,s0,t4
    2ce4:	62deb823          	sd	a3,1584(t4) # 1630 <.LBB101_5+0x1e0>
    2ce8:	0006d463          	bgez	a3,2cf0 <.LBB101_12>
    2cec:	c0000737          	lui	a4,0xc0000

0000000000002cf0 <.LBB101_12>:
    2cf0:	000016b7          	lui	a3,0x1
    2cf4:	40d406b3          	sub	a3,s0,a3
    2cf8:	62e6b423          	sd	a4,1576(a3) # 1628 <.LBB101_5+0x1d8>
    2cfc:	00052683          	lw	a3,0(a0)
    2d00:	00062703          	lw	a4,0(a2)
    2d04:	00769e93          	slli	t4,a3,0x7
    2d08:	e8e43023          	sd	a4,-384(s0)
    2d0c:	000016b7          	lui	a3,0x1
    2d10:	40d406b3          	sub	a3,s0,a3
    2d14:	6c06b683          	ld	a3,1728(a3) # 16c0 <.LBB101_5+0x270>
    2d18:	00e686b3          	add	a3,a3,a4
    2d1c:	e7d43c23          	sd	t4,-392(s0)
    2d20:	01d686b3          	add	a3,a3,t4
    2d24:	00b80733          	add	a4,a6,a1
    2d28:	00e686bb          	addw	a3,a3,a4
    2d2c:	40000737          	lui	a4,0x40000
    2d30:	00001eb7          	lui	t4,0x1
    2d34:	41d40eb3          	sub	t4,s0,t4
    2d38:	62deb023          	sd	a3,1568(t4) # 1620 <.LBB101_5+0x1d0>
    2d3c:	0006d463          	bgez	a3,2d44 <.LBB101_14>
    2d40:	c0000737          	lui	a4,0xc0000

0000000000002d44 <.LBB101_14>:
    2d44:	000016b7          	lui	a3,0x1
    2d48:	40d406b3          	sub	a3,s0,a3
    2d4c:	60e6bc23          	sd	a4,1560(a3) # 1618 <.LBB101_5+0x1c8>
    2d50:	01052683          	lw	a3,16(a0)
    2d54:	01062703          	lw	a4,16(a2)
    2d58:	00769e93          	slli	t4,a3,0x7
    2d5c:	e6e43823          	sd	a4,-400(s0)
    2d60:	000016b7          	lui	a3,0x1
    2d64:	40d406b3          	sub	a3,s0,a3
    2d68:	6c86b683          	ld	a3,1736(a3) # 16c8 <.LBB101_5+0x278>
    2d6c:	00e686b3          	add	a3,a3,a4
    2d70:	e7d43423          	sd	t4,-408(s0)
    2d74:	01d686b3          	add	a3,a3,t4
    2d78:	00b80733          	add	a4,a6,a1
    2d7c:	00e686bb          	addw	a3,a3,a4
    2d80:	40000737          	lui	a4,0x40000
    2d84:	00001eb7          	lui	t4,0x1
    2d88:	41d40eb3          	sub	t4,s0,t4
    2d8c:	60deb823          	sd	a3,1552(t4) # 1610 <.LBB101_5+0x1c0>
    2d90:	0006d463          	bgez	a3,2d98 <.LBB101_16>
    2d94:	c0000737          	lui	a4,0xc0000

0000000000002d98 <.LBB101_16>:
    2d98:	000016b7          	lui	a3,0x1
    2d9c:	40d406b3          	sub	a3,s0,a3
    2da0:	60e6b423          	sd	a4,1544(a3) # 1608 <.LBB101_5+0x1b8>
    2da4:	01452683          	lw	a3,20(a0)
    2da8:	01462703          	lw	a4,20(a2)
    2dac:	00769e93          	slli	t4,a3,0x7
    2db0:	000016b7          	lui	a3,0x1
    2db4:	40d406b3          	sub	a3,s0,a3
    2db8:	6ce6b423          	sd	a4,1736(a3) # 16c8 <.LBB101_5+0x278>
    2dbc:	00e906b3          	add	a3,s2,a4
    2dc0:	00001737          	lui	a4,0x1
    2dc4:	40e40733          	sub	a4,s0,a4
    2dc8:	6dd73023          	sd	t4,1728(a4) # 16c0 <.LBB101_5+0x270>
    2dcc:	01d686b3          	add	a3,a3,t4
    2dd0:	00b80733          	add	a4,a6,a1
    2dd4:	00e686bb          	addw	a3,a3,a4
    2dd8:	40000737          	lui	a4,0x40000
    2ddc:	00001eb7          	lui	t4,0x1
    2de0:	41d40eb3          	sub	t4,s0,t4
    2de4:	60deb023          	sd	a3,1536(t4) # 1600 <.LBB101_5+0x1b0>
    2de8:	0006d463          	bgez	a3,2df0 <.LBB101_18>
    2dec:	c0000737          	lui	a4,0xc0000

0000000000002df0 <.LBB101_18>:
    2df0:	000016b7          	lui	a3,0x1
    2df4:	40d406b3          	sub	a3,s0,a3
    2df8:	5ee6bc23          	sd	a4,1528(a3) # 15f8 <.LBB101_5+0x1a8>
    2dfc:	01852683          	lw	a3,24(a0)
    2e00:	01862703          	lw	a4,24(a2)
    2e04:	00769e93          	slli	t4,a3,0x7
    2e08:	000016b7          	lui	a3,0x1
    2e0c:	40d406b3          	sub	a3,s0,a3
    2e10:	6ae6bc23          	sd	a4,1720(a3) # 16b8 <.LBB101_5+0x268>
    2e14:	00e486b3          	add	a3,s1,a4
    2e18:	00001737          	lui	a4,0x1
    2e1c:	40e40733          	sub	a4,s0,a4
    2e20:	6bd73823          	sd	t4,1712(a4) # 16b0 <.LBB101_5+0x260>
    2e24:	01d686b3          	add	a3,a3,t4
    2e28:	00b80733          	add	a4,a6,a1
    2e2c:	00e686bb          	addw	a3,a3,a4
    2e30:	40000737          	lui	a4,0x40000
    2e34:	00001eb7          	lui	t4,0x1
    2e38:	41d40eb3          	sub	t4,s0,t4
    2e3c:	5edeb823          	sd	a3,1520(t4) # 15f0 <.LBB101_5+0x1a0>
    2e40:	0006d463          	bgez	a3,2e48 <.LBB101_20>
    2e44:	c0000737          	lui	a4,0xc0000

0000000000002e48 <.LBB101_20>:
    2e48:	000016b7          	lui	a3,0x1
    2e4c:	40d406b3          	sub	a3,s0,a3
    2e50:	5ee6b423          	sd	a4,1512(a3) # 15e8 <.LBB101_5+0x198>
    2e54:	e4f43023          	sd	a5,-448(s0)
    2e58:	01c52683          	lw	a3,28(a0)
    2e5c:	01c62703          	lw	a4,28(a2)
    2e60:	00769793          	slli	a5,a3,0x7
    2e64:	000016b7          	lui	a3,0x1
    2e68:	40d406b3          	sub	a3,s0,a3
    2e6c:	6ae6b423          	sd	a4,1704(a3) # 16a8 <.LBB101_5+0x258>
    2e70:	00ef86b3          	add	a3,t6,a4
    2e74:	00001737          	lui	a4,0x1
    2e78:	40e40733          	sub	a4,s0,a4
    2e7c:	6af73023          	sd	a5,1696(a4) # 16a0 <.LBB101_5+0x250>
    2e80:	00f686b3          	add	a3,a3,a5
    2e84:	00b80733          	add	a4,a6,a1
    2e88:	00e686bb          	addw	a3,a3,a4
    2e8c:	40000737          	lui	a4,0x40000
    2e90:	000017b7          	lui	a5,0x1
    2e94:	40f407b3          	sub	a5,s0,a5
    2e98:	5ed7b023          	sd	a3,1504(a5) # 15e0 <.LBB101_5+0x190>
    2e9c:	0006d463          	bgez	a3,2ea4 <.LBB101_22>
    2ea0:	c0000737          	lui	a4,0xc0000

0000000000002ea4 <.LBB101_22>:
    2ea4:	000016b7          	lui	a3,0x1
    2ea8:	40d406b3          	sub	a3,s0,a3
    2eac:	5ce6bc23          	sd	a4,1496(a3) # 15d8 <.LBB101_5+0x188>
    2eb0:	dc143c23          	sd	ra,-552(s0)
    2eb4:	dfa43423          	sd	s10,-536(s0)
    2eb8:	df943823          	sd	s9,-528(s0)
    2ebc:	df843c23          	sd	s8,-520(s0)
    2ec0:	000b8e93          	mv	t4,s7
    2ec4:	e1643423          	sd	s6,-504(s0)
    2ec8:	e1443823          	sd	s4,-496(s0)
    2ecc:	e1343c23          	sd	s3,-488(s0)
    2ed0:	e3c43023          	sd	t3,-480(s0)
    2ed4:	e2743423          	sd	t2,-472(s0)
    2ed8:	e2643823          	sd	t1,-464(s0)
    2edc:	e2543c23          	sd	t0,-456(s0)
    2ee0:	e5143423          	sd	a7,-440(s0)
    2ee4:	e5b43823          	sd	s11,-432(s0)
    2ee8:	e5543c23          	sd	s5,-424(s0)
    2eec:	02052683          	lw	a3,32(a0)
    2ef0:	02062703          	lw	a4,32(a2)
    2ef4:	00769793          	slli	a5,a3,0x7
    2ef8:	000016b7          	lui	a3,0x1
    2efc:	40d406b3          	sub	a3,s0,a3
    2f00:	68e6bc23          	sd	a4,1688(a3) # 1698 <.LBB101_5+0x248>
    2f04:	00ef06b3          	add	a3,t5,a4
    2f08:	00001737          	lui	a4,0x1
    2f0c:	40e40733          	sub	a4,s0,a4
    2f10:	68f73823          	sd	a5,1680(a4) # 1690 <.LBB101_5+0x240>
    2f14:	00f686b3          	add	a3,a3,a5
    2f18:	001fe7b7          	lui	a5,0x1fe
    2f1c:	00b80733          	add	a4,a6,a1
    2f20:	00e686bb          	addw	a3,a3,a4
    2f24:	400005b7          	lui	a1,0x40000
    2f28:	00001737          	lui	a4,0x1
    2f2c:	40e40733          	sub	a4,s0,a4
    2f30:	5cd73823          	sd	a3,1488(a4) # 15d0 <.LBB101_5+0x180>
    2f34:	0006d463          	bgez	a3,2f3c <.LBB101_24>
    2f38:	c00005b7          	lui	a1,0xc0000

0000000000002f3c <.LBB101_24>:
    2f3c:	000016b7          	lui	a3,0x1
    2f40:	40d406b3          	sub	a3,s0,a3
    2f44:	5cb6b423          	sd	a1,1480(a3) # 15c8 <.LBB101_5+0x178>
    2f48:	07c62583          	lw	a1,124(a2)
    2f4c:	f8b43423          	sd	a1,-120(s0)
    2f50:	07862583          	lw	a1,120(a2)
    2f54:	f8b43023          	sd	a1,-128(s0)
    2f58:	07462583          	lw	a1,116(a2)
    2f5c:	f6b43c23          	sd	a1,-136(s0)
    2f60:	07062583          	lw	a1,112(a2)
    2f64:	f6b43823          	sd	a1,-144(s0)
    2f68:	06c62583          	lw	a1,108(a2)
    2f6c:	f6b43423          	sd	a1,-152(s0)
    2f70:	06862583          	lw	a1,104(a2)
    2f74:	f6b43023          	sd	a1,-160(s0)
    2f78:	06462583          	lw	a1,100(a2)
    2f7c:	f4b43c23          	sd	a1,-168(s0)
    2f80:	06062583          	lw	a1,96(a2)
    2f84:	f4b43823          	sd	a1,-176(s0)
    2f88:	05c62583          	lw	a1,92(a2)
    2f8c:	f4b43423          	sd	a1,-184(s0)
    2f90:	05862583          	lw	a1,88(a2)
    2f94:	f4b43023          	sd	a1,-192(s0)
    2f98:	05462583          	lw	a1,84(a2)
    2f9c:	f2b43c23          	sd	a1,-200(s0)
    2fa0:	05062583          	lw	a1,80(a2)
    2fa4:	f0b43423          	sd	a1,-248(s0)
    2fa8:	04c62583          	lw	a1,76(a2)
    2fac:	f0b43023          	sd	a1,-256(s0)
    2fb0:	04862583          	lw	a1,72(a2)
    2fb4:	eeb43c23          	sd	a1,-264(s0)
    2fb8:	04462583          	lw	a1,68(a2)
    2fbc:	eeb43823          	sd	a1,-272(s0)
    2fc0:	04062583          	lw	a1,64(a2)
    2fc4:	eeb43423          	sd	a1,-280(s0)
    2fc8:	03c62583          	lw	a1,60(a2)
    2fcc:	eeb43023          	sd	a1,-288(s0)
    2fd0:	03862583          	lw	a1,56(a2)
    2fd4:	ecb43c23          	sd	a1,-296(s0)
    2fd8:	03462583          	lw	a1,52(a2)
    2fdc:	ecb43823          	sd	a1,-304(s0)
    2fe0:	03062583          	lw	a1,48(a2)
    2fe4:	ecb43423          	sd	a1,-312(s0)
    2fe8:	02c62583          	lw	a1,44(a2)
    2fec:	ecb43023          	sd	a1,-320(s0)
    2ff0:	02862583          	lw	a1,40(a2)
    2ff4:	eab43c23          	sd	a1,-328(s0)
    2ff8:	02462583          	lw	a1,36(a2)
    2ffc:	07c52603          	lw	a2,124(a0)
    3000:	f8f43823          	sd	a5,-112(s0)
    3004:	000016b7          	lui	a3,0x1
    3008:	40d406b3          	sub	a3,s0,a3
    300c:	5cc6b023          	sd	a2,1472(a3) # 15c0 <.LBB101_5+0x170>
    3010:	07852603          	lw	a2,120(a0)
    3014:	000016b7          	lui	a3,0x1
    3018:	40d406b3          	sub	a3,s0,a3
    301c:	5ac6bc23          	sd	a2,1464(a3) # 15b8 <.LBB101_5+0x168>
    3020:	07452883          	lw	a7,116(a0)
    3024:	07052283          	lw	t0,112(a0)
    3028:	06c52303          	lw	t1,108(a0)
    302c:	06852383          	lw	t2,104(a0)
    3030:	06452603          	lw	a2,100(a0)
    3034:	06052f03          	lw	t5,96(a0)
    3038:	05c52f83          	lw	t6,92(a0)
    303c:	05852483          	lw	s1,88(a0)
    3040:	05452903          	lw	s2,84(a0)
    3044:	05052983          	lw	s3,80(a0)
    3048:	04c52a03          	lw	s4,76(a0)
    304c:	04852a83          	lw	s5,72(a0)
    3050:	04452b03          	lw	s6,68(a0)
    3054:	04052b83          	lw	s7,64(a0)
    3058:	03c52c03          	lw	s8,60(a0)
    305c:	03852c83          	lw	s9,56(a0)
    3060:	03452d03          	lw	s10,52(a0)
    3064:	02452703          	lw	a4,36(a0)
    3068:	03052d83          	lw	s11,48(a0)
    306c:	02c52083          	lw	ra,44(a0)
    3070:	02852e03          	lw	t3,40(a0)
    3074:	00771713          	slli	a4,a4,0x7
    3078:	00001537          	lui	a0,0x1
    307c:	40a40533          	sub	a0,s0,a0
    3080:	68b53423          	sd	a1,1672(a0) # 1688 <.LBB101_5+0x238>
    3084:	00001537          	lui	a0,0x1
    3088:	40a40533          	sub	a0,s0,a0
    308c:	6d053503          	ld	a0,1744(a0) # 16d0 <.LBB101_5+0x280>
    3090:	00b50533          	add	a0,a0,a1
    3094:	000015b7          	lui	a1,0x1
    3098:	40b405b3          	sub	a1,s0,a1
    309c:	6ce5b823          	sd	a4,1744(a1) # 16d0 <.LBB101_5+0x280>
    30a0:	00e50533          	add	a0,a0,a4
    30a4:	000015b7          	lui	a1,0x1
    30a8:	40b405b3          	sub	a1,s0,a1
    30ac:	6505b583          	ld	a1,1616(a1) # 1650 <.LBB101_5+0x200>
    30b0:	0045a703          	lw	a4,4(a1)
    30b4:	0085a683          	lw	a3,8(a1)
    30b8:	000017b7          	lui	a5,0x1
    30bc:	40f407b3          	sub	a5,s0,a5
    30c0:	5ad7b823          	sd	a3,1456(a5) # 15b0 <.LBB101_5+0x160>
    30c4:	00c5a683          	lw	a3,12(a1)
    30c8:	000017b7          	lui	a5,0x1
    30cc:	40f407b3          	sub	a5,s0,a5
    30d0:	5ad7b023          	sd	a3,1440(a5) # 15a0 <.LBB101_5+0x150>
    30d4:	0105a683          	lw	a3,16(a1)
    30d8:	000017b7          	lui	a5,0x1
    30dc:	40f407b3          	sub	a5,s0,a5
    30e0:	58d7b423          	sd	a3,1416(a5) # 1588 <.LBB101_5+0x138>
    30e4:	0145a683          	lw	a3,20(a1)
    30e8:	000017b7          	lui	a5,0x1
    30ec:	40f407b3          	sub	a5,s0,a5
    30f0:	58d7b823          	sd	a3,1424(a5) # 1590 <.LBB101_5+0x140>
    30f4:	0185a683          	lw	a3,24(a1)
    30f8:	000017b7          	lui	a5,0x1
    30fc:	40f407b3          	sub	a5,s0,a5
    3100:	58d7b023          	sd	a3,1408(a5) # 1580 <.LBB101_5+0x130>
    3104:	f9043783          	ld	a5,-112(s0)
    3108:	01c5a583          	lw	a1,28(a1)
    310c:	000016b7          	lui	a3,0x1
    3110:	40d406b3          	sub	a3,s0,a3
    3114:	3ab6b823          	sd	a1,944(a3) # 13b0 <.LBB101_4+0x504>
    3118:	00f805b3          	add	a1,a6,a5
    311c:	00b5053b          	addw	a0,a0,a1
    3120:	400005b7          	lui	a1,0x40000
    3124:	000016b7          	lui	a3,0x1
    3128:	40d406b3          	sub	a3,s0,a3
    312c:	56a6b823          	sd	a0,1392(a3) # 1570 <.LBB101_5+0x120>
    3130:	00055463          	bgez	a0,3138 <.LBB101_26>
    3134:	c00005b7          	lui	a1,0xc0000

0000000000003138 <.LBB101_26>:
    3138:	00001537          	lui	a0,0x1
    313c:	40a40533          	sub	a0,s0,a0
    3140:	56b53423          	sd	a1,1384(a0) # 1568 <.LBB101_5+0x118>
    3144:	007e1e13          	slli	t3,t3,0x7
    3148:	eb843503          	ld	a0,-328(s0)
    314c:	000015b7          	lui	a1,0x1
    3150:	40b405b3          	sub	a1,s0,a1
    3154:	6d85b583          	ld	a1,1752(a1) # 16d8 <.LBB101_5+0x288>
    3158:	00a58533          	add	a0,a1,a0
    315c:	000015b7          	lui	a1,0x1
    3160:	40b405b3          	sub	a1,s0,a1
    3164:	6dc5bc23          	sd	t3,1752(a1) # 16d8 <.LBB101_5+0x288>
    3168:	01c50533          	add	a0,a0,t3
    316c:	00f805b3          	add	a1,a6,a5
    3170:	00b5053b          	addw	a0,a0,a1
    3174:	400005b7          	lui	a1,0x40000
    3178:	000016b7          	lui	a3,0x1
    317c:	40d406b3          	sub	a3,s0,a3
    3180:	50a6bc23          	sd	a0,1304(a3) # 1518 <.LBB101_5+0xc8>
    3184:	000016b7          	lui	a3,0x1
    3188:	40d406b3          	sub	a3,s0,a3
    318c:	7206b683          	ld	a3,1824(a3) # 1720 <.LBB101_5+0x2d0>
    3190:	00055463          	bgez	a0,3198 <.LBB101_28>
    3194:	c00005b7          	lui	a1,0xc0000

0000000000003198 <.LBB101_28>:
    3198:	00001537          	lui	a0,0x1
    319c:	40a40533          	sub	a0,s0,a0
    31a0:	50b53823          	sd	a1,1296(a0) # 1510 <.LBB101_5+0xc0>
    31a4:	00709093          	slli	ra,ra,0x7
    31a8:	ec043503          	ld	a0,-320(s0)
    31ac:	000015b7          	lui	a1,0x1
    31b0:	40b405b3          	sub	a1,s0,a1
    31b4:	6e05b583          	ld	a1,1760(a1) # 16e0 <.LBB101_5+0x290>
    31b8:	00a58533          	add	a0,a1,a0
    31bc:	000015b7          	lui	a1,0x1
    31c0:	40b405b3          	sub	a1,s0,a1
    31c4:	6e15b023          	sd	ra,1760(a1) # 16e0 <.LBB101_5+0x290>
    31c8:	00150533          	add	a0,a0,ra
    31cc:	001fe0b7          	lui	ra,0x1fe
    31d0:	001805b3          	add	a1,a6,ra
    31d4:	00b5053b          	addw	a0,a0,a1
    31d8:	400005b7          	lui	a1,0x40000
    31dc:	a8843783          	ld	a5,-1400(s0)
    31e0:	00001e37          	lui	t3,0x1
    31e4:	41c40e33          	sub	t3,s0,t3
    31e8:	4aae3c23          	sd	a0,1208(t3) # 14b8 <.LBB101_5+0x68>
    31ec:	00001e37          	lui	t3,0x1
    31f0:	41c40e33          	sub	t3,s0,t3
    31f4:	6f8e3e03          	ld	t3,1784(t3) # 16f8 <.LBB101_5+0x2a8>
    31f8:	00055463          	bgez	a0,3200 <.LBB101_30>
    31fc:	c00005b7          	lui	a1,0xc0000

0000000000003200 <.LBB101_30>:
    3200:	f8c43823          	sd	a2,-112(s0)
    3204:	00001537          	lui	a0,0x1
    3208:	40a40533          	sub	a0,s0,a0
    320c:	4ab53823          	sd	a1,1200(a0) # 14b0 <.LBB101_5+0x60>
    3210:	007d9593          	slli	a1,s11,0x7
    3214:	ec843503          	ld	a0,-312(s0)
    3218:	00001637          	lui	a2,0x1
    321c:	40c40633          	sub	a2,s0,a2
    3220:	6e863d83          	ld	s11,1768(a2) # 16e8 <.LBB101_5+0x298>
    3224:	00ad8533          	add	a0,s11,a0
    3228:	00058d93          	mv	s11,a1
    322c:	00b50533          	add	a0,a0,a1
    3230:	001805b3          	add	a1,a6,ra
    3234:	00b5053b          	addw	a0,a0,a1
    3238:	400005b7          	lui	a1,0x40000
    323c:	00001637          	lui	a2,0x1
    3240:	40c40633          	sub	a2,s0,a2
    3244:	46a63023          	sd	a0,1120(a2) # 1460 <.LBB101_5+0x10>
    3248:	f9043603          	ld	a2,-112(s0)
    324c:	00055463          	bgez	a0,3254 <.LBB101_32>
    3250:	c00005b7          	lui	a1,0xc0000

0000000000003254 <.LBB101_32>:
    3254:	f8c43823          	sd	a2,-112(s0)
    3258:	00001537          	lui	a0,0x1
    325c:	40a40533          	sub	a0,s0,a0
    3260:	44b53823          	sd	a1,1104(a0) # 1450 <.LBB101_5>
    3264:	007d1593          	slli	a1,s10,0x7
    3268:	ed043503          	ld	a0,-304(s0)
    326c:	00001637          	lui	a2,0x1
    3270:	40c40633          	sub	a2,s0,a2
    3274:	6f063d03          	ld	s10,1776(a2) # 16f0 <.LBB101_5+0x2a0>
    3278:	00ad0533          	add	a0,s10,a0
    327c:	00058d13          	mv	s10,a1
    3280:	00b50533          	add	a0,a0,a1
    3284:	001805b3          	add	a1,a6,ra
    3288:	00b5053b          	addw	a0,a0,a1
    328c:	400005b7          	lui	a1,0x40000
    3290:	00001637          	lui	a2,0x1
    3294:	40c40633          	sub	a2,s0,a2
    3298:	40a63423          	sd	a0,1032(a2) # 1408 <.LBB101_4+0x55c>
    329c:	f9043603          	ld	a2,-112(s0)
    32a0:	00055463          	bgez	a0,32a8 <.LBB101_34>
    32a4:	c00005b7          	lui	a1,0xc0000

00000000000032a8 <.LBB101_34>:
    32a8:	f8c43823          	sd	a2,-112(s0)
    32ac:	00001537          	lui	a0,0x1
    32b0:	40a40533          	sub	a0,s0,a0
    32b4:	3eb53c23          	sd	a1,1016(a0) # 13f8 <.LBB101_4+0x54c>
    32b8:	007c9593          	slli	a1,s9,0x7
    32bc:	ed843503          	ld	a0,-296(s0)
    32c0:	00ae0533          	add	a0,t3,a0
    32c4:	00058c93          	mv	s9,a1
    32c8:	00b50533          	add	a0,a0,a1
    32cc:	001805b3          	add	a1,a6,ra
    32d0:	00b5053b          	addw	a0,a0,a1
    32d4:	400005b7          	lui	a1,0x40000
    32d8:	b7843e03          	ld	t3,-1160(s0)
    32dc:	00001637          	lui	a2,0x1
    32e0:	40c40633          	sub	a2,s0,a2
    32e4:	3aa63023          	sd	a0,928(a2) # 13a0 <.LBB101_4+0x4f4>
    32e8:	f9043603          	ld	a2,-112(s0)
    32ec:	00055463          	bgez	a0,32f4 <.LBB101_36>
    32f0:	c00005b7          	lui	a1,0xc0000

00000000000032f4 <.LBB101_36>:
    32f4:	00001537          	lui	a0,0x1
    32f8:	40a40533          	sub	a0,s0,a0
    32fc:	38b53423          	sd	a1,904(a0) # 1388 <.LBB101_4+0x4dc>
    3300:	007c1c13          	slli	s8,s8,0x7
    3304:	ee043503          	ld	a0,-288(s0)
    3308:	000015b7          	lui	a1,0x1
    330c:	40b405b3          	sub	a1,s0,a1
    3310:	7005b583          	ld	a1,1792(a1) # 1700 <.LBB101_5+0x2b0>
    3314:	00a58533          	add	a0,a1,a0
    3318:	000015b7          	lui	a1,0x1
    331c:	40b405b3          	sub	a1,s0,a1
    3320:	7185b023          	sd	s8,1792(a1) # 1700 <.LBB101_5+0x2b0>
    3324:	01850533          	add	a0,a0,s8
    3328:	001805b3          	add	a1,a6,ra
    332c:	00b5053b          	addw	a0,a0,a1
    3330:	400005b7          	lui	a1,0x40000
    3334:	00001c37          	lui	s8,0x1
    3338:	41840c33          	sub	s8,s0,s8
    333c:	32ac3823          	sd	a0,816(s8) # 1330 <.LBB101_4+0x484>
    3340:	00055463          	bgez	a0,3348 <.LBB101_38>
    3344:	c00005b7          	lui	a1,0xc0000

0000000000003348 <.LBB101_38>:
    3348:	f8c43823          	sd	a2,-112(s0)
    334c:	00001537          	lui	a0,0x1
    3350:	40a40533          	sub	a0,s0,a0
    3354:	32b53023          	sd	a1,800(a0) # 1320 <.LBB101_4+0x474>
    3358:	007b9593          	slli	a1,s7,0x7
    335c:	ee843503          	ld	a0,-280(s0)
    3360:	00001637          	lui	a2,0x1
    3364:	40c40633          	sub	a2,s0,a2
    3368:	70863b83          	ld	s7,1800(a2) # 1708 <.LBB101_5+0x2b8>
    336c:	00ab8533          	add	a0,s7,a0
    3370:	00058b93          	mv	s7,a1
    3374:	00b50533          	add	a0,a0,a1
    3378:	001805b3          	add	a1,a6,ra
    337c:	00b5053b          	addw	a0,a0,a1
    3380:	400005b7          	lui	a1,0x40000
    3384:	a7843c03          	ld	s8,-1416(s0)
    3388:	00001637          	lui	a2,0x1
    338c:	40c40633          	sub	a2,s0,a2
    3390:	2ca63023          	sd	a0,704(a2) # 12c0 <.LBB101_4+0x414>
    3394:	f9043603          	ld	a2,-112(s0)
    3398:	00055463          	bgez	a0,33a0 <.LBB101_40>
    339c:	c00005b7          	lui	a1,0xc0000

00000000000033a0 <.LBB101_40>:
    33a0:	00001537          	lui	a0,0x1
    33a4:	40a40533          	sub	a0,s0,a0
    33a8:	2ab53823          	sd	a1,688(a0) # 12b0 <.LBB101_4+0x404>
    33ac:	007b1593          	slli	a1,s6,0x7
    33b0:	ef043503          	ld	a0,-272(s0)
    33b4:	00001b37          	lui	s6,0x1
    33b8:	41640b33          	sub	s6,s0,s6
    33bc:	710b3b03          	ld	s6,1808(s6) # 1710 <.LBB101_5+0x2c0>
    33c0:	00ab0533          	add	a0,s6,a0
    33c4:	00058b13          	mv	s6,a1
    33c8:	00b50533          	add	a0,a0,a1
    33cc:	001805b3          	add	a1,a6,ra
    33d0:	00b5053b          	addw	a0,a0,a1
    33d4:	400005b7          	lui	a1,0x40000
    33d8:	e1d43023          	sd	t4,-512(s0)
    33dc:	00001eb7          	lui	t4,0x1
    33e0:	41d40eb3          	sub	t4,s0,t4
    33e4:	24aebc23          	sd	a0,600(t4) # 1258 <.LBB101_4+0x3ac>
    33e8:	00055463          	bgez	a0,33f0 <.LBB101_42>
    33ec:	c00005b7          	lui	a1,0xc0000

00000000000033f0 <.LBB101_42>:
    33f0:	00001537          	lui	a0,0x1
    33f4:	40a40533          	sub	a0,s0,a0
    33f8:	24b53823          	sd	a1,592(a0) # 1250 <.LBB101_4+0x3a4>
    33fc:	007a9a93          	slli	s5,s5,0x7
    3400:	ef843503          	ld	a0,-264(s0)
    3404:	000015b7          	lui	a1,0x1
    3408:	40b405b3          	sub	a1,s0,a1
    340c:	7185b583          	ld	a1,1816(a1) # 1718 <.LBB101_5+0x2c8>
    3410:	00a58533          	add	a0,a1,a0
    3414:	000015b7          	lui	a1,0x1
    3418:	40b405b3          	sub	a1,s0,a1
    341c:	7155bc23          	sd	s5,1816(a1) # 1718 <.LBB101_5+0x2c8>
    3420:	01550533          	add	a0,a0,s5
    3424:	001805b3          	add	a1,a6,ra
    3428:	00b5053b          	addw	a0,a0,a1
    342c:	400005b7          	lui	a1,0x40000
    3430:	00001eb7          	lui	t4,0x1
    3434:	41d40eb3          	sub	t4,s0,t4
    3438:	1eaeb023          	sd	a0,480(t4) # 11e0 <.LBB101_4+0x334>
    343c:	00001eb7          	lui	t4,0x1
    3440:	41d40eb3          	sub	t4,s0,t4
    3444:	760ebe83          	ld	t4,1888(t4) # 1760 <.LBB101_5+0x310>
    3448:	00055463          	bgez	a0,3450 <.LBB101_44>
    344c:	c00005b7          	lui	a1,0xc0000

0000000000003450 <.LBB101_44>:
    3450:	00001537          	lui	a0,0x1
    3454:	40a40533          	sub	a0,s0,a0
    3458:	1cb53823          	sd	a1,464(a0) # 11d0 <.LBB101_4+0x324>
    345c:	007a1593          	slli	a1,s4,0x7
    3460:	f0043503          	ld	a0,-256(s0)
    3464:	00a68533          	add	a0,a3,a0
    3468:	000016b7          	lui	a3,0x1
    346c:	40d406b3          	sub	a3,s0,a3
    3470:	72b6b023          	sd	a1,1824(a3) # 1720 <.LBB101_5+0x2d0>
    3474:	00b50533          	add	a0,a0,a1
    3478:	001805b3          	add	a1,a6,ra
    347c:	00b5053b          	addw	a0,a0,a1
    3480:	400005b7          	lui	a1,0x40000
    3484:	000016b7          	lui	a3,0x1
    3488:	40d406b3          	sub	a3,s0,a3
    348c:	16a6b023          	sd	a0,352(a3) # 1160 <.LBB101_4+0x2b4>
    3490:	000016b7          	lui	a3,0x1
    3494:	40d406b3          	sub	a3,s0,a3
    3498:	7286ba03          	ld	s4,1832(a3) # 1728 <.LBB101_5+0x2d8>
    349c:	00055463          	bgez	a0,34a4 <.LBB101_46>
    34a0:	c00005b7          	lui	a1,0xc0000

00000000000034a4 <.LBB101_46>:
    34a4:	00001537          	lui	a0,0x1
    34a8:	40a40533          	sub	a0,s0,a0
    34ac:	14b53c23          	sd	a1,344(a0) # 1158 <.LBB101_4+0x2ac>
    34b0:	00799593          	slli	a1,s3,0x7
    34b4:	f0843503          	ld	a0,-248(s0)
    34b8:	00aa0533          	add	a0,s4,a0
    34bc:	000016b7          	lui	a3,0x1
    34c0:	40d406b3          	sub	a3,s0,a3
    34c4:	72b6b423          	sd	a1,1832(a3) # 1728 <.LBB101_5+0x2d8>
    34c8:	00b50533          	add	a0,a0,a1
    34cc:	001805b3          	add	a1,a6,ra
    34d0:	00b5053b          	addw	a0,a0,a1
    34d4:	400005b7          	lui	a1,0x40000
    34d8:	97043a83          	ld	s5,-1680(s0)
    34dc:	000016b7          	lui	a3,0x1
    34e0:	40d406b3          	sub	a3,s0,a3
    34e4:	0ea6b823          	sd	a0,240(a3) # 10f0 <.LBB101_4+0x244>
    34e8:	000016b7          	lui	a3,0x1
    34ec:	40d406b3          	sub	a3,s0,a3
    34f0:	7806ba03          	ld	s4,1920(a3) # 1780 <.LBB101_5+0x330>
    34f4:	00055463          	bgez	a0,34fc <.LBB101_48>
    34f8:	c00005b7          	lui	a1,0xc0000

00000000000034fc <.LBB101_48>:
    34fc:	00001537          	lui	a0,0x1
    3500:	40a40533          	sub	a0,s0,a0
    3504:	0cb53c23          	sd	a1,216(a0) # 10d8 <.LBB101_4+0x22c>
    3508:	00791913          	slli	s2,s2,0x7
    350c:	f3843503          	ld	a0,-200(s0)
    3510:	000015b7          	lui	a1,0x1
    3514:	40b405b3          	sub	a1,s0,a1
    3518:	7305b583          	ld	a1,1840(a1) # 1730 <.LBB101_5+0x2e0>
    351c:	00a58533          	add	a0,a1,a0
    3520:	000015b7          	lui	a1,0x1
    3524:	40b405b3          	sub	a1,s0,a1
    3528:	7325b823          	sd	s2,1840(a1) # 1730 <.LBB101_5+0x2e0>
    352c:	01250533          	add	a0,a0,s2
    3530:	001805b3          	add	a1,a6,ra
    3534:	00b5053b          	addw	a0,a0,a1
    3538:	400005b7          	lui	a1,0x40000
    353c:	000016b7          	lui	a3,0x1
    3540:	40d406b3          	sub	a3,s0,a3
    3544:	06a6bc23          	sd	a0,120(a3) # 1078 <.LBB101_4+0x1cc>
    3548:	000016b7          	lui	a3,0x1
    354c:	40d406b3          	sub	a3,s0,a3
    3550:	7586b983          	ld	s3,1880(a3) # 1758 <.LBB101_5+0x308>
    3554:	00055463          	bgez	a0,355c <.LBB101_50>
    3558:	c00005b7          	lui	a1,0xc0000

000000000000355c <.LBB101_50>:
    355c:	00001537          	lui	a0,0x1
    3560:	40a40533          	sub	a0,s0,a0
    3564:	06b53423          	sd	a1,104(a0) # 1068 <.LBB101_4+0x1bc>
    3568:	00749493          	slli	s1,s1,0x7
    356c:	f4043503          	ld	a0,-192(s0)
    3570:	000015b7          	lui	a1,0x1
    3574:	40b405b3          	sub	a1,s0,a1
    3578:	7385b583          	ld	a1,1848(a1) # 1738 <.LBB101_5+0x2e8>
    357c:	00a58533          	add	a0,a1,a0
    3580:	000015b7          	lui	a1,0x1
    3584:	40b405b3          	sub	a1,s0,a1
    3588:	7295bc23          	sd	s1,1848(a1) # 1738 <.LBB101_5+0x2e8>
    358c:	00950533          	add	a0,a0,s1
    3590:	001805b3          	add	a1,a6,ra
    3594:	00b5053b          	addw	a0,a0,a1
    3598:	400005b7          	lui	a1,0x40000
    359c:	000016b7          	lui	a3,0x1
    35a0:	40d406b3          	sub	a3,s0,a3
    35a4:	00a6b023          	sd	a0,0(a3) # 1000 <.LBB101_4+0x154>
    35a8:	00055463          	bgez	a0,35b0 <.LBB101_52>
    35ac:	c00005b7          	lui	a1,0xc0000

00000000000035b0 <.LBB101_52>:
    35b0:	00001537          	lui	a0,0x1
    35b4:	40a40533          	sub	a0,s0,a0
    35b8:	feb53423          	sd	a1,-24(a0) # fe8 <.LBB101_4+0x13c>
    35bc:	007f9593          	slli	a1,t6,0x7
    35c0:	f4843503          	ld	a0,-184(s0)
    35c4:	000016b7          	lui	a3,0x1
    35c8:	40d406b3          	sub	a3,s0,a3
    35cc:	7406bf83          	ld	t6,1856(a3) # 1740 <.LBB101_5+0x2f0>
    35d0:	00af8533          	add	a0,t6,a0
    35d4:	000016b7          	lui	a3,0x1
    35d8:	40d406b3          	sub	a3,s0,a3
    35dc:	74b6b023          	sd	a1,1856(a3) # 1740 <.LBB101_5+0x2f0>
    35e0:	00b50533          	add	a0,a0,a1
    35e4:	001805b3          	add	a1,a6,ra
    35e8:	00b5053b          	addw	a0,a0,a1
    35ec:	400005b7          	lui	a1,0x40000
    35f0:	b0043483          	ld	s1,-1280(s0)
    35f4:	000016b7          	lui	a3,0x1
    35f8:	40d406b3          	sub	a3,s0,a3
    35fc:	f8a6b023          	sd	a0,-128(a3) # f80 <.LBB101_4+0xd4>
    3600:	00055463          	bgez	a0,3608 <.LBB101_54>
    3604:	c00005b7          	lui	a1,0xc0000

0000000000003608 <.LBB101_54>:
    3608:	00001537          	lui	a0,0x1
    360c:	40a40533          	sub	a0,s0,a0
    3610:	f6b53823          	sd	a1,-144(a0) # f70 <.LBB101_4+0xc4>
    3614:	007f1f13          	slli	t5,t5,0x7
    3618:	f5043503          	ld	a0,-176(s0)
    361c:	000015b7          	lui	a1,0x1
    3620:	40b405b3          	sub	a1,s0,a1
    3624:	7485b583          	ld	a1,1864(a1) # 1748 <.LBB101_5+0x2f8>
    3628:	00a58533          	add	a0,a1,a0
    362c:	000015b7          	lui	a1,0x1
    3630:	40b405b3          	sub	a1,s0,a1
    3634:	75e5b423          	sd	t5,1864(a1) # 1748 <.LBB101_5+0x2f8>
    3638:	01e50533          	add	a0,a0,t5
    363c:	001805b3          	add	a1,a6,ra
    3640:	00b5053b          	addw	a0,a0,a1
    3644:	400005b7          	lui	a1,0x40000
    3648:	b6843f03          	ld	t5,-1176(s0)
    364c:	000016b7          	lui	a3,0x1
    3650:	40d406b3          	sub	a3,s0,a3
    3654:	f0a6b423          	sd	a0,-248(a3) # f08 <.LBB101_4+0x5c>
    3658:	000016b7          	lui	a3,0x1
    365c:	40d406b3          	sub	a3,s0,a3
    3660:	7686bf83          	ld	t6,1896(a3) # 1768 <.LBB101_5+0x318>
    3664:	00055463          	bgez	a0,366c <.LBB101_56>
    3668:	c00005b7          	lui	a1,0xc0000

000000000000366c <.LBB101_56>:
    366c:	00001537          	lui	a0,0x1
    3670:	40a40533          	sub	a0,s0,a0
    3674:	eeb53c23          	sd	a1,-264(a0) # ef8 <.LBB101_4+0x4c>
    3678:	00761613          	slli	a2,a2,0x7
    367c:	f5843503          	ld	a0,-168(s0)
    3680:	000015b7          	lui	a1,0x1
    3684:	40b405b3          	sub	a1,s0,a1
    3688:	7505b583          	ld	a1,1872(a1) # 1750 <.LBB101_5+0x300>
    368c:	00a58533          	add	a0,a1,a0
    3690:	000015b7          	lui	a1,0x1
    3694:	40b405b3          	sub	a1,s0,a1
    3698:	74c5b823          	sd	a2,1872(a1) # 1750 <.LBB101_5+0x300>
    369c:	00c50533          	add	a0,a0,a2
    36a0:	001805b3          	add	a1,a6,ra
    36a4:	00b5053b          	addw	a0,a0,a1
    36a8:	400005b7          	lui	a1,0x40000
    36ac:	00001637          	lui	a2,0x1
    36b0:	40c40633          	sub	a2,s0,a2
    36b4:	e8a63423          	sd	a0,-376(a2) # e88 <.LBB101_3+0xc34>
    36b8:	00055463          	bgez	a0,36c0 <.LBB101_58>
    36bc:	c00005b7          	lui	a1,0xc0000

00000000000036c0 <.LBB101_58>:
    36c0:	00001537          	lui	a0,0x1
    36c4:	40a40533          	sub	a0,s0,a0
    36c8:	e8b53023          	sd	a1,-384(a0) # e80 <.LBB101_3+0xc2c>
    36cc:	00739593          	slli	a1,t2,0x7
    36d0:	f6043503          	ld	a0,-160(s0)
    36d4:	00a98533          	add	a0,s3,a0
    36d8:	00001637          	lui	a2,0x1
    36dc:	40c40633          	sub	a2,s0,a2
    36e0:	74b63c23          	sd	a1,1880(a2) # 1758 <.LBB101_5+0x308>
    36e4:	00b50533          	add	a0,a0,a1
    36e8:	001805b3          	add	a1,a6,ra
    36ec:	00b5053b          	addw	a0,a0,a1
    36f0:	400005b7          	lui	a1,0x40000
    36f4:	00001637          	lui	a2,0x1
    36f8:	40c40633          	sub	a2,s0,a2
    36fc:	e0a63c23          	sd	a0,-488(a2) # e18 <.LBB101_3+0xbc4>
    3700:	00001637          	lui	a2,0x1
    3704:	40c40633          	sub	a2,s0,a2
    3708:	78863603          	ld	a2,1928(a2) # 1788 <.LBB101_5+0x338>
    370c:	00055463          	bgez	a0,3714 <.LBB101_60>
    3710:	c00005b7          	lui	a1,0xc0000

0000000000003714 <.LBB101_60>:
    3714:	00001537          	lui	a0,0x1
    3718:	40a40533          	sub	a0,s0,a0
    371c:	e0b53423          	sd	a1,-504(a0) # e08 <.LBB101_3+0xbb4>
    3720:	00731313          	slli	t1,t1,0x7
    3724:	f6843503          	ld	a0,-152(s0)
    3728:	00ae8533          	add	a0,t4,a0
    372c:	00030993          	mv	s3,t1
    3730:	00650533          	add	a0,a0,t1
    3734:	001805b3          	add	a1,a6,ra
    3738:	00b5053b          	addw	a0,a0,a1
    373c:	400005b7          	lui	a1,0x40000
    3740:	c7043e83          	ld	t4,-912(s0)
    3744:	000016b7          	lui	a3,0x1
    3748:	40d406b3          	sub	a3,s0,a3
    374c:	d8a6bc23          	sd	a0,-616(a3) # d98 <.LBB101_3+0xb44>
    3750:	000016b7          	lui	a3,0x1
    3754:	40d406b3          	sub	a3,s0,a3
    3758:	7786b383          	ld	t2,1912(a3) # 1778 <.LBB101_5+0x328>
    375c:	00055463          	bgez	a0,3764 <.LBB101_62>
    3760:	c00005b7          	lui	a1,0xc0000

0000000000003764 <.LBB101_62>:
    3764:	00001537          	lui	a0,0x1
    3768:	40a40533          	sub	a0,s0,a0
    376c:	d8b53823          	sd	a1,-624(a0) # d90 <.LBB101_3+0xb3c>
    3770:	00729293          	slli	t0,t0,0x7
    3774:	f7043503          	ld	a0,-144(s0)
    3778:	00af8533          	add	a0,t6,a0
    377c:	00028f93          	mv	t6,t0
    3780:	00550533          	add	a0,a0,t0
    3784:	001805b3          	add	a1,a6,ra
    3788:	00b5053b          	addw	a0,a0,a1
    378c:	400005b7          	lui	a1,0x40000
    3790:	b7043303          	ld	t1,-1168(s0)
    3794:	000016b7          	lui	a3,0x1
    3798:	40d406b3          	sub	a3,s0,a3
    379c:	d2a6b023          	sd	a0,-736(a3) # d20 <.LBB101_3+0xacc>
    37a0:	00055463          	bgez	a0,37a8 <.LBB101_64>
    37a4:	c00005b7          	lui	a1,0xc0000

00000000000037a8 <.LBB101_64>:
    37a8:	00001537          	lui	a0,0x1
    37ac:	40a40533          	sub	a0,s0,a0
    37b0:	d0b53c23          	sd	a1,-744(a0) # d18 <.LBB101_3+0xac4>
    37b4:	00789893          	slli	a7,a7,0x7
    37b8:	f7843503          	ld	a0,-136(s0)
    37bc:	000015b7          	lui	a1,0x1
    37c0:	40b405b3          	sub	a1,s0,a1
    37c4:	7705b583          	ld	a1,1904(a1) # 1770 <.LBB101_5+0x320>
    37c8:	00a58533          	add	a0,a1,a0
    37cc:	000015b7          	lui	a1,0x1
    37d0:	40b405b3          	sub	a1,s0,a1
    37d4:	7715b823          	sd	a7,1904(a1) # 1770 <.LBB101_5+0x320>
    37d8:	01150533          	add	a0,a0,a7
    37dc:	001805b3          	add	a1,a6,ra
    37e0:	00b5053b          	addw	a0,a0,a1
    37e4:	400005b7          	lui	a1,0x40000
    37e8:	a7043283          	ld	t0,-1424(s0)
    37ec:	000016b7          	lui	a3,0x1
    37f0:	40d406b3          	sub	a3,s0,a3
    37f4:	caa6b023          	sd	a0,-864(a3) # ca0 <.LBB101_3+0xa4c>
    37f8:	00055463          	bgez	a0,3800 <.LBB101_66>
    37fc:	c00005b7          	lui	a1,0xc0000

0000000000003800 <.LBB101_66>:
    3800:	00001537          	lui	a0,0x1
    3804:	40a40533          	sub	a0,s0,a0
    3808:	c8b53c23          	sd	a1,-872(a0) # c98 <.LBB101_3+0xa44>
    380c:	00001537          	lui	a0,0x1
    3810:	40a40533          	sub	a0,s0,a0
    3814:	5b853683          	ld	a3,1464(a0) # 15b8 <.LBB101_5+0x168>
    3818:	00769693          	slli	a3,a3,0x7
    381c:	f8043503          	ld	a0,-128(s0)
    3820:	00a38533          	add	a0,t2,a0
    3824:	00068393          	mv	t2,a3
    3828:	00d50533          	add	a0,a0,a3
    382c:	001805b3          	add	a1,a6,ra
    3830:	00b5053b          	addw	a0,a0,a1
    3834:	400005b7          	lui	a1,0x40000
    3838:	a8043883          	ld	a7,-1408(s0)
    383c:	000016b7          	lui	a3,0x1
    3840:	40d406b3          	sub	a3,s0,a3
    3844:	c4a6bc23          	sd	a0,-936(a3) # c58 <.LBB101_3+0xa04>
    3848:	00055463          	bgez	a0,3850 <.LBB101_68>
    384c:	c00005b7          	lui	a1,0xc0000

0000000000003850 <.LBB101_68>:
    3850:	00001537          	lui	a0,0x1
    3854:	40a40533          	sub	a0,s0,a0
    3858:	c4b53823          	sd	a1,-944(a0) # c50 <.LBB101_3+0x9fc>
    385c:	00001537          	lui	a0,0x1
    3860:	40a40533          	sub	a0,s0,a0
    3864:	5c053583          	ld	a1,1472(a0) # 15c0 <.LBB101_5+0x170>
    3868:	00759593          	slli	a1,a1,0x7
    386c:	f8843503          	ld	a0,-120(s0)
    3870:	00aa0533          	add	a0,s4,a0
    3874:	00058a13          	mv	s4,a1
    3878:	00b50533          	add	a0,a0,a1
    387c:	00180833          	add	a6,a6,ra
    3880:	0105053b          	addw	a0,a0,a6
    3884:	400005b7          	lui	a1,0x40000
    3888:	88043683          	ld	a3,-1920(s0)
    388c:	00001837          	lui	a6,0x1
    3890:	41040833          	sub	a6,s0,a6
    3894:	c6a83023          	sd	a0,-928(a6) # c60 <.LBB101_3+0xa0c>
    3898:	00055463          	bgez	a0,38a0 <.LBB101_70>
    389c:	c00005b7          	lui	a1,0xc0000

00000000000038a0 <.LBB101_70>:
    38a0:	00001537          	lui	a0,0x1
    38a4:	40a40533          	sub	a0,s0,a0
    38a8:	beb53023          	sd	a1,-1056(a0) # be0 <.LBB101_3+0x98c>
    38ac:	00471593          	slli	a1,a4,0x4
    38b0:	eb043503          	ld	a0,-336(s0)
    38b4:	00a60533          	add	a0,a2,a0
    38b8:	00e585b3          	add	a1,a1,a4
    38bc:	ea843603          	ld	a2,-344(s0)
    38c0:	00c50533          	add	a0,a0,a2
    38c4:	00158633          	add	a2,a1,ra
    38c8:	00c5053b          	addw	a0,a0,a2
    38cc:	40000637          	lui	a2,0x40000
    38d0:	00001737          	lui	a4,0x1
    38d4:	40e40733          	sub	a4,s0,a4
    38d8:	78a73423          	sd	a0,1928(a4) # 1788 <.LBB101_5+0x338>
    38dc:	98043803          	ld	a6,-1664(s0)
    38e0:	00055463          	bgez	a0,38e8 <.LBB101_72>
    38e4:	c0000637          	lui	a2,0xc0000

00000000000038e8 <.LBB101_72>:
    38e8:	00001537          	lui	a0,0x1
    38ec:	40a40533          	sub	a0,s0,a0
    38f0:	78c53023          	sd	a2,1920(a0) # 1780 <.LBB101_5+0x330>
    38f4:	ea043503          	ld	a0,-352(s0)
    38f8:	00001637          	lui	a2,0x1
    38fc:	40c40633          	sub	a2,s0,a2
    3900:	79063603          	ld	a2,1936(a2) # 1790 <.LBB101_5+0x340>
    3904:	00a60533          	add	a0,a2,a0
    3908:	e9843603          	ld	a2,-360(s0)
    390c:	00c50533          	add	a0,a0,a2
    3910:	00158633          	add	a2,a1,ra
    3914:	00c5053b          	addw	a0,a0,a2
    3918:	40000637          	lui	a2,0x40000
    391c:	00001737          	lui	a4,0x1
    3920:	40e40733          	sub	a4,s0,a4
    3924:	78a73823          	sd	a0,1936(a4) # 1790 <.LBB101_5+0x340>
    3928:	97843703          	ld	a4,-1672(s0)
    392c:	00055463          	bgez	a0,3934 <.LBB101_74>
    3930:	c0000637          	lui	a2,0xc0000

0000000000003934 <.LBB101_74>:
    3934:	00001537          	lui	a0,0x1
    3938:	40a40533          	sub	a0,s0,a0
    393c:	76c53c23          	sd	a2,1912(a0) # 1778 <.LBB101_5+0x328>
    3940:	e9043503          	ld	a0,-368(s0)
    3944:	00001637          	lui	a2,0x1
    3948:	40c40633          	sub	a2,s0,a2
    394c:	79863603          	ld	a2,1944(a2) # 1798 <.LBB101_5+0x348>
    3950:	00a60533          	add	a0,a2,a0
    3954:	e8843603          	ld	a2,-376(s0)
    3958:	00c50533          	add	a0,a0,a2
    395c:	00158633          	add	a2,a1,ra
    3960:	00c5053b          	addw	a0,a0,a2
    3964:	40000637          	lui	a2,0x40000
    3968:	00001937          	lui	s2,0x1
    396c:	41240933          	sub	s2,s0,s2
    3970:	78a93c23          	sd	a0,1944(s2) # 1798 <.LBB101_5+0x348>
    3974:	00055463          	bgez	a0,397c <.LBB101_76>
    3978:	c0000637          	lui	a2,0xc0000

000000000000397c <.LBB101_76>:
    397c:	00001537          	lui	a0,0x1
    3980:	40a40533          	sub	a0,s0,a0
    3984:	76c53423          	sd	a2,1896(a0) # 1768 <.LBB101_5+0x318>
    3988:	e8043503          	ld	a0,-384(s0)
    398c:	00001637          	lui	a2,0x1
    3990:	40c40633          	sub	a2,s0,a2
    3994:	7a063603          	ld	a2,1952(a2) # 17a0 <.LBB101_5+0x350>
    3998:	00a60533          	add	a0,a2,a0
    399c:	e7843603          	ld	a2,-392(s0)
    39a0:	00c50533          	add	a0,a0,a2
    39a4:	00158633          	add	a2,a1,ra
    39a8:	00c5053b          	addw	a0,a0,a2
    39ac:	40000637          	lui	a2,0x40000
    39b0:	00001937          	lui	s2,0x1
    39b4:	41240933          	sub	s2,s0,s2
    39b8:	7aa93023          	sd	a0,1952(s2) # 17a0 <.LBB101_5+0x350>
    39bc:	00055463          	bgez	a0,39c4 <.LBB101_78>
    39c0:	c0000637          	lui	a2,0xc0000

00000000000039c4 <.LBB101_78>:
    39c4:	00001537          	lui	a0,0x1
    39c8:	40a40533          	sub	a0,s0,a0
    39cc:	76c53023          	sd	a2,1888(a0) # 1760 <.LBB101_5+0x310>
    39d0:	e7043503          	ld	a0,-400(s0)
    39d4:	00001637          	lui	a2,0x1
    39d8:	40c40633          	sub	a2,s0,a2
    39dc:	7a863603          	ld	a2,1960(a2) # 17a8 <.LBB101_5+0x358>
    39e0:	00a60533          	add	a0,a2,a0
    39e4:	e6843603          	ld	a2,-408(s0)
    39e8:	00c50533          	add	a0,a0,a2
    39ec:	00158633          	add	a2,a1,ra
    39f0:	00c5053b          	addw	a0,a0,a2
    39f4:	40000637          	lui	a2,0x40000
    39f8:	00001937          	lui	s2,0x1
    39fc:	41240933          	sub	s2,s0,s2
    3a00:	7aa93423          	sd	a0,1960(s2) # 17a8 <.LBB101_5+0x358>
    3a04:	00055463          	bgez	a0,3a0c <.LBB101_80>
    3a08:	c0000637          	lui	a2,0xc0000

0000000000003a0c <.LBB101_80>:
    3a0c:	00001537          	lui	a0,0x1
    3a10:	40a40533          	sub	a0,s0,a0
    3a14:	70c53823          	sd	a2,1808(a0) # 1710 <.LBB101_5+0x2c0>
    3a18:	00001537          	lui	a0,0x1
    3a1c:	40a40533          	sub	a0,s0,a0
    3a20:	6c853503          	ld	a0,1736(a0) # 16c8 <.LBB101_5+0x278>
    3a24:	00001637          	lui	a2,0x1
    3a28:	40c40633          	sub	a2,s0,a2
    3a2c:	7b063603          	ld	a2,1968(a2) # 17b0 <.LBB101_5+0x360>
    3a30:	00a60533          	add	a0,a2,a0
    3a34:	00001637          	lui	a2,0x1
    3a38:	40c40633          	sub	a2,s0,a2
    3a3c:	6c063603          	ld	a2,1728(a2) # 16c0 <.LBB101_5+0x270>
    3a40:	00c50533          	add	a0,a0,a2
    3a44:	00158633          	add	a2,a1,ra
    3a48:	00c5053b          	addw	a0,a0,a2
    3a4c:	40000637          	lui	a2,0x40000
    3a50:	00001937          	lui	s2,0x1
    3a54:	41240933          	sub	s2,s0,s2
    3a58:	7aa93823          	sd	a0,1968(s2) # 17b0 <.LBB101_5+0x360>
    3a5c:	00055463          	bgez	a0,3a64 <.LBB101_82>
    3a60:	c0000637          	lui	a2,0xc0000

0000000000003a64 <.LBB101_82>:
    3a64:	00001537          	lui	a0,0x1
    3a68:	40a40533          	sub	a0,s0,a0
    3a6c:	70c53423          	sd	a2,1800(a0) # 1708 <.LBB101_5+0x2b8>
    3a70:	00001537          	lui	a0,0x1
    3a74:	40a40533          	sub	a0,s0,a0
    3a78:	6b853503          	ld	a0,1720(a0) # 16b8 <.LBB101_5+0x268>
    3a7c:	00001637          	lui	a2,0x1
    3a80:	40c40633          	sub	a2,s0,a2
    3a84:	7b863603          	ld	a2,1976(a2) # 17b8 <.LBB101_5+0x368>
    3a88:	00a60533          	add	a0,a2,a0
    3a8c:	00001637          	lui	a2,0x1
    3a90:	40c40633          	sub	a2,s0,a2
    3a94:	6b063603          	ld	a2,1712(a2) # 16b0 <.LBB101_5+0x260>
    3a98:	00c50533          	add	a0,a0,a2
    3a9c:	00158633          	add	a2,a1,ra
    3aa0:	00c5053b          	addw	a0,a0,a2
    3aa4:	40000637          	lui	a2,0x40000
    3aa8:	00001937          	lui	s2,0x1
    3aac:	41240933          	sub	s2,s0,s2
    3ab0:	7aa93c23          	sd	a0,1976(s2) # 17b8 <.LBB101_5+0x368>
    3ab4:	00055463          	bgez	a0,3abc <.LBB101_84>
    3ab8:	c0000637          	lui	a2,0xc0000

0000000000003abc <.LBB101_84>:
    3abc:	00001537          	lui	a0,0x1
    3ac0:	40a40533          	sub	a0,s0,a0
    3ac4:	6ec53c23          	sd	a2,1784(a0) # 16f8 <.LBB101_5+0x2a8>
    3ac8:	00001537          	lui	a0,0x1
    3acc:	40a40533          	sub	a0,s0,a0
    3ad0:	6a853503          	ld	a0,1704(a0) # 16a8 <.LBB101_5+0x258>
    3ad4:	00001637          	lui	a2,0x1
    3ad8:	40c40633          	sub	a2,s0,a2
    3adc:	7c063603          	ld	a2,1984(a2) # 17c0 <.LBB101_5+0x370>
    3ae0:	00a60533          	add	a0,a2,a0
    3ae4:	00001637          	lui	a2,0x1
    3ae8:	40c40633          	sub	a2,s0,a2
    3aec:	6a063603          	ld	a2,1696(a2) # 16a0 <.LBB101_5+0x250>
    3af0:	00c50533          	add	a0,a0,a2
    3af4:	00158633          	add	a2,a1,ra
    3af8:	00c5053b          	addw	a0,a0,a2
    3afc:	40000637          	lui	a2,0x40000
    3b00:	00001937          	lui	s2,0x1
    3b04:	41240933          	sub	s2,s0,s2
    3b08:	5ca93023          	sd	a0,1472(s2) # 15c0 <.LBB101_5+0x170>
    3b0c:	00055463          	bgez	a0,3b14 <.LBB101_86>
    3b10:	c0000637          	lui	a2,0xc0000

0000000000003b14 <.LBB101_86>:
    3b14:	00001537          	lui	a0,0x1
    3b18:	40a40533          	sub	a0,s0,a0
    3b1c:	5ac53c23          	sd	a2,1464(a0) # 15b8 <.LBB101_5+0x168>
    3b20:	00001537          	lui	a0,0x1
    3b24:	40a40533          	sub	a0,s0,a0
    3b28:	69853503          	ld	a0,1688(a0) # 1698 <.LBB101_5+0x248>
    3b2c:	00001637          	lui	a2,0x1
    3b30:	40c40633          	sub	a2,s0,a2
    3b34:	7c863603          	ld	a2,1992(a2) # 17c8 <.LBB101_5+0x378>
    3b38:	00a60533          	add	a0,a2,a0
    3b3c:	00001637          	lui	a2,0x1
    3b40:	40c40633          	sub	a2,s0,a2
    3b44:	69063603          	ld	a2,1680(a2) # 1690 <.LBB101_5+0x240>
    3b48:	00c50533          	add	a0,a0,a2
    3b4c:	00158633          	add	a2,a1,ra
    3b50:	00c5053b          	addw	a0,a0,a2
    3b54:	40000637          	lui	a2,0x40000
    3b58:	00001937          	lui	s2,0x1
    3b5c:	41240933          	sub	s2,s0,s2
    3b60:	56a93023          	sd	a0,1376(s2) # 1560 <.LBB101_5+0x110>
    3b64:	00055463          	bgez	a0,3b6c <.LBB101_88>
    3b68:	c0000637          	lui	a2,0xc0000

0000000000003b6c <.LBB101_88>:
    3b6c:	00001537          	lui	a0,0x1
    3b70:	40a40533          	sub	a0,s0,a0
    3b74:	54c53c23          	sd	a2,1368(a0) # 1558 <.LBB101_5+0x108>
    3b78:	00001537          	lui	a0,0x1
    3b7c:	40a40533          	sub	a0,s0,a0
    3b80:	68853503          	ld	a0,1672(a0) # 1688 <.LBB101_5+0x238>
    3b84:	00001637          	lui	a2,0x1
    3b88:	40c40633          	sub	a2,s0,a2
    3b8c:	7d063603          	ld	a2,2000(a2) # 17d0 <.LBB101_5+0x380>
    3b90:	00a60533          	add	a0,a2,a0
    3b94:	00001637          	lui	a2,0x1
    3b98:	40c40633          	sub	a2,s0,a2
    3b9c:	6d063603          	ld	a2,1744(a2) # 16d0 <.LBB101_5+0x280>
    3ba0:	00c50533          	add	a0,a0,a2
    3ba4:	00158633          	add	a2,a1,ra
    3ba8:	00c5053b          	addw	a0,a0,a2
    3bac:	40000637          	lui	a2,0x40000
    3bb0:	00001937          	lui	s2,0x1
    3bb4:	41240933          	sub	s2,s0,s2
    3bb8:	50a93423          	sd	a0,1288(s2) # 1508 <.LBB101_5+0xb8>
    3bbc:	00055463          	bgez	a0,3bc4 <.LBB101_90>
    3bc0:	c0000637          	lui	a2,0xc0000

0000000000003bc4 <.LBB101_90>:
    3bc4:	00001537          	lui	a0,0x1
    3bc8:	40a40533          	sub	a0,s0,a0
    3bcc:	50c53023          	sd	a2,1280(a0) # 1500 <.LBB101_5+0xb0>
    3bd0:	eb843503          	ld	a0,-328(s0)
    3bd4:	00001637          	lui	a2,0x1
    3bd8:	40c40633          	sub	a2,s0,a2
    3bdc:	7d863603          	ld	a2,2008(a2) # 17d8 <.LBB101_5+0x388>
    3be0:	00a60533          	add	a0,a2,a0
    3be4:	00001637          	lui	a2,0x1
    3be8:	40c40633          	sub	a2,s0,a2
    3bec:	6d863603          	ld	a2,1752(a2) # 16d8 <.LBB101_5+0x288>
    3bf0:	00c50533          	add	a0,a0,a2
    3bf4:	00158633          	add	a2,a1,ra
    3bf8:	00c5053b          	addw	a0,a0,a2
    3bfc:	40000637          	lui	a2,0x40000
    3c00:	00001937          	lui	s2,0x1
    3c04:	41240933          	sub	s2,s0,s2
    3c08:	4aa93423          	sd	a0,1192(s2) # 14a8 <.LBB101_5+0x58>
    3c0c:	00055463          	bgez	a0,3c14 <.LBB101_92>
    3c10:	c0000637          	lui	a2,0xc0000

0000000000003c14 <.LBB101_92>:
    3c14:	00001537          	lui	a0,0x1
    3c18:	40a40533          	sub	a0,s0,a0
    3c1c:	4ac53023          	sd	a2,1184(a0) # 14a0 <.LBB101_5+0x50>
    3c20:	ec043503          	ld	a0,-320(s0)
    3c24:	00001637          	lui	a2,0x1
    3c28:	40c40633          	sub	a2,s0,a2
    3c2c:	7e063603          	ld	a2,2016(a2) # 17e0 <.LBB101_5+0x390>
    3c30:	00a60533          	add	a0,a2,a0
    3c34:	00001637          	lui	a2,0x1
    3c38:	40c40633          	sub	a2,s0,a2
    3c3c:	6e063603          	ld	a2,1760(a2) # 16e0 <.LBB101_5+0x290>
    3c40:	00c50533          	add	a0,a0,a2
    3c44:	00158633          	add	a2,a1,ra
    3c48:	00c5053b          	addw	a0,a0,a2
    3c4c:	40000637          	lui	a2,0x40000
    3c50:	00001937          	lui	s2,0x1
    3c54:	41240933          	sub	s2,s0,s2
    3c58:	44a93c23          	sd	a0,1112(s2) # 1458 <.LBB101_5+0x8>
    3c5c:	00055463          	bgez	a0,3c64 <.LBB101_94>
    3c60:	c0000637          	lui	a2,0xc0000

0000000000003c64 <.LBB101_94>:
    3c64:	00001537          	lui	a0,0x1
    3c68:	40a40533          	sub	a0,s0,a0
    3c6c:	44c53423          	sd	a2,1096(a0) # 1448 <.LBB101_4+0x59c>
    3c70:	ec843503          	ld	a0,-312(s0)
    3c74:	00001637          	lui	a2,0x1
    3c78:	40c40633          	sub	a2,s0,a2
    3c7c:	7e863603          	ld	a2,2024(a2) # 17e8 <.LBB101_5+0x398>
    3c80:	00a60533          	add	a0,a2,a0
    3c84:	01b50533          	add	a0,a0,s11
    3c88:	00158633          	add	a2,a1,ra
    3c8c:	00c5053b          	addw	a0,a0,a2
    3c90:	40000637          	lui	a2,0x40000
    3c94:	00001937          	lui	s2,0x1
    3c98:	41240933          	sub	s2,s0,s2
    3c9c:	40a93023          	sd	a0,1024(s2) # 1400 <.LBB101_4+0x554>
    3ca0:	00055463          	bgez	a0,3ca8 <.LBB101_96>
    3ca4:	c0000637          	lui	a2,0xc0000

0000000000003ca8 <.LBB101_96>:
    3ca8:	00001537          	lui	a0,0x1
    3cac:	40a40533          	sub	a0,s0,a0
    3cb0:	3ec53823          	sd	a2,1008(a0) # 13f0 <.LBB101_4+0x544>
    3cb4:	ed043503          	ld	a0,-304(s0)
    3cb8:	00001637          	lui	a2,0x1
    3cbc:	40c40633          	sub	a2,s0,a2
    3cc0:	7f063603          	ld	a2,2032(a2) # 17f0 <.LBB101_5+0x3a0>
    3cc4:	00a60533          	add	a0,a2,a0
    3cc8:	01a50533          	add	a0,a0,s10
    3ccc:	00158633          	add	a2,a1,ra
    3cd0:	00c5053b          	addw	a0,a0,a2
    3cd4:	40000637          	lui	a2,0x40000
    3cd8:	00001937          	lui	s2,0x1
    3cdc:	41240933          	sub	s2,s0,s2
    3ce0:	3aa93423          	sd	a0,936(s2) # 13a8 <.LBB101_4+0x4fc>
    3ce4:	00055463          	bgez	a0,3cec <.LBB101_98>
    3ce8:	c0000637          	lui	a2,0xc0000

0000000000003cec <.LBB101_98>:
    3cec:	00001537          	lui	a0,0x1
    3cf0:	40a40533          	sub	a0,s0,a0
    3cf4:	38c53c23          	sd	a2,920(a0) # 1398 <.LBB101_4+0x4ec>
    3cf8:	ed843503          	ld	a0,-296(s0)
    3cfc:	00001637          	lui	a2,0x1
    3d00:	40c40633          	sub	a2,s0,a2
    3d04:	7f863603          	ld	a2,2040(a2) # 17f8 <.LBB101_5+0x3a8>
    3d08:	00a60533          	add	a0,a2,a0
    3d0c:	01950533          	add	a0,a0,s9
    3d10:	00158633          	add	a2,a1,ra
    3d14:	00c5053b          	addw	a0,a0,a2
    3d18:	40000637          	lui	a2,0x40000
    3d1c:	00001937          	lui	s2,0x1
    3d20:	41240933          	sub	s2,s0,s2
    3d24:	34a93023          	sd	a0,832(s2) # 1340 <.LBB101_4+0x494>
    3d28:	00055463          	bgez	a0,3d30 <.LBB101_100>
    3d2c:	c0000637          	lui	a2,0xc0000

0000000000003d30 <.LBB101_100>:
    3d30:	00001537          	lui	a0,0x1
    3d34:	40a40533          	sub	a0,s0,a0
    3d38:	32c53c23          	sd	a2,824(a0) # 1338 <.LBB101_4+0x48c>
    3d3c:	ee043503          	ld	a0,-288(s0)
    3d40:	80043603          	ld	a2,-2048(s0)
    3d44:	00a60533          	add	a0,a2,a0
    3d48:	00001637          	lui	a2,0x1
    3d4c:	40c40633          	sub	a2,s0,a2
    3d50:	70063603          	ld	a2,1792(a2) # 1700 <.LBB101_5+0x2b0>
    3d54:	00c50533          	add	a0,a0,a2
    3d58:	00158633          	add	a2,a1,ra
    3d5c:	00c5053b          	addw	a0,a0,a2
    3d60:	40000637          	lui	a2,0x40000
    3d64:	00001937          	lui	s2,0x1
    3d68:	41240933          	sub	s2,s0,s2
    3d6c:	2ca93c23          	sd	a0,728(s2) # 12d8 <.LBB101_4+0x42c>
    3d70:	00055463          	bgez	a0,3d78 <.LBB101_102>
    3d74:	c0000637          	lui	a2,0xc0000

0000000000003d78 <.LBB101_102>:
    3d78:	00001537          	lui	a0,0x1
    3d7c:	40a40533          	sub	a0,s0,a0
    3d80:	2cc53823          	sd	a2,720(a0) # 12d0 <.LBB101_4+0x424>
    3d84:	ee843503          	ld	a0,-280(s0)
    3d88:	80843603          	ld	a2,-2040(s0)
    3d8c:	00a60533          	add	a0,a2,a0
    3d90:	01750533          	add	a0,a0,s7
    3d94:	00158633          	add	a2,a1,ra
    3d98:	00c5053b          	addw	a0,a0,a2
    3d9c:	40000637          	lui	a2,0x40000
    3da0:	00001937          	lui	s2,0x1
    3da4:	41240933          	sub	s2,s0,s2
    3da8:	26a93c23          	sd	a0,632(s2) # 1278 <.LBB101_4+0x3cc>
    3dac:	00055463          	bgez	a0,3db4 <.LBB101_104>
    3db0:	c0000637          	lui	a2,0xc0000

0000000000003db4 <.LBB101_104>:
    3db4:	00001537          	lui	a0,0x1
    3db8:	40a40533          	sub	a0,s0,a0
    3dbc:	26c53823          	sd	a2,624(a0) # 1270 <.LBB101_4+0x3c4>
    3dc0:	ef043503          	ld	a0,-272(s0)
    3dc4:	81043603          	ld	a2,-2032(s0)
    3dc8:	00a60533          	add	a0,a2,a0
    3dcc:	01650533          	add	a0,a0,s6
    3dd0:	00158633          	add	a2,a1,ra
    3dd4:	00c5053b          	addw	a0,a0,a2
    3dd8:	40000637          	lui	a2,0x40000
    3ddc:	00001937          	lui	s2,0x1
    3de0:	41240933          	sub	s2,s0,s2
    3de4:	20a93423          	sd	a0,520(s2) # 1208 <.LBB101_4+0x35c>
    3de8:	00055463          	bgez	a0,3df0 <.LBB101_106>
    3dec:	c0000637          	lui	a2,0xc0000

0000000000003df0 <.LBB101_106>:
    3df0:	00001537          	lui	a0,0x1
    3df4:	40a40533          	sub	a0,s0,a0
    3df8:	20c53023          	sd	a2,512(a0) # 1200 <.LBB101_4+0x354>
    3dfc:	ef843503          	ld	a0,-264(s0)
    3e00:	81843603          	ld	a2,-2024(s0)
    3e04:	00a60533          	add	a0,a2,a0
    3e08:	00001637          	lui	a2,0x1
    3e0c:	40c40633          	sub	a2,s0,a2
    3e10:	71863603          	ld	a2,1816(a2) # 1718 <.LBB101_5+0x2c8>
    3e14:	00c50533          	add	a0,a0,a2
    3e18:	00158633          	add	a2,a1,ra
    3e1c:	00c5053b          	addw	a0,a0,a2
    3e20:	40000637          	lui	a2,0x40000
    3e24:	00001937          	lui	s2,0x1
    3e28:	41240933          	sub	s2,s0,s2
    3e2c:	18a93823          	sd	a0,400(s2) # 1190 <.LBB101_4+0x2e4>
    3e30:	00055463          	bgez	a0,3e38 <.LBB101_108>
    3e34:	c0000637          	lui	a2,0xc0000

0000000000003e38 <.LBB101_108>:
    3e38:	00001537          	lui	a0,0x1
    3e3c:	40a40533          	sub	a0,s0,a0
    3e40:	18c53423          	sd	a2,392(a0) # 1188 <.LBB101_4+0x2dc>
    3e44:	f0043503          	ld	a0,-256(s0)
    3e48:	82043603          	ld	a2,-2016(s0)
    3e4c:	00a60533          	add	a0,a2,a0
    3e50:	00001637          	lui	a2,0x1
    3e54:	40c40633          	sub	a2,s0,a2
    3e58:	72063603          	ld	a2,1824(a2) # 1720 <.LBB101_5+0x2d0>
    3e5c:	00c50533          	add	a0,a0,a2
    3e60:	00158633          	add	a2,a1,ra
    3e64:	00c5053b          	addw	a0,a0,a2
    3e68:	40000637          	lui	a2,0x40000
    3e6c:	00001937          	lui	s2,0x1
    3e70:	41240933          	sub	s2,s0,s2
    3e74:	12a93023          	sd	a0,288(s2) # 1120 <.LBB101_4+0x274>
    3e78:	00055463          	bgez	a0,3e80 <.LBB101_110>
    3e7c:	c0000637          	lui	a2,0xc0000

0000000000003e80 <.LBB101_110>:
    3e80:	00001537          	lui	a0,0x1
    3e84:	40a40533          	sub	a0,s0,a0
    3e88:	10c53c23          	sd	a2,280(a0) # 1118 <.LBB101_4+0x26c>
    3e8c:	f0843503          	ld	a0,-248(s0)
    3e90:	82843603          	ld	a2,-2008(s0)
    3e94:	00a60533          	add	a0,a2,a0
    3e98:	00001637          	lui	a2,0x1
    3e9c:	40c40633          	sub	a2,s0,a2
    3ea0:	72863603          	ld	a2,1832(a2) # 1728 <.LBB101_5+0x2d8>
    3ea4:	00c50533          	add	a0,a0,a2
    3ea8:	00158633          	add	a2,a1,ra
    3eac:	00c5053b          	addw	a0,a0,a2
    3eb0:	40000637          	lui	a2,0x40000
    3eb4:	00001937          	lui	s2,0x1
    3eb8:	41240933          	sub	s2,s0,s2
    3ebc:	0aa93823          	sd	a0,176(s2) # 10b0 <.LBB101_4+0x204>
    3ec0:	00055463          	bgez	a0,3ec8 <.LBB101_112>
    3ec4:	c0000637          	lui	a2,0xc0000

0000000000003ec8 <.LBB101_112>:
    3ec8:	00001537          	lui	a0,0x1
    3ecc:	40a40533          	sub	a0,s0,a0
    3ed0:	0ac53423          	sd	a2,168(a0) # 10a8 <.LBB101_4+0x1fc>
    3ed4:	f3843503          	ld	a0,-200(s0)
    3ed8:	83043603          	ld	a2,-2000(s0)
    3edc:	00a60533          	add	a0,a2,a0
    3ee0:	00001637          	lui	a2,0x1
    3ee4:	40c40633          	sub	a2,s0,a2
    3ee8:	73063603          	ld	a2,1840(a2) # 1730 <.LBB101_5+0x2e0>
    3eec:	00c50533          	add	a0,a0,a2
    3ef0:	00158633          	add	a2,a1,ra
    3ef4:	00c5053b          	addw	a0,a0,a2
    3ef8:	40000637          	lui	a2,0x40000
    3efc:	00001937          	lui	s2,0x1
    3f00:	41240933          	sub	s2,s0,s2
    3f04:	04a93023          	sd	a0,64(s2) # 1040 <.LBB101_4+0x194>
    3f08:	00055463          	bgez	a0,3f10 <.LBB101_114>
    3f0c:	c0000637          	lui	a2,0xc0000

0000000000003f10 <.LBB101_114>:
    3f10:	00001537          	lui	a0,0x1
    3f14:	40a40533          	sub	a0,s0,a0
    3f18:	02c53c23          	sd	a2,56(a0) # 1038 <.LBB101_4+0x18c>
    3f1c:	f4043503          	ld	a0,-192(s0)
    3f20:	83843603          	ld	a2,-1992(s0)
    3f24:	00a60533          	add	a0,a2,a0
    3f28:	00001637          	lui	a2,0x1
    3f2c:	40c40633          	sub	a2,s0,a2
    3f30:	73863603          	ld	a2,1848(a2) # 1738 <.LBB101_5+0x2e8>
    3f34:	00c50533          	add	a0,a0,a2
    3f38:	00158633          	add	a2,a1,ra
    3f3c:	00c5053b          	addw	a0,a0,a2
    3f40:	40000637          	lui	a2,0x40000
    3f44:	00001937          	lui	s2,0x1
    3f48:	41240933          	sub	s2,s0,s2
    3f4c:	fca93823          	sd	a0,-48(s2) # fd0 <.LBB101_4+0x124>
    3f50:	00055463          	bgez	a0,3f58 <.LBB101_116>
    3f54:	c0000637          	lui	a2,0xc0000

0000000000003f58 <.LBB101_116>:
    3f58:	00001537          	lui	a0,0x1
    3f5c:	40a40533          	sub	a0,s0,a0
    3f60:	fcc53423          	sd	a2,-56(a0) # fc8 <.LBB101_4+0x11c>
    3f64:	f4843503          	ld	a0,-184(s0)
    3f68:	84043603          	ld	a2,-1984(s0)
    3f6c:	00a60533          	add	a0,a2,a0
    3f70:	00001637          	lui	a2,0x1
    3f74:	40c40633          	sub	a2,s0,a2
    3f78:	74063603          	ld	a2,1856(a2) # 1740 <.LBB101_5+0x2f0>
    3f7c:	00c50533          	add	a0,a0,a2
    3f80:	00158633          	add	a2,a1,ra
    3f84:	00c5053b          	addw	a0,a0,a2
    3f88:	40000637          	lui	a2,0x40000
    3f8c:	00001937          	lui	s2,0x1
    3f90:	41240933          	sub	s2,s0,s2
    3f94:	f4a93c23          	sd	a0,-168(s2) # f58 <.LBB101_4+0xac>
    3f98:	00055463          	bgez	a0,3fa0 <.LBB101_118>
    3f9c:	c0000637          	lui	a2,0xc0000

0000000000003fa0 <.LBB101_118>:
    3fa0:	00001537          	lui	a0,0x1
    3fa4:	40a40533          	sub	a0,s0,a0
    3fa8:	f4c53823          	sd	a2,-176(a0) # f50 <.LBB101_4+0xa4>
    3fac:	f5043503          	ld	a0,-176(s0)
    3fb0:	84843603          	ld	a2,-1976(s0)
    3fb4:	00a60533          	add	a0,a2,a0
    3fb8:	00001637          	lui	a2,0x1
    3fbc:	40c40633          	sub	a2,s0,a2
    3fc0:	74863603          	ld	a2,1864(a2) # 1748 <.LBB101_5+0x2f8>
    3fc4:	00c50533          	add	a0,a0,a2
    3fc8:	00158633          	add	a2,a1,ra
    3fcc:	00c5053b          	addw	a0,a0,a2
    3fd0:	40000637          	lui	a2,0x40000
    3fd4:	00001937          	lui	s2,0x1
    3fd8:	41240933          	sub	s2,s0,s2
    3fdc:	eea93423          	sd	a0,-280(s2) # ee8 <.LBB101_4+0x3c>
    3fe0:	00055463          	bgez	a0,3fe8 <.LBB101_120>
    3fe4:	c0000637          	lui	a2,0xc0000

0000000000003fe8 <.LBB101_120>:
    3fe8:	00001537          	lui	a0,0x1
    3fec:	40a40533          	sub	a0,s0,a0
    3ff0:	eec53023          	sd	a2,-288(a0) # ee0 <.LBB101_4+0x34>
    3ff4:	f5843503          	ld	a0,-168(s0)
    3ff8:	85043603          	ld	a2,-1968(s0)
    3ffc:	00a60533          	add	a0,a2,a0
    4000:	00001637          	lui	a2,0x1
    4004:	40c40633          	sub	a2,s0,a2
    4008:	75063603          	ld	a2,1872(a2) # 1750 <.LBB101_5+0x300>
    400c:	00c50533          	add	a0,a0,a2
    4010:	00158633          	add	a2,a1,ra
    4014:	00c5053b          	addw	a0,a0,a2
    4018:	40000637          	lui	a2,0x40000
    401c:	00001937          	lui	s2,0x1
    4020:	41240933          	sub	s2,s0,s2
    4024:	e6a93823          	sd	a0,-400(s2) # e70 <.LBB101_3+0xc1c>
    4028:	00055463          	bgez	a0,4030 <.LBB101_122>
    402c:	c0000637          	lui	a2,0xc0000

0000000000004030 <.LBB101_122>:
    4030:	00001537          	lui	a0,0x1
    4034:	40a40533          	sub	a0,s0,a0
    4038:	e6c53423          	sd	a2,-408(a0) # e68 <.LBB101_3+0xc14>
    403c:	f6043503          	ld	a0,-160(s0)
    4040:	85843603          	ld	a2,-1960(s0)
    4044:	00a60533          	add	a0,a2,a0
    4048:	00001637          	lui	a2,0x1
    404c:	40c40633          	sub	a2,s0,a2
    4050:	75863603          	ld	a2,1880(a2) # 1758 <.LBB101_5+0x308>
    4054:	00c50533          	add	a0,a0,a2
    4058:	00158633          	add	a2,a1,ra
    405c:	00c5053b          	addw	a0,a0,a2
    4060:	40000637          	lui	a2,0x40000
    4064:	00001937          	lui	s2,0x1
    4068:	41240933          	sub	s2,s0,s2
    406c:	e0a93023          	sd	a0,-512(s2) # e00 <.LBB101_3+0xbac>
    4070:	00055463          	bgez	a0,4078 <.LBB101_124>
    4074:	c0000637          	lui	a2,0xc0000

0000000000004078 <.LBB101_124>:
    4078:	00001537          	lui	a0,0x1
    407c:	40a40533          	sub	a0,s0,a0
    4080:	dec53c23          	sd	a2,-520(a0) # df8 <.LBB101_3+0xba4>
    4084:	f6843503          	ld	a0,-152(s0)
    4088:	86043603          	ld	a2,-1952(s0)
    408c:	00a60533          	add	a0,a2,a0
    4090:	01350533          	add	a0,a0,s3
    4094:	00158633          	add	a2,a1,ra
    4098:	00c5053b          	addw	a0,a0,a2
    409c:	40000637          	lui	a2,0x40000
    40a0:	00001937          	lui	s2,0x1
    40a4:	41240933          	sub	s2,s0,s2
    40a8:	d8a93423          	sd	a0,-632(s2) # d88 <.LBB101_3+0xb34>
    40ac:	00055463          	bgez	a0,40b4 <.LBB101_126>
    40b0:	c0000637          	lui	a2,0xc0000

00000000000040b4 <.LBB101_126>:
    40b4:	00001537          	lui	a0,0x1
    40b8:	40a40533          	sub	a0,s0,a0
    40bc:	d8c53023          	sd	a2,-640(a0) # d80 <.LBB101_3+0xb2c>
    40c0:	f7043503          	ld	a0,-144(s0)
    40c4:	86843603          	ld	a2,-1944(s0)
    40c8:	00a60533          	add	a0,a2,a0
    40cc:	01f50533          	add	a0,a0,t6
    40d0:	00158633          	add	a2,a1,ra
    40d4:	00c5053b          	addw	a0,a0,a2
    40d8:	40000637          	lui	a2,0x40000
    40dc:	00001937          	lui	s2,0x1
    40e0:	41240933          	sub	s2,s0,s2
    40e4:	d0a93823          	sd	a0,-752(s2) # d10 <.LBB101_3+0xabc>
    40e8:	00055463          	bgez	a0,40f0 <.LBB101_128>
    40ec:	c0000637          	lui	a2,0xc0000

00000000000040f0 <.LBB101_128>:
    40f0:	00001537          	lui	a0,0x1
    40f4:	40a40533          	sub	a0,s0,a0
    40f8:	d0c53423          	sd	a2,-760(a0) # d08 <.LBB101_3+0xab4>
    40fc:	f7843503          	ld	a0,-136(s0)
    4100:	87043603          	ld	a2,-1936(s0)
    4104:	00a60533          	add	a0,a2,a0
    4108:	00001637          	lui	a2,0x1
    410c:	40c40633          	sub	a2,s0,a2
    4110:	77063603          	ld	a2,1904(a2) # 1770 <.LBB101_5+0x320>
    4114:	00c50533          	add	a0,a0,a2
    4118:	00158633          	add	a2,a1,ra
    411c:	00c5053b          	addw	a0,a0,a2
    4120:	40000637          	lui	a2,0x40000
    4124:	00001937          	lui	s2,0x1
    4128:	41240933          	sub	s2,s0,s2
    412c:	c8a93823          	sd	a0,-880(s2) # c90 <.LBB101_3+0xa3c>
    4130:	00055463          	bgez	a0,4138 <.LBB101_130>
    4134:	c0000637          	lui	a2,0xc0000

0000000000004138 <.LBB101_130>:
    4138:	00001537          	lui	a0,0x1
    413c:	40a40533          	sub	a0,s0,a0
    4140:	c8c53423          	sd	a2,-888(a0) # c88 <.LBB101_3+0xa34>
    4144:	f8043503          	ld	a0,-128(s0)
    4148:	87843603          	ld	a2,-1928(s0)
    414c:	00a60533          	add	a0,a2,a0
    4150:	00750533          	add	a0,a0,t2
    4154:	00158633          	add	a2,a1,ra
    4158:	00c5053b          	addw	a0,a0,a2
    415c:	40000637          	lui	a2,0x40000
    4160:	00001937          	lui	s2,0x1
    4164:	41240933          	sub	s2,s0,s2
    4168:	c4a93423          	sd	a0,-952(s2) # c48 <.LBB101_3+0x9f4>
    416c:	00055463          	bgez	a0,4174 <.LBB101_132>
    4170:	c0000637          	lui	a2,0xc0000

0000000000004174 <.LBB101_132>:
    4174:	00001537          	lui	a0,0x1
    4178:	40a40533          	sub	a0,s0,a0
    417c:	c4c53023          	sd	a2,-960(a0) # c40 <.LBB101_3+0x9ec>
    4180:	f8843503          	ld	a0,-120(s0)
    4184:	00a68533          	add	a0,a3,a0
    4188:	01450533          	add	a0,a0,s4
    418c:	001585b3          	add	a1,a1,ra
    4190:	00b506bb          	addw	a3,a0,a1
    4194:	40000537          	lui	a0,0x40000
    4198:	0006d463          	bgez	a3,41a0 <.LBB101_134>
    419c:	c0000537          	lui	a0,0xc0000

00000000000041a0 <.LBB101_134>:
    41a0:	000015b7          	lui	a1,0x1
    41a4:	40b405b3          	sub	a1,s0,a1
    41a8:	bca5bc23          	sd	a0,-1064(a1) # bd8 <.LBB101_3+0x984>
    41ac:	00001537          	lui	a0,0x1
    41b0:	40a40533          	sub	a0,s0,a0
    41b4:	5b053903          	ld	s2,1456(a0) # 15b0 <.LBB101_5+0x160>
    41b8:	00491513          	slli	a0,s2,0x4
    41bc:	eb043583          	ld	a1,-336(s0)
    41c0:	88843603          	ld	a2,-1912(s0)
    41c4:	00b605b3          	add	a1,a2,a1
    41c8:	01250533          	add	a0,a0,s2
    41cc:	ea843603          	ld	a2,-344(s0)
    41d0:	00c585b3          	add	a1,a1,a2
    41d4:	00150633          	add	a2,a0,ra
    41d8:	00c585bb          	addw	a1,a1,a2
    41dc:	40000637          	lui	a2,0x40000
    41e0:	88b43423          	sd	a1,-1912(s0)
    41e4:	0005d463          	bgez	a1,41ec <.LBB101_136>
    41e8:	c0000637          	lui	a2,0xc0000

00000000000041ec <.LBB101_136>:
    41ec:	88c43023          	sd	a2,-1920(s0)
    41f0:	ea043583          	ld	a1,-352(s0)
    41f4:	89043603          	ld	a2,-1904(s0)
    41f8:	00b605b3          	add	a1,a2,a1
    41fc:	e9843603          	ld	a2,-360(s0)
    4200:	00c585b3          	add	a1,a1,a2
    4204:	00150633          	add	a2,a0,ra
    4208:	00c585bb          	addw	a1,a1,a2
    420c:	40000637          	lui	a2,0x40000
    4210:	88b43823          	sd	a1,-1904(s0)
    4214:	0005d463          	bgez	a1,421c <.LBB101_138>
    4218:	c0000637          	lui	a2,0xc0000

000000000000421c <.LBB101_138>:
    421c:	86c43c23          	sd	a2,-1928(s0)
    4220:	e9043583          	ld	a1,-368(s0)
    4224:	89843603          	ld	a2,-1896(s0)
    4228:	00b605b3          	add	a1,a2,a1
    422c:	e8843603          	ld	a2,-376(s0)
    4230:	00c585b3          	add	a1,a1,a2
    4234:	00150633          	add	a2,a0,ra
    4238:	00c585bb          	addw	a1,a1,a2
    423c:	40000637          	lui	a2,0x40000
    4240:	88b43c23          	sd	a1,-1896(s0)
    4244:	0005d463          	bgez	a1,424c <.LBB101_140>
    4248:	c0000637          	lui	a2,0xc0000

000000000000424c <.LBB101_140>:
    424c:	86c43823          	sd	a2,-1936(s0)
    4250:	e8043583          	ld	a1,-384(s0)
    4254:	8a043603          	ld	a2,-1888(s0)
    4258:	00b605b3          	add	a1,a2,a1
    425c:	e7843603          	ld	a2,-392(s0)
    4260:	00c585b3          	add	a1,a1,a2
    4264:	00150633          	add	a2,a0,ra
    4268:	00c585bb          	addw	a1,a1,a2
    426c:	40000637          	lui	a2,0x40000
    4270:	8ab43023          	sd	a1,-1888(s0)
    4274:	0005d463          	bgez	a1,427c <.LBB101_142>
    4278:	c0000637          	lui	a2,0xc0000

000000000000427c <.LBB101_142>:
    427c:	86c43423          	sd	a2,-1944(s0)
    4280:	e7043583          	ld	a1,-400(s0)
    4284:	8a843603          	ld	a2,-1880(s0)
    4288:	00b605b3          	add	a1,a2,a1
    428c:	e6843603          	ld	a2,-408(s0)
    4290:	00c585b3          	add	a1,a1,a2
    4294:	00150633          	add	a2,a0,ra
    4298:	00c585bb          	addw	a1,a1,a2
    429c:	40000637          	lui	a2,0x40000
    42a0:	8ab43423          	sd	a1,-1880(s0)
    42a4:	0005d463          	bgez	a1,42ac <.LBB101_144>
    42a8:	c0000637          	lui	a2,0xc0000

00000000000042ac <.LBB101_144>:
    42ac:	86c43023          	sd	a2,-1952(s0)
    42b0:	000015b7          	lui	a1,0x1
    42b4:	40b405b3          	sub	a1,s0,a1
    42b8:	6c85b583          	ld	a1,1736(a1) # 16c8 <.LBB101_5+0x278>
    42bc:	8b043603          	ld	a2,-1872(s0)
    42c0:	00b605b3          	add	a1,a2,a1
    42c4:	00001637          	lui	a2,0x1
    42c8:	40c40633          	sub	a2,s0,a2
    42cc:	6c063603          	ld	a2,1728(a2) # 16c0 <.LBB101_5+0x270>
    42d0:	00c585b3          	add	a1,a1,a2
    42d4:	00150633          	add	a2,a0,ra
    42d8:	00c585bb          	addw	a1,a1,a2
    42dc:	40000637          	lui	a2,0x40000
    42e0:	8ab43823          	sd	a1,-1872(s0)
    42e4:	0005d463          	bgez	a1,42ec <.LBB101_146>
    42e8:	c0000637          	lui	a2,0xc0000

00000000000042ec <.LBB101_146>:
    42ec:	84c43c23          	sd	a2,-1960(s0)
    42f0:	000015b7          	lui	a1,0x1
    42f4:	40b405b3          	sub	a1,s0,a1
    42f8:	6b85b583          	ld	a1,1720(a1) # 16b8 <.LBB101_5+0x268>
    42fc:	8b843603          	ld	a2,-1864(s0)
    4300:	00b605b3          	add	a1,a2,a1
    4304:	00001637          	lui	a2,0x1
    4308:	40c40633          	sub	a2,s0,a2
    430c:	6b063603          	ld	a2,1712(a2) # 16b0 <.LBB101_5+0x260>
    4310:	00c585b3          	add	a1,a1,a2
    4314:	00150633          	add	a2,a0,ra
    4318:	00c585bb          	addw	a1,a1,a2
    431c:	40000637          	lui	a2,0x40000
    4320:	84b43023          	sd	a1,-1984(s0)
    4324:	0005d463          	bgez	a1,432c <.LBB101_148>
    4328:	c0000637          	lui	a2,0xc0000

000000000000432c <.LBB101_148>:
    432c:	000015b7          	lui	a1,0x1
    4330:	40b405b3          	sub	a1,s0,a1
    4334:	7ec5b423          	sd	a2,2024(a1) # 17e8 <.LBB101_5+0x398>
    4338:	000015b7          	lui	a1,0x1
    433c:	40b405b3          	sub	a1,s0,a1
    4340:	6a85b583          	ld	a1,1704(a1) # 16a8 <.LBB101_5+0x258>
    4344:	8c043603          	ld	a2,-1856(s0)
    4348:	00b605b3          	add	a1,a2,a1
    434c:	00001637          	lui	a2,0x1
    4350:	40c40633          	sub	a2,s0,a2
    4354:	6a063603          	ld	a2,1696(a2) # 16a0 <.LBB101_5+0x250>
    4358:	00c585b3          	add	a1,a1,a2
    435c:	00150633          	add	a2,a0,ra
    4360:	00c585bb          	addw	a1,a1,a2
    4364:	40000637          	lui	a2,0x40000
    4368:	00001937          	lui	s2,0x1
    436c:	41240933          	sub	s2,s0,s2
    4370:	5ab93823          	sd	a1,1456(s2) # 15b0 <.LBB101_5+0x160>
    4374:	0005d463          	bgez	a1,437c <.LBB101_150>
    4378:	c0000637          	lui	a2,0xc0000

000000000000437c <.LBB101_150>:
    437c:	000015b7          	lui	a1,0x1
    4380:	40b405b3          	sub	a1,s0,a1
    4384:	5ac5b423          	sd	a2,1448(a1) # 15a8 <.LBB101_5+0x158>
    4388:	8c843583          	ld	a1,-1848(s0)
    438c:	00001637          	lui	a2,0x1
    4390:	40c40633          	sub	a2,s0,a2
    4394:	69863603          	ld	a2,1688(a2) # 1698 <.LBB101_5+0x248>
    4398:	00c585b3          	add	a1,a1,a2
    439c:	00001637          	lui	a2,0x1
    43a0:	40c40633          	sub	a2,s0,a2
    43a4:	69063603          	ld	a2,1680(a2) # 1690 <.LBB101_5+0x240>
    43a8:	00c585b3          	add	a1,a1,a2
    43ac:	00150633          	add	a2,a0,ra
    43b0:	00c585bb          	addw	a1,a1,a2
    43b4:	40000637          	lui	a2,0x40000
    43b8:	00001937          	lui	s2,0x1
    43bc:	41240933          	sub	s2,s0,s2
    43c0:	54b93823          	sd	a1,1360(s2) # 1550 <.LBB101_5+0x100>
    43c4:	0005d463          	bgez	a1,43cc <.LBB101_152>
    43c8:	c0000637          	lui	a2,0xc0000

00000000000043cc <.LBB101_152>:
    43cc:	000015b7          	lui	a1,0x1
    43d0:	40b405b3          	sub	a1,s0,a1
    43d4:	54c5b423          	sd	a2,1352(a1) # 1548 <.LBB101_5+0xf8>
    43d8:	8d043583          	ld	a1,-1840(s0)
    43dc:	00001637          	lui	a2,0x1
    43e0:	40c40633          	sub	a2,s0,a2
    43e4:	68863603          	ld	a2,1672(a2) # 1688 <.LBB101_5+0x238>
    43e8:	00c585b3          	add	a1,a1,a2
    43ec:	00001637          	lui	a2,0x1
    43f0:	40c40633          	sub	a2,s0,a2
    43f4:	6d063603          	ld	a2,1744(a2) # 16d0 <.LBB101_5+0x280>
    43f8:	00c585b3          	add	a1,a1,a2
    43fc:	00150633          	add	a2,a0,ra
    4400:	00c585bb          	addw	a1,a1,a2
    4404:	40000637          	lui	a2,0x40000
    4408:	00001937          	lui	s2,0x1
    440c:	41240933          	sub	s2,s0,s2
    4410:	4eb93c23          	sd	a1,1272(s2) # 14f8 <.LBB101_5+0xa8>
    4414:	0005d463          	bgez	a1,441c <.LBB101_154>
    4418:	c0000637          	lui	a2,0xc0000

000000000000441c <.LBB101_154>:
    441c:	000015b7          	lui	a1,0x1
    4420:	40b405b3          	sub	a1,s0,a1
    4424:	4ec5b823          	sd	a2,1264(a1) # 14f0 <.LBB101_5+0xa0>
    4428:	8d843583          	ld	a1,-1832(s0)
    442c:	eb843603          	ld	a2,-328(s0)
    4430:	00c585b3          	add	a1,a1,a2
    4434:	00001637          	lui	a2,0x1
    4438:	40c40633          	sub	a2,s0,a2
    443c:	6d863603          	ld	a2,1752(a2) # 16d8 <.LBB101_5+0x288>
    4440:	00c585b3          	add	a1,a1,a2
    4444:	00150633          	add	a2,a0,ra
    4448:	00c585bb          	addw	a1,a1,a2
    444c:	40000637          	lui	a2,0x40000
    4450:	00001937          	lui	s2,0x1
    4454:	41240933          	sub	s2,s0,s2
    4458:	48b93c23          	sd	a1,1176(s2) # 1498 <.LBB101_5+0x48>
    445c:	0005d463          	bgez	a1,4464 <.LBB101_156>
    4460:	c0000637          	lui	a2,0xc0000

0000000000004464 <.LBB101_156>:
    4464:	000015b7          	lui	a1,0x1
    4468:	40b405b3          	sub	a1,s0,a1
    446c:	48c5b823          	sd	a2,1168(a1) # 1490 <.LBB101_5+0x40>
    4470:	8e043583          	ld	a1,-1824(s0)
    4474:	ec043603          	ld	a2,-320(s0)
    4478:	00c585b3          	add	a1,a1,a2
    447c:	00001637          	lui	a2,0x1
    4480:	40c40633          	sub	a2,s0,a2
    4484:	6e063603          	ld	a2,1760(a2) # 16e0 <.LBB101_5+0x290>
    4488:	00c585b3          	add	a1,a1,a2
    448c:	00150633          	add	a2,a0,ra
    4490:	00c585bb          	addw	a1,a1,a2
    4494:	40000637          	lui	a2,0x40000
    4498:	00001937          	lui	s2,0x1
    449c:	41240933          	sub	s2,s0,s2
    44a0:	44b93023          	sd	a1,1088(s2) # 1440 <.LBB101_4+0x594>
    44a4:	0005d463          	bgez	a1,44ac <.LBB101_158>
    44a8:	c0000637          	lui	a2,0xc0000

00000000000044ac <.LBB101_158>:
    44ac:	000015b7          	lui	a1,0x1
    44b0:	40b405b3          	sub	a1,s0,a1
    44b4:	42c5bc23          	sd	a2,1080(a1) # 1438 <.LBB101_4+0x58c>
    44b8:	8e843583          	ld	a1,-1816(s0)
    44bc:	ec843603          	ld	a2,-312(s0)
    44c0:	00c585b3          	add	a1,a1,a2
    44c4:	01b585b3          	add	a1,a1,s11
    44c8:	00150633          	add	a2,a0,ra
    44cc:	00c585bb          	addw	a1,a1,a2
    44d0:	40000637          	lui	a2,0x40000
    44d4:	00001937          	lui	s2,0x1
    44d8:	41240933          	sub	s2,s0,s2
    44dc:	3eb93423          	sd	a1,1000(s2) # 13e8 <.LBB101_4+0x53c>
    44e0:	0005d463          	bgez	a1,44e8 <.LBB101_160>
    44e4:	c0000637          	lui	a2,0xc0000

00000000000044e8 <.LBB101_160>:
    44e8:	000015b7          	lui	a1,0x1
    44ec:	40b405b3          	sub	a1,s0,a1
    44f0:	3ec5b023          	sd	a2,992(a1) # 13e0 <.LBB101_4+0x534>
    44f4:	8f043583          	ld	a1,-1808(s0)
    44f8:	ed043603          	ld	a2,-304(s0)
    44fc:	00c585b3          	add	a1,a1,a2
    4500:	01a585b3          	add	a1,a1,s10
    4504:	00150633          	add	a2,a0,ra
    4508:	00c585bb          	addw	a1,a1,a2
    450c:	40000637          	lui	a2,0x40000
    4510:	00001937          	lui	s2,0x1
    4514:	41240933          	sub	s2,s0,s2
    4518:	38b93823          	sd	a1,912(s2) # 1390 <.LBB101_4+0x4e4>
    451c:	0005d463          	bgez	a1,4524 <.LBB101_162>
    4520:	c0000637          	lui	a2,0xc0000

0000000000004524 <.LBB101_162>:
    4524:	000015b7          	lui	a1,0x1
    4528:	40b405b3          	sub	a1,s0,a1
    452c:	38c5b023          	sd	a2,896(a1) # 1380 <.LBB101_4+0x4d4>
    4530:	8f843583          	ld	a1,-1800(s0)
    4534:	ed843603          	ld	a2,-296(s0)
    4538:	00c585b3          	add	a1,a1,a2
    453c:	019585b3          	add	a1,a1,s9
    4540:	00150633          	add	a2,a0,ra
    4544:	00c585bb          	addw	a1,a1,a2
    4548:	40000637          	lui	a2,0x40000
    454c:	00001937          	lui	s2,0x1
    4550:	41240933          	sub	s2,s0,s2
    4554:	32b93423          	sd	a1,808(s2) # 1328 <.LBB101_4+0x47c>
    4558:	0005d463          	bgez	a1,4560 <.LBB101_164>
    455c:	c0000637          	lui	a2,0xc0000

0000000000004560 <.LBB101_164>:
    4560:	000015b7          	lui	a1,0x1
    4564:	40b405b3          	sub	a1,s0,a1
    4568:	30c5bc23          	sd	a2,792(a1) # 1318 <.LBB101_4+0x46c>
    456c:	90043583          	ld	a1,-1792(s0)
    4570:	ee043603          	ld	a2,-288(s0)
    4574:	00c585b3          	add	a1,a1,a2
    4578:	00001637          	lui	a2,0x1
    457c:	40c40633          	sub	a2,s0,a2
    4580:	70063603          	ld	a2,1792(a2) # 1700 <.LBB101_5+0x2b0>
    4584:	00c585b3          	add	a1,a1,a2
    4588:	00150633          	add	a2,a0,ra
    458c:	00c585bb          	addw	a1,a1,a2
    4590:	40000637          	lui	a2,0x40000
    4594:	00001937          	lui	s2,0x1
    4598:	41240933          	sub	s2,s0,s2
    459c:	2cb93423          	sd	a1,712(s2) # 12c8 <.LBB101_4+0x41c>
    45a0:	0005d463          	bgez	a1,45a8 <.LBB101_166>
    45a4:	c0000637          	lui	a2,0xc0000

00000000000045a8 <.LBB101_166>:
    45a8:	000015b7          	lui	a1,0x1
    45ac:	40b405b3          	sub	a1,s0,a1
    45b0:	2ac5bc23          	sd	a2,696(a1) # 12b8 <.LBB101_4+0x40c>
    45b4:	90843583          	ld	a1,-1784(s0)
    45b8:	ee843603          	ld	a2,-280(s0)
    45bc:	00c585b3          	add	a1,a1,a2
    45c0:	017585b3          	add	a1,a1,s7
    45c4:	00150633          	add	a2,a0,ra
    45c8:	00c585bb          	addw	a1,a1,a2
    45cc:	40000637          	lui	a2,0x40000
    45d0:	00001937          	lui	s2,0x1
    45d4:	41240933          	sub	s2,s0,s2
    45d8:	26b93423          	sd	a1,616(s2) # 1268 <.LBB101_4+0x3bc>
    45dc:	0005d463          	bgez	a1,45e4 <.LBB101_168>
    45e0:	c0000637          	lui	a2,0xc0000

00000000000045e4 <.LBB101_168>:
    45e4:	000015b7          	lui	a1,0x1
    45e8:	40b405b3          	sub	a1,s0,a1
    45ec:	26c5b023          	sd	a2,608(a1) # 1260 <.LBB101_4+0x3b4>
    45f0:	91043583          	ld	a1,-1776(s0)
    45f4:	ef043603          	ld	a2,-272(s0)
    45f8:	00c585b3          	add	a1,a1,a2
    45fc:	016585b3          	add	a1,a1,s6
    4600:	00150633          	add	a2,a0,ra
    4604:	00c585bb          	addw	a1,a1,a2
    4608:	40000637          	lui	a2,0x40000
    460c:	00001937          	lui	s2,0x1
    4610:	41240933          	sub	s2,s0,s2
    4614:	1eb93c23          	sd	a1,504(s2) # 11f8 <.LBB101_4+0x34c>
    4618:	0005d463          	bgez	a1,4620 <.LBB101_170>
    461c:	c0000637          	lui	a2,0xc0000

0000000000004620 <.LBB101_170>:
    4620:	000015b7          	lui	a1,0x1
    4624:	40b405b3          	sub	a1,s0,a1
    4628:	1ec5b823          	sd	a2,496(a1) # 11f0 <.LBB101_4+0x344>
    462c:	91843583          	ld	a1,-1768(s0)
    4630:	ef843603          	ld	a2,-264(s0)
    4634:	00c585b3          	add	a1,a1,a2
    4638:	00001637          	lui	a2,0x1
    463c:	40c40633          	sub	a2,s0,a2
    4640:	71863603          	ld	a2,1816(a2) # 1718 <.LBB101_5+0x2c8>
    4644:	00c585b3          	add	a1,a1,a2
    4648:	00150633          	add	a2,a0,ra
    464c:	00c585bb          	addw	a1,a1,a2
    4650:	40000637          	lui	a2,0x40000
    4654:	00001937          	lui	s2,0x1
    4658:	41240933          	sub	s2,s0,s2
    465c:	18b93023          	sd	a1,384(s2) # 1180 <.LBB101_4+0x2d4>
    4660:	0005d463          	bgez	a1,4668 <.LBB101_172>
    4664:	c0000637          	lui	a2,0xc0000

0000000000004668 <.LBB101_172>:
    4668:	000015b7          	lui	a1,0x1
    466c:	40b405b3          	sub	a1,s0,a1
    4670:	16c5bc23          	sd	a2,376(a1) # 1178 <.LBB101_4+0x2cc>
    4674:	92043583          	ld	a1,-1760(s0)
    4678:	f0043603          	ld	a2,-256(s0)
    467c:	00c585b3          	add	a1,a1,a2
    4680:	00001637          	lui	a2,0x1
    4684:	40c40633          	sub	a2,s0,a2
    4688:	72063603          	ld	a2,1824(a2) # 1720 <.LBB101_5+0x2d0>
    468c:	00c585b3          	add	a1,a1,a2
    4690:	00150633          	add	a2,a0,ra
    4694:	00c585bb          	addw	a1,a1,a2
    4698:	40000637          	lui	a2,0x40000
    469c:	00001937          	lui	s2,0x1
    46a0:	41240933          	sub	s2,s0,s2
    46a4:	10b93823          	sd	a1,272(s2) # 1110 <.LBB101_4+0x264>
    46a8:	0005d463          	bgez	a1,46b0 <.LBB101_174>
    46ac:	c0000637          	lui	a2,0xc0000

00000000000046b0 <.LBB101_174>:
    46b0:	000015b7          	lui	a1,0x1
    46b4:	40b405b3          	sub	a1,s0,a1
    46b8:	10c5b423          	sd	a2,264(a1) # 1108 <.LBB101_4+0x25c>
    46bc:	92843583          	ld	a1,-1752(s0)
    46c0:	f0843603          	ld	a2,-248(s0)
    46c4:	00c585b3          	add	a1,a1,a2
    46c8:	00001637          	lui	a2,0x1
    46cc:	40c40633          	sub	a2,s0,a2
    46d0:	72863603          	ld	a2,1832(a2) # 1728 <.LBB101_5+0x2d8>
    46d4:	00c585b3          	add	a1,a1,a2
    46d8:	00150633          	add	a2,a0,ra
    46dc:	00c585bb          	addw	a1,a1,a2
    46e0:	40000637          	lui	a2,0x40000
    46e4:	00001937          	lui	s2,0x1
    46e8:	41240933          	sub	s2,s0,s2
    46ec:	0ab93023          	sd	a1,160(s2) # 10a0 <.LBB101_4+0x1f4>
    46f0:	0005d463          	bgez	a1,46f8 <.LBB101_176>
    46f4:	c0000637          	lui	a2,0xc0000

00000000000046f8 <.LBB101_176>:
    46f8:	000015b7          	lui	a1,0x1
    46fc:	40b405b3          	sub	a1,s0,a1
    4700:	08c5bc23          	sd	a2,152(a1) # 1098 <.LBB101_4+0x1ec>
    4704:	93043583          	ld	a1,-1744(s0)
    4708:	f3843603          	ld	a2,-200(s0)
    470c:	00c585b3          	add	a1,a1,a2
    4710:	00001637          	lui	a2,0x1
    4714:	40c40633          	sub	a2,s0,a2
    4718:	73063603          	ld	a2,1840(a2) # 1730 <.LBB101_5+0x2e0>
    471c:	00c585b3          	add	a1,a1,a2
    4720:	00150633          	add	a2,a0,ra
    4724:	00c585bb          	addw	a1,a1,a2
    4728:	40000637          	lui	a2,0x40000
    472c:	00001937          	lui	s2,0x1
    4730:	41240933          	sub	s2,s0,s2
    4734:	02b93823          	sd	a1,48(s2) # 1030 <.LBB101_4+0x184>
    4738:	0005d463          	bgez	a1,4740 <.LBB101_178>
    473c:	c0000637          	lui	a2,0xc0000

0000000000004740 <.LBB101_178>:
    4740:	000015b7          	lui	a1,0x1
    4744:	40b405b3          	sub	a1,s0,a1
    4748:	02c5b423          	sd	a2,40(a1) # 1028 <.LBB101_4+0x17c>
    474c:	93843583          	ld	a1,-1736(s0)
    4750:	f4043603          	ld	a2,-192(s0)
    4754:	00c585b3          	add	a1,a1,a2
    4758:	00001637          	lui	a2,0x1
    475c:	40c40633          	sub	a2,s0,a2
    4760:	73863603          	ld	a2,1848(a2) # 1738 <.LBB101_5+0x2e8>
    4764:	00c585b3          	add	a1,a1,a2
    4768:	00150633          	add	a2,a0,ra
    476c:	00c585bb          	addw	a1,a1,a2
    4770:	40000637          	lui	a2,0x40000
    4774:	00001937          	lui	s2,0x1
    4778:	41240933          	sub	s2,s0,s2
    477c:	fcb93023          	sd	a1,-64(s2) # fc0 <.LBB101_4+0x114>
    4780:	0005d463          	bgez	a1,4788 <.LBB101_180>
    4784:	c0000637          	lui	a2,0xc0000

0000000000004788 <.LBB101_180>:
    4788:	000015b7          	lui	a1,0x1
    478c:	40b405b3          	sub	a1,s0,a1
    4790:	fac5bc23          	sd	a2,-72(a1) # fb8 <.LBB101_4+0x10c>
    4794:	94043583          	ld	a1,-1728(s0)
    4798:	f4843603          	ld	a2,-184(s0)
    479c:	00c585b3          	add	a1,a1,a2
    47a0:	00001637          	lui	a2,0x1
    47a4:	40c40633          	sub	a2,s0,a2
    47a8:	74063603          	ld	a2,1856(a2) # 1740 <.LBB101_5+0x2f0>
    47ac:	00c585b3          	add	a1,a1,a2
    47b0:	00150633          	add	a2,a0,ra
    47b4:	00c585bb          	addw	a1,a1,a2
    47b8:	40000637          	lui	a2,0x40000
    47bc:	00001937          	lui	s2,0x1
    47c0:	41240933          	sub	s2,s0,s2
    47c4:	f4b93423          	sd	a1,-184(s2) # f48 <.LBB101_4+0x9c>
    47c8:	0005d463          	bgez	a1,47d0 <.LBB101_182>
    47cc:	c0000637          	lui	a2,0xc0000

00000000000047d0 <.LBB101_182>:
    47d0:	000015b7          	lui	a1,0x1
    47d4:	40b405b3          	sub	a1,s0,a1
    47d8:	f4c5b023          	sd	a2,-192(a1) # f40 <.LBB101_4+0x94>
    47dc:	94843583          	ld	a1,-1720(s0)
    47e0:	f5043603          	ld	a2,-176(s0)
    47e4:	00c585b3          	add	a1,a1,a2
    47e8:	00001637          	lui	a2,0x1
    47ec:	40c40633          	sub	a2,s0,a2
    47f0:	74863603          	ld	a2,1864(a2) # 1748 <.LBB101_5+0x2f8>
    47f4:	00c585b3          	add	a1,a1,a2
    47f8:	00150633          	add	a2,a0,ra
    47fc:	00c585bb          	addw	a1,a1,a2
    4800:	40000637          	lui	a2,0x40000
    4804:	00001937          	lui	s2,0x1
    4808:	41240933          	sub	s2,s0,s2
    480c:	ecb93c23          	sd	a1,-296(s2) # ed8 <.LBB101_4+0x2c>
    4810:	0005d463          	bgez	a1,4818 <.LBB101_184>
    4814:	c0000637          	lui	a2,0xc0000

0000000000004818 <.LBB101_184>:
    4818:	000015b7          	lui	a1,0x1
    481c:	40b405b3          	sub	a1,s0,a1
    4820:	ecc5b823          	sd	a2,-304(a1) # ed0 <.LBB101_4+0x24>
    4824:	95043583          	ld	a1,-1712(s0)
    4828:	f5843603          	ld	a2,-168(s0)
    482c:	00c585b3          	add	a1,a1,a2
    4830:	00001637          	lui	a2,0x1
    4834:	40c40633          	sub	a2,s0,a2
    4838:	75063603          	ld	a2,1872(a2) # 1750 <.LBB101_5+0x300>
    483c:	00c585b3          	add	a1,a1,a2
    4840:	00150633          	add	a2,a0,ra
    4844:	00c585bb          	addw	a1,a1,a2
    4848:	40000637          	lui	a2,0x40000
    484c:	00001937          	lui	s2,0x1
    4850:	41240933          	sub	s2,s0,s2
    4854:	e6b93023          	sd	a1,-416(s2) # e60 <.LBB101_3+0xc0c>
    4858:	0005d463          	bgez	a1,4860 <.LBB101_186>
    485c:	c0000637          	lui	a2,0xc0000

0000000000004860 <.LBB101_186>:
    4860:	000015b7          	lui	a1,0x1
    4864:	40b405b3          	sub	a1,s0,a1
    4868:	e4c5bc23          	sd	a2,-424(a1) # e58 <.LBB101_3+0xc04>
    486c:	95843583          	ld	a1,-1704(s0)
    4870:	f6043603          	ld	a2,-160(s0)
    4874:	00c585b3          	add	a1,a1,a2
    4878:	00001637          	lui	a2,0x1
    487c:	40c40633          	sub	a2,s0,a2
    4880:	75863603          	ld	a2,1880(a2) # 1758 <.LBB101_5+0x308>
    4884:	00c585b3          	add	a1,a1,a2
    4888:	00150633          	add	a2,a0,ra
    488c:	00c585bb          	addw	a1,a1,a2
    4890:	40000637          	lui	a2,0x40000
    4894:	00001937          	lui	s2,0x1
    4898:	41240933          	sub	s2,s0,s2
    489c:	deb93823          	sd	a1,-528(s2) # df0 <.LBB101_3+0xb9c>
    48a0:	0005d463          	bgez	a1,48a8 <.LBB101_188>
    48a4:	c0000637          	lui	a2,0xc0000

00000000000048a8 <.LBB101_188>:
    48a8:	000015b7          	lui	a1,0x1
    48ac:	40b405b3          	sub	a1,s0,a1
    48b0:	dec5b423          	sd	a2,-536(a1) # de8 <.LBB101_3+0xb94>
    48b4:	96043583          	ld	a1,-1696(s0)
    48b8:	f6843603          	ld	a2,-152(s0)
    48bc:	00c585b3          	add	a1,a1,a2
    48c0:	013585b3          	add	a1,a1,s3
    48c4:	00150633          	add	a2,a0,ra
    48c8:	00c585bb          	addw	a1,a1,a2
    48cc:	40000637          	lui	a2,0x40000
    48d0:	00001937          	lui	s2,0x1
    48d4:	41240933          	sub	s2,s0,s2
    48d8:	d6b93c23          	sd	a1,-648(s2) # d78 <.LBB101_3+0xb24>
    48dc:	0005d463          	bgez	a1,48e4 <.LBB101_190>
    48e0:	c0000637          	lui	a2,0xc0000

00000000000048e4 <.LBB101_190>:
    48e4:	000015b7          	lui	a1,0x1
    48e8:	40b405b3          	sub	a1,s0,a1
    48ec:	d6c5b823          	sd	a2,-656(a1) # d70 <.LBB101_3+0xb1c>
    48f0:	96843583          	ld	a1,-1688(s0)
    48f4:	f7043603          	ld	a2,-144(s0)
    48f8:	00c585b3          	add	a1,a1,a2
    48fc:	01f585b3          	add	a1,a1,t6
    4900:	00150633          	add	a2,a0,ra
    4904:	00c585bb          	addw	a1,a1,a2
    4908:	40000637          	lui	a2,0x40000
    490c:	00001937          	lui	s2,0x1
    4910:	41240933          	sub	s2,s0,s2
    4914:	d0b93023          	sd	a1,-768(s2) # d00 <.LBB101_3+0xaac>
    4918:	0005d463          	bgez	a1,4920 <.LBB101_192>
    491c:	c0000637          	lui	a2,0xc0000

0000000000004920 <.LBB101_192>:
    4920:	000015b7          	lui	a1,0x1
    4924:	40b405b3          	sub	a1,s0,a1
    4928:	cec5bc23          	sd	a2,-776(a1) # cf8 <.LBB101_3+0xaa4>
    492c:	f7843583          	ld	a1,-136(s0)
    4930:	00ba85b3          	add	a1,s5,a1
    4934:	00001637          	lui	a2,0x1
    4938:	40c40633          	sub	a2,s0,a2
    493c:	77063a83          	ld	s5,1904(a2) # 1770 <.LBB101_5+0x320>
    4940:	015585b3          	add	a1,a1,s5
    4944:	00150633          	add	a2,a0,ra
    4948:	00c5863b          	addw	a2,a1,a2
    494c:	400005b7          	lui	a1,0x40000
    4950:	00001937          	lui	s2,0x1
    4954:	41240933          	sub	s2,s0,s2
    4958:	c0c93423          	sd	a2,-1016(s2) # c08 <.LBB101_3+0x9b4>
    495c:	00065463          	bgez	a2,4964 <.LBB101_194>
    4960:	c00005b7          	lui	a1,0xc0000

0000000000004964 <.LBB101_194>:
    4964:	00001637          	lui	a2,0x1
    4968:	40c40633          	sub	a2,s0,a2
    496c:	c8b63023          	sd	a1,-896(a2) # c80 <.LBB101_3+0xa2c>
    4970:	f8043583          	ld	a1,-128(s0)
    4974:	00b705b3          	add	a1,a4,a1
    4978:	007585b3          	add	a1,a1,t2
    497c:	00150733          	add	a4,a0,ra
    4980:	00e5873b          	addw	a4,a1,a4
    4984:	400005b7          	lui	a1,0x40000
    4988:	00075463          	bgez	a4,4990 <.LBB101_196>
    498c:	c00005b7          	lui	a1,0xc0000

0000000000004990 <.LBB101_196>:
    4990:	00001637          	lui	a2,0x1
    4994:	40c40633          	sub	a2,s0,a2
    4998:	c2b63c23          	sd	a1,-968(a2) # c38 <.LBB101_3+0x9e4>
    499c:	f8843583          	ld	a1,-120(s0)
    49a0:	00b805b3          	add	a1,a6,a1
    49a4:	014585b3          	add	a1,a1,s4
    49a8:	00150533          	add	a0,a0,ra
    49ac:	00a5863b          	addw	a2,a1,a0
    49b0:	40000537          	lui	a0,0x40000
    49b4:	00065463          	bgez	a2,49bc <.LBB101_198>
    49b8:	c0000537          	lui	a0,0xc0000

00000000000049bc <.LBB101_198>:
    49bc:	000015b7          	lui	a1,0x1
    49c0:	40b405b3          	sub	a1,s0,a1
    49c4:	bca5b823          	sd	a0,-1072(a1) # bd0 <.LBB101_3+0x97c>
    49c8:	00001537          	lui	a0,0x1
    49cc:	40a40533          	sub	a0,s0,a0
    49d0:	5a053803          	ld	a6,1440(a0) # 15a0 <.LBB101_5+0x150>
    49d4:	00481913          	slli	s2,a6,0x4
    49d8:	98843503          	ld	a0,-1656(s0)
    49dc:	eb043583          	ld	a1,-336(s0)
    49e0:	00b50533          	add	a0,a0,a1
    49e4:	01090833          	add	a6,s2,a6
    49e8:	ea843583          	ld	a1,-344(s0)
    49ec:	010585b3          	add	a1,a1,a6
    49f0:	00b50533          	add	a0,a0,a1
    49f4:	0015053b          	addw	a0,a0,ra
    49f8:	400005b7          	lui	a1,0x40000
    49fc:	98a43423          	sd	a0,-1656(s0)
    4a00:	00055463          	bgez	a0,4a08 <.LBB101_200>
    4a04:	c00005b7          	lui	a1,0xc0000

0000000000004a08 <.LBB101_200>:
    4a08:	98b43023          	sd	a1,-1664(s0)
    4a0c:	99043503          	ld	a0,-1648(s0)
    4a10:	ea043583          	ld	a1,-352(s0)
    4a14:	00b50533          	add	a0,a0,a1
    4a18:	e9843583          	ld	a1,-360(s0)
    4a1c:	010585b3          	add	a1,a1,a6
    4a20:	00b50533          	add	a0,a0,a1
    4a24:	0015053b          	addw	a0,a0,ra
    4a28:	400005b7          	lui	a1,0x40000
    4a2c:	98a43823          	sd	a0,-1648(s0)
    4a30:	00055463          	bgez	a0,4a38 <.LBB101_202>
    4a34:	c00005b7          	lui	a1,0xc0000

0000000000004a38 <.LBB101_202>:
    4a38:	96b43c23          	sd	a1,-1672(s0)
    4a3c:	99843503          	ld	a0,-1640(s0)
    4a40:	e9043583          	ld	a1,-368(s0)
    4a44:	00b50533          	add	a0,a0,a1
    4a48:	e8843583          	ld	a1,-376(s0)
    4a4c:	010585b3          	add	a1,a1,a6
    4a50:	00b50533          	add	a0,a0,a1
    4a54:	0015053b          	addw	a0,a0,ra
    4a58:	400005b7          	lui	a1,0x40000
    4a5c:	98a43c23          	sd	a0,-1640(s0)
    4a60:	00055463          	bgez	a0,4a68 <.LBB101_204>
    4a64:	c00005b7          	lui	a1,0xc0000

0000000000004a68 <.LBB101_204>:
    4a68:	96b43823          	sd	a1,-1680(s0)
    4a6c:	9a043503          	ld	a0,-1632(s0)
    4a70:	e8043583          	ld	a1,-384(s0)
    4a74:	00b50533          	add	a0,a0,a1
    4a78:	e7843583          	ld	a1,-392(s0)
    4a7c:	010585b3          	add	a1,a1,a6
    4a80:	00b50533          	add	a0,a0,a1
    4a84:	0015053b          	addw	a0,a0,ra
    4a88:	400005b7          	lui	a1,0x40000
    4a8c:	96a43423          	sd	a0,-1688(s0)
    4a90:	00055463          	bgez	a0,4a98 <.LBB101_206>
    4a94:	c00005b7          	lui	a1,0xc0000

0000000000004a98 <.LBB101_206>:
    4a98:	96b43023          	sd	a1,-1696(s0)
    4a9c:	9a843503          	ld	a0,-1624(s0)
    4aa0:	e7043583          	ld	a1,-400(s0)
    4aa4:	00b50533          	add	a0,a0,a1
    4aa8:	e6843583          	ld	a1,-408(s0)
    4aac:	010585b3          	add	a1,a1,a6
    4ab0:	00b50533          	add	a0,a0,a1
    4ab4:	0015053b          	addw	a0,a0,ra
    4ab8:	400005b7          	lui	a1,0x40000
    4abc:	92a43c23          	sd	a0,-1736(s0)
    4ac0:	00055463          	bgez	a0,4ac8 <.LBB101_208>
    4ac4:	c00005b7          	lui	a1,0xc0000

0000000000004ac8 <.LBB101_208>:
    4ac8:	92b43423          	sd	a1,-1752(s0)
    4acc:	9b043503          	ld	a0,-1616(s0)
    4ad0:	000015b7          	lui	a1,0x1
    4ad4:	40b405b3          	sub	a1,s0,a1
    4ad8:	6c85b583          	ld	a1,1736(a1) # 16c8 <.LBB101_5+0x278>
    4adc:	00b50533          	add	a0,a0,a1
    4ae0:	000015b7          	lui	a1,0x1
    4ae4:	40b405b3          	sub	a1,s0,a1
    4ae8:	6c05b583          	ld	a1,1728(a1) # 16c0 <.LBB101_5+0x270>
    4aec:	010585b3          	add	a1,a1,a6
    4af0:	00b50533          	add	a0,a0,a1
    4af4:	0015053b          	addw	a0,a0,ra
    4af8:	400005b7          	lui	a1,0x40000
    4afc:	8ca43c23          	sd	a0,-1832(s0)
    4b00:	00055463          	bgez	a0,4b08 <.LBB101_210>
    4b04:	c00005b7          	lui	a1,0xc0000

0000000000004b08 <.LBB101_210>:
    4b08:	8cb43823          	sd	a1,-1840(s0)
    4b0c:	9b843503          	ld	a0,-1608(s0)
    4b10:	000015b7          	lui	a1,0x1
    4b14:	40b405b3          	sub	a1,s0,a1
    4b18:	6b85b583          	ld	a1,1720(a1) # 16b8 <.LBB101_5+0x268>
    4b1c:	00b50533          	add	a0,a0,a1
    4b20:	000015b7          	lui	a1,0x1
    4b24:	40b405b3          	sub	a1,s0,a1
    4b28:	6b05b583          	ld	a1,1712(a1) # 16b0 <.LBB101_5+0x260>
    4b2c:	010585b3          	add	a1,a1,a6
    4b30:	00b50533          	add	a0,a0,a1
    4b34:	0015053b          	addw	a0,a0,ra
    4b38:	400005b7          	lui	a1,0x40000
    4b3c:	00001937          	lui	s2,0x1
    4b40:	41240933          	sub	s2,s0,s2
    4b44:	7ea93023          	sd	a0,2016(s2) # 17e0 <.LBB101_5+0x390>
    4b48:	00055463          	bgez	a0,4b50 <.LBB101_212>
    4b4c:	c00005b7          	lui	a1,0xc0000

0000000000004b50 <.LBB101_212>:
    4b50:	00001537          	lui	a0,0x1
    4b54:	40a40533          	sub	a0,s0,a0
    4b58:	7cb53c23          	sd	a1,2008(a0) # 17d8 <.LBB101_5+0x388>
    4b5c:	9c043503          	ld	a0,-1600(s0)
    4b60:	000015b7          	lui	a1,0x1
    4b64:	40b405b3          	sub	a1,s0,a1
    4b68:	6a85b583          	ld	a1,1704(a1) # 16a8 <.LBB101_5+0x258>
    4b6c:	00b50533          	add	a0,a0,a1
    4b70:	000015b7          	lui	a1,0x1
    4b74:	40b405b3          	sub	a1,s0,a1
    4b78:	6a05b583          	ld	a1,1696(a1) # 16a0 <.LBB101_5+0x250>
    4b7c:	010585b3          	add	a1,a1,a6
    4b80:	00b50533          	add	a0,a0,a1
    4b84:	0015053b          	addw	a0,a0,ra
    4b88:	400005b7          	lui	a1,0x40000
    4b8c:	00001937          	lui	s2,0x1
    4b90:	41240933          	sub	s2,s0,s2
    4b94:	5aa93023          	sd	a0,1440(s2) # 15a0 <.LBB101_5+0x150>
    4b98:	00055463          	bgez	a0,4ba0 <.LBB101_214>
    4b9c:	c00005b7          	lui	a1,0xc0000

0000000000004ba0 <.LBB101_214>:
    4ba0:	00001537          	lui	a0,0x1
    4ba4:	40a40533          	sub	a0,s0,a0
    4ba8:	58b53c23          	sd	a1,1432(a0) # 1598 <.LBB101_5+0x148>
    4bac:	9c843503          	ld	a0,-1592(s0)
    4bb0:	000015b7          	lui	a1,0x1
    4bb4:	40b405b3          	sub	a1,s0,a1
    4bb8:	6985b583          	ld	a1,1688(a1) # 1698 <.LBB101_5+0x248>
    4bbc:	00b50533          	add	a0,a0,a1
    4bc0:	000015b7          	lui	a1,0x1
    4bc4:	40b405b3          	sub	a1,s0,a1
    4bc8:	6905b583          	ld	a1,1680(a1) # 1690 <.LBB101_5+0x240>
    4bcc:	010585b3          	add	a1,a1,a6
    4bd0:	00b50533          	add	a0,a0,a1
    4bd4:	0015053b          	addw	a0,a0,ra
    4bd8:	400005b7          	lui	a1,0x40000
    4bdc:	9ca43423          	sd	a0,-1592(s0)
    4be0:	00055463          	bgez	a0,4be8 <.LBB101_216>
    4be4:	c00005b7          	lui	a1,0xc0000

0000000000004be8 <.LBB101_216>:
    4be8:	00001537          	lui	a0,0x1
    4bec:	40a40533          	sub	a0,s0,a0
    4bf0:	54b53023          	sd	a1,1344(a0) # 1540 <.LBB101_5+0xf0>
    4bf4:	9d043503          	ld	a0,-1584(s0)
    4bf8:	000015b7          	lui	a1,0x1
    4bfc:	40b405b3          	sub	a1,s0,a1
    4c00:	6885b583          	ld	a1,1672(a1) # 1688 <.LBB101_5+0x238>
    4c04:	00b50533          	add	a0,a0,a1
    4c08:	000015b7          	lui	a1,0x1
    4c0c:	40b405b3          	sub	a1,s0,a1
    4c10:	6d05b583          	ld	a1,1744(a1) # 16d0 <.LBB101_5+0x280>
    4c14:	010585b3          	add	a1,a1,a6
    4c18:	00b50533          	add	a0,a0,a1
    4c1c:	0015053b          	addw	a0,a0,ra
    4c20:	400005b7          	lui	a1,0x40000
    4c24:	00001937          	lui	s2,0x1
    4c28:	41240933          	sub	s2,s0,s2
    4c2c:	4ea93423          	sd	a0,1256(s2) # 14e8 <.LBB101_5+0x98>
    4c30:	00055463          	bgez	a0,4c38 <.LBB101_218>
    4c34:	c00005b7          	lui	a1,0xc0000

0000000000004c38 <.LBB101_218>:
    4c38:	00001537          	lui	a0,0x1
    4c3c:	40a40533          	sub	a0,s0,a0
    4c40:	4eb53023          	sd	a1,1248(a0) # 14e0 <.LBB101_5+0x90>
    4c44:	9d843503          	ld	a0,-1576(s0)
    4c48:	eb843583          	ld	a1,-328(s0)
    4c4c:	00b50533          	add	a0,a0,a1
    4c50:	000015b7          	lui	a1,0x1
    4c54:	40b405b3          	sub	a1,s0,a1
    4c58:	6d85b583          	ld	a1,1752(a1) # 16d8 <.LBB101_5+0x288>
    4c5c:	010585b3          	add	a1,a1,a6
    4c60:	00b50533          	add	a0,a0,a1
    4c64:	0015053b          	addw	a0,a0,ra
    4c68:	400005b7          	lui	a1,0x40000
    4c6c:	9ca43c23          	sd	a0,-1576(s0)
    4c70:	00055463          	bgez	a0,4c78 <.LBB101_220>
    4c74:	c00005b7          	lui	a1,0xc0000

0000000000004c78 <.LBB101_220>:
    4c78:	00001537          	lui	a0,0x1
    4c7c:	40a40533          	sub	a0,s0,a0
    4c80:	48b53423          	sd	a1,1160(a0) # 1488 <.LBB101_5+0x38>
    4c84:	9e043503          	ld	a0,-1568(s0)
    4c88:	ec043583          	ld	a1,-320(s0)
    4c8c:	00b50533          	add	a0,a0,a1
    4c90:	000015b7          	lui	a1,0x1
    4c94:	40b405b3          	sub	a1,s0,a1
    4c98:	6e05b583          	ld	a1,1760(a1) # 16e0 <.LBB101_5+0x290>
    4c9c:	010585b3          	add	a1,a1,a6
    4ca0:	00b50533          	add	a0,a0,a1
    4ca4:	0015053b          	addw	a0,a0,ra
    4ca8:	400005b7          	lui	a1,0x40000
    4cac:	9ea43023          	sd	a0,-1568(s0)
    4cb0:	00055463          	bgez	a0,4cb8 <.LBB101_222>
    4cb4:	c00005b7          	lui	a1,0xc0000

0000000000004cb8 <.LBB101_222>:
    4cb8:	00001537          	lui	a0,0x1
    4cbc:	40a40533          	sub	a0,s0,a0
    4cc0:	42b53823          	sd	a1,1072(a0) # 1430 <.LBB101_4+0x584>
    4cc4:	9e843503          	ld	a0,-1560(s0)
    4cc8:	ec843583          	ld	a1,-312(s0)
    4ccc:	00b50533          	add	a0,a0,a1
    4cd0:	010d85b3          	add	a1,s11,a6
    4cd4:	00b50533          	add	a0,a0,a1
    4cd8:	0015053b          	addw	a0,a0,ra
    4cdc:	400005b7          	lui	a1,0x40000
    4ce0:	9ea43423          	sd	a0,-1560(s0)
    4ce4:	00055463          	bgez	a0,4cec <.LBB101_224>
    4ce8:	c00005b7          	lui	a1,0xc0000

0000000000004cec <.LBB101_224>:
    4cec:	00001537          	lui	a0,0x1
    4cf0:	40a40533          	sub	a0,s0,a0
    4cf4:	3cb53c23          	sd	a1,984(a0) # 13d8 <.LBB101_4+0x52c>
    4cf8:	9f043503          	ld	a0,-1552(s0)
    4cfc:	ed043583          	ld	a1,-304(s0)
    4d00:	00b50533          	add	a0,a0,a1
    4d04:	010d05b3          	add	a1,s10,a6
    4d08:	00b50533          	add	a0,a0,a1
    4d0c:	0015053b          	addw	a0,a0,ra
    4d10:	400005b7          	lui	a1,0x40000
    4d14:	9ea43823          	sd	a0,-1552(s0)
    4d18:	00055463          	bgez	a0,4d20 <.LBB101_226>
    4d1c:	c00005b7          	lui	a1,0xc0000

0000000000004d20 <.LBB101_226>:
    4d20:	00001537          	lui	a0,0x1
    4d24:	40a40533          	sub	a0,s0,a0
    4d28:	36b53c23          	sd	a1,888(a0) # 1378 <.LBB101_4+0x4cc>
    4d2c:	9f843503          	ld	a0,-1544(s0)
    4d30:	ed843583          	ld	a1,-296(s0)
    4d34:	00b50533          	add	a0,a0,a1
    4d38:	010c85b3          	add	a1,s9,a6
    4d3c:	00b50533          	add	a0,a0,a1
    4d40:	0015053b          	addw	a0,a0,ra
    4d44:	400005b7          	lui	a1,0x40000
    4d48:	9ea43c23          	sd	a0,-1544(s0)
    4d4c:	00055463          	bgez	a0,4d54 <.LBB101_228>
    4d50:	c00005b7          	lui	a1,0xc0000

0000000000004d54 <.LBB101_228>:
    4d54:	00001537          	lui	a0,0x1
    4d58:	40a40533          	sub	a0,s0,a0
    4d5c:	30b53823          	sd	a1,784(a0) # 1310 <.LBB101_4+0x464>
    4d60:	a0043503          	ld	a0,-1536(s0)
    4d64:	ee043583          	ld	a1,-288(s0)
    4d68:	00b50533          	add	a0,a0,a1
    4d6c:	000015b7          	lui	a1,0x1
    4d70:	40b405b3          	sub	a1,s0,a1
    4d74:	7005b583          	ld	a1,1792(a1) # 1700 <.LBB101_5+0x2b0>
    4d78:	010585b3          	add	a1,a1,a6
    4d7c:	00b50533          	add	a0,a0,a1
    4d80:	0015053b          	addw	a0,a0,ra
    4d84:	400005b7          	lui	a1,0x40000
    4d88:	a0a43023          	sd	a0,-1536(s0)
    4d8c:	00055463          	bgez	a0,4d94 <.LBB101_230>
    4d90:	c00005b7          	lui	a1,0xc0000

0000000000004d94 <.LBB101_230>:
    4d94:	00001537          	lui	a0,0x1
    4d98:	40a40533          	sub	a0,s0,a0
    4d9c:	2ab53423          	sd	a1,680(a0) # 12a8 <.LBB101_4+0x3fc>
    4da0:	a0843503          	ld	a0,-1528(s0)
    4da4:	ee843583          	ld	a1,-280(s0)
    4da8:	00b50533          	add	a0,a0,a1
    4dac:	010b85b3          	add	a1,s7,a6
    4db0:	00b50533          	add	a0,a0,a1
    4db4:	0015053b          	addw	a0,a0,ra
    4db8:	400005b7          	lui	a1,0x40000
    4dbc:	a0a43423          	sd	a0,-1528(s0)
    4dc0:	00055463          	bgez	a0,4dc8 <.LBB101_232>
    4dc4:	c00005b7          	lui	a1,0xc0000

0000000000004dc8 <.LBB101_232>:
    4dc8:	00001537          	lui	a0,0x1
    4dcc:	40a40533          	sub	a0,s0,a0
    4dd0:	24b53423          	sd	a1,584(a0) # 1248 <.LBB101_4+0x39c>
    4dd4:	a1043503          	ld	a0,-1520(s0)
    4dd8:	ef043583          	ld	a1,-272(s0)
    4ddc:	00b50533          	add	a0,a0,a1
    4de0:	010b05b3          	add	a1,s6,a6
    4de4:	00b50533          	add	a0,a0,a1
    4de8:	0015053b          	addw	a0,a0,ra
    4dec:	400005b7          	lui	a1,0x40000
    4df0:	00001937          	lui	s2,0x1
    4df4:	41240933          	sub	s2,s0,s2
    4df8:	1ea93423          	sd	a0,488(s2) # 11e8 <.LBB101_4+0x33c>
    4dfc:	00055463          	bgez	a0,4e04 <.LBB101_234>
    4e00:	c00005b7          	lui	a1,0xc0000

0000000000004e04 <.LBB101_234>:
    4e04:	00001537          	lui	a0,0x1
    4e08:	40a40533          	sub	a0,s0,a0
    4e0c:	1cb53c23          	sd	a1,472(a0) # 11d8 <.LBB101_4+0x32c>
    4e10:	a1843503          	ld	a0,-1512(s0)
    4e14:	ef843583          	ld	a1,-264(s0)
    4e18:	00b50533          	add	a0,a0,a1
    4e1c:	000015b7          	lui	a1,0x1
    4e20:	40b405b3          	sub	a1,s0,a1
    4e24:	7185b583          	ld	a1,1816(a1) # 1718 <.LBB101_5+0x2c8>
    4e28:	010585b3          	add	a1,a1,a6
    4e2c:	00b50533          	add	a0,a0,a1
    4e30:	0015053b          	addw	a0,a0,ra
    4e34:	400005b7          	lui	a1,0x40000
    4e38:	00001937          	lui	s2,0x1
    4e3c:	41240933          	sub	s2,s0,s2
    4e40:	16a93823          	sd	a0,368(s2) # 1170 <.LBB101_4+0x2c4>
    4e44:	00055463          	bgez	a0,4e4c <.LBB101_236>
    4e48:	c00005b7          	lui	a1,0xc0000

0000000000004e4c <.LBB101_236>:
    4e4c:	00001537          	lui	a0,0x1
    4e50:	40a40533          	sub	a0,s0,a0
    4e54:	16b53423          	sd	a1,360(a0) # 1168 <.LBB101_4+0x2bc>
    4e58:	a2043503          	ld	a0,-1504(s0)
    4e5c:	f0043583          	ld	a1,-256(s0)
    4e60:	00b50533          	add	a0,a0,a1
    4e64:	000015b7          	lui	a1,0x1
    4e68:	40b405b3          	sub	a1,s0,a1
    4e6c:	7205b583          	ld	a1,1824(a1) # 1720 <.LBB101_5+0x2d0>
    4e70:	010585b3          	add	a1,a1,a6
    4e74:	00b50533          	add	a0,a0,a1
    4e78:	0015053b          	addw	a0,a0,ra
    4e7c:	400005b7          	lui	a1,0x40000
    4e80:	00001937          	lui	s2,0x1
    4e84:	41240933          	sub	s2,s0,s2
    4e88:	10a93023          	sd	a0,256(s2) # 1100 <.LBB101_4+0x254>
    4e8c:	00055463          	bgez	a0,4e94 <.LBB101_238>
    4e90:	c00005b7          	lui	a1,0xc0000

0000000000004e94 <.LBB101_238>:
    4e94:	00001537          	lui	a0,0x1
    4e98:	40a40533          	sub	a0,s0,a0
    4e9c:	0eb53c23          	sd	a1,248(a0) # 10f8 <.LBB101_4+0x24c>
    4ea0:	a2843503          	ld	a0,-1496(s0)
    4ea4:	f0843583          	ld	a1,-248(s0)
    4ea8:	00b50533          	add	a0,a0,a1
    4eac:	000015b7          	lui	a1,0x1
    4eb0:	40b405b3          	sub	a1,s0,a1
    4eb4:	7285b583          	ld	a1,1832(a1) # 1728 <.LBB101_5+0x2d8>
    4eb8:	010585b3          	add	a1,a1,a6
    4ebc:	00b50533          	add	a0,a0,a1
    4ec0:	0015053b          	addw	a0,a0,ra
    4ec4:	400005b7          	lui	a1,0x40000
    4ec8:	00001937          	lui	s2,0x1
    4ecc:	41240933          	sub	s2,s0,s2
    4ed0:	08a93823          	sd	a0,144(s2) # 1090 <.LBB101_4+0x1e4>
    4ed4:	00055463          	bgez	a0,4edc <.LBB101_240>
    4ed8:	c00005b7          	lui	a1,0xc0000

0000000000004edc <.LBB101_240>:
    4edc:	00001537          	lui	a0,0x1
    4ee0:	40a40533          	sub	a0,s0,a0
    4ee4:	08b53423          	sd	a1,136(a0) # 1088 <.LBB101_4+0x1dc>
    4ee8:	a3043503          	ld	a0,-1488(s0)
    4eec:	f3843583          	ld	a1,-200(s0)
    4ef0:	00b50533          	add	a0,a0,a1
    4ef4:	000015b7          	lui	a1,0x1
    4ef8:	40b405b3          	sub	a1,s0,a1
    4efc:	7305b583          	ld	a1,1840(a1) # 1730 <.LBB101_5+0x2e0>
    4f00:	010585b3          	add	a1,a1,a6
    4f04:	00b50533          	add	a0,a0,a1
    4f08:	0015053b          	addw	a0,a0,ra
    4f0c:	400005b7          	lui	a1,0x40000
    4f10:	00001937          	lui	s2,0x1
    4f14:	41240933          	sub	s2,s0,s2
    4f18:	02a93023          	sd	a0,32(s2) # 1020 <.LBB101_4+0x174>
    4f1c:	00055463          	bgez	a0,4f24 <.LBB101_242>
    4f20:	c00005b7          	lui	a1,0xc0000

0000000000004f24 <.LBB101_242>:
    4f24:	00001537          	lui	a0,0x1
    4f28:	40a40533          	sub	a0,s0,a0
    4f2c:	00b53c23          	sd	a1,24(a0) # 1018 <.LBB101_4+0x16c>
    4f30:	a3843503          	ld	a0,-1480(s0)
    4f34:	f4043583          	ld	a1,-192(s0)
    4f38:	00b50533          	add	a0,a0,a1
    4f3c:	000015b7          	lui	a1,0x1
    4f40:	40b405b3          	sub	a1,s0,a1
    4f44:	7385b583          	ld	a1,1848(a1) # 1738 <.LBB101_5+0x2e8>
    4f48:	010585b3          	add	a1,a1,a6
    4f4c:	00b50533          	add	a0,a0,a1
    4f50:	0015053b          	addw	a0,a0,ra
    4f54:	400005b7          	lui	a1,0x40000
    4f58:	00001937          	lui	s2,0x1
    4f5c:	41240933          	sub	s2,s0,s2
    4f60:	faa93823          	sd	a0,-80(s2) # fb0 <.LBB101_4+0x104>
    4f64:	00055463          	bgez	a0,4f6c <.LBB101_244>
    4f68:	c00005b7          	lui	a1,0xc0000

0000000000004f6c <.LBB101_244>:
    4f6c:	00001537          	lui	a0,0x1
    4f70:	40a40533          	sub	a0,s0,a0
    4f74:	fab53423          	sd	a1,-88(a0) # fa8 <.LBB101_4+0xfc>
    4f78:	a4043503          	ld	a0,-1472(s0)
    4f7c:	f4843583          	ld	a1,-184(s0)
    4f80:	00b50533          	add	a0,a0,a1
    4f84:	000015b7          	lui	a1,0x1
    4f88:	40b405b3          	sub	a1,s0,a1
    4f8c:	7405b583          	ld	a1,1856(a1) # 1740 <.LBB101_5+0x2f0>
    4f90:	010585b3          	add	a1,a1,a6
    4f94:	00b50533          	add	a0,a0,a1
    4f98:	0015053b          	addw	a0,a0,ra
    4f9c:	400005b7          	lui	a1,0x40000
    4fa0:	00001937          	lui	s2,0x1
    4fa4:	41240933          	sub	s2,s0,s2
    4fa8:	f2a93c23          	sd	a0,-200(s2) # f38 <.LBB101_4+0x8c>
    4fac:	00055463          	bgez	a0,4fb4 <.LBB101_246>
    4fb0:	c00005b7          	lui	a1,0xc0000

0000000000004fb4 <.LBB101_246>:
    4fb4:	00001537          	lui	a0,0x1
    4fb8:	40a40533          	sub	a0,s0,a0
    4fbc:	f2b53823          	sd	a1,-208(a0) # f30 <.LBB101_4+0x84>
    4fc0:	a4843503          	ld	a0,-1464(s0)
    4fc4:	f5043583          	ld	a1,-176(s0)
    4fc8:	00b50533          	add	a0,a0,a1
    4fcc:	000015b7          	lui	a1,0x1
    4fd0:	40b405b3          	sub	a1,s0,a1
    4fd4:	7485b583          	ld	a1,1864(a1) # 1748 <.LBB101_5+0x2f8>
    4fd8:	010585b3          	add	a1,a1,a6
    4fdc:	00b50533          	add	a0,a0,a1
    4fe0:	0015053b          	addw	a0,a0,ra
    4fe4:	400005b7          	lui	a1,0x40000
    4fe8:	00001937          	lui	s2,0x1
    4fec:	41240933          	sub	s2,s0,s2
    4ff0:	eca93423          	sd	a0,-312(s2) # ec8 <.LBB101_4+0x1c>
    4ff4:	00055463          	bgez	a0,4ffc <.LBB101_248>
    4ff8:	c00005b7          	lui	a1,0xc0000

0000000000004ffc <.LBB101_248>:
    4ffc:	00001537          	lui	a0,0x1
    5000:	40a40533          	sub	a0,s0,a0
    5004:	ecb53023          	sd	a1,-320(a0) # ec0 <.LBB101_4+0x14>
    5008:	a5043503          	ld	a0,-1456(s0)
    500c:	f5843583          	ld	a1,-168(s0)
    5010:	00b50533          	add	a0,a0,a1
    5014:	000015b7          	lui	a1,0x1
    5018:	40b405b3          	sub	a1,s0,a1
    501c:	7505b583          	ld	a1,1872(a1) # 1750 <.LBB101_5+0x300>
    5020:	010585b3          	add	a1,a1,a6
    5024:	00b50533          	add	a0,a0,a1
    5028:	0015053b          	addw	a0,a0,ra
    502c:	400005b7          	lui	a1,0x40000
    5030:	00001937          	lui	s2,0x1
    5034:	41240933          	sub	s2,s0,s2
    5038:	e4a93823          	sd	a0,-432(s2) # e50 <.LBB101_3+0xbfc>
    503c:	00055463          	bgez	a0,5044 <.LBB101_250>
    5040:	c00005b7          	lui	a1,0xc0000

0000000000005044 <.LBB101_250>:
    5044:	00001537          	lui	a0,0x1
    5048:	40a40533          	sub	a0,s0,a0
    504c:	e4b53423          	sd	a1,-440(a0) # e48 <.LBB101_3+0xbf4>
    5050:	a5843503          	ld	a0,-1448(s0)
    5054:	f6043583          	ld	a1,-160(s0)
    5058:	00b50533          	add	a0,a0,a1
    505c:	000015b7          	lui	a1,0x1
    5060:	40b405b3          	sub	a1,s0,a1
    5064:	7585b583          	ld	a1,1880(a1) # 1758 <.LBB101_5+0x308>
    5068:	010585b3          	add	a1,a1,a6
    506c:	00b50533          	add	a0,a0,a1
    5070:	0015053b          	addw	a0,a0,ra
    5074:	400005b7          	lui	a1,0x40000
    5078:	00001937          	lui	s2,0x1
    507c:	41240933          	sub	s2,s0,s2
    5080:	dea93023          	sd	a0,-544(s2) # de0 <.LBB101_3+0xb8c>
    5084:	00055463          	bgez	a0,508c <.LBB101_252>
    5088:	c00005b7          	lui	a1,0xc0000

000000000000508c <.LBB101_252>:
    508c:	00001537          	lui	a0,0x1
    5090:	40a40533          	sub	a0,s0,a0
    5094:	dcb53c23          	sd	a1,-552(a0) # dd8 <.LBB101_3+0xb84>
    5098:	a6043503          	ld	a0,-1440(s0)
    509c:	f6843583          	ld	a1,-152(s0)
    50a0:	00b50533          	add	a0,a0,a1
    50a4:	010985b3          	add	a1,s3,a6
    50a8:	00b50533          	add	a0,a0,a1
    50ac:	0015053b          	addw	a0,a0,ra
    50b0:	400005b7          	lui	a1,0x40000
    50b4:	00001937          	lui	s2,0x1
    50b8:	41240933          	sub	s2,s0,s2
    50bc:	d6a93423          	sd	a0,-664(s2) # d68 <.LBB101_3+0xb14>
    50c0:	00055463          	bgez	a0,50c8 <.LBB101_254>
    50c4:	c00005b7          	lui	a1,0xc0000

00000000000050c8 <.LBB101_254>:
    50c8:	00001537          	lui	a0,0x1
    50cc:	40a40533          	sub	a0,s0,a0
    50d0:	d6b53023          	sd	a1,-672(a0) # d60 <.LBB101_3+0xb0c>
    50d4:	a6843503          	ld	a0,-1432(s0)
    50d8:	f7043583          	ld	a1,-144(s0)
    50dc:	00b50533          	add	a0,a0,a1
    50e0:	010f85b3          	add	a1,t6,a6
    50e4:	00b50533          	add	a0,a0,a1
    50e8:	0015053b          	addw	a0,a0,ra
    50ec:	400005b7          	lui	a1,0x40000
    50f0:	00001937          	lui	s2,0x1
    50f4:	41240933          	sub	s2,s0,s2
    50f8:	cea93823          	sd	a0,-784(s2) # cf0 <.LBB101_3+0xa9c>
    50fc:	00055463          	bgez	a0,5104 <.LBB101_256>
    5100:	c00005b7          	lui	a1,0xc0000

0000000000005104 <.LBB101_256>:
    5104:	00001537          	lui	a0,0x1
    5108:	40a40533          	sub	a0,s0,a0
    510c:	ceb53423          	sd	a1,-792(a0) # ce8 <.LBB101_3+0xa94>
    5110:	f7843503          	ld	a0,-136(s0)
    5114:	00a28533          	add	a0,t0,a0
    5118:	010a85b3          	add	a1,s5,a6
    511c:	00b50533          	add	a0,a0,a1
    5120:	001505bb          	addw	a1,a0,ra
    5124:	40000537          	lui	a0,0x40000
    5128:	000012b7          	lui	t0,0x1
    512c:	405402b3          	sub	t0,s0,t0
    5130:	c2b2b423          	sd	a1,-984(t0) # c28 <.LBB101_3+0x9d4>
    5134:	0005d463          	bgez	a1,513c <.LBB101_258>
    5138:	c0000537          	lui	a0,0xc0000

000000000000513c <.LBB101_258>:
    513c:	000015b7          	lui	a1,0x1
    5140:	40b405b3          	sub	a1,s0,a1
    5144:	c6a5bc23          	sd	a0,-904(a1) # c78 <.LBB101_3+0xa24>
    5148:	f8043503          	ld	a0,-128(s0)
    514c:	00ac0533          	add	a0,s8,a0
    5150:	010385b3          	add	a1,t2,a6
    5154:	00b50533          	add	a0,a0,a1
    5158:	001505bb          	addw	a1,a0,ra
    515c:	40000537          	lui	a0,0x40000
    5160:	0005d463          	bgez	a1,5168 <.LBB101_260>
    5164:	c0000537          	lui	a0,0xc0000

0000000000005168 <.LBB101_260>:
    5168:	000012b7          	lui	t0,0x1
    516c:	405402b3          	sub	t0,s0,t0
    5170:	c2a2b823          	sd	a0,-976(t0) # c30 <.LBB101_3+0x9dc>
    5174:	f8843503          	ld	a0,-120(s0)
    5178:	00a88533          	add	a0,a7,a0
    517c:	010a0833          	add	a6,s4,a6
    5180:	01050533          	add	a0,a0,a6
    5184:	0015083b          	addw	a6,a0,ra
    5188:	40000537          	lui	a0,0x40000
    518c:	00085463          	bgez	a6,5194 <.LBB101_262>
    5190:	c0000537          	lui	a0,0xc0000

0000000000005194 <.LBB101_262>:
    5194:	000018b7          	lui	a7,0x1
    5198:	411408b3          	sub	a7,s0,a7
    519c:	bca8b423          	sd	a0,-1080(a7) # bc8 <.LBB101_3+0x974>
    51a0:	00001537          	lui	a0,0x1
    51a4:	40a40533          	sub	a0,s0,a0
    51a8:	58853283          	ld	t0,1416(a0) # 1588 <.LBB101_5+0x138>
    51ac:	00429513          	slli	a0,t0,0x4
    51b0:	eb043883          	ld	a7,-336(s0)
    51b4:	011787b3          	add	a5,a5,a7
    51b8:	00550533          	add	a0,a0,t0
    51bc:	ea843883          	ld	a7,-344(s0)
    51c0:	00a888b3          	add	a7,a7,a0
    51c4:	001888b3          	add	a7,a7,ra
    51c8:	011787bb          	addw	a5,a5,a7
    51cc:	400008b7          	lui	a7,0x40000
    51d0:	a8f43023          	sd	a5,-1408(s0)
    51d4:	0007d463          	bgez	a5,51dc <.LBB101_264>
    51d8:	c00008b7          	lui	a7,0xc0000

00000000000051dc <.LBB101_264>:
    51dc:	a7143823          	sd	a7,-1424(s0)
    51e0:	a9043783          	ld	a5,-1392(s0)
    51e4:	ea043883          	ld	a7,-352(s0)
    51e8:	011787b3          	add	a5,a5,a7
    51ec:	e9843883          	ld	a7,-360(s0)
    51f0:	00a888b3          	add	a7,a7,a0
    51f4:	001888b3          	add	a7,a7,ra
    51f8:	011787bb          	addw	a5,a5,a7
    51fc:	40000c37          	lui	s8,0x40000
    5200:	a8f43823          	sd	a5,-1392(s0)
    5204:	0007d463          	bgez	a5,520c <.LBB101_266>
    5208:	c0000c37          	lui	s8,0xc0000

000000000000520c <.LBB101_266>:
    520c:	a9843783          	ld	a5,-1384(s0)
    5210:	e9043883          	ld	a7,-368(s0)
    5214:	011787b3          	add	a5,a5,a7
    5218:	e8843883          	ld	a7,-376(s0)
    521c:	00a888b3          	add	a7,a7,a0
    5220:	001888b3          	add	a7,a7,ra
    5224:	011787bb          	addw	a5,a5,a7
    5228:	400008b7          	lui	a7,0x40000
    522c:	a6f43023          	sd	a5,-1440(s0)
    5230:	0007d463          	bgez	a5,5238 <.LBB101_268>
    5234:	c00008b7          	lui	a7,0xc0000

0000000000005238 <.LBB101_268>:
    5238:	a5143c23          	sd	a7,-1448(s0)
    523c:	aa043783          	ld	a5,-1376(s0)
    5240:	e8043883          	ld	a7,-384(s0)
    5244:	011787b3          	add	a5,a5,a7
    5248:	e7843883          	ld	a7,-392(s0)
    524c:	00a888b3          	add	a7,a7,a0
    5250:	001888b3          	add	a7,a7,ra
    5254:	011787bb          	addw	a5,a5,a7
    5258:	400008b7          	lui	a7,0x40000
    525c:	aaf43023          	sd	a5,-1376(s0)
    5260:	0007d463          	bgez	a5,5268 <.LBB101_270>
    5264:	c00008b7          	lui	a7,0xc0000

0000000000005268 <.LBB101_270>:
    5268:	a7143423          	sd	a7,-1432(s0)
    526c:	aa843783          	ld	a5,-1368(s0)
    5270:	e7043883          	ld	a7,-400(s0)
    5274:	011787b3          	add	a5,a5,a7
    5278:	e6843883          	ld	a7,-408(s0)
    527c:	00a888b3          	add	a7,a7,a0
    5280:	001888b3          	add	a7,a7,ra
    5284:	011787bb          	addw	a5,a5,a7
    5288:	400008b7          	lui	a7,0x40000
    528c:	a6f43c23          	sd	a5,-1416(s0)
    5290:	0007d463          	bgez	a5,5298 <.LBB101_272>
    5294:	c00008b7          	lui	a7,0xc0000

0000000000005298 <.LBB101_272>:
    5298:	a5143823          	sd	a7,-1456(s0)
    529c:	ab043783          	ld	a5,-1360(s0)
    52a0:	000018b7          	lui	a7,0x1
    52a4:	411408b3          	sub	a7,s0,a7
    52a8:	6c88b883          	ld	a7,1736(a7) # 16c8 <.LBB101_5+0x278>
    52ac:	011787b3          	add	a5,a5,a7
    52b0:	000018b7          	lui	a7,0x1
    52b4:	411408b3          	sub	a7,s0,a7
    52b8:	6c08b883          	ld	a7,1728(a7) # 16c0 <.LBB101_5+0x270>
    52bc:	00a888b3          	add	a7,a7,a0
    52c0:	001888b3          	add	a7,a7,ra
    52c4:	011787bb          	addw	a5,a5,a7
    52c8:	400008b7          	lui	a7,0x40000
    52cc:	aaf43823          	sd	a5,-1360(s0)
    52d0:	0007d463          	bgez	a5,52d8 <.LBB101_274>
    52d4:	c00008b7          	lui	a7,0xc0000

00000000000052d8 <.LBB101_274>:
    52d8:	a9143423          	sd	a7,-1400(s0)
    52dc:	ab843783          	ld	a5,-1352(s0)
    52e0:	000018b7          	lui	a7,0x1
    52e4:	411408b3          	sub	a7,s0,a7
    52e8:	6b88b883          	ld	a7,1720(a7) # 16b8 <.LBB101_5+0x268>
    52ec:	011787b3          	add	a5,a5,a7
    52f0:	000018b7          	lui	a7,0x1
    52f4:	411408b3          	sub	a7,s0,a7
    52f8:	6b08b883          	ld	a7,1712(a7) # 16b0 <.LBB101_5+0x260>
    52fc:	00a888b3          	add	a7,a7,a0
    5300:	001888b3          	add	a7,a7,ra
    5304:	011787bb          	addw	a5,a5,a7
    5308:	400008b7          	lui	a7,0x40000
    530c:	a8f43c23          	sd	a5,-1384(s0)
    5310:	0007d463          	bgez	a5,5318 <.LBB101_276>
    5314:	c00008b7          	lui	a7,0xc0000

0000000000005318 <.LBB101_276>:
    5318:	a5143423          	sd	a7,-1464(s0)
    531c:	ac043783          	ld	a5,-1344(s0)
    5320:	000018b7          	lui	a7,0x1
    5324:	411408b3          	sub	a7,s0,a7
    5328:	6a88b883          	ld	a7,1704(a7) # 16a8 <.LBB101_5+0x258>
    532c:	011787b3          	add	a5,a5,a7
    5330:	000018b7          	lui	a7,0x1
    5334:	411408b3          	sub	a7,s0,a7
    5338:	6a08b883          	ld	a7,1696(a7) # 16a0 <.LBB101_5+0x250>
    533c:	00a888b3          	add	a7,a7,a0
    5340:	001888b3          	add	a7,a7,ra
    5344:	011787bb          	addw	a5,a5,a7
    5348:	400008b7          	lui	a7,0x40000
    534c:	acf43023          	sd	a5,-1344(s0)
    5350:	0007d463          	bgez	a5,5358 <.LBB101_278>
    5354:	c00008b7          	lui	a7,0xc0000

0000000000005358 <.LBB101_278>:
    5358:	ab143423          	sd	a7,-1368(s0)
    535c:	ac843783          	ld	a5,-1336(s0)
    5360:	000018b7          	lui	a7,0x1
    5364:	411408b3          	sub	a7,s0,a7
    5368:	6988b883          	ld	a7,1688(a7) # 1698 <.LBB101_5+0x248>
    536c:	011787b3          	add	a5,a5,a7
    5370:	000018b7          	lui	a7,0x1
    5374:	411408b3          	sub	a7,s0,a7
    5378:	6908b883          	ld	a7,1680(a7) # 1690 <.LBB101_5+0x240>
    537c:	00a888b3          	add	a7,a7,a0
    5380:	001888b3          	add	a7,a7,ra
    5384:	011787bb          	addw	a5,a5,a7
    5388:	400008b7          	lui	a7,0x40000
    538c:	aaf43c23          	sd	a5,-1352(s0)
    5390:	0007d463          	bgez	a5,5398 <.LBB101_280>
    5394:	c00008b7          	lui	a7,0xc0000

0000000000005398 <.LBB101_280>:
    5398:	a5143023          	sd	a7,-1472(s0)
    539c:	ad043783          	ld	a5,-1328(s0)
    53a0:	000018b7          	lui	a7,0x1
    53a4:	411408b3          	sub	a7,s0,a7
    53a8:	6888b883          	ld	a7,1672(a7) # 1688 <.LBB101_5+0x238>
    53ac:	011787b3          	add	a5,a5,a7
    53b0:	000018b7          	lui	a7,0x1
    53b4:	411408b3          	sub	a7,s0,a7
    53b8:	6d08b883          	ld	a7,1744(a7) # 16d0 <.LBB101_5+0x280>
    53bc:	00a888b3          	add	a7,a7,a0
    53c0:	001888b3          	add	a7,a7,ra
    53c4:	011787bb          	addw	a5,a5,a7
    53c8:	400008b7          	lui	a7,0x40000
    53cc:	acf43823          	sd	a5,-1328(s0)
    53d0:	0007d463          	bgez	a5,53d8 <.LBB101_282>
    53d4:	c00008b7          	lui	a7,0xc0000

00000000000053d8 <.LBB101_282>:
    53d8:	ad143423          	sd	a7,-1336(s0)
    53dc:	ad843783          	ld	a5,-1320(s0)
    53e0:	eb843883          	ld	a7,-328(s0)
    53e4:	011787b3          	add	a5,a5,a7
    53e8:	000018b7          	lui	a7,0x1
    53ec:	411408b3          	sub	a7,s0,a7
    53f0:	6d88b883          	ld	a7,1752(a7) # 16d8 <.LBB101_5+0x288>
    53f4:	00a888b3          	add	a7,a7,a0
    53f8:	001888b3          	add	a7,a7,ra
    53fc:	011787bb          	addw	a5,a5,a7
    5400:	400008b7          	lui	a7,0x40000
    5404:	acf43c23          	sd	a5,-1320(s0)
    5408:	0007d463          	bgez	a5,5410 <.LBB101_284>
    540c:	c00008b7          	lui	a7,0xc0000

0000000000005410 <.LBB101_284>:
    5410:	a3143c23          	sd	a7,-1480(s0)
    5414:	ae043783          	ld	a5,-1312(s0)
    5418:	ec043883          	ld	a7,-320(s0)
    541c:	011787b3          	add	a5,a5,a7
    5420:	000018b7          	lui	a7,0x1
    5424:	411408b3          	sub	a7,s0,a7
    5428:	6e08b883          	ld	a7,1760(a7) # 16e0 <.LBB101_5+0x290>
    542c:	00a888b3          	add	a7,a7,a0
    5430:	001888b3          	add	a7,a7,ra
    5434:	011787bb          	addw	a5,a5,a7
    5438:	400008b7          	lui	a7,0x40000
    543c:	aef43023          	sd	a5,-1312(s0)
    5440:	0007d463          	bgez	a5,5448 <.LBB101_286>
    5444:	c00008b7          	lui	a7,0xc0000

0000000000005448 <.LBB101_286>:
    5448:	a3143823          	sd	a7,-1488(s0)
    544c:	ae843783          	ld	a5,-1304(s0)
    5450:	ec843883          	ld	a7,-312(s0)
    5454:	011787b3          	add	a5,a5,a7
    5458:	00ad88b3          	add	a7,s11,a0
    545c:	001888b3          	add	a7,a7,ra
    5460:	011787bb          	addw	a5,a5,a7
    5464:	400008b7          	lui	a7,0x40000
    5468:	aef43423          	sd	a5,-1304(s0)
    546c:	0007d463          	bgez	a5,5474 <.LBB101_288>
    5470:	c00008b7          	lui	a7,0xc0000

0000000000005474 <.LBB101_288>:
    5474:	a3143423          	sd	a7,-1496(s0)
    5478:	af043783          	ld	a5,-1296(s0)
    547c:	ed043883          	ld	a7,-304(s0)
    5480:	011787b3          	add	a5,a5,a7
    5484:	00ad08b3          	add	a7,s10,a0
    5488:	001888b3          	add	a7,a7,ra
    548c:	011787bb          	addw	a5,a5,a7
    5490:	400008b7          	lui	a7,0x40000
    5494:	aef43823          	sd	a5,-1296(s0)
    5498:	0007d463          	bgez	a5,54a0 <.LBB101_290>
    549c:	c00008b7          	lui	a7,0xc0000

00000000000054a0 <.LBB101_290>:
    54a0:	a3143023          	sd	a7,-1504(s0)
    54a4:	af843783          	ld	a5,-1288(s0)
    54a8:	ed843883          	ld	a7,-296(s0)
    54ac:	011787b3          	add	a5,a5,a7
    54b0:	00ac88b3          	add	a7,s9,a0
    54b4:	001888b3          	add	a7,a7,ra
    54b8:	011787bb          	addw	a5,a5,a7
    54bc:	400008b7          	lui	a7,0x40000
    54c0:	aef43c23          	sd	a5,-1288(s0)
    54c4:	0007d463          	bgez	a5,54cc <.LBB101_292>
    54c8:	c00008b7          	lui	a7,0xc0000

00000000000054cc <.LBB101_292>:
    54cc:	a1143c23          	sd	a7,-1512(s0)
    54d0:	ee043783          	ld	a5,-288(s0)
    54d4:	00f487b3          	add	a5,s1,a5
    54d8:	000018b7          	lui	a7,0x1
    54dc:	411408b3          	sub	a7,s0,a7
    54e0:	7008b883          	ld	a7,1792(a7) # 1700 <.LBB101_5+0x2b0>
    54e4:	00a888b3          	add	a7,a7,a0
    54e8:	001888b3          	add	a7,a7,ra
    54ec:	011787bb          	addw	a5,a5,a7
    54f0:	400008b7          	lui	a7,0x40000
    54f4:	b0f43023          	sd	a5,-1280(s0)
    54f8:	0007d463          	bgez	a5,5500 <.LBB101_294>
    54fc:	c00008b7          	lui	a7,0xc0000

0000000000005500 <.LBB101_294>:
    5500:	a1143823          	sd	a7,-1520(s0)
    5504:	b0843783          	ld	a5,-1272(s0)
    5508:	ee843883          	ld	a7,-280(s0)
    550c:	011787b3          	add	a5,a5,a7
    5510:	00ab88b3          	add	a7,s7,a0
    5514:	001888b3          	add	a7,a7,ra
    5518:	011787bb          	addw	a5,a5,a7
    551c:	400008b7          	lui	a7,0x40000
    5520:	b0f43423          	sd	a5,-1272(s0)
    5524:	0007d463          	bgez	a5,552c <.LBB101_296>
    5528:	c00008b7          	lui	a7,0xc0000

000000000000552c <.LBB101_296>:
    552c:	000017b7          	lui	a5,0x1
    5530:	40f407b3          	sub	a5,s0,a5
    5534:	2517b023          	sd	a7,576(a5) # 1240 <.LBB101_4+0x394>
    5538:	b1043783          	ld	a5,-1264(s0)
    553c:	ef043883          	ld	a7,-272(s0)
    5540:	011787b3          	add	a5,a5,a7
    5544:	00ab08b3          	add	a7,s6,a0
    5548:	001888b3          	add	a7,a7,ra
    554c:	011787bb          	addw	a5,a5,a7
    5550:	400008b7          	lui	a7,0x40000
    5554:	b0f43823          	sd	a5,-1264(s0)
    5558:	0007d463          	bgez	a5,5560 <.LBB101_298>
    555c:	c00008b7          	lui	a7,0xc0000

0000000000005560 <.LBB101_298>:
    5560:	000017b7          	lui	a5,0x1
    5564:	40f407b3          	sub	a5,s0,a5
    5568:	1d17b423          	sd	a7,456(a5) # 11c8 <.LBB101_4+0x31c>
    556c:	b1843783          	ld	a5,-1256(s0)
    5570:	ef843883          	ld	a7,-264(s0)
    5574:	011787b3          	add	a5,a5,a7
    5578:	000018b7          	lui	a7,0x1
    557c:	411408b3          	sub	a7,s0,a7
    5580:	7188b883          	ld	a7,1816(a7) # 1718 <.LBB101_5+0x2c8>
    5584:	00a888b3          	add	a7,a7,a0
    5588:	001888b3          	add	a7,a7,ra
    558c:	011787bb          	addw	a5,a5,a7
    5590:	400008b7          	lui	a7,0x40000
    5594:	b0f43c23          	sd	a5,-1256(s0)
    5598:	0007d463          	bgez	a5,55a0 <.LBB101_300>
    559c:	c00008b7          	lui	a7,0xc0000

00000000000055a0 <.LBB101_300>:
    55a0:	000017b7          	lui	a5,0x1
    55a4:	40f407b3          	sub	a5,s0,a5
    55a8:	1517b823          	sd	a7,336(a5) # 1150 <.LBB101_4+0x2a4>
    55ac:	b2043783          	ld	a5,-1248(s0)
    55b0:	f0043883          	ld	a7,-256(s0)
    55b4:	011787b3          	add	a5,a5,a7
    55b8:	000018b7          	lui	a7,0x1
    55bc:	411408b3          	sub	a7,s0,a7
    55c0:	7208b883          	ld	a7,1824(a7) # 1720 <.LBB101_5+0x2d0>
    55c4:	00a888b3          	add	a7,a7,a0
    55c8:	001888b3          	add	a7,a7,ra
    55cc:	011787bb          	addw	a5,a5,a7
    55d0:	400008b7          	lui	a7,0x40000
    55d4:	b2f43023          	sd	a5,-1248(s0)
    55d8:	0007d463          	bgez	a5,55e0 <.LBB101_302>
    55dc:	c00008b7          	lui	a7,0xc0000

00000000000055e0 <.LBB101_302>:
    55e0:	000017b7          	lui	a5,0x1
    55e4:	40f407b3          	sub	a5,s0,a5
    55e8:	0f17b423          	sd	a7,232(a5) # 10e8 <.LBB101_4+0x23c>
    55ec:	b2843783          	ld	a5,-1240(s0)
    55f0:	f0843883          	ld	a7,-248(s0)
    55f4:	011787b3          	add	a5,a5,a7
    55f8:	000018b7          	lui	a7,0x1
    55fc:	411408b3          	sub	a7,s0,a7
    5600:	7288b883          	ld	a7,1832(a7) # 1728 <.LBB101_5+0x2d8>
    5604:	00a888b3          	add	a7,a7,a0
    5608:	001888b3          	add	a7,a7,ra
    560c:	011787bb          	addw	a5,a5,a7
    5610:	400008b7          	lui	a7,0x40000
    5614:	b2f43423          	sd	a5,-1240(s0)
    5618:	0007d463          	bgez	a5,5620 <.LBB101_304>
    561c:	c00008b7          	lui	a7,0xc0000

0000000000005620 <.LBB101_304>:
    5620:	000017b7          	lui	a5,0x1
    5624:	40f407b3          	sub	a5,s0,a5
    5628:	0917b023          	sd	a7,128(a5) # 1080 <.LBB101_4+0x1d4>
    562c:	b3043783          	ld	a5,-1232(s0)
    5630:	f3843883          	ld	a7,-200(s0)
    5634:	011787b3          	add	a5,a5,a7
    5638:	000018b7          	lui	a7,0x1
    563c:	411408b3          	sub	a7,s0,a7
    5640:	7308b883          	ld	a7,1840(a7) # 1730 <.LBB101_5+0x2e0>
    5644:	00a888b3          	add	a7,a7,a0
    5648:	001888b3          	add	a7,a7,ra
    564c:	011787bb          	addw	a5,a5,a7
    5650:	400008b7          	lui	a7,0x40000
    5654:	b2f43823          	sd	a5,-1232(s0)
    5658:	0007d463          	bgez	a5,5660 <.LBB101_306>
    565c:	c00008b7          	lui	a7,0xc0000

0000000000005660 <.LBB101_306>:
    5660:	000017b7          	lui	a5,0x1
    5664:	40f407b3          	sub	a5,s0,a5
    5668:	0117b823          	sd	a7,16(a5) # 1010 <.LBB101_4+0x164>
    566c:	b3843783          	ld	a5,-1224(s0)
    5670:	f4043883          	ld	a7,-192(s0)
    5674:	011787b3          	add	a5,a5,a7
    5678:	000018b7          	lui	a7,0x1
    567c:	411408b3          	sub	a7,s0,a7
    5680:	7388b883          	ld	a7,1848(a7) # 1738 <.LBB101_5+0x2e8>
    5684:	00a888b3          	add	a7,a7,a0
    5688:	001888b3          	add	a7,a7,ra
    568c:	011787bb          	addw	a5,a5,a7
    5690:	400008b7          	lui	a7,0x40000
    5694:	000012b7          	lui	t0,0x1
    5698:	405402b3          	sub	t0,s0,t0
    569c:	faf2b023          	sd	a5,-96(t0) # fa0 <.LBB101_4+0xf4>
    56a0:	0007d463          	bgez	a5,56a8 <.LBB101_308>
    56a4:	c00008b7          	lui	a7,0xc0000

00000000000056a8 <.LBB101_308>:
    56a8:	000017b7          	lui	a5,0x1
    56ac:	40f407b3          	sub	a5,s0,a5
    56b0:	f917bc23          	sd	a7,-104(a5) # f98 <.LBB101_4+0xec>
    56b4:	b4043783          	ld	a5,-1216(s0)
    56b8:	f4843883          	ld	a7,-184(s0)
    56bc:	011787b3          	add	a5,a5,a7
    56c0:	000018b7          	lui	a7,0x1
    56c4:	411408b3          	sub	a7,s0,a7
    56c8:	7408b883          	ld	a7,1856(a7) # 1740 <.LBB101_5+0x2f0>
    56cc:	00a888b3          	add	a7,a7,a0
    56d0:	001888b3          	add	a7,a7,ra
    56d4:	011787bb          	addw	a5,a5,a7
    56d8:	400008b7          	lui	a7,0x40000
    56dc:	b4f43023          	sd	a5,-1216(s0)
    56e0:	0007d463          	bgez	a5,56e8 <.LBB101_310>
    56e4:	c00008b7          	lui	a7,0xc0000

00000000000056e8 <.LBB101_310>:
    56e8:	000017b7          	lui	a5,0x1
    56ec:	40f407b3          	sub	a5,s0,a5
    56f0:	f317b423          	sd	a7,-216(a5) # f28 <.LBB101_4+0x7c>
    56f4:	b4843783          	ld	a5,-1208(s0)
    56f8:	f5043883          	ld	a7,-176(s0)
    56fc:	011787b3          	add	a5,a5,a7
    5700:	000018b7          	lui	a7,0x1
    5704:	411408b3          	sub	a7,s0,a7
    5708:	7488b883          	ld	a7,1864(a7) # 1748 <.LBB101_5+0x2f8>
    570c:	00a888b3          	add	a7,a7,a0
    5710:	001888b3          	add	a7,a7,ra
    5714:	011787bb          	addw	a5,a5,a7
    5718:	400008b7          	lui	a7,0x40000
    571c:	000012b7          	lui	t0,0x1
    5720:	405402b3          	sub	t0,s0,t0
    5724:	eaf2bc23          	sd	a5,-328(t0) # eb8 <.LBB101_4+0xc>
    5728:	0007d463          	bgez	a5,5730 <.LBB101_312>
    572c:	c00008b7          	lui	a7,0xc0000

0000000000005730 <.LBB101_312>:
    5730:	000017b7          	lui	a5,0x1
    5734:	40f407b3          	sub	a5,s0,a5
    5738:	eb17b823          	sd	a7,-336(a5) # eb0 <.LBB101_4+0x4>
    573c:	b5043783          	ld	a5,-1200(s0)
    5740:	f5843883          	ld	a7,-168(s0)
    5744:	011787b3          	add	a5,a5,a7
    5748:	000018b7          	lui	a7,0x1
    574c:	411408b3          	sub	a7,s0,a7
    5750:	7508b883          	ld	a7,1872(a7) # 1750 <.LBB101_5+0x300>
    5754:	00a888b3          	add	a7,a7,a0
    5758:	001888b3          	add	a7,a7,ra
    575c:	011787bb          	addw	a5,a5,a7
    5760:	400008b7          	lui	a7,0x40000
    5764:	b4f43823          	sd	a5,-1200(s0)
    5768:	0007d463          	bgez	a5,5770 <.LBB101_314>
    576c:	c00008b7          	lui	a7,0xc0000

0000000000005770 <.LBB101_314>:
    5770:	000017b7          	lui	a5,0x1
    5774:	40f407b3          	sub	a5,s0,a5
    5778:	e517b023          	sd	a7,-448(a5) # e40 <.LBB101_3+0xbec>
    577c:	b5843783          	ld	a5,-1192(s0)
    5780:	f6043883          	ld	a7,-160(s0)
    5784:	011787b3          	add	a5,a5,a7
    5788:	000018b7          	lui	a7,0x1
    578c:	411408b3          	sub	a7,s0,a7
    5790:	7588b883          	ld	a7,1880(a7) # 1758 <.LBB101_5+0x308>
    5794:	00a888b3          	add	a7,a7,a0
    5798:	001888b3          	add	a7,a7,ra
    579c:	011787bb          	addw	a5,a5,a7
    57a0:	400008b7          	lui	a7,0x40000
    57a4:	000012b7          	lui	t0,0x1
    57a8:	405402b3          	sub	t0,s0,t0
    57ac:	dcf2b823          	sd	a5,-560(t0) # dd0 <.LBB101_3+0xb7c>
    57b0:	0007d463          	bgez	a5,57b8 <.LBB101_316>
    57b4:	c00008b7          	lui	a7,0xc0000

00000000000057b8 <.LBB101_316>:
    57b8:	000017b7          	lui	a5,0x1
    57bc:	40f407b3          	sub	a5,s0,a5
    57c0:	dd17b423          	sd	a7,-568(a5) # dc8 <.LBB101_3+0xb74>
    57c4:	b6043783          	ld	a5,-1184(s0)
    57c8:	f6843883          	ld	a7,-152(s0)
    57cc:	011787b3          	add	a5,a5,a7
    57d0:	00a988b3          	add	a7,s3,a0
    57d4:	001888b3          	add	a7,a7,ra
    57d8:	011787bb          	addw	a5,a5,a7
    57dc:	400008b7          	lui	a7,0x40000
    57e0:	b6f43023          	sd	a5,-1184(s0)
    57e4:	0007d463          	bgez	a5,57ec <.LBB101_318>
    57e8:	c00008b7          	lui	a7,0xc0000

00000000000057ec <.LBB101_318>:
    57ec:	000017b7          	lui	a5,0x1
    57f0:	40f407b3          	sub	a5,s0,a5
    57f4:	d517bc23          	sd	a7,-680(a5) # d58 <.LBB101_3+0xb04>
    57f8:	f7043783          	ld	a5,-144(s0)
    57fc:	00ff07b3          	add	a5,t5,a5
    5800:	00af88b3          	add	a7,t6,a0
    5804:	001888b3          	add	a7,a7,ra
    5808:	011787bb          	addw	a5,a5,a7
    580c:	400008b7          	lui	a7,0x40000
    5810:	000012b7          	lui	t0,0x1
    5814:	405402b3          	sub	t0,s0,t0
    5818:	cef2b023          	sd	a5,-800(t0) # ce0 <.LBB101_3+0xa8c>
    581c:	0007d463          	bgez	a5,5824 <.LBB101_320>
    5820:	c00008b7          	lui	a7,0xc0000

0000000000005824 <.LBB101_320>:
    5824:	000017b7          	lui	a5,0x1
    5828:	40f407b3          	sub	a5,s0,a5
    582c:	cd17bc23          	sd	a7,-808(a5) # cd8 <.LBB101_3+0xa84>
    5830:	f7843883          	ld	a7,-136(s0)
    5834:	011308b3          	add	a7,t1,a7
    5838:	00aa8333          	add	t1,s5,a0
    583c:	00130333          	add	t1,t1,ra
    5840:	006888bb          	addw	a7,a7,t1
    5844:	400007b7          	lui	a5,0x40000
    5848:	000012b7          	lui	t0,0x1
    584c:	405402b3          	sub	t0,s0,t0
    5850:	c112b023          	sd	a7,-1024(t0) # c00 <.LBB101_3+0x9ac>
    5854:	0008d463          	bgez	a7,585c <.LBB101_322>
    5858:	c00007b7          	lui	a5,0xc0000

000000000000585c <.LBB101_322>:
    585c:	f8043883          	ld	a7,-128(s0)
    5860:	011e08b3          	add	a7,t3,a7
    5864:	00a38333          	add	t1,t2,a0
    5868:	00130333          	add	t1,t1,ra
    586c:	006882bb          	addw	t0,a7,t1
    5870:	400008b7          	lui	a7,0x40000
    5874:	00001337          	lui	t1,0x1
    5878:	40640333          	sub	t1,s0,t1
    587c:	be533423          	sd	t0,-1048(t1) # be8 <.LBB101_3+0x994>
    5880:	0002d463          	bgez	t0,5888 <.LBB101_324>
    5884:	c00008b7          	lui	a7,0xc0000

0000000000005888 <.LBB101_324>:
    5888:	000012b7          	lui	t0,0x1
    588c:	405402b3          	sub	t0,s0,t0
    5890:	c312b023          	sd	a7,-992(t0) # c20 <.LBB101_3+0x9cc>
    5894:	b6f43823          	sd	a5,-1168(s0)
    5898:	f8843883          	ld	a7,-120(s0)
    589c:	b8043783          	ld	a5,-1152(s0)
    58a0:	011788b3          	add	a7,a5,a7
    58a4:	00aa0533          	add	a0,s4,a0
    58a8:	00150533          	add	a0,a0,ra
    58ac:	00a8833b          	addw	t1,a7,a0
    58b0:	40000537          	lui	a0,0x40000
    58b4:	00035463          	bgez	t1,58bc <.LBB101_326>
    58b8:	c0000537          	lui	a0,0xc0000

00000000000058bc <.LBB101_326>:
    58bc:	b8a43023          	sd	a0,-1152(s0)
    58c0:	00001537          	lui	a0,0x1
    58c4:	40a40533          	sub	a0,s0,a0
    58c8:	59053883          	ld	a7,1424(a0) # 1590 <.LBB101_5+0x140>
    58cc:	00489e13          	slli	t3,a7,0x4
    58d0:	b8843503          	ld	a0,-1144(s0)
    58d4:	eb043783          	ld	a5,-336(s0)
    58d8:	00f50533          	add	a0,a0,a5
    58dc:	011e0e33          	add	t3,t3,a7
    58e0:	ea843883          	ld	a7,-344(s0)
    58e4:	01c888b3          	add	a7,a7,t3
    58e8:	001888b3          	add	a7,a7,ra
    58ec:	0115053b          	addw	a0,a0,a7
    58f0:	400008b7          	lui	a7,0x40000
    58f4:	9ca43823          	sd	a0,-1584(s0)
    58f8:	00055463          	bgez	a0,5900 <.LBB101_328>
    58fc:	c00008b7          	lui	a7,0xc0000

0000000000005900 <.LBB101_328>:
    5900:	9d143023          	sd	a7,-1600(s0)
    5904:	b9043503          	ld	a0,-1136(s0)
    5908:	ea043783          	ld	a5,-352(s0)
    590c:	00f50533          	add	a0,a0,a5
    5910:	e9843883          	ld	a7,-360(s0)
    5914:	01c888b3          	add	a7,a7,t3
    5918:	001888b3          	add	a7,a7,ra
    591c:	0115053b          	addw	a0,a0,a7
    5920:	400007b7          	lui	a5,0x40000
    5924:	9aa43c23          	sd	a0,-1608(s0)
    5928:	00055463          	bgez	a0,5930 <.LBB101_330>
    592c:	c00007b7          	lui	a5,0xc0000

0000000000005930 <.LBB101_330>:
    5930:	b9843503          	ld	a0,-1128(s0)
    5934:	e9043883          	ld	a7,-368(s0)
    5938:	01150533          	add	a0,a0,a7
    593c:	e8843883          	ld	a7,-376(s0)
    5940:	01c888b3          	add	a7,a7,t3
    5944:	001888b3          	add	a7,a7,ra
    5948:	0115053b          	addw	a0,a0,a7
    594c:	400008b7          	lui	a7,0x40000
    5950:	9aa43423          	sd	a0,-1624(s0)
    5954:	00055463          	bgez	a0,595c <.LBB101_332>
    5958:	c00008b7          	lui	a7,0xc0000

000000000000595c <.LBB101_332>:
    595c:	9b143023          	sd	a7,-1632(s0)
    5960:	ba043503          	ld	a0,-1120(s0)
    5964:	e8043883          	ld	a7,-384(s0)
    5968:	01150533          	add	a0,a0,a7
    596c:	e7843883          	ld	a7,-392(s0)
    5970:	01c888b3          	add	a7,a7,t3
    5974:	001888b3          	add	a7,a7,ra
    5978:	0115053b          	addw	a0,a0,a7
    597c:	400008b7          	lui	a7,0x40000
    5980:	94a43c23          	sd	a0,-1704(s0)
    5984:	00055463          	bgez	a0,598c <.LBB101_334>
    5988:	c00008b7          	lui	a7,0xc0000

000000000000598c <.LBB101_334>:
    598c:	95143423          	sd	a7,-1720(s0)
    5990:	ba843503          	ld	a0,-1112(s0)
    5994:	e7043883          	ld	a7,-400(s0)
    5998:	01150533          	add	a0,a0,a7
    599c:	e6843883          	ld	a7,-408(s0)
    59a0:	01c888b3          	add	a7,a7,t3
    59a4:	001888b3          	add	a7,a7,ra
    59a8:	0115053b          	addw	a0,a0,a7
    59ac:	400008b7          	lui	a7,0x40000
    59b0:	90a43c23          	sd	a0,-1768(s0)
    59b4:	00055463          	bgez	a0,59bc <.LBB101_336>
    59b8:	c00008b7          	lui	a7,0xc0000

00000000000059bc <.LBB101_336>:
    59bc:	91143423          	sd	a7,-1784(s0)
    59c0:	bb043503          	ld	a0,-1104(s0)
    59c4:	000018b7          	lui	a7,0x1
    59c8:	411408b3          	sub	a7,s0,a7
    59cc:	6c88b883          	ld	a7,1736(a7) # 16c8 <.LBB101_5+0x278>
    59d0:	01150533          	add	a0,a0,a7
    59d4:	000018b7          	lui	a7,0x1
    59d8:	411408b3          	sub	a7,s0,a7
    59dc:	6c08b883          	ld	a7,1728(a7) # 16c0 <.LBB101_5+0x270>
    59e0:	01c888b3          	add	a7,a7,t3
    59e4:	001888b3          	add	a7,a7,ra
    59e8:	0115053b          	addw	a0,a0,a7
    59ec:	400008b7          	lui	a7,0x40000
    59f0:	8ca43423          	sd	a0,-1848(s0)
    59f4:	00055463          	bgez	a0,59fc <.LBB101_338>
    59f8:	c00008b7          	lui	a7,0xc0000

00000000000059fc <.LBB101_338>:
    59fc:	8d143023          	sd	a7,-1856(s0)
    5a00:	bb843503          	ld	a0,-1096(s0)
    5a04:	000018b7          	lui	a7,0x1
    5a08:	411408b3          	sub	a7,s0,a7
    5a0c:	6b88b883          	ld	a7,1720(a7) # 16b8 <.LBB101_5+0x268>
    5a10:	01150533          	add	a0,a0,a7
    5a14:	000018b7          	lui	a7,0x1
    5a18:	411408b3          	sub	a7,s0,a7
    5a1c:	6b08b883          	ld	a7,1712(a7) # 16b0 <.LBB101_5+0x260>
    5a20:	01c888b3          	add	a7,a7,t3
    5a24:	001888b3          	add	a7,a7,ra
    5a28:	0115053b          	addw	a0,a0,a7
    5a2c:	400008b7          	lui	a7,0x40000
    5a30:	000012b7          	lui	t0,0x1
    5a34:	405402b3          	sub	t0,s0,t0
    5a38:	7ca2b823          	sd	a0,2000(t0) # 17d0 <.LBB101_5+0x380>
    5a3c:	00055463          	bgez	a0,5a44 <.LBB101_340>
    5a40:	c00008b7          	lui	a7,0xc0000

0000000000005a44 <.LBB101_340>:
    5a44:	00001537          	lui	a0,0x1
    5a48:	40a40533          	sub	a0,s0,a0
    5a4c:	7d153423          	sd	a7,1992(a0) # 17c8 <.LBB101_5+0x378>
    5a50:	bc043503          	ld	a0,-1088(s0)
    5a54:	000018b7          	lui	a7,0x1
    5a58:	411408b3          	sub	a7,s0,a7
    5a5c:	6a88b883          	ld	a7,1704(a7) # 16a8 <.LBB101_5+0x258>
    5a60:	01150533          	add	a0,a0,a7
    5a64:	000018b7          	lui	a7,0x1
    5a68:	411408b3          	sub	a7,s0,a7
    5a6c:	6a08b883          	ld	a7,1696(a7) # 16a0 <.LBB101_5+0x250>
    5a70:	01c888b3          	add	a7,a7,t3
    5a74:	001888b3          	add	a7,a7,ra
    5a78:	0115053b          	addw	a0,a0,a7
    5a7c:	400008b7          	lui	a7,0x40000
    5a80:	000012b7          	lui	t0,0x1
    5a84:	405402b3          	sub	t0,s0,t0
    5a88:	58a2b823          	sd	a0,1424(t0) # 1590 <.LBB101_5+0x140>
    5a8c:	00055463          	bgez	a0,5a94 <.LBB101_342>
    5a90:	c00008b7          	lui	a7,0xc0000

0000000000005a94 <.LBB101_342>:
    5a94:	00001537          	lui	a0,0x1
    5a98:	40a40533          	sub	a0,s0,a0
    5a9c:	59153423          	sd	a7,1416(a0) # 1588 <.LBB101_5+0x138>
    5aa0:	bc843503          	ld	a0,-1080(s0)
    5aa4:	000018b7          	lui	a7,0x1
    5aa8:	411408b3          	sub	a7,s0,a7
    5aac:	6988b883          	ld	a7,1688(a7) # 1698 <.LBB101_5+0x248>
    5ab0:	01150533          	add	a0,a0,a7
    5ab4:	000018b7          	lui	a7,0x1
    5ab8:	411408b3          	sub	a7,s0,a7
    5abc:	6908b883          	ld	a7,1680(a7) # 1690 <.LBB101_5+0x240>
    5ac0:	01c888b3          	add	a7,a7,t3
    5ac4:	001888b3          	add	a7,a7,ra
    5ac8:	0115053b          	addw	a0,a0,a7
    5acc:	400008b7          	lui	a7,0x40000
    5ad0:	000012b7          	lui	t0,0x1
    5ad4:	405402b3          	sub	t0,s0,t0
    5ad8:	52a2bc23          	sd	a0,1336(t0) # 1538 <.LBB101_5+0xe8>
    5adc:	00055463          	bgez	a0,5ae4 <.LBB101_344>
    5ae0:	c00008b7          	lui	a7,0xc0000

0000000000005ae4 <.LBB101_344>:
    5ae4:	00001537          	lui	a0,0x1
    5ae8:	40a40533          	sub	a0,s0,a0
    5aec:	53153823          	sd	a7,1328(a0) # 1530 <.LBB101_5+0xe0>
    5af0:	bd043503          	ld	a0,-1072(s0)
    5af4:	000018b7          	lui	a7,0x1
    5af8:	411408b3          	sub	a7,s0,a7
    5afc:	6888b883          	ld	a7,1672(a7) # 1688 <.LBB101_5+0x238>
    5b00:	01150533          	add	a0,a0,a7
    5b04:	000018b7          	lui	a7,0x1
    5b08:	411408b3          	sub	a7,s0,a7
    5b0c:	6d08b883          	ld	a7,1744(a7) # 16d0 <.LBB101_5+0x280>
    5b10:	01c888b3          	add	a7,a7,t3
    5b14:	001888b3          	add	a7,a7,ra
    5b18:	0115053b          	addw	a0,a0,a7
    5b1c:	400008b7          	lui	a7,0x40000
    5b20:	000012b7          	lui	t0,0x1
    5b24:	405402b3          	sub	t0,s0,t0
    5b28:	4ca2bc23          	sd	a0,1240(t0) # 14d8 <.LBB101_5+0x88>
    5b2c:	00055463          	bgez	a0,5b34 <.LBB101_346>
    5b30:	c00008b7          	lui	a7,0xc0000

0000000000005b34 <.LBB101_346>:
    5b34:	00001537          	lui	a0,0x1
    5b38:	40a40533          	sub	a0,s0,a0
    5b3c:	4d153823          	sd	a7,1232(a0) # 14d0 <.LBB101_5+0x80>
    5b40:	bd843503          	ld	a0,-1064(s0)
    5b44:	eb843883          	ld	a7,-328(s0)
    5b48:	01150533          	add	a0,a0,a7
    5b4c:	000018b7          	lui	a7,0x1
    5b50:	411408b3          	sub	a7,s0,a7
    5b54:	6d88b883          	ld	a7,1752(a7) # 16d8 <.LBB101_5+0x288>
    5b58:	01c888b3          	add	a7,a7,t3
    5b5c:	001888b3          	add	a7,a7,ra
    5b60:	0115053b          	addw	a0,a0,a7
    5b64:	400008b7          	lui	a7,0x40000
    5b68:	000012b7          	lui	t0,0x1
    5b6c:	405402b3          	sub	t0,s0,t0
    5b70:	48a2b023          	sd	a0,1152(t0) # 1480 <.LBB101_5+0x30>
    5b74:	00055463          	bgez	a0,5b7c <.LBB101_348>
    5b78:	c00008b7          	lui	a7,0xc0000

0000000000005b7c <.LBB101_348>:
    5b7c:	00001537          	lui	a0,0x1
    5b80:	40a40533          	sub	a0,s0,a0
    5b84:	47153c23          	sd	a7,1144(a0) # 1478 <.LBB101_5+0x28>
    5b88:	be043503          	ld	a0,-1056(s0)
    5b8c:	ec043883          	ld	a7,-320(s0)
    5b90:	01150533          	add	a0,a0,a7
    5b94:	000018b7          	lui	a7,0x1
    5b98:	411408b3          	sub	a7,s0,a7
    5b9c:	6e08b883          	ld	a7,1760(a7) # 16e0 <.LBB101_5+0x290>
    5ba0:	01c888b3          	add	a7,a7,t3
    5ba4:	001888b3          	add	a7,a7,ra
    5ba8:	0115053b          	addw	a0,a0,a7
    5bac:	400008b7          	lui	a7,0x40000
    5bb0:	000012b7          	lui	t0,0x1
    5bb4:	405402b3          	sub	t0,s0,t0
    5bb8:	42a2b423          	sd	a0,1064(t0) # 1428 <.LBB101_4+0x57c>
    5bbc:	00055463          	bgez	a0,5bc4 <.LBB101_350>
    5bc0:	c00008b7          	lui	a7,0xc0000

0000000000005bc4 <.LBB101_350>:
    5bc4:	00001537          	lui	a0,0x1
    5bc8:	40a40533          	sub	a0,s0,a0
    5bcc:	43153023          	sd	a7,1056(a0) # 1420 <.LBB101_4+0x574>
    5bd0:	be843503          	ld	a0,-1048(s0)
    5bd4:	ec843883          	ld	a7,-312(s0)
    5bd8:	01150533          	add	a0,a0,a7
    5bdc:	01cd88b3          	add	a7,s11,t3
    5be0:	001888b3          	add	a7,a7,ra
    5be4:	0115053b          	addw	a0,a0,a7
    5be8:	400008b7          	lui	a7,0x40000
    5bec:	000012b7          	lui	t0,0x1
    5bf0:	405402b3          	sub	t0,s0,t0
    5bf4:	3ca2b823          	sd	a0,976(t0) # 13d0 <.LBB101_4+0x524>
    5bf8:	00055463          	bgez	a0,5c00 <.LBB101_352>
    5bfc:	c00008b7          	lui	a7,0xc0000

0000000000005c00 <.LBB101_352>:
    5c00:	00001537          	lui	a0,0x1
    5c04:	40a40533          	sub	a0,s0,a0
    5c08:	3d153423          	sd	a7,968(a0) # 13c8 <.LBB101_4+0x51c>
    5c0c:	bf043503          	ld	a0,-1040(s0)
    5c10:	ed043883          	ld	a7,-304(s0)
    5c14:	01150533          	add	a0,a0,a7
    5c18:	01cd08b3          	add	a7,s10,t3
    5c1c:	001888b3          	add	a7,a7,ra
    5c20:	0115053b          	addw	a0,a0,a7
    5c24:	400008b7          	lui	a7,0x40000
    5c28:	000012b7          	lui	t0,0x1
    5c2c:	405402b3          	sub	t0,s0,t0
    5c30:	36a2b823          	sd	a0,880(t0) # 1370 <.LBB101_4+0x4c4>
    5c34:	00055463          	bgez	a0,5c3c <.LBB101_354>
    5c38:	c00008b7          	lui	a7,0xc0000

0000000000005c3c <.LBB101_354>:
    5c3c:	00001537          	lui	a0,0x1
    5c40:	40a40533          	sub	a0,s0,a0
    5c44:	37153423          	sd	a7,872(a0) # 1368 <.LBB101_4+0x4bc>
    5c48:	bf843503          	ld	a0,-1032(s0)
    5c4c:	ed843883          	ld	a7,-296(s0)
    5c50:	01150533          	add	a0,a0,a7
    5c54:	01cc88b3          	add	a7,s9,t3
    5c58:	001888b3          	add	a7,a7,ra
    5c5c:	0115053b          	addw	a0,a0,a7
    5c60:	400008b7          	lui	a7,0x40000
    5c64:	000012b7          	lui	t0,0x1
    5c68:	405402b3          	sub	t0,s0,t0
    5c6c:	30a2b423          	sd	a0,776(t0) # 1308 <.LBB101_4+0x45c>
    5c70:	00055463          	bgez	a0,5c78 <.LBB101_356>
    5c74:	c00008b7          	lui	a7,0xc0000

0000000000005c78 <.LBB101_356>:
    5c78:	00001537          	lui	a0,0x1
    5c7c:	40a40533          	sub	a0,s0,a0
    5c80:	31153023          	sd	a7,768(a0) # 1300 <.LBB101_4+0x454>
    5c84:	c0043503          	ld	a0,-1024(s0)
    5c88:	ee043883          	ld	a7,-288(s0)
    5c8c:	01150533          	add	a0,a0,a7
    5c90:	000018b7          	lui	a7,0x1
    5c94:	411408b3          	sub	a7,s0,a7
    5c98:	7008b883          	ld	a7,1792(a7) # 1700 <.LBB101_5+0x2b0>
    5c9c:	01c888b3          	add	a7,a7,t3
    5ca0:	001888b3          	add	a7,a7,ra
    5ca4:	0115053b          	addw	a0,a0,a7
    5ca8:	400008b7          	lui	a7,0x40000
    5cac:	000012b7          	lui	t0,0x1
    5cb0:	405402b3          	sub	t0,s0,t0
    5cb4:	2aa2b023          	sd	a0,672(t0) # 12a0 <.LBB101_4+0x3f4>
    5cb8:	00055463          	bgez	a0,5cc0 <.LBB101_358>
    5cbc:	c00008b7          	lui	a7,0xc0000

0000000000005cc0 <.LBB101_358>:
    5cc0:	00001537          	lui	a0,0x1
    5cc4:	40a40533          	sub	a0,s0,a0
    5cc8:	29153c23          	sd	a7,664(a0) # 1298 <.LBB101_4+0x3ec>
    5ccc:	c0843503          	ld	a0,-1016(s0)
    5cd0:	ee843883          	ld	a7,-280(s0)
    5cd4:	01150533          	add	a0,a0,a7
    5cd8:	01cb88b3          	add	a7,s7,t3
    5cdc:	001888b3          	add	a7,a7,ra
    5ce0:	0115053b          	addw	a0,a0,a7
    5ce4:	400008b7          	lui	a7,0x40000
    5ce8:	000012b7          	lui	t0,0x1
    5cec:	405402b3          	sub	t0,s0,t0
    5cf0:	22a2bc23          	sd	a0,568(t0) # 1238 <.LBB101_4+0x38c>
    5cf4:	00055463          	bgez	a0,5cfc <.LBB101_360>
    5cf8:	c00008b7          	lui	a7,0xc0000

0000000000005cfc <.LBB101_360>:
    5cfc:	00001537          	lui	a0,0x1
    5d00:	40a40533          	sub	a0,s0,a0
    5d04:	23153823          	sd	a7,560(a0) # 1230 <.LBB101_4+0x384>
    5d08:	c1043503          	ld	a0,-1008(s0)
    5d0c:	ef043883          	ld	a7,-272(s0)
    5d10:	01150533          	add	a0,a0,a7
    5d14:	01cb08b3          	add	a7,s6,t3
    5d18:	001888b3          	add	a7,a7,ra
    5d1c:	0115053b          	addw	a0,a0,a7
    5d20:	400008b7          	lui	a7,0x40000
    5d24:	000012b7          	lui	t0,0x1
    5d28:	405402b3          	sub	t0,s0,t0
    5d2c:	1ca2b023          	sd	a0,448(t0) # 11c0 <.LBB101_4+0x314>
    5d30:	00055463          	bgez	a0,5d38 <.LBB101_362>
    5d34:	c00008b7          	lui	a7,0xc0000

0000000000005d38 <.LBB101_362>:
    5d38:	00001537          	lui	a0,0x1
    5d3c:	40a40533          	sub	a0,s0,a0
    5d40:	1b153c23          	sd	a7,440(a0) # 11b8 <.LBB101_4+0x30c>
    5d44:	c1843503          	ld	a0,-1000(s0)
    5d48:	ef843883          	ld	a7,-264(s0)
    5d4c:	01150533          	add	a0,a0,a7
    5d50:	000018b7          	lui	a7,0x1
    5d54:	411408b3          	sub	a7,s0,a7
    5d58:	7188b883          	ld	a7,1816(a7) # 1718 <.LBB101_5+0x2c8>
    5d5c:	01c888b3          	add	a7,a7,t3
    5d60:	001888b3          	add	a7,a7,ra
    5d64:	0115053b          	addw	a0,a0,a7
    5d68:	400008b7          	lui	a7,0x40000
    5d6c:	000012b7          	lui	t0,0x1
    5d70:	405402b3          	sub	t0,s0,t0
    5d74:	14a2b423          	sd	a0,328(t0) # 1148 <.LBB101_4+0x29c>
    5d78:	00055463          	bgez	a0,5d80 <.LBB101_364>
    5d7c:	c00008b7          	lui	a7,0xc0000

0000000000005d80 <.LBB101_364>:
    5d80:	00001537          	lui	a0,0x1
    5d84:	40a40533          	sub	a0,s0,a0
    5d88:	15153023          	sd	a7,320(a0) # 1140 <.LBB101_4+0x294>
    5d8c:	c2043503          	ld	a0,-992(s0)
    5d90:	f0043883          	ld	a7,-256(s0)
    5d94:	01150533          	add	a0,a0,a7
    5d98:	000018b7          	lui	a7,0x1
    5d9c:	411408b3          	sub	a7,s0,a7
    5da0:	7208b883          	ld	a7,1824(a7) # 1720 <.LBB101_5+0x2d0>
    5da4:	01c888b3          	add	a7,a7,t3
    5da8:	001888b3          	add	a7,a7,ra
    5dac:	0115053b          	addw	a0,a0,a7
    5db0:	400008b7          	lui	a7,0x40000
    5db4:	000012b7          	lui	t0,0x1
    5db8:	405402b3          	sub	t0,s0,t0
    5dbc:	0ea2b023          	sd	a0,224(t0) # 10e0 <.LBB101_4+0x234>
    5dc0:	00055463          	bgez	a0,5dc8 <.LBB101_366>
    5dc4:	c00008b7          	lui	a7,0xc0000

0000000000005dc8 <.LBB101_366>:
    5dc8:	00001537          	lui	a0,0x1
    5dcc:	40a40533          	sub	a0,s0,a0
    5dd0:	0d153823          	sd	a7,208(a0) # 10d0 <.LBB101_4+0x224>
    5dd4:	c2843503          	ld	a0,-984(s0)
    5dd8:	f0843883          	ld	a7,-248(s0)
    5ddc:	01150533          	add	a0,a0,a7
    5de0:	000018b7          	lui	a7,0x1
    5de4:	411408b3          	sub	a7,s0,a7
    5de8:	7288b883          	ld	a7,1832(a7) # 1728 <.LBB101_5+0x2d8>
    5dec:	01c888b3          	add	a7,a7,t3
    5df0:	001888b3          	add	a7,a7,ra
    5df4:	0115053b          	addw	a0,a0,a7
    5df8:	400008b7          	lui	a7,0x40000
    5dfc:	000012b7          	lui	t0,0x1
    5e00:	405402b3          	sub	t0,s0,t0
    5e04:	06a2b823          	sd	a0,112(t0) # 1070 <.LBB101_4+0x1c4>
    5e08:	00055463          	bgez	a0,5e10 <.LBB101_368>
    5e0c:	c00008b7          	lui	a7,0xc0000

0000000000005e10 <.LBB101_368>:
    5e10:	00001537          	lui	a0,0x1
    5e14:	40a40533          	sub	a0,s0,a0
    5e18:	07153023          	sd	a7,96(a0) # 1060 <.LBB101_4+0x1b4>
    5e1c:	c3043503          	ld	a0,-976(s0)
    5e20:	f3843883          	ld	a7,-200(s0)
    5e24:	01150533          	add	a0,a0,a7
    5e28:	000018b7          	lui	a7,0x1
    5e2c:	411408b3          	sub	a7,s0,a7
    5e30:	7308b883          	ld	a7,1840(a7) # 1730 <.LBB101_5+0x2e0>
    5e34:	01c888b3          	add	a7,a7,t3
    5e38:	001888b3          	add	a7,a7,ra
    5e3c:	0115053b          	addw	a0,a0,a7
    5e40:	400008b7          	lui	a7,0x40000
    5e44:	000012b7          	lui	t0,0x1
    5e48:	405402b3          	sub	t0,s0,t0
    5e4c:	00a2b423          	sd	a0,8(t0) # 1008 <.LBB101_4+0x15c>
    5e50:	00055463          	bgez	a0,5e58 <.LBB101_370>
    5e54:	c00008b7          	lui	a7,0xc0000

0000000000005e58 <.LBB101_370>:
    5e58:	00001537          	lui	a0,0x1
    5e5c:	40a40533          	sub	a0,s0,a0
    5e60:	ff153c23          	sd	a7,-8(a0) # ff8 <.LBB101_4+0x14c>
    5e64:	c3843503          	ld	a0,-968(s0)
    5e68:	f4043883          	ld	a7,-192(s0)
    5e6c:	01150533          	add	a0,a0,a7
    5e70:	000018b7          	lui	a7,0x1
    5e74:	411408b3          	sub	a7,s0,a7
    5e78:	7388b883          	ld	a7,1848(a7) # 1738 <.LBB101_5+0x2e8>
    5e7c:	01c888b3          	add	a7,a7,t3
    5e80:	001888b3          	add	a7,a7,ra
    5e84:	0115053b          	addw	a0,a0,a7
    5e88:	400008b7          	lui	a7,0x40000
    5e8c:	000012b7          	lui	t0,0x1
    5e90:	405402b3          	sub	t0,s0,t0
    5e94:	f8a2b823          	sd	a0,-112(t0) # f90 <.LBB101_4+0xe4>
    5e98:	00055463          	bgez	a0,5ea0 <.LBB101_372>
    5e9c:	c00008b7          	lui	a7,0xc0000

0000000000005ea0 <.LBB101_372>:
    5ea0:	00001537          	lui	a0,0x1
    5ea4:	40a40533          	sub	a0,s0,a0
    5ea8:	f9153423          	sd	a7,-120(a0) # f88 <.LBB101_4+0xdc>
    5eac:	c4043503          	ld	a0,-960(s0)
    5eb0:	f4843883          	ld	a7,-184(s0)
    5eb4:	01150533          	add	a0,a0,a7
    5eb8:	000018b7          	lui	a7,0x1
    5ebc:	411408b3          	sub	a7,s0,a7
    5ec0:	7408b883          	ld	a7,1856(a7) # 1740 <.LBB101_5+0x2f0>
    5ec4:	01c888b3          	add	a7,a7,t3
    5ec8:	001888b3          	add	a7,a7,ra
    5ecc:	0115053b          	addw	a0,a0,a7
    5ed0:	400008b7          	lui	a7,0x40000
    5ed4:	000012b7          	lui	t0,0x1
    5ed8:	405402b3          	sub	t0,s0,t0
    5edc:	f2a2b023          	sd	a0,-224(t0) # f20 <.LBB101_4+0x74>
    5ee0:	00055463          	bgez	a0,5ee8 <.LBB101_374>
    5ee4:	c00008b7          	lui	a7,0xc0000

0000000000005ee8 <.LBB101_374>:
    5ee8:	00001537          	lui	a0,0x1
    5eec:	40a40533          	sub	a0,s0,a0
    5ef0:	f1153c23          	sd	a7,-232(a0) # f18 <.LBB101_4+0x6c>
    5ef4:	c4843503          	ld	a0,-952(s0)
    5ef8:	f5043883          	ld	a7,-176(s0)
    5efc:	01150533          	add	a0,a0,a7
    5f00:	000018b7          	lui	a7,0x1
    5f04:	411408b3          	sub	a7,s0,a7
    5f08:	7488b883          	ld	a7,1864(a7) # 1748 <.LBB101_5+0x2f8>
    5f0c:	01c888b3          	add	a7,a7,t3
    5f10:	001888b3          	add	a7,a7,ra
    5f14:	0115053b          	addw	a0,a0,a7
    5f18:	400008b7          	lui	a7,0x40000
    5f1c:	000012b7          	lui	t0,0x1
    5f20:	405402b3          	sub	t0,s0,t0
    5f24:	eaa2b423          	sd	a0,-344(t0) # ea8 <.LBB101_3+0xc54>
    5f28:	00055463          	bgez	a0,5f30 <.LBB101_376>
    5f2c:	c00008b7          	lui	a7,0xc0000

0000000000005f30 <.LBB101_376>:
    5f30:	00001537          	lui	a0,0x1
    5f34:	40a40533          	sub	a0,s0,a0
    5f38:	eb153023          	sd	a7,-352(a0) # ea0 <.LBB101_3+0xc4c>
    5f3c:	c5043503          	ld	a0,-944(s0)
    5f40:	f5843883          	ld	a7,-168(s0)
    5f44:	01150533          	add	a0,a0,a7
    5f48:	000018b7          	lui	a7,0x1
    5f4c:	411408b3          	sub	a7,s0,a7
    5f50:	7508b883          	ld	a7,1872(a7) # 1750 <.LBB101_5+0x300>
    5f54:	01c888b3          	add	a7,a7,t3
    5f58:	001888b3          	add	a7,a7,ra
    5f5c:	0115053b          	addw	a0,a0,a7
    5f60:	400008b7          	lui	a7,0x40000
    5f64:	000012b7          	lui	t0,0x1
    5f68:	405402b3          	sub	t0,s0,t0
    5f6c:	e2a2bc23          	sd	a0,-456(t0) # e38 <.LBB101_3+0xbe4>
    5f70:	00055463          	bgez	a0,5f78 <.LBB101_378>
    5f74:	c00008b7          	lui	a7,0xc0000

0000000000005f78 <.LBB101_378>:
    5f78:	00001537          	lui	a0,0x1
    5f7c:	40a40533          	sub	a0,s0,a0
    5f80:	e3153823          	sd	a7,-464(a0) # e30 <.LBB101_3+0xbdc>
    5f84:	c5843503          	ld	a0,-936(s0)
    5f88:	f6043883          	ld	a7,-160(s0)
    5f8c:	01150533          	add	a0,a0,a7
    5f90:	000018b7          	lui	a7,0x1
    5f94:	411408b3          	sub	a7,s0,a7
    5f98:	7588b883          	ld	a7,1880(a7) # 1758 <.LBB101_5+0x308>
    5f9c:	01c888b3          	add	a7,a7,t3
    5fa0:	001888b3          	add	a7,a7,ra
    5fa4:	0115053b          	addw	a0,a0,a7
    5fa8:	400008b7          	lui	a7,0x40000
    5fac:	000012b7          	lui	t0,0x1
    5fb0:	405402b3          	sub	t0,s0,t0
    5fb4:	dca2b023          	sd	a0,-576(t0) # dc0 <.LBB101_3+0xb6c>
    5fb8:	00055463          	bgez	a0,5fc0 <.LBB101_380>
    5fbc:	c00008b7          	lui	a7,0xc0000

0000000000005fc0 <.LBB101_380>:
    5fc0:	00001537          	lui	a0,0x1
    5fc4:	40a40533          	sub	a0,s0,a0
    5fc8:	db153c23          	sd	a7,-584(a0) # db8 <.LBB101_3+0xb64>
    5fcc:	c6043503          	ld	a0,-928(s0)
    5fd0:	f6843883          	ld	a7,-152(s0)
    5fd4:	01150533          	add	a0,a0,a7
    5fd8:	01c988b3          	add	a7,s3,t3
    5fdc:	001888b3          	add	a7,a7,ra
    5fe0:	0115053b          	addw	a0,a0,a7
    5fe4:	400008b7          	lui	a7,0x40000
    5fe8:	000012b7          	lui	t0,0x1
    5fec:	405402b3          	sub	t0,s0,t0
    5ff0:	d4a2b823          	sd	a0,-688(t0) # d50 <.LBB101_3+0xafc>
    5ff4:	00055463          	bgez	a0,5ffc <.LBB101_382>
    5ff8:	c00008b7          	lui	a7,0xc0000

0000000000005ffc <.LBB101_382>:
    5ffc:	00001537          	lui	a0,0x1
    6000:	40a40533          	sub	a0,s0,a0
    6004:	d5153423          	sd	a7,-696(a0) # d48 <.LBB101_3+0xaf4>
    6008:	f7043503          	ld	a0,-144(s0)
    600c:	c6843883          	ld	a7,-920(s0)
    6010:	00a88533          	add	a0,a7,a0
    6014:	01cf88b3          	add	a7,t6,t3
    6018:	001888b3          	add	a7,a7,ra
    601c:	0115053b          	addw	a0,a0,a7
    6020:	400008b7          	lui	a7,0x40000
    6024:	000012b7          	lui	t0,0x1
    6028:	405402b3          	sub	t0,s0,t0
    602c:	cca2b823          	sd	a0,-816(t0) # cd0 <.LBB101_3+0xa7c>
    6030:	00055463          	bgez	a0,6038 <.LBB101_384>
    6034:	c00008b7          	lui	a7,0xc0000

0000000000006038 <.LBB101_384>:
    6038:	00001537          	lui	a0,0x1
    603c:	40a40533          	sub	a0,s0,a0
    6040:	cd153423          	sd	a7,-824(a0) # cc8 <.LBB101_3+0xa74>
    6044:	f7843503          	ld	a0,-136(s0)
    6048:	00ae8533          	add	a0,t4,a0
    604c:	01ca88b3          	add	a7,s5,t3
    6050:	001888b3          	add	a7,a7,ra
    6054:	011508bb          	addw	a7,a0,a7
    6058:	40000537          	lui	a0,0x40000
    605c:	000012b7          	lui	t0,0x1
    6060:	405402b3          	sub	t0,s0,t0
    6064:	bf12b823          	sd	a7,-1040(t0) # bf0 <.LBB101_3+0x99c>
    6068:	0008d463          	bgez	a7,6070 <.LBB101_386>
    606c:	c0000537          	lui	a0,0xc0000

0000000000006070 <.LBB101_386>:
    6070:	000018b7          	lui	a7,0x1
    6074:	411408b3          	sub	a7,s0,a7
    6078:	c6a8b823          	sd	a0,-912(a7) # c70 <.LBB101_3+0xa1c>
    607c:	c7843503          	ld	a0,-904(s0)
    6080:	f8043883          	ld	a7,-128(s0)
    6084:	01150533          	add	a0,a0,a7
    6088:	01c388b3          	add	a7,t2,t3
    608c:	001888b3          	add	a7,a7,ra
    6090:	0115053b          	addw	a0,a0,a7
    6094:	400008b7          	lui	a7,0x40000
    6098:	00055463          	bgez	a0,60a0 <.LBB101_388>
    609c:	c00008b7          	lui	a7,0xc0000

00000000000060a0 <.LBB101_388>:
    60a0:	000012b7          	lui	t0,0x1
    60a4:	405402b3          	sub	t0,s0,t0
    60a8:	c112bc23          	sd	a7,-1000(t0) # c18 <.LBB101_3+0x9c4>
    60ac:	f8843883          	ld	a7,-120(s0)
    60b0:	c8043283          	ld	t0,-896(s0)
    60b4:	011288b3          	add	a7,t0,a7
    60b8:	01ca0e33          	add	t3,s4,t3
    60bc:	001e0e33          	add	t3,t3,ra
    60c0:	01c882bb          	addw	t0,a7,t3
    60c4:	400008b7          	lui	a7,0x40000
    60c8:	0002d463          	bgez	t0,60d0 <.LBB101_390>
    60cc:	c00008b7          	lui	a7,0xc0000

00000000000060d0 <.LBB101_390>:
    60d0:	00001e37          	lui	t3,0x1
    60d4:	41c40e33          	sub	t3,s0,t3
    60d8:	bd1e3023          	sd	a7,-1088(t3) # bc0 <.LBB101_3+0x96c>
    60dc:	000018b7          	lui	a7,0x1
    60e0:	411408b3          	sub	a7,s0,a7
    60e4:	5808be83          	ld	t4,1408(a7) # 1580 <.LBB101_5+0x130>
    60e8:	004e9893          	slli	a7,t4,0x4
    60ec:	eb043e03          	ld	t3,-336(s0)
    60f0:	c8843f03          	ld	t5,-888(s0)
    60f4:	01cf0e33          	add	t3,t5,t3
    60f8:	01d888b3          	add	a7,a7,t4
    60fc:	ea843e83          	ld	t4,-344(s0)
    6100:	011e8eb3          	add	t4,t4,a7
    6104:	01de0e33          	add	t3,t3,t4
    6108:	001e0e3b          	addw	t3,t3,ra
    610c:	40000eb7          	lui	t4,0x40000
    6110:	95c43823          	sd	t3,-1712(s0)
    6114:	000e5463          	bgez	t3,611c <.LBB101_392>
    6118:	c0000eb7          	lui	t4,0xc0000

000000000000611c <.LBB101_392>:
    611c:	95d43023          	sd	t4,-1728(s0)
    6120:	c9043e03          	ld	t3,-880(s0)
    6124:	ea043e83          	ld	t4,-352(s0)
    6128:	01de0e33          	add	t3,t3,t4
    612c:	e9843e83          	ld	t4,-360(s0)
    6130:	011e8eb3          	add	t4,t4,a7
    6134:	01de0e33          	add	t3,t3,t4
    6138:	001e0e3b          	addw	t3,t3,ra
    613c:	40000eb7          	lui	t4,0x40000
    6140:	93c43823          	sd	t3,-1744(s0)
    6144:	000e5463          	bgez	t3,614c <.LBB101_394>
    6148:	c0000eb7          	lui	t4,0xc0000

000000000000614c <.LBB101_394>:
    614c:	93d43023          	sd	t4,-1760(s0)
    6150:	c9843e03          	ld	t3,-872(s0)
    6154:	e9043e83          	ld	t4,-368(s0)
    6158:	01de0e33          	add	t3,t3,t4
    615c:	e8843e83          	ld	t4,-376(s0)
    6160:	011e8eb3          	add	t4,t4,a7
    6164:	01de0e33          	add	t3,t3,t4
    6168:	001e0e3b          	addw	t3,t3,ra
    616c:	40000eb7          	lui	t4,0x40000
    6170:	91c43823          	sd	t3,-1776(s0)
    6174:	000e5463          	bgez	t3,617c <.LBB101_396>
    6178:	c0000eb7          	lui	t4,0xc0000

000000000000617c <.LBB101_396>:
    617c:	91d43023          	sd	t4,-1792(s0)
    6180:	ca043e03          	ld	t3,-864(s0)
    6184:	e8043e83          	ld	t4,-384(s0)
    6188:	01de0e33          	add	t3,t3,t4
    618c:	e7843e83          	ld	t4,-392(s0)
    6190:	011e8eb3          	add	t4,t4,a7
    6194:	01de0e33          	add	t3,t3,t4
    6198:	001e0e3b          	addw	t3,t3,ra
    619c:	40000eb7          	lui	t4,0x40000
    61a0:	8fc43823          	sd	t3,-1808(s0)
    61a4:	000e5463          	bgez	t3,61ac <.LBB101_398>
    61a8:	c0000eb7          	lui	t4,0xc0000

00000000000061ac <.LBB101_398>:
    61ac:	8fd43423          	sd	t4,-1816(s0)
    61b0:	ca843e03          	ld	t3,-856(s0)
    61b4:	e7043e83          	ld	t4,-400(s0)
    61b8:	01de0e33          	add	t3,t3,t4
    61bc:	e6843e83          	ld	t4,-408(s0)
    61c0:	011e8eb3          	add	t4,t4,a7
    61c4:	01de0e33          	add	t3,t3,t4
    61c8:	001e0e3b          	addw	t3,t3,ra
    61cc:	40000eb7          	lui	t4,0x40000
    61d0:	8fc43c23          	sd	t3,-1800(s0)
    61d4:	000e5463          	bgez	t3,61dc <.LBB101_400>
    61d8:	c0000eb7          	lui	t4,0xc0000

00000000000061dc <.LBB101_400>:
    61dc:	8fd43023          	sd	t4,-1824(s0)
    61e0:	cb043e03          	ld	t3,-848(s0)
    61e4:	00001eb7          	lui	t4,0x1
    61e8:	41d40eb3          	sub	t4,s0,t4
    61ec:	6c8ebe83          	ld	t4,1736(t4) # 16c8 <.LBB101_5+0x278>
    61f0:	01de0e33          	add	t3,t3,t4
    61f4:	00001eb7          	lui	t4,0x1
    61f8:	41d40eb3          	sub	t4,s0,t4
    61fc:	6c0ebe83          	ld	t4,1728(t4) # 16c0 <.LBB101_5+0x270>
    6200:	011e8eb3          	add	t4,t4,a7
    6204:	01de0e33          	add	t3,t3,t4
    6208:	001e0e3b          	addw	t3,t3,ra
    620c:	40000eb7          	lui	t4,0x40000
    6210:	8bc43c23          	sd	t3,-1864(s0)
    6214:	000e5463          	bgez	t3,621c <.LBB101_402>
    6218:	c0000eb7          	lui	t4,0xc0000

000000000000621c <.LBB101_402>:
    621c:	85d43823          	sd	t4,-1968(s0)
    6220:	cb843e03          	ld	t3,-840(s0)
    6224:	00001eb7          	lui	t4,0x1
    6228:	41d40eb3          	sub	t4,s0,t4
    622c:	6b8ebe83          	ld	t4,1720(t4) # 16b8 <.LBB101_5+0x268>
    6230:	01de0e33          	add	t3,t3,t4
    6234:	00001eb7          	lui	t4,0x1
    6238:	41d40eb3          	sub	t4,s0,t4
    623c:	6b0ebe83          	ld	t4,1712(t4) # 16b0 <.LBB101_5+0x260>
    6240:	011e8eb3          	add	t4,t4,a7
    6244:	01de0e33          	add	t3,t3,t4
    6248:	001e0e3b          	addw	t3,t3,ra
    624c:	40000eb7          	lui	t4,0x40000
    6250:	00001f37          	lui	t5,0x1
    6254:	41e40f33          	sub	t5,s0,t5
    6258:	7dcf3023          	sd	t3,1984(t5) # 17c0 <.LBB101_5+0x370>
    625c:	000e5463          	bgez	t3,6264 <.LBB101_404>
    6260:	c0000eb7          	lui	t4,0xc0000

0000000000006264 <.LBB101_404>:
    6264:	00001e37          	lui	t3,0x1
    6268:	41c40e33          	sub	t3,s0,t3
    626c:	6fde3823          	sd	t4,1776(t3) # 16f0 <.LBB101_5+0x2a0>
    6270:	cc043e03          	ld	t3,-832(s0)
    6274:	00001eb7          	lui	t4,0x1
    6278:	41d40eb3          	sub	t4,s0,t4
    627c:	6a8ebe83          	ld	t4,1704(t4) # 16a8 <.LBB101_5+0x258>
    6280:	01de0e33          	add	t3,t3,t4
    6284:	00001eb7          	lui	t4,0x1
    6288:	41d40eb3          	sub	t4,s0,t4
    628c:	6a0ebe83          	ld	t4,1696(t4) # 16a0 <.LBB101_5+0x250>
    6290:	011e8eb3          	add	t4,t4,a7
    6294:	01de0e33          	add	t3,t3,t4
    6298:	001e0e3b          	addw	t3,t3,ra
    629c:	40000eb7          	lui	t4,0x40000
    62a0:	00001f37          	lui	t5,0x1
    62a4:	41e40f33          	sub	t5,s0,t5
    62a8:	59cf3023          	sd	t3,1408(t5) # 1580 <.LBB101_5+0x130>
    62ac:	000e5463          	bgez	t3,62b4 <.LBB101_406>
    62b0:	c0000eb7          	lui	t4,0xc0000

00000000000062b4 <.LBB101_406>:
    62b4:	00001e37          	lui	t3,0x1
    62b8:	41c40e33          	sub	t3,s0,t3
    62bc:	57de3c23          	sd	t4,1400(t3) # 1578 <.LBB101_5+0x128>
    62c0:	cc843e03          	ld	t3,-824(s0)
    62c4:	00001eb7          	lui	t4,0x1
    62c8:	41d40eb3          	sub	t4,s0,t4
    62cc:	698ebe83          	ld	t4,1688(t4) # 1698 <.LBB101_5+0x248>
    62d0:	01de0e33          	add	t3,t3,t4
    62d4:	00001eb7          	lui	t4,0x1
    62d8:	41d40eb3          	sub	t4,s0,t4
    62dc:	690ebe83          	ld	t4,1680(t4) # 1690 <.LBB101_5+0x240>
    62e0:	011e8eb3          	add	t4,t4,a7
    62e4:	01de0e33          	add	t3,t3,t4
    62e8:	001e0e3b          	addw	t3,t3,ra
    62ec:	40000eb7          	lui	t4,0x40000
    62f0:	00001f37          	lui	t5,0x1
    62f4:	41e40f33          	sub	t5,s0,t5
    62f8:	53cf3423          	sd	t3,1320(t5) # 1528 <.LBB101_5+0xd8>
    62fc:	000e5463          	bgez	t3,6304 <.LBB101_408>
    6300:	c0000eb7          	lui	t4,0xc0000

0000000000006304 <.LBB101_408>:
    6304:	00001e37          	lui	t3,0x1
    6308:	41c40e33          	sub	t3,s0,t3
    630c:	53de3023          	sd	t4,1312(t3) # 1520 <.LBB101_5+0xd0>
    6310:	cd043e03          	ld	t3,-816(s0)
    6314:	00001eb7          	lui	t4,0x1
    6318:	41d40eb3          	sub	t4,s0,t4
    631c:	688ebe83          	ld	t4,1672(t4) # 1688 <.LBB101_5+0x238>
    6320:	01de0e33          	add	t3,t3,t4
    6324:	00001eb7          	lui	t4,0x1
    6328:	41d40eb3          	sub	t4,s0,t4
    632c:	6d0ebe83          	ld	t4,1744(t4) # 16d0 <.LBB101_5+0x280>
    6330:	011e8eb3          	add	t4,t4,a7
    6334:	01de0e33          	add	t3,t3,t4
    6338:	001e0e3b          	addw	t3,t3,ra
    633c:	40000eb7          	lui	t4,0x40000
    6340:	00001f37          	lui	t5,0x1
    6344:	41e40f33          	sub	t5,s0,t5
    6348:	4dcf3423          	sd	t3,1224(t5) # 14c8 <.LBB101_5+0x78>
    634c:	000e5463          	bgez	t3,6354 <.LBB101_410>
    6350:	c0000eb7          	lui	t4,0xc0000

0000000000006354 <.LBB101_410>:
    6354:	00001e37          	lui	t3,0x1
    6358:	41c40e33          	sub	t3,s0,t3
    635c:	4dde3023          	sd	t4,1216(t3) # 14c0 <.LBB101_5+0x70>
    6360:	cd843e03          	ld	t3,-808(s0)
    6364:	eb843e83          	ld	t4,-328(s0)
    6368:	01de0e33          	add	t3,t3,t4
    636c:	00001eb7          	lui	t4,0x1
    6370:	41d40eb3          	sub	t4,s0,t4
    6374:	6d8ebe83          	ld	t4,1752(t4) # 16d8 <.LBB101_5+0x288>
    6378:	011e8eb3          	add	t4,t4,a7
    637c:	01de0e33          	add	t3,t3,t4
    6380:	001e0e3b          	addw	t3,t3,ra
    6384:	40000eb7          	lui	t4,0x40000
    6388:	00001f37          	lui	t5,0x1
    638c:	41e40f33          	sub	t5,s0,t5
    6390:	47cf3823          	sd	t3,1136(t5) # 1470 <.LBB101_5+0x20>
    6394:	000e5463          	bgez	t3,639c <.LBB101_412>
    6398:	c0000eb7          	lui	t4,0xc0000

000000000000639c <.LBB101_412>:
    639c:	00001e37          	lui	t3,0x1
    63a0:	41c40e33          	sub	t3,s0,t3
    63a4:	47de3423          	sd	t4,1128(t3) # 1468 <.LBB101_5+0x18>
    63a8:	ce043e03          	ld	t3,-800(s0)
    63ac:	ec043e83          	ld	t4,-320(s0)
    63b0:	01de0e33          	add	t3,t3,t4
    63b4:	00001eb7          	lui	t4,0x1
    63b8:	41d40eb3          	sub	t4,s0,t4
    63bc:	6e0ebe83          	ld	t4,1760(t4) # 16e0 <.LBB101_5+0x290>
    63c0:	011e8eb3          	add	t4,t4,a7
    63c4:	01de0e33          	add	t3,t3,t4
    63c8:	001e0e3b          	addw	t3,t3,ra
    63cc:	40000eb7          	lui	t4,0x40000
    63d0:	00001f37          	lui	t5,0x1
    63d4:	41e40f33          	sub	t5,s0,t5
    63d8:	41cf3c23          	sd	t3,1048(t5) # 1418 <.LBB101_4+0x56c>
    63dc:	000e5463          	bgez	t3,63e4 <.LBB101_414>
    63e0:	c0000eb7          	lui	t4,0xc0000

00000000000063e4 <.LBB101_414>:
    63e4:	00001e37          	lui	t3,0x1
    63e8:	41c40e33          	sub	t3,s0,t3
    63ec:	41de3823          	sd	t4,1040(t3) # 1410 <.LBB101_4+0x564>
    63f0:	ce843e03          	ld	t3,-792(s0)
    63f4:	ec843e83          	ld	t4,-312(s0)
    63f8:	01de0e33          	add	t3,t3,t4
    63fc:	011d8eb3          	add	t4,s11,a7
    6400:	01de0e33          	add	t3,t3,t4
    6404:	001e0e3b          	addw	t3,t3,ra
    6408:	40000eb7          	lui	t4,0x40000
    640c:	00001f37          	lui	t5,0x1
    6410:	41e40f33          	sub	t5,s0,t5
    6414:	3dcf3023          	sd	t3,960(t5) # 13c0 <.LBB101_4+0x514>
    6418:	000e5463          	bgez	t3,6420 <.LBB101_416>
    641c:	c0000eb7          	lui	t4,0xc0000

0000000000006420 <.LBB101_416>:
    6420:	00001e37          	lui	t3,0x1
    6424:	41c40e33          	sub	t3,s0,t3
    6428:	3bde3c23          	sd	t4,952(t3) # 13b8 <.LBB101_4+0x50c>
    642c:	cf043e03          	ld	t3,-784(s0)
    6430:	ed043e83          	ld	t4,-304(s0)
    6434:	01de0e33          	add	t3,t3,t4
    6438:	011d0eb3          	add	t4,s10,a7
    643c:	01de0e33          	add	t3,t3,t4
    6440:	001e0e3b          	addw	t3,t3,ra
    6444:	40000eb7          	lui	t4,0x40000
    6448:	00001f37          	lui	t5,0x1
    644c:	41e40f33          	sub	t5,s0,t5
    6450:	37cf3023          	sd	t3,864(t5) # 1360 <.LBB101_4+0x4b4>
    6454:	000e5463          	bgez	t3,645c <.LBB101_418>
    6458:	c0000eb7          	lui	t4,0xc0000

000000000000645c <.LBB101_418>:
    645c:	00001e37          	lui	t3,0x1
    6460:	41c40e33          	sub	t3,s0,t3
    6464:	35de3c23          	sd	t4,856(t3) # 1358 <.LBB101_4+0x4ac>
    6468:	cf843e03          	ld	t3,-776(s0)
    646c:	ed843e83          	ld	t4,-296(s0)
    6470:	01de0e33          	add	t3,t3,t4
    6474:	011c8eb3          	add	t4,s9,a7
    6478:	01de0e33          	add	t3,t3,t4
    647c:	001e0e3b          	addw	t3,t3,ra
    6480:	40000eb7          	lui	t4,0x40000
    6484:	00001f37          	lui	t5,0x1
    6488:	41e40f33          	sub	t5,s0,t5
    648c:	2fcf3c23          	sd	t3,760(t5) # 12f8 <.LBB101_4+0x44c>
    6490:	000e5463          	bgez	t3,6498 <.LBB101_420>
    6494:	c0000eb7          	lui	t4,0xc0000

0000000000006498 <.LBB101_420>:
    6498:	00001e37          	lui	t3,0x1
    649c:	41c40e33          	sub	t3,s0,t3
    64a0:	2fde3823          	sd	t4,752(t3) # 12f0 <.LBB101_4+0x444>
    64a4:	d0043e03          	ld	t3,-768(s0)
    64a8:	ee043e83          	ld	t4,-288(s0)
    64ac:	01de0e33          	add	t3,t3,t4
    64b0:	00001eb7          	lui	t4,0x1
    64b4:	41d40eb3          	sub	t4,s0,t4
    64b8:	700ebe83          	ld	t4,1792(t4) # 1700 <.LBB101_5+0x2b0>
    64bc:	011e8eb3          	add	t4,t4,a7
    64c0:	01de0e33          	add	t3,t3,t4
    64c4:	001e0e3b          	addw	t3,t3,ra
    64c8:	40000eb7          	lui	t4,0x40000
    64cc:	00001f37          	lui	t5,0x1
    64d0:	41e40f33          	sub	t5,s0,t5
    64d4:	29cf3823          	sd	t3,656(t5) # 1290 <.LBB101_4+0x3e4>
    64d8:	000e5463          	bgez	t3,64e0 <.LBB101_422>
    64dc:	c0000eb7          	lui	t4,0xc0000

00000000000064e0 <.LBB101_422>:
    64e0:	00001e37          	lui	t3,0x1
    64e4:	41c40e33          	sub	t3,s0,t3
    64e8:	29de3423          	sd	t4,648(t3) # 1288 <.LBB101_4+0x3dc>
    64ec:	d0843e03          	ld	t3,-760(s0)
    64f0:	ee843e83          	ld	t4,-280(s0)
    64f4:	01de0e33          	add	t3,t3,t4
    64f8:	011b8eb3          	add	t4,s7,a7
    64fc:	01de0e33          	add	t3,t3,t4
    6500:	001e0e3b          	addw	t3,t3,ra
    6504:	40000eb7          	lui	t4,0x40000
    6508:	00001f37          	lui	t5,0x1
    650c:	41e40f33          	sub	t5,s0,t5
    6510:	23cf3423          	sd	t3,552(t5) # 1228 <.LBB101_4+0x37c>
    6514:	000e5463          	bgez	t3,651c <.LBB101_424>
    6518:	c0000eb7          	lui	t4,0xc0000

000000000000651c <.LBB101_424>:
    651c:	00001e37          	lui	t3,0x1
    6520:	41c40e33          	sub	t3,s0,t3
    6524:	23de3023          	sd	t4,544(t3) # 1220 <.LBB101_4+0x374>
    6528:	d1043e03          	ld	t3,-752(s0)
    652c:	ef043e83          	ld	t4,-272(s0)
    6530:	01de0e33          	add	t3,t3,t4
    6534:	011b0eb3          	add	t4,s6,a7
    6538:	01de0e33          	add	t3,t3,t4
    653c:	001e0e3b          	addw	t3,t3,ra
    6540:	40000eb7          	lui	t4,0x40000
    6544:	00001f37          	lui	t5,0x1
    6548:	41e40f33          	sub	t5,s0,t5
    654c:	1bcf3823          	sd	t3,432(t5) # 11b0 <.LBB101_4+0x304>
    6550:	000e5463          	bgez	t3,6558 <.LBB101_426>
    6554:	c0000eb7          	lui	t4,0xc0000

0000000000006558 <.LBB101_426>:
    6558:	00001e37          	lui	t3,0x1
    655c:	41c40e33          	sub	t3,s0,t3
    6560:	1bde3423          	sd	t4,424(t3) # 11a8 <.LBB101_4+0x2fc>
    6564:	d1843e03          	ld	t3,-744(s0)
    6568:	ef843e83          	ld	t4,-264(s0)
    656c:	01de0e33          	add	t3,t3,t4
    6570:	00001eb7          	lui	t4,0x1
    6574:	41d40eb3          	sub	t4,s0,t4
    6578:	718ebe83          	ld	t4,1816(t4) # 1718 <.LBB101_5+0x2c8>
    657c:	011e8eb3          	add	t4,t4,a7
    6580:	01de0e33          	add	t3,t3,t4
    6584:	001e0e3b          	addw	t3,t3,ra
    6588:	40000eb7          	lui	t4,0x40000
    658c:	00001f37          	lui	t5,0x1
    6590:	41e40f33          	sub	t5,s0,t5
    6594:	13cf3c23          	sd	t3,312(t5) # 1138 <.LBB101_4+0x28c>
    6598:	000e5463          	bgez	t3,65a0 <.LBB101_428>
    659c:	c0000eb7          	lui	t4,0xc0000

00000000000065a0 <.LBB101_428>:
    65a0:	00001e37          	lui	t3,0x1
    65a4:	41c40e33          	sub	t3,s0,t3
    65a8:	13de3823          	sd	t4,304(t3) # 1130 <.LBB101_4+0x284>
    65ac:	d2043e03          	ld	t3,-736(s0)
    65b0:	f0043e83          	ld	t4,-256(s0)
    65b4:	01de0e33          	add	t3,t3,t4
    65b8:	00001eb7          	lui	t4,0x1
    65bc:	41d40eb3          	sub	t4,s0,t4
    65c0:	720ebe83          	ld	t4,1824(t4) # 1720 <.LBB101_5+0x2d0>
    65c4:	011e8eb3          	add	t4,t4,a7
    65c8:	01de0e33          	add	t3,t3,t4
    65cc:	001e0e3b          	addw	t3,t3,ra
    65d0:	40000eb7          	lui	t4,0x40000
    65d4:	00001f37          	lui	t5,0x1
    65d8:	41e40f33          	sub	t5,s0,t5
    65dc:	0dcf3423          	sd	t3,200(t5) # 10c8 <.LBB101_4+0x21c>
    65e0:	000e5463          	bgez	t3,65e8 <.LBB101_430>
    65e4:	c0000eb7          	lui	t4,0xc0000

00000000000065e8 <.LBB101_430>:
    65e8:	00001e37          	lui	t3,0x1
    65ec:	41c40e33          	sub	t3,s0,t3
    65f0:	0dde3023          	sd	t4,192(t3) # 10c0 <.LBB101_4+0x214>
    65f4:	d2843e03          	ld	t3,-728(s0)
    65f8:	f0843e83          	ld	t4,-248(s0)
    65fc:	01de0e33          	add	t3,t3,t4
    6600:	00001eb7          	lui	t4,0x1
    6604:	41d40eb3          	sub	t4,s0,t4
    6608:	728ebe83          	ld	t4,1832(t4) # 1728 <.LBB101_5+0x2d8>
    660c:	011e8eb3          	add	t4,t4,a7
    6610:	01de0e33          	add	t3,t3,t4
    6614:	001e0e3b          	addw	t3,t3,ra
    6618:	40000eb7          	lui	t4,0x40000
    661c:	00001f37          	lui	t5,0x1
    6620:	41e40f33          	sub	t5,s0,t5
    6624:	05cf3c23          	sd	t3,88(t5) # 1058 <.LBB101_4+0x1ac>
    6628:	000e5463          	bgez	t3,6630 <.LBB101_432>
    662c:	c0000eb7          	lui	t4,0xc0000

0000000000006630 <.LBB101_432>:
    6630:	00001e37          	lui	t3,0x1
    6634:	41c40e33          	sub	t3,s0,t3
    6638:	05de3823          	sd	t4,80(t3) # 1050 <.LBB101_4+0x1a4>
    663c:	d3043e03          	ld	t3,-720(s0)
    6640:	f3843e83          	ld	t4,-200(s0)
    6644:	01de0e33          	add	t3,t3,t4
    6648:	00001eb7          	lui	t4,0x1
    664c:	41d40eb3          	sub	t4,s0,t4
    6650:	730ebe83          	ld	t4,1840(t4) # 1730 <.LBB101_5+0x2e0>
    6654:	011e8eb3          	add	t4,t4,a7
    6658:	01de0e33          	add	t3,t3,t4
    665c:	001e0e3b          	addw	t3,t3,ra
    6660:	40000eb7          	lui	t4,0x40000
    6664:	00001f37          	lui	t5,0x1
    6668:	41e40f33          	sub	t5,s0,t5
    666c:	ffcf3823          	sd	t3,-16(t5) # ff0 <.LBB101_4+0x144>
    6670:	000e5463          	bgez	t3,6678 <.LBB101_434>
    6674:	c0000eb7          	lui	t4,0xc0000

0000000000006678 <.LBB101_434>:
    6678:	00001e37          	lui	t3,0x1
    667c:	41c40e33          	sub	t3,s0,t3
    6680:	ffde3023          	sd	t4,-32(t3) # fe0 <.LBB101_4+0x134>
    6684:	d3843e03          	ld	t3,-712(s0)
    6688:	f4043e83          	ld	t4,-192(s0)
    668c:	01de0e33          	add	t3,t3,t4
    6690:	00001eb7          	lui	t4,0x1
    6694:	41d40eb3          	sub	t4,s0,t4
    6698:	738ebe83          	ld	t4,1848(t4) # 1738 <.LBB101_5+0x2e8>
    669c:	011e8eb3          	add	t4,t4,a7
    66a0:	01de0e33          	add	t3,t3,t4
    66a4:	001e0e3b          	addw	t3,t3,ra
    66a8:	40000eb7          	lui	t4,0x40000
    66ac:	00001f37          	lui	t5,0x1
    66b0:	41e40f33          	sub	t5,s0,t5
    66b4:	f7cf3c23          	sd	t3,-136(t5) # f78 <.LBB101_4+0xcc>
    66b8:	000e5463          	bgez	t3,66c0 <.LBB101_436>
    66bc:	c0000eb7          	lui	t4,0xc0000

00000000000066c0 <.LBB101_436>:
    66c0:	00001e37          	lui	t3,0x1
    66c4:	41c40e33          	sub	t3,s0,t3
    66c8:	f7de3423          	sd	t4,-152(t3) # f68 <.LBB101_4+0xbc>
    66cc:	d4043e03          	ld	t3,-704(s0)
    66d0:	f4843e83          	ld	t4,-184(s0)
    66d4:	01de0e33          	add	t3,t3,t4
    66d8:	00001eb7          	lui	t4,0x1
    66dc:	41d40eb3          	sub	t4,s0,t4
    66e0:	740ebe83          	ld	t4,1856(t4) # 1740 <.LBB101_5+0x2f0>
    66e4:	011e8eb3          	add	t4,t4,a7
    66e8:	01de0e33          	add	t3,t3,t4
    66ec:	001e0e3b          	addw	t3,t3,ra
    66f0:	40000eb7          	lui	t4,0x40000
    66f4:	00001f37          	lui	t5,0x1
    66f8:	41e40f33          	sub	t5,s0,t5
    66fc:	f1cf3823          	sd	t3,-240(t5) # f10 <.LBB101_4+0x64>
    6700:	000e5463          	bgez	t3,6708 <.LBB101_438>
    6704:	c0000eb7          	lui	t4,0xc0000

0000000000006708 <.LBB101_438>:
    6708:	00001e37          	lui	t3,0x1
    670c:	41c40e33          	sub	t3,s0,t3
    6710:	f1de3023          	sd	t4,-256(t3) # f00 <.LBB101_4+0x54>
    6714:	d4843e03          	ld	t3,-696(s0)
    6718:	f5043e83          	ld	t4,-176(s0)
    671c:	01de0e33          	add	t3,t3,t4
    6720:	00001eb7          	lui	t4,0x1
    6724:	41d40eb3          	sub	t4,s0,t4
    6728:	748ebe83          	ld	t4,1864(t4) # 1748 <.LBB101_5+0x2f8>
    672c:	011e8eb3          	add	t4,t4,a7
    6730:	01de0e33          	add	t3,t3,t4
    6734:	001e0e3b          	addw	t3,t3,ra
    6738:	40000eb7          	lui	t4,0x40000
    673c:	00001f37          	lui	t5,0x1
    6740:	41e40f33          	sub	t5,s0,t5
    6744:	e9cf3c23          	sd	t3,-360(t5) # e98 <.LBB101_3+0xc44>
    6748:	000e5463          	bgez	t3,6750 <.LBB101_440>
    674c:	c0000eb7          	lui	t4,0xc0000

0000000000006750 <.LBB101_440>:
    6750:	00001e37          	lui	t3,0x1
    6754:	41c40e33          	sub	t3,s0,t3
    6758:	e9de3823          	sd	t4,-368(t3) # e90 <.LBB101_3+0xc3c>
    675c:	d5043e03          	ld	t3,-688(s0)
    6760:	f5843e83          	ld	t4,-168(s0)
    6764:	01de0e33          	add	t3,t3,t4
    6768:	00001eb7          	lui	t4,0x1
    676c:	41d40eb3          	sub	t4,s0,t4
    6770:	750ebe83          	ld	t4,1872(t4) # 1750 <.LBB101_5+0x300>
    6774:	011e8eb3          	add	t4,t4,a7
    6778:	01de0e33          	add	t3,t3,t4
    677c:	001e0e3b          	addw	t3,t3,ra
    6780:	40000eb7          	lui	t4,0x40000
    6784:	00001f37          	lui	t5,0x1
    6788:	41e40f33          	sub	t5,s0,t5
    678c:	e3cf3423          	sd	t3,-472(t5) # e28 <.LBB101_3+0xbd4>
    6790:	000e5463          	bgez	t3,6798 <.LBB101_442>
    6794:	c0000eb7          	lui	t4,0xc0000

0000000000006798 <.LBB101_442>:
    6798:	00001e37          	lui	t3,0x1
    679c:	41c40e33          	sub	t3,s0,t3
    67a0:	e3de3023          	sd	t4,-480(t3) # e20 <.LBB101_3+0xbcc>
    67a4:	d5843e03          	ld	t3,-680(s0)
    67a8:	f6043e83          	ld	t4,-160(s0)
    67ac:	01de0e33          	add	t3,t3,t4
    67b0:	00001eb7          	lui	t4,0x1
    67b4:	41d40eb3          	sub	t4,s0,t4
    67b8:	758ebe83          	ld	t4,1880(t4) # 1758 <.LBB101_5+0x308>
    67bc:	011e8eb3          	add	t4,t4,a7
    67c0:	01de0e33          	add	t3,t3,t4
    67c4:	001e0e3b          	addw	t3,t3,ra
    67c8:	40000eb7          	lui	t4,0x40000
    67cc:	00001f37          	lui	t5,0x1
    67d0:	41e40f33          	sub	t5,s0,t5
    67d4:	dbcf3823          	sd	t3,-592(t5) # db0 <.LBB101_3+0xb5c>
    67d8:	000e5463          	bgez	t3,67e0 <.LBB101_444>
    67dc:	c0000eb7          	lui	t4,0xc0000

00000000000067e0 <.LBB101_444>:
    67e0:	00001e37          	lui	t3,0x1
    67e4:	41c40e33          	sub	t3,s0,t3
    67e8:	dbde3423          	sd	t4,-600(t3) # da8 <.LBB101_3+0xb54>
    67ec:	d6043e03          	ld	t3,-672(s0)
    67f0:	f6843e83          	ld	t4,-152(s0)
    67f4:	01de0e33          	add	t3,t3,t4
    67f8:	01198eb3          	add	t4,s3,a7
    67fc:	01de0e33          	add	t3,t3,t4
    6800:	001e0e3b          	addw	t3,t3,ra
    6804:	40000eb7          	lui	t4,0x40000
    6808:	00001f37          	lui	t5,0x1
    680c:	41e40f33          	sub	t5,s0,t5
    6810:	d5cf3023          	sd	t3,-704(t5) # d40 <.LBB101_3+0xaec>
    6814:	000e5463          	bgez	t3,681c <.LBB101_446>
    6818:	c0000eb7          	lui	t4,0xc0000

000000000000681c <.LBB101_446>:
    681c:	00001e37          	lui	t3,0x1
    6820:	41c40e33          	sub	t3,s0,t3
    6824:	d3de3c23          	sd	t4,-712(t3) # d38 <.LBB101_3+0xae4>
    6828:	d6843e03          	ld	t3,-664(s0)
    682c:	f7043e83          	ld	t4,-144(s0)
    6830:	01de0e33          	add	t3,t3,t4
    6834:	011f8eb3          	add	t4,t6,a7
    6838:	01de0e33          	add	t3,t3,t4
    683c:	001e0e3b          	addw	t3,t3,ra
    6840:	40000eb7          	lui	t4,0x40000
    6844:	00001f37          	lui	t5,0x1
    6848:	41e40f33          	sub	t5,s0,t5
    684c:	cdcf3023          	sd	t3,-832(t5) # cc0 <.LBB101_3+0xa6c>
    6850:	000e5463          	bgez	t3,6858 <.LBB101_448>
    6854:	c0000eb7          	lui	t4,0xc0000

0000000000006858 <.LBB101_448>:
    6858:	00001e37          	lui	t3,0x1
    685c:	41c40e33          	sub	t3,s0,t3
    6860:	cbde3c23          	sd	t4,-840(t3) # cb8 <.LBB101_3+0xa64>
    6864:	f7843e83          	ld	t4,-136(s0)
    6868:	d7043e03          	ld	t3,-656(s0)
    686c:	01de0eb3          	add	t4,t3,t4
    6870:	011a8f33          	add	t5,s5,a7
    6874:	01ee8eb3          	add	t4,t4,t5
    6878:	001e8ebb          	addw	t4,t4,ra
    687c:	40000e37          	lui	t3,0x40000
    6880:	000ed463          	bgez	t4,6888 <.LBB101_450>
    6884:	c0000e37          	lui	t3,0xc0000

0000000000006888 <.LBB101_450>:
    6888:	00001f37          	lui	t5,0x1
    688c:	41e40f33          	sub	t5,s0,t5
    6890:	c7cf3423          	sd	t3,-920(t5) # c68 <.LBB101_3+0xa14>
    6894:	f8043f03          	ld	t5,-128(s0)
    6898:	d7843e03          	ld	t3,-648(s0)
    689c:	01ee0f33          	add	t5,t3,t5
    68a0:	01138933          	add	s2,t2,a7
    68a4:	012f0f33          	add	t5,t5,s2
    68a8:	001f0f3b          	addw	t5,t5,ra
    68ac:	40000e37          	lui	t3,0x40000
    68b0:	000f5463          	bgez	t5,68b8 <.LBB101_452>
    68b4:	c0000e37          	lui	t3,0xc0000

00000000000068b8 <.LBB101_452>:
    68b8:	000014b7          	lui	s1,0x1
    68bc:	409404b3          	sub	s1,s0,s1
    68c0:	c1c4b823          	sd	t3,-1008(s1) # c10 <.LBB101_3+0x9bc>
    68c4:	f8843903          	ld	s2,-120(s0)
    68c8:	d8043e03          	ld	t3,-640(s0)
    68cc:	012e0933          	add	s2,t3,s2
    68d0:	011a08b3          	add	a7,s4,a7
    68d4:	011908b3          	add	a7,s2,a7
    68d8:	00188e3b          	addw	t3,a7,ra
    68dc:	400008b7          	lui	a7,0x40000
    68e0:	000e5463          	bgez	t3,68e8 <.LBB101_454>
    68e4:	c00008b7          	lui	a7,0xc0000

00000000000068e8 <.LBB101_454>:
    68e8:	000014b7          	lui	s1,0x1
    68ec:	409404b3          	sub	s1,s0,s1
    68f0:	bb14bc23          	sd	a7,-1096(s1) # bb8 <.LBB101_3+0x964>
    68f4:	000018b7          	lui	a7,0x1
    68f8:	411408b3          	sub	a7,s0,a7
    68fc:	3b08b483          	ld	s1,944(a7) # 13b0 <.LBB101_4+0x504>
    6900:	00449913          	slli	s2,s1,0x4
    6904:	eb043883          	ld	a7,-336(s0)
    6908:	d8843a83          	ld	s5,-632(s0)
    690c:	011a88b3          	add	a7,s5,a7
    6910:	00990933          	add	s2,s2,s1
    6914:	ea843a83          	ld	s5,-344(s0)
    6918:	012a8ab3          	add	s5,s5,s2
    691c:	015888b3          	add	a7,a7,s5
    6920:	001888bb          	addw	a7,a7,ra
    6924:	400004b7          	lui	s1,0x40000
    6928:	85143423          	sd	a7,-1976(s0)
    692c:	0008d463          	bgez	a7,6934 <.LBB101_456>
    6930:	c00004b7          	lui	s1,0xc0000

0000000000006934 <.LBB101_456>:
    6934:	d9043883          	ld	a7,-624(s0)
    6938:	ea043a83          	ld	s5,-352(s0)
    693c:	015888b3          	add	a7,a7,s5
    6940:	e9843a83          	ld	s5,-360(s0)
    6944:	012a8ab3          	add	s5,s5,s2
    6948:	015888b3          	add	a7,a7,s5
    694c:	001888bb          	addw	a7,a7,ra
    6950:	40000ab7          	lui	s5,0x40000
    6954:	83143823          	sd	a7,-2000(s0)
    6958:	0008d463          	bgez	a7,6960 <.LBB101_458>
    695c:	c0000ab7          	lui	s5,0xc0000

0000000000006960 <.LBB101_458>:
    6960:	83543423          	sd	s5,-2008(s0)
    6964:	d9843883          	ld	a7,-616(s0)
    6968:	e9043a83          	ld	s5,-368(s0)
    696c:	015888b3          	add	a7,a7,s5
    6970:	e8843a83          	ld	s5,-376(s0)
    6974:	012a8ab3          	add	s5,s5,s2
    6978:	015888b3          	add	a7,a7,s5
    697c:	001888bb          	addw	a7,a7,ra
    6980:	40000ab7          	lui	s5,0x40000
    6984:	83143023          	sd	a7,-2016(s0)
    6988:	0008d463          	bgez	a7,6990 <.LBB101_460>
    698c:	c0000ab7          	lui	s5,0xc0000

0000000000006990 <.LBB101_460>:
    6990:	81543c23          	sd	s5,-2024(s0)
    6994:	da043883          	ld	a7,-608(s0)
    6998:	e8043a83          	ld	s5,-384(s0)
    699c:	015888b3          	add	a7,a7,s5
    69a0:	e7843a83          	ld	s5,-392(s0)
    69a4:	012a8ab3          	add	s5,s5,s2
    69a8:	015888b3          	add	a7,a7,s5
    69ac:	001888bb          	addw	a7,a7,ra
    69b0:	40000ab7          	lui	s5,0x40000
    69b4:	81143823          	sd	a7,-2032(s0)
    69b8:	0008d463          	bgez	a7,69c0 <.LBB101_462>
    69bc:	c0000ab7          	lui	s5,0xc0000

00000000000069c0 <.LBB101_462>:
    69c0:	000018b7          	lui	a7,0x1
    69c4:	411408b3          	sub	a7,s0,a7
    69c8:	bb58b823          	sd	s5,-1104(a7) # bb0 <.LBB101_3+0x95c>
    69cc:	da843883          	ld	a7,-600(s0)
    69d0:	e7043a83          	ld	s5,-400(s0)
    69d4:	015888b3          	add	a7,a7,s5
    69d8:	e6843a83          	ld	s5,-408(s0)
    69dc:	012a8ab3          	add	s5,s5,s2
    69e0:	015888b3          	add	a7,a7,s5
    69e4:	001888bb          	addw	a7,a7,ra
    69e8:	40000ab7          	lui	s5,0x40000
    69ec:	81143423          	sd	a7,-2040(s0)
    69f0:	0008d463          	bgez	a7,69f8 <.LBB101_464>
    69f4:	c0000ab7          	lui	s5,0xc0000

00000000000069f8 <.LBB101_464>:
    69f8:	81543023          	sd	s5,-2048(s0)
    69fc:	db043883          	ld	a7,-592(s0)
    6a00:	f8a43823          	sd	a0,-112(s0)
    6a04:	00001537          	lui	a0,0x1
    6a08:	40a40533          	sub	a0,s0,a0
    6a0c:	6c853a83          	ld	s5,1736(a0) # 16c8 <.LBB101_5+0x278>
    6a10:	015888b3          	add	a7,a7,s5
    6a14:	00001537          	lui	a0,0x1
    6a18:	40a40533          	sub	a0,s0,a0
    6a1c:	6c053a83          	ld	s5,1728(a0) # 16c0 <.LBB101_5+0x270>
    6a20:	012a8ab3          	add	s5,s5,s2
    6a24:	015888b3          	add	a7,a7,s5
    6a28:	001888bb          	addw	a7,a7,ra
    6a2c:	40000ab7          	lui	s5,0x40000
    6a30:	00001537          	lui	a0,0x1
    6a34:	40a40533          	sub	a0,s0,a0
    6a38:	7f153c23          	sd	a7,2040(a0) # 17f8 <.LBB101_5+0x3a8>
    6a3c:	f9043503          	ld	a0,-112(s0)
    6a40:	0008d463          	bgez	a7,6a48 <.LBB101_466>
    6a44:	c0000ab7          	lui	s5,0xc0000

0000000000006a48 <.LBB101_466>:
    6a48:	f8a43823          	sd	a0,-112(s0)
    6a4c:	00001537          	lui	a0,0x1
    6a50:	40a40533          	sub	a0,s0,a0
    6a54:	7f553823          	sd	s5,2032(a0) # 17f0 <.LBB101_5+0x3a0>
    6a58:	db843883          	ld	a7,-584(s0)
    6a5c:	00001537          	lui	a0,0x1
    6a60:	40a40533          	sub	a0,s0,a0
    6a64:	6b853a83          	ld	s5,1720(a0) # 16b8 <.LBB101_5+0x268>
    6a68:	015888b3          	add	a7,a7,s5
    6a6c:	00001537          	lui	a0,0x1
    6a70:	40a40533          	sub	a0,s0,a0
    6a74:	6b053a83          	ld	s5,1712(a0) # 16b0 <.LBB101_5+0x260>
    6a78:	012a8ab3          	add	s5,s5,s2
    6a7c:	015888b3          	add	a7,a7,s5
    6a80:	001888bb          	addw	a7,a7,ra
    6a84:	40000ab7          	lui	s5,0x40000
    6a88:	00001537          	lui	a0,0x1
    6a8c:	40a40533          	sub	a0,s0,a0
    6a90:	6f153423          	sd	a7,1768(a0) # 16e8 <.LBB101_5+0x298>
    6a94:	f9043503          	ld	a0,-112(s0)
    6a98:	0008d463          	bgez	a7,6aa0 <.LBB101_468>
    6a9c:	c0000ab7          	lui	s5,0xc0000

0000000000006aa0 <.LBB101_468>:
    6aa0:	f8a43823          	sd	a0,-112(s0)
    6aa4:	00001537          	lui	a0,0x1
    6aa8:	40a40533          	sub	a0,s0,a0
    6aac:	6d553423          	sd	s5,1736(a0) # 16c8 <.LBB101_5+0x278>
    6ab0:	dc043883          	ld	a7,-576(s0)
    6ab4:	00001537          	lui	a0,0x1
    6ab8:	40a40533          	sub	a0,s0,a0
    6abc:	6a853a83          	ld	s5,1704(a0) # 16a8 <.LBB101_5+0x258>
    6ac0:	015888b3          	add	a7,a7,s5
    6ac4:	00001537          	lui	a0,0x1
    6ac8:	40a40533          	sub	a0,s0,a0
    6acc:	6a053a83          	ld	s5,1696(a0) # 16a0 <.LBB101_5+0x250>
    6ad0:	012a8ab3          	add	s5,s5,s2
    6ad4:	015888b3          	add	a7,a7,s5
    6ad8:	001888bb          	addw	a7,a7,ra
    6adc:	40000ab7          	lui	s5,0x40000
    6ae0:	00001537          	lui	a0,0x1
    6ae4:	40a40533          	sub	a0,s0,a0
    6ae8:	6d153023          	sd	a7,1728(a0) # 16c0 <.LBB101_5+0x270>
    6aec:	f9043503          	ld	a0,-112(s0)
    6af0:	0008d463          	bgez	a7,6af8 <.LBB101_470>
    6af4:	c0000ab7          	lui	s5,0xc0000

0000000000006af8 <.LBB101_470>:
    6af8:	f8a43823          	sd	a0,-112(s0)
    6afc:	00001537          	lui	a0,0x1
    6b00:	40a40533          	sub	a0,s0,a0
    6b04:	6b553c23          	sd	s5,1720(a0) # 16b8 <.LBB101_5+0x268>
    6b08:	dc843883          	ld	a7,-568(s0)
    6b0c:	00001537          	lui	a0,0x1
    6b10:	40a40533          	sub	a0,s0,a0
    6b14:	69853a83          	ld	s5,1688(a0) # 1698 <.LBB101_5+0x248>
    6b18:	015888b3          	add	a7,a7,s5
    6b1c:	00001537          	lui	a0,0x1
    6b20:	40a40533          	sub	a0,s0,a0
    6b24:	69053a83          	ld	s5,1680(a0) # 1690 <.LBB101_5+0x240>
    6b28:	012a8ab3          	add	s5,s5,s2
    6b2c:	015888b3          	add	a7,a7,s5
    6b30:	001888bb          	addw	a7,a7,ra
    6b34:	40000ab7          	lui	s5,0x40000
    6b38:	00001537          	lui	a0,0x1
    6b3c:	40a40533          	sub	a0,s0,a0
    6b40:	6b153823          	sd	a7,1712(a0) # 16b0 <.LBB101_5+0x260>
    6b44:	f9043503          	ld	a0,-112(s0)
    6b48:	0008d463          	bgez	a7,6b50 <.LBB101_472>
    6b4c:	c0000ab7          	lui	s5,0xc0000

0000000000006b50 <.LBB101_472>:
    6b50:	f8a43823          	sd	a0,-112(s0)
    6b54:	00001537          	lui	a0,0x1
    6b58:	40a40533          	sub	a0,s0,a0
    6b5c:	6b553423          	sd	s5,1704(a0) # 16a8 <.LBB101_5+0x258>
    6b60:	dd043883          	ld	a7,-560(s0)
    6b64:	00001537          	lui	a0,0x1
    6b68:	40a40533          	sub	a0,s0,a0
    6b6c:	68853a83          	ld	s5,1672(a0) # 1688 <.LBB101_5+0x238>
    6b70:	015888b3          	add	a7,a7,s5
    6b74:	00001537          	lui	a0,0x1
    6b78:	40a40533          	sub	a0,s0,a0
    6b7c:	6d053a83          	ld	s5,1744(a0) # 16d0 <.LBB101_5+0x280>
    6b80:	012a8ab3          	add	s5,s5,s2
    6b84:	015888b3          	add	a7,a7,s5
    6b88:	001888bb          	addw	a7,a7,ra
    6b8c:	40000ab7          	lui	s5,0x40000
    6b90:	00001537          	lui	a0,0x1
    6b94:	40a40533          	sub	a0,s0,a0
    6b98:	6d153823          	sd	a7,1744(a0) # 16d0 <.LBB101_5+0x280>
    6b9c:	f9043503          	ld	a0,-112(s0)
    6ba0:	0008d463          	bgez	a7,6ba8 <.LBB101_474>
    6ba4:	c0000ab7          	lui	s5,0xc0000

0000000000006ba8 <.LBB101_474>:
    6ba8:	f8a43823          	sd	a0,-112(s0)
    6bac:	00001537          	lui	a0,0x1
    6bb0:	40a40533          	sub	a0,s0,a0
    6bb4:	6b553023          	sd	s5,1696(a0) # 16a0 <.LBB101_5+0x250>
    6bb8:	dd843883          	ld	a7,-552(s0)
    6bbc:	eb843a83          	ld	s5,-328(s0)
    6bc0:	015888b3          	add	a7,a7,s5
    6bc4:	00001537          	lui	a0,0x1
    6bc8:	40a40533          	sub	a0,s0,a0
    6bcc:	6d853a83          	ld	s5,1752(a0) # 16d8 <.LBB101_5+0x288>
    6bd0:	012a8ab3          	add	s5,s5,s2
    6bd4:	015888b3          	add	a7,a7,s5
    6bd8:	001888bb          	addw	a7,a7,ra
    6bdc:	40000ab7          	lui	s5,0x40000
    6be0:	00001537          	lui	a0,0x1
    6be4:	40a40533          	sub	a0,s0,a0
    6be8:	6d153c23          	sd	a7,1752(a0) # 16d8 <.LBB101_5+0x288>
    6bec:	f9043503          	ld	a0,-112(s0)
    6bf0:	0008d463          	bgez	a7,6bf8 <.LBB101_476>
    6bf4:	c0000ab7          	lui	s5,0xc0000

0000000000006bf8 <.LBB101_476>:
    6bf8:	f8a43823          	sd	a0,-112(s0)
    6bfc:	00001537          	lui	a0,0x1
    6c00:	40a40533          	sub	a0,s0,a0
    6c04:	69553c23          	sd	s5,1688(a0) # 1698 <.LBB101_5+0x248>
    6c08:	ec043883          	ld	a7,-320(s0)
    6c0c:	de043a83          	ld	s5,-544(s0)
    6c10:	011a88b3          	add	a7,s5,a7
    6c14:	00001537          	lui	a0,0x1
    6c18:	40a40533          	sub	a0,s0,a0
    6c1c:	6e053a83          	ld	s5,1760(a0) # 16e0 <.LBB101_5+0x290>
    6c20:	012a8ab3          	add	s5,s5,s2
    6c24:	015888b3          	add	a7,a7,s5
    6c28:	001888bb          	addw	a7,a7,ra
    6c2c:	40000ab7          	lui	s5,0x40000
    6c30:	00001537          	lui	a0,0x1
    6c34:	40a40533          	sub	a0,s0,a0
    6c38:	6f153023          	sd	a7,1760(a0) # 16e0 <.LBB101_5+0x290>
    6c3c:	f9043503          	ld	a0,-112(s0)
    6c40:	0008d463          	bgez	a7,6c48 <.LBB101_478>
    6c44:	c0000ab7          	lui	s5,0xc0000

0000000000006c48 <.LBB101_478>:
    6c48:	000018b7          	lui	a7,0x1
    6c4c:	411408b3          	sub	a7,s0,a7
    6c50:	6958b823          	sd	s5,1680(a7) # 1690 <.LBB101_5+0x240>
    6c54:	de843883          	ld	a7,-536(s0)
    6c58:	ec843a83          	ld	s5,-312(s0)
    6c5c:	015888b3          	add	a7,a7,s5
    6c60:	012d8ab3          	add	s5,s11,s2
    6c64:	015888b3          	add	a7,a7,s5
    6c68:	001888bb          	addw	a7,a7,ra
    6c6c:	40000ab7          	lui	s5,0x40000
    6c70:	00001db7          	lui	s11,0x1
    6c74:	41b40db3          	sub	s11,s0,s11
    6c78:	691db423          	sd	a7,1672(s11) # 1688 <.LBB101_5+0x238>
    6c7c:	0008d463          	bgez	a7,6c84 <.LBB101_480>
    6c80:	c0000ab7          	lui	s5,0xc0000

0000000000006c84 <.LBB101_480>:
    6c84:	000018b7          	lui	a7,0x1
    6c88:	411408b3          	sub	a7,s0,a7
    6c8c:	3b58b823          	sd	s5,944(a7) # 13b0 <.LBB101_4+0x504>
    6c90:	df043883          	ld	a7,-528(s0)
    6c94:	ed043a83          	ld	s5,-304(s0)
    6c98:	015888b3          	add	a7,a7,s5
    6c9c:	012d0ab3          	add	s5,s10,s2
    6ca0:	015888b3          	add	a7,a7,s5
    6ca4:	001888bb          	addw	a7,a7,ra
    6ca8:	40000ab7          	lui	s5,0x40000
    6cac:	00001d37          	lui	s10,0x1
    6cb0:	41a40d33          	sub	s10,s0,s10
    6cb4:	351d3823          	sd	a7,848(s10) # 1350 <.LBB101_4+0x4a4>
    6cb8:	0008d463          	bgez	a7,6cc0 <.LBB101_482>
    6cbc:	c0000ab7          	lui	s5,0xc0000

0000000000006cc0 <.LBB101_482>:
    6cc0:	000018b7          	lui	a7,0x1
    6cc4:	411408b3          	sub	a7,s0,a7
    6cc8:	3558b423          	sd	s5,840(a7) # 1348 <.LBB101_4+0x49c>
    6ccc:	df843883          	ld	a7,-520(s0)
    6cd0:	ed843a83          	ld	s5,-296(s0)
    6cd4:	015888b3          	add	a7,a7,s5
    6cd8:	012c8ab3          	add	s5,s9,s2
    6cdc:	015888b3          	add	a7,a7,s5
    6ce0:	001888bb          	addw	a7,a7,ra
    6ce4:	40000ab7          	lui	s5,0x40000
    6ce8:	00001cb7          	lui	s9,0x1
    6cec:	41940cb3          	sub	s9,s0,s9
    6cf0:	2f1cb423          	sd	a7,744(s9) # 12e8 <.LBB101_4+0x43c>
    6cf4:	0008d463          	bgez	a7,6cfc <.LBB101_484>
    6cf8:	c0000ab7          	lui	s5,0xc0000

0000000000006cfc <.LBB101_484>:
    6cfc:	000018b7          	lui	a7,0x1
    6d00:	411408b3          	sub	a7,s0,a7
    6d04:	2f58b023          	sd	s5,736(a7) # 12e0 <.LBB101_4+0x434>
    6d08:	ee043883          	ld	a7,-288(s0)
    6d0c:	e0043a83          	ld	s5,-512(s0)
    6d10:	011a88b3          	add	a7,s5,a7
    6d14:	00001ab7          	lui	s5,0x1
    6d18:	41540ab3          	sub	s5,s0,s5
    6d1c:	700aba83          	ld	s5,1792(s5) # 1700 <.LBB101_5+0x2b0>
    6d20:	012a8ab3          	add	s5,s5,s2
    6d24:	015888b3          	add	a7,a7,s5
    6d28:	001888bb          	addw	a7,a7,ra
    6d2c:	40000ab7          	lui	s5,0x40000
    6d30:	00001cb7          	lui	s9,0x1
    6d34:	41940cb3          	sub	s9,s0,s9
    6d38:	711cb023          	sd	a7,1792(s9) # 1700 <.LBB101_5+0x2b0>
    6d3c:	0008d463          	bgez	a7,6d44 <.LBB101_486>
    6d40:	c0000ab7          	lui	s5,0xc0000

0000000000006d44 <.LBB101_486>:
    6d44:	000018b7          	lui	a7,0x1
    6d48:	411408b3          	sub	a7,s0,a7
    6d4c:	2958b023          	sd	s5,640(a7) # 1280 <.LBB101_4+0x3d4>
    6d50:	e0843883          	ld	a7,-504(s0)
    6d54:	ee843a83          	ld	s5,-280(s0)
    6d58:	015888b3          	add	a7,a7,s5
    6d5c:	012b8ab3          	add	s5,s7,s2
    6d60:	015888b3          	add	a7,a7,s5
    6d64:	001888bb          	addw	a7,a7,ra
    6d68:	40000ab7          	lui	s5,0x40000
    6d6c:	00001bb7          	lui	s7,0x1
    6d70:	41740bb3          	sub	s7,s0,s7
    6d74:	211bbc23          	sd	a7,536(s7) # 1218 <.LBB101_4+0x36c>
    6d78:	0008d463          	bgez	a7,6d80 <.LBB101_488>
    6d7c:	c0000ab7          	lui	s5,0xc0000

0000000000006d80 <.LBB101_488>:
    6d80:	000018b7          	lui	a7,0x1
    6d84:	411408b3          	sub	a7,s0,a7
    6d88:	2158b823          	sd	s5,528(a7) # 1210 <.LBB101_4+0x364>
    6d8c:	e1043883          	ld	a7,-496(s0)
    6d90:	ef043a83          	ld	s5,-272(s0)
    6d94:	015888b3          	add	a7,a7,s5
    6d98:	012b0ab3          	add	s5,s6,s2
    6d9c:	015888b3          	add	a7,a7,s5
    6da0:	001888bb          	addw	a7,a7,ra
    6da4:	40000ab7          	lui	s5,0x40000
    6da8:	00001b37          	lui	s6,0x1
    6dac:	41640b33          	sub	s6,s0,s6
    6db0:	1b1b3023          	sd	a7,416(s6) # 11a0 <.LBB101_4+0x2f4>
    6db4:	0008d463          	bgez	a7,6dbc <.LBB101_490>
    6db8:	c0000ab7          	lui	s5,0xc0000

0000000000006dbc <.LBB101_490>:
    6dbc:	000018b7          	lui	a7,0x1
    6dc0:	411408b3          	sub	a7,s0,a7
    6dc4:	1958bc23          	sd	s5,408(a7) # 1198 <.LBB101_4+0x2ec>
    6dc8:	e1843883          	ld	a7,-488(s0)
    6dcc:	ef843a83          	ld	s5,-264(s0)
    6dd0:	015888b3          	add	a7,a7,s5
    6dd4:	00001ab7          	lui	s5,0x1
    6dd8:	41540ab3          	sub	s5,s0,s5
    6ddc:	718aba83          	ld	s5,1816(s5) # 1718 <.LBB101_5+0x2c8>
    6de0:	012a8ab3          	add	s5,s5,s2
    6de4:	015888b3          	add	a7,a7,s5
    6de8:	001888bb          	addw	a7,a7,ra
    6dec:	40000ab7          	lui	s5,0x40000
    6df0:	00001b37          	lui	s6,0x1
    6df4:	41640b33          	sub	s6,s0,s6
    6df8:	711b3c23          	sd	a7,1816(s6) # 1718 <.LBB101_5+0x2c8>
    6dfc:	00001b37          	lui	s6,0x1
    6e00:	41640b33          	sub	s6,s0,s6
    6e04:	668b3b03          	ld	s6,1640(s6) # 1668 <.LBB101_5+0x218>
    6e08:	0008d463          	bgez	a7,6e10 <.LBB101_492>
    6e0c:	c0000ab7          	lui	s5,0xc0000

0000000000006e10 <.LBB101_492>:
    6e10:	000018b7          	lui	a7,0x1
    6e14:	411408b3          	sub	a7,s0,a7
    6e18:	1358b423          	sd	s5,296(a7) # 1128 <.LBB101_4+0x27c>
    6e1c:	f1043883          	ld	a7,-240(s0)
    6e20:	f0043a83          	ld	s5,-256(s0)
    6e24:	015888b3          	add	a7,a7,s5
    6e28:	00001ab7          	lui	s5,0x1
    6e2c:	41540ab3          	sub	s5,s0,s5
    6e30:	720aba83          	ld	s5,1824(s5) # 1720 <.LBB101_5+0x2d0>
    6e34:	012a8ab3          	add	s5,s5,s2
    6e38:	015888b3          	add	a7,a7,s5
    6e3c:	001888bb          	addw	a7,a7,ra
    6e40:	40000ab7          	lui	s5,0x40000
    6e44:	00001bb7          	lui	s7,0x1
    6e48:	41740bb3          	sub	s7,s0,s7
    6e4c:	731bb023          	sd	a7,1824(s7) # 1720 <.LBB101_5+0x2d0>
    6e50:	0008d463          	bgez	a7,6e58 <.LBB101_494>
    6e54:	c0000ab7          	lui	s5,0xc0000

0000000000006e58 <.LBB101_494>:
    6e58:	000018b7          	lui	a7,0x1
    6e5c:	411408b3          	sub	a7,s0,a7
    6e60:	0b58bc23          	sd	s5,184(a7) # 10b8 <.LBB101_4+0x20c>
    6e64:	f1843883          	ld	a7,-232(s0)
    6e68:	f0843a83          	ld	s5,-248(s0)
    6e6c:	015888b3          	add	a7,a7,s5
    6e70:	00001ab7          	lui	s5,0x1
    6e74:	41540ab3          	sub	s5,s0,s5
    6e78:	728aba83          	ld	s5,1832(s5) # 1728 <.LBB101_5+0x2d8>
    6e7c:	012a8ab3          	add	s5,s5,s2
    6e80:	015888b3          	add	a7,a7,s5
    6e84:	001888bb          	addw	a7,a7,ra
    6e88:	40000ab7          	lui	s5,0x40000
    6e8c:	00001bb7          	lui	s7,0x1
    6e90:	41740bb3          	sub	s7,s0,s7
    6e94:	731bb423          	sd	a7,1832(s7) # 1728 <.LBB101_5+0x2d8>
    6e98:	0008d463          	bgez	a7,6ea0 <.LBB101_496>
    6e9c:	c0000ab7          	lui	s5,0xc0000

0000000000006ea0 <.LBB101_496>:
    6ea0:	000018b7          	lui	a7,0x1
    6ea4:	411408b3          	sub	a7,s0,a7
    6ea8:	0558b423          	sd	s5,72(a7) # 1048 <.LBB101_4+0x19c>
    6eac:	f2043883          	ld	a7,-224(s0)
    6eb0:	f3843a83          	ld	s5,-200(s0)
    6eb4:	015888b3          	add	a7,a7,s5
    6eb8:	00001ab7          	lui	s5,0x1
    6ebc:	41540ab3          	sub	s5,s0,s5
    6ec0:	730aba83          	ld	s5,1840(s5) # 1730 <.LBB101_5+0x2e0>
    6ec4:	012a8ab3          	add	s5,s5,s2
    6ec8:	015888b3          	add	a7,a7,s5
    6ecc:	001888bb          	addw	a7,a7,ra
    6ed0:	40000ab7          	lui	s5,0x40000
    6ed4:	00001bb7          	lui	s7,0x1
    6ed8:	41740bb3          	sub	s7,s0,s7
    6edc:	731bb823          	sd	a7,1840(s7) # 1730 <.LBB101_5+0x2e0>
    6ee0:	0008d463          	bgez	a7,6ee8 <.LBB101_498>
    6ee4:	c0000ab7          	lui	s5,0xc0000

0000000000006ee8 <.LBB101_498>:
    6ee8:	000018b7          	lui	a7,0x1
    6eec:	411408b3          	sub	a7,s0,a7
    6ef0:	fd58bc23          	sd	s5,-40(a7) # fd8 <.LBB101_4+0x12c>
    6ef4:	f2843883          	ld	a7,-216(s0)
    6ef8:	f4043a83          	ld	s5,-192(s0)
    6efc:	015888b3          	add	a7,a7,s5
    6f00:	00001ab7          	lui	s5,0x1
    6f04:	41540ab3          	sub	s5,s0,s5
    6f08:	738aba83          	ld	s5,1848(s5) # 1738 <.LBB101_5+0x2e8>
    6f0c:	012a8ab3          	add	s5,s5,s2
    6f10:	015888b3          	add	a7,a7,s5
    6f14:	001888bb          	addw	a7,a7,ra
    6f18:	40000ab7          	lui	s5,0x40000
    6f1c:	00001bb7          	lui	s7,0x1
    6f20:	41740bb3          	sub	s7,s0,s7
    6f24:	731bbc23          	sd	a7,1848(s7) # 1738 <.LBB101_5+0x2e8>
    6f28:	0008d463          	bgez	a7,6f30 <.LBB101_500>
    6f2c:	c0000ab7          	lui	s5,0xc0000

0000000000006f30 <.LBB101_500>:
    6f30:	000018b7          	lui	a7,0x1
    6f34:	411408b3          	sub	a7,s0,a7
    6f38:	f758b023          	sd	s5,-160(a7) # f60 <.LBB101_4+0xb4>
    6f3c:	f3043883          	ld	a7,-208(s0)
    6f40:	f4843a83          	ld	s5,-184(s0)
    6f44:	015888b3          	add	a7,a7,s5
    6f48:	00001ab7          	lui	s5,0x1
    6f4c:	41540ab3          	sub	s5,s0,s5
    6f50:	740aba83          	ld	s5,1856(s5) # 1740 <.LBB101_5+0x2f0>
    6f54:	012a8ab3          	add	s5,s5,s2
    6f58:	015888b3          	add	a7,a7,s5
    6f5c:	001888bb          	addw	a7,a7,ra
    6f60:	40000ab7          	lui	s5,0x40000
    6f64:	00001bb7          	lui	s7,0x1
    6f68:	41740bb3          	sub	s7,s0,s7
    6f6c:	751bb023          	sd	a7,1856(s7) # 1740 <.LBB101_5+0x2f0>
    6f70:	0008d463          	bgez	a7,6f78 <.LBB101_502>
    6f74:	c0000ab7          	lui	s5,0xc0000

0000000000006f78 <.LBB101_502>:
    6f78:	000018b7          	lui	a7,0x1
    6f7c:	411408b3          	sub	a7,s0,a7
    6f80:	ef58b823          	sd	s5,-272(a7) # ef0 <.LBB101_4+0x44>
    6f84:	e2043883          	ld	a7,-480(s0)
    6f88:	f5043a83          	ld	s5,-176(s0)
    6f8c:	015888b3          	add	a7,a7,s5
    6f90:	00001ab7          	lui	s5,0x1
    6f94:	41540ab3          	sub	s5,s0,s5
    6f98:	748aba83          	ld	s5,1864(s5) # 1748 <.LBB101_5+0x2f8>
    6f9c:	012a8ab3          	add	s5,s5,s2
    6fa0:	015888b3          	add	a7,a7,s5
    6fa4:	001888bb          	addw	a7,a7,ra
    6fa8:	40000ab7          	lui	s5,0x40000
    6fac:	00001bb7          	lui	s7,0x1
    6fb0:	41740bb3          	sub	s7,s0,s7
    6fb4:	751bb423          	sd	a7,1864(s7) # 1748 <.LBB101_5+0x2f8>
    6fb8:	0008d463          	bgez	a7,6fc0 <.LBB101_504>
    6fbc:	c0000ab7          	lui	s5,0xc0000

0000000000006fc0 <.LBB101_504>:
    6fc0:	000018b7          	lui	a7,0x1
    6fc4:	411408b3          	sub	a7,s0,a7
    6fc8:	e758bc23          	sd	s5,-392(a7) # e78 <.LBB101_3+0xc24>
    6fcc:	e2843883          	ld	a7,-472(s0)
    6fd0:	f5843a83          	ld	s5,-168(s0)
    6fd4:	015888b3          	add	a7,a7,s5
    6fd8:	00001ab7          	lui	s5,0x1
    6fdc:	41540ab3          	sub	s5,s0,s5
    6fe0:	750aba83          	ld	s5,1872(s5) # 1750 <.LBB101_5+0x300>
    6fe4:	012a8ab3          	add	s5,s5,s2
    6fe8:	015888b3          	add	a7,a7,s5
    6fec:	001888bb          	addw	a7,a7,ra
    6ff0:	40000ab7          	lui	s5,0x40000
    6ff4:	00001bb7          	lui	s7,0x1
    6ff8:	41740bb3          	sub	s7,s0,s7
    6ffc:	751bb823          	sd	a7,1872(s7) # 1750 <.LBB101_5+0x300>
    7000:	0008d463          	bgez	a7,7008 <.LBB101_506>
    7004:	c0000ab7          	lui	s5,0xc0000

0000000000007008 <.LBB101_506>:
    7008:	000018b7          	lui	a7,0x1
    700c:	411408b3          	sub	a7,s0,a7
    7010:	e158b823          	sd	s5,-496(a7) # e10 <.LBB101_3+0xbbc>
    7014:	e3043883          	ld	a7,-464(s0)
    7018:	f6043a83          	ld	s5,-160(s0)
    701c:	015888b3          	add	a7,a7,s5
    7020:	00001ab7          	lui	s5,0x1
    7024:	41540ab3          	sub	s5,s0,s5
    7028:	758aba83          	ld	s5,1880(s5) # 1758 <.LBB101_5+0x308>
    702c:	012a8ab3          	add	s5,s5,s2
    7030:	015888b3          	add	a7,a7,s5
    7034:	001888bb          	addw	a7,a7,ra
    7038:	40000ab7          	lui	s5,0x40000
    703c:	00001bb7          	lui	s7,0x1
    7040:	41740bb3          	sub	s7,s0,s7
    7044:	751bbc23          	sd	a7,1880(s7) # 1758 <.LBB101_5+0x308>
    7048:	0008d463          	bgez	a7,7050 <.LBB101_508>
    704c:	c0000ab7          	lui	s5,0xc0000

0000000000007050 <.LBB101_508>:
    7050:	000018b7          	lui	a7,0x1
    7054:	411408b3          	sub	a7,s0,a7
    7058:	db58b023          	sd	s5,-608(a7) # da0 <.LBB101_3+0xb4c>
    705c:	e3843883          	ld	a7,-456(s0)
    7060:	f6843a83          	ld	s5,-152(s0)
    7064:	015888b3          	add	a7,a7,s5
    7068:	01298ab3          	add	s5,s3,s2
    706c:	015888b3          	add	a7,a7,s5
    7070:	001888bb          	addw	a7,a7,ra
    7074:	40000ab7          	lui	s5,0x40000
    7078:	000019b7          	lui	s3,0x1
    707c:	413409b3          	sub	s3,s0,s3
    7080:	d319b823          	sd	a7,-720(s3) # d30 <.LBB101_3+0xadc>
    7084:	0008d463          	bgez	a7,708c <.LBB101_510>
    7088:	c0000ab7          	lui	s5,0xc0000

000000000000708c <.LBB101_510>:
    708c:	000018b7          	lui	a7,0x1
    7090:	411408b3          	sub	a7,s0,a7
    7094:	d358b423          	sd	s5,-728(a7) # d28 <.LBB101_3+0xad4>
    7098:	9af43823          	sd	a5,-1616(s0)
    709c:	e4043883          	ld	a7,-448(s0)
    70a0:	f7043783          	ld	a5,-144(s0)
    70a4:	00f888b3          	add	a7,a7,a5
    70a8:	012f8bb3          	add	s7,t6,s2
    70ac:	017888b3          	add	a7,a7,s7
    70b0:	001887bb          	addw	a5,a7,ra
    70b4:	400008b7          	lui	a7,0x40000
    70b8:	00001fb7          	lui	t6,0x1
    70bc:	41f40fb3          	sub	t6,s0,t6
    70c0:	caffb823          	sd	a5,-848(t6) # cb0 <.LBB101_3+0xa5c>
    70c4:	0007d463          	bgez	a5,70cc <.LBB101_512>
    70c8:	c00008b7          	lui	a7,0xc0000

00000000000070cc <.LBB101_512>:
    70cc:	000017b7          	lui	a5,0x1
    70d0:	40f407b3          	sub	a5,s0,a5
    70d4:	cb17b423          	sd	a7,-856(a5) # ca8 <.LBB101_3+0xa54>
    70d8:	e4843883          	ld	a7,-440(s0)
    70dc:	f7843783          	ld	a5,-136(s0)
    70e0:	00f888b3          	add	a7,a7,a5
    70e4:	000017b7          	lui	a5,0x1
    70e8:	40f407b3          	sub	a5,s0,a5
    70ec:	7707bd83          	ld	s11,1904(a5) # 1770 <.LBB101_5+0x320>
    70f0:	012d8db3          	add	s11,s11,s2
    70f4:	01b888b3          	add	a7,a7,s11
    70f8:	001feab7          	lui	s5,0x1fe
    70fc:	001887bb          	addw	a5,a7,ra
    7100:	400008b7          	lui	a7,0x40000
    7104:	00001fb7          	lui	t6,0x1
    7108:	41f40fb3          	sub	t6,s0,t6
    710c:	76ffb823          	sd	a5,1904(t6) # 1770 <.LBB101_5+0x320>
    7110:	0007d463          	bgez	a5,7118 <.LBB101_514>
    7114:	c00008b7          	lui	a7,0xc0000

0000000000007118 <.LBB101_514>:
    7118:	e5043d83          	ld	s11,-432(s0)
    711c:	f8043783          	ld	a5,-128(s0)
    7120:	00fd8db3          	add	s11,s11,a5
    7124:	012380b3          	add	ra,t2,s2
    7128:	001d8db3          	add	s11,s11,ra
    712c:	015d80bb          	addw	ra,s11,s5
    7130:	400007b7          	lui	a5,0x40000
    7134:	0000d463          	bgez	ra,713c <.LBB101_516>
    7138:	c00007b7          	lui	a5,0xc0000

000000000000713c <.LBB101_516>:
    713c:	000013b7          	lui	t2,0x1
    7140:	407403b3          	sub	t2,s0,t2
    7144:	bef3bc23          	sd	a5,-1032(t2) # bf8 <.LBB101_3+0x9a4>
    7148:	e5843d83          	ld	s11,-424(s0)
    714c:	f8843783          	ld	a5,-120(s0)
    7150:	00fd8db3          	add	s11,s11,a5
    7154:	012a0933          	add	s2,s4,s2
    7158:	012d8933          	add	s2,s11,s2
    715c:	015907bb          	addw	a5,s2,s5
    7160:	0007da63          	bgez	a5,7174 <.LBB101_518>
    7164:	c0000937          	lui	s2,0xc0000
    7168:	000013b7          	lui	t2,0x1
    716c:	407403b3          	sub	t2,s0,t2
    7170:	6923b023          	sd	s2,1664(t2) # 1680 <.LBB101_5+0x230>

0000000000007174 <.LBB101_518>:
    7174:	000013b7          	lui	t2,0x1
    7178:	407403b3          	sub	t2,s0,t2
    717c:	c603b383          	ld	t2,-928(t2) # c60 <.LBB101_3+0xa0c>
    7180:	03638933          	mul	s2,t2,s6
    7184:	e6043a83          	ld	s5,-416(s0)
    7188:	000013b7          	lui	t2,0x1
    718c:	407403b3          	sub	t2,s0,t2
    7190:	be03b383          	ld	t2,-1056(t2) # be0 <.LBB101_3+0x98c>
    7194:	01538ab3          	add	s5,t2,s5
    7198:	01590933          	add	s2,s2,s5
    719c:	42895a93          	srai	s5,s2,0x28
    71a0:	f7e00913          	li	s2,-130
    71a4:	f9543423          	sd	s5,-120(s0)
    71a8:	01594663          	blt	s2,s5,71b4 <.LBB101_520>
    71ac:	f7e00a93          	li	s5,-130
    71b0:	f9543423          	sd	s5,-120(s0)

00000000000071b4 <.LBB101_520>:
    71b4:	000013b7          	lui	t2,0x1
    71b8:	407403b3          	sub	t2,s0,t2
    71bc:	c713b023          	sd	a7,-928(t2) # c60 <.LBB101_3+0xa0c>
    71c0:	000018b7          	lui	a7,0x1
    71c4:	411408b3          	sub	a7,s0,a7
    71c8:	c588b883          	ld	a7,-936(a7) # c58 <.LBB101_3+0xa04>
    71cc:	03688ab3          	mul	s5,a7,s6
    71d0:	e6043b03          	ld	s6,-416(s0)
    71d4:	000018b7          	lui	a7,0x1
    71d8:	411408b3          	sub	a7,s0,a7
    71dc:	c508b883          	ld	a7,-944(a7) # c50 <.LBB101_3+0x9fc>
    71e0:	01688b33          	add	s6,a7,s6
    71e4:	016a8ab3          	add	s5,s5,s6
    71e8:	428ada93          	srai	s5,s5,0x28
    71ec:	f9543023          	sd	s5,-128(s0)
    71f0:	01594663          	blt	s2,s5,71fc <.LBB101_522>
    71f4:	f7e00a93          	li	s5,-130
    71f8:	f9543023          	sd	s5,-128(s0)

00000000000071fc <.LBB101_522>:
    71fc:	000018b7          	lui	a7,0x1
    7200:	411408b3          	sub	a7,s0,a7
    7204:	6688ba83          	ld	s5,1640(a7) # 1668 <.LBB101_5+0x218>
    7208:	000018b7          	lui	a7,0x1
    720c:	411408b3          	sub	a7,s0,a7
    7210:	ca08b883          	ld	a7,-864(a7) # ca0 <.LBB101_3+0xa4c>
    7214:	03588ab3          	mul	s5,a7,s5
    7218:	e6043b03          	ld	s6,-416(s0)
    721c:	000018b7          	lui	a7,0x1
    7220:	411408b3          	sub	a7,s0,a7
    7224:	c988b883          	ld	a7,-872(a7) # c98 <.LBB101_3+0xa44>
    7228:	01688b33          	add	s6,a7,s6
    722c:	016a8ab3          	add	s5,s5,s6
    7230:	428ada93          	srai	s5,s5,0x28
    7234:	f7543c23          	sd	s5,-136(s0)
    7238:	01594663          	blt	s2,s5,7244 <.LBB101_524>
    723c:	f7e00a93          	li	s5,-130
    7240:	f7543c23          	sd	s5,-136(s0)

0000000000007244 <.LBB101_524>:
    7244:	000018b7          	lui	a7,0x1
    7248:	411408b3          	sub	a7,s0,a7
    724c:	6688ba83          	ld	s5,1640(a7) # 1668 <.LBB101_5+0x218>
    7250:	000018b7          	lui	a7,0x1
    7254:	411408b3          	sub	a7,s0,a7
    7258:	d208b883          	ld	a7,-736(a7) # d20 <.LBB101_3+0xacc>
    725c:	03588ab3          	mul	s5,a7,s5
    7260:	e6043b03          	ld	s6,-416(s0)
    7264:	000018b7          	lui	a7,0x1
    7268:	411408b3          	sub	a7,s0,a7
    726c:	d188b883          	ld	a7,-744(a7) # d18 <.LBB101_3+0xac4>
    7270:	01688b33          	add	s6,a7,s6
    7274:	016a8ab3          	add	s5,s5,s6
    7278:	428ada93          	srai	s5,s5,0x28
    727c:	f7543823          	sd	s5,-144(s0)
    7280:	01594663          	blt	s2,s5,728c <.LBB101_526>
    7284:	f7e00a93          	li	s5,-130
    7288:	f7543823          	sd	s5,-144(s0)

000000000000728c <.LBB101_526>:
    728c:	000018b7          	lui	a7,0x1
    7290:	411408b3          	sub	a7,s0,a7
    7294:	6688ba83          	ld	s5,1640(a7) # 1668 <.LBB101_5+0x218>
    7298:	000018b7          	lui	a7,0x1
    729c:	411408b3          	sub	a7,s0,a7
    72a0:	d988b883          	ld	a7,-616(a7) # d98 <.LBB101_3+0xb44>
    72a4:	03588ab3          	mul	s5,a7,s5
    72a8:	e6043b03          	ld	s6,-416(s0)
    72ac:	000018b7          	lui	a7,0x1
    72b0:	411408b3          	sub	a7,s0,a7
    72b4:	d908b883          	ld	a7,-624(a7) # d90 <.LBB101_3+0xb3c>
    72b8:	01688b33          	add	s6,a7,s6
    72bc:	016a8ab3          	add	s5,s5,s6
    72c0:	428ada93          	srai	s5,s5,0x28
    72c4:	f7543423          	sd	s5,-152(s0)
    72c8:	01594663          	blt	s2,s5,72d4 <.LBB101_528>
    72cc:	f7e00a93          	li	s5,-130
    72d0:	f7543423          	sd	s5,-152(s0)

00000000000072d4 <.LBB101_528>:
    72d4:	000018b7          	lui	a7,0x1
    72d8:	411408b3          	sub	a7,s0,a7
    72dc:	6688ba83          	ld	s5,1640(a7) # 1668 <.LBB101_5+0x218>
    72e0:	000018b7          	lui	a7,0x1
    72e4:	411408b3          	sub	a7,s0,a7
    72e8:	e188b883          	ld	a7,-488(a7) # e18 <.LBB101_3+0xbc4>
    72ec:	03588ab3          	mul	s5,a7,s5
    72f0:	e6043b03          	ld	s6,-416(s0)
    72f4:	000018b7          	lui	a7,0x1
    72f8:	411408b3          	sub	a7,s0,a7
    72fc:	e088b883          	ld	a7,-504(a7) # e08 <.LBB101_3+0xbb4>
    7300:	01688b33          	add	s6,a7,s6
    7304:	016a8ab3          	add	s5,s5,s6
    7308:	428ada93          	srai	s5,s5,0x28
    730c:	f7543023          	sd	s5,-160(s0)
    7310:	01594663          	blt	s2,s5,731c <.LBB101_530>
    7314:	f7e00a93          	li	s5,-130
    7318:	f7543023          	sd	s5,-160(s0)

000000000000731c <.LBB101_530>:
    731c:	000018b7          	lui	a7,0x1
    7320:	411408b3          	sub	a7,s0,a7
    7324:	6688ba83          	ld	s5,1640(a7) # 1668 <.LBB101_5+0x218>
    7328:	000018b7          	lui	a7,0x1
    732c:	411408b3          	sub	a7,s0,a7
    7330:	e888b883          	ld	a7,-376(a7) # e88 <.LBB101_3+0xc34>
    7334:	03588ab3          	mul	s5,a7,s5
    7338:	e6043b03          	ld	s6,-416(s0)
    733c:	000018b7          	lui	a7,0x1
    7340:	411408b3          	sub	a7,s0,a7
    7344:	e808b883          	ld	a7,-384(a7) # e80 <.LBB101_3+0xc2c>
    7348:	01688b33          	add	s6,a7,s6
    734c:	016a8ab3          	add	s5,s5,s6
    7350:	428ada93          	srai	s5,s5,0x28
    7354:	f5543c23          	sd	s5,-168(s0)
    7358:	01594663          	blt	s2,s5,7364 <.LBB101_532>
    735c:	f7e00a93          	li	s5,-130
    7360:	f5543c23          	sd	s5,-168(s0)

0000000000007364 <.LBB101_532>:
    7364:	000018b7          	lui	a7,0x1
    7368:	411408b3          	sub	a7,s0,a7
    736c:	6688ba83          	ld	s5,1640(a7) # 1668 <.LBB101_5+0x218>
    7370:	000018b7          	lui	a7,0x1
    7374:	411408b3          	sub	a7,s0,a7
    7378:	f088b883          	ld	a7,-248(a7) # f08 <.LBB101_4+0x5c>
    737c:	03588ab3          	mul	s5,a7,s5
    7380:	e6043b03          	ld	s6,-416(s0)
    7384:	000018b7          	lui	a7,0x1
    7388:	411408b3          	sub	a7,s0,a7
    738c:	ef88b883          	ld	a7,-264(a7) # ef8 <.LBB101_4+0x4c>
    7390:	01688b33          	add	s6,a7,s6
    7394:	016a8ab3          	add	s5,s5,s6
    7398:	428ada93          	srai	s5,s5,0x28
    739c:	f5543823          	sd	s5,-176(s0)
    73a0:	01594663          	blt	s2,s5,73ac <.LBB101_534>
    73a4:	f7e00a93          	li	s5,-130
    73a8:	f5543823          	sd	s5,-176(s0)

00000000000073ac <.LBB101_534>:
    73ac:	000018b7          	lui	a7,0x1
    73b0:	411408b3          	sub	a7,s0,a7
    73b4:	6688ba83          	ld	s5,1640(a7) # 1668 <.LBB101_5+0x218>
    73b8:	000018b7          	lui	a7,0x1
    73bc:	411408b3          	sub	a7,s0,a7
    73c0:	f808b883          	ld	a7,-128(a7) # f80 <.LBB101_4+0xd4>
    73c4:	03588ab3          	mul	s5,a7,s5
    73c8:	e6043b03          	ld	s6,-416(s0)
    73cc:	000018b7          	lui	a7,0x1
    73d0:	411408b3          	sub	a7,s0,a7
    73d4:	f708b883          	ld	a7,-144(a7) # f70 <.LBB101_4+0xc4>
    73d8:	01688b33          	add	s6,a7,s6
    73dc:	016a8ab3          	add	s5,s5,s6
    73e0:	428ada93          	srai	s5,s5,0x28
    73e4:	f5543423          	sd	s5,-184(s0)
    73e8:	01594663          	blt	s2,s5,73f4 <.LBB101_536>
    73ec:	f7e00a93          	li	s5,-130
    73f0:	f5543423          	sd	s5,-184(s0)

00000000000073f4 <.LBB101_536>:
    73f4:	000018b7          	lui	a7,0x1
    73f8:	411408b3          	sub	a7,s0,a7
    73fc:	6688ba83          	ld	s5,1640(a7) # 1668 <.LBB101_5+0x218>
    7400:	000018b7          	lui	a7,0x1
    7404:	411408b3          	sub	a7,s0,a7
    7408:	0008b883          	ld	a7,0(a7) # 1000 <.LBB101_4+0x154>
    740c:	03588ab3          	mul	s5,a7,s5
    7410:	e6043b03          	ld	s6,-416(s0)
    7414:	000018b7          	lui	a7,0x1
    7418:	411408b3          	sub	a7,s0,a7
    741c:	fe88b883          	ld	a7,-24(a7) # fe8 <.LBB101_4+0x13c>
    7420:	01688b33          	add	s6,a7,s6
    7424:	016a8ab3          	add	s5,s5,s6
    7428:	428ada93          	srai	s5,s5,0x28
    742c:	f5543023          	sd	s5,-192(s0)
    7430:	01594663          	blt	s2,s5,743c <.LBB101_538>
    7434:	f7e00a93          	li	s5,-130
    7438:	f5543023          	sd	s5,-192(s0)

000000000000743c <.LBB101_538>:
    743c:	000018b7          	lui	a7,0x1
    7440:	411408b3          	sub	a7,s0,a7
    7444:	6688ba83          	ld	s5,1640(a7) # 1668 <.LBB101_5+0x218>
    7448:	000018b7          	lui	a7,0x1
    744c:	411408b3          	sub	a7,s0,a7
    7450:	0788b883          	ld	a7,120(a7) # 1078 <.LBB101_4+0x1cc>
    7454:	03588ab3          	mul	s5,a7,s5
    7458:	e6043b03          	ld	s6,-416(s0)
    745c:	000018b7          	lui	a7,0x1
    7460:	411408b3          	sub	a7,s0,a7
    7464:	0688b883          	ld	a7,104(a7) # 1068 <.LBB101_4+0x1bc>
    7468:	01688b33          	add	s6,a7,s6
    746c:	016a8ab3          	add	s5,s5,s6
    7470:	428ada93          	srai	s5,s5,0x28
    7474:	f3543c23          	sd	s5,-200(s0)
    7478:	01594663          	blt	s2,s5,7484 <.LBB101_540>
    747c:	f7e00a93          	li	s5,-130
    7480:	f3543c23          	sd	s5,-200(s0)

0000000000007484 <.LBB101_540>:
    7484:	000018b7          	lui	a7,0x1
    7488:	411408b3          	sub	a7,s0,a7
    748c:	6688ba83          	ld	s5,1640(a7) # 1668 <.LBB101_5+0x218>
    7490:	000018b7          	lui	a7,0x1
    7494:	411408b3          	sub	a7,s0,a7
    7498:	0f08b883          	ld	a7,240(a7) # 10f0 <.LBB101_4+0x244>
    749c:	03588ab3          	mul	s5,a7,s5
    74a0:	e6043b03          	ld	s6,-416(s0)
    74a4:	000018b7          	lui	a7,0x1
    74a8:	411408b3          	sub	a7,s0,a7
    74ac:	0d88b883          	ld	a7,216(a7) # 10d8 <.LBB101_4+0x22c>
    74b0:	01688b33          	add	s6,a7,s6
    74b4:	016a8ab3          	add	s5,s5,s6
    74b8:	428ada93          	srai	s5,s5,0x28
    74bc:	f3543823          	sd	s5,-208(s0)
    74c0:	01594663          	blt	s2,s5,74cc <.LBB101_542>
    74c4:	f7e00a93          	li	s5,-130
    74c8:	f3543823          	sd	s5,-208(s0)

00000000000074cc <.LBB101_542>:
    74cc:	000018b7          	lui	a7,0x1
    74d0:	411408b3          	sub	a7,s0,a7
    74d4:	6688ba83          	ld	s5,1640(a7) # 1668 <.LBB101_5+0x218>
    74d8:	000018b7          	lui	a7,0x1
    74dc:	411408b3          	sub	a7,s0,a7
    74e0:	1608b883          	ld	a7,352(a7) # 1160 <.LBB101_4+0x2b4>
    74e4:	03588ab3          	mul	s5,a7,s5
    74e8:	e6043b03          	ld	s6,-416(s0)
    74ec:	000018b7          	lui	a7,0x1
    74f0:	411408b3          	sub	a7,s0,a7
    74f4:	1588b883          	ld	a7,344(a7) # 1158 <.LBB101_4+0x2ac>
    74f8:	01688b33          	add	s6,a7,s6
    74fc:	016a8ab3          	add	s5,s5,s6
    7500:	428ada93          	srai	s5,s5,0x28
    7504:	f3543423          	sd	s5,-216(s0)
    7508:	01594663          	blt	s2,s5,7514 <.LBB101_544>
    750c:	f7e00a93          	li	s5,-130
    7510:	f3543423          	sd	s5,-216(s0)

0000000000007514 <.LBB101_544>:
    7514:	000018b7          	lui	a7,0x1
    7518:	411408b3          	sub	a7,s0,a7
    751c:	6688ba83          	ld	s5,1640(a7) # 1668 <.LBB101_5+0x218>
    7520:	000018b7          	lui	a7,0x1
    7524:	411408b3          	sub	a7,s0,a7
    7528:	1e08b883          	ld	a7,480(a7) # 11e0 <.LBB101_4+0x334>
    752c:	03588ab3          	mul	s5,a7,s5
    7530:	e6043b03          	ld	s6,-416(s0)
    7534:	000018b7          	lui	a7,0x1
    7538:	411408b3          	sub	a7,s0,a7
    753c:	1d08b883          	ld	a7,464(a7) # 11d0 <.LBB101_4+0x324>
    7540:	01688b33          	add	s6,a7,s6
    7544:	016a8ab3          	add	s5,s5,s6
    7548:	428ada93          	srai	s5,s5,0x28
    754c:	f3543023          	sd	s5,-224(s0)
    7550:	01594663          	blt	s2,s5,755c <.LBB101_546>
    7554:	f7e00a93          	li	s5,-130
    7558:	f3543023          	sd	s5,-224(s0)

000000000000755c <.LBB101_546>:
    755c:	000018b7          	lui	a7,0x1
    7560:	411408b3          	sub	a7,s0,a7
    7564:	6688ba83          	ld	s5,1640(a7) # 1668 <.LBB101_5+0x218>
    7568:	000018b7          	lui	a7,0x1
    756c:	411408b3          	sub	a7,s0,a7
    7570:	2588b883          	ld	a7,600(a7) # 1258 <.LBB101_4+0x3ac>
    7574:	03588ab3          	mul	s5,a7,s5
    7578:	e6043b03          	ld	s6,-416(s0)
    757c:	000018b7          	lui	a7,0x1
    7580:	411408b3          	sub	a7,s0,a7
    7584:	2508b883          	ld	a7,592(a7) # 1250 <.LBB101_4+0x3a4>
    7588:	01688b33          	add	s6,a7,s6
    758c:	016a8ab3          	add	s5,s5,s6
    7590:	428ada93          	srai	s5,s5,0x28
    7594:	f1543c23          	sd	s5,-232(s0)
    7598:	01594663          	blt	s2,s5,75a4 <.LBB101_548>
    759c:	f7e00a93          	li	s5,-130
    75a0:	f1543c23          	sd	s5,-232(s0)

00000000000075a4 <.LBB101_548>:
    75a4:	000018b7          	lui	a7,0x1
    75a8:	411408b3          	sub	a7,s0,a7
    75ac:	6688ba83          	ld	s5,1640(a7) # 1668 <.LBB101_5+0x218>
    75b0:	000018b7          	lui	a7,0x1
    75b4:	411408b3          	sub	a7,s0,a7
    75b8:	2c08b883          	ld	a7,704(a7) # 12c0 <.LBB101_4+0x414>
    75bc:	03588ab3          	mul	s5,a7,s5
    75c0:	e6043b03          	ld	s6,-416(s0)
    75c4:	000018b7          	lui	a7,0x1
    75c8:	411408b3          	sub	a7,s0,a7
    75cc:	2b08b883          	ld	a7,688(a7) # 12b0 <.LBB101_4+0x404>
    75d0:	01688b33          	add	s6,a7,s6
    75d4:	016a8ab3          	add	s5,s5,s6
    75d8:	428ada93          	srai	s5,s5,0x28
    75dc:	f1543823          	sd	s5,-240(s0)
    75e0:	01594663          	blt	s2,s5,75ec <.LBB101_550>
    75e4:	f7e00a93          	li	s5,-130
    75e8:	f1543823          	sd	s5,-240(s0)

00000000000075ec <.LBB101_550>:
    75ec:	000018b7          	lui	a7,0x1
    75f0:	411408b3          	sub	a7,s0,a7
    75f4:	6688ba83          	ld	s5,1640(a7) # 1668 <.LBB101_5+0x218>
    75f8:	000018b7          	lui	a7,0x1
    75fc:	411408b3          	sub	a7,s0,a7
    7600:	3308b883          	ld	a7,816(a7) # 1330 <.LBB101_4+0x484>
    7604:	03588ab3          	mul	s5,a7,s5
    7608:	e6043b03          	ld	s6,-416(s0)
    760c:	000018b7          	lui	a7,0x1
    7610:	411408b3          	sub	a7,s0,a7
    7614:	3208b883          	ld	a7,800(a7) # 1320 <.LBB101_4+0x474>
    7618:	01688b33          	add	s6,a7,s6
    761c:	016a8ab3          	add	s5,s5,s6
    7620:	428ada93          	srai	s5,s5,0x28
    7624:	f1543423          	sd	s5,-248(s0)
    7628:	01594663          	blt	s2,s5,7634 <.LBB101_552>
    762c:	f7e00a93          	li	s5,-130
    7630:	f1543423          	sd	s5,-248(s0)

0000000000007634 <.LBB101_552>:
    7634:	000018b7          	lui	a7,0x1
    7638:	411408b3          	sub	a7,s0,a7
    763c:	6688ba83          	ld	s5,1640(a7) # 1668 <.LBB101_5+0x218>
    7640:	000018b7          	lui	a7,0x1
    7644:	411408b3          	sub	a7,s0,a7
    7648:	3a08b883          	ld	a7,928(a7) # 13a0 <.LBB101_4+0x4f4>
    764c:	03588ab3          	mul	s5,a7,s5
    7650:	e6043b03          	ld	s6,-416(s0)
    7654:	000018b7          	lui	a7,0x1
    7658:	411408b3          	sub	a7,s0,a7
    765c:	3888b883          	ld	a7,904(a7) # 1388 <.LBB101_4+0x4dc>
    7660:	01688b33          	add	s6,a7,s6
    7664:	016a8ab3          	add	s5,s5,s6
    7668:	428ada93          	srai	s5,s5,0x28
    766c:	f1543023          	sd	s5,-256(s0)
    7670:	01594663          	blt	s2,s5,767c <.LBB101_554>
    7674:	f7e00a93          	li	s5,-130
    7678:	f1543023          	sd	s5,-256(s0)

000000000000767c <.LBB101_554>:
    767c:	000018b7          	lui	a7,0x1
    7680:	411408b3          	sub	a7,s0,a7
    7684:	6688ba83          	ld	s5,1640(a7) # 1668 <.LBB101_5+0x218>
    7688:	000018b7          	lui	a7,0x1
    768c:	411408b3          	sub	a7,s0,a7
    7690:	4088b883          	ld	a7,1032(a7) # 1408 <.LBB101_4+0x55c>
    7694:	03588ab3          	mul	s5,a7,s5
    7698:	e6043b03          	ld	s6,-416(s0)
    769c:	000018b7          	lui	a7,0x1
    76a0:	411408b3          	sub	a7,s0,a7
    76a4:	3f88b883          	ld	a7,1016(a7) # 13f8 <.LBB101_4+0x54c>
    76a8:	01688b33          	add	s6,a7,s6
    76ac:	016a8ab3          	add	s5,s5,s6
    76b0:	428ada93          	srai	s5,s5,0x28
    76b4:	ef543c23          	sd	s5,-264(s0)
    76b8:	01594663          	blt	s2,s5,76c4 <.LBB101_556>
    76bc:	f7e00a93          	li	s5,-130
    76c0:	ef543c23          	sd	s5,-264(s0)

00000000000076c4 <.LBB101_556>:
    76c4:	000018b7          	lui	a7,0x1
    76c8:	411408b3          	sub	a7,s0,a7
    76cc:	6688ba83          	ld	s5,1640(a7) # 1668 <.LBB101_5+0x218>
    76d0:	000018b7          	lui	a7,0x1
    76d4:	411408b3          	sub	a7,s0,a7
    76d8:	4608b883          	ld	a7,1120(a7) # 1460 <.LBB101_5+0x10>
    76dc:	03588ab3          	mul	s5,a7,s5
    76e0:	e6043b03          	ld	s6,-416(s0)
    76e4:	000018b7          	lui	a7,0x1
    76e8:	411408b3          	sub	a7,s0,a7
    76ec:	4508b883          	ld	a7,1104(a7) # 1450 <.LBB101_5>
    76f0:	01688b33          	add	s6,a7,s6
    76f4:	016a8ab3          	add	s5,s5,s6
    76f8:	428ada93          	srai	s5,s5,0x28
    76fc:	ef543823          	sd	s5,-272(s0)
    7700:	01594663          	blt	s2,s5,770c <.LBB101_558>
    7704:	f7e00a93          	li	s5,-130
    7708:	ef543823          	sd	s5,-272(s0)

000000000000770c <.LBB101_558>:
    770c:	000018b7          	lui	a7,0x1
    7710:	411408b3          	sub	a7,s0,a7
    7714:	6688ba83          	ld	s5,1640(a7) # 1668 <.LBB101_5+0x218>
    7718:	000018b7          	lui	a7,0x1
    771c:	411408b3          	sub	a7,s0,a7
    7720:	4b88b883          	ld	a7,1208(a7) # 14b8 <.LBB101_5+0x68>
    7724:	03588ab3          	mul	s5,a7,s5
    7728:	e6043b03          	ld	s6,-416(s0)
    772c:	000018b7          	lui	a7,0x1
    7730:	411408b3          	sub	a7,s0,a7
    7734:	4b08b883          	ld	a7,1200(a7) # 14b0 <.LBB101_5+0x60>
    7738:	01688b33          	add	s6,a7,s6
    773c:	016a8ab3          	add	s5,s5,s6
    7740:	428ada93          	srai	s5,s5,0x28
    7744:	ef543423          	sd	s5,-280(s0)
    7748:	01594663          	blt	s2,s5,7754 <.LBB101_560>
    774c:	f7e00a93          	li	s5,-130
    7750:	ef543423          	sd	s5,-280(s0)

0000000000007754 <.LBB101_560>:
    7754:	000018b7          	lui	a7,0x1
    7758:	411408b3          	sub	a7,s0,a7
    775c:	6688ba83          	ld	s5,1640(a7) # 1668 <.LBB101_5+0x218>
    7760:	000018b7          	lui	a7,0x1
    7764:	411408b3          	sub	a7,s0,a7
    7768:	5188b883          	ld	a7,1304(a7) # 1518 <.LBB101_5+0xc8>
    776c:	03588ab3          	mul	s5,a7,s5
    7770:	e6043b03          	ld	s6,-416(s0)
    7774:	000018b7          	lui	a7,0x1
    7778:	411408b3          	sub	a7,s0,a7
    777c:	5108b883          	ld	a7,1296(a7) # 1510 <.LBB101_5+0xc0>
    7780:	01688b33          	add	s6,a7,s6
    7784:	016a8ab3          	add	s5,s5,s6
    7788:	428ada93          	srai	s5,s5,0x28
    778c:	ef543023          	sd	s5,-288(s0)
    7790:	01594663          	blt	s2,s5,779c <.LBB101_562>
    7794:	f7e00a93          	li	s5,-130
    7798:	ef543023          	sd	s5,-288(s0)

000000000000779c <.LBB101_562>:
    779c:	000018b7          	lui	a7,0x1
    77a0:	411408b3          	sub	a7,s0,a7
    77a4:	6688ba83          	ld	s5,1640(a7) # 1668 <.LBB101_5+0x218>
    77a8:	000018b7          	lui	a7,0x1
    77ac:	411408b3          	sub	a7,s0,a7
    77b0:	5708b883          	ld	a7,1392(a7) # 1570 <.LBB101_5+0x120>
    77b4:	03588ab3          	mul	s5,a7,s5
    77b8:	e6043b03          	ld	s6,-416(s0)
    77bc:	000018b7          	lui	a7,0x1
    77c0:	411408b3          	sub	a7,s0,a7
    77c4:	5688b883          	ld	a7,1384(a7) # 1568 <.LBB101_5+0x118>
    77c8:	01688b33          	add	s6,a7,s6
    77cc:	016a8ab3          	add	s5,s5,s6
    77d0:	428ada93          	srai	s5,s5,0x28
    77d4:	ed543823          	sd	s5,-304(s0)
    77d8:	01594663          	blt	s2,s5,77e4 <.LBB101_564>
    77dc:	f7e00a93          	li	s5,-130
    77e0:	ed543823          	sd	s5,-304(s0)

00000000000077e4 <.LBB101_564>:
    77e4:	000018b7          	lui	a7,0x1
    77e8:	411408b3          	sub	a7,s0,a7
    77ec:	6688ba83          	ld	s5,1640(a7) # 1668 <.LBB101_5+0x218>
    77f0:	000018b7          	lui	a7,0x1
    77f4:	411408b3          	sub	a7,s0,a7
    77f8:	5d08b883          	ld	a7,1488(a7) # 15d0 <.LBB101_5+0x180>
    77fc:	03588ab3          	mul	s5,a7,s5
    7800:	e6043b03          	ld	s6,-416(s0)
    7804:	000018b7          	lui	a7,0x1
    7808:	411408b3          	sub	a7,s0,a7
    780c:	5c88b883          	ld	a7,1480(a7) # 15c8 <.LBB101_5+0x178>
    7810:	01688b33          	add	s6,a7,s6
    7814:	016a8ab3          	add	s5,s5,s6
    7818:	428ada93          	srai	s5,s5,0x28
    781c:	ed543023          	sd	s5,-320(s0)
    7820:	01594663          	blt	s2,s5,782c <.LBB101_566>
    7824:	f7e00a93          	li	s5,-130
    7828:	ed543023          	sd	s5,-320(s0)

000000000000782c <.LBB101_566>:
    782c:	000018b7          	lui	a7,0x1
    7830:	411408b3          	sub	a7,s0,a7
    7834:	6688ba83          	ld	s5,1640(a7) # 1668 <.LBB101_5+0x218>
    7838:	000018b7          	lui	a7,0x1
    783c:	411408b3          	sub	a7,s0,a7
    7840:	5e08b883          	ld	a7,1504(a7) # 15e0 <.LBB101_5+0x190>
    7844:	03588ab3          	mul	s5,a7,s5
    7848:	e6043b03          	ld	s6,-416(s0)
    784c:	000018b7          	lui	a7,0x1
    7850:	411408b3          	sub	a7,s0,a7
    7854:	5d88b883          	ld	a7,1496(a7) # 15d8 <.LBB101_5+0x188>
    7858:	01688b33          	add	s6,a7,s6
    785c:	016a8ab3          	add	s5,s5,s6
    7860:	428ada93          	srai	s5,s5,0x28
    7864:	eb543823          	sd	s5,-336(s0)
    7868:	01594663          	blt	s2,s5,7874 <.LBB101_568>
    786c:	f7e00a93          	li	s5,-130
    7870:	eb543823          	sd	s5,-336(s0)

0000000000007874 <.LBB101_568>:
    7874:	82943c23          	sd	s1,-1992(s0)
    7878:	000018b7          	lui	a7,0x1
    787c:	411408b3          	sub	a7,s0,a7
    7880:	6688ba83          	ld	s5,1640(a7) # 1668 <.LBB101_5+0x218>
    7884:	000018b7          	lui	a7,0x1
    7888:	411408b3          	sub	a7,s0,a7
    788c:	5f08b883          	ld	a7,1520(a7) # 15f0 <.LBB101_5+0x1a0>
    7890:	03588ab3          	mul	s5,a7,s5
    7894:	e6043b03          	ld	s6,-416(s0)
    7898:	000018b7          	lui	a7,0x1
    789c:	411408b3          	sub	a7,s0,a7
    78a0:	5e88b883          	ld	a7,1512(a7) # 15e8 <.LBB101_5+0x198>
    78a4:	01688b33          	add	s6,a7,s6
    78a8:	016a8ab3          	add	s5,s5,s6
    78ac:	428ada93          	srai	s5,s5,0x28
    78b0:	eb543023          	sd	s5,-352(s0)
    78b4:	01594663          	blt	s2,s5,78c0 <.LBB101_570>
    78b8:	f7e00a93          	li	s5,-130
    78bc:	eb543023          	sd	s5,-352(s0)

00000000000078c0 <.LBB101_570>:
    78c0:	000018b7          	lui	a7,0x1
    78c4:	411408b3          	sub	a7,s0,a7
    78c8:	6688ba83          	ld	s5,1640(a7) # 1668 <.LBB101_5+0x218>
    78cc:	000018b7          	lui	a7,0x1
    78d0:	411408b3          	sub	a7,s0,a7
    78d4:	6008b483          	ld	s1,1536(a7) # 1600 <.LBB101_5+0x1b0>
    78d8:	03548ab3          	mul	s5,s1,s5
    78dc:	e6043b03          	ld	s6,-416(s0)
    78e0:	000018b7          	lui	a7,0x1
    78e4:	411408b3          	sub	a7,s0,a7
    78e8:	5f88b483          	ld	s1,1528(a7) # 15f8 <.LBB101_5+0x1a8>
    78ec:	01648b33          	add	s6,s1,s6
    78f0:	016a8ab3          	add	s5,s5,s6
    78f4:	428ada93          	srai	s5,s5,0x28
    78f8:	e9543823          	sd	s5,-368(s0)
    78fc:	01594663          	blt	s2,s5,7908 <.LBB101_572>
    7900:	f7e00a93          	li	s5,-130
    7904:	e9543823          	sd	s5,-368(s0)

0000000000007908 <.LBB101_572>:
    7908:	000018b7          	lui	a7,0x1
    790c:	411408b3          	sub	a7,s0,a7
    7910:	6688ba83          	ld	s5,1640(a7) # 1668 <.LBB101_5+0x218>
    7914:	000018b7          	lui	a7,0x1
    7918:	411408b3          	sub	a7,s0,a7
    791c:	6108b483          	ld	s1,1552(a7) # 1610 <.LBB101_5+0x1c0>
    7920:	03548ab3          	mul	s5,s1,s5
    7924:	e6043b03          	ld	s6,-416(s0)
    7928:	000018b7          	lui	a7,0x1
    792c:	411408b3          	sub	a7,s0,a7
    7930:	6088b483          	ld	s1,1544(a7) # 1608 <.LBB101_5+0x1b8>
    7934:	01648b33          	add	s6,s1,s6
    7938:	016a8ab3          	add	s5,s5,s6
    793c:	428ada93          	srai	s5,s5,0x28
    7940:	e9543023          	sd	s5,-384(s0)
    7944:	01594663          	blt	s2,s5,7950 <.LBB101_574>
    7948:	f7e00a93          	li	s5,-130
    794c:	e9543023          	sd	s5,-384(s0)

0000000000007950 <.LBB101_574>:
    7950:	000018b7          	lui	a7,0x1
    7954:	411408b3          	sub	a7,s0,a7
    7958:	6688ba83          	ld	s5,1640(a7) # 1668 <.LBB101_5+0x218>
    795c:	000018b7          	lui	a7,0x1
    7960:	411408b3          	sub	a7,s0,a7
    7964:	6208b483          	ld	s1,1568(a7) # 1620 <.LBB101_5+0x1d0>
    7968:	03548ab3          	mul	s5,s1,s5
    796c:	e6043b03          	ld	s6,-416(s0)
    7970:	000018b7          	lui	a7,0x1
    7974:	411408b3          	sub	a7,s0,a7
    7978:	6188b483          	ld	s1,1560(a7) # 1618 <.LBB101_5+0x1c8>
    797c:	01648b33          	add	s6,s1,s6
    7980:	016a8ab3          	add	s5,s5,s6
    7984:	428ada93          	srai	s5,s5,0x28
    7988:	e7543823          	sd	s5,-400(s0)
    798c:	01594663          	blt	s2,s5,7998 <.LBB101_576>
    7990:	f7e00a93          	li	s5,-130
    7994:	e7543823          	sd	s5,-400(s0)

0000000000007998 <.LBB101_576>:
    7998:	000018b7          	lui	a7,0x1
    799c:	411408b3          	sub	a7,s0,a7
    79a0:	6688ba83          	ld	s5,1640(a7) # 1668 <.LBB101_5+0x218>
    79a4:	000018b7          	lui	a7,0x1
    79a8:	411408b3          	sub	a7,s0,a7
    79ac:	6308b483          	ld	s1,1584(a7) # 1630 <.LBB101_5+0x1e0>
    79b0:	03548ab3          	mul	s5,s1,s5
    79b4:	e6043b03          	ld	s6,-416(s0)
    79b8:	000018b7          	lui	a7,0x1
    79bc:	411408b3          	sub	a7,s0,a7
    79c0:	6288b483          	ld	s1,1576(a7) # 1628 <.LBB101_5+0x1d8>
    79c4:	01648b33          	add	s6,s1,s6
    79c8:	016a8ab3          	add	s5,s5,s6
    79cc:	428ada93          	srai	s5,s5,0x28
    79d0:	e5543c23          	sd	s5,-424(s0)
    79d4:	01594663          	blt	s2,s5,79e0 <.LBB101_578>
    79d8:	f7e00a93          	li	s5,-130
    79dc:	e5543c23          	sd	s5,-424(s0)

00000000000079e0 <.LBB101_578>:
    79e0:	000018b7          	lui	a7,0x1
    79e4:	411408b3          	sub	a7,s0,a7
    79e8:	6688ba83          	ld	s5,1640(a7) # 1668 <.LBB101_5+0x218>
    79ec:	000018b7          	lui	a7,0x1
    79f0:	411408b3          	sub	a7,s0,a7
    79f4:	6408b483          	ld	s1,1600(a7) # 1640 <.LBB101_5+0x1f0>
    79f8:	03548ab3          	mul	s5,s1,s5
    79fc:	e6043b03          	ld	s6,-416(s0)
    7a00:	000018b7          	lui	a7,0x1
    7a04:	411408b3          	sub	a7,s0,a7
    7a08:	6388b483          	ld	s1,1592(a7) # 1638 <.LBB101_5+0x1e8>
    7a0c:	01648b33          	add	s6,s1,s6
    7a10:	016a8ab3          	add	s5,s5,s6
    7a14:	428ada93          	srai	s5,s5,0x28
    7a18:	e5543423          	sd	s5,-440(s0)
    7a1c:	01594663          	blt	s2,s5,7a28 <.LBB101_580>
    7a20:	f7e00a93          	li	s5,-130
    7a24:	e5543423          	sd	s5,-440(s0)

0000000000007a28 <.LBB101_580>:
    7a28:	000018b7          	lui	a7,0x1
    7a2c:	411408b3          	sub	a7,s0,a7
    7a30:	6688ba83          	ld	s5,1640(a7) # 1668 <.LBB101_5+0x218>
    7a34:	000018b7          	lui	a7,0x1
    7a38:	411408b3          	sub	a7,s0,a7
    7a3c:	6788bb03          	ld	s6,1656(a7) # 1678 <.LBB101_5+0x228>
    7a40:	035b0ab3          	mul	s5,s6,s5
    7a44:	e6043b03          	ld	s6,-416(s0)
    7a48:	000018b7          	lui	a7,0x1
    7a4c:	411408b3          	sub	a7,s0,a7
    7a50:	6708b483          	ld	s1,1648(a7) # 1670 <.LBB101_5+0x220>
    7a54:	01648b33          	add	s6,s1,s6
    7a58:	016a8ab3          	add	s5,s5,s6
    7a5c:	428ada93          	srai	s5,s5,0x28
    7a60:	d7543023          	sd	s5,-672(s0)
    7a64:	01594663          	blt	s2,s5,7a70 <.LBB101_582>
    7a68:	f7e00a93          	li	s5,-130
    7a6c:	d7543023          	sd	s5,-672(s0)

0000000000007a70 <.LBB101_582>:
    7a70:	000018b7          	lui	a7,0x1
    7a74:	411408b3          	sub	a7,s0,a7
    7a78:	6688bb03          	ld	s6,1640(a7) # 1668 <.LBB101_5+0x218>
    7a7c:	036686b3          	mul	a3,a3,s6
    7a80:	e6043a83          	ld	s5,-416(s0)
    7a84:	000018b7          	lui	a7,0x1
    7a88:	411408b3          	sub	a7,s0,a7
    7a8c:	bd88b883          	ld	a7,-1064(a7) # bd8 <.LBB101_3+0x984>
    7a90:	01588ab3          	add	s5,a7,s5
    7a94:	015686b3          	add	a3,a3,s5
    7a98:	4286d693          	srai	a3,a3,0x28
    7a9c:	ecd43c23          	sd	a3,-296(s0)
    7aa0:	00d94663          	blt	s2,a3,7aac <.LBB101_584>
    7aa4:	f7e00693          	li	a3,-130
    7aa8:	ecd43c23          	sd	a3,-296(s0)

0000000000007aac <.LBB101_584>:
    7aac:	000016b7          	lui	a3,0x1
    7ab0:	40d406b3          	sub	a3,s0,a3
    7ab4:	c486b683          	ld	a3,-952(a3) # c48 <.LBB101_3+0x9f4>
    7ab8:	036686b3          	mul	a3,a3,s6
    7abc:	e6043a83          	ld	s5,-416(s0)
    7ac0:	000018b7          	lui	a7,0x1
    7ac4:	411408b3          	sub	a7,s0,a7
    7ac8:	c408b883          	ld	a7,-960(a7) # c40 <.LBB101_3+0x9ec>
    7acc:	01588ab3          	add	s5,a7,s5
    7ad0:	015686b3          	add	a3,a3,s5
    7ad4:	4286d693          	srai	a3,a3,0x28
    7ad8:	ecd43423          	sd	a3,-312(s0)
    7adc:	00d94663          	blt	s2,a3,7ae8 <.LBB101_586>
    7ae0:	f7e00693          	li	a3,-130
    7ae4:	ecd43423          	sd	a3,-312(s0)

0000000000007ae8 <.LBB101_586>:
    7ae8:	000016b7          	lui	a3,0x1
    7aec:	40d406b3          	sub	a3,s0,a3
    7af0:	c906b683          	ld	a3,-880(a3) # c90 <.LBB101_3+0xa3c>
    7af4:	036686b3          	mul	a3,a3,s6
    7af8:	e6043a83          	ld	s5,-416(s0)
    7afc:	000018b7          	lui	a7,0x1
    7b00:	411408b3          	sub	a7,s0,a7
    7b04:	c888b883          	ld	a7,-888(a7) # c88 <.LBB101_3+0xa34>
    7b08:	01588ab3          	add	s5,a7,s5
    7b0c:	015686b3          	add	a3,a3,s5
    7b10:	4286d693          	srai	a3,a3,0x28
    7b14:	ead43c23          	sd	a3,-328(s0)
    7b18:	00d94663          	blt	s2,a3,7b24 <.LBB101_588>
    7b1c:	f7e00693          	li	a3,-130
    7b20:	ead43c23          	sd	a3,-328(s0)

0000000000007b24 <.LBB101_588>:
    7b24:	000016b7          	lui	a3,0x1
    7b28:	40d406b3          	sub	a3,s0,a3
    7b2c:	d106b683          	ld	a3,-752(a3) # d10 <.LBB101_3+0xabc>
    7b30:	036686b3          	mul	a3,a3,s6
    7b34:	e6043a83          	ld	s5,-416(s0)
    7b38:	000018b7          	lui	a7,0x1
    7b3c:	411408b3          	sub	a7,s0,a7
    7b40:	d088b883          	ld	a7,-760(a7) # d08 <.LBB101_3+0xab4>
    7b44:	01588ab3          	add	s5,a7,s5
    7b48:	015686b3          	add	a3,a3,s5
    7b4c:	4286d693          	srai	a3,a3,0x28
    7b50:	ead43423          	sd	a3,-344(s0)
    7b54:	00d94663          	blt	s2,a3,7b60 <.LBB101_590>
    7b58:	f7e00693          	li	a3,-130
    7b5c:	ead43423          	sd	a3,-344(s0)

0000000000007b60 <.LBB101_590>:
    7b60:	000016b7          	lui	a3,0x1
    7b64:	40d406b3          	sub	a3,s0,a3
    7b68:	d886b683          	ld	a3,-632(a3) # d88 <.LBB101_3+0xb34>
    7b6c:	036686b3          	mul	a3,a3,s6
    7b70:	e6043a83          	ld	s5,-416(s0)
    7b74:	000018b7          	lui	a7,0x1
    7b78:	411408b3          	sub	a7,s0,a7
    7b7c:	d808b883          	ld	a7,-640(a7) # d80 <.LBB101_3+0xb2c>
    7b80:	01588ab3          	add	s5,a7,s5
    7b84:	015686b3          	add	a3,a3,s5
    7b88:	4286d693          	srai	a3,a3,0x28
    7b8c:	e8d43c23          	sd	a3,-360(s0)
    7b90:	00d94663          	blt	s2,a3,7b9c <.LBB101_592>
    7b94:	f7e00693          	li	a3,-130
    7b98:	e8d43c23          	sd	a3,-360(s0)

0000000000007b9c <.LBB101_592>:
    7b9c:	000016b7          	lui	a3,0x1
    7ba0:	40d406b3          	sub	a3,s0,a3
    7ba4:	e006b683          	ld	a3,-512(a3) # e00 <.LBB101_3+0xbac>
    7ba8:	036686b3          	mul	a3,a3,s6
    7bac:	e6043a83          	ld	s5,-416(s0)
    7bb0:	000018b7          	lui	a7,0x1
    7bb4:	411408b3          	sub	a7,s0,a7
    7bb8:	df88b883          	ld	a7,-520(a7) # df8 <.LBB101_3+0xba4>
    7bbc:	01588ab3          	add	s5,a7,s5
    7bc0:	015686b3          	add	a3,a3,s5
    7bc4:	4286d693          	srai	a3,a3,0x28
    7bc8:	e8d43423          	sd	a3,-376(s0)
    7bcc:	00d94663          	blt	s2,a3,7bd8 <.LBB101_594>
    7bd0:	f7e00693          	li	a3,-130
    7bd4:	e8d43423          	sd	a3,-376(s0)

0000000000007bd8 <.LBB101_594>:
    7bd8:	000016b7          	lui	a3,0x1
    7bdc:	40d406b3          	sub	a3,s0,a3
    7be0:	e706b683          	ld	a3,-400(a3) # e70 <.LBB101_3+0xc1c>
    7be4:	036686b3          	mul	a3,a3,s6
    7be8:	e6043a83          	ld	s5,-416(s0)
    7bec:	000018b7          	lui	a7,0x1
    7bf0:	411408b3          	sub	a7,s0,a7
    7bf4:	e688b883          	ld	a7,-408(a7) # e68 <.LBB101_3+0xc14>
    7bf8:	01588ab3          	add	s5,a7,s5
    7bfc:	015686b3          	add	a3,a3,s5
    7c00:	4286d693          	srai	a3,a3,0x28
    7c04:	e6d43c23          	sd	a3,-392(s0)
    7c08:	00d94663          	blt	s2,a3,7c14 <.LBB101_596>
    7c0c:	f7e00693          	li	a3,-130
    7c10:	e6d43c23          	sd	a3,-392(s0)

0000000000007c14 <.LBB101_596>:
    7c14:	000016b7          	lui	a3,0x1
    7c18:	40d406b3          	sub	a3,s0,a3
    7c1c:	ee86b683          	ld	a3,-280(a3) # ee8 <.LBB101_4+0x3c>
    7c20:	036686b3          	mul	a3,a3,s6
    7c24:	e6043a83          	ld	s5,-416(s0)
    7c28:	000018b7          	lui	a7,0x1
    7c2c:	411408b3          	sub	a7,s0,a7
    7c30:	ee08b883          	ld	a7,-288(a7) # ee0 <.LBB101_4+0x34>
    7c34:	01588ab3          	add	s5,a7,s5
    7c38:	015686b3          	add	a3,a3,s5
    7c3c:	4286d693          	srai	a3,a3,0x28
    7c40:	e6d43423          	sd	a3,-408(s0)
    7c44:	00d94663          	blt	s2,a3,7c50 <.LBB101_598>
    7c48:	f7e00693          	li	a3,-130
    7c4c:	e6d43423          	sd	a3,-408(s0)

0000000000007c50 <.LBB101_598>:
    7c50:	000016b7          	lui	a3,0x1
    7c54:	40d406b3          	sub	a3,s0,a3
    7c58:	f586b683          	ld	a3,-168(a3) # f58 <.LBB101_4+0xac>
    7c5c:	036686b3          	mul	a3,a3,s6
    7c60:	e6043a83          	ld	s5,-416(s0)
    7c64:	000018b7          	lui	a7,0x1
    7c68:	411408b3          	sub	a7,s0,a7
    7c6c:	f508b883          	ld	a7,-176(a7) # f50 <.LBB101_4+0xa4>
    7c70:	01588ab3          	add	s5,a7,s5
    7c74:	015686b3          	add	a3,a3,s5
    7c78:	4286d693          	srai	a3,a3,0x28
    7c7c:	e4d43823          	sd	a3,-432(s0)
    7c80:	00d94663          	blt	s2,a3,7c8c <.LBB101_600>
    7c84:	f7e00693          	li	a3,-130
    7c88:	e4d43823          	sd	a3,-432(s0)

0000000000007c8c <.LBB101_600>:
    7c8c:	000016b7          	lui	a3,0x1
    7c90:	40d406b3          	sub	a3,s0,a3
    7c94:	fd06b683          	ld	a3,-48(a3) # fd0 <.LBB101_4+0x124>
    7c98:	036686b3          	mul	a3,a3,s6
    7c9c:	e6043a83          	ld	s5,-416(s0)
    7ca0:	000018b7          	lui	a7,0x1
    7ca4:	411408b3          	sub	a7,s0,a7
    7ca8:	fc88b883          	ld	a7,-56(a7) # fc8 <.LBB101_4+0x11c>
    7cac:	01588ab3          	add	s5,a7,s5
    7cb0:	015686b3          	add	a3,a3,s5
    7cb4:	4286d693          	srai	a3,a3,0x28
    7cb8:	e4d43023          	sd	a3,-448(s0)
    7cbc:	00d94663          	blt	s2,a3,7cc8 <.LBB101_602>
    7cc0:	f7e00693          	li	a3,-130
    7cc4:	e4d43023          	sd	a3,-448(s0)

0000000000007cc8 <.LBB101_602>:
    7cc8:	000016b7          	lui	a3,0x1
    7ccc:	40d406b3          	sub	a3,s0,a3
    7cd0:	0406b683          	ld	a3,64(a3) # 1040 <.LBB101_4+0x194>
    7cd4:	036686b3          	mul	a3,a3,s6
    7cd8:	e6043a83          	ld	s5,-416(s0)
    7cdc:	000018b7          	lui	a7,0x1
    7ce0:	411408b3          	sub	a7,s0,a7
    7ce4:	0388b883          	ld	a7,56(a7) # 1038 <.LBB101_4+0x18c>
    7ce8:	01588ab3          	add	s5,a7,s5
    7cec:	015686b3          	add	a3,a3,s5
    7cf0:	4286d693          	srai	a3,a3,0x28
    7cf4:	e2d43c23          	sd	a3,-456(s0)
    7cf8:	00d94663          	blt	s2,a3,7d04 <.LBB101_604>
    7cfc:	f7e00693          	li	a3,-130
    7d00:	e2d43c23          	sd	a3,-456(s0)

0000000000007d04 <.LBB101_604>:
    7d04:	000016b7          	lui	a3,0x1
    7d08:	40d406b3          	sub	a3,s0,a3
    7d0c:	0b06b683          	ld	a3,176(a3) # 10b0 <.LBB101_4+0x204>
    7d10:	036686b3          	mul	a3,a3,s6
    7d14:	e6043a83          	ld	s5,-416(s0)
    7d18:	000018b7          	lui	a7,0x1
    7d1c:	411408b3          	sub	a7,s0,a7
    7d20:	0a88b883          	ld	a7,168(a7) # 10a8 <.LBB101_4+0x1fc>
    7d24:	01588ab3          	add	s5,a7,s5
    7d28:	015686b3          	add	a3,a3,s5
    7d2c:	4286d693          	srai	a3,a3,0x28
    7d30:	e2d43823          	sd	a3,-464(s0)
    7d34:	00d94663          	blt	s2,a3,7d40 <.LBB101_606>
    7d38:	f7e00693          	li	a3,-130
    7d3c:	e2d43823          	sd	a3,-464(s0)

0000000000007d40 <.LBB101_606>:
    7d40:	000016b7          	lui	a3,0x1
    7d44:	40d406b3          	sub	a3,s0,a3
    7d48:	1206b683          	ld	a3,288(a3) # 1120 <.LBB101_4+0x274>
    7d4c:	036686b3          	mul	a3,a3,s6
    7d50:	e6043a83          	ld	s5,-416(s0)
    7d54:	000018b7          	lui	a7,0x1
    7d58:	411408b3          	sub	a7,s0,a7
    7d5c:	1188b883          	ld	a7,280(a7) # 1118 <.LBB101_4+0x26c>
    7d60:	01588ab3          	add	s5,a7,s5
    7d64:	015686b3          	add	a3,a3,s5
    7d68:	4286d693          	srai	a3,a3,0x28
    7d6c:	e2d43423          	sd	a3,-472(s0)
    7d70:	00d94663          	blt	s2,a3,7d7c <.LBB101_608>
    7d74:	f7e00693          	li	a3,-130
    7d78:	e2d43423          	sd	a3,-472(s0)

0000000000007d7c <.LBB101_608>:
    7d7c:	000016b7          	lui	a3,0x1
    7d80:	40d406b3          	sub	a3,s0,a3
    7d84:	1906b683          	ld	a3,400(a3) # 1190 <.LBB101_4+0x2e4>
    7d88:	036686b3          	mul	a3,a3,s6
    7d8c:	e6043a83          	ld	s5,-416(s0)
    7d90:	000018b7          	lui	a7,0x1
    7d94:	411408b3          	sub	a7,s0,a7
    7d98:	1888b883          	ld	a7,392(a7) # 1188 <.LBB101_4+0x2dc>
    7d9c:	01588ab3          	add	s5,a7,s5
    7da0:	015686b3          	add	a3,a3,s5
    7da4:	4286d693          	srai	a3,a3,0x28
    7da8:	e2d43023          	sd	a3,-480(s0)
    7dac:	00d94663          	blt	s2,a3,7db8 <.LBB101_610>
    7db0:	f7e00693          	li	a3,-130
    7db4:	e2d43023          	sd	a3,-480(s0)

0000000000007db8 <.LBB101_610>:
    7db8:	000016b7          	lui	a3,0x1
    7dbc:	40d406b3          	sub	a3,s0,a3
    7dc0:	2086b683          	ld	a3,520(a3) # 1208 <.LBB101_4+0x35c>
    7dc4:	036686b3          	mul	a3,a3,s6
    7dc8:	e6043a83          	ld	s5,-416(s0)
    7dcc:	000018b7          	lui	a7,0x1
    7dd0:	411408b3          	sub	a7,s0,a7
    7dd4:	2008b883          	ld	a7,512(a7) # 1200 <.LBB101_4+0x354>
    7dd8:	01588ab3          	add	s5,a7,s5
    7ddc:	015686b3          	add	a3,a3,s5
    7de0:	4286d693          	srai	a3,a3,0x28
    7de4:	e0d43c23          	sd	a3,-488(s0)
    7de8:	00d94663          	blt	s2,a3,7df4 <.LBB101_612>
    7dec:	f7e00693          	li	a3,-130
    7df0:	e0d43c23          	sd	a3,-488(s0)

0000000000007df4 <.LBB101_612>:
    7df4:	000016b7          	lui	a3,0x1
    7df8:	40d406b3          	sub	a3,s0,a3
    7dfc:	2786b683          	ld	a3,632(a3) # 1278 <.LBB101_4+0x3cc>
    7e00:	036686b3          	mul	a3,a3,s6
    7e04:	e6043a83          	ld	s5,-416(s0)
    7e08:	000018b7          	lui	a7,0x1
    7e0c:	411408b3          	sub	a7,s0,a7
    7e10:	2708b883          	ld	a7,624(a7) # 1270 <.LBB101_4+0x3c4>
    7e14:	01588ab3          	add	s5,a7,s5
    7e18:	015686b3          	add	a3,a3,s5
    7e1c:	4286d693          	srai	a3,a3,0x28
    7e20:	e0d43823          	sd	a3,-496(s0)
    7e24:	00d94663          	blt	s2,a3,7e30 <.LBB101_614>
    7e28:	f7e00693          	li	a3,-130
    7e2c:	e0d43823          	sd	a3,-496(s0)

0000000000007e30 <.LBB101_614>:
    7e30:	000016b7          	lui	a3,0x1
    7e34:	40d406b3          	sub	a3,s0,a3
    7e38:	2d86b683          	ld	a3,728(a3) # 12d8 <.LBB101_4+0x42c>
    7e3c:	036686b3          	mul	a3,a3,s6
    7e40:	e6043a83          	ld	s5,-416(s0)
    7e44:	000018b7          	lui	a7,0x1
    7e48:	411408b3          	sub	a7,s0,a7
    7e4c:	2d08b883          	ld	a7,720(a7) # 12d0 <.LBB101_4+0x424>
    7e50:	01588ab3          	add	s5,a7,s5
    7e54:	015686b3          	add	a3,a3,s5
    7e58:	4286d693          	srai	a3,a3,0x28
    7e5c:	e0d43423          	sd	a3,-504(s0)
    7e60:	00d94663          	blt	s2,a3,7e6c <.LBB101_616>
    7e64:	f7e00693          	li	a3,-130
    7e68:	e0d43423          	sd	a3,-504(s0)

0000000000007e6c <.LBB101_616>:
    7e6c:	000016b7          	lui	a3,0x1
    7e70:	40d406b3          	sub	a3,s0,a3
    7e74:	3406b683          	ld	a3,832(a3) # 1340 <.LBB101_4+0x494>
    7e78:	036686b3          	mul	a3,a3,s6
    7e7c:	e6043a83          	ld	s5,-416(s0)
    7e80:	000018b7          	lui	a7,0x1
    7e84:	411408b3          	sub	a7,s0,a7
    7e88:	3388b883          	ld	a7,824(a7) # 1338 <.LBB101_4+0x48c>
    7e8c:	01588ab3          	add	s5,a7,s5
    7e90:	015686b3          	add	a3,a3,s5
    7e94:	4286d693          	srai	a3,a3,0x28
    7e98:	e0d43023          	sd	a3,-512(s0)
    7e9c:	00d94663          	blt	s2,a3,7ea8 <.LBB101_618>
    7ea0:	f7e00693          	li	a3,-130
    7ea4:	e0d43023          	sd	a3,-512(s0)

0000000000007ea8 <.LBB101_618>:
    7ea8:	000016b7          	lui	a3,0x1
    7eac:	40d406b3          	sub	a3,s0,a3
    7eb0:	3a86b683          	ld	a3,936(a3) # 13a8 <.LBB101_4+0x4fc>
    7eb4:	036686b3          	mul	a3,a3,s6
    7eb8:	e6043a83          	ld	s5,-416(s0)
    7ebc:	000018b7          	lui	a7,0x1
    7ec0:	411408b3          	sub	a7,s0,a7
    7ec4:	3988b883          	ld	a7,920(a7) # 1398 <.LBB101_4+0x4ec>
    7ec8:	01588ab3          	add	s5,a7,s5
    7ecc:	015686b3          	add	a3,a3,s5
    7ed0:	4286d693          	srai	a3,a3,0x28
    7ed4:	ded43c23          	sd	a3,-520(s0)
    7ed8:	00d94663          	blt	s2,a3,7ee4 <.LBB101_620>
    7edc:	f7e00693          	li	a3,-130
    7ee0:	ded43c23          	sd	a3,-520(s0)

0000000000007ee4 <.LBB101_620>:
    7ee4:	000016b7          	lui	a3,0x1
    7ee8:	40d406b3          	sub	a3,s0,a3
    7eec:	4006b683          	ld	a3,1024(a3) # 1400 <.LBB101_4+0x554>
    7ef0:	036686b3          	mul	a3,a3,s6
    7ef4:	e6043a83          	ld	s5,-416(s0)
    7ef8:	000018b7          	lui	a7,0x1
    7efc:	411408b3          	sub	a7,s0,a7
    7f00:	3f08b883          	ld	a7,1008(a7) # 13f0 <.LBB101_4+0x544>
    7f04:	01588ab3          	add	s5,a7,s5
    7f08:	015686b3          	add	a3,a3,s5
    7f0c:	4286d693          	srai	a3,a3,0x28
    7f10:	ded43823          	sd	a3,-528(s0)
    7f14:	00d94663          	blt	s2,a3,7f20 <.LBB101_622>
    7f18:	f7e00693          	li	a3,-130
    7f1c:	ded43823          	sd	a3,-528(s0)

0000000000007f20 <.LBB101_622>:
    7f20:	000016b7          	lui	a3,0x1
    7f24:	40d406b3          	sub	a3,s0,a3
    7f28:	4586b683          	ld	a3,1112(a3) # 1458 <.LBB101_5+0x8>
    7f2c:	036686b3          	mul	a3,a3,s6
    7f30:	e6043a83          	ld	s5,-416(s0)
    7f34:	000018b7          	lui	a7,0x1
    7f38:	411408b3          	sub	a7,s0,a7
    7f3c:	4488b883          	ld	a7,1096(a7) # 1448 <.LBB101_4+0x59c>
    7f40:	01588ab3          	add	s5,a7,s5
    7f44:	015686b3          	add	a3,a3,s5
    7f48:	4286d693          	srai	a3,a3,0x28
    7f4c:	ded43423          	sd	a3,-536(s0)
    7f50:	00d94663          	blt	s2,a3,7f5c <.LBB101_624>
    7f54:	f7e00693          	li	a3,-130
    7f58:	ded43423          	sd	a3,-536(s0)

0000000000007f5c <.LBB101_624>:
    7f5c:	000016b7          	lui	a3,0x1
    7f60:	40d406b3          	sub	a3,s0,a3
    7f64:	4a86b683          	ld	a3,1192(a3) # 14a8 <.LBB101_5+0x58>
    7f68:	036686b3          	mul	a3,a3,s6
    7f6c:	e6043a83          	ld	s5,-416(s0)
    7f70:	000018b7          	lui	a7,0x1
    7f74:	411408b3          	sub	a7,s0,a7
    7f78:	4a08b883          	ld	a7,1184(a7) # 14a0 <.LBB101_5+0x50>
    7f7c:	01588ab3          	add	s5,a7,s5
    7f80:	015686b3          	add	a3,a3,s5
    7f84:	4286d693          	srai	a3,a3,0x28
    7f88:	ded43023          	sd	a3,-544(s0)
    7f8c:	00d94663          	blt	s2,a3,7f98 <.LBB101_626>
    7f90:	f7e00693          	li	a3,-130
    7f94:	ded43023          	sd	a3,-544(s0)

0000000000007f98 <.LBB101_626>:
    7f98:	000016b7          	lui	a3,0x1
    7f9c:	40d406b3          	sub	a3,s0,a3
    7fa0:	5086b683          	ld	a3,1288(a3) # 1508 <.LBB101_5+0xb8>
    7fa4:	036686b3          	mul	a3,a3,s6
    7fa8:	e6043a83          	ld	s5,-416(s0)
    7fac:	000018b7          	lui	a7,0x1
    7fb0:	411408b3          	sub	a7,s0,a7
    7fb4:	5008b883          	ld	a7,1280(a7) # 1500 <.LBB101_5+0xb0>
    7fb8:	01588ab3          	add	s5,a7,s5
    7fbc:	015686b3          	add	a3,a3,s5
    7fc0:	4286d693          	srai	a3,a3,0x28
    7fc4:	dcd43823          	sd	a3,-560(s0)
    7fc8:	00d94663          	blt	s2,a3,7fd4 <.LBB101_628>
    7fcc:	f7e00693          	li	a3,-130
    7fd0:	dcd43823          	sd	a3,-560(s0)

0000000000007fd4 <.LBB101_628>:
    7fd4:	000016b7          	lui	a3,0x1
    7fd8:	40d406b3          	sub	a3,s0,a3
    7fdc:	5606b683          	ld	a3,1376(a3) # 1560 <.LBB101_5+0x110>
    7fe0:	036686b3          	mul	a3,a3,s6
    7fe4:	e6043a83          	ld	s5,-416(s0)
    7fe8:	000018b7          	lui	a7,0x1
    7fec:	411408b3          	sub	a7,s0,a7
    7ff0:	5588b883          	ld	a7,1368(a7) # 1558 <.LBB101_5+0x108>
    7ff4:	01588ab3          	add	s5,a7,s5
    7ff8:	015686b3          	add	a3,a3,s5
    7ffc:	4286d693          	srai	a3,a3,0x28
    8000:	dcd43023          	sd	a3,-576(s0)
    8004:	00d94663          	blt	s2,a3,8010 <.LBB101_630>
    8008:	f7e00693          	li	a3,-130
    800c:	dcd43023          	sd	a3,-576(s0)

0000000000008010 <.LBB101_630>:
    8010:	000016b7          	lui	a3,0x1
    8014:	40d406b3          	sub	a3,s0,a3
    8018:	5c06b683          	ld	a3,1472(a3) # 15c0 <.LBB101_5+0x170>
    801c:	036686b3          	mul	a3,a3,s6
    8020:	e6043a83          	ld	s5,-416(s0)
    8024:	000018b7          	lui	a7,0x1
    8028:	411408b3          	sub	a7,s0,a7
    802c:	5b88b883          	ld	a7,1464(a7) # 15b8 <.LBB101_5+0x168>
    8030:	01588ab3          	add	s5,a7,s5
    8034:	015686b3          	add	a3,a3,s5
    8038:	4286d693          	srai	a3,a3,0x28
    803c:	dad43823          	sd	a3,-592(s0)
    8040:	00d94663          	blt	s2,a3,804c <.LBB101_632>
    8044:	f7e00693          	li	a3,-130
    8048:	dad43823          	sd	a3,-592(s0)

000000000000804c <.LBB101_632>:
    804c:	000016b7          	lui	a3,0x1
    8050:	40d406b3          	sub	a3,s0,a3
    8054:	7b86b683          	ld	a3,1976(a3) # 17b8 <.LBB101_5+0x368>
    8058:	036686b3          	mul	a3,a3,s6
    805c:	e6043a83          	ld	s5,-416(s0)
    8060:	000018b7          	lui	a7,0x1
    8064:	411408b3          	sub	a7,s0,a7
    8068:	6f88b883          	ld	a7,1784(a7) # 16f8 <.LBB101_5+0x2a8>
    806c:	01588ab3          	add	s5,a7,s5
    8070:	015686b3          	add	a3,a3,s5
    8074:	4286d693          	srai	a3,a3,0x28
    8078:	dad43023          	sd	a3,-608(s0)
    807c:	00d94663          	blt	s2,a3,8088 <.LBB101_634>
    8080:	f7e00693          	li	a3,-130
    8084:	dad43023          	sd	a3,-608(s0)

0000000000008088 <.LBB101_634>:
    8088:	000016b7          	lui	a3,0x1
    808c:	40d406b3          	sub	a3,s0,a3
    8090:	7b06b683          	ld	a3,1968(a3) # 17b0 <.LBB101_5+0x360>
    8094:	036686b3          	mul	a3,a3,s6
    8098:	e6043a83          	ld	s5,-416(s0)
    809c:	000018b7          	lui	a7,0x1
    80a0:	411408b3          	sub	a7,s0,a7
    80a4:	7088b883          	ld	a7,1800(a7) # 1708 <.LBB101_5+0x2b8>
    80a8:	01588ab3          	add	s5,a7,s5
    80ac:	015686b3          	add	a3,a3,s5
    80b0:	4286d693          	srai	a3,a3,0x28
    80b4:	d8d43823          	sd	a3,-624(s0)
    80b8:	00d94663          	blt	s2,a3,80c4 <.LBB101_636>
    80bc:	f7e00693          	li	a3,-130
    80c0:	d8d43823          	sd	a3,-624(s0)

00000000000080c4 <.LBB101_636>:
    80c4:	000016b7          	lui	a3,0x1
    80c8:	40d406b3          	sub	a3,s0,a3
    80cc:	7a86b683          	ld	a3,1960(a3) # 17a8 <.LBB101_5+0x358>
    80d0:	036686b3          	mul	a3,a3,s6
    80d4:	e6043a83          	ld	s5,-416(s0)
    80d8:	000018b7          	lui	a7,0x1
    80dc:	411408b3          	sub	a7,s0,a7
    80e0:	7108b883          	ld	a7,1808(a7) # 1710 <.LBB101_5+0x2c0>
    80e4:	01588ab3          	add	s5,a7,s5
    80e8:	015686b3          	add	a3,a3,s5
    80ec:	4286d693          	srai	a3,a3,0x28
    80f0:	d8d43023          	sd	a3,-640(s0)
    80f4:	00d94663          	blt	s2,a3,8100 <.LBB101_638>
    80f8:	f7e00693          	li	a3,-130
    80fc:	d8d43023          	sd	a3,-640(s0)

0000000000008100 <.LBB101_638>:
    8100:	000016b7          	lui	a3,0x1
    8104:	40d406b3          	sub	a3,s0,a3
    8108:	7a06b683          	ld	a3,1952(a3) # 17a0 <.LBB101_5+0x350>
    810c:	036686b3          	mul	a3,a3,s6
    8110:	e6043a83          	ld	s5,-416(s0)
    8114:	000018b7          	lui	a7,0x1
    8118:	411408b3          	sub	a7,s0,a7
    811c:	7608b883          	ld	a7,1888(a7) # 1760 <.LBB101_5+0x310>
    8120:	01588ab3          	add	s5,a7,s5
    8124:	015686b3          	add	a3,a3,s5
    8128:	4286d693          	srai	a3,a3,0x28
    812c:	d6d43823          	sd	a3,-656(s0)
    8130:	00d94663          	blt	s2,a3,813c <.LBB101_640>
    8134:	f7e00693          	li	a3,-130
    8138:	d6d43823          	sd	a3,-656(s0)

000000000000813c <.LBB101_640>:
    813c:	000016b7          	lui	a3,0x1
    8140:	40d406b3          	sub	a3,s0,a3
    8144:	7986b683          	ld	a3,1944(a3) # 1798 <.LBB101_5+0x348>
    8148:	036686b3          	mul	a3,a3,s6
    814c:	e6043a83          	ld	s5,-416(s0)
    8150:	000018b7          	lui	a7,0x1
    8154:	411408b3          	sub	a7,s0,a7
    8158:	7688b883          	ld	a7,1896(a7) # 1768 <.LBB101_5+0x318>
    815c:	01588ab3          	add	s5,a7,s5
    8160:	015686b3          	add	a3,a3,s5
    8164:	4286d693          	srai	a3,a3,0x28
    8168:	d4d43c23          	sd	a3,-680(s0)
    816c:	00d94663          	blt	s2,a3,8178 <.LBB101_642>
    8170:	f7e00693          	li	a3,-130
    8174:	d4d43c23          	sd	a3,-680(s0)

0000000000008178 <.LBB101_642>:
    8178:	000016b7          	lui	a3,0x1
    817c:	40d406b3          	sub	a3,s0,a3
    8180:	7906b683          	ld	a3,1936(a3) # 1790 <.LBB101_5+0x340>
    8184:	036686b3          	mul	a3,a3,s6
    8188:	e6043a83          	ld	s5,-416(s0)
    818c:	000018b7          	lui	a7,0x1
    8190:	411408b3          	sub	a7,s0,a7
    8194:	7788b483          	ld	s1,1912(a7) # 1778 <.LBB101_5+0x328>
    8198:	01548ab3          	add	s5,s1,s5
    819c:	015686b3          	add	a3,a3,s5
    81a0:	4286d693          	srai	a3,a3,0x28
    81a4:	d4d43423          	sd	a3,-696(s0)
    81a8:	a5843883          	ld	a7,-1448(s0)
    81ac:	00d94663          	blt	s2,a3,81b8 <.LBB101_644>
    81b0:	f7e00693          	li	a3,-130
    81b4:	d4d43423          	sd	a3,-696(s0)

00000000000081b8 <.LBB101_644>:
    81b8:	000016b7          	lui	a3,0x1
    81bc:	40d406b3          	sub	a3,s0,a3
    81c0:	7886b683          	ld	a3,1928(a3) # 1788 <.LBB101_5+0x338>
    81c4:	036686b3          	mul	a3,a3,s6
    81c8:	e6043a83          	ld	s5,-416(s0)
    81cc:	000013b7          	lui	t2,0x1
    81d0:	407403b3          	sub	t2,s0,t2
    81d4:	7803b483          	ld	s1,1920(t2) # 1780 <.LBB101_5+0x330>
    81d8:	01548ab3          	add	s5,s1,s5
    81dc:	015686b3          	add	a3,a3,s5
    81e0:	4286d693          	srai	a3,a3,0x28
    81e4:	d2d43c23          	sd	a3,-712(s0)
    81e8:	00d94663          	blt	s2,a3,81f4 <.LBB101_646>
    81ec:	f7e00693          	li	a3,-130
    81f0:	d2d43c23          	sd	a3,-712(s0)

00000000000081f4 <.LBB101_646>:
    81f4:	036606b3          	mul	a3,a2,s6
    81f8:	e6043a83          	ld	s5,-416(s0)
    81fc:	00001637          	lui	a2,0x1
    8200:	40c40633          	sub	a2,s0,a2
    8204:	bd063a03          	ld	s4,-1072(a2) # bd0 <.LBB101_3+0x97c>
    8208:	015a0a33          	add	s4,s4,s5
    820c:	014686b3          	add	a3,a3,s4
    8210:	4286d693          	srai	a3,a3,0x28
    8214:	dcd43c23          	sd	a3,-552(s0)
    8218:	00d94663          	blt	s2,a3,8224 <.LBB101_648>
    821c:	f7e00693          	li	a3,-130
    8220:	dcd43c23          	sd	a3,-552(s0)

0000000000008224 <.LBB101_648>:
    8224:	036706b3          	mul	a3,a4,s6
    8228:	00001637          	lui	a2,0x1
    822c:	40c40633          	sub	a2,s0,a2
    8230:	c3863703          	ld	a4,-968(a2) # c38 <.LBB101_3+0x9e4>
    8234:	01570733          	add	a4,a4,s5
    8238:	00e686b3          	add	a3,a3,a4
    823c:	4286d693          	srai	a3,a3,0x28
    8240:	dcd43423          	sd	a3,-568(s0)
    8244:	00d94663          	blt	s2,a3,8250 <.LBB101_650>
    8248:	f7e00693          	li	a3,-130
    824c:	dcd43423          	sd	a3,-568(s0)

0000000000008250 <.LBB101_650>:
    8250:	00001637          	lui	a2,0x1
    8254:	40c40633          	sub	a2,s0,a2
    8258:	c0863603          	ld	a2,-1016(a2) # c08 <.LBB101_3+0x9b4>
    825c:	03660633          	mul	a2,a2,s6
    8260:	000016b7          	lui	a3,0x1
    8264:	40d406b3          	sub	a3,s0,a3
    8268:	c806b683          	ld	a3,-896(a3) # c80 <.LBB101_3+0xa2c>
    826c:	015686b3          	add	a3,a3,s5
    8270:	00d60633          	add	a2,a2,a3
    8274:	42865613          	srai	a2,a2,0x28
    8278:	dac43c23          	sd	a2,-584(s0)
    827c:	00c94663          	blt	s2,a2,8288 <.LBB101_652>
    8280:	f7e00613          	li	a2,-130
    8284:	dac43c23          	sd	a2,-584(s0)

0000000000008288 <.LBB101_652>:
    8288:	00001637          	lui	a2,0x1
    828c:	40c40633          	sub	a2,s0,a2
    8290:	d0063603          	ld	a2,-768(a2) # d00 <.LBB101_3+0xaac>
    8294:	03660633          	mul	a2,a2,s6
    8298:	000016b7          	lui	a3,0x1
    829c:	40d406b3          	sub	a3,s0,a3
    82a0:	cf86b683          	ld	a3,-776(a3) # cf8 <.LBB101_3+0xaa4>
    82a4:	015686b3          	add	a3,a3,s5
    82a8:	00d60633          	add	a2,a2,a3
    82ac:	42865613          	srai	a2,a2,0x28
    82b0:	dac43423          	sd	a2,-600(s0)
    82b4:	00c94663          	blt	s2,a2,82c0 <.LBB101_654>
    82b8:	f7e00613          	li	a2,-130
    82bc:	dac43423          	sd	a2,-600(s0)

00000000000082c0 <.LBB101_654>:
    82c0:	00001637          	lui	a2,0x1
    82c4:	40c40633          	sub	a2,s0,a2
    82c8:	d7863603          	ld	a2,-648(a2) # d78 <.LBB101_3+0xb24>
    82cc:	03660633          	mul	a2,a2,s6
    82d0:	000016b7          	lui	a3,0x1
    82d4:	40d406b3          	sub	a3,s0,a3
    82d8:	d706b683          	ld	a3,-656(a3) # d70 <.LBB101_3+0xb1c>
    82dc:	015686b3          	add	a3,a3,s5
    82e0:	00d60633          	add	a2,a2,a3
    82e4:	42865613          	srai	a2,a2,0x28
    82e8:	d8c43c23          	sd	a2,-616(s0)
    82ec:	00c94663          	blt	s2,a2,82f8 <.LBB101_656>
    82f0:	f7e00613          	li	a2,-130
    82f4:	d8c43c23          	sd	a2,-616(s0)

00000000000082f8 <.LBB101_656>:
    82f8:	00001637          	lui	a2,0x1
    82fc:	40c40633          	sub	a2,s0,a2
    8300:	df063603          	ld	a2,-528(a2) # df0 <.LBB101_3+0xb9c>
    8304:	03660633          	mul	a2,a2,s6
    8308:	000016b7          	lui	a3,0x1
    830c:	40d406b3          	sub	a3,s0,a3
    8310:	de86b683          	ld	a3,-536(a3) # de8 <.LBB101_3+0xb94>
    8314:	015686b3          	add	a3,a3,s5
    8318:	00d60633          	add	a2,a2,a3
    831c:	42865613          	srai	a2,a2,0x28
    8320:	d8c43423          	sd	a2,-632(s0)
    8324:	00c94663          	blt	s2,a2,8330 <.LBB101_658>
    8328:	f7e00613          	li	a2,-130
    832c:	d8c43423          	sd	a2,-632(s0)

0000000000008330 <.LBB101_658>:
    8330:	00001637          	lui	a2,0x1
    8334:	40c40633          	sub	a2,s0,a2
    8338:	e6063603          	ld	a2,-416(a2) # e60 <.LBB101_3+0xc0c>
    833c:	03660633          	mul	a2,a2,s6
    8340:	000016b7          	lui	a3,0x1
    8344:	40d406b3          	sub	a3,s0,a3
    8348:	e586b683          	ld	a3,-424(a3) # e58 <.LBB101_3+0xc04>
    834c:	015686b3          	add	a3,a3,s5
    8350:	00d60633          	add	a2,a2,a3
    8354:	42865613          	srai	a2,a2,0x28
    8358:	d6c43c23          	sd	a2,-648(s0)
    835c:	00c94663          	blt	s2,a2,8368 <.LBB101_660>
    8360:	f7e00613          	li	a2,-130
    8364:	d6c43c23          	sd	a2,-648(s0)

0000000000008368 <.LBB101_660>:
    8368:	00001637          	lui	a2,0x1
    836c:	40c40633          	sub	a2,s0,a2
    8370:	ed863603          	ld	a2,-296(a2) # ed8 <.LBB101_4+0x2c>
    8374:	03660633          	mul	a2,a2,s6
    8378:	000016b7          	lui	a3,0x1
    837c:	40d406b3          	sub	a3,s0,a3
    8380:	ed06b683          	ld	a3,-304(a3) # ed0 <.LBB101_4+0x24>
    8384:	015686b3          	add	a3,a3,s5
    8388:	00d60633          	add	a2,a2,a3
    838c:	42865613          	srai	a2,a2,0x28
    8390:	d6c43423          	sd	a2,-664(s0)
    8394:	00c94663          	blt	s2,a2,83a0 <.LBB101_662>
    8398:	f7e00613          	li	a2,-130
    839c:	d6c43423          	sd	a2,-664(s0)

00000000000083a0 <.LBB101_662>:
    83a0:	00001637          	lui	a2,0x1
    83a4:	40c40633          	sub	a2,s0,a2
    83a8:	f4863603          	ld	a2,-184(a2) # f48 <.LBB101_4+0x9c>
    83ac:	03660633          	mul	a2,a2,s6
    83b0:	000016b7          	lui	a3,0x1
    83b4:	40d406b3          	sub	a3,s0,a3
    83b8:	f406b683          	ld	a3,-192(a3) # f40 <.LBB101_4+0x94>
    83bc:	015686b3          	add	a3,a3,s5
    83c0:	00d60633          	add	a2,a2,a3
    83c4:	42865613          	srai	a2,a2,0x28
    83c8:	d4c43823          	sd	a2,-688(s0)
    83cc:	00c94663          	blt	s2,a2,83d8 <.LBB101_664>
    83d0:	f7e00613          	li	a2,-130
    83d4:	d4c43823          	sd	a2,-688(s0)

00000000000083d8 <.LBB101_664>:
    83d8:	00001637          	lui	a2,0x1
    83dc:	40c40633          	sub	a2,s0,a2
    83e0:	fc063603          	ld	a2,-64(a2) # fc0 <.LBB101_4+0x114>
    83e4:	03660633          	mul	a2,a2,s6
    83e8:	000016b7          	lui	a3,0x1
    83ec:	40d406b3          	sub	a3,s0,a3
    83f0:	fb86b683          	ld	a3,-72(a3) # fb8 <.LBB101_4+0x10c>
    83f4:	015686b3          	add	a3,a3,s5
    83f8:	00d60633          	add	a2,a2,a3
    83fc:	42865613          	srai	a2,a2,0x28
    8400:	d4c43023          	sd	a2,-704(s0)
    8404:	00c94663          	blt	s2,a2,8410 <.LBB101_666>
    8408:	f7e00613          	li	a2,-130
    840c:	d4c43023          	sd	a2,-704(s0)

0000000000008410 <.LBB101_666>:
    8410:	00001637          	lui	a2,0x1
    8414:	40c40633          	sub	a2,s0,a2
    8418:	03063603          	ld	a2,48(a2) # 1030 <.LBB101_4+0x184>
    841c:	03660633          	mul	a2,a2,s6
    8420:	000016b7          	lui	a3,0x1
    8424:	40d406b3          	sub	a3,s0,a3
    8428:	0286b683          	ld	a3,40(a3) # 1028 <.LBB101_4+0x17c>
    842c:	015686b3          	add	a3,a3,s5
    8430:	00d60633          	add	a2,a2,a3
    8434:	42865613          	srai	a2,a2,0x28
    8438:	d2c43823          	sd	a2,-720(s0)
    843c:	00c94663          	blt	s2,a2,8448 <.LBB101_668>
    8440:	f7e00613          	li	a2,-130
    8444:	d2c43823          	sd	a2,-720(s0)

0000000000008448 <.LBB101_668>:
    8448:	00001637          	lui	a2,0x1
    844c:	40c40633          	sub	a2,s0,a2
    8450:	0a063603          	ld	a2,160(a2) # 10a0 <.LBB101_4+0x1f4>
    8454:	03660633          	mul	a2,a2,s6
    8458:	000016b7          	lui	a3,0x1
    845c:	40d406b3          	sub	a3,s0,a3
    8460:	0986b683          	ld	a3,152(a3) # 1098 <.LBB101_4+0x1ec>
    8464:	015686b3          	add	a3,a3,s5
    8468:	00d60633          	add	a2,a2,a3
    846c:	42865613          	srai	a2,a2,0x28
    8470:	d2c43423          	sd	a2,-728(s0)
    8474:	00c94663          	blt	s2,a2,8480 <.LBB101_670>
    8478:	f7e00613          	li	a2,-130
    847c:	d2c43423          	sd	a2,-728(s0)

0000000000008480 <.LBB101_670>:
    8480:	00001637          	lui	a2,0x1
    8484:	40c40633          	sub	a2,s0,a2
    8488:	11063603          	ld	a2,272(a2) # 1110 <.LBB101_4+0x264>
    848c:	03660633          	mul	a2,a2,s6
    8490:	000016b7          	lui	a3,0x1
    8494:	40d406b3          	sub	a3,s0,a3
    8498:	1086b683          	ld	a3,264(a3) # 1108 <.LBB101_4+0x25c>
    849c:	015686b3          	add	a3,a3,s5
    84a0:	00d60633          	add	a2,a2,a3
    84a4:	42865613          	srai	a2,a2,0x28
    84a8:	d2c43023          	sd	a2,-736(s0)
    84ac:	00c94663          	blt	s2,a2,84b8 <.LBB101_672>
    84b0:	f7e00613          	li	a2,-130
    84b4:	d2c43023          	sd	a2,-736(s0)

00000000000084b8 <.LBB101_672>:
    84b8:	00001637          	lui	a2,0x1
    84bc:	40c40633          	sub	a2,s0,a2
    84c0:	18063603          	ld	a2,384(a2) # 1180 <.LBB101_4+0x2d4>
    84c4:	03660633          	mul	a2,a2,s6
    84c8:	000016b7          	lui	a3,0x1
    84cc:	40d406b3          	sub	a3,s0,a3
    84d0:	1786b683          	ld	a3,376(a3) # 1178 <.LBB101_4+0x2cc>
    84d4:	015686b3          	add	a3,a3,s5
    84d8:	00d60633          	add	a2,a2,a3
    84dc:	42865613          	srai	a2,a2,0x28
    84e0:	d0c43c23          	sd	a2,-744(s0)
    84e4:	00c94663          	blt	s2,a2,84f0 <.LBB101_674>
    84e8:	f7e00613          	li	a2,-130
    84ec:	d0c43c23          	sd	a2,-744(s0)

00000000000084f0 <.LBB101_674>:
    84f0:	00001637          	lui	a2,0x1
    84f4:	40c40633          	sub	a2,s0,a2
    84f8:	1f863603          	ld	a2,504(a2) # 11f8 <.LBB101_4+0x34c>
    84fc:	03660633          	mul	a2,a2,s6
    8500:	000016b7          	lui	a3,0x1
    8504:	40d406b3          	sub	a3,s0,a3
    8508:	1f06b683          	ld	a3,496(a3) # 11f0 <.LBB101_4+0x344>
    850c:	015686b3          	add	a3,a3,s5
    8510:	00d60633          	add	a2,a2,a3
    8514:	42865613          	srai	a2,a2,0x28
    8518:	d0c43823          	sd	a2,-752(s0)
    851c:	00c94663          	blt	s2,a2,8528 <.LBB101_676>
    8520:	f7e00613          	li	a2,-130
    8524:	d0c43823          	sd	a2,-752(s0)

0000000000008528 <.LBB101_676>:
    8528:	00001637          	lui	a2,0x1
    852c:	40c40633          	sub	a2,s0,a2
    8530:	26863603          	ld	a2,616(a2) # 1268 <.LBB101_4+0x3bc>
    8534:	03660633          	mul	a2,a2,s6
    8538:	000016b7          	lui	a3,0x1
    853c:	40d406b3          	sub	a3,s0,a3
    8540:	2606b683          	ld	a3,608(a3) # 1260 <.LBB101_4+0x3b4>
    8544:	015686b3          	add	a3,a3,s5
    8548:	00d60633          	add	a2,a2,a3
    854c:	42865613          	srai	a2,a2,0x28
    8550:	d0c43423          	sd	a2,-760(s0)
    8554:	00c94663          	blt	s2,a2,8560 <.LBB101_678>
    8558:	f7e00613          	li	a2,-130
    855c:	d0c43423          	sd	a2,-760(s0)

0000000000008560 <.LBB101_678>:
    8560:	00001637          	lui	a2,0x1
    8564:	40c40633          	sub	a2,s0,a2
    8568:	2c863603          	ld	a2,712(a2) # 12c8 <.LBB101_4+0x41c>
    856c:	03660633          	mul	a2,a2,s6
    8570:	000016b7          	lui	a3,0x1
    8574:	40d406b3          	sub	a3,s0,a3
    8578:	2b86b683          	ld	a3,696(a3) # 12b8 <.LBB101_4+0x40c>
    857c:	015686b3          	add	a3,a3,s5
    8580:	00d60633          	add	a2,a2,a3
    8584:	42865613          	srai	a2,a2,0x28
    8588:	d0c43023          	sd	a2,-768(s0)
    858c:	00c94663          	blt	s2,a2,8598 <.LBB101_680>
    8590:	f7e00613          	li	a2,-130
    8594:	d0c43023          	sd	a2,-768(s0)

0000000000008598 <.LBB101_680>:
    8598:	00001637          	lui	a2,0x1
    859c:	40c40633          	sub	a2,s0,a2
    85a0:	32863603          	ld	a2,808(a2) # 1328 <.LBB101_4+0x47c>
    85a4:	03660633          	mul	a2,a2,s6
    85a8:	000016b7          	lui	a3,0x1
    85ac:	40d406b3          	sub	a3,s0,a3
    85b0:	3186b683          	ld	a3,792(a3) # 1318 <.LBB101_4+0x46c>
    85b4:	015686b3          	add	a3,a3,s5
    85b8:	00d60633          	add	a2,a2,a3
    85bc:	42865613          	srai	a2,a2,0x28
    85c0:	cec43c23          	sd	a2,-776(s0)
    85c4:	00c94663          	blt	s2,a2,85d0 <.LBB101_682>
    85c8:	f7e00613          	li	a2,-130
    85cc:	cec43c23          	sd	a2,-776(s0)

00000000000085d0 <.LBB101_682>:
    85d0:	00001637          	lui	a2,0x1
    85d4:	40c40633          	sub	a2,s0,a2
    85d8:	39063603          	ld	a2,912(a2) # 1390 <.LBB101_4+0x4e4>
    85dc:	03660633          	mul	a2,a2,s6
    85e0:	000016b7          	lui	a3,0x1
    85e4:	40d406b3          	sub	a3,s0,a3
    85e8:	3806b683          	ld	a3,896(a3) # 1380 <.LBB101_4+0x4d4>
    85ec:	015686b3          	add	a3,a3,s5
    85f0:	00d60633          	add	a2,a2,a3
    85f4:	42865613          	srai	a2,a2,0x28
    85f8:	cec43823          	sd	a2,-784(s0)
    85fc:	00c94663          	blt	s2,a2,8608 <.LBB101_684>
    8600:	f7e00613          	li	a2,-130
    8604:	cec43823          	sd	a2,-784(s0)

0000000000008608 <.LBB101_684>:
    8608:	00001637          	lui	a2,0x1
    860c:	40c40633          	sub	a2,s0,a2
    8610:	3e863603          	ld	a2,1000(a2) # 13e8 <.LBB101_4+0x53c>
    8614:	03660633          	mul	a2,a2,s6
    8618:	000016b7          	lui	a3,0x1
    861c:	40d406b3          	sub	a3,s0,a3
    8620:	3e06b683          	ld	a3,992(a3) # 13e0 <.LBB101_4+0x534>
    8624:	015686b3          	add	a3,a3,s5
    8628:	00d60633          	add	a2,a2,a3
    862c:	42865613          	srai	a2,a2,0x28
    8630:	cec43423          	sd	a2,-792(s0)
    8634:	00c94663          	blt	s2,a2,8640 <.LBB101_686>
    8638:	f7e00613          	li	a2,-130
    863c:	cec43423          	sd	a2,-792(s0)

0000000000008640 <.LBB101_686>:
    8640:	00001637          	lui	a2,0x1
    8644:	40c40633          	sub	a2,s0,a2
    8648:	44063603          	ld	a2,1088(a2) # 1440 <.LBB101_4+0x594>
    864c:	03660633          	mul	a2,a2,s6
    8650:	000016b7          	lui	a3,0x1
    8654:	40d406b3          	sub	a3,s0,a3
    8658:	4386b683          	ld	a3,1080(a3) # 1438 <.LBB101_4+0x58c>
    865c:	015686b3          	add	a3,a3,s5
    8660:	00d60633          	add	a2,a2,a3
    8664:	42865613          	srai	a2,a2,0x28
    8668:	cec43023          	sd	a2,-800(s0)
    866c:	00c94663          	blt	s2,a2,8678 <.LBB101_688>
    8670:	f7e00613          	li	a2,-130
    8674:	cec43023          	sd	a2,-800(s0)

0000000000008678 <.LBB101_688>:
    8678:	00001637          	lui	a2,0x1
    867c:	40c40633          	sub	a2,s0,a2
    8680:	49863603          	ld	a2,1176(a2) # 1498 <.LBB101_5+0x48>
    8684:	03660633          	mul	a2,a2,s6
    8688:	000016b7          	lui	a3,0x1
    868c:	40d406b3          	sub	a3,s0,a3
    8690:	4906b683          	ld	a3,1168(a3) # 1490 <.LBB101_5+0x40>
    8694:	015686b3          	add	a3,a3,s5
    8698:	00d60633          	add	a2,a2,a3
    869c:	42865613          	srai	a2,a2,0x28
    86a0:	ccc43c23          	sd	a2,-808(s0)
    86a4:	00c94663          	blt	s2,a2,86b0 <.LBB101_690>
    86a8:	f7e00613          	li	a2,-130
    86ac:	ccc43c23          	sd	a2,-808(s0)

00000000000086b0 <.LBB101_690>:
    86b0:	00001637          	lui	a2,0x1
    86b4:	40c40633          	sub	a2,s0,a2
    86b8:	4f863603          	ld	a2,1272(a2) # 14f8 <.LBB101_5+0xa8>
    86bc:	03660633          	mul	a2,a2,s6
    86c0:	000016b7          	lui	a3,0x1
    86c4:	40d406b3          	sub	a3,s0,a3
    86c8:	4f06b683          	ld	a3,1264(a3) # 14f0 <.LBB101_5+0xa0>
    86cc:	015686b3          	add	a3,a3,s5
    86d0:	00d60633          	add	a2,a2,a3
    86d4:	42865613          	srai	a2,a2,0x28
    86d8:	ccc43423          	sd	a2,-824(s0)
    86dc:	00c94663          	blt	s2,a2,86e8 <.LBB101_692>
    86e0:	f7e00613          	li	a2,-130
    86e4:	ccc43423          	sd	a2,-824(s0)

00000000000086e8 <.LBB101_692>:
    86e8:	00001637          	lui	a2,0x1
    86ec:	40c40633          	sub	a2,s0,a2
    86f0:	55063603          	ld	a2,1360(a2) # 1550 <.LBB101_5+0x100>
    86f4:	03660633          	mul	a2,a2,s6
    86f8:	000016b7          	lui	a3,0x1
    86fc:	40d406b3          	sub	a3,s0,a3
    8700:	5486b683          	ld	a3,1352(a3) # 1548 <.LBB101_5+0xf8>
    8704:	015686b3          	add	a3,a3,s5
    8708:	00d60633          	add	a2,a2,a3
    870c:	42865613          	srai	a2,a2,0x28
    8710:	cac43c23          	sd	a2,-840(s0)
    8714:	00c94663          	blt	s2,a2,8720 <.LBB101_694>
    8718:	f7e00613          	li	a2,-130
    871c:	cac43c23          	sd	a2,-840(s0)

0000000000008720 <.LBB101_694>:
    8720:	00001637          	lui	a2,0x1
    8724:	40c40633          	sub	a2,s0,a2
    8728:	5b063603          	ld	a2,1456(a2) # 15b0 <.LBB101_5+0x160>
    872c:	03660633          	mul	a2,a2,s6
    8730:	000016b7          	lui	a3,0x1
    8734:	40d406b3          	sub	a3,s0,a3
    8738:	5a86b683          	ld	a3,1448(a3) # 15a8 <.LBB101_5+0x158>
    873c:	015686b3          	add	a3,a3,s5
    8740:	00d60633          	add	a2,a2,a3
    8744:	42865613          	srai	a2,a2,0x28
    8748:	cac43423          	sd	a2,-856(s0)
    874c:	00c94663          	blt	s2,a2,8758 <.LBB101_696>
    8750:	f7e00613          	li	a2,-130
    8754:	cac43423          	sd	a2,-856(s0)

0000000000008758 <.LBB101_696>:
    8758:	84043603          	ld	a2,-1984(s0)
    875c:	03660633          	mul	a2,a2,s6
    8760:	000016b7          	lui	a3,0x1
    8764:	40d406b3          	sub	a3,s0,a3
    8768:	7e86b683          	ld	a3,2024(a3) # 17e8 <.LBB101_5+0x398>
    876c:	015686b3          	add	a3,a3,s5
    8770:	00d60633          	add	a2,a2,a3
    8774:	42865613          	srai	a2,a2,0x28
    8778:	c8c43c23          	sd	a2,-872(s0)
    877c:	00c94663          	blt	s2,a2,8788 <.LBB101_698>
    8780:	f7e00613          	li	a2,-130
    8784:	c8c43c23          	sd	a2,-872(s0)

0000000000008788 <.LBB101_698>:
    8788:	8b043603          	ld	a2,-1872(s0)
    878c:	03660633          	mul	a2,a2,s6
    8790:	85843683          	ld	a3,-1960(s0)
    8794:	015686b3          	add	a3,a3,s5
    8798:	00d60633          	add	a2,a2,a3
    879c:	42865613          	srai	a2,a2,0x28
    87a0:	c8c43423          	sd	a2,-888(s0)
    87a4:	00c94663          	blt	s2,a2,87b0 <.LBB101_700>
    87a8:	f7e00613          	li	a2,-130
    87ac:	c8c43423          	sd	a2,-888(s0)

00000000000087b0 <.LBB101_700>:
    87b0:	8a843603          	ld	a2,-1880(s0)
    87b4:	03660633          	mul	a2,a2,s6
    87b8:	86043683          	ld	a3,-1952(s0)
    87bc:	015686b3          	add	a3,a3,s5
    87c0:	00d60633          	add	a2,a2,a3
    87c4:	42865613          	srai	a2,a2,0x28
    87c8:	c6c43c23          	sd	a2,-904(s0)
    87cc:	00c94663          	blt	s2,a2,87d8 <.LBB101_702>
    87d0:	f7e00613          	li	a2,-130
    87d4:	c6c43c23          	sd	a2,-904(s0)

00000000000087d8 <.LBB101_702>:
    87d8:	8a043603          	ld	a2,-1888(s0)
    87dc:	03660633          	mul	a2,a2,s6
    87e0:	86843683          	ld	a3,-1944(s0)
    87e4:	015686b3          	add	a3,a3,s5
    87e8:	00d60633          	add	a2,a2,a3
    87ec:	42865613          	srai	a2,a2,0x28
    87f0:	c6c43423          	sd	a2,-920(s0)
    87f4:	00c94663          	blt	s2,a2,8800 <.LBB101_704>
    87f8:	f7e00613          	li	a2,-130
    87fc:	c6c43423          	sd	a2,-920(s0)

0000000000008800 <.LBB101_704>:
    8800:	89843603          	ld	a2,-1896(s0)
    8804:	03660633          	mul	a2,a2,s6
    8808:	87043683          	ld	a3,-1936(s0)
    880c:	015686b3          	add	a3,a3,s5
    8810:	00d60633          	add	a2,a2,a3
    8814:	42865613          	srai	a2,a2,0x28
    8818:	c4c43c23          	sd	a2,-936(s0)
    881c:	00c94663          	blt	s2,a2,8828 <.LBB101_706>
    8820:	f7e00613          	li	a2,-130
    8824:	c4c43c23          	sd	a2,-936(s0)

0000000000008828 <.LBB101_706>:
    8828:	89043603          	ld	a2,-1904(s0)
    882c:	03660633          	mul	a2,a2,s6
    8830:	87843683          	ld	a3,-1928(s0)
    8834:	015686b3          	add	a3,a3,s5
    8838:	00d60633          	add	a2,a2,a3
    883c:	42865613          	srai	a2,a2,0x28
    8840:	c4c43423          	sd	a2,-952(s0)
    8844:	00c94663          	blt	s2,a2,8850 <.LBB101_708>
    8848:	f7e00613          	li	a2,-130
    884c:	c4c43423          	sd	a2,-952(s0)

0000000000008850 <.LBB101_708>:
    8850:	88843603          	ld	a2,-1912(s0)
    8854:	03660633          	mul	a2,a2,s6
    8858:	88043683          	ld	a3,-1920(s0)
    885c:	015686b3          	add	a3,a3,s5
    8860:	00d60633          	add	a2,a2,a3
    8864:	42865613          	srai	a2,a2,0x28
    8868:	c2c43c23          	sd	a2,-968(s0)
    886c:	00c94663          	blt	s2,a2,8878 <.LBB101_710>
    8870:	f7e00613          	li	a2,-130
    8874:	c2c43c23          	sd	a2,-968(s0)

0000000000008878 <.LBB101_710>:
    8878:	03680633          	mul	a2,a6,s6
    887c:	000016b7          	lui	a3,0x1
    8880:	40d406b3          	sub	a3,s0,a3
    8884:	bc86b683          	ld	a3,-1080(a3) # bc8 <.LBB101_3+0x974>
    8888:	015686b3          	add	a3,a3,s5
    888c:	00d60633          	add	a2,a2,a3
    8890:	42865613          	srai	a2,a2,0x28
    8894:	ccc43823          	sd	a2,-816(s0)
    8898:	00c94663          	blt	s2,a2,88a4 <.LBB101_712>
    889c:	f7e00613          	li	a2,-130
    88a0:	ccc43823          	sd	a2,-816(s0)

00000000000088a4 <.LBB101_712>:
    88a4:	036585b3          	mul	a1,a1,s6
    88a8:	00001637          	lui	a2,0x1
    88ac:	40c40633          	sub	a2,s0,a2
    88b0:	c3063603          	ld	a2,-976(a2) # c30 <.LBB101_3+0x9dc>
    88b4:	01560633          	add	a2,a2,s5
    88b8:	00c585b3          	add	a1,a1,a2
    88bc:	4285d593          	srai	a1,a1,0x28
    88c0:	ccb43023          	sd	a1,-832(s0)
    88c4:	00b94663          	blt	s2,a1,88d0 <.LBB101_714>
    88c8:	f7e00593          	li	a1,-130
    88cc:	ccb43023          	sd	a1,-832(s0)

00000000000088d0 <.LBB101_714>:
    88d0:	000015b7          	lui	a1,0x1
    88d4:	40b405b3          	sub	a1,s0,a1
    88d8:	c285b583          	ld	a1,-984(a1) # c28 <.LBB101_3+0x9d4>
    88dc:	036585b3          	mul	a1,a1,s6
    88e0:	00001637          	lui	a2,0x1
    88e4:	40c40633          	sub	a2,s0,a2
    88e8:	c7863603          	ld	a2,-904(a2) # c78 <.LBB101_3+0xa24>
    88ec:	01560633          	add	a2,a2,s5
    88f0:	00c585b3          	add	a1,a1,a2
    88f4:	4285d593          	srai	a1,a1,0x28
    88f8:	cab43823          	sd	a1,-848(s0)
    88fc:	00b94663          	blt	s2,a1,8908 <.LBB101_716>
    8900:	f7e00593          	li	a1,-130
    8904:	cab43823          	sd	a1,-848(s0)

0000000000008908 <.LBB101_716>:
    8908:	000015b7          	lui	a1,0x1
    890c:	40b405b3          	sub	a1,s0,a1
    8910:	cf05b583          	ld	a1,-784(a1) # cf0 <.LBB101_3+0xa9c>
    8914:	036585b3          	mul	a1,a1,s6
    8918:	00001637          	lui	a2,0x1
    891c:	40c40633          	sub	a2,s0,a2
    8920:	ce863603          	ld	a2,-792(a2) # ce8 <.LBB101_3+0xa94>
    8924:	01560633          	add	a2,a2,s5
    8928:	00c585b3          	add	a1,a1,a2
    892c:	4285d593          	srai	a1,a1,0x28
    8930:	cab43023          	sd	a1,-864(s0)
    8934:	00b94663          	blt	s2,a1,8940 <.LBB101_718>
    8938:	f7e00593          	li	a1,-130
    893c:	cab43023          	sd	a1,-864(s0)

0000000000008940 <.LBB101_718>:
    8940:	000015b7          	lui	a1,0x1
    8944:	40b405b3          	sub	a1,s0,a1
    8948:	d685b583          	ld	a1,-664(a1) # d68 <.LBB101_3+0xb14>
    894c:	036585b3          	mul	a1,a1,s6
    8950:	00001637          	lui	a2,0x1
    8954:	40c40633          	sub	a2,s0,a2
    8958:	d6063603          	ld	a2,-672(a2) # d60 <.LBB101_3+0xb0c>
    895c:	01560633          	add	a2,a2,s5
    8960:	00c585b3          	add	a1,a1,a2
    8964:	4285d593          	srai	a1,a1,0x28
    8968:	c8b43823          	sd	a1,-880(s0)
    896c:	00b94663          	blt	s2,a1,8978 <.LBB101_720>
    8970:	f7e00593          	li	a1,-130
    8974:	c8b43823          	sd	a1,-880(s0)

0000000000008978 <.LBB101_720>:
    8978:	000015b7          	lui	a1,0x1
    897c:	40b405b3          	sub	a1,s0,a1
    8980:	de05b583          	ld	a1,-544(a1) # de0 <.LBB101_3+0xb8c>
    8984:	036585b3          	mul	a1,a1,s6
    8988:	00001637          	lui	a2,0x1
    898c:	40c40633          	sub	a2,s0,a2
    8990:	dd863603          	ld	a2,-552(a2) # dd8 <.LBB101_3+0xb84>
    8994:	01560633          	add	a2,a2,s5
    8998:	00c585b3          	add	a1,a1,a2
    899c:	4285d593          	srai	a1,a1,0x28
    89a0:	c8b43023          	sd	a1,-896(s0)
    89a4:	00b94663          	blt	s2,a1,89b0 <.LBB101_722>
    89a8:	f7e00593          	li	a1,-130
    89ac:	c8b43023          	sd	a1,-896(s0)

00000000000089b0 <.LBB101_722>:
    89b0:	000015b7          	lui	a1,0x1
    89b4:	40b405b3          	sub	a1,s0,a1
    89b8:	e505b583          	ld	a1,-432(a1) # e50 <.LBB101_3+0xbfc>
    89bc:	036585b3          	mul	a1,a1,s6
    89c0:	00001637          	lui	a2,0x1
    89c4:	40c40633          	sub	a2,s0,a2
    89c8:	e4863603          	ld	a2,-440(a2) # e48 <.LBB101_3+0xbf4>
    89cc:	01560633          	add	a2,a2,s5
    89d0:	00c585b3          	add	a1,a1,a2
    89d4:	4285d593          	srai	a1,a1,0x28
    89d8:	c6b43823          	sd	a1,-912(s0)
    89dc:	00b94663          	blt	s2,a1,89e8 <.LBB101_724>
    89e0:	f7e00593          	li	a1,-130
    89e4:	c6b43823          	sd	a1,-912(s0)

00000000000089e8 <.LBB101_724>:
    89e8:	000015b7          	lui	a1,0x1
    89ec:	40b405b3          	sub	a1,s0,a1
    89f0:	ec85b583          	ld	a1,-312(a1) # ec8 <.LBB101_4+0x1c>
    89f4:	036585b3          	mul	a1,a1,s6
    89f8:	00001637          	lui	a2,0x1
    89fc:	40c40633          	sub	a2,s0,a2
    8a00:	ec063603          	ld	a2,-320(a2) # ec0 <.LBB101_4+0x14>
    8a04:	01560633          	add	a2,a2,s5
    8a08:	00c585b3          	add	a1,a1,a2
    8a0c:	4285d593          	srai	a1,a1,0x28
    8a10:	c6b43023          	sd	a1,-928(s0)
    8a14:	00b94663          	blt	s2,a1,8a20 <.LBB101_726>
    8a18:	f7e00593          	li	a1,-130
    8a1c:	c6b43023          	sd	a1,-928(s0)

0000000000008a20 <.LBB101_726>:
    8a20:	000015b7          	lui	a1,0x1
    8a24:	40b405b3          	sub	a1,s0,a1
    8a28:	f385b583          	ld	a1,-200(a1) # f38 <.LBB101_4+0x8c>
    8a2c:	036585b3          	mul	a1,a1,s6
    8a30:	00001637          	lui	a2,0x1
    8a34:	40c40633          	sub	a2,s0,a2
    8a38:	f3063603          	ld	a2,-208(a2) # f30 <.LBB101_4+0x84>
    8a3c:	01560633          	add	a2,a2,s5
    8a40:	00c585b3          	add	a1,a1,a2
    8a44:	4285d593          	srai	a1,a1,0x28
    8a48:	c4b43823          	sd	a1,-944(s0)
    8a4c:	00b94663          	blt	s2,a1,8a58 <.LBB101_728>
    8a50:	f7e00593          	li	a1,-130
    8a54:	c4b43823          	sd	a1,-944(s0)

0000000000008a58 <.LBB101_728>:
    8a58:	000015b7          	lui	a1,0x1
    8a5c:	40b405b3          	sub	a1,s0,a1
    8a60:	fb05b583          	ld	a1,-80(a1) # fb0 <.LBB101_4+0x104>
    8a64:	036585b3          	mul	a1,a1,s6
    8a68:	00001637          	lui	a2,0x1
    8a6c:	40c40633          	sub	a2,s0,a2
    8a70:	fa863603          	ld	a2,-88(a2) # fa8 <.LBB101_4+0xfc>
    8a74:	01560633          	add	a2,a2,s5
    8a78:	00c585b3          	add	a1,a1,a2
    8a7c:	4285d593          	srai	a1,a1,0x28
    8a80:	c4b43023          	sd	a1,-960(s0)
    8a84:	00b94663          	blt	s2,a1,8a90 <.LBB101_730>
    8a88:	f7e00593          	li	a1,-130
    8a8c:	c4b43023          	sd	a1,-960(s0)

0000000000008a90 <.LBB101_730>:
    8a90:	000015b7          	lui	a1,0x1
    8a94:	40b405b3          	sub	a1,s0,a1
    8a98:	0205b583          	ld	a1,32(a1) # 1020 <.LBB101_4+0x174>
    8a9c:	036585b3          	mul	a1,a1,s6
    8aa0:	00001637          	lui	a2,0x1
    8aa4:	40c40633          	sub	a2,s0,a2
    8aa8:	01863603          	ld	a2,24(a2) # 1018 <.LBB101_4+0x16c>
    8aac:	01560633          	add	a2,a2,s5
    8ab0:	00c585b3          	add	a1,a1,a2
    8ab4:	4285d593          	srai	a1,a1,0x28
    8ab8:	c2b43823          	sd	a1,-976(s0)
    8abc:	00b94663          	blt	s2,a1,8ac8 <.LBB101_732>
    8ac0:	f7e00593          	li	a1,-130
    8ac4:	c2b43823          	sd	a1,-976(s0)

0000000000008ac8 <.LBB101_732>:
    8ac8:	000015b7          	lui	a1,0x1
    8acc:	40b405b3          	sub	a1,s0,a1
    8ad0:	0905b583          	ld	a1,144(a1) # 1090 <.LBB101_4+0x1e4>
    8ad4:	036585b3          	mul	a1,a1,s6
    8ad8:	00001637          	lui	a2,0x1
    8adc:	40c40633          	sub	a2,s0,a2
    8ae0:	08863603          	ld	a2,136(a2) # 1088 <.LBB101_4+0x1dc>
    8ae4:	01560633          	add	a2,a2,s5
    8ae8:	00c585b3          	add	a1,a1,a2
    8aec:	4285d593          	srai	a1,a1,0x28
    8af0:	c2b43423          	sd	a1,-984(s0)
    8af4:	00b94663          	blt	s2,a1,8b00 <.LBB101_734>
    8af8:	f7e00593          	li	a1,-130
    8afc:	c2b43423          	sd	a1,-984(s0)

0000000000008b00 <.LBB101_734>:
    8b00:	000015b7          	lui	a1,0x1
    8b04:	40b405b3          	sub	a1,s0,a1
    8b08:	1005b583          	ld	a1,256(a1) # 1100 <.LBB101_4+0x254>
    8b0c:	036585b3          	mul	a1,a1,s6
    8b10:	00001637          	lui	a2,0x1
    8b14:	40c40633          	sub	a2,s0,a2
    8b18:	0f863603          	ld	a2,248(a2) # 10f8 <.LBB101_4+0x24c>
    8b1c:	01560633          	add	a2,a2,s5
    8b20:	00c585b3          	add	a1,a1,a2
    8b24:	4285d593          	srai	a1,a1,0x28
    8b28:	c2b43023          	sd	a1,-992(s0)
    8b2c:	00b94663          	blt	s2,a1,8b38 <.LBB101_736>
    8b30:	f7e00593          	li	a1,-130
    8b34:	c2b43023          	sd	a1,-992(s0)

0000000000008b38 <.LBB101_736>:
    8b38:	000015b7          	lui	a1,0x1
    8b3c:	40b405b3          	sub	a1,s0,a1
    8b40:	1705b583          	ld	a1,368(a1) # 1170 <.LBB101_4+0x2c4>
    8b44:	036585b3          	mul	a1,a1,s6
    8b48:	00001637          	lui	a2,0x1
    8b4c:	40c40633          	sub	a2,s0,a2
    8b50:	16863603          	ld	a2,360(a2) # 1168 <.LBB101_4+0x2bc>
    8b54:	01560633          	add	a2,a2,s5
    8b58:	00c585b3          	add	a1,a1,a2
    8b5c:	4285d593          	srai	a1,a1,0x28
    8b60:	c0b43c23          	sd	a1,-1000(s0)
    8b64:	00b94663          	blt	s2,a1,8b70 <.LBB101_738>
    8b68:	f7e00593          	li	a1,-130
    8b6c:	c0b43c23          	sd	a1,-1000(s0)

0000000000008b70 <.LBB101_738>:
    8b70:	000015b7          	lui	a1,0x1
    8b74:	40b405b3          	sub	a1,s0,a1
    8b78:	1e85b583          	ld	a1,488(a1) # 11e8 <.LBB101_4+0x33c>
    8b7c:	036585b3          	mul	a1,a1,s6
    8b80:	00001637          	lui	a2,0x1
    8b84:	40c40633          	sub	a2,s0,a2
    8b88:	1d863603          	ld	a2,472(a2) # 11d8 <.LBB101_4+0x32c>
    8b8c:	01560633          	add	a2,a2,s5
    8b90:	00c585b3          	add	a1,a1,a2
    8b94:	4285d593          	srai	a1,a1,0x28
    8b98:	c0b43823          	sd	a1,-1008(s0)
    8b9c:	00b94663          	blt	s2,a1,8ba8 <.LBB101_740>
    8ba0:	f7e00593          	li	a1,-130
    8ba4:	c0b43823          	sd	a1,-1008(s0)

0000000000008ba8 <.LBB101_740>:
    8ba8:	a0843583          	ld	a1,-1528(s0)
    8bac:	036585b3          	mul	a1,a1,s6
    8bb0:	00001637          	lui	a2,0x1
    8bb4:	40c40633          	sub	a2,s0,a2
    8bb8:	24863603          	ld	a2,584(a2) # 1248 <.LBB101_4+0x39c>
    8bbc:	01560633          	add	a2,a2,s5
    8bc0:	00c585b3          	add	a1,a1,a2
    8bc4:	4285d593          	srai	a1,a1,0x28
    8bc8:	c0b43423          	sd	a1,-1016(s0)
    8bcc:	00b94663          	blt	s2,a1,8bd8 <.LBB101_742>
    8bd0:	f7e00593          	li	a1,-130
    8bd4:	c0b43423          	sd	a1,-1016(s0)

0000000000008bd8 <.LBB101_742>:
    8bd8:	a0043583          	ld	a1,-1536(s0)
    8bdc:	036585b3          	mul	a1,a1,s6
    8be0:	00001637          	lui	a2,0x1
    8be4:	40c40633          	sub	a2,s0,a2
    8be8:	2a863603          	ld	a2,680(a2) # 12a8 <.LBB101_4+0x3fc>
    8bec:	01560633          	add	a2,a2,s5
    8bf0:	00c585b3          	add	a1,a1,a2
    8bf4:	4285d593          	srai	a1,a1,0x28
    8bf8:	c0b43023          	sd	a1,-1024(s0)
    8bfc:	00b94663          	blt	s2,a1,8c08 <.LBB101_744>
    8c00:	f7e00593          	li	a1,-130
    8c04:	c0b43023          	sd	a1,-1024(s0)

0000000000008c08 <.LBB101_744>:
    8c08:	9f843583          	ld	a1,-1544(s0)
    8c0c:	036585b3          	mul	a1,a1,s6
    8c10:	00001637          	lui	a2,0x1
    8c14:	40c40633          	sub	a2,s0,a2
    8c18:	31063603          	ld	a2,784(a2) # 1310 <.LBB101_4+0x464>
    8c1c:	01560633          	add	a2,a2,s5
    8c20:	00c585b3          	add	a1,a1,a2
    8c24:	4285d593          	srai	a1,a1,0x28
    8c28:	beb43c23          	sd	a1,-1032(s0)
    8c2c:	00b94663          	blt	s2,a1,8c38 <.LBB101_746>
    8c30:	f7e00593          	li	a1,-130
    8c34:	beb43c23          	sd	a1,-1032(s0)

0000000000008c38 <.LBB101_746>:
    8c38:	9f043583          	ld	a1,-1552(s0)
    8c3c:	036585b3          	mul	a1,a1,s6
    8c40:	00001637          	lui	a2,0x1
    8c44:	40c40633          	sub	a2,s0,a2
    8c48:	37863603          	ld	a2,888(a2) # 1378 <.LBB101_4+0x4cc>
    8c4c:	01560633          	add	a2,a2,s5
    8c50:	00c585b3          	add	a1,a1,a2
    8c54:	4285d593          	srai	a1,a1,0x28
    8c58:	beb43823          	sd	a1,-1040(s0)
    8c5c:	00b94663          	blt	s2,a1,8c68 <.LBB101_748>
    8c60:	f7e00593          	li	a1,-130
    8c64:	beb43823          	sd	a1,-1040(s0)

0000000000008c68 <.LBB101_748>:
    8c68:	9e843583          	ld	a1,-1560(s0)
    8c6c:	036585b3          	mul	a1,a1,s6
    8c70:	00001637          	lui	a2,0x1
    8c74:	40c40633          	sub	a2,s0,a2
    8c78:	3d863603          	ld	a2,984(a2) # 13d8 <.LBB101_4+0x52c>
    8c7c:	01560633          	add	a2,a2,s5
    8c80:	00c585b3          	add	a1,a1,a2
    8c84:	4285d593          	srai	a1,a1,0x28
    8c88:	beb43423          	sd	a1,-1048(s0)
    8c8c:	00b94663          	blt	s2,a1,8c98 <.LBB101_750>
    8c90:	f7e00593          	li	a1,-130
    8c94:	beb43423          	sd	a1,-1048(s0)

0000000000008c98 <.LBB101_750>:
    8c98:	9e043583          	ld	a1,-1568(s0)
    8c9c:	036585b3          	mul	a1,a1,s6
    8ca0:	00001637          	lui	a2,0x1
    8ca4:	40c40633          	sub	a2,s0,a2
    8ca8:	43063603          	ld	a2,1072(a2) # 1430 <.LBB101_4+0x584>
    8cac:	01560633          	add	a2,a2,s5
    8cb0:	00c585b3          	add	a1,a1,a2
    8cb4:	4285d593          	srai	a1,a1,0x28
    8cb8:	beb43023          	sd	a1,-1056(s0)
    8cbc:	00b94663          	blt	s2,a1,8cc8 <.LBB101_752>
    8cc0:	f7e00593          	li	a1,-130
    8cc4:	beb43023          	sd	a1,-1056(s0)

0000000000008cc8 <.LBB101_752>:
    8cc8:	9d843583          	ld	a1,-1576(s0)
    8ccc:	036585b3          	mul	a1,a1,s6
    8cd0:	00001637          	lui	a2,0x1
    8cd4:	40c40633          	sub	a2,s0,a2
    8cd8:	48863603          	ld	a2,1160(a2) # 1488 <.LBB101_5+0x38>
    8cdc:	01560633          	add	a2,a2,s5
    8ce0:	00c585b3          	add	a1,a1,a2
    8ce4:	4285d593          	srai	a1,a1,0x28
    8ce8:	bcb43c23          	sd	a1,-1064(s0)
    8cec:	00b94663          	blt	s2,a1,8cf8 <.LBB101_754>
    8cf0:	f7e00593          	li	a1,-130
    8cf4:	bcb43c23          	sd	a1,-1064(s0)

0000000000008cf8 <.LBB101_754>:
    8cf8:	000015b7          	lui	a1,0x1
    8cfc:	40b405b3          	sub	a1,s0,a1
    8d00:	4e85b583          	ld	a1,1256(a1) # 14e8 <.LBB101_5+0x98>
    8d04:	036585b3          	mul	a1,a1,s6
    8d08:	00001637          	lui	a2,0x1
    8d0c:	40c40633          	sub	a2,s0,a2
    8d10:	4e063603          	ld	a2,1248(a2) # 14e0 <.LBB101_5+0x90>
    8d14:	01560633          	add	a2,a2,s5
    8d18:	00c585b3          	add	a1,a1,a2
    8d1c:	4285d593          	srai	a1,a1,0x28
    8d20:	bcb43423          	sd	a1,-1080(s0)
    8d24:	00b94663          	blt	s2,a1,8d30 <.LBB101_756>
    8d28:	f7e00593          	li	a1,-130
    8d2c:	bcb43423          	sd	a1,-1080(s0)

0000000000008d30 <.LBB101_756>:
    8d30:	9c843583          	ld	a1,-1592(s0)
    8d34:	036585b3          	mul	a1,a1,s6
    8d38:	00001637          	lui	a2,0x1
    8d3c:	40c40633          	sub	a2,s0,a2
    8d40:	54063603          	ld	a2,1344(a2) # 1540 <.LBB101_5+0xf0>
    8d44:	01560633          	add	a2,a2,s5
    8d48:	00c585b3          	add	a1,a1,a2
    8d4c:	4285d593          	srai	a1,a1,0x28
    8d50:	bab43c23          	sd	a1,-1096(s0)
    8d54:	00b94663          	blt	s2,a1,8d60 <.LBB101_758>
    8d58:	f7e00593          	li	a1,-130
    8d5c:	bab43c23          	sd	a1,-1096(s0)

0000000000008d60 <.LBB101_758>:
    8d60:	000015b7          	lui	a1,0x1
    8d64:	40b405b3          	sub	a1,s0,a1
    8d68:	5a05b583          	ld	a1,1440(a1) # 15a0 <.LBB101_5+0x150>
    8d6c:	036585b3          	mul	a1,a1,s6
    8d70:	00001637          	lui	a2,0x1
    8d74:	40c40633          	sub	a2,s0,a2
    8d78:	59863603          	ld	a2,1432(a2) # 1598 <.LBB101_5+0x148>
    8d7c:	01560633          	add	a2,a2,s5
    8d80:	00c585b3          	add	a1,a1,a2
    8d84:	4285d593          	srai	a1,a1,0x28
    8d88:	bab43423          	sd	a1,-1112(s0)
    8d8c:	00b94663          	blt	s2,a1,8d98 <.LBB101_760>
    8d90:	f7e00593          	li	a1,-130
    8d94:	bab43423          	sd	a1,-1112(s0)

0000000000008d98 <.LBB101_760>:
    8d98:	000015b7          	lui	a1,0x1
    8d9c:	40b405b3          	sub	a1,s0,a1
    8da0:	7e05b583          	ld	a1,2016(a1) # 17e0 <.LBB101_5+0x390>
    8da4:	036585b3          	mul	a1,a1,s6
    8da8:	00001637          	lui	a2,0x1
    8dac:	40c40633          	sub	a2,s0,a2
    8db0:	7d863603          	ld	a2,2008(a2) # 17d8 <.LBB101_5+0x388>
    8db4:	01560633          	add	a2,a2,s5
    8db8:	00c585b3          	add	a1,a1,a2
    8dbc:	4285d593          	srai	a1,a1,0x28
    8dc0:	b8b43c23          	sd	a1,-1128(s0)
    8dc4:	00b94663          	blt	s2,a1,8dd0 <.LBB101_762>
    8dc8:	f7e00593          	li	a1,-130
    8dcc:	b8b43c23          	sd	a1,-1128(s0)

0000000000008dd0 <.LBB101_762>:
    8dd0:	8d843583          	ld	a1,-1832(s0)
    8dd4:	036585b3          	mul	a1,a1,s6
    8dd8:	8d043603          	ld	a2,-1840(s0)
    8ddc:	01560633          	add	a2,a2,s5
    8de0:	00c585b3          	add	a1,a1,a2
    8de4:	4285d593          	srai	a1,a1,0x28
    8de8:	b8b43423          	sd	a1,-1144(s0)
    8dec:	00b94663          	blt	s2,a1,8df8 <.LBB101_764>
    8df0:	f7e00593          	li	a1,-130
    8df4:	b8b43423          	sd	a1,-1144(s0)

0000000000008df8 <.LBB101_764>:
    8df8:	93843583          	ld	a1,-1736(s0)
    8dfc:	036585b3          	mul	a1,a1,s6
    8e00:	92843603          	ld	a2,-1752(s0)
    8e04:	01560633          	add	a2,a2,s5
    8e08:	00c585b3          	add	a1,a1,a2
    8e0c:	4285d593          	srai	a1,a1,0x28
    8e10:	b6b43c23          	sd	a1,-1160(s0)
    8e14:	00b94663          	blt	s2,a1,8e20 <.LBB101_766>
    8e18:	f7e00593          	li	a1,-130
    8e1c:	b6b43c23          	sd	a1,-1160(s0)

0000000000008e20 <.LBB101_766>:
    8e20:	96843583          	ld	a1,-1688(s0)
    8e24:	036585b3          	mul	a1,a1,s6
    8e28:	96043603          	ld	a2,-1696(s0)
    8e2c:	01560633          	add	a2,a2,s5
    8e30:	00c585b3          	add	a1,a1,a2
    8e34:	4285d593          	srai	a1,a1,0x28
    8e38:	b6b43423          	sd	a1,-1176(s0)
    8e3c:	00b94663          	blt	s2,a1,8e48 <.LBB101_768>
    8e40:	f7e00593          	li	a1,-130
    8e44:	b6b43423          	sd	a1,-1176(s0)

0000000000008e48 <.LBB101_768>:
    8e48:	99843583          	ld	a1,-1640(s0)
    8e4c:	036585b3          	mul	a1,a1,s6
    8e50:	97043603          	ld	a2,-1680(s0)
    8e54:	01560633          	add	a2,a2,s5
    8e58:	00c585b3          	add	a1,a1,a2
    8e5c:	4285d593          	srai	a1,a1,0x28
    8e60:	b4b43c23          	sd	a1,-1192(s0)
    8e64:	00b94663          	blt	s2,a1,8e70 <.LBB101_770>
    8e68:	f7e00593          	li	a1,-130
    8e6c:	b4b43c23          	sd	a1,-1192(s0)

0000000000008e70 <.LBB101_770>:
    8e70:	99043583          	ld	a1,-1648(s0)
    8e74:	036585b3          	mul	a1,a1,s6
    8e78:	97843603          	ld	a2,-1672(s0)
    8e7c:	01560633          	add	a2,a2,s5
    8e80:	00c585b3          	add	a1,a1,a2
    8e84:	4285d593          	srai	a1,a1,0x28
    8e88:	b4b43423          	sd	a1,-1208(s0)
    8e8c:	00b94663          	blt	s2,a1,8e98 <.LBB101_772>
    8e90:	f7e00593          	li	a1,-130
    8e94:	b4b43423          	sd	a1,-1208(s0)

0000000000008e98 <.LBB101_772>:
    8e98:	98843583          	ld	a1,-1656(s0)
    8e9c:	036585b3          	mul	a1,a1,s6
    8ea0:	98043603          	ld	a2,-1664(s0)
    8ea4:	01560633          	add	a2,a2,s5
    8ea8:	00c585b3          	add	a1,a1,a2
    8eac:	4285d593          	srai	a1,a1,0x28
    8eb0:	b2b43c23          	sd	a1,-1224(s0)
    8eb4:	00b94663          	blt	s2,a1,8ec0 <.LBB101_774>
    8eb8:	f7e00593          	li	a1,-130
    8ebc:	b2b43c23          	sd	a1,-1224(s0)

0000000000008ec0 <.LBB101_774>:
    8ec0:	036305b3          	mul	a1,t1,s6
    8ec4:	b8043603          	ld	a2,-1152(s0)
    8ec8:	01560633          	add	a2,a2,s5
    8ecc:	00c585b3          	add	a1,a1,a2
    8ed0:	4285d593          	srai	a1,a1,0x28
    8ed4:	bcb43823          	sd	a1,-1072(s0)
    8ed8:	00b94663          	blt	s2,a1,8ee4 <.LBB101_776>
    8edc:	f7e00593          	li	a1,-130
    8ee0:	bcb43823          	sd	a1,-1072(s0)

0000000000008ee4 <.LBB101_776>:
    8ee4:	000015b7          	lui	a1,0x1
    8ee8:	40b405b3          	sub	a1,s0,a1
    8eec:	be85b583          	ld	a1,-1048(a1) # be8 <.LBB101_3+0x994>
    8ef0:	036585b3          	mul	a1,a1,s6
    8ef4:	00001637          	lui	a2,0x1
    8ef8:	40c40633          	sub	a2,s0,a2
    8efc:	c2063603          	ld	a2,-992(a2) # c20 <.LBB101_3+0x9cc>
    8f00:	01560633          	add	a2,a2,s5
    8f04:	00c585b3          	add	a1,a1,a2
    8f08:	4285d593          	srai	a1,a1,0x28
    8f0c:	bcb43023          	sd	a1,-1088(s0)
    8f10:	00b94663          	blt	s2,a1,8f1c <.LBB101_778>
    8f14:	f7e00593          	li	a1,-130
    8f18:	bcb43023          	sd	a1,-1088(s0)

0000000000008f1c <.LBB101_778>:
    8f1c:	000015b7          	lui	a1,0x1
    8f20:	40b405b3          	sub	a1,s0,a1
    8f24:	c005b583          	ld	a1,-1024(a1) # c00 <.LBB101_3+0x9ac>
    8f28:	036585b3          	mul	a1,a1,s6
    8f2c:	b7043603          	ld	a2,-1168(s0)
    8f30:	01560633          	add	a2,a2,s5
    8f34:	00c585b3          	add	a1,a1,a2
    8f38:	4285d593          	srai	a1,a1,0x28
    8f3c:	bab43823          	sd	a1,-1104(s0)
    8f40:	00b94663          	blt	s2,a1,8f4c <.LBB101_780>
    8f44:	f7e00593          	li	a1,-130
    8f48:	bab43823          	sd	a1,-1104(s0)

0000000000008f4c <.LBB101_780>:
    8f4c:	000015b7          	lui	a1,0x1
    8f50:	40b405b3          	sub	a1,s0,a1
    8f54:	ce05b583          	ld	a1,-800(a1) # ce0 <.LBB101_3+0xa8c>
    8f58:	036585b3          	mul	a1,a1,s6
    8f5c:	00001637          	lui	a2,0x1
    8f60:	40c40633          	sub	a2,s0,a2
    8f64:	cd863603          	ld	a2,-808(a2) # cd8 <.LBB101_3+0xa84>
    8f68:	01560633          	add	a2,a2,s5
    8f6c:	00c585b3          	add	a1,a1,a2
    8f70:	4285d593          	srai	a1,a1,0x28
    8f74:	bab43023          	sd	a1,-1120(s0)
    8f78:	00b94663          	blt	s2,a1,8f84 <.LBB101_782>
    8f7c:	f7e00593          	li	a1,-130
    8f80:	bab43023          	sd	a1,-1120(s0)

0000000000008f84 <.LBB101_782>:
    8f84:	b6043583          	ld	a1,-1184(s0)
    8f88:	036585b3          	mul	a1,a1,s6
    8f8c:	00001637          	lui	a2,0x1
    8f90:	40c40633          	sub	a2,s0,a2
    8f94:	d5863603          	ld	a2,-680(a2) # d58 <.LBB101_3+0xb04>
    8f98:	01560633          	add	a2,a2,s5
    8f9c:	00c585b3          	add	a1,a1,a2
    8fa0:	4285d593          	srai	a1,a1,0x28
    8fa4:	b8b43823          	sd	a1,-1136(s0)
    8fa8:	00b94663          	blt	s2,a1,8fb4 <.LBB101_784>
    8fac:	f7e00593          	li	a1,-130
    8fb0:	b8b43823          	sd	a1,-1136(s0)

0000000000008fb4 <.LBB101_784>:
    8fb4:	000015b7          	lui	a1,0x1
    8fb8:	40b405b3          	sub	a1,s0,a1
    8fbc:	dd05b583          	ld	a1,-560(a1) # dd0 <.LBB101_3+0xb7c>
    8fc0:	036585b3          	mul	a1,a1,s6
    8fc4:	00001637          	lui	a2,0x1
    8fc8:	40c40633          	sub	a2,s0,a2
    8fcc:	dc863603          	ld	a2,-568(a2) # dc8 <.LBB101_3+0xb74>
    8fd0:	01560633          	add	a2,a2,s5
    8fd4:	00c585b3          	add	a1,a1,a2
    8fd8:	4285d593          	srai	a1,a1,0x28
    8fdc:	b8b43023          	sd	a1,-1152(s0)
    8fe0:	00b94663          	blt	s2,a1,8fec <.LBB101_786>
    8fe4:	f7e00593          	li	a1,-130
    8fe8:	b8b43023          	sd	a1,-1152(s0)

0000000000008fec <.LBB101_786>:
    8fec:	b5043583          	ld	a1,-1200(s0)
    8ff0:	036585b3          	mul	a1,a1,s6
    8ff4:	00001637          	lui	a2,0x1
    8ff8:	40c40633          	sub	a2,s0,a2
    8ffc:	e4063603          	ld	a2,-448(a2) # e40 <.LBB101_3+0xbec>
    9000:	01560633          	add	a2,a2,s5
    9004:	00c585b3          	add	a1,a1,a2
    9008:	4285d593          	srai	a1,a1,0x28
    900c:	b6b43823          	sd	a1,-1168(s0)
    9010:	00b94663          	blt	s2,a1,901c <.LBB101_788>
    9014:	f7e00593          	li	a1,-130
    9018:	b6b43823          	sd	a1,-1168(s0)

000000000000901c <.LBB101_788>:
    901c:	000015b7          	lui	a1,0x1
    9020:	40b405b3          	sub	a1,s0,a1
    9024:	eb85b583          	ld	a1,-328(a1) # eb8 <.LBB101_4+0xc>
    9028:	036585b3          	mul	a1,a1,s6
    902c:	00001637          	lui	a2,0x1
    9030:	40c40633          	sub	a2,s0,a2
    9034:	eb063603          	ld	a2,-336(a2) # eb0 <.LBB101_4+0x4>
    9038:	01560633          	add	a2,a2,s5
    903c:	00c585b3          	add	a1,a1,a2
    9040:	4285d593          	srai	a1,a1,0x28
    9044:	b6b43023          	sd	a1,-1184(s0)
    9048:	00b94663          	blt	s2,a1,9054 <.LBB101_790>
    904c:	f7e00593          	li	a1,-130
    9050:	b6b43023          	sd	a1,-1184(s0)

0000000000009054 <.LBB101_790>:
    9054:	b4043583          	ld	a1,-1216(s0)
    9058:	036585b3          	mul	a1,a1,s6
    905c:	00001637          	lui	a2,0x1
    9060:	40c40633          	sub	a2,s0,a2
    9064:	f2863603          	ld	a2,-216(a2) # f28 <.LBB101_4+0x7c>
    9068:	01560633          	add	a2,a2,s5
    906c:	00c585b3          	add	a1,a1,a2
    9070:	4285d593          	srai	a1,a1,0x28
    9074:	b4b43823          	sd	a1,-1200(s0)
    9078:	00b94663          	blt	s2,a1,9084 <.LBB101_792>
    907c:	f7e00593          	li	a1,-130
    9080:	b4b43823          	sd	a1,-1200(s0)

0000000000009084 <.LBB101_792>:
    9084:	000015b7          	lui	a1,0x1
    9088:	40b405b3          	sub	a1,s0,a1
    908c:	fa05b583          	ld	a1,-96(a1) # fa0 <.LBB101_4+0xf4>
    9090:	036585b3          	mul	a1,a1,s6
    9094:	00001637          	lui	a2,0x1
    9098:	40c40633          	sub	a2,s0,a2
    909c:	f9863603          	ld	a2,-104(a2) # f98 <.LBB101_4+0xec>
    90a0:	01560633          	add	a2,a2,s5
    90a4:	00c585b3          	add	a1,a1,a2
    90a8:	4285d593          	srai	a1,a1,0x28
    90ac:	b4b43023          	sd	a1,-1216(s0)
    90b0:	00b94663          	blt	s2,a1,90bc <.LBB101_794>
    90b4:	f7e00593          	li	a1,-130
    90b8:	b4b43023          	sd	a1,-1216(s0)

00000000000090bc <.LBB101_794>:
    90bc:	b3043583          	ld	a1,-1232(s0)
    90c0:	036585b3          	mul	a1,a1,s6
    90c4:	00001637          	lui	a2,0x1
    90c8:	40c40633          	sub	a2,s0,a2
    90cc:	01063603          	ld	a2,16(a2) # 1010 <.LBB101_4+0x164>
    90d0:	01560633          	add	a2,a2,s5
    90d4:	00c585b3          	add	a1,a1,a2
    90d8:	4285d593          	srai	a1,a1,0x28
    90dc:	b2b43823          	sd	a1,-1232(s0)
    90e0:	00b94663          	blt	s2,a1,90ec <.LBB101_796>
    90e4:	f7e00593          	li	a1,-130
    90e8:	b2b43823          	sd	a1,-1232(s0)

00000000000090ec <.LBB101_796>:
    90ec:	b2843583          	ld	a1,-1240(s0)
    90f0:	036585b3          	mul	a1,a1,s6
    90f4:	00001637          	lui	a2,0x1
    90f8:	40c40633          	sub	a2,s0,a2
    90fc:	08063603          	ld	a2,128(a2) # 1080 <.LBB101_4+0x1d4>
    9100:	01560633          	add	a2,a2,s5
    9104:	00c585b3          	add	a1,a1,a2
    9108:	4285d593          	srai	a1,a1,0x28
    910c:	b2b43423          	sd	a1,-1240(s0)
    9110:	00b94663          	blt	s2,a1,911c <.LBB101_798>
    9114:	f7e00593          	li	a1,-130
    9118:	b2b43423          	sd	a1,-1240(s0)

000000000000911c <.LBB101_798>:
    911c:	b2043583          	ld	a1,-1248(s0)
    9120:	036585b3          	mul	a1,a1,s6
    9124:	00001637          	lui	a2,0x1
    9128:	40c40633          	sub	a2,s0,a2
    912c:	0e863603          	ld	a2,232(a2) # 10e8 <.LBB101_4+0x23c>
    9130:	01560633          	add	a2,a2,s5
    9134:	00c585b3          	add	a1,a1,a2
    9138:	4285d593          	srai	a1,a1,0x28
    913c:	b2b43023          	sd	a1,-1248(s0)
    9140:	00b94663          	blt	s2,a1,914c <.LBB101_800>
    9144:	f7e00593          	li	a1,-130
    9148:	b2b43023          	sd	a1,-1248(s0)

000000000000914c <.LBB101_800>:
    914c:	b1843583          	ld	a1,-1256(s0)
    9150:	036585b3          	mul	a1,a1,s6
    9154:	00001637          	lui	a2,0x1
    9158:	40c40633          	sub	a2,s0,a2
    915c:	15063603          	ld	a2,336(a2) # 1150 <.LBB101_4+0x2a4>
    9160:	01560633          	add	a2,a2,s5
    9164:	00c585b3          	add	a1,a1,a2
    9168:	4285d593          	srai	a1,a1,0x28
    916c:	b0b43c23          	sd	a1,-1256(s0)
    9170:	00b94663          	blt	s2,a1,917c <.LBB101_802>
    9174:	f7e00593          	li	a1,-130
    9178:	b0b43c23          	sd	a1,-1256(s0)

000000000000917c <.LBB101_802>:
    917c:	b1043583          	ld	a1,-1264(s0)
    9180:	036585b3          	mul	a1,a1,s6
    9184:	00001637          	lui	a2,0x1
    9188:	40c40633          	sub	a2,s0,a2
    918c:	1c863603          	ld	a2,456(a2) # 11c8 <.LBB101_4+0x31c>
    9190:	01560633          	add	a2,a2,s5
    9194:	00c585b3          	add	a1,a1,a2
    9198:	4285d593          	srai	a1,a1,0x28
    919c:	b0b43823          	sd	a1,-1264(s0)
    91a0:	00b94663          	blt	s2,a1,91ac <.LBB101_804>
    91a4:	f7e00593          	li	a1,-130
    91a8:	b0b43823          	sd	a1,-1264(s0)

00000000000091ac <.LBB101_804>:
    91ac:	b0843583          	ld	a1,-1272(s0)
    91b0:	036585b3          	mul	a1,a1,s6
    91b4:	00001637          	lui	a2,0x1
    91b8:	40c40633          	sub	a2,s0,a2
    91bc:	24063603          	ld	a2,576(a2) # 1240 <.LBB101_4+0x394>
    91c0:	01560633          	add	a2,a2,s5
    91c4:	00c585b3          	add	a1,a1,a2
    91c8:	4285d593          	srai	a1,a1,0x28
    91cc:	b0b43423          	sd	a1,-1272(s0)
    91d0:	00b94663          	blt	s2,a1,91dc <.LBB101_806>
    91d4:	f7e00593          	li	a1,-130
    91d8:	b0b43423          	sd	a1,-1272(s0)

00000000000091dc <.LBB101_806>:
    91dc:	b0043583          	ld	a1,-1280(s0)
    91e0:	036585b3          	mul	a1,a1,s6
    91e4:	a1043603          	ld	a2,-1520(s0)
    91e8:	01560633          	add	a2,a2,s5
    91ec:	00c585b3          	add	a1,a1,a2
    91f0:	4285d593          	srai	a1,a1,0x28
    91f4:	b0b43023          	sd	a1,-1280(s0)
    91f8:	00b94663          	blt	s2,a1,9204 <.LBB101_808>
    91fc:	f7e00593          	li	a1,-130
    9200:	b0b43023          	sd	a1,-1280(s0)

0000000000009204 <.LBB101_808>:
    9204:	af843583          	ld	a1,-1288(s0)
    9208:	036585b3          	mul	a1,a1,s6
    920c:	a1843603          	ld	a2,-1512(s0)
    9210:	01560633          	add	a2,a2,s5
    9214:	00c585b3          	add	a1,a1,a2
    9218:	4285d593          	srai	a1,a1,0x28
    921c:	aeb43c23          	sd	a1,-1288(s0)
    9220:	00b94663          	blt	s2,a1,922c <.LBB101_810>
    9224:	f7e00593          	li	a1,-130
    9228:	aeb43c23          	sd	a1,-1288(s0)

000000000000922c <.LBB101_810>:
    922c:	af043583          	ld	a1,-1296(s0)
    9230:	036585b3          	mul	a1,a1,s6
    9234:	a2043603          	ld	a2,-1504(s0)
    9238:	01560633          	add	a2,a2,s5
    923c:	00c585b3          	add	a1,a1,a2
    9240:	4285d593          	srai	a1,a1,0x28
    9244:	aeb43823          	sd	a1,-1296(s0)
    9248:	00b94663          	blt	s2,a1,9254 <.LBB101_812>
    924c:	f7e00593          	li	a1,-130
    9250:	aeb43823          	sd	a1,-1296(s0)

0000000000009254 <.LBB101_812>:
    9254:	ae843583          	ld	a1,-1304(s0)
    9258:	036585b3          	mul	a1,a1,s6
    925c:	a2843603          	ld	a2,-1496(s0)
    9260:	01560633          	add	a2,a2,s5
    9264:	00c585b3          	add	a1,a1,a2
    9268:	4285d593          	srai	a1,a1,0x28
    926c:	aeb43423          	sd	a1,-1304(s0)
    9270:	00b94663          	blt	s2,a1,927c <.LBB101_814>
    9274:	f7e00593          	li	a1,-130
    9278:	aeb43423          	sd	a1,-1304(s0)

000000000000927c <.LBB101_814>:
    927c:	ae043583          	ld	a1,-1312(s0)
    9280:	036585b3          	mul	a1,a1,s6
    9284:	a3043603          	ld	a2,-1488(s0)
    9288:	01560633          	add	a2,a2,s5
    928c:	00c585b3          	add	a1,a1,a2
    9290:	4285d593          	srai	a1,a1,0x28
    9294:	aeb43023          	sd	a1,-1312(s0)
    9298:	00b94663          	blt	s2,a1,92a4 <.LBB101_816>
    929c:	f7e00593          	li	a1,-130
    92a0:	aeb43023          	sd	a1,-1312(s0)

00000000000092a4 <.LBB101_816>:
    92a4:	ad843583          	ld	a1,-1320(s0)
    92a8:	036585b3          	mul	a1,a1,s6
    92ac:	a3843603          	ld	a2,-1480(s0)
    92b0:	01560633          	add	a2,a2,s5
    92b4:	00c585b3          	add	a1,a1,a2
    92b8:	4285d593          	srai	a1,a1,0x28
    92bc:	acb43c23          	sd	a1,-1320(s0)
    92c0:	00b94663          	blt	s2,a1,92cc <.LBB101_818>
    92c4:	f7e00593          	li	a1,-130
    92c8:	acb43c23          	sd	a1,-1320(s0)

00000000000092cc <.LBB101_818>:
    92cc:	ad043583          	ld	a1,-1328(s0)
    92d0:	036585b3          	mul	a1,a1,s6
    92d4:	ac843603          	ld	a2,-1336(s0)
    92d8:	01560633          	add	a2,a2,s5
    92dc:	00c585b3          	add	a1,a1,a2
    92e0:	4285d593          	srai	a1,a1,0x28
    92e4:	acb43423          	sd	a1,-1336(s0)
    92e8:	00b94663          	blt	s2,a1,92f4 <.LBB101_820>
    92ec:	f7e00593          	li	a1,-130
    92f0:	acb43423          	sd	a1,-1336(s0)

00000000000092f4 <.LBB101_820>:
    92f4:	ab843583          	ld	a1,-1352(s0)
    92f8:	036585b3          	mul	a1,a1,s6
    92fc:	a4043603          	ld	a2,-1472(s0)
    9300:	01560633          	add	a2,a2,s5
    9304:	00c585b3          	add	a1,a1,a2
    9308:	4285d593          	srai	a1,a1,0x28
    930c:	aab43c23          	sd	a1,-1352(s0)
    9310:	00b94663          	blt	s2,a1,931c <.LBB101_822>
    9314:	f7e00593          	li	a1,-130
    9318:	aab43c23          	sd	a1,-1352(s0)

000000000000931c <.LBB101_822>:
    931c:	ac043583          	ld	a1,-1344(s0)
    9320:	036585b3          	mul	a1,a1,s6
    9324:	aa843603          	ld	a2,-1368(s0)
    9328:	01560633          	add	a2,a2,s5
    932c:	00c585b3          	add	a1,a1,a2
    9330:	4285d593          	srai	a1,a1,0x28
    9334:	aab43423          	sd	a1,-1368(s0)
    9338:	00b94663          	blt	s2,a1,9344 <.LBB101_824>
    933c:	f7e00593          	li	a1,-130
    9340:	aab43423          	sd	a1,-1368(s0)

0000000000009344 <.LBB101_824>:
    9344:	a9843583          	ld	a1,-1384(s0)
    9348:	036585b3          	mul	a1,a1,s6
    934c:	a4843603          	ld	a2,-1464(s0)
    9350:	01560633          	add	a2,a2,s5
    9354:	00c585b3          	add	a1,a1,a2
    9358:	4285d593          	srai	a1,a1,0x28
    935c:	a8b43c23          	sd	a1,-1384(s0)
    9360:	00b94663          	blt	s2,a1,936c <.LBB101_826>
    9364:	f7e00593          	li	a1,-130
    9368:	a8b43c23          	sd	a1,-1384(s0)

000000000000936c <.LBB101_826>:
    936c:	ab043583          	ld	a1,-1360(s0)
    9370:	036585b3          	mul	a1,a1,s6
    9374:	a8843603          	ld	a2,-1400(s0)
    9378:	01560633          	add	a2,a2,s5
    937c:	00c585b3          	add	a1,a1,a2
    9380:	4285d593          	srai	a1,a1,0x28
    9384:	a8b43423          	sd	a1,-1400(s0)
    9388:	00b94663          	blt	s2,a1,9394 <.LBB101_828>
    938c:	f7e00593          	li	a1,-130
    9390:	a8b43423          	sd	a1,-1400(s0)

0000000000009394 <.LBB101_828>:
    9394:	a7843583          	ld	a1,-1416(s0)
    9398:	036585b3          	mul	a1,a1,s6
    939c:	a5043603          	ld	a2,-1456(s0)
    93a0:	01560633          	add	a2,a2,s5
    93a4:	00c585b3          	add	a1,a1,a2
    93a8:	4285d593          	srai	a1,a1,0x28
    93ac:	a6b43c23          	sd	a1,-1416(s0)
    93b0:	00b94663          	blt	s2,a1,93bc <.LBB101_830>
    93b4:	f7e00593          	li	a1,-130
    93b8:	a6b43c23          	sd	a1,-1416(s0)

00000000000093bc <.LBB101_830>:
    93bc:	aa043583          	ld	a1,-1376(s0)
    93c0:	036585b3          	mul	a1,a1,s6
    93c4:	a6843603          	ld	a2,-1432(s0)
    93c8:	01560633          	add	a2,a2,s5
    93cc:	00c585b3          	add	a1,a1,a2
    93d0:	4285d593          	srai	a1,a1,0x28
    93d4:	a6b43423          	sd	a1,-1432(s0)
    93d8:	00b94663          	blt	s2,a1,93e4 <.LBB101_832>
    93dc:	f7e00593          	li	a1,-130
    93e0:	a6b43423          	sd	a1,-1432(s0)

00000000000093e4 <.LBB101_832>:
    93e4:	a6043583          	ld	a1,-1440(s0)
    93e8:	036585b3          	mul	a1,a1,s6
    93ec:	01588633          	add	a2,a7,s5
    93f0:	00c585b3          	add	a1,a1,a2
    93f4:	4285d593          	srai	a1,a1,0x28
    93f8:	a4b43c23          	sd	a1,-1448(s0)
    93fc:	00b94663          	blt	s2,a1,9408 <.LBB101_834>
    9400:	f7e00593          	li	a1,-130
    9404:	a4b43c23          	sd	a1,-1448(s0)

0000000000009408 <.LBB101_834>:
    9408:	a9043583          	ld	a1,-1392(s0)
    940c:	036585b3          	mul	a1,a1,s6
    9410:	015c0633          	add	a2,s8,s5
    9414:	00c585b3          	add	a1,a1,a2
    9418:	4285d593          	srai	a1,a1,0x28
    941c:	a4b43423          	sd	a1,-1464(s0)
    9420:	9a043703          	ld	a4,-1632(s0)
    9424:	94843803          	ld	a6,-1720(s0)
    9428:	90843883          	ld	a7,-1784(s0)
    942c:	00b94663          	blt	s2,a1,9438 <.LBB101_836>
    9430:	f7e00593          	li	a1,-130
    9434:	a4b43423          	sd	a1,-1464(s0)

0000000000009438 <.LBB101_836>:
    9438:	a8043583          	ld	a1,-1408(s0)
    943c:	036585b3          	mul	a1,a1,s6
    9440:	a7043603          	ld	a2,-1424(s0)
    9444:	01560633          	add	a2,a2,s5
    9448:	00c585b3          	add	a1,a1,a2
    944c:	4285d593          	srai	a1,a1,0x28
    9450:	a2b43c23          	sd	a1,-1480(s0)
    9454:	00b94663          	blt	s2,a1,9460 <.LBB101_838>
    9458:	f7e00593          	li	a1,-130
    945c:	a2b43c23          	sd	a1,-1480(s0)

0000000000009460 <.LBB101_838>:
    9460:	036285b3          	mul	a1,t0,s6
    9464:	00001637          	lui	a2,0x1
    9468:	40c40633          	sub	a2,s0,a2
    946c:	bc063603          	ld	a2,-1088(a2) # bc0 <.LBB101_3+0x96c>
    9470:	01560633          	add	a2,a2,s5
    9474:	00c585b3          	add	a1,a1,a2
    9478:	4285d593          	srai	a1,a1,0x28
    947c:	acb43823          	sd	a1,-1328(s0)
    9480:	00b94663          	blt	s2,a1,948c <.LBB101_840>
    9484:	f7e00593          	li	a1,-130
    9488:	acb43823          	sd	a1,-1328(s0)

000000000000948c <.LBB101_840>:
    948c:	03650533          	mul	a0,a0,s6
    9490:	000015b7          	lui	a1,0x1
    9494:	40b405b3          	sub	a1,s0,a1
    9498:	c185b583          	ld	a1,-1000(a1) # c18 <.LBB101_3+0x9c4>
    949c:	015585b3          	add	a1,a1,s5
    94a0:	00b50533          	add	a0,a0,a1
    94a4:	42855513          	srai	a0,a0,0x28
    94a8:	aca43023          	sd	a0,-1344(s0)
    94ac:	00a94663          	blt	s2,a0,94b8 <.LBB101_842>
    94b0:	f7e00513          	li	a0,-130
    94b4:	aca43023          	sd	a0,-1344(s0)

00000000000094b8 <.LBB101_842>:
    94b8:	00001537          	lui	a0,0x1
    94bc:	40a40533          	sub	a0,s0,a0
    94c0:	bf053503          	ld	a0,-1040(a0) # bf0 <.LBB101_3+0x99c>
    94c4:	03650533          	mul	a0,a0,s6
    94c8:	000015b7          	lui	a1,0x1
    94cc:	40b405b3          	sub	a1,s0,a1
    94d0:	c705b583          	ld	a1,-912(a1) # c70 <.LBB101_3+0xa1c>
    94d4:	015585b3          	add	a1,a1,s5
    94d8:	00b50533          	add	a0,a0,a1
    94dc:	42855513          	srai	a0,a0,0x28
    94e0:	aaa43823          	sd	a0,-1360(s0)
    94e4:	00a94663          	blt	s2,a0,94f0 <.LBB101_844>
    94e8:	f7e00513          	li	a0,-130
    94ec:	aaa43823          	sd	a0,-1360(s0)

00000000000094f0 <.LBB101_844>:
    94f0:	00001537          	lui	a0,0x1
    94f4:	40a40533          	sub	a0,s0,a0
    94f8:	cd053503          	ld	a0,-816(a0) # cd0 <.LBB101_3+0xa7c>
    94fc:	03650533          	mul	a0,a0,s6
    9500:	000015b7          	lui	a1,0x1
    9504:	40b405b3          	sub	a1,s0,a1
    9508:	cc85b583          	ld	a1,-824(a1) # cc8 <.LBB101_3+0xa74>
    950c:	015585b3          	add	a1,a1,s5
    9510:	00b50533          	add	a0,a0,a1
    9514:	42855513          	srai	a0,a0,0x28
    9518:	aaa43023          	sd	a0,-1376(s0)
    951c:	00a94663          	blt	s2,a0,9528 <.LBB101_846>
    9520:	f7e00513          	li	a0,-130
    9524:	aaa43023          	sd	a0,-1376(s0)

0000000000009528 <.LBB101_846>:
    9528:	00001537          	lui	a0,0x1
    952c:	40a40533          	sub	a0,s0,a0
    9530:	d5053503          	ld	a0,-688(a0) # d50 <.LBB101_3+0xafc>
    9534:	03650533          	mul	a0,a0,s6
    9538:	000015b7          	lui	a1,0x1
    953c:	40b405b3          	sub	a1,s0,a1
    9540:	d485b583          	ld	a1,-696(a1) # d48 <.LBB101_3+0xaf4>
    9544:	015585b3          	add	a1,a1,s5
    9548:	00b50533          	add	a0,a0,a1
    954c:	42855513          	srai	a0,a0,0x28
    9550:	a8a43823          	sd	a0,-1392(s0)
    9554:	00a94663          	blt	s2,a0,9560 <.LBB101_848>
    9558:	f7e00513          	li	a0,-130
    955c:	a8a43823          	sd	a0,-1392(s0)

0000000000009560 <.LBB101_848>:
    9560:	00001537          	lui	a0,0x1
    9564:	40a40533          	sub	a0,s0,a0
    9568:	dc053503          	ld	a0,-576(a0) # dc0 <.LBB101_3+0xb6c>
    956c:	03650533          	mul	a0,a0,s6
    9570:	000015b7          	lui	a1,0x1
    9574:	40b405b3          	sub	a1,s0,a1
    9578:	db85b583          	ld	a1,-584(a1) # db8 <.LBB101_3+0xb64>
    957c:	015585b3          	add	a1,a1,s5
    9580:	00b50533          	add	a0,a0,a1
    9584:	42855513          	srai	a0,a0,0x28
    9588:	a8a43023          	sd	a0,-1408(s0)
    958c:	00a94663          	blt	s2,a0,9598 <.LBB101_850>
    9590:	f7e00513          	li	a0,-130
    9594:	a8a43023          	sd	a0,-1408(s0)

0000000000009598 <.LBB101_850>:
    9598:	00001537          	lui	a0,0x1
    959c:	40a40533          	sub	a0,s0,a0
    95a0:	e3853503          	ld	a0,-456(a0) # e38 <.LBB101_3+0xbe4>
    95a4:	03650533          	mul	a0,a0,s6
    95a8:	000015b7          	lui	a1,0x1
    95ac:	40b405b3          	sub	a1,s0,a1
    95b0:	e305b583          	ld	a1,-464(a1) # e30 <.LBB101_3+0xbdc>
    95b4:	015585b3          	add	a1,a1,s5
    95b8:	00b50533          	add	a0,a0,a1
    95bc:	42855513          	srai	a0,a0,0x28
    95c0:	a6a43823          	sd	a0,-1424(s0)
    95c4:	00a94663          	blt	s2,a0,95d0 <.LBB101_852>
    95c8:	f7e00513          	li	a0,-130
    95cc:	a6a43823          	sd	a0,-1424(s0)

00000000000095d0 <.LBB101_852>:
    95d0:	00001537          	lui	a0,0x1
    95d4:	40a40533          	sub	a0,s0,a0
    95d8:	ea853503          	ld	a0,-344(a0) # ea8 <.LBB101_3+0xc54>
    95dc:	03650533          	mul	a0,a0,s6
    95e0:	000015b7          	lui	a1,0x1
    95e4:	40b405b3          	sub	a1,s0,a1
    95e8:	ea05b583          	ld	a1,-352(a1) # ea0 <.LBB101_3+0xc4c>
    95ec:	015585b3          	add	a1,a1,s5
    95f0:	00b50533          	add	a0,a0,a1
    95f4:	42855513          	srai	a0,a0,0x28
    95f8:	a6a43023          	sd	a0,-1440(s0)
    95fc:	00a94663          	blt	s2,a0,9608 <.LBB101_854>
    9600:	f7e00513          	li	a0,-130
    9604:	a6a43023          	sd	a0,-1440(s0)

0000000000009608 <.LBB101_854>:
    9608:	00001537          	lui	a0,0x1
    960c:	40a40533          	sub	a0,s0,a0
    9610:	f2053503          	ld	a0,-224(a0) # f20 <.LBB101_4+0x74>
    9614:	03650533          	mul	a0,a0,s6
    9618:	000015b7          	lui	a1,0x1
    961c:	40b405b3          	sub	a1,s0,a1
    9620:	f185b583          	ld	a1,-232(a1) # f18 <.LBB101_4+0x6c>
    9624:	015585b3          	add	a1,a1,s5
    9628:	00b50533          	add	a0,a0,a1
    962c:	42855513          	srai	a0,a0,0x28
    9630:	a4a43823          	sd	a0,-1456(s0)
    9634:	00a94663          	blt	s2,a0,9640 <.LBB101_856>
    9638:	f7e00513          	li	a0,-130
    963c:	a4a43823          	sd	a0,-1456(s0)

0000000000009640 <.LBB101_856>:
    9640:	00001537          	lui	a0,0x1
    9644:	40a40533          	sub	a0,s0,a0
    9648:	f9053503          	ld	a0,-112(a0) # f90 <.LBB101_4+0xe4>
    964c:	03650533          	mul	a0,a0,s6
    9650:	000015b7          	lui	a1,0x1
    9654:	40b405b3          	sub	a1,s0,a1
    9658:	f885b583          	ld	a1,-120(a1) # f88 <.LBB101_4+0xdc>
    965c:	015585b3          	add	a1,a1,s5
    9660:	00b50533          	add	a0,a0,a1
    9664:	42855513          	srai	a0,a0,0x28
    9668:	a4a43023          	sd	a0,-1472(s0)
    966c:	00a94663          	blt	s2,a0,9678 <.LBB101_858>
    9670:	f7e00513          	li	a0,-130
    9674:	a4a43023          	sd	a0,-1472(s0)

0000000000009678 <.LBB101_858>:
    9678:	00001537          	lui	a0,0x1
    967c:	40a40533          	sub	a0,s0,a0
    9680:	00853503          	ld	a0,8(a0) # 1008 <.LBB101_4+0x15c>
    9684:	03650533          	mul	a0,a0,s6
    9688:	000015b7          	lui	a1,0x1
    968c:	40b405b3          	sub	a1,s0,a1
    9690:	ff85b583          	ld	a1,-8(a1) # ff8 <.LBB101_4+0x14c>
    9694:	015585b3          	add	a1,a1,s5
    9698:	00b50533          	add	a0,a0,a1
    969c:	42855513          	srai	a0,a0,0x28
    96a0:	a2a43823          	sd	a0,-1488(s0)
    96a4:	00a94663          	blt	s2,a0,96b0 <.LBB101_860>
    96a8:	f7e00513          	li	a0,-130
    96ac:	a2a43823          	sd	a0,-1488(s0)

00000000000096b0 <.LBB101_860>:
    96b0:	00001537          	lui	a0,0x1
    96b4:	40a40533          	sub	a0,s0,a0
    96b8:	07053503          	ld	a0,112(a0) # 1070 <.LBB101_4+0x1c4>
    96bc:	03650533          	mul	a0,a0,s6
    96c0:	000015b7          	lui	a1,0x1
    96c4:	40b405b3          	sub	a1,s0,a1
    96c8:	0605b583          	ld	a1,96(a1) # 1060 <.LBB101_4+0x1b4>
    96cc:	015585b3          	add	a1,a1,s5
    96d0:	00b50533          	add	a0,a0,a1
    96d4:	42855513          	srai	a0,a0,0x28
    96d8:	a2a43423          	sd	a0,-1496(s0)
    96dc:	00a94663          	blt	s2,a0,96e8 <.LBB101_862>
    96e0:	f7e00513          	li	a0,-130
    96e4:	a2a43423          	sd	a0,-1496(s0)

00000000000096e8 <.LBB101_862>:
    96e8:	00001537          	lui	a0,0x1
    96ec:	40a40533          	sub	a0,s0,a0
    96f0:	0e053503          	ld	a0,224(a0) # 10e0 <.LBB101_4+0x234>
    96f4:	03650533          	mul	a0,a0,s6
    96f8:	000015b7          	lui	a1,0x1
    96fc:	40b405b3          	sub	a1,s0,a1
    9700:	0d05b583          	ld	a1,208(a1) # 10d0 <.LBB101_4+0x224>
    9704:	015585b3          	add	a1,a1,s5
    9708:	00b50533          	add	a0,a0,a1
    970c:	42855513          	srai	a0,a0,0x28
    9710:	a2a43023          	sd	a0,-1504(s0)
    9714:	00a94663          	blt	s2,a0,9720 <.LBB101_864>
    9718:	f7e00513          	li	a0,-130
    971c:	a2a43023          	sd	a0,-1504(s0)

0000000000009720 <.LBB101_864>:
    9720:	00001537          	lui	a0,0x1
    9724:	40a40533          	sub	a0,s0,a0
    9728:	14853503          	ld	a0,328(a0) # 1148 <.LBB101_4+0x29c>
    972c:	03650533          	mul	a0,a0,s6
    9730:	000015b7          	lui	a1,0x1
    9734:	40b405b3          	sub	a1,s0,a1
    9738:	1405b583          	ld	a1,320(a1) # 1140 <.LBB101_4+0x294>
    973c:	015585b3          	add	a1,a1,s5
    9740:	00b50533          	add	a0,a0,a1
    9744:	42855513          	srai	a0,a0,0x28
    9748:	a0a43c23          	sd	a0,-1512(s0)
    974c:	00a94663          	blt	s2,a0,9758 <.LBB101_866>
    9750:	f7e00513          	li	a0,-130
    9754:	a0a43c23          	sd	a0,-1512(s0)

0000000000009758 <.LBB101_866>:
    9758:	00001537          	lui	a0,0x1
    975c:	40a40533          	sub	a0,s0,a0
    9760:	1c053503          	ld	a0,448(a0) # 11c0 <.LBB101_4+0x314>
    9764:	03650533          	mul	a0,a0,s6
    9768:	000015b7          	lui	a1,0x1
    976c:	40b405b3          	sub	a1,s0,a1
    9770:	1b85b583          	ld	a1,440(a1) # 11b8 <.LBB101_4+0x30c>
    9774:	015585b3          	add	a1,a1,s5
    9778:	00b50533          	add	a0,a0,a1
    977c:	42855513          	srai	a0,a0,0x28
    9780:	a0a43823          	sd	a0,-1520(s0)
    9784:	00a94663          	blt	s2,a0,9790 <.LBB101_868>
    9788:	f7e00513          	li	a0,-130
    978c:	a0a43823          	sd	a0,-1520(s0)

0000000000009790 <.LBB101_868>:
    9790:	00001537          	lui	a0,0x1
    9794:	40a40533          	sub	a0,s0,a0
    9798:	23853503          	ld	a0,568(a0) # 1238 <.LBB101_4+0x38c>
    979c:	03650533          	mul	a0,a0,s6
    97a0:	000015b7          	lui	a1,0x1
    97a4:	40b405b3          	sub	a1,s0,a1
    97a8:	2305b583          	ld	a1,560(a1) # 1230 <.LBB101_4+0x384>
    97ac:	015585b3          	add	a1,a1,s5
    97b0:	00b50533          	add	a0,a0,a1
    97b4:	42855513          	srai	a0,a0,0x28
    97b8:	a0a43423          	sd	a0,-1528(s0)
    97bc:	00a94663          	blt	s2,a0,97c8 <.LBB101_870>
    97c0:	f7e00513          	li	a0,-130
    97c4:	a0a43423          	sd	a0,-1528(s0)

00000000000097c8 <.LBB101_870>:
    97c8:	00001537          	lui	a0,0x1
    97cc:	40a40533          	sub	a0,s0,a0
    97d0:	2a053503          	ld	a0,672(a0) # 12a0 <.LBB101_4+0x3f4>
    97d4:	03650533          	mul	a0,a0,s6
    97d8:	000015b7          	lui	a1,0x1
    97dc:	40b405b3          	sub	a1,s0,a1
    97e0:	2985b583          	ld	a1,664(a1) # 1298 <.LBB101_4+0x3ec>
    97e4:	015585b3          	add	a1,a1,s5
    97e8:	00b50533          	add	a0,a0,a1
    97ec:	42855513          	srai	a0,a0,0x28
    97f0:	a0a43023          	sd	a0,-1536(s0)
    97f4:	00a94663          	blt	s2,a0,9800 <.LBB101_872>
    97f8:	f7e00513          	li	a0,-130
    97fc:	a0a43023          	sd	a0,-1536(s0)

0000000000009800 <.LBB101_872>:
    9800:	00001537          	lui	a0,0x1
    9804:	40a40533          	sub	a0,s0,a0
    9808:	30853503          	ld	a0,776(a0) # 1308 <.LBB101_4+0x45c>
    980c:	03650533          	mul	a0,a0,s6
    9810:	000015b7          	lui	a1,0x1
    9814:	40b405b3          	sub	a1,s0,a1
    9818:	3005b583          	ld	a1,768(a1) # 1300 <.LBB101_4+0x454>
    981c:	015585b3          	add	a1,a1,s5
    9820:	00b50533          	add	a0,a0,a1
    9824:	42855513          	srai	a0,a0,0x28
    9828:	9ea43c23          	sd	a0,-1544(s0)
    982c:	00a94663          	blt	s2,a0,9838 <.LBB101_874>
    9830:	f7e00513          	li	a0,-130
    9834:	9ea43c23          	sd	a0,-1544(s0)

0000000000009838 <.LBB101_874>:
    9838:	00001537          	lui	a0,0x1
    983c:	40a40533          	sub	a0,s0,a0
    9840:	37053503          	ld	a0,880(a0) # 1370 <.LBB101_4+0x4c4>
    9844:	03650533          	mul	a0,a0,s6
    9848:	000015b7          	lui	a1,0x1
    984c:	40b405b3          	sub	a1,s0,a1
    9850:	3685b583          	ld	a1,872(a1) # 1368 <.LBB101_4+0x4bc>
    9854:	015585b3          	add	a1,a1,s5
    9858:	00b50533          	add	a0,a0,a1
    985c:	42855513          	srai	a0,a0,0x28
    9860:	9ea43823          	sd	a0,-1552(s0)
    9864:	00a94663          	blt	s2,a0,9870 <.LBB101_876>
    9868:	f7e00513          	li	a0,-130
    986c:	9ea43823          	sd	a0,-1552(s0)

0000000000009870 <.LBB101_876>:
    9870:	00001537          	lui	a0,0x1
    9874:	40a40533          	sub	a0,s0,a0
    9878:	3d053503          	ld	a0,976(a0) # 13d0 <.LBB101_4+0x524>
    987c:	03650533          	mul	a0,a0,s6
    9880:	000015b7          	lui	a1,0x1
    9884:	40b405b3          	sub	a1,s0,a1
    9888:	3c85b583          	ld	a1,968(a1) # 13c8 <.LBB101_4+0x51c>
    988c:	015585b3          	add	a1,a1,s5
    9890:	00b50533          	add	a0,a0,a1
    9894:	42855513          	srai	a0,a0,0x28
    9898:	9ea43423          	sd	a0,-1560(s0)
    989c:	00a94663          	blt	s2,a0,98a8 <.LBB101_878>
    98a0:	f7e00513          	li	a0,-130
    98a4:	9ea43423          	sd	a0,-1560(s0)

00000000000098a8 <.LBB101_878>:
    98a8:	00001537          	lui	a0,0x1
    98ac:	40a40533          	sub	a0,s0,a0
    98b0:	42853503          	ld	a0,1064(a0) # 1428 <.LBB101_4+0x57c>
    98b4:	03650533          	mul	a0,a0,s6
    98b8:	000015b7          	lui	a1,0x1
    98bc:	40b405b3          	sub	a1,s0,a1
    98c0:	4205b583          	ld	a1,1056(a1) # 1420 <.LBB101_4+0x574>
    98c4:	015585b3          	add	a1,a1,s5
    98c8:	00b50533          	add	a0,a0,a1
    98cc:	42855513          	srai	a0,a0,0x28
    98d0:	9ea43023          	sd	a0,-1568(s0)
    98d4:	00a94663          	blt	s2,a0,98e0 <.LBB101_880>
    98d8:	f7e00513          	li	a0,-130
    98dc:	9ea43023          	sd	a0,-1568(s0)

00000000000098e0 <.LBB101_880>:
    98e0:	00001537          	lui	a0,0x1
    98e4:	40a40533          	sub	a0,s0,a0
    98e8:	48053503          	ld	a0,1152(a0) # 1480 <.LBB101_5+0x30>
    98ec:	03650533          	mul	a0,a0,s6
    98f0:	000015b7          	lui	a1,0x1
    98f4:	40b405b3          	sub	a1,s0,a1
    98f8:	4785b583          	ld	a1,1144(a1) # 1478 <.LBB101_5+0x28>
    98fc:	015585b3          	add	a1,a1,s5
    9900:	00b50533          	add	a0,a0,a1
    9904:	42855513          	srai	a0,a0,0x28
    9908:	9ca43c23          	sd	a0,-1576(s0)
    990c:	00a94663          	blt	s2,a0,9918 <.LBB101_882>
    9910:	f7e00513          	li	a0,-130
    9914:	9ca43c23          	sd	a0,-1576(s0)

0000000000009918 <.LBB101_882>:
    9918:	00001537          	lui	a0,0x1
    991c:	40a40533          	sub	a0,s0,a0
    9920:	4d853503          	ld	a0,1240(a0) # 14d8 <.LBB101_5+0x88>
    9924:	03650533          	mul	a0,a0,s6
    9928:	000015b7          	lui	a1,0x1
    992c:	40b405b3          	sub	a1,s0,a1
    9930:	4d05b583          	ld	a1,1232(a1) # 14d0 <.LBB101_5+0x80>
    9934:	015585b3          	add	a1,a1,s5
    9938:	00b50533          	add	a0,a0,a1
    993c:	42855513          	srai	a0,a0,0x28
    9940:	9ca43423          	sd	a0,-1592(s0)
    9944:	00a94663          	blt	s2,a0,9950 <.LBB101_884>
    9948:	f7e00513          	li	a0,-130
    994c:	9ca43423          	sd	a0,-1592(s0)

0000000000009950 <.LBB101_884>:
    9950:	00001537          	lui	a0,0x1
    9954:	40a40533          	sub	a0,s0,a0
    9958:	53853503          	ld	a0,1336(a0) # 1538 <.LBB101_5+0xe8>
    995c:	03650533          	mul	a0,a0,s6
    9960:	000015b7          	lui	a1,0x1
    9964:	40b405b3          	sub	a1,s0,a1
    9968:	5305b583          	ld	a1,1328(a1) # 1530 <.LBB101_5+0xe0>
    996c:	015585b3          	add	a1,a1,s5
    9970:	00b50533          	add	a0,a0,a1
    9974:	42855513          	srai	a0,a0,0x28
    9978:	84a43023          	sd	a0,-1984(s0)
    997c:	00a94663          	blt	s2,a0,9988 <.LBB101_886>
    9980:	f7e00513          	li	a0,-130
    9984:	84a43023          	sd	a0,-1984(s0)

0000000000009988 <.LBB101_886>:
    9988:	00001537          	lui	a0,0x1
    998c:	40a40533          	sub	a0,s0,a0
    9990:	59053503          	ld	a0,1424(a0) # 1590 <.LBB101_5+0x140>
    9994:	03650533          	mul	a0,a0,s6
    9998:	000015b7          	lui	a1,0x1
    999c:	40b405b3          	sub	a1,s0,a1
    99a0:	5885b583          	ld	a1,1416(a1) # 1588 <.LBB101_5+0x138>
    99a4:	015585b3          	add	a1,a1,s5
    99a8:	00b50533          	add	a0,a0,a1
    99ac:	42855513          	srai	a0,a0,0x28
    99b0:	00050293          	mv	t0,a0
    99b4:	00a94463          	blt	s2,a0,99bc <.LBB101_888>
    99b8:	f7e00293          	li	t0,-130

00000000000099bc <.LBB101_888>:
    99bc:	00001537          	lui	a0,0x1
    99c0:	40a40533          	sub	a0,s0,a0
    99c4:	7d053503          	ld	a0,2000(a0) # 17d0 <.LBB101_5+0x380>
    99c8:	03650533          	mul	a0,a0,s6
    99cc:	000015b7          	lui	a1,0x1
    99d0:	40b405b3          	sub	a1,s0,a1
    99d4:	7c85b583          	ld	a1,1992(a1) # 17c8 <.LBB101_5+0x378>
    99d8:	015585b3          	add	a1,a1,s5
    99dc:	00b50533          	add	a0,a0,a1
    99e0:	42855513          	srai	a0,a0,0x28
    99e4:	00050693          	mv	a3,a0
    99e8:	00a94463          	blt	s2,a0,99f0 <.LBB101_890>
    99ec:	f7e00693          	li	a3,-130

00000000000099f0 <.LBB101_890>:
    99f0:	8c843503          	ld	a0,-1848(s0)
    99f4:	03650533          	mul	a0,a0,s6
    99f8:	8c043583          	ld	a1,-1856(s0)
    99fc:	015585b3          	add	a1,a1,s5
    9a00:	00b50533          	add	a0,a0,a1
    9a04:	42855513          	srai	a0,a0,0x28
    9a08:	00050493          	mv	s1,a0
    9a0c:	00a94463          	blt	s2,a0,9a14 <.LBB101_892>
    9a10:	f7e00493          	li	s1,-130

0000000000009a14 <.LBB101_892>:
    9a14:	91843503          	ld	a0,-1768(s0)
    9a18:	03650533          	mul	a0,a0,s6
    9a1c:	015885b3          	add	a1,a7,s5
    9a20:	00b50533          	add	a0,a0,a1
    9a24:	42855513          	srai	a0,a0,0x28
    9a28:	00050a13          	mv	s4,a0
    9a2c:	00a94463          	blt	s2,a0,9a34 <.LBB101_894>
    9a30:	f7e00a13          	li	s4,-130

0000000000009a34 <.LBB101_894>:
    9a34:	95843503          	ld	a0,-1704(s0)
    9a38:	03650533          	mul	a0,a0,s6
    9a3c:	015805b3          	add	a1,a6,s5
    9a40:	00b50533          	add	a0,a0,a1
    9a44:	42855513          	srai	a0,a0,0x28
    9a48:	00050c13          	mv	s8,a0
    9a4c:	000015b7          	lui	a1,0x1
    9a50:	40b405b3          	sub	a1,s0,a1
    9a54:	bb85b603          	ld	a2,-1096(a1) # bb8 <.LBB101_3+0x964>
    9a58:	00a94463          	blt	s2,a0,9a60 <.LBB101_896>
    9a5c:	f7e00c13          	li	s8,-130

0000000000009a60 <.LBB101_896>:
    9a60:	9a843503          	ld	a0,-1624(s0)
    9a64:	03650533          	mul	a0,a0,s6
    9a68:	015705b3          	add	a1,a4,s5
    9a6c:	00b50533          	add	a0,a0,a1
    9a70:	42855513          	srai	a0,a0,0x28
    9a74:	00050d13          	mv	s10,a0
    9a78:	00a94463          	blt	s2,a0,9a80 <.LBB101_898>
    9a7c:	f7e00d13          	li	s10,-130

0000000000009a80 <.LBB101_898>:
    9a80:	9b843503          	ld	a0,-1608(s0)
    9a84:	03650533          	mul	a0,a0,s6
    9a88:	9b043583          	ld	a1,-1616(s0)
    9a8c:	015585b3          	add	a1,a1,s5
    9a90:	00b50533          	add	a0,a0,a1
    9a94:	42855513          	srai	a0,a0,0x28
    9a98:	00050993          	mv	s3,a0
    9a9c:	00a94463          	blt	s2,a0,9aa4 <.LBB101_900>
    9aa0:	f7e00993          	li	s3,-130

0000000000009aa4 <.LBB101_900>:
    9aa4:	9d043503          	ld	a0,-1584(s0)
    9aa8:	03650533          	mul	a0,a0,s6
    9aac:	9c043583          	ld	a1,-1600(s0)
    9ab0:	015585b3          	add	a1,a1,s5
    9ab4:	00b50533          	add	a0,a0,a1
    9ab8:	42855513          	srai	a0,a0,0x28
    9abc:	9aa43c23          	sd	a0,-1608(s0)
    9ac0:	00a94663          	blt	s2,a0,9acc <.LBB101_902>
    9ac4:	f7e00513          	li	a0,-130
    9ac8:	9aa43c23          	sd	a0,-1608(s0)

0000000000009acc <.LBB101_902>:
    9acc:	036e0533          	mul	a0,t3,s6
    9ad0:	015605b3          	add	a1,a2,s5
    9ad4:	00b50533          	add	a0,a0,a1
    9ad8:	42855513          	srai	a0,a0,0x28
    9adc:	9ca43823          	sd	a0,-1584(s0)
    9ae0:	00a94663          	blt	s2,a0,9aec <.LBB101_904>
    9ae4:	f7e00513          	li	a0,-130
    9ae8:	9ca43823          	sd	a0,-1584(s0)

0000000000009aec <.LBB101_904>:
    9aec:	036f0533          	mul	a0,t5,s6
    9af0:	000015b7          	lui	a1,0x1
    9af4:	40b405b3          	sub	a1,s0,a1
    9af8:	c105b583          	ld	a1,-1008(a1) # c10 <.LBB101_3+0x9bc>
    9afc:	015585b3          	add	a1,a1,s5
    9b00:	00b50533          	add	a0,a0,a1
    9b04:	42855513          	srai	a0,a0,0x28
    9b08:	9ca43023          	sd	a0,-1600(s0)
    9b0c:	000015b7          	lui	a1,0x1
    9b10:	40b405b3          	sub	a1,s0,a1
    9b14:	c685b583          	ld	a1,-920(a1) # c68 <.LBB101_3+0xa14>
    9b18:	00a94663          	blt	s2,a0,9b24 <.LBB101_906>
    9b1c:	f7e00513          	li	a0,-130
    9b20:	9ca43023          	sd	a0,-1600(s0)

0000000000009b24 <.LBB101_906>:
    9b24:	036e8533          	mul	a0,t4,s6
    9b28:	015585b3          	add	a1,a1,s5
    9b2c:	00b50533          	add	a0,a0,a1
    9b30:	42855513          	srai	a0,a0,0x28
    9b34:	00050893          	mv	a7,a0
    9b38:	00a94463          	blt	s2,a0,9b40 <.LBB101_908>
    9b3c:	f7e00893          	li	a7,-130

0000000000009b40 <.LBB101_908>:
    9b40:	00001537          	lui	a0,0x1
    9b44:	40a40533          	sub	a0,s0,a0
    9b48:	cc053503          	ld	a0,-832(a0) # cc0 <.LBB101_3+0xa6c>
    9b4c:	03650533          	mul	a0,a0,s6
    9b50:	000015b7          	lui	a1,0x1
    9b54:	40b405b3          	sub	a1,s0,a1
    9b58:	cb85b583          	ld	a1,-840(a1) # cb8 <.LBB101_3+0xa64>
    9b5c:	015585b3          	add	a1,a1,s5
    9b60:	00b50533          	add	a0,a0,a1
    9b64:	42855513          	srai	a0,a0,0x28
    9b68:	92043603          	ld	a2,-1760(s0)
    9b6c:	00050313          	mv	t1,a0
    9b70:	90043703          	ld	a4,-1792(s0)
    9b74:	8e843803          	ld	a6,-1816(s0)
    9b78:	00a94463          	blt	s2,a0,9b80 <.LBB101_910>
    9b7c:	f7e00313          	li	t1,-130

0000000000009b80 <.LBB101_910>:
    9b80:	00001537          	lui	a0,0x1
    9b84:	40a40533          	sub	a0,s0,a0
    9b88:	bb053e83          	ld	t4,-1104(a0) # bb0 <.LBB101_3+0x95c>
    9b8c:	00001537          	lui	a0,0x1
    9b90:	40a40533          	sub	a0,s0,a0
    9b94:	d4053503          	ld	a0,-704(a0) # d40 <.LBB101_3+0xaec>
    9b98:	03650533          	mul	a0,a0,s6
    9b9c:	000015b7          	lui	a1,0x1
    9ba0:	40b405b3          	sub	a1,s0,a1
    9ba4:	d385b583          	ld	a1,-712(a1) # d38 <.LBB101_3+0xae4>
    9ba8:	015585b3          	add	a1,a1,s5
    9bac:	00b50533          	add	a0,a0,a1
    9bb0:	42855513          	srai	a0,a0,0x28
    9bb4:	00050393          	mv	t2,a0
    9bb8:	00a94463          	blt	s2,a0,9bc0 <.LBB101_912>
    9bbc:	f7e00393          	li	t2,-130

0000000000009bc0 <.LBB101_912>:
    9bc0:	00001537          	lui	a0,0x1
    9bc4:	40a40533          	sub	a0,s0,a0
    9bc8:	db053503          	ld	a0,-592(a0) # db0 <.LBB101_3+0xb5c>
    9bcc:	03650533          	mul	a0,a0,s6
    9bd0:	000015b7          	lui	a1,0x1
    9bd4:	40b405b3          	sub	a1,s0,a1
    9bd8:	da85b583          	ld	a1,-600(a1) # da8 <.LBB101_3+0xb54>
    9bdc:	015585b3          	add	a1,a1,s5
    9be0:	00b50533          	add	a0,a0,a1
    9be4:	42855513          	srai	a0,a0,0x28
    9be8:	00050e13          	mv	t3,a0
    9bec:	00a94463          	blt	s2,a0,9bf4 <.LBB101_914>
    9bf0:	f7e00e13          	li	t3,-130

0000000000009bf4 <.LBB101_914>:
    9bf4:	00001537          	lui	a0,0x1
    9bf8:	40a40533          	sub	a0,s0,a0
    9bfc:	e2853503          	ld	a0,-472(a0) # e28 <.LBB101_3+0xbd4>
    9c00:	03650533          	mul	a0,a0,s6
    9c04:	000015b7          	lui	a1,0x1
    9c08:	40b405b3          	sub	a1,s0,a1
    9c0c:	e205b583          	ld	a1,-480(a1) # e20 <.LBB101_3+0xbcc>
    9c10:	015585b3          	add	a1,a1,s5
    9c14:	00b50533          	add	a0,a0,a1
    9c18:	42855513          	srai	a0,a0,0x28
    9c1c:	00050b93          	mv	s7,a0
    9c20:	00a94463          	blt	s2,a0,9c28 <.LBB101_916>
    9c24:	f7e00b93          	li	s7,-130

0000000000009c28 <.LBB101_916>:
    9c28:	00001537          	lui	a0,0x1
    9c2c:	40a40533          	sub	a0,s0,a0
    9c30:	e9853503          	ld	a0,-360(a0) # e98 <.LBB101_3+0xc44>
    9c34:	03650533          	mul	a0,a0,s6
    9c38:	000015b7          	lui	a1,0x1
    9c3c:	40b405b3          	sub	a1,s0,a1
    9c40:	e905b583          	ld	a1,-368(a1) # e90 <.LBB101_3+0xc3c>
    9c44:	015585b3          	add	a1,a1,s5
    9c48:	00b50533          	add	a0,a0,a1
    9c4c:	42855513          	srai	a0,a0,0x28
    9c50:	00050c93          	mv	s9,a0
    9c54:	00a94463          	blt	s2,a0,9c5c <.LBB101_918>
    9c58:	f7e00c93          	li	s9,-130

0000000000009c5c <.LBB101_918>:
    9c5c:	00001537          	lui	a0,0x1
    9c60:	40a40533          	sub	a0,s0,a0
    9c64:	f1053503          	ld	a0,-240(a0) # f10 <.LBB101_4+0x64>
    9c68:	03650533          	mul	a0,a0,s6
    9c6c:	000015b7          	lui	a1,0x1
    9c70:	40b405b3          	sub	a1,s0,a1
    9c74:	f005b583          	ld	a1,-256(a1) # f00 <.LBB101_4+0x54>
    9c78:	015585b3          	add	a1,a1,s5
    9c7c:	00b50533          	add	a0,a0,a1
    9c80:	42855513          	srai	a0,a0,0x28
    9c84:	00050f93          	mv	t6,a0
    9c88:	00a94463          	blt	s2,a0,9c90 <.LBB101_920>
    9c8c:	f7e00f93          	li	t6,-130

0000000000009c90 <.LBB101_920>:
    9c90:	00001537          	lui	a0,0x1
    9c94:	40a40533          	sub	a0,s0,a0
    9c98:	f7853503          	ld	a0,-136(a0) # f78 <.LBB101_4+0xcc>
    9c9c:	03650533          	mul	a0,a0,s6
    9ca0:	000015b7          	lui	a1,0x1
    9ca4:	40b405b3          	sub	a1,s0,a1
    9ca8:	f685b583          	ld	a1,-152(a1) # f68 <.LBB101_4+0xbc>
    9cac:	015585b3          	add	a1,a1,s5
    9cb0:	00b50533          	add	a0,a0,a1
    9cb4:	42855513          	srai	a0,a0,0x28
    9cb8:	00050d93          	mv	s11,a0
    9cbc:	00a94463          	blt	s2,a0,9cc4 <.LBB101_922>
    9cc0:	f7e00d93          	li	s11,-130

0000000000009cc4 <.LBB101_922>:
    9cc4:	00001537          	lui	a0,0x1
    9cc8:	40a40533          	sub	a0,s0,a0
    9ccc:	ff053503          	ld	a0,-16(a0) # ff0 <.LBB101_4+0x144>
    9cd0:	03650533          	mul	a0,a0,s6
    9cd4:	000015b7          	lui	a1,0x1
    9cd8:	40b405b3          	sub	a1,s0,a1
    9cdc:	fe05b583          	ld	a1,-32(a1) # fe0 <.LBB101_4+0x134>
    9ce0:	015585b3          	add	a1,a1,s5
    9ce4:	00b50533          	add	a0,a0,a1
    9ce8:	42855513          	srai	a0,a0,0x28
    9cec:	9aa43823          	sd	a0,-1616(s0)
    9cf0:	00a94663          	blt	s2,a0,9cfc <.LBB101_924>
    9cf4:	f7e00513          	li	a0,-130
    9cf8:	9aa43823          	sd	a0,-1616(s0)

0000000000009cfc <.LBB101_924>:
    9cfc:	00001537          	lui	a0,0x1
    9d00:	40a40533          	sub	a0,s0,a0
    9d04:	05853503          	ld	a0,88(a0) # 1058 <.LBB101_4+0x1ac>
    9d08:	03650533          	mul	a0,a0,s6
    9d0c:	000015b7          	lui	a1,0x1
    9d10:	40b405b3          	sub	a1,s0,a1
    9d14:	0505b583          	ld	a1,80(a1) # 1050 <.LBB101_4+0x1a4>
    9d18:	015585b3          	add	a1,a1,s5
    9d1c:	00b50533          	add	a0,a0,a1
    9d20:	42855513          	srai	a0,a0,0x28
    9d24:	9aa43423          	sd	a0,-1624(s0)
    9d28:	00a94663          	blt	s2,a0,9d34 <.LBB101_926>
    9d2c:	f7e00513          	li	a0,-130
    9d30:	9aa43423          	sd	a0,-1624(s0)

0000000000009d34 <.LBB101_926>:
    9d34:	00001537          	lui	a0,0x1
    9d38:	40a40533          	sub	a0,s0,a0
    9d3c:	0c853503          	ld	a0,200(a0) # 10c8 <.LBB101_4+0x21c>
    9d40:	03650533          	mul	a0,a0,s6
    9d44:	000015b7          	lui	a1,0x1
    9d48:	40b405b3          	sub	a1,s0,a1
    9d4c:	0c05b583          	ld	a1,192(a1) # 10c0 <.LBB101_4+0x214>
    9d50:	015585b3          	add	a1,a1,s5
    9d54:	00b50533          	add	a0,a0,a1
    9d58:	42855513          	srai	a0,a0,0x28
    9d5c:	9aa43023          	sd	a0,-1632(s0)
    9d60:	00a94663          	blt	s2,a0,9d6c <.LBB101_928>
    9d64:	f7e00513          	li	a0,-130
    9d68:	9aa43023          	sd	a0,-1632(s0)

0000000000009d6c <.LBB101_928>:
    9d6c:	00001537          	lui	a0,0x1
    9d70:	40a40533          	sub	a0,s0,a0
    9d74:	13853503          	ld	a0,312(a0) # 1138 <.LBB101_4+0x28c>
    9d78:	03650533          	mul	a0,a0,s6
    9d7c:	000015b7          	lui	a1,0x1
    9d80:	40b405b3          	sub	a1,s0,a1
    9d84:	1305b583          	ld	a1,304(a1) # 1130 <.LBB101_4+0x284>
    9d88:	015585b3          	add	a1,a1,s5
    9d8c:	00b50533          	add	a0,a0,a1
    9d90:	42855513          	srai	a0,a0,0x28
    9d94:	98a43c23          	sd	a0,-1640(s0)
    9d98:	00a94663          	blt	s2,a0,9da4 <.LBB101_930>
    9d9c:	f7e00513          	li	a0,-130
    9da0:	98a43c23          	sd	a0,-1640(s0)

0000000000009da4 <.LBB101_930>:
    9da4:	00001537          	lui	a0,0x1
    9da8:	40a40533          	sub	a0,s0,a0
    9dac:	1b053503          	ld	a0,432(a0) # 11b0 <.LBB101_4+0x304>
    9db0:	03650533          	mul	a0,a0,s6
    9db4:	000015b7          	lui	a1,0x1
    9db8:	40b405b3          	sub	a1,s0,a1
    9dbc:	1a85b583          	ld	a1,424(a1) # 11a8 <.LBB101_4+0x2fc>
    9dc0:	015585b3          	add	a1,a1,s5
    9dc4:	00b50533          	add	a0,a0,a1
    9dc8:	42855513          	srai	a0,a0,0x28
    9dcc:	98a43823          	sd	a0,-1648(s0)
    9dd0:	00a94663          	blt	s2,a0,9ddc <.LBB101_932>
    9dd4:	f7e00513          	li	a0,-130
    9dd8:	98a43823          	sd	a0,-1648(s0)

0000000000009ddc <.LBB101_932>:
    9ddc:	00001537          	lui	a0,0x1
    9de0:	40a40533          	sub	a0,s0,a0
    9de4:	22853503          	ld	a0,552(a0) # 1228 <.LBB101_4+0x37c>
    9de8:	03650533          	mul	a0,a0,s6
    9dec:	000015b7          	lui	a1,0x1
    9df0:	40b405b3          	sub	a1,s0,a1
    9df4:	2205b583          	ld	a1,544(a1) # 1220 <.LBB101_4+0x374>
    9df8:	015585b3          	add	a1,a1,s5
    9dfc:	00b50533          	add	a0,a0,a1
    9e00:	42855513          	srai	a0,a0,0x28
    9e04:	98a43423          	sd	a0,-1656(s0)
    9e08:	00a94663          	blt	s2,a0,9e14 <.LBB101_934>
    9e0c:	f7e00513          	li	a0,-130
    9e10:	98a43423          	sd	a0,-1656(s0)

0000000000009e14 <.LBB101_934>:
    9e14:	00001537          	lui	a0,0x1
    9e18:	40a40533          	sub	a0,s0,a0
    9e1c:	29053503          	ld	a0,656(a0) # 1290 <.LBB101_4+0x3e4>
    9e20:	03650533          	mul	a0,a0,s6
    9e24:	000015b7          	lui	a1,0x1
    9e28:	40b405b3          	sub	a1,s0,a1
    9e2c:	2885b583          	ld	a1,648(a1) # 1288 <.LBB101_4+0x3dc>
    9e30:	015585b3          	add	a1,a1,s5
    9e34:	00b50533          	add	a0,a0,a1
    9e38:	42855513          	srai	a0,a0,0x28
    9e3c:	98a43023          	sd	a0,-1664(s0)
    9e40:	00a94663          	blt	s2,a0,9e4c <.LBB101_936>
    9e44:	f7e00513          	li	a0,-130
    9e48:	98a43023          	sd	a0,-1664(s0)

0000000000009e4c <.LBB101_936>:
    9e4c:	00001537          	lui	a0,0x1
    9e50:	40a40533          	sub	a0,s0,a0
    9e54:	2f853503          	ld	a0,760(a0) # 12f8 <.LBB101_4+0x44c>
    9e58:	03650533          	mul	a0,a0,s6
    9e5c:	000015b7          	lui	a1,0x1
    9e60:	40b405b3          	sub	a1,s0,a1
    9e64:	2f05b583          	ld	a1,752(a1) # 12f0 <.LBB101_4+0x444>
    9e68:	015585b3          	add	a1,a1,s5
    9e6c:	00b50533          	add	a0,a0,a1
    9e70:	42855513          	srai	a0,a0,0x28
    9e74:	96a43c23          	sd	a0,-1672(s0)
    9e78:	00a94663          	blt	s2,a0,9e84 <.LBB101_938>
    9e7c:	f7e00513          	li	a0,-130
    9e80:	96a43c23          	sd	a0,-1672(s0)

0000000000009e84 <.LBB101_938>:
    9e84:	00001537          	lui	a0,0x1
    9e88:	40a40533          	sub	a0,s0,a0
    9e8c:	36053503          	ld	a0,864(a0) # 1360 <.LBB101_4+0x4b4>
    9e90:	03650533          	mul	a0,a0,s6
    9e94:	000015b7          	lui	a1,0x1
    9e98:	40b405b3          	sub	a1,s0,a1
    9e9c:	3585b583          	ld	a1,856(a1) # 1358 <.LBB101_4+0x4ac>
    9ea0:	015585b3          	add	a1,a1,s5
    9ea4:	00b50533          	add	a0,a0,a1
    9ea8:	42855513          	srai	a0,a0,0x28
    9eac:	96a43823          	sd	a0,-1680(s0)
    9eb0:	00a94663          	blt	s2,a0,9ebc <.LBB101_940>
    9eb4:	f7e00513          	li	a0,-130
    9eb8:	96a43823          	sd	a0,-1680(s0)

0000000000009ebc <.LBB101_940>:
    9ebc:	00001537          	lui	a0,0x1
    9ec0:	40a40533          	sub	a0,s0,a0
    9ec4:	3c053503          	ld	a0,960(a0) # 13c0 <.LBB101_4+0x514>
    9ec8:	03650533          	mul	a0,a0,s6
    9ecc:	000015b7          	lui	a1,0x1
    9ed0:	40b405b3          	sub	a1,s0,a1
    9ed4:	3b85b583          	ld	a1,952(a1) # 13b8 <.LBB101_4+0x50c>
    9ed8:	015585b3          	add	a1,a1,s5
    9edc:	00b50533          	add	a0,a0,a1
    9ee0:	42855513          	srai	a0,a0,0x28
    9ee4:	96a43423          	sd	a0,-1688(s0)
    9ee8:	00a94663          	blt	s2,a0,9ef4 <.LBB101_942>
    9eec:	f7e00513          	li	a0,-130
    9ef0:	96a43423          	sd	a0,-1688(s0)

0000000000009ef4 <.LBB101_942>:
    9ef4:	00001537          	lui	a0,0x1
    9ef8:	40a40533          	sub	a0,s0,a0
    9efc:	41853503          	ld	a0,1048(a0) # 1418 <.LBB101_4+0x56c>
    9f00:	03650533          	mul	a0,a0,s6
    9f04:	000015b7          	lui	a1,0x1
    9f08:	40b405b3          	sub	a1,s0,a1
    9f0c:	4105b583          	ld	a1,1040(a1) # 1410 <.LBB101_4+0x564>
    9f10:	015585b3          	add	a1,a1,s5
    9f14:	00b50533          	add	a0,a0,a1
    9f18:	42855513          	srai	a0,a0,0x28
    9f1c:	96a43023          	sd	a0,-1696(s0)
    9f20:	00a94663          	blt	s2,a0,9f2c <.LBB101_944>
    9f24:	f7e00513          	li	a0,-130
    9f28:	96a43023          	sd	a0,-1696(s0)

0000000000009f2c <.LBB101_944>:
    9f2c:	00001537          	lui	a0,0x1
    9f30:	40a40533          	sub	a0,s0,a0
    9f34:	47053503          	ld	a0,1136(a0) # 1470 <.LBB101_5+0x20>
    9f38:	03650533          	mul	a0,a0,s6
    9f3c:	000015b7          	lui	a1,0x1
    9f40:	40b405b3          	sub	a1,s0,a1
    9f44:	4685b583          	ld	a1,1128(a1) # 1468 <.LBB101_5+0x18>
    9f48:	015585b3          	add	a1,a1,s5
    9f4c:	00b50533          	add	a0,a0,a1
    9f50:	42855513          	srai	a0,a0,0x28
    9f54:	94a43c23          	sd	a0,-1704(s0)
    9f58:	00a94663          	blt	s2,a0,9f64 <.LBB101_946>
    9f5c:	f7e00513          	li	a0,-130
    9f60:	94a43c23          	sd	a0,-1704(s0)

0000000000009f64 <.LBB101_946>:
    9f64:	00001537          	lui	a0,0x1
    9f68:	40a40533          	sub	a0,s0,a0
    9f6c:	4c853503          	ld	a0,1224(a0) # 14c8 <.LBB101_5+0x78>
    9f70:	03650533          	mul	a0,a0,s6
    9f74:	000015b7          	lui	a1,0x1
    9f78:	40b405b3          	sub	a1,s0,a1
    9f7c:	4c05b583          	ld	a1,1216(a1) # 14c0 <.LBB101_5+0x70>
    9f80:	015585b3          	add	a1,a1,s5
    9f84:	00b50533          	add	a0,a0,a1
    9f88:	42855513          	srai	a0,a0,0x28
    9f8c:	94a43423          	sd	a0,-1720(s0)
    9f90:	00a94663          	blt	s2,a0,9f9c <.LBB101_948>
    9f94:	f7e00513          	li	a0,-130
    9f98:	94a43423          	sd	a0,-1720(s0)

0000000000009f9c <.LBB101_948>:
    9f9c:	00001537          	lui	a0,0x1
    9fa0:	40a40533          	sub	a0,s0,a0
    9fa4:	52853503          	ld	a0,1320(a0) # 1528 <.LBB101_5+0xd8>
    9fa8:	03650533          	mul	a0,a0,s6
    9fac:	000015b7          	lui	a1,0x1
    9fb0:	40b405b3          	sub	a1,s0,a1
    9fb4:	5205b583          	ld	a1,1312(a1) # 1520 <.LBB101_5+0xd0>
    9fb8:	015585b3          	add	a1,a1,s5
    9fbc:	00b50533          	add	a0,a0,a1
    9fc0:	42855513          	srai	a0,a0,0x28
    9fc4:	92a43c23          	sd	a0,-1736(s0)
    9fc8:	00a94663          	blt	s2,a0,9fd4 <.LBB101_950>
    9fcc:	f7e00513          	li	a0,-130
    9fd0:	92a43c23          	sd	a0,-1736(s0)

0000000000009fd4 <.LBB101_950>:
    9fd4:	00001537          	lui	a0,0x1
    9fd8:	40a40533          	sub	a0,s0,a0
    9fdc:	58053503          	ld	a0,1408(a0) # 1580 <.LBB101_5+0x130>
    9fe0:	03650533          	mul	a0,a0,s6
    9fe4:	000015b7          	lui	a1,0x1
    9fe8:	40b405b3          	sub	a1,s0,a1
    9fec:	5785b583          	ld	a1,1400(a1) # 1578 <.LBB101_5+0x128>
    9ff0:	015585b3          	add	a1,a1,s5
    9ff4:	00b50533          	add	a0,a0,a1
    9ff8:	42855513          	srai	a0,a0,0x28
    9ffc:	92a43423          	sd	a0,-1752(s0)
    a000:	00a94663          	blt	s2,a0,a00c <.LBB101_952>
    a004:	f7e00513          	li	a0,-130
    a008:	92a43423          	sd	a0,-1752(s0)

000000000000a00c <.LBB101_952>:
    a00c:	00001537          	lui	a0,0x1
    a010:	40a40533          	sub	a0,s0,a0
    a014:	7c053503          	ld	a0,1984(a0) # 17c0 <.LBB101_5+0x370>
    a018:	03650533          	mul	a0,a0,s6
    a01c:	000015b7          	lui	a1,0x1
    a020:	40b405b3          	sub	a1,s0,a1
    a024:	6f05b583          	ld	a1,1776(a1) # 16f0 <.LBB101_5+0x2a0>
    a028:	015585b3          	add	a1,a1,s5
    a02c:	00b50533          	add	a0,a0,a1
    a030:	42855513          	srai	a0,a0,0x28
    a034:	90a43c23          	sd	a0,-1768(s0)
    a038:	00a94663          	blt	s2,a0,a044 <.LBB101_954>
    a03c:	f7e00513          	li	a0,-130
    a040:	90a43c23          	sd	a0,-1768(s0)

000000000000a044 <.LBB101_954>:
    a044:	8b843503          	ld	a0,-1864(s0)
    a048:	03650533          	mul	a0,a0,s6
    a04c:	85043583          	ld	a1,-1968(s0)
    a050:	015585b3          	add	a1,a1,s5
    a054:	00b50533          	add	a0,a0,a1
    a058:	42855513          	srai	a0,a0,0x28
    a05c:	90a43423          	sd	a0,-1784(s0)
    a060:	00a94663          	blt	s2,a0,a06c <.LBB101_956>
    a064:	f7e00513          	li	a0,-130
    a068:	90a43423          	sd	a0,-1784(s0)

000000000000a06c <.LBB101_956>:
    a06c:	8f843503          	ld	a0,-1800(s0)
    a070:	03650533          	mul	a0,a0,s6
    a074:	8e043583          	ld	a1,-1824(s0)
    a078:	015585b3          	add	a1,a1,s5
    a07c:	00b50533          	add	a0,a0,a1
    a080:	42855513          	srai	a0,a0,0x28
    a084:	8ea43c23          	sd	a0,-1800(s0)
    a088:	00a94663          	blt	s2,a0,a094 <.LBB101_958>
    a08c:	f7e00513          	li	a0,-130
    a090:	8ea43c23          	sd	a0,-1800(s0)

000000000000a094 <.LBB101_958>:
    a094:	8f043503          	ld	a0,-1808(s0)
    a098:	03650533          	mul	a0,a0,s6
    a09c:	015805b3          	add	a1,a6,s5
    a0a0:	00b50533          	add	a0,a0,a1
    a0a4:	42855513          	srai	a0,a0,0x28
    a0a8:	8ea43423          	sd	a0,-1816(s0)
    a0ac:	00a94663          	blt	s2,a0,a0b8 <.LBB101_960>
    a0b0:	f7e00513          	li	a0,-130
    a0b4:	8ea43423          	sd	a0,-1816(s0)

000000000000a0b8 <.LBB101_960>:
    a0b8:	91043503          	ld	a0,-1776(s0)
    a0bc:	03650533          	mul	a0,a0,s6
    a0c0:	015705b3          	add	a1,a4,s5
    a0c4:	00b50533          	add	a0,a0,a1
    a0c8:	42855513          	srai	a0,a0,0x28
    a0cc:	8ca43c23          	sd	a0,-1832(s0)
    a0d0:	00a94663          	blt	s2,a0,a0dc <.LBB101_962>
    a0d4:	f7e00513          	li	a0,-130
    a0d8:	8ca43c23          	sd	a0,-1832(s0)

000000000000a0dc <.LBB101_962>:
    a0dc:	93043503          	ld	a0,-1744(s0)
    a0e0:	03650533          	mul	a0,a0,s6
    a0e4:	015605b3          	add	a1,a2,s5
    a0e8:	00b50533          	add	a0,a0,a1
    a0ec:	42855513          	srai	a0,a0,0x28
    a0f0:	8ca43423          	sd	a0,-1848(s0)
    a0f4:	00a94663          	blt	s2,a0,a100 <.LBB101_964>
    a0f8:	f7e00513          	li	a0,-130
    a0fc:	8ca43423          	sd	a0,-1848(s0)

000000000000a100 <.LBB101_964>:
    a100:	95043503          	ld	a0,-1712(s0)
    a104:	03650533          	mul	a0,a0,s6
    a108:	94043583          	ld	a1,-1728(s0)
    a10c:	015585b3          	add	a1,a1,s5
    a110:	00b50533          	add	a0,a0,a1
    a114:	42855513          	srai	a0,a0,0x28
    a118:	8aa43c23          	sd	a0,-1864(s0)
    a11c:	00a94663          	blt	s2,a0,a128 <.LBB101_966>
    a120:	f7e00513          	li	a0,-130
    a124:	8aa43c23          	sd	a0,-1864(s0)

000000000000a128 <.LBB101_966>:
    a128:	03678533          	mul	a0,a5,s6
    a12c:	000015b7          	lui	a1,0x1
    a130:	40b405b3          	sub	a1,s0,a1
    a134:	6805b583          	ld	a1,1664(a1) # 1680 <.LBB101_5+0x230>
    a138:	015585b3          	add	a1,a1,s5
    a13c:	00b50533          	add	a0,a0,a1
    a140:	42855513          	srai	a0,a0,0x28
    a144:	00a94463          	blt	s2,a0,a14c <.LBB101_968>
    a148:	f7e00513          	li	a0,-130

000000000000a14c <.LBB101_968>:
    a14c:	94a43823          	sd	a0,-1712(s0)
    a150:	03608533          	mul	a0,ra,s6
    a154:	000015b7          	lui	a1,0x1
    a158:	40b405b3          	sub	a1,s0,a1
    a15c:	bf85b583          	ld	a1,-1032(a1) # bf8 <.LBB101_3+0x9a4>
    a160:	015585b3          	add	a1,a1,s5
    a164:	00b50533          	add	a0,a0,a1
    a168:	42855513          	srai	a0,a0,0x28
    a16c:	94a43023          	sd	a0,-1728(s0)
    a170:	00a94663          	blt	s2,a0,a17c <.LBB101_970>
    a174:	f7e00513          	li	a0,-130
    a178:	94a43023          	sd	a0,-1728(s0)

000000000000a17c <.LBB101_970>:
    a17c:	00001537          	lui	a0,0x1
    a180:	40a40533          	sub	a0,s0,a0
    a184:	77053503          	ld	a0,1904(a0) # 1770 <.LBB101_5+0x320>
    a188:	03650533          	mul	a0,a0,s6
    a18c:	000015b7          	lui	a1,0x1
    a190:	40b405b3          	sub	a1,s0,a1
    a194:	c605b583          	ld	a1,-928(a1) # c60 <.LBB101_3+0xa0c>
    a198:	015585b3          	add	a1,a1,s5
    a19c:	00b50533          	add	a0,a0,a1
    a1a0:	42855513          	srai	a0,a0,0x28
    a1a4:	92a43823          	sd	a0,-1744(s0)
    a1a8:	00a94663          	blt	s2,a0,a1b4 <.LBB101_972>
    a1ac:	f7e00513          	li	a0,-130
    a1b0:	92a43823          	sd	a0,-1744(s0)

000000000000a1b4 <.LBB101_972>:
    a1b4:	00001537          	lui	a0,0x1
    a1b8:	40a40533          	sub	a0,s0,a0
    a1bc:	cb053503          	ld	a0,-848(a0) # cb0 <.LBB101_3+0xa5c>
    a1c0:	03650533          	mul	a0,a0,s6
    a1c4:	000015b7          	lui	a1,0x1
    a1c8:	40b405b3          	sub	a1,s0,a1
    a1cc:	ca85b583          	ld	a1,-856(a1) # ca8 <.LBB101_3+0xa54>
    a1d0:	015585b3          	add	a1,a1,s5
    a1d4:	00b50533          	add	a0,a0,a1
    a1d8:	42855513          	srai	a0,a0,0x28
    a1dc:	92a43023          	sd	a0,-1760(s0)
    a1e0:	00a94663          	blt	s2,a0,a1ec <.LBB101_974>
    a1e4:	f7e00513          	li	a0,-130
    a1e8:	92a43023          	sd	a0,-1760(s0)

000000000000a1ec <.LBB101_974>:
    a1ec:	00001537          	lui	a0,0x1
    a1f0:	40a40533          	sub	a0,s0,a0
    a1f4:	d3053503          	ld	a0,-720(a0) # d30 <.LBB101_3+0xadc>
    a1f8:	03650533          	mul	a0,a0,s6
    a1fc:	000015b7          	lui	a1,0x1
    a200:	40b405b3          	sub	a1,s0,a1
    a204:	d285b583          	ld	a1,-728(a1) # d28 <.LBB101_3+0xad4>
    a208:	015585b3          	add	a1,a1,s5
    a20c:	00b50533          	add	a0,a0,a1
    a210:	42855513          	srai	a0,a0,0x28
    a214:	90a43823          	sd	a0,-1776(s0)
    a218:	00a94663          	blt	s2,a0,a224 <.LBB101_976>
    a21c:	f7e00513          	li	a0,-130
    a220:	90a43823          	sd	a0,-1776(s0)

000000000000a224 <.LBB101_976>:
    a224:	00001537          	lui	a0,0x1
    a228:	40a40533          	sub	a0,s0,a0
    a22c:	75853503          	ld	a0,1880(a0) # 1758 <.LBB101_5+0x308>
    a230:	03650533          	mul	a0,a0,s6
    a234:	000015b7          	lui	a1,0x1
    a238:	40b405b3          	sub	a1,s0,a1
    a23c:	da05b583          	ld	a1,-608(a1) # da0 <.LBB101_3+0xb4c>
    a240:	015585b3          	add	a1,a1,s5
    a244:	00b50533          	add	a0,a0,a1
    a248:	42855513          	srai	a0,a0,0x28
    a24c:	90a43023          	sd	a0,-1792(s0)
    a250:	00a94663          	blt	s2,a0,a25c <.LBB101_978>
    a254:	f7e00513          	li	a0,-130
    a258:	90a43023          	sd	a0,-1792(s0)

000000000000a25c <.LBB101_978>:
    a25c:	00001537          	lui	a0,0x1
    a260:	40a40533          	sub	a0,s0,a0
    a264:	75053503          	ld	a0,1872(a0) # 1750 <.LBB101_5+0x300>
    a268:	03650533          	mul	a0,a0,s6
    a26c:	000015b7          	lui	a1,0x1
    a270:	40b405b3          	sub	a1,s0,a1
    a274:	e105b583          	ld	a1,-496(a1) # e10 <.LBB101_3+0xbbc>
    a278:	015585b3          	add	a1,a1,s5
    a27c:	00b50533          	add	a0,a0,a1
    a280:	42855513          	srai	a0,a0,0x28
    a284:	8ea43823          	sd	a0,-1808(s0)
    a288:	00a94663          	blt	s2,a0,a294 <.LBB101_980>
    a28c:	f7e00513          	li	a0,-130
    a290:	8ea43823          	sd	a0,-1808(s0)

000000000000a294 <.LBB101_980>:
    a294:	00001537          	lui	a0,0x1
    a298:	40a40533          	sub	a0,s0,a0
    a29c:	74853503          	ld	a0,1864(a0) # 1748 <.LBB101_5+0x2f8>
    a2a0:	03650533          	mul	a0,a0,s6
    a2a4:	000015b7          	lui	a1,0x1
    a2a8:	40b405b3          	sub	a1,s0,a1
    a2ac:	e785b583          	ld	a1,-392(a1) # e78 <.LBB101_3+0xc24>
    a2b0:	015585b3          	add	a1,a1,s5
    a2b4:	00b50533          	add	a0,a0,a1
    a2b8:	42855513          	srai	a0,a0,0x28
    a2bc:	8ea43023          	sd	a0,-1824(s0)
    a2c0:	00a94663          	blt	s2,a0,a2cc <.LBB101_982>
    a2c4:	f7e00513          	li	a0,-130
    a2c8:	8ea43023          	sd	a0,-1824(s0)

000000000000a2cc <.LBB101_982>:
    a2cc:	00001537          	lui	a0,0x1
    a2d0:	40a40533          	sub	a0,s0,a0
    a2d4:	74053503          	ld	a0,1856(a0) # 1740 <.LBB101_5+0x2f0>
    a2d8:	03650533          	mul	a0,a0,s6
    a2dc:	000015b7          	lui	a1,0x1
    a2e0:	40b405b3          	sub	a1,s0,a1
    a2e4:	ef05b583          	ld	a1,-272(a1) # ef0 <.LBB101_4+0x44>
    a2e8:	015585b3          	add	a1,a1,s5
    a2ec:	00b50533          	add	a0,a0,a1
    a2f0:	42855513          	srai	a0,a0,0x28
    a2f4:	8ca43823          	sd	a0,-1840(s0)
    a2f8:	00a94663          	blt	s2,a0,a304 <.LBB101_984>
    a2fc:	f7e00513          	li	a0,-130
    a300:	8ca43823          	sd	a0,-1840(s0)

000000000000a304 <.LBB101_984>:
    a304:	00001537          	lui	a0,0x1
    a308:	40a40533          	sub	a0,s0,a0
    a30c:	73853503          	ld	a0,1848(a0) # 1738 <.LBB101_5+0x2e8>
    a310:	03650533          	mul	a0,a0,s6
    a314:	000015b7          	lui	a1,0x1
    a318:	40b405b3          	sub	a1,s0,a1
    a31c:	f605b583          	ld	a1,-160(a1) # f60 <.LBB101_4+0xb4>
    a320:	015585b3          	add	a1,a1,s5
    a324:	00b50533          	add	a0,a0,a1
    a328:	42855513          	srai	a0,a0,0x28
    a32c:	8ca43023          	sd	a0,-1856(s0)
    a330:	00a94663          	blt	s2,a0,a33c <.LBB101_986>
    a334:	f7e00513          	li	a0,-130
    a338:	8ca43023          	sd	a0,-1856(s0)

000000000000a33c <.LBB101_986>:
    a33c:	00001537          	lui	a0,0x1
    a340:	40a40533          	sub	a0,s0,a0
    a344:	73053503          	ld	a0,1840(a0) # 1730 <.LBB101_5+0x2e0>
    a348:	03650533          	mul	a0,a0,s6
    a34c:	000015b7          	lui	a1,0x1
    a350:	40b405b3          	sub	a1,s0,a1
    a354:	fd85b583          	ld	a1,-40(a1) # fd8 <.LBB101_4+0x12c>
    a358:	015585b3          	add	a1,a1,s5
    a35c:	00b50533          	add	a0,a0,a1
    a360:	42855513          	srai	a0,a0,0x28
    a364:	8aa43823          	sd	a0,-1872(s0)
    a368:	00a94663          	blt	s2,a0,a374 <.LBB101_988>
    a36c:	f7e00513          	li	a0,-130
    a370:	8aa43823          	sd	a0,-1872(s0)

000000000000a374 <.LBB101_988>:
    a374:	00001537          	lui	a0,0x1
    a378:	40a40533          	sub	a0,s0,a0
    a37c:	72853503          	ld	a0,1832(a0) # 1728 <.LBB101_5+0x2d8>
    a380:	03650533          	mul	a0,a0,s6
    a384:	000015b7          	lui	a1,0x1
    a388:	40b405b3          	sub	a1,s0,a1
    a38c:	0485b583          	ld	a1,72(a1) # 1048 <.LBB101_4+0x19c>
    a390:	015585b3          	add	a1,a1,s5
    a394:	00b50533          	add	a0,a0,a1
    a398:	42855513          	srai	a0,a0,0x28
    a39c:	8aa43423          	sd	a0,-1880(s0)
    a3a0:	00a94663          	blt	s2,a0,a3ac <.LBB101_990>
    a3a4:	f7e00513          	li	a0,-130
    a3a8:	8aa43423          	sd	a0,-1880(s0)

000000000000a3ac <.LBB101_990>:
    a3ac:	00001537          	lui	a0,0x1
    a3b0:	40a40533          	sub	a0,s0,a0
    a3b4:	72053503          	ld	a0,1824(a0) # 1720 <.LBB101_5+0x2d0>
    a3b8:	03650533          	mul	a0,a0,s6
    a3bc:	000015b7          	lui	a1,0x1
    a3c0:	40b405b3          	sub	a1,s0,a1
    a3c4:	0b85b583          	ld	a1,184(a1) # 10b8 <.LBB101_4+0x20c>
    a3c8:	015585b3          	add	a1,a1,s5
    a3cc:	00b50533          	add	a0,a0,a1
    a3d0:	42855513          	srai	a0,a0,0x28
    a3d4:	8aa43023          	sd	a0,-1888(s0)
    a3d8:	00a94663          	blt	s2,a0,a3e4 <.LBB101_992>
    a3dc:	f7e00513          	li	a0,-130
    a3e0:	8aa43023          	sd	a0,-1888(s0)

000000000000a3e4 <.LBB101_992>:
    a3e4:	00001537          	lui	a0,0x1
    a3e8:	40a40533          	sub	a0,s0,a0
    a3ec:	71853503          	ld	a0,1816(a0) # 1718 <.LBB101_5+0x2c8>
    a3f0:	03650533          	mul	a0,a0,s6
    a3f4:	000015b7          	lui	a1,0x1
    a3f8:	40b405b3          	sub	a1,s0,a1
    a3fc:	1285b583          	ld	a1,296(a1) # 1128 <.LBB101_4+0x27c>
    a400:	015585b3          	add	a1,a1,s5
    a404:	00b50533          	add	a0,a0,a1
    a408:	42855513          	srai	a0,a0,0x28
    a40c:	88a43c23          	sd	a0,-1896(s0)
    a410:	00a94663          	blt	s2,a0,a41c <.LBB101_994>
    a414:	f7e00513          	li	a0,-130
    a418:	88a43c23          	sd	a0,-1896(s0)

000000000000a41c <.LBB101_994>:
    a41c:	00001537          	lui	a0,0x1
    a420:	40a40533          	sub	a0,s0,a0
    a424:	1a053503          	ld	a0,416(a0) # 11a0 <.LBB101_4+0x2f4>
    a428:	03650533          	mul	a0,a0,s6
    a42c:	000015b7          	lui	a1,0x1
    a430:	40b405b3          	sub	a1,s0,a1
    a434:	1985b583          	ld	a1,408(a1) # 1198 <.LBB101_4+0x2ec>
    a438:	015585b3          	add	a1,a1,s5
    a43c:	00b50533          	add	a0,a0,a1
    a440:	42855513          	srai	a0,a0,0x28
    a444:	88a43823          	sd	a0,-1904(s0)
    a448:	00a94663          	blt	s2,a0,a454 <.LBB101_996>
    a44c:	f7e00513          	li	a0,-130
    a450:	88a43823          	sd	a0,-1904(s0)

000000000000a454 <.LBB101_996>:
    a454:	00001537          	lui	a0,0x1
    a458:	40a40533          	sub	a0,s0,a0
    a45c:	21853503          	ld	a0,536(a0) # 1218 <.LBB101_4+0x36c>
    a460:	036505b3          	mul	a1,a0,s6
    a464:	00001537          	lui	a0,0x1
    a468:	40a40533          	sub	a0,s0,a0
    a46c:	21053603          	ld	a2,528(a0) # 1210 <.LBB101_4+0x364>
    a470:	01560633          	add	a2,a2,s5
    a474:	00c585b3          	add	a1,a1,a2
    a478:	4285d593          	srai	a1,a1,0x28
    a47c:	88b43423          	sd	a1,-1912(s0)
    a480:	00b94663          	blt	s2,a1,a48c <.LBB101_998>
    a484:	f7e00513          	li	a0,-130
    a488:	88a43423          	sd	a0,-1912(s0)

000000000000a48c <.LBB101_998>:
    a48c:	00001537          	lui	a0,0x1
    a490:	40a40533          	sub	a0,s0,a0
    a494:	70053503          	ld	a0,1792(a0) # 1700 <.LBB101_5+0x2b0>
    a498:	036505b3          	mul	a1,a0,s6
    a49c:	00001537          	lui	a0,0x1
    a4a0:	40a40533          	sub	a0,s0,a0
    a4a4:	28053603          	ld	a2,640(a0) # 1280 <.LBB101_4+0x3d4>
    a4a8:	01560633          	add	a2,a2,s5
    a4ac:	00c585b3          	add	a1,a1,a2
    a4b0:	4285d593          	srai	a1,a1,0x28
    a4b4:	88b43023          	sd	a1,-1920(s0)
    a4b8:	00b94663          	blt	s2,a1,a4c4 <.LBB101_1000>
    a4bc:	f7e00513          	li	a0,-130
    a4c0:	88a43023          	sd	a0,-1920(s0)

000000000000a4c4 <.LBB101_1000>:
    a4c4:	00001537          	lui	a0,0x1
    a4c8:	40a40533          	sub	a0,s0,a0
    a4cc:	2e853503          	ld	a0,744(a0) # 12e8 <.LBB101_4+0x43c>
    a4d0:	03650633          	mul	a2,a0,s6
    a4d4:	00001537          	lui	a0,0x1
    a4d8:	40a40533          	sub	a0,s0,a0
    a4dc:	2e053703          	ld	a4,736(a0) # 12e0 <.LBB101_4+0x434>
    a4e0:	01570733          	add	a4,a4,s5
    a4e4:	00e60633          	add	a2,a2,a4
    a4e8:	42865613          	srai	a2,a2,0x28
    a4ec:	86c43c23          	sd	a2,-1928(s0)
    a4f0:	00c94663          	blt	s2,a2,a4fc <.LBB101_1002>
    a4f4:	f7e00513          	li	a0,-130
    a4f8:	86a43c23          	sd	a0,-1928(s0)

000000000000a4fc <.LBB101_1002>:
    a4fc:	00001537          	lui	a0,0x1
    a500:	40a40533          	sub	a0,s0,a0
    a504:	35053503          	ld	a0,848(a0) # 1350 <.LBB101_4+0x4a4>
    a508:	03650733          	mul	a4,a0,s6
    a50c:	00001537          	lui	a0,0x1
    a510:	40a40533          	sub	a0,s0,a0
    a514:	34853783          	ld	a5,840(a0) # 1348 <.LBB101_4+0x49c>
    a518:	015787b3          	add	a5,a5,s5
    a51c:	00f70733          	add	a4,a4,a5
    a520:	42875713          	srai	a4,a4,0x28
    a524:	86e43823          	sd	a4,-1936(s0)
    a528:	00e94663          	blt	s2,a4,a534 <.LBB101_1004>
    a52c:	f7e00513          	li	a0,-130
    a530:	86a43823          	sd	a0,-1936(s0)

000000000000a534 <.LBB101_1004>:
    a534:	00001537          	lui	a0,0x1
    a538:	40a40533          	sub	a0,s0,a0
    a53c:	68853503          	ld	a0,1672(a0) # 1688 <.LBB101_5+0x238>
    a540:	03650733          	mul	a4,a0,s6
    a544:	00001537          	lui	a0,0x1
    a548:	40a40533          	sub	a0,s0,a0
    a54c:	3b053783          	ld	a5,944(a0) # 13b0 <.LBB101_4+0x504>
    a550:	015787b3          	add	a5,a5,s5
    a554:	00f70733          	add	a4,a4,a5
    a558:	42875713          	srai	a4,a4,0x28
    a55c:	86e43423          	sd	a4,-1944(s0)
    a560:	00e94663          	blt	s2,a4,a56c <.LBB101_1006>
    a564:	f7e00513          	li	a0,-130
    a568:	86a43423          	sd	a0,-1944(s0)

000000000000a56c <.LBB101_1006>:
    a56c:	00001537          	lui	a0,0x1
    a570:	40a40533          	sub	a0,s0,a0
    a574:	6e053503          	ld	a0,1760(a0) # 16e0 <.LBB101_5+0x290>
    a578:	03650733          	mul	a4,a0,s6
    a57c:	e6043783          	ld	a5,-416(s0)
    a580:	00001537          	lui	a0,0x1
    a584:	40a40533          	sub	a0,s0,a0
    a588:	69053503          	ld	a0,1680(a0) # 1690 <.LBB101_5+0x240>
    a58c:	00f507b3          	add	a5,a0,a5
    a590:	00f70733          	add	a4,a4,a5
    a594:	42875713          	srai	a4,a4,0x28
    a598:	00001537          	lui	a0,0x1
    a59c:	40a40533          	sub	a0,s0,a0
    a5a0:	6b853603          	ld	a2,1720(a0) # 16b8 <.LBB101_5+0x268>
    a5a4:	00001537          	lui	a0,0x1
    a5a8:	40a40533          	sub	a0,s0,a0
    a5ac:	6a853583          	ld	a1,1704(a0) # 16a8 <.LBB101_5+0x258>
    a5b0:	00001537          	lui	a0,0x1
    a5b4:	40a40533          	sub	a0,s0,a0
    a5b8:	6a053803          	ld	a6,1696(a0) # 16a0 <.LBB101_5+0x250>
    a5bc:	00001537          	lui	a0,0x1
    a5c0:	40a40533          	sub	a0,s0,a0
    a5c4:	69853f03          	ld	t5,1688(a0) # 1698 <.LBB101_5+0x248>
    a5c8:	86e43023          	sd	a4,-1952(s0)
    a5cc:	00e94663          	blt	s2,a4,a5d8 <.LBB101_1008>
    a5d0:	f7e00513          	li	a0,-130
    a5d4:	86a43023          	sd	a0,-1952(s0)

000000000000a5d8 <.LBB101_1008>:
    a5d8:	00001537          	lui	a0,0x1
    a5dc:	40a40533          	sub	a0,s0,a0
    a5e0:	66853703          	ld	a4,1640(a0) # 1668 <.LBB101_5+0x218>
    a5e4:	00001537          	lui	a0,0x1
    a5e8:	40a40533          	sub	a0,s0,a0
    a5ec:	6d853503          	ld	a0,1752(a0) # 16d8 <.LBB101_5+0x288>
    a5f0:	02e50733          	mul	a4,a0,a4
    a5f4:	e6043783          	ld	a5,-416(s0)
    a5f8:	00ff07b3          	add	a5,t5,a5
    a5fc:	00f70733          	add	a4,a4,a5
    a600:	42875713          	srai	a4,a4,0x28
    a604:	84e43c23          	sd	a4,-1960(s0)
    a608:	00e94663          	blt	s2,a4,a614 <.LBB101_1010>
    a60c:	f7e00513          	li	a0,-130
    a610:	84a43c23          	sd	a0,-1960(s0)

000000000000a614 <.LBB101_1010>:
    a614:	00001537          	lui	a0,0x1
    a618:	40a40533          	sub	a0,s0,a0
    a61c:	66853703          	ld	a4,1640(a0) # 1668 <.LBB101_5+0x218>
    a620:	00001537          	lui	a0,0x1
    a624:	40a40533          	sub	a0,s0,a0
    a628:	6d053503          	ld	a0,1744(a0) # 16d0 <.LBB101_5+0x280>
    a62c:	02e50733          	mul	a4,a0,a4
    a630:	e6043783          	ld	a5,-416(s0)
    a634:	00f807b3          	add	a5,a6,a5
    a638:	00f70733          	add	a4,a4,a5
    a63c:	42875713          	srai	a4,a4,0x28
    a640:	84e43823          	sd	a4,-1968(s0)
    a644:	00e94663          	blt	s2,a4,a650 <.LBB101_1012>
    a648:	f7e00513          	li	a0,-130
    a64c:	84a43823          	sd	a0,-1968(s0)

000000000000a650 <.LBB101_1012>:
    a650:	00001537          	lui	a0,0x1
    a654:	40a40533          	sub	a0,s0,a0
    a658:	66853703          	ld	a4,1640(a0) # 1668 <.LBB101_5+0x218>
    a65c:	00001537          	lui	a0,0x1
    a660:	40a40533          	sub	a0,s0,a0
    a664:	6b053503          	ld	a0,1712(a0) # 16b0 <.LBB101_5+0x260>
    a668:	02e50733          	mul	a4,a0,a4
    a66c:	e6043783          	ld	a5,-416(s0)
    a670:	00f587b3          	add	a5,a1,a5
    a674:	00f70733          	add	a4,a4,a5
    a678:	42875513          	srai	a0,a4,0x28
    a67c:	00a94463          	blt	s2,a0,a684 <.LBB101_1014>
    a680:	f7e00513          	li	a0,-130

000000000000a684 <.LBB101_1014>:
    a684:	000015b7          	lui	a1,0x1
    a688:	40b405b3          	sub	a1,s0,a1
    a68c:	6685b703          	ld	a4,1640(a1) # 1668 <.LBB101_5+0x218>
    a690:	000015b7          	lui	a1,0x1
    a694:	40b405b3          	sub	a1,s0,a1
    a698:	6c05b583          	ld	a1,1728(a1) # 16c0 <.LBB101_5+0x270>
    a69c:	02e58733          	mul	a4,a1,a4
    a6a0:	e6043783          	ld	a5,-416(s0)
    a6a4:	00f607b3          	add	a5,a2,a5
    a6a8:	00f70733          	add	a4,a4,a5
    a6ac:	42875a93          	srai	s5,a4,0x28
    a6b0:	01594463          	blt	s2,s5,a6b8 <.LBB101_1016>
    a6b4:	f7e00a93          	li	s5,-130

000000000000a6b8 <.LBB101_1016>:
    a6b8:	000015b7          	lui	a1,0x1
    a6bc:	40b405b3          	sub	a1,s0,a1
    a6c0:	6685b703          	ld	a4,1640(a1) # 1668 <.LBB101_5+0x218>
    a6c4:	000015b7          	lui	a1,0x1
    a6c8:	40b405b3          	sub	a1,s0,a1
    a6cc:	6e85b583          	ld	a1,1768(a1) # 16e8 <.LBB101_5+0x298>
    a6d0:	02e58733          	mul	a4,a1,a4
    a6d4:	e6043783          	ld	a5,-416(s0)
    a6d8:	000015b7          	lui	a1,0x1
    a6dc:	40b405b3          	sub	a1,s0,a1
    a6e0:	6c85b583          	ld	a1,1736(a1) # 16c8 <.LBB101_5+0x278>
    a6e4:	00f587b3          	add	a5,a1,a5
    a6e8:	00f70733          	add	a4,a4,a5
    a6ec:	42875b13          	srai	s6,a4,0x28
    a6f0:	01694463          	blt	s2,s6,a6f8 <.LBB101_1018>
    a6f4:	f7e00b13          	li	s6,-130

000000000000a6f8 <.LBB101_1018>:
    a6f8:	000015b7          	lui	a1,0x1
    a6fc:	40b405b3          	sub	a1,s0,a1
    a700:	6685b703          	ld	a4,1640(a1) # 1668 <.LBB101_5+0x218>
    a704:	000015b7          	lui	a1,0x1
    a708:	40b405b3          	sub	a1,s0,a1
    a70c:	7f85b583          	ld	a1,2040(a1) # 17f8 <.LBB101_5+0x3a8>
    a710:	02e58733          	mul	a4,a1,a4
    a714:	e6043783          	ld	a5,-416(s0)
    a718:	000015b7          	lui	a1,0x1
    a71c:	40b405b3          	sub	a1,s0,a1
    a720:	7f05b583          	ld	a1,2032(a1) # 17f0 <.LBB101_5+0x3a0>
    a724:	00f587b3          	add	a5,a1,a5
    a728:	00f70733          	add	a4,a4,a5
    a72c:	42875593          	srai	a1,a4,0x28
    a730:	00b94463          	blt	s2,a1,a738 <.LBB101_1020>
    a734:	f7e00593          	li	a1,-130

000000000000a738 <.LBB101_1020>:
    a738:	00001637          	lui	a2,0x1
    a73c:	40c40633          	sub	a2,s0,a2
    a740:	66863703          	ld	a4,1640(a2) # 1668 <.LBB101_5+0x218>
    a744:	80843783          	ld	a5,-2040(s0)
    a748:	02e78733          	mul	a4,a5,a4
    a74c:	e6043783          	ld	a5,-416(s0)
    a750:	80043803          	ld	a6,-2048(s0)
    a754:	00f807b3          	add	a5,a6,a5
    a758:	00f70733          	add	a4,a4,a5
    a75c:	42875713          	srai	a4,a4,0x28
    a760:	00e94463          	blt	s2,a4,a768 <.LBB101_1022>
    a764:	f7e00713          	li	a4,-130

000000000000a768 <.LBB101_1022>:
    a768:	00001637          	lui	a2,0x1
    a76c:	40c40633          	sub	a2,s0,a2
    a770:	66863783          	ld	a5,1640(a2) # 1668 <.LBB101_5+0x218>
    a774:	81043803          	ld	a6,-2032(s0)
    a778:	02f807b3          	mul	a5,a6,a5
    a77c:	e6043803          	ld	a6,-416(s0)
    a780:	010e8833          	add	a6,t4,a6
    a784:	010787b3          	add	a5,a5,a6
    a788:	4287d613          	srai	a2,a5,0x28
    a78c:	00c94463          	blt	s2,a2,a794 <.LBB101_1024>
    a790:	f7e00613          	li	a2,-130

000000000000a794 <.LBB101_1024>:
    a794:	000017b7          	lui	a5,0x1
    a798:	40f407b3          	sub	a5,s0,a5
    a79c:	6687b783          	ld	a5,1640(a5) # 1668 <.LBB101_5+0x218>
    a7a0:	82043803          	ld	a6,-2016(s0)
    a7a4:	02f807b3          	mul	a5,a6,a5
    a7a8:	e6043803          	ld	a6,-416(s0)
    a7ac:	81843e83          	ld	t4,-2024(s0)
    a7b0:	010e8833          	add	a6,t4,a6
    a7b4:	010787b3          	add	a5,a5,a6
    a7b8:	4287d813          	srai	a6,a5,0x28
    a7bc:	01094463          	blt	s2,a6,a7c4 <.LBB101_1026>
    a7c0:	f7e00813          	li	a6,-130

000000000000a7c4 <.LBB101_1026>:
    a7c4:	000017b7          	lui	a5,0x1
    a7c8:	40f407b3          	sub	a5,s0,a5
    a7cc:	6687b783          	ld	a5,1640(a5) # 1668 <.LBB101_5+0x218>
    a7d0:	83043e83          	ld	t4,-2000(s0)
    a7d4:	02fe87b3          	mul	a5,t4,a5
    a7d8:	e6043f03          	ld	t5,-416(s0)
    a7dc:	82843e83          	ld	t4,-2008(s0)
    a7e0:	01ee8f33          	add	t5,t4,t5
    a7e4:	01e787b3          	add	a5,a5,t5
    a7e8:	4287df13          	srai	t5,a5,0x28
    a7ec:	01e94463          	blt	s2,t5,a7f4 <.LBB101_1028>
    a7f0:	f7e00f13          	li	t5,-130

000000000000a7f4 <.LBB101_1028>:
    a7f4:	000017b7          	lui	a5,0x1
    a7f8:	40f407b3          	sub	a5,s0,a5
    a7fc:	6687b783          	ld	a5,1640(a5) # 1668 <.LBB101_5+0x218>
    a800:	84843083          	ld	ra,-1976(s0)
    a804:	02f087b3          	mul	a5,ra,a5
    a808:	e6043083          	ld	ra,-416(s0)
    a80c:	83843e83          	ld	t4,-1992(s0)
    a810:	001e80b3          	add	ra,t4,ra
    a814:	001787b3          	add	a5,a5,ra
    a818:	4287d793          	srai	a5,a5,0x28
    a81c:	7cf95063          	bge	s2,a5,afdc <.LBB101_1285>
    a820:	07d00913          	li	s2,125
    a824:	d6043083          	ld	ra,-672(s0)
    a828:	84043e83          	ld	t4,-1984(s0)
    a82c:	7d20d263          	bge	ra,s2,aff0 <.LBB101_1286>

000000000000a830 <.LBB101_1030>:
    a830:	e4843083          	ld	ra,-440(s0)
    a834:	85143423          	sd	a7,-1976(s0)
    a838:	000c8893          	mv	a7,s9
    a83c:	7d20d663          	bge	ra,s2,b008 <.LBB101_1287>

000000000000a840 <.LBB101_1031>:
    a840:	e5843083          	ld	ra,-424(s0)
    a844:	7d20da63          	bge	ra,s2,b018 <.LBB101_1288>

000000000000a848 <.LBB101_1032>:
    a848:	e7043083          	ld	ra,-400(s0)
    a84c:	7d20de63          	bge	ra,s2,b028 <.LBB101_1289>

000000000000a850 <.LBB101_1033>:
    a850:	e8043083          	ld	ra,-384(s0)
    a854:	7f20d263          	bge	ra,s2,b038 <.LBB101_1290>

000000000000a858 <.LBB101_1034>:
    a858:	e9043083          	ld	ra,-368(s0)
    a85c:	7f20d663          	bge	ra,s2,b048 <.LBB101_1291>

000000000000a860 <.LBB101_1035>:
    a860:	ea043083          	ld	ra,-352(s0)
    a864:	7f20da63          	bge	ra,s2,b058 <.LBB101_1292>

000000000000a868 <.LBB101_1036>:
    a868:	eb043083          	ld	ra,-336(s0)
    a86c:	7f20de63          	bge	ra,s2,b068 <.LBB101_1293>

000000000000a870 <.LBB101_1037>:
    a870:	ec043083          	ld	ra,-320(s0)
    a874:	0120d2e3          	bge	ra,s2,b078 <.LBB101_1294>

000000000000a878 <.LBB101_1038>:
    a878:	ed043083          	ld	ra,-304(s0)
    a87c:	0120d6e3          	bge	ra,s2,b088 <.LBB101_1295>

000000000000a880 <.LBB101_1039>:
    a880:	ee043083          	ld	ra,-288(s0)
    a884:	0120dae3          	bge	ra,s2,b098 <.LBB101_1296>

000000000000a888 <.LBB101_1040>:
    a888:	ee843083          	ld	ra,-280(s0)
    a88c:	0120dee3          	bge	ra,s2,b0a8 <.LBB101_1297>

000000000000a890 <.LBB101_1041>:
    a890:	ef043083          	ld	ra,-272(s0)
    a894:	0320d2e3          	bge	ra,s2,b0b8 <.LBB101_1298>

000000000000a898 <.LBB101_1042>:
    a898:	ef843083          	ld	ra,-264(s0)
    a89c:	0320d6e3          	bge	ra,s2,b0c8 <.LBB101_1299>

000000000000a8a0 <.LBB101_1043>:
    a8a0:	f0043083          	ld	ra,-256(s0)
    a8a4:	0320dae3          	bge	ra,s2,b0d8 <.LBB101_1300>

000000000000a8a8 <.LBB101_1044>:
    a8a8:	f0843083          	ld	ra,-248(s0)
    a8ac:	0320dee3          	bge	ra,s2,b0e8 <.LBB101_1301>

000000000000a8b0 <.LBB101_1045>:
    a8b0:	f1043083          	ld	ra,-240(s0)
    a8b4:	0520d2e3          	bge	ra,s2,b0f8 <.LBB101_1302>

000000000000a8b8 <.LBB101_1046>:
    a8b8:	f1843083          	ld	ra,-232(s0)
    a8bc:	0520d6e3          	bge	ra,s2,b108 <.LBB101_1303>

000000000000a8c0 <.LBB101_1047>:
    a8c0:	f2043083          	ld	ra,-224(s0)
    a8c4:	0520dae3          	bge	ra,s2,b118 <.LBB101_1304>

000000000000a8c8 <.LBB101_1048>:
    a8c8:	f2843083          	ld	ra,-216(s0)
    a8cc:	0520dee3          	bge	ra,s2,b128 <.LBB101_1305>

000000000000a8d0 <.LBB101_1049>:
    a8d0:	f3043083          	ld	ra,-208(s0)
    a8d4:	0720d2e3          	bge	ra,s2,b138 <.LBB101_1306>

000000000000a8d8 <.LBB101_1050>:
    a8d8:	f3843083          	ld	ra,-200(s0)
    a8dc:	0720d6e3          	bge	ra,s2,b148 <.LBB101_1307>

000000000000a8e0 <.LBB101_1051>:
    a8e0:	f4043083          	ld	ra,-192(s0)
    a8e4:	0720dae3          	bge	ra,s2,b158 <.LBB101_1308>

000000000000a8e8 <.LBB101_1052>:
    a8e8:	f4843083          	ld	ra,-184(s0)
    a8ec:	0720dee3          	bge	ra,s2,b168 <.LBB101_1309>

000000000000a8f0 <.LBB101_1053>:
    a8f0:	f5043083          	ld	ra,-176(s0)
    a8f4:	0920d2e3          	bge	ra,s2,b178 <.LBB101_1310>

000000000000a8f8 <.LBB101_1054>:
    a8f8:	f5843083          	ld	ra,-168(s0)
    a8fc:	0920d6e3          	bge	ra,s2,b188 <.LBB101_1311>

000000000000a900 <.LBB101_1055>:
    a900:	f6043083          	ld	ra,-160(s0)
    a904:	0920dae3          	bge	ra,s2,b198 <.LBB101_1312>

000000000000a908 <.LBB101_1056>:
    a908:	f6843083          	ld	ra,-152(s0)
    a90c:	0920dee3          	bge	ra,s2,b1a8 <.LBB101_1313>

000000000000a910 <.LBB101_1057>:
    a910:	f7043083          	ld	ra,-144(s0)
    a914:	0b20d2e3          	bge	ra,s2,b1b8 <.LBB101_1314>

000000000000a918 <.LBB101_1058>:
    a918:	f7843083          	ld	ra,-136(s0)
    a91c:	0b20d6e3          	bge	ra,s2,b1c8 <.LBB101_1315>

000000000000a920 <.LBB101_1059>:
    a920:	f8043083          	ld	ra,-128(s0)
    a924:	0b20dae3          	bge	ra,s2,b1d8 <.LBB101_1316>

000000000000a928 <.LBB101_1060>:
    a928:	f8843083          	ld	ra,-120(s0)
    a92c:	0b20dee3          	bge	ra,s2,b1e8 <.LBB101_1317>

000000000000a930 <.LBB101_1061>:
    a930:	d3843083          	ld	ra,-712(s0)
    a934:	0d20d2e3          	bge	ra,s2,b1f8 <.LBB101_1318>

000000000000a938 <.LBB101_1062>:
    a938:	d4843083          	ld	ra,-696(s0)
    a93c:	0d20d6e3          	bge	ra,s2,b208 <.LBB101_1319>

000000000000a940 <.LBB101_1063>:
    a940:	d5843083          	ld	ra,-680(s0)
    a944:	0d20dae3          	bge	ra,s2,b218 <.LBB101_1320>

000000000000a948 <.LBB101_1064>:
    a948:	d7043083          	ld	ra,-656(s0)
    a94c:	0d20dee3          	bge	ra,s2,b228 <.LBB101_1321>

000000000000a950 <.LBB101_1065>:
    a950:	d8043083          	ld	ra,-640(s0)
    a954:	0f20d2e3          	bge	ra,s2,b238 <.LBB101_1322>

000000000000a958 <.LBB101_1066>:
    a958:	d9043083          	ld	ra,-624(s0)
    a95c:	0f20d6e3          	bge	ra,s2,b248 <.LBB101_1323>

000000000000a960 <.LBB101_1067>:
    a960:	da043083          	ld	ra,-608(s0)
    a964:	0f20dae3          	bge	ra,s2,b258 <.LBB101_1324>

000000000000a968 <.LBB101_1068>:
    a968:	db043083          	ld	ra,-592(s0)
    a96c:	0f20dee3          	bge	ra,s2,b268 <.LBB101_1325>

000000000000a970 <.LBB101_1069>:
    a970:	dc043083          	ld	ra,-576(s0)
    a974:	1120d2e3          	bge	ra,s2,b278 <.LBB101_1326>

000000000000a978 <.LBB101_1070>:
    a978:	dd043083          	ld	ra,-560(s0)
    a97c:	1120d6e3          	bge	ra,s2,b288 <.LBB101_1327>

000000000000a980 <.LBB101_1071>:
    a980:	de043083          	ld	ra,-544(s0)
    a984:	1120dae3          	bge	ra,s2,b298 <.LBB101_1328>

000000000000a988 <.LBB101_1072>:
    a988:	de843083          	ld	ra,-536(s0)
    a98c:	1120dee3          	bge	ra,s2,b2a8 <.LBB101_1329>

000000000000a990 <.LBB101_1073>:
    a990:	df043083          	ld	ra,-528(s0)
    a994:	1320d2e3          	bge	ra,s2,b2b8 <.LBB101_1330>

000000000000a998 <.LBB101_1074>:
    a998:	df843083          	ld	ra,-520(s0)
    a99c:	1320d6e3          	bge	ra,s2,b2c8 <.LBB101_1331>

000000000000a9a0 <.LBB101_1075>:
    a9a0:	e0043083          	ld	ra,-512(s0)
    a9a4:	1320dae3          	bge	ra,s2,b2d8 <.LBB101_1332>

000000000000a9a8 <.LBB101_1076>:
    a9a8:	e0843083          	ld	ra,-504(s0)
    a9ac:	1320dee3          	bge	ra,s2,b2e8 <.LBB101_1333>

000000000000a9b0 <.LBB101_1077>:
    a9b0:	e1043083          	ld	ra,-496(s0)
    a9b4:	1520d2e3          	bge	ra,s2,b2f8 <.LBB101_1334>

000000000000a9b8 <.LBB101_1078>:
    a9b8:	e1843083          	ld	ra,-488(s0)
    a9bc:	1520d6e3          	bge	ra,s2,b308 <.LBB101_1335>

000000000000a9c0 <.LBB101_1079>:
    a9c0:	e2043083          	ld	ra,-480(s0)
    a9c4:	1520dae3          	bge	ra,s2,b318 <.LBB101_1336>

000000000000a9c8 <.LBB101_1080>:
    a9c8:	e2843083          	ld	ra,-472(s0)
    a9cc:	1520dee3          	bge	ra,s2,b328 <.LBB101_1337>

000000000000a9d0 <.LBB101_1081>:
    a9d0:	e3043083          	ld	ra,-464(s0)
    a9d4:	1720d2e3          	bge	ra,s2,b338 <.LBB101_1338>

000000000000a9d8 <.LBB101_1082>:
    a9d8:	e3843083          	ld	ra,-456(s0)
    a9dc:	1720d6e3          	bge	ra,s2,b348 <.LBB101_1339>

000000000000a9e0 <.LBB101_1083>:
    a9e0:	e4043083          	ld	ra,-448(s0)
    a9e4:	1720dae3          	bge	ra,s2,b358 <.LBB101_1340>

000000000000a9e8 <.LBB101_1084>:
    a9e8:	e5043083          	ld	ra,-432(s0)
    a9ec:	1720dee3          	bge	ra,s2,b368 <.LBB101_1341>

000000000000a9f0 <.LBB101_1085>:
    a9f0:	e6843083          	ld	ra,-408(s0)
    a9f4:	1920d2e3          	bge	ra,s2,b378 <.LBB101_1342>

000000000000a9f8 <.LBB101_1086>:
    a9f8:	e7843083          	ld	ra,-392(s0)
    a9fc:	1920d6e3          	bge	ra,s2,b388 <.LBB101_1343>

000000000000aa00 <.LBB101_1087>:
    aa00:	e8843083          	ld	ra,-376(s0)
    aa04:	1920dae3          	bge	ra,s2,b398 <.LBB101_1344>

000000000000aa08 <.LBB101_1088>:
    aa08:	e9843083          	ld	ra,-360(s0)
    aa0c:	1920dee3          	bge	ra,s2,b3a8 <.LBB101_1345>

000000000000aa10 <.LBB101_1089>:
    aa10:	ea843083          	ld	ra,-344(s0)
    aa14:	1b20d2e3          	bge	ra,s2,b3b8 <.LBB101_1346>

000000000000aa18 <.LBB101_1090>:
    aa18:	eb843083          	ld	ra,-328(s0)
    aa1c:	1b20d6e3          	bge	ra,s2,b3c8 <.LBB101_1347>

000000000000aa20 <.LBB101_1091>:
    aa20:	ec843083          	ld	ra,-312(s0)
    aa24:	1b20dae3          	bge	ra,s2,b3d8 <.LBB101_1348>

000000000000aa28 <.LBB101_1092>:
    aa28:	ed843083          	ld	ra,-296(s0)
    aa2c:	1b20dee3          	bge	ra,s2,b3e8 <.LBB101_1349>

000000000000aa30 <.LBB101_1093>:
    aa30:	c3843083          	ld	ra,-968(s0)
    aa34:	1d20d2e3          	bge	ra,s2,b3f8 <.LBB101_1350>

000000000000aa38 <.LBB101_1094>:
    aa38:	c4843083          	ld	ra,-952(s0)
    aa3c:	1d20d6e3          	bge	ra,s2,b408 <.LBB101_1351>

000000000000aa40 <.LBB101_1095>:
    aa40:	c5843083          	ld	ra,-936(s0)
    aa44:	1d20dae3          	bge	ra,s2,b418 <.LBB101_1352>

000000000000aa48 <.LBB101_1096>:
    aa48:	c6843083          	ld	ra,-920(s0)
    aa4c:	1d20dee3          	bge	ra,s2,b428 <.LBB101_1353>

000000000000aa50 <.LBB101_1097>:
    aa50:	c7843083          	ld	ra,-904(s0)
    aa54:	1f20d2e3          	bge	ra,s2,b438 <.LBB101_1354>

000000000000aa58 <.LBB101_1098>:
    aa58:	c8843083          	ld	ra,-888(s0)
    aa5c:	1f20d6e3          	bge	ra,s2,b448 <.LBB101_1355>

000000000000aa60 <.LBB101_1099>:
    aa60:	c9843083          	ld	ra,-872(s0)
    aa64:	1f20dae3          	bge	ra,s2,b458 <.LBB101_1356>

000000000000aa68 <.LBB101_1100>:
    aa68:	ca843083          	ld	ra,-856(s0)
    aa6c:	1f20dee3          	bge	ra,s2,b468 <.LBB101_1357>

000000000000aa70 <.LBB101_1101>:
    aa70:	cb843083          	ld	ra,-840(s0)
    aa74:	2120d2e3          	bge	ra,s2,b478 <.LBB101_1358>

000000000000aa78 <.LBB101_1102>:
    aa78:	cc843083          	ld	ra,-824(s0)
    aa7c:	2120d6e3          	bge	ra,s2,b488 <.LBB101_1359>

000000000000aa80 <.LBB101_1103>:
    aa80:	cd843083          	ld	ra,-808(s0)
    aa84:	2120dae3          	bge	ra,s2,b498 <.LBB101_1360>

000000000000aa88 <.LBB101_1104>:
    aa88:	ce043083          	ld	ra,-800(s0)
    aa8c:	2120dee3          	bge	ra,s2,b4a8 <.LBB101_1361>

000000000000aa90 <.LBB101_1105>:
    aa90:	ce843083          	ld	ra,-792(s0)
    aa94:	2320d2e3          	bge	ra,s2,b4b8 <.LBB101_1362>

000000000000aa98 <.LBB101_1106>:
    aa98:	cf043083          	ld	ra,-784(s0)
    aa9c:	2320d6e3          	bge	ra,s2,b4c8 <.LBB101_1363>

000000000000aaa0 <.LBB101_1107>:
    aaa0:	cf843083          	ld	ra,-776(s0)
    aaa4:	2320dae3          	bge	ra,s2,b4d8 <.LBB101_1364>

000000000000aaa8 <.LBB101_1108>:
    aaa8:	d0043083          	ld	ra,-768(s0)
    aaac:	2320dee3          	bge	ra,s2,b4e8 <.LBB101_1365>

000000000000aab0 <.LBB101_1109>:
    aab0:	d0843083          	ld	ra,-760(s0)
    aab4:	2520d2e3          	bge	ra,s2,b4f8 <.LBB101_1366>

000000000000aab8 <.LBB101_1110>:
    aab8:	d1043083          	ld	ra,-752(s0)
    aabc:	2520d6e3          	bge	ra,s2,b508 <.LBB101_1367>

000000000000aac0 <.LBB101_1111>:
    aac0:	d1843083          	ld	ra,-744(s0)
    aac4:	2520dae3          	bge	ra,s2,b518 <.LBB101_1368>

000000000000aac8 <.LBB101_1112>:
    aac8:	d2043083          	ld	ra,-736(s0)
    aacc:	2520dee3          	bge	ra,s2,b528 <.LBB101_1369>

000000000000aad0 <.LBB101_1113>:
    aad0:	d2843083          	ld	ra,-728(s0)
    aad4:	2720d2e3          	bge	ra,s2,b538 <.LBB101_1370>

000000000000aad8 <.LBB101_1114>:
    aad8:	d3043083          	ld	ra,-720(s0)
    aadc:	2720d6e3          	bge	ra,s2,b548 <.LBB101_1371>

000000000000aae0 <.LBB101_1115>:
    aae0:	d4043083          	ld	ra,-704(s0)
    aae4:	2720dae3          	bge	ra,s2,b558 <.LBB101_1372>

000000000000aae8 <.LBB101_1116>:
    aae8:	d5043083          	ld	ra,-688(s0)
    aaec:	2720dee3          	bge	ra,s2,b568 <.LBB101_1373>

000000000000aaf0 <.LBB101_1117>:
    aaf0:	d6843083          	ld	ra,-664(s0)
    aaf4:	2920d2e3          	bge	ra,s2,b578 <.LBB101_1374>

000000000000aaf8 <.LBB101_1118>:
    aaf8:	d7843083          	ld	ra,-648(s0)
    aafc:	2920d6e3          	bge	ra,s2,b588 <.LBB101_1375>

000000000000ab00 <.LBB101_1119>:
    ab00:	d8843083          	ld	ra,-632(s0)
    ab04:	2920dae3          	bge	ra,s2,b598 <.LBB101_1376>

000000000000ab08 <.LBB101_1120>:
    ab08:	d9843083          	ld	ra,-616(s0)
    ab0c:	2920dee3          	bge	ra,s2,b5a8 <.LBB101_1377>

000000000000ab10 <.LBB101_1121>:
    ab10:	da843083          	ld	ra,-600(s0)
    ab14:	2b20d2e3          	bge	ra,s2,b5b8 <.LBB101_1378>

000000000000ab18 <.LBB101_1122>:
    ab18:	db843083          	ld	ra,-584(s0)
    ab1c:	2b20d6e3          	bge	ra,s2,b5c8 <.LBB101_1379>

000000000000ab20 <.LBB101_1123>:
    ab20:	dc843083          	ld	ra,-568(s0)
    ab24:	2b20dae3          	bge	ra,s2,b5d8 <.LBB101_1380>

000000000000ab28 <.LBB101_1124>:
    ab28:	dd843083          	ld	ra,-552(s0)
    ab2c:	2b20dee3          	bge	ra,s2,b5e8 <.LBB101_1381>

000000000000ab30 <.LBB101_1125>:
    ab30:	b3843083          	ld	ra,-1224(s0)
    ab34:	2d20d2e3          	bge	ra,s2,b5f8 <.LBB101_1382>

000000000000ab38 <.LBB101_1126>:
    ab38:	b4843083          	ld	ra,-1208(s0)
    ab3c:	2d20d6e3          	bge	ra,s2,b608 <.LBB101_1383>

000000000000ab40 <.LBB101_1127>:
    ab40:	b5843083          	ld	ra,-1192(s0)
    ab44:	2d20dae3          	bge	ra,s2,b618 <.LBB101_1384>

000000000000ab48 <.LBB101_1128>:
    ab48:	b6843083          	ld	ra,-1176(s0)
    ab4c:	2d20dee3          	bge	ra,s2,b628 <.LBB101_1385>

000000000000ab50 <.LBB101_1129>:
    ab50:	b7843083          	ld	ra,-1160(s0)
    ab54:	2f20d2e3          	bge	ra,s2,b638 <.LBB101_1386>

000000000000ab58 <.LBB101_1130>:
    ab58:	b8843083          	ld	ra,-1144(s0)
    ab5c:	2f20d6e3          	bge	ra,s2,b648 <.LBB101_1387>

000000000000ab60 <.LBB101_1131>:
    ab60:	b9843083          	ld	ra,-1128(s0)
    ab64:	2f20dae3          	bge	ra,s2,b658 <.LBB101_1388>

000000000000ab68 <.LBB101_1132>:
    ab68:	ba843083          	ld	ra,-1112(s0)
    ab6c:	2f20dee3          	bge	ra,s2,b668 <.LBB101_1389>

000000000000ab70 <.LBB101_1133>:
    ab70:	bb843083          	ld	ra,-1096(s0)
    ab74:	3120d2e3          	bge	ra,s2,b678 <.LBB101_1390>

000000000000ab78 <.LBB101_1134>:
    ab78:	bc843083          	ld	ra,-1080(s0)
    ab7c:	3120d6e3          	bge	ra,s2,b688 <.LBB101_1391>

000000000000ab80 <.LBB101_1135>:
    ab80:	bd843083          	ld	ra,-1064(s0)
    ab84:	3120dae3          	bge	ra,s2,b698 <.LBB101_1392>

000000000000ab88 <.LBB101_1136>:
    ab88:	be043083          	ld	ra,-1056(s0)
    ab8c:	3120dee3          	bge	ra,s2,b6a8 <.LBB101_1393>

000000000000ab90 <.LBB101_1137>:
    ab90:	be843083          	ld	ra,-1048(s0)
    ab94:	3320d2e3          	bge	ra,s2,b6b8 <.LBB101_1394>

000000000000ab98 <.LBB101_1138>:
    ab98:	bf043083          	ld	ra,-1040(s0)
    ab9c:	3320d6e3          	bge	ra,s2,b6c8 <.LBB101_1395>

000000000000aba0 <.LBB101_1139>:
    aba0:	bf843083          	ld	ra,-1032(s0)
    aba4:	3320dae3          	bge	ra,s2,b6d8 <.LBB101_1396>

000000000000aba8 <.LBB101_1140>:
    aba8:	c0043083          	ld	ra,-1024(s0)
    abac:	3320dee3          	bge	ra,s2,b6e8 <.LBB101_1397>

000000000000abb0 <.LBB101_1141>:
    abb0:	c0843083          	ld	ra,-1016(s0)
    abb4:	3520d2e3          	bge	ra,s2,b6f8 <.LBB101_1398>

000000000000abb8 <.LBB101_1142>:
    abb8:	c1043083          	ld	ra,-1008(s0)
    abbc:	3520d6e3          	bge	ra,s2,b708 <.LBB101_1399>

000000000000abc0 <.LBB101_1143>:
    abc0:	c1843083          	ld	ra,-1000(s0)
    abc4:	3520dae3          	bge	ra,s2,b718 <.LBB101_1400>

000000000000abc8 <.LBB101_1144>:
    abc8:	c2043083          	ld	ra,-992(s0)
    abcc:	3520dee3          	bge	ra,s2,b728 <.LBB101_1401>

000000000000abd0 <.LBB101_1145>:
    abd0:	c2843083          	ld	ra,-984(s0)
    abd4:	3720d2e3          	bge	ra,s2,b738 <.LBB101_1402>

000000000000abd8 <.LBB101_1146>:
    abd8:	c3043083          	ld	ra,-976(s0)
    abdc:	3720d6e3          	bge	ra,s2,b748 <.LBB101_1403>

000000000000abe0 <.LBB101_1147>:
    abe0:	c4043083          	ld	ra,-960(s0)
    abe4:	3720dae3          	bge	ra,s2,b758 <.LBB101_1404>

000000000000abe8 <.LBB101_1148>:
    abe8:	c5043083          	ld	ra,-944(s0)
    abec:	3720dee3          	bge	ra,s2,b768 <.LBB101_1405>

000000000000abf0 <.LBB101_1149>:
    abf0:	c6043083          	ld	ra,-928(s0)
    abf4:	3920d2e3          	bge	ra,s2,b778 <.LBB101_1406>

000000000000abf8 <.LBB101_1150>:
    abf8:	c7043083          	ld	ra,-912(s0)
    abfc:	3920d6e3          	bge	ra,s2,b788 <.LBB101_1407>

000000000000ac00 <.LBB101_1151>:
    ac00:	c8043083          	ld	ra,-896(s0)
    ac04:	3920dae3          	bge	ra,s2,b798 <.LBB101_1408>

000000000000ac08 <.LBB101_1152>:
    ac08:	c9043083          	ld	ra,-880(s0)
    ac0c:	3920dee3          	bge	ra,s2,b7a8 <.LBB101_1409>

000000000000ac10 <.LBB101_1153>:
    ac10:	ca043083          	ld	ra,-864(s0)
    ac14:	3b20d2e3          	bge	ra,s2,b7b8 <.LBB101_1410>

000000000000ac18 <.LBB101_1154>:
    ac18:	cb043083          	ld	ra,-848(s0)
    ac1c:	3b20d6e3          	bge	ra,s2,b7c8 <.LBB101_1411>

000000000000ac20 <.LBB101_1155>:
    ac20:	cc043083          	ld	ra,-832(s0)
    ac24:	3b20dae3          	bge	ra,s2,b7d8 <.LBB101_1412>

000000000000ac28 <.LBB101_1156>:
    ac28:	cd043083          	ld	ra,-816(s0)
    ac2c:	3b20dee3          	bge	ra,s2,b7e8 <.LBB101_1413>

000000000000ac30 <.LBB101_1157>:
    ac30:	a3843083          	ld	ra,-1480(s0)
    ac34:	3d20d2e3          	bge	ra,s2,b7f8 <.LBB101_1414>

000000000000ac38 <.LBB101_1158>:
    ac38:	a4843083          	ld	ra,-1464(s0)
    ac3c:	3d20d6e3          	bge	ra,s2,b808 <.LBB101_1415>

000000000000ac40 <.LBB101_1159>:
    ac40:	a5843083          	ld	ra,-1448(s0)
    ac44:	3d20dae3          	bge	ra,s2,b818 <.LBB101_1416>

000000000000ac48 <.LBB101_1160>:
    ac48:	a6843083          	ld	ra,-1432(s0)
    ac4c:	3d20dee3          	bge	ra,s2,b828 <.LBB101_1417>

000000000000ac50 <.LBB101_1161>:
    ac50:	a7843083          	ld	ra,-1416(s0)
    ac54:	3f20d2e3          	bge	ra,s2,b838 <.LBB101_1418>

000000000000ac58 <.LBB101_1162>:
    ac58:	a8843083          	ld	ra,-1400(s0)
    ac5c:	3f20d6e3          	bge	ra,s2,b848 <.LBB101_1419>

000000000000ac60 <.LBB101_1163>:
    ac60:	a9843083          	ld	ra,-1384(s0)
    ac64:	3f20dae3          	bge	ra,s2,b858 <.LBB101_1420>

000000000000ac68 <.LBB101_1164>:
    ac68:	aa843083          	ld	ra,-1368(s0)
    ac6c:	3f20dee3          	bge	ra,s2,b868 <.LBB101_1421>

000000000000ac70 <.LBB101_1165>:
    ac70:	ab843083          	ld	ra,-1352(s0)
    ac74:	4120d2e3          	bge	ra,s2,b878 <.LBB101_1422>

000000000000ac78 <.LBB101_1166>:
    ac78:	ac843083          	ld	ra,-1336(s0)
    ac7c:	4120d6e3          	bge	ra,s2,b888 <.LBB101_1423>

000000000000ac80 <.LBB101_1167>:
    ac80:	ad843083          	ld	ra,-1320(s0)
    ac84:	4120dae3          	bge	ra,s2,b898 <.LBB101_1424>

000000000000ac88 <.LBB101_1168>:
    ac88:	ae043083          	ld	ra,-1312(s0)
    ac8c:	4120dee3          	bge	ra,s2,b8a8 <.LBB101_1425>

000000000000ac90 <.LBB101_1169>:
    ac90:	ae843083          	ld	ra,-1304(s0)
    ac94:	4320d2e3          	bge	ra,s2,b8b8 <.LBB101_1426>

000000000000ac98 <.LBB101_1170>:
    ac98:	af043083          	ld	ra,-1296(s0)
    ac9c:	4320d6e3          	bge	ra,s2,b8c8 <.LBB101_1427>

000000000000aca0 <.LBB101_1171>:
    aca0:	af843083          	ld	ra,-1288(s0)
    aca4:	4320dae3          	bge	ra,s2,b8d8 <.LBB101_1428>

000000000000aca8 <.LBB101_1172>:
    aca8:	b0043083          	ld	ra,-1280(s0)
    acac:	4320dee3          	bge	ra,s2,b8e8 <.LBB101_1429>

000000000000acb0 <.LBB101_1173>:
    acb0:	b0843083          	ld	ra,-1272(s0)
    acb4:	4520d2e3          	bge	ra,s2,b8f8 <.LBB101_1430>

000000000000acb8 <.LBB101_1174>:
    acb8:	b1043083          	ld	ra,-1264(s0)
    acbc:	4520d6e3          	bge	ra,s2,b908 <.LBB101_1431>

000000000000acc0 <.LBB101_1175>:
    acc0:	b1843083          	ld	ra,-1256(s0)
    acc4:	4520dae3          	bge	ra,s2,b918 <.LBB101_1432>

000000000000acc8 <.LBB101_1176>:
    acc8:	b2043083          	ld	ra,-1248(s0)
    accc:	4520dee3          	bge	ra,s2,b928 <.LBB101_1433>

000000000000acd0 <.LBB101_1177>:
    acd0:	b2843083          	ld	ra,-1240(s0)
    acd4:	4720d2e3          	bge	ra,s2,b938 <.LBB101_1434>

000000000000acd8 <.LBB101_1178>:
    acd8:	b3043083          	ld	ra,-1232(s0)
    acdc:	4720d6e3          	bge	ra,s2,b948 <.LBB101_1435>

000000000000ace0 <.LBB101_1179>:
    ace0:	b4043083          	ld	ra,-1216(s0)
    ace4:	4720dae3          	bge	ra,s2,b958 <.LBB101_1436>

000000000000ace8 <.LBB101_1180>:
    ace8:	b5043083          	ld	ra,-1200(s0)
    acec:	4720dee3          	bge	ra,s2,b968 <.LBB101_1437>

000000000000acf0 <.LBB101_1181>:
    acf0:	b6043083          	ld	ra,-1184(s0)
    acf4:	4920d2e3          	bge	ra,s2,b978 <.LBB101_1438>

000000000000acf8 <.LBB101_1182>:
    acf8:	b7043083          	ld	ra,-1168(s0)
    acfc:	4920d6e3          	bge	ra,s2,b988 <.LBB101_1439>

000000000000ad00 <.LBB101_1183>:
    ad00:	b8043083          	ld	ra,-1152(s0)
    ad04:	4920dae3          	bge	ra,s2,b998 <.LBB101_1440>

000000000000ad08 <.LBB101_1184>:
    ad08:	b9043083          	ld	ra,-1136(s0)
    ad0c:	4920dee3          	bge	ra,s2,b9a8 <.LBB101_1441>

000000000000ad10 <.LBB101_1185>:
    ad10:	ba043083          	ld	ra,-1120(s0)
    ad14:	4b20d2e3          	bge	ra,s2,b9b8 <.LBB101_1442>

000000000000ad18 <.LBB101_1186>:
    ad18:	bb043083          	ld	ra,-1104(s0)
    ad1c:	4b20d6e3          	bge	ra,s2,b9c8 <.LBB101_1443>

000000000000ad20 <.LBB101_1187>:
    ad20:	bc043083          	ld	ra,-1088(s0)
    ad24:	4b20dae3          	bge	ra,s2,b9d8 <.LBB101_1444>

000000000000ad28 <.LBB101_1188>:
    ad28:	bd043083          	ld	ra,-1072(s0)
    ad2c:	4b20dee3          	bge	ra,s2,b9e8 <.LBB101_1445>

000000000000ad30 <.LBB101_1189>:
    ad30:	9b843083          	ld	ra,-1608(s0)
    ad34:	4d20d2e3          	bge	ra,s2,b9f8 <.LBB101_1446>

000000000000ad38 <.LBB101_1190>:
    ad38:	4d29d6e3          	bge	s3,s2,ba04 <.LBB101_1447>

000000000000ad3c <.LBB101_1191>:
    ad3c:	4d2d58e3          	bge	s10,s2,ba0c <.LBB101_1448>

000000000000ad40 <.LBB101_1192>:
    ad40:	4d2c5ae3          	bge	s8,s2,ba14 <.LBB101_1449>

000000000000ad44 <.LBB101_1193>:
    ad44:	4d2a5ce3          	bge	s4,s2,ba1c <.LBB101_1450>

000000000000ad48 <.LBB101_1194>:
    ad48:	4d24dee3          	bge	s1,s2,ba24 <.LBB101_1451>

000000000000ad4c <.LBB101_1195>:
    ad4c:	4f26d0e3          	bge	a3,s2,ba2c <.LBB101_1452>

000000000000ad50 <.LBB101_1196>:
    ad50:	4f22d2e3          	bge	t0,s2,ba34 <.LBB101_1453>

000000000000ad54 <.LBB101_1197>:
    ad54:	4f2ed4e3          	bge	t4,s2,ba3c <.LBB101_1454>

000000000000ad58 <.LBB101_1198>:
    ad58:	9c843083          	ld	ra,-1592(s0)
    ad5c:	4f20d6e3          	bge	ra,s2,ba48 <.LBB101_1455>

000000000000ad60 <.LBB101_1199>:
    ad60:	9d843083          	ld	ra,-1576(s0)
    ad64:	4f20dae3          	bge	ra,s2,ba58 <.LBB101_1456>

000000000000ad68 <.LBB101_1200>:
    ad68:	9e043083          	ld	ra,-1568(s0)
    ad6c:	4f20dee3          	bge	ra,s2,ba68 <.LBB101_1457>

000000000000ad70 <.LBB101_1201>:
    ad70:	9e843083          	ld	ra,-1560(s0)
    ad74:	5120d2e3          	bge	ra,s2,ba78 <.LBB101_1458>

000000000000ad78 <.LBB101_1202>:
    ad78:	9f043083          	ld	ra,-1552(s0)
    ad7c:	5120d6e3          	bge	ra,s2,ba88 <.LBB101_1459>

000000000000ad80 <.LBB101_1203>:
    ad80:	9f843083          	ld	ra,-1544(s0)
    ad84:	5120dae3          	bge	ra,s2,ba98 <.LBB101_1460>

000000000000ad88 <.LBB101_1204>:
    ad88:	a0043083          	ld	ra,-1536(s0)
    ad8c:	5120dee3          	bge	ra,s2,baa8 <.LBB101_1461>

000000000000ad90 <.LBB101_1205>:
    ad90:	a0843083          	ld	ra,-1528(s0)
    ad94:	5320d2e3          	bge	ra,s2,bab8 <.LBB101_1462>

000000000000ad98 <.LBB101_1206>:
    ad98:	a1043083          	ld	ra,-1520(s0)
    ad9c:	5320d6e3          	bge	ra,s2,bac8 <.LBB101_1463>

000000000000ada0 <.LBB101_1207>:
    ada0:	a1843083          	ld	ra,-1512(s0)
    ada4:	5320dae3          	bge	ra,s2,bad8 <.LBB101_1464>

000000000000ada8 <.LBB101_1208>:
    ada8:	a2043083          	ld	ra,-1504(s0)
    adac:	5320dee3          	bge	ra,s2,bae8 <.LBB101_1465>

000000000000adb0 <.LBB101_1209>:
    adb0:	a2843083          	ld	ra,-1496(s0)
    adb4:	5520d2e3          	bge	ra,s2,baf8 <.LBB101_1466>

000000000000adb8 <.LBB101_1210>:
    adb8:	a3043083          	ld	ra,-1488(s0)
    adbc:	5520d6e3          	bge	ra,s2,bb08 <.LBB101_1467>

000000000000adc0 <.LBB101_1211>:
    adc0:	a4043083          	ld	ra,-1472(s0)
    adc4:	5520dae3          	bge	ra,s2,bb18 <.LBB101_1468>

000000000000adc8 <.LBB101_1212>:
    adc8:	a5043083          	ld	ra,-1456(s0)
    adcc:	5520dee3          	bge	ra,s2,bb28 <.LBB101_1469>

000000000000add0 <.LBB101_1213>:
    add0:	a6043083          	ld	ra,-1440(s0)
    add4:	5720d2e3          	bge	ra,s2,bb38 <.LBB101_1470>

000000000000add8 <.LBB101_1214>:
    add8:	a7043083          	ld	ra,-1424(s0)
    addc:	5720d6e3          	bge	ra,s2,bb48 <.LBB101_1471>

000000000000ade0 <.LBB101_1215>:
    ade0:	a8043083          	ld	ra,-1408(s0)
    ade4:	5720dae3          	bge	ra,s2,bb58 <.LBB101_1472>

000000000000ade8 <.LBB101_1216>:
    ade8:	a9043083          	ld	ra,-1392(s0)
    adec:	5720dee3          	bge	ra,s2,bb68 <.LBB101_1473>

000000000000adf0 <.LBB101_1217>:
    adf0:	aa043083          	ld	ra,-1376(s0)
    adf4:	5920d2e3          	bge	ra,s2,bb78 <.LBB101_1474>

000000000000adf8 <.LBB101_1218>:
    adf8:	ab043083          	ld	ra,-1360(s0)
    adfc:	5920d6e3          	bge	ra,s2,bb88 <.LBB101_1475>

000000000000ae00 <.LBB101_1219>:
    ae00:	ac043083          	ld	ra,-1344(s0)
    ae04:	5920dae3          	bge	ra,s2,bb98 <.LBB101_1476>

000000000000ae08 <.LBB101_1220>:
    ae08:	ad043083          	ld	ra,-1328(s0)
    ae0c:	5920dee3          	bge	ra,s2,bba8 <.LBB101_1477>

000000000000ae10 <.LBB101_1221>:
    ae10:	8b843083          	ld	ra,-1864(s0)
    ae14:	5b20d2e3          	bge	ra,s2,bbb8 <.LBB101_1478>

000000000000ae18 <.LBB101_1222>:
    ae18:	8c843083          	ld	ra,-1848(s0)
    ae1c:	5b20d6e3          	bge	ra,s2,bbc8 <.LBB101_1479>

000000000000ae20 <.LBB101_1223>:
    ae20:	8d843083          	ld	ra,-1832(s0)
    ae24:	5b20dae3          	bge	ra,s2,bbd8 <.LBB101_1480>

000000000000ae28 <.LBB101_1224>:
    ae28:	8e843083          	ld	ra,-1816(s0)
    ae2c:	5b20dee3          	bge	ra,s2,bbe8 <.LBB101_1481>

000000000000ae30 <.LBB101_1225>:
    ae30:	8f843083          	ld	ra,-1800(s0)
    ae34:	5d20d2e3          	bge	ra,s2,bbf8 <.LBB101_1482>

000000000000ae38 <.LBB101_1226>:
    ae38:	90843083          	ld	ra,-1784(s0)
    ae3c:	5d20d6e3          	bge	ra,s2,bc08 <.LBB101_1483>

000000000000ae40 <.LBB101_1227>:
    ae40:	91843083          	ld	ra,-1768(s0)
    ae44:	5d20dae3          	bge	ra,s2,bc18 <.LBB101_1484>

000000000000ae48 <.LBB101_1228>:
    ae48:	92843083          	ld	ra,-1752(s0)
    ae4c:	5d20dee3          	bge	ra,s2,bc28 <.LBB101_1485>

000000000000ae50 <.LBB101_1229>:
    ae50:	93843083          	ld	ra,-1736(s0)
    ae54:	5f20d2e3          	bge	ra,s2,bc38 <.LBB101_1486>

000000000000ae58 <.LBB101_1230>:
    ae58:	94843083          	ld	ra,-1720(s0)
    ae5c:	5f20d6e3          	bge	ra,s2,bc48 <.LBB101_1487>

000000000000ae60 <.LBB101_1231>:
    ae60:	95843083          	ld	ra,-1704(s0)
    ae64:	5f20dae3          	bge	ra,s2,bc58 <.LBB101_1488>

000000000000ae68 <.LBB101_1232>:
    ae68:	96043083          	ld	ra,-1696(s0)
    ae6c:	5f20dee3          	bge	ra,s2,bc68 <.LBB101_1489>

000000000000ae70 <.LBB101_1233>:
    ae70:	96843083          	ld	ra,-1688(s0)
    ae74:	6120d2e3          	bge	ra,s2,bc78 <.LBB101_1490>

000000000000ae78 <.LBB101_1234>:
    ae78:	97043083          	ld	ra,-1680(s0)
    ae7c:	6120d6e3          	bge	ra,s2,bc88 <.LBB101_1491>

000000000000ae80 <.LBB101_1235>:
    ae80:	97843083          	ld	ra,-1672(s0)
    ae84:	6120dae3          	bge	ra,s2,bc98 <.LBB101_1492>

000000000000ae88 <.LBB101_1236>:
    ae88:	98043083          	ld	ra,-1664(s0)
    ae8c:	6120dee3          	bge	ra,s2,bca8 <.LBB101_1493>

000000000000ae90 <.LBB101_1237>:
    ae90:	98843083          	ld	ra,-1656(s0)
    ae94:	6320d2e3          	bge	ra,s2,bcb8 <.LBB101_1494>

000000000000ae98 <.LBB101_1238>:
    ae98:	99043083          	ld	ra,-1648(s0)
    ae9c:	6320d6e3          	bge	ra,s2,bcc8 <.LBB101_1495>

000000000000aea0 <.LBB101_1239>:
    aea0:	99843083          	ld	ra,-1640(s0)
    aea4:	6320dae3          	bge	ra,s2,bcd8 <.LBB101_1496>

000000000000aea8 <.LBB101_1240>:
    aea8:	9a043083          	ld	ra,-1632(s0)
    aeac:	6320dee3          	bge	ra,s2,bce8 <.LBB101_1497>

000000000000aeb0 <.LBB101_1241>:
    aeb0:	9a843083          	ld	ra,-1624(s0)
    aeb4:	6520d2e3          	bge	ra,s2,bcf8 <.LBB101_1498>

000000000000aeb8 <.LBB101_1242>:
    aeb8:	9b043083          	ld	ra,-1616(s0)
    aebc:	6520d6e3          	bge	ra,s2,bd08 <.LBB101_1499>

000000000000aec0 <.LBB101_1243>:
    aec0:	652ddae3          	bge	s11,s2,bd14 <.LBB101_1500>

000000000000aec4 <.LBB101_1244>:
    aec4:	652fdce3          	bge	t6,s2,bd1c <.LBB101_1501>

000000000000aec8 <.LBB101_1245>:
    aec8:	6528dee3          	bge	a7,s2,bd24 <.LBB101_1502>

000000000000aecc <.LBB101_1246>:
    aecc:	672bd0e3          	bge	s7,s2,bd2c <.LBB101_1503>

000000000000aed0 <.LBB101_1247>:
    aed0:	672e52e3          	bge	t3,s2,bd34 <.LBB101_1504>

000000000000aed4 <.LBB101_1248>:
    aed4:	6723d4e3          	bge	t2,s2,bd3c <.LBB101_1505>

000000000000aed8 <.LBB101_1249>:
    aed8:	672356e3          	bge	t1,s2,bd44 <.LBB101_1506>

000000000000aedc <.LBB101_1250>:
    aedc:	84843c83          	ld	s9,-1976(s0)
    aee0:	672cd8e3          	bge	s9,s2,bd50 <.LBB101_1507>

000000000000aee4 <.LBB101_1251>:
    aee4:	9c043083          	ld	ra,-1600(s0)
    aee8:	6720dce3          	bge	ra,s2,bd60 <.LBB101_1508>

000000000000aeec <.LBB101_1252>:
    aeec:	9d043083          	ld	ra,-1584(s0)
    aef0:	6920d0e3          	bge	ra,s2,bd70 <.LBB101_1509>

000000000000aef4 <.LBB101_1253>:
    aef4:	6927d4e3          	bge	a5,s2,bd7c <.LBB101_1510>

000000000000aef8 <.LBB101_1254>:
    aef8:	692f56e3          	bge	t5,s2,bd84 <.LBB101_1511>

000000000000aefc <.LBB101_1255>:
    aefc:	692858e3          	bge	a6,s2,bd8c <.LBB101_1512>

000000000000af00 <.LBB101_1256>:
    af00:	69265ae3          	bge	a2,s2,bd94 <.LBB101_1513>

000000000000af04 <.LBB101_1257>:
    af04:	69275ce3          	bge	a4,s2,bd9c <.LBB101_1514>

000000000000af08 <.LBB101_1258>:
    af08:	6925dee3          	bge	a1,s2,bda4 <.LBB101_1515>

000000000000af0c <.LBB101_1259>:
    af0c:	6b2b50e3          	bge	s6,s2,bdac <.LBB101_1516>

000000000000af10 <.LBB101_1260>:
    af10:	6b2ad2e3          	bge	s5,s2,bdb4 <.LBB101_1517>

000000000000af14 <.LBB101_1261>:
    af14:	6b2554e3          	bge	a0,s2,bdbc <.LBB101_1518>

000000000000af18 <.LBB101_1262>:
    af18:	85043083          	ld	ra,-1968(s0)
    af1c:	6b20d6e3          	bge	ra,s2,bdc8 <.LBB101_1519>

000000000000af20 <.LBB101_1263>:
    af20:	85843083          	ld	ra,-1960(s0)
    af24:	6b20dae3          	bge	ra,s2,bdd8 <.LBB101_1520>

000000000000af28 <.LBB101_1264>:
    af28:	86043083          	ld	ra,-1952(s0)
    af2c:	6b20dee3          	bge	ra,s2,bde8 <.LBB101_1521>

000000000000af30 <.LBB101_1265>:
    af30:	86843083          	ld	ra,-1944(s0)
    af34:	6d20d2e3          	bge	ra,s2,bdf8 <.LBB101_1522>

000000000000af38 <.LBB101_1266>:
    af38:	87043083          	ld	ra,-1936(s0)
    af3c:	6d20d6e3          	bge	ra,s2,be08 <.LBB101_1523>

000000000000af40 <.LBB101_1267>:
    af40:	87843083          	ld	ra,-1928(s0)
    af44:	6d20dae3          	bge	ra,s2,be18 <.LBB101_1524>

000000000000af48 <.LBB101_1268>:
    af48:	88043083          	ld	ra,-1920(s0)
    af4c:	6d20dee3          	bge	ra,s2,be28 <.LBB101_1525>

000000000000af50 <.LBB101_1269>:
    af50:	88843083          	ld	ra,-1912(s0)
    af54:	6f20d2e3          	bge	ra,s2,be38 <.LBB101_1526>

000000000000af58 <.LBB101_1270>:
    af58:	89043083          	ld	ra,-1904(s0)
    af5c:	6f20d6e3          	bge	ra,s2,be48 <.LBB101_1527>

000000000000af60 <.LBB101_1271>:
    af60:	89843083          	ld	ra,-1896(s0)
    af64:	6f20dae3          	bge	ra,s2,be58 <.LBB101_1528>

000000000000af68 <.LBB101_1272>:
    af68:	8a043083          	ld	ra,-1888(s0)
    af6c:	6f20dee3          	bge	ra,s2,be68 <.LBB101_1529>

000000000000af70 <.LBB101_1273>:
    af70:	8a843083          	ld	ra,-1880(s0)
    af74:	7120d2e3          	bge	ra,s2,be78 <.LBB101_1530>

000000000000af78 <.LBB101_1274>:
    af78:	8b043083          	ld	ra,-1872(s0)
    af7c:	7120d6e3          	bge	ra,s2,be88 <.LBB101_1531>

000000000000af80 <.LBB101_1275>:
    af80:	8c043083          	ld	ra,-1856(s0)
    af84:	7120dae3          	bge	ra,s2,be98 <.LBB101_1532>

000000000000af88 <.LBB101_1276>:
    af88:	8d043083          	ld	ra,-1840(s0)
    af8c:	7120dee3          	bge	ra,s2,bea8 <.LBB101_1533>

000000000000af90 <.LBB101_1277>:
    af90:	8e043083          	ld	ra,-1824(s0)
    af94:	7320d2e3          	bge	ra,s2,beb8 <.LBB101_1534>

000000000000af98 <.LBB101_1278>:
    af98:	8f043083          	ld	ra,-1808(s0)
    af9c:	7320d6e3          	bge	ra,s2,bec8 <.LBB101_1535>

000000000000afa0 <.LBB101_1279>:
    afa0:	90043083          	ld	ra,-1792(s0)
    afa4:	7320dae3          	bge	ra,s2,bed8 <.LBB101_1536>

000000000000afa8 <.LBB101_1280>:
    afa8:	91043083          	ld	ra,-1776(s0)
    afac:	7320dee3          	bge	ra,s2,bee8 <.LBB101_1537>

000000000000afb0 <.LBB101_1281>:
    afb0:	92043083          	ld	ra,-1760(s0)
    afb4:	7520d2e3          	bge	ra,s2,bef8 <.LBB101_1538>

000000000000afb8 <.LBB101_1282>:
    afb8:	93043083          	ld	ra,-1744(s0)
    afbc:	7520d6e3          	bge	ra,s2,bf08 <.LBB101_1539>

000000000000afc0 <.LBB101_1283>:
    afc0:	00050c93          	mv	s9,a0
    afc4:	94043083          	ld	ra,-1728(s0)
    afc8:	7520dae3          	bge	ra,s2,bf1c <.LBB101_1540>

000000000000afcc <.LBB101_1284>:
    afcc:	000e8513          	mv	a0,t4
    afd0:	95043083          	ld	ra,-1712(s0)
    afd4:	7720d0e3          	bge	ra,s2,bf34 <.LBB101_1541>
    afd8:	a7cf506f          	j	254 <.LBB101_3>

000000000000afdc <.LBB101_1285>:
    afdc:	f7e00793          	li	a5,-130
    afe0:	07d00913          	li	s2,125
    afe4:	d6043083          	ld	ra,-672(s0)
    afe8:	84043e83          	ld	t4,-1984(s0)
    afec:	8520c2e3          	blt	ra,s2,a830 <.LBB101_1030>

000000000000aff0 <.LBB101_1286>:
    aff0:	07d00093          	li	ra,125
    aff4:	d6143023          	sd	ra,-672(s0)
    aff8:	e4843083          	ld	ra,-440(s0)
    affc:	85143423          	sd	a7,-1976(s0)
    b000:	000c8893          	mv	a7,s9
    b004:	8320cee3          	blt	ra,s2,a840 <.LBB101_1031>

000000000000b008 <.LBB101_1287>:
    b008:	07d00093          	li	ra,125
    b00c:	e4143423          	sd	ra,-440(s0)
    b010:	e5843083          	ld	ra,-424(s0)
    b014:	8320cae3          	blt	ra,s2,a848 <.LBB101_1032>

000000000000b018 <.LBB101_1288>:
    b018:	07d00093          	li	ra,125
    b01c:	e4143c23          	sd	ra,-424(s0)
    b020:	e7043083          	ld	ra,-400(s0)
    b024:	8320c6e3          	blt	ra,s2,a850 <.LBB101_1033>

000000000000b028 <.LBB101_1289>:
    b028:	07d00093          	li	ra,125
    b02c:	e6143823          	sd	ra,-400(s0)
    b030:	e8043083          	ld	ra,-384(s0)
    b034:	8320c2e3          	blt	ra,s2,a858 <.LBB101_1034>

000000000000b038 <.LBB101_1290>:
    b038:	07d00093          	li	ra,125
    b03c:	e8143023          	sd	ra,-384(s0)
    b040:	e9043083          	ld	ra,-368(s0)
    b044:	8120cee3          	blt	ra,s2,a860 <.LBB101_1035>

000000000000b048 <.LBB101_1291>:
    b048:	07d00093          	li	ra,125
    b04c:	e8143823          	sd	ra,-368(s0)
    b050:	ea043083          	ld	ra,-352(s0)
    b054:	8120cae3          	blt	ra,s2,a868 <.LBB101_1036>

000000000000b058 <.LBB101_1292>:
    b058:	07d00093          	li	ra,125
    b05c:	ea143023          	sd	ra,-352(s0)
    b060:	eb043083          	ld	ra,-336(s0)
    b064:	8120c6e3          	blt	ra,s2,a870 <.LBB101_1037>

000000000000b068 <.LBB101_1293>:
    b068:	07d00093          	li	ra,125
    b06c:	ea143823          	sd	ra,-336(s0)
    b070:	ec043083          	ld	ra,-320(s0)
    b074:	8120c2e3          	blt	ra,s2,a878 <.LBB101_1038>

000000000000b078 <.LBB101_1294>:
    b078:	07d00093          	li	ra,125
    b07c:	ec143023          	sd	ra,-320(s0)
    b080:	ed043083          	ld	ra,-304(s0)
    b084:	ff20ce63          	blt	ra,s2,a880 <.LBB101_1039>

000000000000b088 <.LBB101_1295>:
    b088:	07d00093          	li	ra,125
    b08c:	ec143823          	sd	ra,-304(s0)
    b090:	ee043083          	ld	ra,-288(s0)
    b094:	ff20ca63          	blt	ra,s2,a888 <.LBB101_1040>

000000000000b098 <.LBB101_1296>:
    b098:	07d00093          	li	ra,125
    b09c:	ee143023          	sd	ra,-288(s0)
    b0a0:	ee843083          	ld	ra,-280(s0)
    b0a4:	ff20c663          	blt	ra,s2,a890 <.LBB101_1041>

000000000000b0a8 <.LBB101_1297>:
    b0a8:	07d00093          	li	ra,125
    b0ac:	ee143423          	sd	ra,-280(s0)
    b0b0:	ef043083          	ld	ra,-272(s0)
    b0b4:	ff20c263          	blt	ra,s2,a898 <.LBB101_1042>

000000000000b0b8 <.LBB101_1298>:
    b0b8:	07d00093          	li	ra,125
    b0bc:	ee143823          	sd	ra,-272(s0)
    b0c0:	ef843083          	ld	ra,-264(s0)
    b0c4:	fd20ce63          	blt	ra,s2,a8a0 <.LBB101_1043>

000000000000b0c8 <.LBB101_1299>:
    b0c8:	07d00093          	li	ra,125
    b0cc:	ee143c23          	sd	ra,-264(s0)
    b0d0:	f0043083          	ld	ra,-256(s0)
    b0d4:	fd20ca63          	blt	ra,s2,a8a8 <.LBB101_1044>

000000000000b0d8 <.LBB101_1300>:
    b0d8:	07d00093          	li	ra,125
    b0dc:	f0143023          	sd	ra,-256(s0)
    b0e0:	f0843083          	ld	ra,-248(s0)
    b0e4:	fd20c663          	blt	ra,s2,a8b0 <.LBB101_1045>

000000000000b0e8 <.LBB101_1301>:
    b0e8:	07d00093          	li	ra,125
    b0ec:	f0143423          	sd	ra,-248(s0)
    b0f0:	f1043083          	ld	ra,-240(s0)
    b0f4:	fd20c263          	blt	ra,s2,a8b8 <.LBB101_1046>

000000000000b0f8 <.LBB101_1302>:
    b0f8:	07d00093          	li	ra,125
    b0fc:	f0143823          	sd	ra,-240(s0)
    b100:	f1843083          	ld	ra,-232(s0)
    b104:	fb20ce63          	blt	ra,s2,a8c0 <.LBB101_1047>

000000000000b108 <.LBB101_1303>:
    b108:	07d00093          	li	ra,125
    b10c:	f0143c23          	sd	ra,-232(s0)
    b110:	f2043083          	ld	ra,-224(s0)
    b114:	fb20ca63          	blt	ra,s2,a8c8 <.LBB101_1048>

000000000000b118 <.LBB101_1304>:
    b118:	07d00093          	li	ra,125
    b11c:	f2143023          	sd	ra,-224(s0)
    b120:	f2843083          	ld	ra,-216(s0)
    b124:	fb20c663          	blt	ra,s2,a8d0 <.LBB101_1049>

000000000000b128 <.LBB101_1305>:
    b128:	07d00093          	li	ra,125
    b12c:	f2143423          	sd	ra,-216(s0)
    b130:	f3043083          	ld	ra,-208(s0)
    b134:	fb20c263          	blt	ra,s2,a8d8 <.LBB101_1050>

000000000000b138 <.LBB101_1306>:
    b138:	07d00093          	li	ra,125
    b13c:	f2143823          	sd	ra,-208(s0)
    b140:	f3843083          	ld	ra,-200(s0)
    b144:	f920ce63          	blt	ra,s2,a8e0 <.LBB101_1051>

000000000000b148 <.LBB101_1307>:
    b148:	07d00093          	li	ra,125
    b14c:	f2143c23          	sd	ra,-200(s0)
    b150:	f4043083          	ld	ra,-192(s0)
    b154:	f920ca63          	blt	ra,s2,a8e8 <.LBB101_1052>

000000000000b158 <.LBB101_1308>:
    b158:	07d00093          	li	ra,125
    b15c:	f4143023          	sd	ra,-192(s0)
    b160:	f4843083          	ld	ra,-184(s0)
    b164:	f920c663          	blt	ra,s2,a8f0 <.LBB101_1053>

000000000000b168 <.LBB101_1309>:
    b168:	07d00093          	li	ra,125
    b16c:	f4143423          	sd	ra,-184(s0)
    b170:	f5043083          	ld	ra,-176(s0)
    b174:	f920c263          	blt	ra,s2,a8f8 <.LBB101_1054>

000000000000b178 <.LBB101_1310>:
    b178:	07d00093          	li	ra,125
    b17c:	f4143823          	sd	ra,-176(s0)
    b180:	f5843083          	ld	ra,-168(s0)
    b184:	f720ce63          	blt	ra,s2,a900 <.LBB101_1055>

000000000000b188 <.LBB101_1311>:
    b188:	07d00093          	li	ra,125
    b18c:	f4143c23          	sd	ra,-168(s0)
    b190:	f6043083          	ld	ra,-160(s0)
    b194:	f720ca63          	blt	ra,s2,a908 <.LBB101_1056>

000000000000b198 <.LBB101_1312>:
    b198:	07d00093          	li	ra,125
    b19c:	f6143023          	sd	ra,-160(s0)
    b1a0:	f6843083          	ld	ra,-152(s0)
    b1a4:	f720c663          	blt	ra,s2,a910 <.LBB101_1057>

000000000000b1a8 <.LBB101_1313>:
    b1a8:	07d00093          	li	ra,125
    b1ac:	f6143423          	sd	ra,-152(s0)
    b1b0:	f7043083          	ld	ra,-144(s0)
    b1b4:	f720c263          	blt	ra,s2,a918 <.LBB101_1058>

000000000000b1b8 <.LBB101_1314>:
    b1b8:	07d00093          	li	ra,125
    b1bc:	f6143823          	sd	ra,-144(s0)
    b1c0:	f7843083          	ld	ra,-136(s0)
    b1c4:	f520ce63          	blt	ra,s2,a920 <.LBB101_1059>

000000000000b1c8 <.LBB101_1315>:
    b1c8:	07d00093          	li	ra,125
    b1cc:	f6143c23          	sd	ra,-136(s0)
    b1d0:	f8043083          	ld	ra,-128(s0)
    b1d4:	f520ca63          	blt	ra,s2,a928 <.LBB101_1060>

000000000000b1d8 <.LBB101_1316>:
    b1d8:	07d00093          	li	ra,125
    b1dc:	f8143023          	sd	ra,-128(s0)
    b1e0:	f8843083          	ld	ra,-120(s0)
    b1e4:	f520c663          	blt	ra,s2,a930 <.LBB101_1061>

000000000000b1e8 <.LBB101_1317>:
    b1e8:	07d00093          	li	ra,125
    b1ec:	f8143423          	sd	ra,-120(s0)
    b1f0:	d3843083          	ld	ra,-712(s0)
    b1f4:	f520c263          	blt	ra,s2,a938 <.LBB101_1062>

000000000000b1f8 <.LBB101_1318>:
    b1f8:	07d00093          	li	ra,125
    b1fc:	d2143c23          	sd	ra,-712(s0)
    b200:	d4843083          	ld	ra,-696(s0)
    b204:	f320ce63          	blt	ra,s2,a940 <.LBB101_1063>

000000000000b208 <.LBB101_1319>:
    b208:	07d00093          	li	ra,125
    b20c:	d4143423          	sd	ra,-696(s0)
    b210:	d5843083          	ld	ra,-680(s0)
    b214:	f320ca63          	blt	ra,s2,a948 <.LBB101_1064>

000000000000b218 <.LBB101_1320>:
    b218:	07d00093          	li	ra,125
    b21c:	d4143c23          	sd	ra,-680(s0)
    b220:	d7043083          	ld	ra,-656(s0)
    b224:	f320c663          	blt	ra,s2,a950 <.LBB101_1065>

000000000000b228 <.LBB101_1321>:
    b228:	07d00093          	li	ra,125
    b22c:	d6143823          	sd	ra,-656(s0)
    b230:	d8043083          	ld	ra,-640(s0)
    b234:	f320c263          	blt	ra,s2,a958 <.LBB101_1066>

000000000000b238 <.LBB101_1322>:
    b238:	07d00093          	li	ra,125
    b23c:	d8143023          	sd	ra,-640(s0)
    b240:	d9043083          	ld	ra,-624(s0)
    b244:	f120ce63          	blt	ra,s2,a960 <.LBB101_1067>

000000000000b248 <.LBB101_1323>:
    b248:	07d00093          	li	ra,125
    b24c:	d8143823          	sd	ra,-624(s0)
    b250:	da043083          	ld	ra,-608(s0)
    b254:	f120ca63          	blt	ra,s2,a968 <.LBB101_1068>

000000000000b258 <.LBB101_1324>:
    b258:	07d00093          	li	ra,125
    b25c:	da143023          	sd	ra,-608(s0)
    b260:	db043083          	ld	ra,-592(s0)
    b264:	f120c663          	blt	ra,s2,a970 <.LBB101_1069>

000000000000b268 <.LBB101_1325>:
    b268:	07d00093          	li	ra,125
    b26c:	da143823          	sd	ra,-592(s0)
    b270:	dc043083          	ld	ra,-576(s0)
    b274:	f120c263          	blt	ra,s2,a978 <.LBB101_1070>

000000000000b278 <.LBB101_1326>:
    b278:	07d00093          	li	ra,125
    b27c:	dc143023          	sd	ra,-576(s0)
    b280:	dd043083          	ld	ra,-560(s0)
    b284:	ef20ce63          	blt	ra,s2,a980 <.LBB101_1071>

000000000000b288 <.LBB101_1327>:
    b288:	07d00093          	li	ra,125
    b28c:	dc143823          	sd	ra,-560(s0)
    b290:	de043083          	ld	ra,-544(s0)
    b294:	ef20ca63          	blt	ra,s2,a988 <.LBB101_1072>

000000000000b298 <.LBB101_1328>:
    b298:	07d00093          	li	ra,125
    b29c:	de143023          	sd	ra,-544(s0)
    b2a0:	de843083          	ld	ra,-536(s0)
    b2a4:	ef20c663          	blt	ra,s2,a990 <.LBB101_1073>

000000000000b2a8 <.LBB101_1329>:
    b2a8:	07d00093          	li	ra,125
    b2ac:	de143423          	sd	ra,-536(s0)
    b2b0:	df043083          	ld	ra,-528(s0)
    b2b4:	ef20c263          	blt	ra,s2,a998 <.LBB101_1074>

000000000000b2b8 <.LBB101_1330>:
    b2b8:	07d00093          	li	ra,125
    b2bc:	de143823          	sd	ra,-528(s0)
    b2c0:	df843083          	ld	ra,-520(s0)
    b2c4:	ed20ce63          	blt	ra,s2,a9a0 <.LBB101_1075>

000000000000b2c8 <.LBB101_1331>:
    b2c8:	07d00093          	li	ra,125
    b2cc:	de143c23          	sd	ra,-520(s0)
    b2d0:	e0043083          	ld	ra,-512(s0)
    b2d4:	ed20ca63          	blt	ra,s2,a9a8 <.LBB101_1076>

000000000000b2d8 <.LBB101_1332>:
    b2d8:	07d00093          	li	ra,125
    b2dc:	e0143023          	sd	ra,-512(s0)
    b2e0:	e0843083          	ld	ra,-504(s0)
    b2e4:	ed20c663          	blt	ra,s2,a9b0 <.LBB101_1077>

000000000000b2e8 <.LBB101_1333>:
    b2e8:	07d00093          	li	ra,125
    b2ec:	e0143423          	sd	ra,-504(s0)
    b2f0:	e1043083          	ld	ra,-496(s0)
    b2f4:	ed20c263          	blt	ra,s2,a9b8 <.LBB101_1078>

000000000000b2f8 <.LBB101_1334>:
    b2f8:	07d00093          	li	ra,125
    b2fc:	e0143823          	sd	ra,-496(s0)
    b300:	e1843083          	ld	ra,-488(s0)
    b304:	eb20ce63          	blt	ra,s2,a9c0 <.LBB101_1079>

000000000000b308 <.LBB101_1335>:
    b308:	07d00093          	li	ra,125
    b30c:	e0143c23          	sd	ra,-488(s0)
    b310:	e2043083          	ld	ra,-480(s0)
    b314:	eb20ca63          	blt	ra,s2,a9c8 <.LBB101_1080>

000000000000b318 <.LBB101_1336>:
    b318:	07d00093          	li	ra,125
    b31c:	e2143023          	sd	ra,-480(s0)
    b320:	e2843083          	ld	ra,-472(s0)
    b324:	eb20c663          	blt	ra,s2,a9d0 <.LBB101_1081>

000000000000b328 <.LBB101_1337>:
    b328:	07d00093          	li	ra,125
    b32c:	e2143423          	sd	ra,-472(s0)
    b330:	e3043083          	ld	ra,-464(s0)
    b334:	eb20c263          	blt	ra,s2,a9d8 <.LBB101_1082>

000000000000b338 <.LBB101_1338>:
    b338:	07d00093          	li	ra,125
    b33c:	e2143823          	sd	ra,-464(s0)
    b340:	e3843083          	ld	ra,-456(s0)
    b344:	e920ce63          	blt	ra,s2,a9e0 <.LBB101_1083>

000000000000b348 <.LBB101_1339>:
    b348:	07d00093          	li	ra,125
    b34c:	e2143c23          	sd	ra,-456(s0)
    b350:	e4043083          	ld	ra,-448(s0)
    b354:	e920ca63          	blt	ra,s2,a9e8 <.LBB101_1084>

000000000000b358 <.LBB101_1340>:
    b358:	07d00093          	li	ra,125
    b35c:	e4143023          	sd	ra,-448(s0)
    b360:	e5043083          	ld	ra,-432(s0)
    b364:	e920c663          	blt	ra,s2,a9f0 <.LBB101_1085>

000000000000b368 <.LBB101_1341>:
    b368:	07d00093          	li	ra,125
    b36c:	e4143823          	sd	ra,-432(s0)
    b370:	e6843083          	ld	ra,-408(s0)
    b374:	e920c263          	blt	ra,s2,a9f8 <.LBB101_1086>

000000000000b378 <.LBB101_1342>:
    b378:	07d00093          	li	ra,125
    b37c:	e6143423          	sd	ra,-408(s0)
    b380:	e7843083          	ld	ra,-392(s0)
    b384:	e720ce63          	blt	ra,s2,aa00 <.LBB101_1087>

000000000000b388 <.LBB101_1343>:
    b388:	07d00093          	li	ra,125
    b38c:	e6143c23          	sd	ra,-392(s0)
    b390:	e8843083          	ld	ra,-376(s0)
    b394:	e720ca63          	blt	ra,s2,aa08 <.LBB101_1088>

000000000000b398 <.LBB101_1344>:
    b398:	07d00093          	li	ra,125
    b39c:	e8143423          	sd	ra,-376(s0)
    b3a0:	e9843083          	ld	ra,-360(s0)
    b3a4:	e720c663          	blt	ra,s2,aa10 <.LBB101_1089>

000000000000b3a8 <.LBB101_1345>:
    b3a8:	07d00093          	li	ra,125
    b3ac:	e8143c23          	sd	ra,-360(s0)
    b3b0:	ea843083          	ld	ra,-344(s0)
    b3b4:	e720c263          	blt	ra,s2,aa18 <.LBB101_1090>

000000000000b3b8 <.LBB101_1346>:
    b3b8:	07d00093          	li	ra,125
    b3bc:	ea143423          	sd	ra,-344(s0)
    b3c0:	eb843083          	ld	ra,-328(s0)
    b3c4:	e520ce63          	blt	ra,s2,aa20 <.LBB101_1091>

000000000000b3c8 <.LBB101_1347>:
    b3c8:	07d00093          	li	ra,125
    b3cc:	ea143c23          	sd	ra,-328(s0)
    b3d0:	ec843083          	ld	ra,-312(s0)
    b3d4:	e520ca63          	blt	ra,s2,aa28 <.LBB101_1092>

000000000000b3d8 <.LBB101_1348>:
    b3d8:	07d00093          	li	ra,125
    b3dc:	ec143423          	sd	ra,-312(s0)
    b3e0:	ed843083          	ld	ra,-296(s0)
    b3e4:	e520c663          	blt	ra,s2,aa30 <.LBB101_1093>

000000000000b3e8 <.LBB101_1349>:
    b3e8:	07d00093          	li	ra,125
    b3ec:	ec143c23          	sd	ra,-296(s0)
    b3f0:	c3843083          	ld	ra,-968(s0)
    b3f4:	e520c263          	blt	ra,s2,aa38 <.LBB101_1094>

000000000000b3f8 <.LBB101_1350>:
    b3f8:	07d00093          	li	ra,125
    b3fc:	c2143c23          	sd	ra,-968(s0)
    b400:	c4843083          	ld	ra,-952(s0)
    b404:	e320ce63          	blt	ra,s2,aa40 <.LBB101_1095>

000000000000b408 <.LBB101_1351>:
    b408:	07d00093          	li	ra,125
    b40c:	c4143423          	sd	ra,-952(s0)
    b410:	c5843083          	ld	ra,-936(s0)
    b414:	e320ca63          	blt	ra,s2,aa48 <.LBB101_1096>

000000000000b418 <.LBB101_1352>:
    b418:	07d00093          	li	ra,125
    b41c:	c4143c23          	sd	ra,-936(s0)
    b420:	c6843083          	ld	ra,-920(s0)
    b424:	e320c663          	blt	ra,s2,aa50 <.LBB101_1097>

000000000000b428 <.LBB101_1353>:
    b428:	07d00093          	li	ra,125
    b42c:	c6143423          	sd	ra,-920(s0)
    b430:	c7843083          	ld	ra,-904(s0)
    b434:	e320c263          	blt	ra,s2,aa58 <.LBB101_1098>

000000000000b438 <.LBB101_1354>:
    b438:	07d00093          	li	ra,125
    b43c:	c6143c23          	sd	ra,-904(s0)
    b440:	c8843083          	ld	ra,-888(s0)
    b444:	e120ce63          	blt	ra,s2,aa60 <.LBB101_1099>

000000000000b448 <.LBB101_1355>:
    b448:	07d00093          	li	ra,125
    b44c:	c8143423          	sd	ra,-888(s0)
    b450:	c9843083          	ld	ra,-872(s0)
    b454:	e120ca63          	blt	ra,s2,aa68 <.LBB101_1100>

000000000000b458 <.LBB101_1356>:
    b458:	07d00093          	li	ra,125
    b45c:	c8143c23          	sd	ra,-872(s0)
    b460:	ca843083          	ld	ra,-856(s0)
    b464:	e120c663          	blt	ra,s2,aa70 <.LBB101_1101>

000000000000b468 <.LBB101_1357>:
    b468:	07d00093          	li	ra,125
    b46c:	ca143423          	sd	ra,-856(s0)
    b470:	cb843083          	ld	ra,-840(s0)
    b474:	e120c263          	blt	ra,s2,aa78 <.LBB101_1102>

000000000000b478 <.LBB101_1358>:
    b478:	07d00093          	li	ra,125
    b47c:	ca143c23          	sd	ra,-840(s0)
    b480:	cc843083          	ld	ra,-824(s0)
    b484:	df20ce63          	blt	ra,s2,aa80 <.LBB101_1103>

000000000000b488 <.LBB101_1359>:
    b488:	07d00093          	li	ra,125
    b48c:	cc143423          	sd	ra,-824(s0)
    b490:	cd843083          	ld	ra,-808(s0)
    b494:	df20ca63          	blt	ra,s2,aa88 <.LBB101_1104>

000000000000b498 <.LBB101_1360>:
    b498:	07d00093          	li	ra,125
    b49c:	cc143c23          	sd	ra,-808(s0)
    b4a0:	ce043083          	ld	ra,-800(s0)
    b4a4:	df20c663          	blt	ra,s2,aa90 <.LBB101_1105>

000000000000b4a8 <.LBB101_1361>:
    b4a8:	07d00093          	li	ra,125
    b4ac:	ce143023          	sd	ra,-800(s0)
    b4b0:	ce843083          	ld	ra,-792(s0)
    b4b4:	df20c263          	blt	ra,s2,aa98 <.LBB101_1106>

000000000000b4b8 <.LBB101_1362>:
    b4b8:	07d00093          	li	ra,125
    b4bc:	ce143423          	sd	ra,-792(s0)
    b4c0:	cf043083          	ld	ra,-784(s0)
    b4c4:	dd20ce63          	blt	ra,s2,aaa0 <.LBB101_1107>

000000000000b4c8 <.LBB101_1363>:
    b4c8:	07d00093          	li	ra,125
    b4cc:	ce143823          	sd	ra,-784(s0)
    b4d0:	cf843083          	ld	ra,-776(s0)
    b4d4:	dd20ca63          	blt	ra,s2,aaa8 <.LBB101_1108>

000000000000b4d8 <.LBB101_1364>:
    b4d8:	07d00093          	li	ra,125
    b4dc:	ce143c23          	sd	ra,-776(s0)
    b4e0:	d0043083          	ld	ra,-768(s0)
    b4e4:	dd20c663          	blt	ra,s2,aab0 <.LBB101_1109>

000000000000b4e8 <.LBB101_1365>:
    b4e8:	07d00093          	li	ra,125
    b4ec:	d0143023          	sd	ra,-768(s0)
    b4f0:	d0843083          	ld	ra,-760(s0)
    b4f4:	dd20c263          	blt	ra,s2,aab8 <.LBB101_1110>

000000000000b4f8 <.LBB101_1366>:
    b4f8:	07d00093          	li	ra,125
    b4fc:	d0143423          	sd	ra,-760(s0)
    b500:	d1043083          	ld	ra,-752(s0)
    b504:	db20ce63          	blt	ra,s2,aac0 <.LBB101_1111>

000000000000b508 <.LBB101_1367>:
    b508:	07d00093          	li	ra,125
    b50c:	d0143823          	sd	ra,-752(s0)
    b510:	d1843083          	ld	ra,-744(s0)
    b514:	db20ca63          	blt	ra,s2,aac8 <.LBB101_1112>

000000000000b518 <.LBB101_1368>:
    b518:	07d00093          	li	ra,125
    b51c:	d0143c23          	sd	ra,-744(s0)
    b520:	d2043083          	ld	ra,-736(s0)
    b524:	db20c663          	blt	ra,s2,aad0 <.LBB101_1113>

000000000000b528 <.LBB101_1369>:
    b528:	07d00093          	li	ra,125
    b52c:	d2143023          	sd	ra,-736(s0)
    b530:	d2843083          	ld	ra,-728(s0)
    b534:	db20c263          	blt	ra,s2,aad8 <.LBB101_1114>

000000000000b538 <.LBB101_1370>:
    b538:	07d00093          	li	ra,125
    b53c:	d2143423          	sd	ra,-728(s0)
    b540:	d3043083          	ld	ra,-720(s0)
    b544:	d920ce63          	blt	ra,s2,aae0 <.LBB101_1115>

000000000000b548 <.LBB101_1371>:
    b548:	07d00093          	li	ra,125
    b54c:	d2143823          	sd	ra,-720(s0)
    b550:	d4043083          	ld	ra,-704(s0)
    b554:	d920ca63          	blt	ra,s2,aae8 <.LBB101_1116>

000000000000b558 <.LBB101_1372>:
    b558:	07d00093          	li	ra,125
    b55c:	d4143023          	sd	ra,-704(s0)
    b560:	d5043083          	ld	ra,-688(s0)
    b564:	d920c663          	blt	ra,s2,aaf0 <.LBB101_1117>

000000000000b568 <.LBB101_1373>:
    b568:	07d00093          	li	ra,125
    b56c:	d4143823          	sd	ra,-688(s0)
    b570:	d6843083          	ld	ra,-664(s0)
    b574:	d920c263          	blt	ra,s2,aaf8 <.LBB101_1118>

000000000000b578 <.LBB101_1374>:
    b578:	07d00093          	li	ra,125
    b57c:	d6143423          	sd	ra,-664(s0)
    b580:	d7843083          	ld	ra,-648(s0)
    b584:	d720ce63          	blt	ra,s2,ab00 <.LBB101_1119>

000000000000b588 <.LBB101_1375>:
    b588:	07d00093          	li	ra,125
    b58c:	d6143c23          	sd	ra,-648(s0)
    b590:	d8843083          	ld	ra,-632(s0)
    b594:	d720ca63          	blt	ra,s2,ab08 <.LBB101_1120>

000000000000b598 <.LBB101_1376>:
    b598:	07d00093          	li	ra,125
    b59c:	d8143423          	sd	ra,-632(s0)
    b5a0:	d9843083          	ld	ra,-616(s0)
    b5a4:	d720c663          	blt	ra,s2,ab10 <.LBB101_1121>

000000000000b5a8 <.LBB101_1377>:
    b5a8:	07d00093          	li	ra,125
    b5ac:	d8143c23          	sd	ra,-616(s0)
    b5b0:	da843083          	ld	ra,-600(s0)
    b5b4:	d720c263          	blt	ra,s2,ab18 <.LBB101_1122>

000000000000b5b8 <.LBB101_1378>:
    b5b8:	07d00093          	li	ra,125
    b5bc:	da143423          	sd	ra,-600(s0)
    b5c0:	db843083          	ld	ra,-584(s0)
    b5c4:	d520ce63          	blt	ra,s2,ab20 <.LBB101_1123>

000000000000b5c8 <.LBB101_1379>:
    b5c8:	07d00093          	li	ra,125
    b5cc:	da143c23          	sd	ra,-584(s0)
    b5d0:	dc843083          	ld	ra,-568(s0)
    b5d4:	d520ca63          	blt	ra,s2,ab28 <.LBB101_1124>

000000000000b5d8 <.LBB101_1380>:
    b5d8:	07d00093          	li	ra,125
    b5dc:	dc143423          	sd	ra,-568(s0)
    b5e0:	dd843083          	ld	ra,-552(s0)
    b5e4:	d520c663          	blt	ra,s2,ab30 <.LBB101_1125>

000000000000b5e8 <.LBB101_1381>:
    b5e8:	07d00093          	li	ra,125
    b5ec:	dc143c23          	sd	ra,-552(s0)
    b5f0:	b3843083          	ld	ra,-1224(s0)
    b5f4:	d520c263          	blt	ra,s2,ab38 <.LBB101_1126>

000000000000b5f8 <.LBB101_1382>:
    b5f8:	07d00093          	li	ra,125
    b5fc:	b2143c23          	sd	ra,-1224(s0)
    b600:	b4843083          	ld	ra,-1208(s0)
    b604:	d320ce63          	blt	ra,s2,ab40 <.LBB101_1127>

000000000000b608 <.LBB101_1383>:
    b608:	07d00093          	li	ra,125
    b60c:	b4143423          	sd	ra,-1208(s0)
    b610:	b5843083          	ld	ra,-1192(s0)
    b614:	d320ca63          	blt	ra,s2,ab48 <.LBB101_1128>

000000000000b618 <.LBB101_1384>:
    b618:	07d00093          	li	ra,125
    b61c:	b4143c23          	sd	ra,-1192(s0)
    b620:	b6843083          	ld	ra,-1176(s0)
    b624:	d320c663          	blt	ra,s2,ab50 <.LBB101_1129>

000000000000b628 <.LBB101_1385>:
    b628:	07d00093          	li	ra,125
    b62c:	b6143423          	sd	ra,-1176(s0)
    b630:	b7843083          	ld	ra,-1160(s0)
    b634:	d320c263          	blt	ra,s2,ab58 <.LBB101_1130>

000000000000b638 <.LBB101_1386>:
    b638:	07d00093          	li	ra,125
    b63c:	b6143c23          	sd	ra,-1160(s0)
    b640:	b8843083          	ld	ra,-1144(s0)
    b644:	d120ce63          	blt	ra,s2,ab60 <.LBB101_1131>

000000000000b648 <.LBB101_1387>:
    b648:	07d00093          	li	ra,125
    b64c:	b8143423          	sd	ra,-1144(s0)
    b650:	b9843083          	ld	ra,-1128(s0)
    b654:	d120ca63          	blt	ra,s2,ab68 <.LBB101_1132>

000000000000b658 <.LBB101_1388>:
    b658:	07d00093          	li	ra,125
    b65c:	b8143c23          	sd	ra,-1128(s0)
    b660:	ba843083          	ld	ra,-1112(s0)
    b664:	d120c663          	blt	ra,s2,ab70 <.LBB101_1133>

000000000000b668 <.LBB101_1389>:
    b668:	07d00093          	li	ra,125
    b66c:	ba143423          	sd	ra,-1112(s0)
    b670:	bb843083          	ld	ra,-1096(s0)
    b674:	d120c263          	blt	ra,s2,ab78 <.LBB101_1134>

000000000000b678 <.LBB101_1390>:
    b678:	07d00093          	li	ra,125
    b67c:	ba143c23          	sd	ra,-1096(s0)
    b680:	bc843083          	ld	ra,-1080(s0)
    b684:	cf20ce63          	blt	ra,s2,ab80 <.LBB101_1135>

000000000000b688 <.LBB101_1391>:
    b688:	07d00093          	li	ra,125
    b68c:	bc143423          	sd	ra,-1080(s0)
    b690:	bd843083          	ld	ra,-1064(s0)
    b694:	cf20ca63          	blt	ra,s2,ab88 <.LBB101_1136>

000000000000b698 <.LBB101_1392>:
    b698:	07d00093          	li	ra,125
    b69c:	bc143c23          	sd	ra,-1064(s0)
    b6a0:	be043083          	ld	ra,-1056(s0)
    b6a4:	cf20c663          	blt	ra,s2,ab90 <.LBB101_1137>

000000000000b6a8 <.LBB101_1393>:
    b6a8:	07d00093          	li	ra,125
    b6ac:	be143023          	sd	ra,-1056(s0)
    b6b0:	be843083          	ld	ra,-1048(s0)
    b6b4:	cf20c263          	blt	ra,s2,ab98 <.LBB101_1138>

000000000000b6b8 <.LBB101_1394>:
    b6b8:	07d00093          	li	ra,125
    b6bc:	be143423          	sd	ra,-1048(s0)
    b6c0:	bf043083          	ld	ra,-1040(s0)
    b6c4:	cd20ce63          	blt	ra,s2,aba0 <.LBB101_1139>

000000000000b6c8 <.LBB101_1395>:
    b6c8:	07d00093          	li	ra,125
    b6cc:	be143823          	sd	ra,-1040(s0)
    b6d0:	bf843083          	ld	ra,-1032(s0)
    b6d4:	cd20ca63          	blt	ra,s2,aba8 <.LBB101_1140>

000000000000b6d8 <.LBB101_1396>:
    b6d8:	07d00093          	li	ra,125
    b6dc:	be143c23          	sd	ra,-1032(s0)
    b6e0:	c0043083          	ld	ra,-1024(s0)
    b6e4:	cd20c663          	blt	ra,s2,abb0 <.LBB101_1141>

000000000000b6e8 <.LBB101_1397>:
    b6e8:	07d00093          	li	ra,125
    b6ec:	c0143023          	sd	ra,-1024(s0)
    b6f0:	c0843083          	ld	ra,-1016(s0)
    b6f4:	cd20c263          	blt	ra,s2,abb8 <.LBB101_1142>

000000000000b6f8 <.LBB101_1398>:
    b6f8:	07d00093          	li	ra,125
    b6fc:	c0143423          	sd	ra,-1016(s0)
    b700:	c1043083          	ld	ra,-1008(s0)
    b704:	cb20ce63          	blt	ra,s2,abc0 <.LBB101_1143>

000000000000b708 <.LBB101_1399>:
    b708:	07d00093          	li	ra,125
    b70c:	c0143823          	sd	ra,-1008(s0)
    b710:	c1843083          	ld	ra,-1000(s0)
    b714:	cb20ca63          	blt	ra,s2,abc8 <.LBB101_1144>

000000000000b718 <.LBB101_1400>:
    b718:	07d00093          	li	ra,125
    b71c:	c0143c23          	sd	ra,-1000(s0)
    b720:	c2043083          	ld	ra,-992(s0)
    b724:	cb20c663          	blt	ra,s2,abd0 <.LBB101_1145>

000000000000b728 <.LBB101_1401>:
    b728:	07d00093          	li	ra,125
    b72c:	c2143023          	sd	ra,-992(s0)
    b730:	c2843083          	ld	ra,-984(s0)
    b734:	cb20c263          	blt	ra,s2,abd8 <.LBB101_1146>

000000000000b738 <.LBB101_1402>:
    b738:	07d00093          	li	ra,125
    b73c:	c2143423          	sd	ra,-984(s0)
    b740:	c3043083          	ld	ra,-976(s0)
    b744:	c920ce63          	blt	ra,s2,abe0 <.LBB101_1147>

000000000000b748 <.LBB101_1403>:
    b748:	07d00093          	li	ra,125
    b74c:	c2143823          	sd	ra,-976(s0)
    b750:	c4043083          	ld	ra,-960(s0)
    b754:	c920ca63          	blt	ra,s2,abe8 <.LBB101_1148>

000000000000b758 <.LBB101_1404>:
    b758:	07d00093          	li	ra,125
    b75c:	c4143023          	sd	ra,-960(s0)
    b760:	c5043083          	ld	ra,-944(s0)
    b764:	c920c663          	blt	ra,s2,abf0 <.LBB101_1149>

000000000000b768 <.LBB101_1405>:
    b768:	07d00093          	li	ra,125
    b76c:	c4143823          	sd	ra,-944(s0)
    b770:	c6043083          	ld	ra,-928(s0)
    b774:	c920c263          	blt	ra,s2,abf8 <.LBB101_1150>

000000000000b778 <.LBB101_1406>:
    b778:	07d00093          	li	ra,125
    b77c:	c6143023          	sd	ra,-928(s0)
    b780:	c7043083          	ld	ra,-912(s0)
    b784:	c720ce63          	blt	ra,s2,ac00 <.LBB101_1151>

000000000000b788 <.LBB101_1407>:
    b788:	07d00093          	li	ra,125
    b78c:	c6143823          	sd	ra,-912(s0)
    b790:	c8043083          	ld	ra,-896(s0)
    b794:	c720ca63          	blt	ra,s2,ac08 <.LBB101_1152>

000000000000b798 <.LBB101_1408>:
    b798:	07d00093          	li	ra,125
    b79c:	c8143023          	sd	ra,-896(s0)
    b7a0:	c9043083          	ld	ra,-880(s0)
    b7a4:	c720c663          	blt	ra,s2,ac10 <.LBB101_1153>

000000000000b7a8 <.LBB101_1409>:
    b7a8:	07d00093          	li	ra,125
    b7ac:	c8143823          	sd	ra,-880(s0)
    b7b0:	ca043083          	ld	ra,-864(s0)
    b7b4:	c720c263          	blt	ra,s2,ac18 <.LBB101_1154>

000000000000b7b8 <.LBB101_1410>:
    b7b8:	07d00093          	li	ra,125
    b7bc:	ca143023          	sd	ra,-864(s0)
    b7c0:	cb043083          	ld	ra,-848(s0)
    b7c4:	c520ce63          	blt	ra,s2,ac20 <.LBB101_1155>

000000000000b7c8 <.LBB101_1411>:
    b7c8:	07d00093          	li	ra,125
    b7cc:	ca143823          	sd	ra,-848(s0)
    b7d0:	cc043083          	ld	ra,-832(s0)
    b7d4:	c520ca63          	blt	ra,s2,ac28 <.LBB101_1156>

000000000000b7d8 <.LBB101_1412>:
    b7d8:	07d00093          	li	ra,125
    b7dc:	cc143023          	sd	ra,-832(s0)
    b7e0:	cd043083          	ld	ra,-816(s0)
    b7e4:	c520c663          	blt	ra,s2,ac30 <.LBB101_1157>

000000000000b7e8 <.LBB101_1413>:
    b7e8:	07d00093          	li	ra,125
    b7ec:	cc143823          	sd	ra,-816(s0)
    b7f0:	a3843083          	ld	ra,-1480(s0)
    b7f4:	c520c263          	blt	ra,s2,ac38 <.LBB101_1158>

000000000000b7f8 <.LBB101_1414>:
    b7f8:	07d00093          	li	ra,125
    b7fc:	a2143c23          	sd	ra,-1480(s0)
    b800:	a4843083          	ld	ra,-1464(s0)
    b804:	c320ce63          	blt	ra,s2,ac40 <.LBB101_1159>

000000000000b808 <.LBB101_1415>:
    b808:	07d00093          	li	ra,125
    b80c:	a4143423          	sd	ra,-1464(s0)
    b810:	a5843083          	ld	ra,-1448(s0)
    b814:	c320ca63          	blt	ra,s2,ac48 <.LBB101_1160>

000000000000b818 <.LBB101_1416>:
    b818:	07d00093          	li	ra,125
    b81c:	a4143c23          	sd	ra,-1448(s0)
    b820:	a6843083          	ld	ra,-1432(s0)
    b824:	c320c663          	blt	ra,s2,ac50 <.LBB101_1161>

000000000000b828 <.LBB101_1417>:
    b828:	07d00093          	li	ra,125
    b82c:	a6143423          	sd	ra,-1432(s0)
    b830:	a7843083          	ld	ra,-1416(s0)
    b834:	c320c263          	blt	ra,s2,ac58 <.LBB101_1162>

000000000000b838 <.LBB101_1418>:
    b838:	07d00093          	li	ra,125
    b83c:	a6143c23          	sd	ra,-1416(s0)
    b840:	a8843083          	ld	ra,-1400(s0)
    b844:	c120ce63          	blt	ra,s2,ac60 <.LBB101_1163>

000000000000b848 <.LBB101_1419>:
    b848:	07d00093          	li	ra,125
    b84c:	a8143423          	sd	ra,-1400(s0)
    b850:	a9843083          	ld	ra,-1384(s0)
    b854:	c120ca63          	blt	ra,s2,ac68 <.LBB101_1164>

000000000000b858 <.LBB101_1420>:
    b858:	07d00093          	li	ra,125
    b85c:	a8143c23          	sd	ra,-1384(s0)
    b860:	aa843083          	ld	ra,-1368(s0)
    b864:	c120c663          	blt	ra,s2,ac70 <.LBB101_1165>

000000000000b868 <.LBB101_1421>:
    b868:	07d00093          	li	ra,125
    b86c:	aa143423          	sd	ra,-1368(s0)
    b870:	ab843083          	ld	ra,-1352(s0)
    b874:	c120c263          	blt	ra,s2,ac78 <.LBB101_1166>

000000000000b878 <.LBB101_1422>:
    b878:	07d00093          	li	ra,125
    b87c:	aa143c23          	sd	ra,-1352(s0)
    b880:	ac843083          	ld	ra,-1336(s0)
    b884:	bf20ce63          	blt	ra,s2,ac80 <.LBB101_1167>

000000000000b888 <.LBB101_1423>:
    b888:	07d00093          	li	ra,125
    b88c:	ac143423          	sd	ra,-1336(s0)
    b890:	ad843083          	ld	ra,-1320(s0)
    b894:	bf20ca63          	blt	ra,s2,ac88 <.LBB101_1168>

000000000000b898 <.LBB101_1424>:
    b898:	07d00093          	li	ra,125
    b89c:	ac143c23          	sd	ra,-1320(s0)
    b8a0:	ae043083          	ld	ra,-1312(s0)
    b8a4:	bf20c663          	blt	ra,s2,ac90 <.LBB101_1169>

000000000000b8a8 <.LBB101_1425>:
    b8a8:	07d00093          	li	ra,125
    b8ac:	ae143023          	sd	ra,-1312(s0)
    b8b0:	ae843083          	ld	ra,-1304(s0)
    b8b4:	bf20c263          	blt	ra,s2,ac98 <.LBB101_1170>

000000000000b8b8 <.LBB101_1426>:
    b8b8:	07d00093          	li	ra,125
    b8bc:	ae143423          	sd	ra,-1304(s0)
    b8c0:	af043083          	ld	ra,-1296(s0)
    b8c4:	bd20ce63          	blt	ra,s2,aca0 <.LBB101_1171>

000000000000b8c8 <.LBB101_1427>:
    b8c8:	07d00093          	li	ra,125
    b8cc:	ae143823          	sd	ra,-1296(s0)
    b8d0:	af843083          	ld	ra,-1288(s0)
    b8d4:	bd20ca63          	blt	ra,s2,aca8 <.LBB101_1172>

000000000000b8d8 <.LBB101_1428>:
    b8d8:	07d00093          	li	ra,125
    b8dc:	ae143c23          	sd	ra,-1288(s0)
    b8e0:	b0043083          	ld	ra,-1280(s0)
    b8e4:	bd20c663          	blt	ra,s2,acb0 <.LBB101_1173>

000000000000b8e8 <.LBB101_1429>:
    b8e8:	07d00093          	li	ra,125
    b8ec:	b0143023          	sd	ra,-1280(s0)
    b8f0:	b0843083          	ld	ra,-1272(s0)
    b8f4:	bd20c263          	blt	ra,s2,acb8 <.LBB101_1174>

000000000000b8f8 <.LBB101_1430>:
    b8f8:	07d00093          	li	ra,125
    b8fc:	b0143423          	sd	ra,-1272(s0)
    b900:	b1043083          	ld	ra,-1264(s0)
    b904:	bb20ce63          	blt	ra,s2,acc0 <.LBB101_1175>

000000000000b908 <.LBB101_1431>:
    b908:	07d00093          	li	ra,125
    b90c:	b0143823          	sd	ra,-1264(s0)
    b910:	b1843083          	ld	ra,-1256(s0)
    b914:	bb20ca63          	blt	ra,s2,acc8 <.LBB101_1176>

000000000000b918 <.LBB101_1432>:
    b918:	07d00093          	li	ra,125
    b91c:	b0143c23          	sd	ra,-1256(s0)
    b920:	b2043083          	ld	ra,-1248(s0)
    b924:	bb20c663          	blt	ra,s2,acd0 <.LBB101_1177>

000000000000b928 <.LBB101_1433>:
    b928:	07d00093          	li	ra,125
    b92c:	b2143023          	sd	ra,-1248(s0)
    b930:	b2843083          	ld	ra,-1240(s0)
    b934:	bb20c263          	blt	ra,s2,acd8 <.LBB101_1178>

000000000000b938 <.LBB101_1434>:
    b938:	07d00093          	li	ra,125
    b93c:	b2143423          	sd	ra,-1240(s0)
    b940:	b3043083          	ld	ra,-1232(s0)
    b944:	b920ce63          	blt	ra,s2,ace0 <.LBB101_1179>

000000000000b948 <.LBB101_1435>:
    b948:	07d00093          	li	ra,125
    b94c:	b2143823          	sd	ra,-1232(s0)
    b950:	b4043083          	ld	ra,-1216(s0)
    b954:	b920ca63          	blt	ra,s2,ace8 <.LBB101_1180>

000000000000b958 <.LBB101_1436>:
    b958:	07d00093          	li	ra,125
    b95c:	b4143023          	sd	ra,-1216(s0)
    b960:	b5043083          	ld	ra,-1200(s0)
    b964:	b920c663          	blt	ra,s2,acf0 <.LBB101_1181>

000000000000b968 <.LBB101_1437>:
    b968:	07d00093          	li	ra,125
    b96c:	b4143823          	sd	ra,-1200(s0)
    b970:	b6043083          	ld	ra,-1184(s0)
    b974:	b920c263          	blt	ra,s2,acf8 <.LBB101_1182>

000000000000b978 <.LBB101_1438>:
    b978:	07d00093          	li	ra,125
    b97c:	b6143023          	sd	ra,-1184(s0)
    b980:	b7043083          	ld	ra,-1168(s0)
    b984:	b720ce63          	blt	ra,s2,ad00 <.LBB101_1183>

000000000000b988 <.LBB101_1439>:
    b988:	07d00093          	li	ra,125
    b98c:	b6143823          	sd	ra,-1168(s0)
    b990:	b8043083          	ld	ra,-1152(s0)
    b994:	b720ca63          	blt	ra,s2,ad08 <.LBB101_1184>

000000000000b998 <.LBB101_1440>:
    b998:	07d00093          	li	ra,125
    b99c:	b8143023          	sd	ra,-1152(s0)
    b9a0:	b9043083          	ld	ra,-1136(s0)
    b9a4:	b720c663          	blt	ra,s2,ad10 <.LBB101_1185>

000000000000b9a8 <.LBB101_1441>:
    b9a8:	07d00093          	li	ra,125
    b9ac:	b8143823          	sd	ra,-1136(s0)
    b9b0:	ba043083          	ld	ra,-1120(s0)
    b9b4:	b720c263          	blt	ra,s2,ad18 <.LBB101_1186>

000000000000b9b8 <.LBB101_1442>:
    b9b8:	07d00093          	li	ra,125
    b9bc:	ba143023          	sd	ra,-1120(s0)
    b9c0:	bb043083          	ld	ra,-1104(s0)
    b9c4:	b520ce63          	blt	ra,s2,ad20 <.LBB101_1187>

000000000000b9c8 <.LBB101_1443>:
    b9c8:	07d00093          	li	ra,125
    b9cc:	ba143823          	sd	ra,-1104(s0)
    b9d0:	bc043083          	ld	ra,-1088(s0)
    b9d4:	b520ca63          	blt	ra,s2,ad28 <.LBB101_1188>

000000000000b9d8 <.LBB101_1444>:
    b9d8:	07d00093          	li	ra,125
    b9dc:	bc143023          	sd	ra,-1088(s0)
    b9e0:	bd043083          	ld	ra,-1072(s0)
    b9e4:	b520c663          	blt	ra,s2,ad30 <.LBB101_1189>

000000000000b9e8 <.LBB101_1445>:
    b9e8:	07d00093          	li	ra,125
    b9ec:	bc143823          	sd	ra,-1072(s0)
    b9f0:	9b843083          	ld	ra,-1608(s0)
    b9f4:	b520c263          	blt	ra,s2,ad38 <.LBB101_1190>

000000000000b9f8 <.LBB101_1446>:
    b9f8:	07d00093          	li	ra,125
    b9fc:	9a143c23          	sd	ra,-1608(s0)
    ba00:	b329ce63          	blt	s3,s2,ad3c <.LBB101_1191>

000000000000ba04 <.LBB101_1447>:
    ba04:	07d00993          	li	s3,125
    ba08:	b32d4c63          	blt	s10,s2,ad40 <.LBB101_1192>

000000000000ba0c <.LBB101_1448>:
    ba0c:	07d00d13          	li	s10,125
    ba10:	b32c4a63          	blt	s8,s2,ad44 <.LBB101_1193>

000000000000ba14 <.LBB101_1449>:
    ba14:	07d00c13          	li	s8,125
    ba18:	b32a4863          	blt	s4,s2,ad48 <.LBB101_1194>

000000000000ba1c <.LBB101_1450>:
    ba1c:	07d00a13          	li	s4,125
    ba20:	b324c663          	blt	s1,s2,ad4c <.LBB101_1195>

000000000000ba24 <.LBB101_1451>:
    ba24:	07d00493          	li	s1,125
    ba28:	b326c463          	blt	a3,s2,ad50 <.LBB101_1196>

000000000000ba2c <.LBB101_1452>:
    ba2c:	07d00693          	li	a3,125
    ba30:	b322c263          	blt	t0,s2,ad54 <.LBB101_1197>

000000000000ba34 <.LBB101_1453>:
    ba34:	07d00293          	li	t0,125
    ba38:	b32ec063          	blt	t4,s2,ad58 <.LBB101_1198>

000000000000ba3c <.LBB101_1454>:
    ba3c:	07d00e93          	li	t4,125
    ba40:	9c843083          	ld	ra,-1592(s0)
    ba44:	b120ce63          	blt	ra,s2,ad60 <.LBB101_1199>

000000000000ba48 <.LBB101_1455>:
    ba48:	07d00093          	li	ra,125
    ba4c:	9c143423          	sd	ra,-1592(s0)
    ba50:	9d843083          	ld	ra,-1576(s0)
    ba54:	b120ca63          	blt	ra,s2,ad68 <.LBB101_1200>

000000000000ba58 <.LBB101_1456>:
    ba58:	07d00093          	li	ra,125
    ba5c:	9c143c23          	sd	ra,-1576(s0)
    ba60:	9e043083          	ld	ra,-1568(s0)
    ba64:	b120c663          	blt	ra,s2,ad70 <.LBB101_1201>

000000000000ba68 <.LBB101_1457>:
    ba68:	07d00093          	li	ra,125
    ba6c:	9e143023          	sd	ra,-1568(s0)
    ba70:	9e843083          	ld	ra,-1560(s0)
    ba74:	b120c263          	blt	ra,s2,ad78 <.LBB101_1202>

000000000000ba78 <.LBB101_1458>:
    ba78:	07d00093          	li	ra,125
    ba7c:	9e143423          	sd	ra,-1560(s0)
    ba80:	9f043083          	ld	ra,-1552(s0)
    ba84:	af20ce63          	blt	ra,s2,ad80 <.LBB101_1203>

000000000000ba88 <.LBB101_1459>:
    ba88:	07d00093          	li	ra,125
    ba8c:	9e143823          	sd	ra,-1552(s0)
    ba90:	9f843083          	ld	ra,-1544(s0)
    ba94:	af20ca63          	blt	ra,s2,ad88 <.LBB101_1204>

000000000000ba98 <.LBB101_1460>:
    ba98:	07d00093          	li	ra,125
    ba9c:	9e143c23          	sd	ra,-1544(s0)
    baa0:	a0043083          	ld	ra,-1536(s0)
    baa4:	af20c663          	blt	ra,s2,ad90 <.LBB101_1205>

000000000000baa8 <.LBB101_1461>:
    baa8:	07d00093          	li	ra,125
    baac:	a0143023          	sd	ra,-1536(s0)
    bab0:	a0843083          	ld	ra,-1528(s0)
    bab4:	af20c263          	blt	ra,s2,ad98 <.LBB101_1206>

000000000000bab8 <.LBB101_1462>:
    bab8:	07d00093          	li	ra,125
    babc:	a0143423          	sd	ra,-1528(s0)
    bac0:	a1043083          	ld	ra,-1520(s0)
    bac4:	ad20ce63          	blt	ra,s2,ada0 <.LBB101_1207>

000000000000bac8 <.LBB101_1463>:
    bac8:	07d00093          	li	ra,125
    bacc:	a0143823          	sd	ra,-1520(s0)
    bad0:	a1843083          	ld	ra,-1512(s0)
    bad4:	ad20ca63          	blt	ra,s2,ada8 <.LBB101_1208>

000000000000bad8 <.LBB101_1464>:
    bad8:	07d00093          	li	ra,125
    badc:	a0143c23          	sd	ra,-1512(s0)
    bae0:	a2043083          	ld	ra,-1504(s0)
    bae4:	ad20c663          	blt	ra,s2,adb0 <.LBB101_1209>

000000000000bae8 <.LBB101_1465>:
    bae8:	07d00093          	li	ra,125
    baec:	a2143023          	sd	ra,-1504(s0)
    baf0:	a2843083          	ld	ra,-1496(s0)
    baf4:	ad20c263          	blt	ra,s2,adb8 <.LBB101_1210>

000000000000baf8 <.LBB101_1466>:
    baf8:	07d00093          	li	ra,125
    bafc:	a2143423          	sd	ra,-1496(s0)
    bb00:	a3043083          	ld	ra,-1488(s0)
    bb04:	ab20ce63          	blt	ra,s2,adc0 <.LBB101_1211>

000000000000bb08 <.LBB101_1467>:
    bb08:	07d00093          	li	ra,125
    bb0c:	a2143823          	sd	ra,-1488(s0)
    bb10:	a4043083          	ld	ra,-1472(s0)
    bb14:	ab20ca63          	blt	ra,s2,adc8 <.LBB101_1212>

000000000000bb18 <.LBB101_1468>:
    bb18:	07d00093          	li	ra,125
    bb1c:	a4143023          	sd	ra,-1472(s0)
    bb20:	a5043083          	ld	ra,-1456(s0)
    bb24:	ab20c663          	blt	ra,s2,add0 <.LBB101_1213>

000000000000bb28 <.LBB101_1469>:
    bb28:	07d00093          	li	ra,125
    bb2c:	a4143823          	sd	ra,-1456(s0)
    bb30:	a6043083          	ld	ra,-1440(s0)
    bb34:	ab20c263          	blt	ra,s2,add8 <.LBB101_1214>

000000000000bb38 <.LBB101_1470>:
    bb38:	07d00093          	li	ra,125
    bb3c:	a6143023          	sd	ra,-1440(s0)
    bb40:	a7043083          	ld	ra,-1424(s0)
    bb44:	a920ce63          	blt	ra,s2,ade0 <.LBB101_1215>

000000000000bb48 <.LBB101_1471>:
    bb48:	07d00093          	li	ra,125
    bb4c:	a6143823          	sd	ra,-1424(s0)
    bb50:	a8043083          	ld	ra,-1408(s0)
    bb54:	a920ca63          	blt	ra,s2,ade8 <.LBB101_1216>

000000000000bb58 <.LBB101_1472>:
    bb58:	07d00093          	li	ra,125
    bb5c:	a8143023          	sd	ra,-1408(s0)
    bb60:	a9043083          	ld	ra,-1392(s0)
    bb64:	a920c663          	blt	ra,s2,adf0 <.LBB101_1217>

000000000000bb68 <.LBB101_1473>:
    bb68:	07d00093          	li	ra,125
    bb6c:	a8143823          	sd	ra,-1392(s0)
    bb70:	aa043083          	ld	ra,-1376(s0)
    bb74:	a920c263          	blt	ra,s2,adf8 <.LBB101_1218>

000000000000bb78 <.LBB101_1474>:
    bb78:	07d00093          	li	ra,125
    bb7c:	aa143023          	sd	ra,-1376(s0)
    bb80:	ab043083          	ld	ra,-1360(s0)
    bb84:	a720ce63          	blt	ra,s2,ae00 <.LBB101_1219>

000000000000bb88 <.LBB101_1475>:
    bb88:	07d00093          	li	ra,125
    bb8c:	aa143823          	sd	ra,-1360(s0)
    bb90:	ac043083          	ld	ra,-1344(s0)
    bb94:	a720ca63          	blt	ra,s2,ae08 <.LBB101_1220>

000000000000bb98 <.LBB101_1476>:
    bb98:	07d00093          	li	ra,125
    bb9c:	ac143023          	sd	ra,-1344(s0)
    bba0:	ad043083          	ld	ra,-1328(s0)
    bba4:	a720c663          	blt	ra,s2,ae10 <.LBB101_1221>

000000000000bba8 <.LBB101_1477>:
    bba8:	07d00093          	li	ra,125
    bbac:	ac143823          	sd	ra,-1328(s0)
    bbb0:	8b843083          	ld	ra,-1864(s0)
    bbb4:	a720c263          	blt	ra,s2,ae18 <.LBB101_1222>

000000000000bbb8 <.LBB101_1478>:
    bbb8:	07d00093          	li	ra,125
    bbbc:	8a143c23          	sd	ra,-1864(s0)
    bbc0:	8c843083          	ld	ra,-1848(s0)
    bbc4:	a520ce63          	blt	ra,s2,ae20 <.LBB101_1223>

000000000000bbc8 <.LBB101_1479>:
    bbc8:	07d00093          	li	ra,125
    bbcc:	8c143423          	sd	ra,-1848(s0)
    bbd0:	8d843083          	ld	ra,-1832(s0)
    bbd4:	a520ca63          	blt	ra,s2,ae28 <.LBB101_1224>

000000000000bbd8 <.LBB101_1480>:
    bbd8:	07d00093          	li	ra,125
    bbdc:	8c143c23          	sd	ra,-1832(s0)
    bbe0:	8e843083          	ld	ra,-1816(s0)
    bbe4:	a520c663          	blt	ra,s2,ae30 <.LBB101_1225>

000000000000bbe8 <.LBB101_1481>:
    bbe8:	07d00093          	li	ra,125
    bbec:	8e143423          	sd	ra,-1816(s0)
    bbf0:	8f843083          	ld	ra,-1800(s0)
    bbf4:	a520c263          	blt	ra,s2,ae38 <.LBB101_1226>

000000000000bbf8 <.LBB101_1482>:
    bbf8:	07d00093          	li	ra,125
    bbfc:	8e143c23          	sd	ra,-1800(s0)
    bc00:	90843083          	ld	ra,-1784(s0)
    bc04:	a320ce63          	blt	ra,s2,ae40 <.LBB101_1227>

000000000000bc08 <.LBB101_1483>:
    bc08:	07d00093          	li	ra,125
    bc0c:	90143423          	sd	ra,-1784(s0)
    bc10:	91843083          	ld	ra,-1768(s0)
    bc14:	a320ca63          	blt	ra,s2,ae48 <.LBB101_1228>

000000000000bc18 <.LBB101_1484>:
    bc18:	07d00093          	li	ra,125
    bc1c:	90143c23          	sd	ra,-1768(s0)
    bc20:	92843083          	ld	ra,-1752(s0)
    bc24:	a320c663          	blt	ra,s2,ae50 <.LBB101_1229>

000000000000bc28 <.LBB101_1485>:
    bc28:	07d00093          	li	ra,125
    bc2c:	92143423          	sd	ra,-1752(s0)
    bc30:	93843083          	ld	ra,-1736(s0)
    bc34:	a320c263          	blt	ra,s2,ae58 <.LBB101_1230>

000000000000bc38 <.LBB101_1486>:
    bc38:	07d00093          	li	ra,125
    bc3c:	92143c23          	sd	ra,-1736(s0)
    bc40:	94843083          	ld	ra,-1720(s0)
    bc44:	a120ce63          	blt	ra,s2,ae60 <.LBB101_1231>

000000000000bc48 <.LBB101_1487>:
    bc48:	07d00093          	li	ra,125
    bc4c:	94143423          	sd	ra,-1720(s0)
    bc50:	95843083          	ld	ra,-1704(s0)
    bc54:	a120ca63          	blt	ra,s2,ae68 <.LBB101_1232>

000000000000bc58 <.LBB101_1488>:
    bc58:	07d00093          	li	ra,125
    bc5c:	94143c23          	sd	ra,-1704(s0)
    bc60:	96043083          	ld	ra,-1696(s0)
    bc64:	a120c663          	blt	ra,s2,ae70 <.LBB101_1233>

000000000000bc68 <.LBB101_1489>:
    bc68:	07d00093          	li	ra,125
    bc6c:	96143023          	sd	ra,-1696(s0)
    bc70:	96843083          	ld	ra,-1688(s0)
    bc74:	a120c263          	blt	ra,s2,ae78 <.LBB101_1234>

000000000000bc78 <.LBB101_1490>:
    bc78:	07d00093          	li	ra,125
    bc7c:	96143423          	sd	ra,-1688(s0)
    bc80:	97043083          	ld	ra,-1680(s0)
    bc84:	9f20ce63          	blt	ra,s2,ae80 <.LBB101_1235>

000000000000bc88 <.LBB101_1491>:
    bc88:	07d00093          	li	ra,125
    bc8c:	96143823          	sd	ra,-1680(s0)
    bc90:	97843083          	ld	ra,-1672(s0)
    bc94:	9f20ca63          	blt	ra,s2,ae88 <.LBB101_1236>

000000000000bc98 <.LBB101_1492>:
    bc98:	07d00093          	li	ra,125
    bc9c:	96143c23          	sd	ra,-1672(s0)
    bca0:	98043083          	ld	ra,-1664(s0)
    bca4:	9f20c663          	blt	ra,s2,ae90 <.LBB101_1237>

000000000000bca8 <.LBB101_1493>:
    bca8:	07d00093          	li	ra,125
    bcac:	98143023          	sd	ra,-1664(s0)
    bcb0:	98843083          	ld	ra,-1656(s0)
    bcb4:	9f20c263          	blt	ra,s2,ae98 <.LBB101_1238>

000000000000bcb8 <.LBB101_1494>:
    bcb8:	07d00093          	li	ra,125
    bcbc:	98143423          	sd	ra,-1656(s0)
    bcc0:	99043083          	ld	ra,-1648(s0)
    bcc4:	9d20ce63          	blt	ra,s2,aea0 <.LBB101_1239>

000000000000bcc8 <.LBB101_1495>:
    bcc8:	07d00093          	li	ra,125
    bccc:	98143823          	sd	ra,-1648(s0)
    bcd0:	99843083          	ld	ra,-1640(s0)
    bcd4:	9d20ca63          	blt	ra,s2,aea8 <.LBB101_1240>

000000000000bcd8 <.LBB101_1496>:
    bcd8:	07d00093          	li	ra,125
    bcdc:	98143c23          	sd	ra,-1640(s0)
    bce0:	9a043083          	ld	ra,-1632(s0)
    bce4:	9d20c663          	blt	ra,s2,aeb0 <.LBB101_1241>

000000000000bce8 <.LBB101_1497>:
    bce8:	07d00093          	li	ra,125
    bcec:	9a143023          	sd	ra,-1632(s0)
    bcf0:	9a843083          	ld	ra,-1624(s0)
    bcf4:	9d20c263          	blt	ra,s2,aeb8 <.LBB101_1242>

000000000000bcf8 <.LBB101_1498>:
    bcf8:	07d00093          	li	ra,125
    bcfc:	9a143423          	sd	ra,-1624(s0)
    bd00:	9b043083          	ld	ra,-1616(s0)
    bd04:	9b20ce63          	blt	ra,s2,aec0 <.LBB101_1243>

000000000000bd08 <.LBB101_1499>:
    bd08:	07d00093          	li	ra,125
    bd0c:	9a143823          	sd	ra,-1616(s0)
    bd10:	9b2dca63          	blt	s11,s2,aec4 <.LBB101_1244>

000000000000bd14 <.LBB101_1500>:
    bd14:	07d00d93          	li	s11,125
    bd18:	9b2fc863          	blt	t6,s2,aec8 <.LBB101_1245>

000000000000bd1c <.LBB101_1501>:
    bd1c:	07d00f93          	li	t6,125
    bd20:	9b28c663          	blt	a7,s2,aecc <.LBB101_1246>

000000000000bd24 <.LBB101_1502>:
    bd24:	07d00893          	li	a7,125
    bd28:	9b2bc463          	blt	s7,s2,aed0 <.LBB101_1247>

000000000000bd2c <.LBB101_1503>:
    bd2c:	07d00b93          	li	s7,125
    bd30:	9b2e4263          	blt	t3,s2,aed4 <.LBB101_1248>

000000000000bd34 <.LBB101_1504>:
    bd34:	07d00e13          	li	t3,125
    bd38:	9b23c063          	blt	t2,s2,aed8 <.LBB101_1249>

000000000000bd3c <.LBB101_1505>:
    bd3c:	07d00393          	li	t2,125
    bd40:	99234e63          	blt	t1,s2,aedc <.LBB101_1250>

000000000000bd44 <.LBB101_1506>:
    bd44:	07d00313          	li	t1,125
    bd48:	84843c83          	ld	s9,-1976(s0)
    bd4c:	992ccc63          	blt	s9,s2,aee4 <.LBB101_1251>

000000000000bd50 <.LBB101_1507>:
    bd50:	07d00c93          	li	s9,125
    bd54:	85943423          	sd	s9,-1976(s0)
    bd58:	9c043083          	ld	ra,-1600(s0)
    bd5c:	9920c863          	blt	ra,s2,aeec <.LBB101_1252>

000000000000bd60 <.LBB101_1508>:
    bd60:	07d00093          	li	ra,125
    bd64:	9c143023          	sd	ra,-1600(s0)
    bd68:	9d043083          	ld	ra,-1584(s0)
    bd6c:	9920c463          	blt	ra,s2,aef4 <.LBB101_1253>

000000000000bd70 <.LBB101_1509>:
    bd70:	07d00093          	li	ra,125
    bd74:	9c143823          	sd	ra,-1584(s0)
    bd78:	9927c063          	blt	a5,s2,aef8 <.LBB101_1254>

000000000000bd7c <.LBB101_1510>:
    bd7c:	07d00793          	li	a5,125
    bd80:	972f4e63          	blt	t5,s2,aefc <.LBB101_1255>

000000000000bd84 <.LBB101_1511>:
    bd84:	07d00f13          	li	t5,125
    bd88:	97284c63          	blt	a6,s2,af00 <.LBB101_1256>

000000000000bd8c <.LBB101_1512>:
    bd8c:	07d00813          	li	a6,125
    bd90:	97264a63          	blt	a2,s2,af04 <.LBB101_1257>

000000000000bd94 <.LBB101_1513>:
    bd94:	07d00613          	li	a2,125
    bd98:	97274863          	blt	a4,s2,af08 <.LBB101_1258>

000000000000bd9c <.LBB101_1514>:
    bd9c:	07d00713          	li	a4,125
    bda0:	9725c663          	blt	a1,s2,af0c <.LBB101_1259>

000000000000bda4 <.LBB101_1515>:
    bda4:	07d00593          	li	a1,125
    bda8:	972b4463          	blt	s6,s2,af10 <.LBB101_1260>

000000000000bdac <.LBB101_1516>:
    bdac:	07d00b13          	li	s6,125
    bdb0:	972ac263          	blt	s5,s2,af14 <.LBB101_1261>

000000000000bdb4 <.LBB101_1517>:
    bdb4:	07d00a93          	li	s5,125
    bdb8:	97254063          	blt	a0,s2,af18 <.LBB101_1262>

000000000000bdbc <.LBB101_1518>:
    bdbc:	07d00513          	li	a0,125
    bdc0:	85043083          	ld	ra,-1968(s0)
    bdc4:	9520ce63          	blt	ra,s2,af20 <.LBB101_1263>

000000000000bdc8 <.LBB101_1519>:
    bdc8:	07d00093          	li	ra,125
    bdcc:	84143823          	sd	ra,-1968(s0)
    bdd0:	85843083          	ld	ra,-1960(s0)
    bdd4:	9520ca63          	blt	ra,s2,af28 <.LBB101_1264>

000000000000bdd8 <.LBB101_1520>:
    bdd8:	07d00093          	li	ra,125
    bddc:	84143c23          	sd	ra,-1960(s0)
    bde0:	86043083          	ld	ra,-1952(s0)
    bde4:	9520c663          	blt	ra,s2,af30 <.LBB101_1265>

000000000000bde8 <.LBB101_1521>:
    bde8:	07d00093          	li	ra,125
    bdec:	86143023          	sd	ra,-1952(s0)
    bdf0:	86843083          	ld	ra,-1944(s0)
    bdf4:	9520c263          	blt	ra,s2,af38 <.LBB101_1266>

000000000000bdf8 <.LBB101_1522>:
    bdf8:	07d00093          	li	ra,125
    bdfc:	86143423          	sd	ra,-1944(s0)
    be00:	87043083          	ld	ra,-1936(s0)
    be04:	9320ce63          	blt	ra,s2,af40 <.LBB101_1267>

000000000000be08 <.LBB101_1523>:
    be08:	07d00093          	li	ra,125
    be0c:	86143823          	sd	ra,-1936(s0)
    be10:	87843083          	ld	ra,-1928(s0)
    be14:	9320ca63          	blt	ra,s2,af48 <.LBB101_1268>

000000000000be18 <.LBB101_1524>:
    be18:	07d00093          	li	ra,125
    be1c:	86143c23          	sd	ra,-1928(s0)
    be20:	88043083          	ld	ra,-1920(s0)
    be24:	9320c663          	blt	ra,s2,af50 <.LBB101_1269>

000000000000be28 <.LBB101_1525>:
    be28:	07d00093          	li	ra,125
    be2c:	88143023          	sd	ra,-1920(s0)
    be30:	88843083          	ld	ra,-1912(s0)
    be34:	9320c263          	blt	ra,s2,af58 <.LBB101_1270>

000000000000be38 <.LBB101_1526>:
    be38:	07d00093          	li	ra,125
    be3c:	88143423          	sd	ra,-1912(s0)
    be40:	89043083          	ld	ra,-1904(s0)
    be44:	9120ce63          	blt	ra,s2,af60 <.LBB101_1271>

000000000000be48 <.LBB101_1527>:
    be48:	07d00093          	li	ra,125
    be4c:	88143823          	sd	ra,-1904(s0)
    be50:	89843083          	ld	ra,-1896(s0)
    be54:	9120ca63          	blt	ra,s2,af68 <.LBB101_1272>

000000000000be58 <.LBB101_1528>:
    be58:	07d00093          	li	ra,125
    be5c:	88143c23          	sd	ra,-1896(s0)
    be60:	8a043083          	ld	ra,-1888(s0)
    be64:	9120c663          	blt	ra,s2,af70 <.LBB101_1273>

000000000000be68 <.LBB101_1529>:
    be68:	07d00093          	li	ra,125
    be6c:	8a143023          	sd	ra,-1888(s0)
    be70:	8a843083          	ld	ra,-1880(s0)
    be74:	9120c263          	blt	ra,s2,af78 <.LBB101_1274>

000000000000be78 <.LBB101_1530>:
    be78:	07d00093          	li	ra,125
    be7c:	8a143423          	sd	ra,-1880(s0)
    be80:	8b043083          	ld	ra,-1872(s0)
    be84:	8f20ce63          	blt	ra,s2,af80 <.LBB101_1275>

000000000000be88 <.LBB101_1531>:
    be88:	07d00093          	li	ra,125
    be8c:	8a143823          	sd	ra,-1872(s0)
    be90:	8c043083          	ld	ra,-1856(s0)
    be94:	8f20ca63          	blt	ra,s2,af88 <.LBB101_1276>

000000000000be98 <.LBB101_1532>:
    be98:	07d00093          	li	ra,125
    be9c:	8c143023          	sd	ra,-1856(s0)
    bea0:	8d043083          	ld	ra,-1840(s0)
    bea4:	8f20c663          	blt	ra,s2,af90 <.LBB101_1277>

000000000000bea8 <.LBB101_1533>:
    bea8:	07d00093          	li	ra,125
    beac:	8c143823          	sd	ra,-1840(s0)
    beb0:	8e043083          	ld	ra,-1824(s0)
    beb4:	8f20c263          	blt	ra,s2,af98 <.LBB101_1278>

000000000000beb8 <.LBB101_1534>:
    beb8:	07d00093          	li	ra,125
    bebc:	8e143023          	sd	ra,-1824(s0)
    bec0:	8f043083          	ld	ra,-1808(s0)
    bec4:	8d20ce63          	blt	ra,s2,afa0 <.LBB101_1279>

000000000000bec8 <.LBB101_1535>:
    bec8:	07d00093          	li	ra,125
    becc:	8e143823          	sd	ra,-1808(s0)
    bed0:	90043083          	ld	ra,-1792(s0)
    bed4:	8d20ca63          	blt	ra,s2,afa8 <.LBB101_1280>

000000000000bed8 <.LBB101_1536>:
    bed8:	07d00093          	li	ra,125
    bedc:	90143023          	sd	ra,-1792(s0)
    bee0:	91043083          	ld	ra,-1776(s0)
    bee4:	8d20c663          	blt	ra,s2,afb0 <.LBB101_1281>

000000000000bee8 <.LBB101_1537>:
    bee8:	07d00093          	li	ra,125
    beec:	90143823          	sd	ra,-1776(s0)
    bef0:	92043083          	ld	ra,-1760(s0)
    bef4:	8d20c263          	blt	ra,s2,afb8 <.LBB101_1282>

000000000000bef8 <.LBB101_1538>:
    bef8:	07d00093          	li	ra,125
    befc:	92143023          	sd	ra,-1760(s0)
    bf00:	93043083          	ld	ra,-1744(s0)
    bf04:	8b20ce63          	blt	ra,s2,afc0 <.LBB101_1283>

000000000000bf08 <.LBB101_1539>:
    bf08:	07d00093          	li	ra,125
    bf0c:	92143823          	sd	ra,-1744(s0)
    bf10:	00050c93          	mv	s9,a0
    bf14:	94043083          	ld	ra,-1728(s0)
    bf18:	8b20ca63          	blt	ra,s2,afcc <.LBB101_1284>

000000000000bf1c <.LBB101_1540>:
    bf1c:	07d00093          	li	ra,125
    bf20:	94143023          	sd	ra,-1728(s0)
    bf24:	000e8513          	mv	a0,t4
    bf28:	95043083          	ld	ra,-1712(s0)
    bf2c:	0120d463          	bge	ra,s2,bf34 <.LBB101_1541>
    bf30:	b24f406f          	j	254 <.LBB101_3>

000000000000bf34 <.LBB101_1541>:
    bf34:	07d00093          	li	ra,125
    bf38:	b1cf406f          	j	254 <.LBB101_3>

000000000000bf3c <.LBB101_1542>:
    bf3c:	00000593          	li	a1,0
    bf40:	0000c537          	lui	a0,0xc
    bf44:	8805051b          	addiw	a0,a0,-1920 # b880 <.LBB101_1422+0x8>
    bf48:	00001637          	lui	a2,0x1
    bf4c:	40c40633          	sub	a2,s0,a2
    bf50:	b2863603          	ld	a2,-1240(a2) # b28 <.LBB101_3+0x8d4>
    bf54:	00a60533          	add	a0,a2,a0
    bf58:	d0a43823          	sd	a0,-752(s0)
    bf5c:	0000b537          	lui	a0,0xb
    bf60:	4005051b          	addiw	a0,a0,1024 # b400 <.LBB101_1350+0x8>
    bf64:	00a60533          	add	a0,a2,a0
    bf68:	d0a43423          	sd	a0,-760(s0)
    bf6c:	699b0537          	lui	a0,0x699b0
    bf70:	b425051b          	addiw	a0,a0,-1214 # 699afb42 <.Lfunc_end80+0x6998717a>
    bf74:	e2a43423          	sd	a0,-472(s0)
    bf78:	00100513          	li	a0,1
    bf7c:	02751513          	slli	a0,a0,0x27
    bf80:	e2a43023          	sd	a0,-480(s0)
    bf84:	00f00513          	li	a0,15
    bf88:	00a51513          	slli	a0,a0,0xa
    bf8c:	d0a43023          	sd	a0,-768(s0)
    bf90:	1640006f          	j	c0f4 <.LBB101_1544>

000000000000bf94 <.LBB101_1543>:
    bf94:	00248993          	addi	s3,s1,2 # ffffffffc0000002 <.Lfunc_end80+0xffffffffbffd763a>
    bf98:	000014b7          	lui	s1,0x1
    bf9c:	409404b3          	sub	s1,s0,s1
    bfa0:	b484b483          	ld	s1,-1208(s1) # b48 <.LBB101_3+0x8f4>
    bfa4:	e1843083          	ld	ra,-488(s0)
    bfa8:	001484b3          	add	s1,s1,ra
    bfac:	d0043083          	ld	ra,-768(s0)
    bfb0:	001484b3          	add	s1,s1,ra
    bfb4:	013481a3          	sb	s3,3(s1)
    bfb8:	00230313          	addi	t1,t1,2
    bfbc:	00648123          	sb	t1,2(s1)
    bfc0:	00258593          	addi	a1,a1,2
    bfc4:	00b480a3          	sb	a1,1(s1)
    bfc8:	00280813          	addi	a6,a6,2
    bfcc:	01048023          	sb	a6,0(s1)
    bfd0:	002b8b93          	addi	s7,s7,2
    bfd4:	01748223          	sb	s7,4(s1)
    bfd8:	002a0a13          	addi	s4,s4,2
    bfdc:	014482a3          	sb	s4,5(s1)
    bfe0:	00270713          	addi	a4,a4,2
    bfe4:	00e48323          	sb	a4,6(s1)
    bfe8:	00268693          	addi	a3,a3,2
    bfec:	00d483a3          	sb	a3,7(s1)
    bff0:	00260613          	addi	a2,a2,2
    bff4:	00c48423          	sb	a2,8(s1)
    bff8:	002d8d93          	addi	s11,s11,2
    bffc:	01b484a3          	sb	s11,9(s1)
    c000:	002c8c93          	addi	s9,s9,2
    c004:	01948523          	sb	s9,10(s1)
    c008:	002e0e13          	addi	t3,t3,2 # ffffffffc0000002 <.Lfunc_end80+0xffffffffbffd763a>
    c00c:	01c485a3          	sb	t3,11(s1)
    c010:	002f8f93          	addi	t6,t6,2
    c014:	01f48623          	sb	t6,12(s1)
    c018:	002d0d13          	addi	s10,s10,2
    c01c:	01a486a3          	sb	s10,13(s1)
    c020:	002c0c13          	addi	s8,s8,2 # ffffffffc0000002 <.Lfunc_end80+0xffffffffbffd763a>
    c024:	01848723          	sb	s8,14(s1)
    c028:	002a8a93          	addi	s5,s5,2 # 1fe002 <.Lfunc_end80+0x1d563a>
    c02c:	015487a3          	sb	s5,15(s1)
    c030:	002f0f13          	addi	t5,t5,2
    c034:	01e48823          	sb	t5,16(s1)
    c038:	00250513          	addi	a0,a0,2
    c03c:	00a488a3          	sb	a0,17(s1)
    c040:	00290913          	addi	s2,s2,2 # ffffffffc0000002 <.Lfunc_end80+0xffffffffbffd763a>
    c044:	01248923          	sb	s2,18(s1)
    c048:	002e8e93          	addi	t4,t4,2 # ffffffffc0000002 <.Lfunc_end80+0xffffffffbffd763a>
    c04c:	01d489a3          	sb	t4,19(s1)
    c050:	00238393          	addi	t2,t2,2
    c054:	00748a23          	sb	t2,20(s1)
    c058:	00278793          	addi	a5,a5,2
    c05c:	00f48aa3          	sb	a5,21(s1)
    c060:	002b0b13          	addi	s6,s6,2
    c064:	01648b23          	sb	s6,22(s1)
    c068:	00288893          	addi	a7,a7,2
    c06c:	01148ba3          	sb	a7,23(s1)
    c070:	00028593          	mv	a1,t0
    c074:	f5843283          	ld	t0,-168(s0)
    c078:	00228293          	addi	t0,t0,2
    c07c:	00548c23          	sb	t0,24(s1)
    c080:	f6043503          	ld	a0,-160(s0)
    c084:	00250513          	addi	a0,a0,2
    c088:	00a48ca3          	sb	a0,25(s1)
    c08c:	f6843503          	ld	a0,-152(s0)
    c090:	00250513          	addi	a0,a0,2
    c094:	00a48d23          	sb	a0,26(s1)
    c098:	f7043503          	ld	a0,-144(s0)
    c09c:	00250513          	addi	a0,a0,2
    c0a0:	00a48da3          	sb	a0,27(s1)
    c0a4:	f7843503          	ld	a0,-136(s0)
    c0a8:	00250513          	addi	a0,a0,2
    c0ac:	00a48e23          	sb	a0,28(s1)
    c0b0:	f8043503          	ld	a0,-128(s0)
    c0b4:	00250513          	addi	a0,a0,2
    c0b8:	00a48ea3          	sb	a0,29(s1)
    c0bc:	f8843503          	ld	a0,-120(s0)
    c0c0:	00250513          	addi	a0,a0,2
    c0c4:	00a48f23          	sb	a0,30(s1)
    c0c8:	00258513          	addi	a0,a1,2
    c0cc:	00a48fa3          	sb	a0,31(s1)
    c0d0:	e1843603          	ld	a2,-488(s0)
    c0d4:	02060593          	addi	a1,a2,32
    c0d8:	00001537          	lui	a0,0x1
    c0dc:	40a40533          	sub	a0,s0,a0
    c0e0:	b5053303          	ld	t1,-1200(a0) # b50 <.LBB101_3+0x8fc>
    c0e4:	02030313          	addi	t1,t1,32
    c0e8:	12000513          	li	a0,288
    c0ec:	00a66463          	bltu	a2,a0,c0f4 <.LBB101_1544>
    c0f0:	1280106f          	j	d218 <.LBB101_1738>

000000000000c0f4 <.LBB101_1544>:
    c0f4:	ee043c23          	sd	zero,-264(s0)
    c0f8:	ee043823          	sd	zero,-272(s0)
    c0fc:	ee043423          	sd	zero,-280(s0)
    c100:	f0043023          	sd	zero,-256(s0)
    c104:	ee043023          	sd	zero,-288(s0)
    c108:	00000c93          	li	s9,0
    c10c:	ec043c23          	sd	zero,-296(s0)
    c110:	ec043823          	sd	zero,-304(s0)
    c114:	00000093          	li	ra,0
    c118:	ec043423          	sd	zero,-312(s0)
    c11c:	00000c13          	li	s8,0
    c120:	00000b93          	li	s7,0
    c124:	00000f93          	li	t6,0
    c128:	f0043423          	sd	zero,-248(s0)
    c12c:	ec043023          	sd	zero,-320(s0)
    c130:	00000d93          	li	s11,0
    c134:	00000e93          	li	t4,0
    c138:	f2043423          	sd	zero,-216(s0)
    c13c:	f2043823          	sd	zero,-208(s0)
    c140:	00000713          	li	a4,0
    c144:	00000693          	li	a3,0
    c148:	00000293          	li	t0,0
    c14c:	00000613          	li	a2,0
    c150:	00000513          	li	a0,0
    c154:	00000913          	li	s2,0
    c158:	00000893          	li	a7,0
    c15c:	00000e13          	li	t3,0
    c160:	00000f13          	li	t5,0
    c164:	00000813          	li	a6,0
    c168:	f2043c23          	sd	zero,-200(s0)
    c16c:	00000793          	li	a5,0
    c170:	00000493          	li	s1,0
    c174:	e0b43c23          	sd	a1,-488(s0)
    c178:	0004b5b7          	lui	a1,0x4b
    c17c:	d0843383          	ld	t2,-760(s0)
    c180:	000019b7          	lui	s3,0x1
    c184:	413409b3          	sub	s3,s0,s3
    c188:	b469b823          	sd	t1,-1200(s3) # b50 <.LBB101_3+0x8fc>

000000000000c18c <.LBB101_1545>:
    c18c:	e8743423          	sd	t2,-376(s0)
    c190:	e8b43823          	sd	a1,-368(s0)
    c194:	f1243823          	sd	s2,-240(s0)
    c198:	f0543c23          	sd	t0,-232(s0)
    c19c:	e8143c23          	sd	ra,-360(s0)
    c1a0:	eb843023          	sd	s8,-352(s0)
    c1a4:	eb743423          	sd	s7,-344(s0)
    c1a8:	ebf43823          	sd	t6,-336(s0)
    c1ac:	f3b43023          	sd	s11,-224(s0)
    c1b0:	f7d43423          	sd	t4,-152(s0)
    c1b4:	f6e43823          	sd	a4,-144(s0)
    c1b8:	f6d43c23          	sd	a3,-136(s0)
    c1bc:	f8c43023          	sd	a2,-128(s0)
    c1c0:	f8a43423          	sd	a0,-120(s0)
    c1c4:	f5143023          	sd	a7,-192(s0)
    c1c8:	ebc43c23          	sd	t3,-328(s0)
    c1cc:	f5e43423          	sd	t5,-184(s0)
    c1d0:	f5043823          	sd	a6,-176(s0)
    c1d4:	f4f43c23          	sd	a5,-168(s0)
    c1d8:	f6943023          	sd	s1,-160(s0)
    c1dc:	00038483          	lb	s1,0(t2)
    c1e0:	00630503          	lb	a0,6(t1)
    c1e4:	e4a43023          	sd	a0,-448(s0)
    c1e8:	00730503          	lb	a0,7(t1)
    c1ec:	e2a43c23          	sd	a0,-456(s0)
    c1f0:	00830503          	lb	a0,8(t1)
    c1f4:	e2a43823          	sd	a0,-464(s0)
    c1f8:	00930e83          	lb	t4,9(t1)
    c1fc:	000c8693          	mv	a3,s9
    c200:	00a30c83          	lb	s9,10(t1)
    c204:	00b30f83          	lb	t6,11(t1)
    c208:	00c30e03          	lb	t3,12(t1)
    c20c:	00d30583          	lb	a1,13(t1)
    c210:	00e30603          	lb	a2,14(t1)
    c214:	00f30f03          	lb	t5,15(t1)
    c218:	01030a03          	lb	s4,16(t1)
    c21c:	01130b83          	lb	s7,17(t1)
    c220:	01230c03          	lb	s8,18(t1)
    c224:	01330983          	lb	s3,19(t1)
    c228:	01430d83          	lb	s11,20(t1)
    c22c:	01530b03          	lb	s6,21(t1)
    c230:	01630283          	lb	t0,22(t1)
    c234:	01730083          	lb	ra,23(t1)
    c238:	01830903          	lb	s2,24(t1)
    c23c:	01930783          	lb	a5,25(t1)
    c240:	01a30383          	lb	t2,26(t1)
    c244:	01b30d03          	lb	s10,27(t1)
    c248:	01f30883          	lb	a7,31(t1)
    c24c:	01e30503          	lb	a0,30(t1)
    c250:	01d30803          	lb	a6,29(t1)
    c254:	01c30a83          	lb	s5,28(t1)
    c258:	03148733          	mul	a4,s1,a7
    c25c:	e8e43023          	sd	a4,-384(s0)
    c260:	02a48533          	mul	a0,s1,a0
    c264:	e6a43c23          	sd	a0,-392(s0)
    c268:	03048533          	mul	a0,s1,a6
    c26c:	e6a43823          	sd	a0,-400(s0)
    c270:	03548533          	mul	a0,s1,s5
    c274:	e6a43423          	sd	a0,-408(s0)
    c278:	03a48533          	mul	a0,s1,s10
    c27c:	e6a43023          	sd	a0,-416(s0)
    c280:	02748533          	mul	a0,s1,t2
    c284:	e4a43c23          	sd	a0,-424(s0)
    c288:	02f48533          	mul	a0,s1,a5
    c28c:	e4a43423          	sd	a0,-440(s0)
    c290:	03248533          	mul	a0,s1,s2
    c294:	e4a43823          	sd	a0,-432(s0)
    c298:	02148d33          	mul	s10,s1,ra
    c29c:	02548933          	mul	s2,s1,t0
    c2a0:	036483b3          	mul	t2,s1,s6
    c2a4:	03b482b3          	mul	t0,s1,s11
    c2a8:	033489b3          	mul	s3,s1,s3
    c2ac:	03848ab3          	mul	s5,s1,s8
    c2b0:	03748b33          	mul	s6,s1,s7
    c2b4:	03448a33          	mul	s4,s1,s4
    c2b8:	03e488b3          	mul	a7,s1,t5
    c2bc:	02c48833          	mul	a6,s1,a2
    c2c0:	02b487b3          	mul	a5,s1,a1
    c2c4:	03c48e33          	mul	t3,s1,t3
    c2c8:	03f48fb3          	mul	t6,s1,t6
    c2cc:	03948bb3          	mul	s7,s1,s9
    c2d0:	03d48eb3          	mul	t4,s1,t4
    c2d4:	e3043503          	ld	a0,-464(s0)
    c2d8:	02a48c33          	mul	s8,s1,a0
    c2dc:	00530c83          	lb	s9,5(t1)
    c2e0:	00430d83          	lb	s11,4(t1)
    c2e4:	e3843503          	ld	a0,-456(s0)
    c2e8:	02a480b3          	mul	ra,s1,a0
    c2ec:	e4043503          	ld	a0,-448(s0)
    c2f0:	02a48533          	mul	a0,s1,a0
    c2f4:	03948cb3          	mul	s9,s1,s9
    c2f8:	03b48db3          	mul	s11,s1,s11
    c2fc:	00330f03          	lb	t5,3(t1)
    c300:	00030603          	lb	a2,0(t1)
    c304:	00130703          	lb	a4,1(t1)
    c308:	00230583          	lb	a1,2(t1)
    c30c:	03e48f33          	mul	t5,s1,t5
    c310:	02c48633          	mul	a2,s1,a2
    c314:	02e48733          	mul	a4,s1,a4
    c318:	02b485b3          	mul	a1,s1,a1
    c31c:	ee843483          	ld	s1,-280(s0)
    c320:	009584b3          	add	s1,a1,s1
    c324:	ee943423          	sd	s1,-280(s0)
    c328:	ef043583          	ld	a1,-272(s0)
    c32c:	00b705b3          	add	a1,a4,a1
    c330:	eeb43823          	sd	a1,-272(s0)
    c334:	ef843583          	ld	a1,-264(s0)
    c338:	00b605b3          	add	a1,a2,a1
    c33c:	eeb43c23          	sd	a1,-264(s0)
    c340:	f0043583          	ld	a1,-256(s0)
    c344:	00bf05b3          	add	a1,t5,a1
    c348:	f0b43023          	sd	a1,-256(s0)
    c34c:	ee043583          	ld	a1,-288(s0)
    c350:	00bd85b3          	add	a1,s11,a1
    c354:	eeb43023          	sd	a1,-288(s0)
    c358:	00dc8cb3          	add	s9,s9,a3
    c35c:	ed843583          	ld	a1,-296(s0)
    c360:	00b505b3          	add	a1,a0,a1
    c364:	ecb43c23          	sd	a1,-296(s0)
    c368:	ed043503          	ld	a0,-304(s0)
    c36c:	00a08533          	add	a0,ra,a0
    c370:	eca43823          	sd	a0,-304(s0)
    c374:	e9843083          	ld	ra,-360(s0)
    c378:	f2043d83          	ld	s11,-224(s0)
    c37c:	001c00b3          	add	ra,s8,ra
    c380:	ea043c03          	ld	s8,-352(s0)
    c384:	f6043483          	ld	s1,-160(s0)
    c388:	ec843503          	ld	a0,-312(s0)
    c38c:	00ae8533          	add	a0,t4,a0
    c390:	eca43423          	sd	a0,-312(s0)
    c394:	018b8c33          	add	s8,s7,s8
    c398:	ea843b83          	ld	s7,-344(s0)
    c39c:	017f8bb3          	add	s7,t6,s7
    c3a0:	eb043f83          	ld	t6,-336(s0)
    c3a4:	01fe0fb3          	add	t6,t3,t6
    c3a8:	eb843e03          	ld	t3,-328(s0)
    c3ac:	f0843503          	ld	a0,-248(s0)
    c3b0:	00a78533          	add	a0,a5,a0
    c3b4:	f0a43423          	sd	a0,-248(s0)
    c3b8:	ec043503          	ld	a0,-320(s0)
    c3bc:	00a80533          	add	a0,a6,a0
    c3c0:	eca43023          	sd	a0,-320(s0)
    c3c4:	f5843783          	ld	a5,-168(s0)
    c3c8:	01b88db3          	add	s11,a7,s11
    c3cc:	f5043803          	ld	a6,-176(s0)
    c3d0:	f6843503          	ld	a0,-152(s0)
    c3d4:	00aa0533          	add	a0,s4,a0
    c3d8:	f6a43423          	sd	a0,-152(s0)
    c3dc:	f6843e83          	ld	t4,-152(s0)
    c3e0:	f2843503          	ld	a0,-216(s0)
    c3e4:	00ab0533          	add	a0,s6,a0
    c3e8:	f2a43423          	sd	a0,-216(s0)
    c3ec:	f3043503          	ld	a0,-208(s0)
    c3f0:	00aa8533          	add	a0,s5,a0
    c3f4:	f2a43823          	sd	a0,-208(s0)
    c3f8:	f7043503          	ld	a0,-144(s0)
    c3fc:	00a98533          	add	a0,s3,a0
    c400:	f6a43823          	sd	a0,-144(s0)
    c404:	f7043703          	ld	a4,-144(s0)
    c408:	f7843503          	ld	a0,-136(s0)
    c40c:	00a28533          	add	a0,t0,a0
    c410:	f1843283          	ld	t0,-232(s0)
    c414:	f6a43c23          	sd	a0,-136(s0)
    c418:	f7843683          	ld	a3,-136(s0)
    c41c:	005382b3          	add	t0,t2,t0
    c420:	e8843383          	ld	t2,-376(s0)
    c424:	f4043883          	ld	a7,-192(s0)
    c428:	f4843f03          	ld	t5,-184(s0)
    c42c:	f8043503          	ld	a0,-128(s0)
    c430:	00a90533          	add	a0,s2,a0
    c434:	f1043903          	ld	s2,-240(s0)
    c438:	f8a43023          	sd	a0,-128(s0)
    c43c:	f8043603          	ld	a2,-128(s0)
    c440:	f8843503          	ld	a0,-120(s0)
    c444:	00ad0533          	add	a0,s10,a0
    c448:	f8a43423          	sd	a0,-120(s0)
    c44c:	f8843503          	ld	a0,-120(s0)
    c450:	e5043583          	ld	a1,-432(s0)
    c454:	01258933          	add	s2,a1,s2
    c458:	e4843583          	ld	a1,-440(s0)
    c45c:	011588b3          	add	a7,a1,a7
    c460:	e5843583          	ld	a1,-424(s0)
    c464:	01c58e33          	add	t3,a1,t3
    c468:	e6043583          	ld	a1,-416(s0)
    c46c:	01e58f33          	add	t5,a1,t5
    c470:	e6843583          	ld	a1,-408(s0)
    c474:	01058833          	add	a6,a1,a6
    c478:	f3843583          	ld	a1,-200(s0)
    c47c:	e7043983          	ld	s3,-400(s0)
    c480:	00b985b3          	add	a1,s3,a1
    c484:	f2b43c23          	sd	a1,-200(s0)
    c488:	e9043583          	ld	a1,-368(s0)
    c48c:	e7843983          	ld	s3,-392(s0)
    c490:	00f987b3          	add	a5,s3,a5
    c494:	e8043983          	ld	s3,-384(s0)
    c498:	009984b3          	add	s1,s3,s1
    c49c:	14030313          	addi	t1,t1,320
    c4a0:	ec058593          	addi	a1,a1,-320 # 4aec0 <.Lfunc_end80+0x224f8>
    c4a4:	00138393          	addi	t2,t2,1
    c4a8:	ce0592e3          	bnez	a1,c18c <.LBB101_1545>
    c4ac:	ee843a83          	ld	s5,-280(s0)
    c4b0:	ef043d03          	ld	s10,-272(s0)
    c4b4:	ef843a03          	ld	s4,-264(s0)
    c4b8:	ee043983          	ld	s3,-288(s0)
    c4bc:	000c8b13          	mv	s6,s9
    c4c0:	ed843e83          	ld	t4,-296(s0)
    c4c4:	ed043303          	ld	t1,-304(s0)
    c4c8:	ec843383          	ld	t2,-312(s0)
    c4cc:	f0543c23          	sd	t0,-232(s0)
    c4d0:	f1243823          	sd	s2,-240(s0)
    c4d4:	e1843503          	ld	a0,-488(s0)
    c4d8:	00251513          	slli	a0,a0,0x2
    c4dc:	000015b7          	lui	a1,0x1
    c4e0:	40b405b3          	sub	a1,s0,a1
    c4e4:	ba05b583          	ld	a1,-1120(a1) # ba0 <.LBB101_3+0x94c>
    c4e8:	00a585b3          	add	a1,a1,a0
    c4ec:	d1043603          	ld	a2,-752(s0)
    c4f0:	00062603          	lw	a2,0(a2)
    c4f4:	000016b7          	lui	a3,0x1
    c4f8:	40d406b3          	sub	a3,s0,a3
    c4fc:	b986b683          	ld	a3,-1128(a3) # b98 <.LBB101_3+0x944>
    c500:	00a68533          	add	a0,a3,a0
    c504:	00050c93          	mv	s9,a0
    c508:	00c52503          	lw	a0,12(a0)
    c50c:	00c5a683          	lw	a3,12(a1)
    c510:	00461713          	slli	a4,a2,0x4
    c514:	00c702b3          	add	t0,a4,a2
    c518:	00751513          	slli	a0,a0,0x7
    c51c:	f0043603          	ld	a2,-256(s0)
    c520:	00d606b3          	add	a3,a2,a3
    c524:	00a68533          	add	a0,a3,a0
    c528:	001fe937          	lui	s2,0x1fe
    c52c:	01228633          	add	a2,t0,s2
    c530:	00c5053b          	addw	a0,a0,a2
    c534:	40000637          	lui	a2,0x40000
    c538:	f0c43023          	sd	a2,-256(s0)
    c53c:	eaa43c23          	sd	a0,-328(s0)
    c540:	00055463          	bgez	a0,c548 <.LBB101_1548>
    c544:	c0000637          	lui	a2,0xc0000

000000000000c548 <.LBB101_1548>:
    c548:	eac43823          	sd	a2,-336(s0)
    c54c:	008ca503          	lw	a0,8(s9)
    c550:	0085a603          	lw	a2,8(a1)
    c554:	00751513          	slli	a0,a0,0x7
    c558:	00ca8633          	add	a2,s5,a2
    c55c:	00a60533          	add	a0,a2,a0
    c560:	01228633          	add	a2,t0,s2
    c564:	00c5053b          	addw	a0,a0,a2
    c568:	400006b7          	lui	a3,0x40000
    c56c:	eea43423          	sd	a0,-280(s0)
    c570:	00055463          	bgez	a0,c578 <.LBB101_1550>
    c574:	c00006b7          	lui	a3,0xc0000

000000000000c578 <.LBB101_1550>:
    c578:	f4f43c23          	sd	a5,-168(s0)
    c57c:	004ca503          	lw	a0,4(s9)
    c580:	0045a603          	lw	a2,4(a1)
    c584:	00751513          	slli	a0,a0,0x7
    c588:	00cd0633          	add	a2,s10,a2
    c58c:	00a60533          	add	a0,a2,a0
    c590:	01228633          	add	a2,t0,s2
    c594:	00c5053b          	addw	a0,a0,a2
    c598:	40000737          	lui	a4,0x40000
    c59c:	eea43823          	sd	a0,-272(s0)
    c5a0:	00055463          	bgez	a0,c5a8 <.LBB101_1552>
    c5a4:	c0000737          	lui	a4,0xc0000

000000000000c5a8 <.LBB101_1552>:
    c5a8:	f5043823          	sd	a6,-176(s0)
    c5ac:	000ca503          	lw	a0,0(s9)
    c5b0:	0005a603          	lw	a2,0(a1)
    c5b4:	00751513          	slli	a0,a0,0x7
    c5b8:	00ca0633          	add	a2,s4,a2
    c5bc:	00a60533          	add	a0,a2,a0
    c5c0:	01228633          	add	a2,t0,s2
    c5c4:	00c5053b          	addw	a0,a0,a2
    c5c8:	400007b7          	lui	a5,0x40000
    c5cc:	eaa43423          	sd	a0,-344(s0)
    c5d0:	00055463          	bgez	a0,c5d8 <.LBB101_1554>
    c5d4:	c00007b7          	lui	a5,0xc0000

000000000000c5d8 <.LBB101_1554>:
    c5d8:	010ca503          	lw	a0,16(s9)
    c5dc:	0105a603          	lw	a2,16(a1)
    c5e0:	00751513          	slli	a0,a0,0x7
    c5e4:	00c98633          	add	a2,s3,a2
    c5e8:	00a60533          	add	a0,a2,a0
    c5ec:	01228633          	add	a2,t0,s2
    c5f0:	00c5053b          	addw	a0,a0,a2
    c5f4:	40000837          	lui	a6,0x40000
    c5f8:	eaa43023          	sd	a0,-352(s0)
    c5fc:	00055463          	bgez	a0,c604 <.LBB101_1556>
    c600:	c0000837          	lui	a6,0xc0000

000000000000c604 <.LBB101_1556>:
    c604:	014ca503          	lw	a0,20(s9)
    c608:	0145a603          	lw	a2,20(a1)
    c60c:	00751513          	slli	a0,a0,0x7
    c610:	00cb0633          	add	a2,s6,a2
    c614:	00a60533          	add	a0,a2,a0
    c618:	01228633          	add	a2,t0,s2
    c61c:	00c5053b          	addw	a0,a0,a2
    c620:	40000637          	lui	a2,0x40000
    c624:	e8a43c23          	sd	a0,-360(s0)
    c628:	00055463          	bgez	a0,c630 <.LBB101_1558>
    c62c:	c0000637          	lui	a2,0xc0000

000000000000c630 <.LBB101_1558>:
    c630:	e8c43823          	sd	a2,-368(s0)
    c634:	018ca503          	lw	a0,24(s9)
    c638:	0185a603          	lw	a2,24(a1)
    c63c:	00751513          	slli	a0,a0,0x7
    c640:	00ce8633          	add	a2,t4,a2
    c644:	00a60533          	add	a0,a2,a0
    c648:	01228633          	add	a2,t0,s2
    c64c:	00c5053b          	addw	a0,a0,a2
    c650:	40000637          	lui	a2,0x40000
    c654:	e8a43423          	sd	a0,-376(s0)
    c658:	00055463          	bgez	a0,c660 <.LBB101_1560>
    c65c:	c0000637          	lui	a2,0xc0000

000000000000c660 <.LBB101_1560>:
    c660:	e8c43023          	sd	a2,-384(s0)
    c664:	01cca503          	lw	a0,28(s9)
    c668:	01c5a603          	lw	a2,28(a1)
    c66c:	00751513          	slli	a0,a0,0x7
    c670:	00c30633          	add	a2,t1,a2
    c674:	00a60533          	add	a0,a2,a0
    c678:	01228633          	add	a2,t0,s2
    c67c:	00c5053b          	addw	a0,a0,a2
    c680:	40000637          	lui	a2,0x40000
    c684:	e6a43c23          	sd	a0,-392(s0)
    c688:	00055463          	bgez	a0,c690 <.LBB101_1562>
    c68c:	c0000637          	lui	a2,0xc0000

000000000000c690 <.LBB101_1562>:
    c690:	f3b43023          	sd	s11,-224(s0)
    c694:	f5143023          	sd	a7,-192(s0)
    c698:	e6c43823          	sd	a2,-400(s0)
    c69c:	000e0a93          	mv	s5,t3
    c6a0:	f5e43423          	sd	t5,-184(s0)
    c6a4:	f6943023          	sd	s1,-160(s0)
    c6a8:	ed043823          	sd	a6,-304(s0)
    c6ac:	ecf43c23          	sd	a5,-296(s0)
    c6b0:	eee43023          	sd	a4,-288(s0)
    c6b4:	eed43c23          	sd	a3,-264(s0)
    c6b8:	020ca503          	lw	a0,32(s9)
    c6bc:	0205a603          	lw	a2,32(a1)
    c6c0:	00751513          	slli	a0,a0,0x7
    c6c4:	00c08633          	add	a2,ra,a2
    c6c8:	00a60533          	add	a0,a2,a0
    c6cc:	00028d13          	mv	s10,t0
    c6d0:	01228633          	add	a2,t0,s2
    c6d4:	00c5053b          	addw	a0,a0,a2
    c6d8:	40000637          	lui	a2,0x40000
    c6dc:	e6a43423          	sd	a0,-408(s0)
    c6e0:	00055463          	bgez	a0,c6e8 <.LBB101_1564>
    c6e4:	c0000637          	lui	a2,0xc0000

000000000000c6e8 <.LBB101_1564>:
    c6e8:	e6c43023          	sd	a2,-416(s0)
    c6ec:	0245a703          	lw	a4,36(a1)
    c6f0:	0285a603          	lw	a2,40(a1)
    c6f4:	02c5a503          	lw	a0,44(a1)
    c6f8:	0305aa03          	lw	s4,48(a1)
    c6fc:	0345a303          	lw	t1,52(a1)
    c700:	0385a803          	lw	a6,56(a1)
    c704:	03c5a083          	lw	ra,60(a1)
    c708:	0405a683          	lw	a3,64(a1)
    c70c:	0445a783          	lw	a5,68(a1)
    c710:	def43823          	sd	a5,-528(s0)
    c714:	0485a783          	lw	a5,72(a1)
    c718:	dcf43c23          	sd	a5,-552(s0)
    c71c:	04c5a783          	lw	a5,76(a1)
    c720:	daf43823          	sd	a5,-592(s0)
    c724:	0505a783          	lw	a5,80(a1)
    c728:	def43c23          	sd	a5,-520(s0)
    c72c:	0545a783          	lw	a5,84(a1)
    c730:	d4f43023          	sd	a5,-704(s0)
    c734:	0585a783          	lw	a5,88(a1)
    c738:	d4f43823          	sd	a5,-688(s0)
    c73c:	05c5a783          	lw	a5,92(a1)
    c740:	d6f43023          	sd	a5,-672(s0)
    c744:	0605a783          	lw	a5,96(a1)
    c748:	d6f43823          	sd	a5,-656(s0)
    c74c:	0645a783          	lw	a5,100(a1)
    c750:	d8f43023          	sd	a5,-640(s0)
    c754:	0685a783          	lw	a5,104(a1)
    c758:	d8f43c23          	sd	a5,-616(s0)
    c75c:	06c5a783          	lw	a5,108(a1)
    c760:	daf43423          	sd	a5,-600(s0)
    c764:	0705a783          	lw	a5,112(a1)
    c768:	daf43c23          	sd	a5,-584(s0)
    c76c:	0745a783          	lw	a5,116(a1)
    c770:	dcf43023          	sd	a5,-576(s0)
    c774:	0785a783          	lw	a5,120(a1)
    c778:	dcf43423          	sd	a5,-568(s0)
    c77c:	07c5a583          	lw	a1,124(a1)
    c780:	deb43023          	sd	a1,-544(s0)
    c784:	024ca583          	lw	a1,36(s9)
    c788:	028ca783          	lw	a5,40(s9)
    c78c:	00e38733          	add	a4,t2,a4
    c790:	02cca383          	lw	t2,44(s9)
    c794:	00759593          	slli	a1,a1,0x7
    c798:	00b70e33          	add	t3,a4,a1
    c79c:	030ca283          	lw	t0,48(s9)
    c7a0:	034ca883          	lw	a7,52(s9)
    c7a4:	038ca483          	lw	s1,56(s9)
    c7a8:	03cca703          	lw	a4,60(s9)
    c7ac:	040cad83          	lw	s11,64(s9)
    c7b0:	044ca983          	lw	s3,68(s9)
    c7b4:	048ca583          	lw	a1,72(s9)
    c7b8:	04ccaf03          	lw	t5,76(s9)
    c7bc:	050cae83          	lw	t4,80(s9)
    c7c0:	d9d43823          	sd	t4,-624(s0)
    c7c4:	054cae83          	lw	t4,84(s9)
    c7c8:	d1d43c23          	sd	t4,-744(s0)
    c7cc:	058cae83          	lw	t4,88(s9)
    c7d0:	d3d43023          	sd	t4,-736(s0)
    c7d4:	05ccae83          	lw	t4,92(s9)
    c7d8:	d3d43423          	sd	t4,-728(s0)
    c7dc:	060cae83          	lw	t4,96(s9)
    c7e0:	d3d43823          	sd	t4,-720(s0)
    c7e4:	064cae83          	lw	t4,100(s9)
    c7e8:	d3d43c23          	sd	t4,-712(s0)
    c7ec:	068cae83          	lw	t4,104(s9)
    c7f0:	d5d43423          	sd	t4,-696(s0)
    c7f4:	06ccae83          	lw	t4,108(s9)
    c7f8:	d5d43c23          	sd	t4,-680(s0)
    c7fc:	070cae83          	lw	t4,112(s9)
    c800:	d7d43423          	sd	t4,-664(s0)
    c804:	074cae83          	lw	t4,116(s9)
    c808:	d7d43c23          	sd	t4,-648(s0)
    c80c:	078cae83          	lw	t4,120(s9)
    c810:	d9d43423          	sd	t4,-632(s0)
    c814:	07ccae83          	lw	t4,124(s9)
    c818:	dbd43023          	sd	t4,-608(s0)
    c81c:	012d0eb3          	add	t4,s10,s2
    c820:	01de0e3b          	addw	t3,t3,t4
    c824:	40000eb7          	lui	t4,0x40000
    c828:	edc43423          	sd	t3,-312(s0)
    c82c:	000e5463          	bgez	t3,c834 <.LBB101_1566>
    c830:	c0000eb7          	lui	t4,0xc0000

000000000000c834 <.LBB101_1566>:
    c834:	00779793          	slli	a5,a5,0x7
    c838:	00cc0633          	add	a2,s8,a2
    c83c:	00f60633          	add	a2,a2,a5
    c840:	012d07b3          	add	a5,s10,s2
    c844:	00f6063b          	addw	a2,a2,a5
    c848:	400007b7          	lui	a5,0x40000
    c84c:	e4c43c23          	sd	a2,-424(s0)
    c850:	00065463          	bgez	a2,c858 <.LBB101_1568>
    c854:	c00007b7          	lui	a5,0xc0000

000000000000c858 <.LBB101_1568>:
    c858:	00739393          	slli	t2,t2,0x7
    c85c:	00ab8533          	add	a0,s7,a0
    c860:	00750533          	add	a0,a0,t2
    c864:	012d0633          	add	a2,s10,s2
    c868:	00c5053b          	addw	a0,a0,a2
    c86c:	40000637          	lui	a2,0x40000
    c870:	000a8e13          	mv	t3,s5
    c874:	ec043b03          	ld	s6,-320(s0)
    c878:	f0843c83          	ld	s9,-248(s0)
    c87c:	e4a43423          	sd	a0,-440(s0)
    c880:	00055463          	bgez	a0,c888 <.LBB101_1570>
    c884:	c0000637          	lui	a2,0xc0000

000000000000c888 <.LBB101_1570>:
    c888:	e4c43023          	sd	a2,-448(s0)
    c88c:	00729293          	slli	t0,t0,0x7
    c890:	014f8a33          	add	s4,t6,s4
    c894:	005a02b3          	add	t0,s4,t0
    c898:	000d0a13          	mv	s4,s10
    c89c:	012d0533          	add	a0,s10,s2
    c8a0:	00a2853b          	addw	a0,t0,a0
    c8a4:	400002b7          	lui	t0,0x40000
    c8a8:	f1043603          	ld	a2,-240(s0)
    c8ac:	e2a43c23          	sd	a0,-456(s0)
    c8b0:	00055463          	bgez	a0,c8b8 <.LBB101_1572>
    c8b4:	c00002b7          	lui	t0,0xc0000

000000000000c8b8 <.LBB101_1572>:
    c8b8:	e2543823          	sd	t0,-464(s0)
    c8bc:	e4f43823          	sd	a5,-432(s0)
    c8c0:	00789893          	slli	a7,a7,0x7
    c8c4:	006c8333          	add	t1,s9,t1
    c8c8:	011308b3          	add	a7,t1,a7
    c8cc:	012a0533          	add	a0,s4,s2
    c8d0:	00a8853b          	addw	a0,a7,a0
    c8d4:	400007b7          	lui	a5,0x40000
    c8d8:	f7843883          	ld	a7,-136(s0)
    c8dc:	f6843283          	ld	t0,-152(s0)
    c8e0:	f0a43423          	sd	a0,-248(s0)
    c8e4:	00055463          	bgez	a0,c8ec <.LBB101_1574>
    c8e8:	c00007b7          	lui	a5,0xc0000

000000000000c8ec <.LBB101_1574>:
    c8ec:	e0f43823          	sd	a5,-496(s0)
    c8f0:	00749493          	slli	s1,s1,0x7
    c8f4:	010b0833          	add	a6,s6,a6
    c8f8:	00980833          	add	a6,a6,s1
    c8fc:	012a0533          	add	a0,s4,s2
    c900:	00a8053b          	addw	a0,a6,a0
    c904:	40000837          	lui	a6,0x40000
    c908:	f1843783          	ld	a5,-232(s0)
    c90c:	eca43023          	sd	a0,-320(s0)
    c910:	00055463          	bgez	a0,c918 <.LBB101_1576>
    c914:	c0000837          	lui	a6,0xc0000

000000000000c918 <.LBB101_1576>:
    c918:	00771713          	slli	a4,a4,0x7
    c91c:	f2043503          	ld	a0,-224(s0)
    c920:	001500b3          	add	ra,a0,ra
    c924:	00e08733          	add	a4,ra,a4
    c928:	012a0533          	add	a0,s4,s2
    c92c:	00a7053b          	addw	a0,a4,a0
    c930:	40000737          	lui	a4,0x40000
    c934:	f2a43023          	sd	a0,-224(s0)
    c938:	00055463          	bgez	a0,c940 <.LBB101_1578>
    c93c:	c0000737          	lui	a4,0xc0000

000000000000c940 <.LBB101_1578>:
    c940:	e0e43423          	sd	a4,-504(s0)
    c944:	007d9d93          	slli	s11,s11,0x7
    c948:	00d286b3          	add	a3,t0,a3
    c94c:	01b686b3          	add	a3,a3,s11
    c950:	012a0533          	add	a0,s4,s2
    c954:	00a6853b          	addw	a0,a3,a0
    c958:	400006b7          	lui	a3,0x40000
    c95c:	f2843b03          	ld	s6,-216(s0)
    c960:	e0a43023          	sd	a0,-512(s0)
    c964:	00055463          	bgez	a0,c96c <.LBB101_1580>
    c968:	c00006b7          	lui	a3,0xc0000

000000000000c96c <.LBB101_1580>:
    c96c:	00799c13          	slli	s8,s3,0x7
    c970:	df043503          	ld	a0,-528(s0)
    c974:	00ab0533          	add	a0,s6,a0
    c978:	01850533          	add	a0,a0,s8
    c97c:	012a0733          	add	a4,s4,s2
    c980:	00e5053b          	addw	a0,a0,a4
    c984:	40000737          	lui	a4,0x40000
    c988:	f3043b03          	ld	s6,-208(s0)
    c98c:	dea43823          	sd	a0,-528(s0)
    c990:	00055463          	bgez	a0,c998 <.LBB101_1582>
    c994:	c0000737          	lui	a4,0xc0000

000000000000c998 <.LBB101_1582>:
    c998:	dee43423          	sd	a4,-536(s0)
    c99c:	f3d43423          	sd	t4,-216(s0)
    c9a0:	00759593          	slli	a1,a1,0x7
    c9a4:	dd843503          	ld	a0,-552(s0)
    c9a8:	00ab0533          	add	a0,s6,a0
    c9ac:	00b50533          	add	a0,a0,a1
    c9b0:	012a05b3          	add	a1,s4,s2
    c9b4:	00b5053b          	addw	a0,a0,a1
    c9b8:	400005b7          	lui	a1,0x40000
    c9bc:	f6043c83          	ld	s9,-160(s0)
    c9c0:	f3843703          	ld	a4,-200(s0)
    c9c4:	dca43c23          	sd	a0,-552(s0)
    c9c8:	00055463          	bgez	a0,c9d0 <.LBB101_1584>
    c9cc:	c00005b7          	lui	a1,0xc0000

000000000000c9d0 <.LBB101_1584>:
    c9d0:	dcb43823          	sd	a1,-560(s0)
    c9d4:	007f1b93          	slli	s7,t5,0x7
    c9d8:	f7043503          	ld	a0,-144(s0)
    c9dc:	db043583          	ld	a1,-592(s0)
    c9e0:	00b50533          	add	a0,a0,a1
    c9e4:	01750533          	add	a0,a0,s7
    c9e8:	012a05b3          	add	a1,s4,s2
    c9ec:	00b50ebb          	addw	t4,a0,a1
    c9f0:	40000537          	lui	a0,0x40000
    c9f4:	000ed463          	bgez	t4,c9fc <.LBB101_1586>
    c9f8:	c0000537          	lui	a0,0xc0000

000000000000c9fc <.LBB101_1586>:
    c9fc:	daa43823          	sd	a0,-592(s0)
    ca00:	d9043f83          	ld	t6,-624(s0)
    ca04:	007f9f93          	slli	t6,t6,0x7
    ca08:	df843503          	ld	a0,-520(s0)
    ca0c:	00a88533          	add	a0,a7,a0
    ca10:	01f50533          	add	a0,a0,t6
    ca14:	012a05b3          	add	a1,s4,s2
    ca18:	00b503bb          	addw	t2,a0,a1
    ca1c:	40000537          	lui	a0,0x40000
    ca20:	0003d463          	bgez	t2,ca28 <.LBB101_1588>
    ca24:	c0000537          	lui	a0,0xc0000

000000000000ca28 <.LBB101_1588>:
    ca28:	d8a43823          	sd	a0,-624(s0)
    ca2c:	ded43c23          	sd	a3,-520(s0)
    ca30:	d1843503          	ld	a0,-744(s0)
    ca34:	00751513          	slli	a0,a0,0x7
    ca38:	d4043583          	ld	a1,-704(s0)
    ca3c:	00b785b3          	add	a1,a5,a1
    ca40:	00a58533          	add	a0,a1,a0
    ca44:	012a07b3          	add	a5,s4,s2
    ca48:	00f507bb          	addw	a5,a0,a5
    ca4c:	40000537          	lui	a0,0x40000
    ca50:	0007d463          	bgez	a5,ca58 <.LBB101_1590>
    ca54:	c0000537          	lui	a0,0xc0000

000000000000ca58 <.LBB101_1590>:
    ca58:	f0a43c23          	sd	a0,-232(s0)
    ca5c:	f3043823          	sd	a6,-208(s0)
    ca60:	d2043503          	ld	a0,-736(s0)
    ca64:	00751513          	slli	a0,a0,0x7
    ca68:	f8043583          	ld	a1,-128(s0)
    ca6c:	d5043683          	ld	a3,-688(s0)
    ca70:	00d585b3          	add	a1,a1,a3
    ca74:	00a58533          	add	a0,a1,a0
    ca78:	012a06b3          	add	a3,s4,s2
    ca7c:	00d506bb          	addw	a3,a0,a3
    ca80:	40000b37          	lui	s6,0x40000
    ca84:	0006d463          	bgez	a3,ca8c <.LBB101_1592>
    ca88:	c0000b37          	lui	s6,0xc0000

000000000000ca8c <.LBB101_1592>:
    ca8c:	d2843503          	ld	a0,-728(s0)
    ca90:	00751513          	slli	a0,a0,0x7
    ca94:	f8843583          	ld	a1,-120(s0)
    ca98:	d6043803          	ld	a6,-672(s0)
    ca9c:	010585b3          	add	a1,a1,a6
    caa0:	00a58533          	add	a0,a1,a0
    caa4:	012a05b3          	add	a1,s4,s2
    caa8:	00b5053b          	addw	a0,a0,a1
    caac:	40000837          	lui	a6,0x40000
    cab0:	00055463          	bgez	a0,cab8 <.LBB101_1594>
    cab4:	c0000837          	lui	a6,0xc0000

000000000000cab8 <.LBB101_1594>:
    cab8:	d3043583          	ld	a1,-720(s0)
    cabc:	00759593          	slli	a1,a1,0x7
    cac0:	d7043883          	ld	a7,-656(s0)
    cac4:	01160633          	add	a2,a2,a7
    cac8:	00b605b3          	add	a1,a2,a1
    cacc:	012a0633          	add	a2,s4,s2
    cad0:	00c588bb          	addw	a7,a1,a2
    cad4:	400002b7          	lui	t0,0x40000
    cad8:	0008d463          	bgez	a7,cae0 <.LBB101_1596>
    cadc:	c00002b7          	lui	t0,0xc0000

000000000000cae0 <.LBB101_1596>:
    cae0:	d3843583          	ld	a1,-712(s0)
    cae4:	00759593          	slli	a1,a1,0x7
    cae8:	f4043603          	ld	a2,-192(s0)
    caec:	d8043303          	ld	t1,-640(s0)
    caf0:	00660633          	add	a2,a2,t1
    caf4:	00b605b3          	add	a1,a2,a1
    caf8:	012a0633          	add	a2,s4,s2
    cafc:	00c585bb          	addw	a1,a1,a2
    cb00:	40000637          	lui	a2,0x40000
    cb04:	0005d463          	bgez	a1,cb0c <.LBB101_1598>
    cb08:	c0000637          	lui	a2,0xc0000

000000000000cb0c <.LBB101_1598>:
    cb0c:	d4843303          	ld	t1,-696(s0)
    cb10:	00731313          	slli	t1,t1,0x7
    cb14:	d9843f03          	ld	t5,-616(s0)
    cb18:	01ee0e33          	add	t3,t3,t5
    cb1c:	006e0333          	add	t1,t3,t1
    cb20:	012a0e33          	add	t3,s4,s2
    cb24:	01c3033b          	addw	t1,t1,t3
    cb28:	40000fb7          	lui	t6,0x40000
    cb2c:	00035463          	bgez	t1,cb34 <.LBB101_1600>
    cb30:	c0000fb7          	lui	t6,0xc0000

000000000000cb34 <.LBB101_1600>:
    cb34:	d5843e03          	ld	t3,-680(s0)
    cb38:	007e1e13          	slli	t3,t3,0x7
    cb3c:	f4843f03          	ld	t5,-184(s0)
    cb40:	da843483          	ld	s1,-600(s0)
    cb44:	009f0f33          	add	t5,t5,s1
    cb48:	01cf0e33          	add	t3,t5,t3
    cb4c:	012a0f33          	add	t5,s4,s2
    cb50:	01ee04bb          	addw	s1,t3,t5
    cb54:	400009b7          	lui	s3,0x40000
    cb58:	0004d463          	bgez	s1,cb60 <.LBB101_1602>
    cb5c:	c00009b7          	lui	s3,0xc0000

000000000000cb60 <.LBB101_1602>:
    cb60:	d6843e03          	ld	t3,-664(s0)
    cb64:	007e1e13          	slli	t3,t3,0x7
    cb68:	f5043f03          	ld	t5,-176(s0)
    cb6c:	db843b83          	ld	s7,-584(s0)
    cb70:	017f0f33          	add	t5,t5,s7
    cb74:	01cf0e33          	add	t3,t5,t3
    cb78:	012a0f33          	add	t5,s4,s2
    cb7c:	01ee0a3b          	addw	s4,t3,t5
    cb80:	40000bb7          	lui	s7,0x40000
    cb84:	000a5463          	bgez	s4,cb8c <.LBB101_1604>
    cb88:	c0000bb7          	lui	s7,0xc0000

000000000000cb8c <.LBB101_1604>:
    cb8c:	d7843e03          	ld	t3,-648(s0)
    cb90:	007e1e13          	slli	t3,t3,0x7
    cb94:	dc043f03          	ld	t5,-576(s0)
    cb98:	01e70f33          	add	t5,a4,t5
    cb9c:	01cf0e33          	add	t3,t5,t3
    cba0:	001fe737          	lui	a4,0x1fe
    cba4:	012d0f33          	add	t5,s10,s2
    cba8:	01ee0dbb          	addw	s11,t3,t5
    cbac:	40000ab7          	lui	s5,0x40000
    cbb0:	000dd463          	bgez	s11,cbb8 <.LBB101_1606>
    cbb4:	c0000ab7          	lui	s5,0xc0000

000000000000cbb8 <.LBB101_1606>:
    cbb8:	d8843e03          	ld	t3,-632(s0)
    cbbc:	007e1e13          	slli	t3,t3,0x7
    cbc0:	f5843f03          	ld	t5,-168(s0)
    cbc4:	dc843c03          	ld	s8,-568(s0)
    cbc8:	018f0f33          	add	t5,t5,s8
    cbcc:	01cf0e33          	add	t3,t5,t3
    cbd0:	00ed0f33          	add	t5,s10,a4
    cbd4:	01ee0f3b          	addw	t5,t3,t5
    cbd8:	40000e37          	lui	t3,0x40000
    cbdc:	000f5463          	bgez	t5,cbe4 <.LBB101_1608>
    cbe0:	c0000e37          	lui	t3,0xc0000

000000000000cbe4 <.LBB101_1608>:
    cbe4:	da043083          	ld	ra,-608(s0)
    cbe8:	00709093          	slli	ra,ra,0x7
    cbec:	de043c03          	ld	s8,-544(s0)
    cbf0:	018c8c33          	add	s8,s9,s8
    cbf4:	001c0c33          	add	s8,s8,ra
    cbf8:	00ed00b3          	add	ra,s10,a4
    cbfc:	001c00bb          	addw	ra,s8,ra
    cc00:	0000d663          	bgez	ra,cc0c <.LBB101_1610>
    cc04:	c0000737          	lui	a4,0xc0000
    cc08:	f0e43023          	sd	a4,-256(s0)

000000000000cc0c <.LBB101_1610>:
    cc0c:	e2843703          	ld	a4,-472(s0)
    cc10:	02e08c33          	mul	s8,ra,a4
    cc14:	e2043083          	ld	ra,-480(s0)
    cc18:	f0043703          	ld	a4,-256(s0)
    cc1c:	001700b3          	add	ra,a4,ra
    cc20:	001c0c33          	add	s8,s8,ra
    cc24:	428c5713          	srai	a4,s8,0x28
    cc28:	f7e00093          	li	ra,-130
    cc2c:	00e0c463          	blt	ra,a4,cc34 <.LBB101_1612>
    cc30:	f7e00713          	li	a4,-130

000000000000cc34 <.LBB101_1612>:
    cc34:	f4e43823          	sd	a4,-176(s0)
    cc38:	e2843703          	ld	a4,-472(s0)
    cc3c:	02ef0f33          	mul	t5,t5,a4
    cc40:	e2043703          	ld	a4,-480(s0)
    cc44:	00ee0e33          	add	t3,t3,a4
    cc48:	01cf0e33          	add	t3,t5,t3
    cc4c:	428e5713          	srai	a4,t3,0x28
    cc50:	f8e43423          	sd	a4,-120(s0)
    cc54:	00e0c663          	blt	ra,a4,cc60 <.LBB101_1614>
    cc58:	f7e00713          	li	a4,-130
    cc5c:	f8e43423          	sd	a4,-120(s0)

000000000000cc60 <.LBB101_1614>:
    cc60:	e2843703          	ld	a4,-472(s0)
    cc64:	02ed8e33          	mul	t3,s11,a4
    cc68:	e2043703          	ld	a4,-480(s0)
    cc6c:	00ea8ab3          	add	s5,s5,a4
    cc70:	015e0e33          	add	t3,t3,s5
    cc74:	428e5713          	srai	a4,t3,0x28
    cc78:	f8e43023          	sd	a4,-128(s0)
    cc7c:	00e0c663          	blt	ra,a4,cc88 <.LBB101_1616>
    cc80:	f7e00713          	li	a4,-130
    cc84:	f8e43023          	sd	a4,-128(s0)

000000000000cc88 <.LBB101_1616>:
    cc88:	e2843703          	ld	a4,-472(s0)
    cc8c:	02ea0e33          	mul	t3,s4,a4
    cc90:	e2043703          	ld	a4,-480(s0)
    cc94:	00eb8bb3          	add	s7,s7,a4
    cc98:	017e0e33          	add	t3,t3,s7
    cc9c:	428e5713          	srai	a4,t3,0x28
    cca0:	f6e43c23          	sd	a4,-136(s0)
    cca4:	00e0c663          	blt	ra,a4,ccb0 <.LBB101_1618>
    cca8:	f7e00713          	li	a4,-130
    ccac:	f6e43c23          	sd	a4,-136(s0)

000000000000ccb0 <.LBB101_1618>:
    ccb0:	e2843703          	ld	a4,-472(s0)
    ccb4:	02e48e33          	mul	t3,s1,a4
    ccb8:	00070493          	mv	s1,a4
    ccbc:	e2043703          	ld	a4,-480(s0)
    ccc0:	00e989b3          	add	s3,s3,a4
    ccc4:	013e0e33          	add	t3,t3,s3
    ccc8:	428e5713          	srai	a4,t3,0x28
    cccc:	f6e43823          	sd	a4,-144(s0)
    ccd0:	00e0c663          	blt	ra,a4,ccdc <.LBB101_1620>
    ccd4:	f7e00713          	li	a4,-130
    ccd8:	f6e43823          	sd	a4,-144(s0)

000000000000ccdc <.LBB101_1620>:
    ccdc:	02930333          	mul	t1,t1,s1
    cce0:	e2043983          	ld	s3,-480(s0)
    cce4:	013f8fb3          	add	t6,t6,s3
    cce8:	01f30333          	add	t1,t1,t6
    ccec:	42835713          	srai	a4,t1,0x28
    ccf0:	f6e43423          	sd	a4,-152(s0)
    ccf4:	00e0c663          	blt	ra,a4,cd00 <.LBB101_1622>
    ccf8:	f7e00713          	li	a4,-130
    ccfc:	f6e43423          	sd	a4,-152(s0)

000000000000cd00 <.LBB101_1622>:
    cd00:	029585b3          	mul	a1,a1,s1
    cd04:	01360633          	add	a2,a2,s3
    cd08:	00c585b3          	add	a1,a1,a2
    cd0c:	4285d593          	srai	a1,a1,0x28
    cd10:	ee043303          	ld	t1,-288(s0)
    cd14:	f6b43023          	sd	a1,-160(s0)
    cd18:	00b0c663          	blt	ra,a1,cd24 <.LBB101_1624>
    cd1c:	f7e00593          	li	a1,-130
    cd20:	f6b43023          	sd	a1,-160(s0)

000000000000cd24 <.LBB101_1624>:
    cd24:	029885b3          	mul	a1,a7,s1
    cd28:	013282b3          	add	t0,t0,s3
    cd2c:	005585b3          	add	a1,a1,t0
    cd30:	4285d593          	srai	a1,a1,0x28
    cd34:	f4b43c23          	sd	a1,-168(s0)
    cd38:	00b0c663          	blt	ra,a1,cd44 <.LBB101_1626>
    cd3c:	f7e00593          	li	a1,-130
    cd40:	f4b43c23          	sd	a1,-168(s0)

000000000000cd44 <.LBB101_1626>:
    cd44:	02950533          	mul	a0,a0,s1
    cd48:	01380833          	add	a6,a6,s3
    cd4c:	01050533          	add	a0,a0,a6
    cd50:	42855893          	srai	a7,a0,0x28
    cd54:	e3043703          	ld	a4,-464(s0)
    cd58:	0110c463          	blt	ra,a7,cd60 <.LBB101_1628>
    cd5c:	f7e00893          	li	a7,-130

000000000000cd60 <.LBB101_1628>:
    cd60:	02968533          	mul	a0,a3,s1
    cd64:	013b0b33          	add	s6,s6,s3
    cd68:	01650533          	add	a0,a0,s6
    cd6c:	42855b13          	srai	s6,a0,0x28
    cd70:	f3043683          	ld	a3,-208(s0)
    cd74:	db043583          	ld	a1,-592(s0)
    cd78:	0160c463          	blt	ra,s6,cd80 <.LBB101_1630>
    cd7c:	f7e00b13          	li	s6,-130

000000000000cd80 <.LBB101_1630>:
    cd80:	02978533          	mul	a0,a5,s1
    cd84:	f1843c83          	ld	s9,-232(s0)
    cd88:	013c8cb3          	add	s9,s9,s3
    cd8c:	01950533          	add	a0,a0,s9
    cd90:	42855793          	srai	a5,a0,0x28
    cd94:	00f0c463          	blt	ra,a5,cd9c <.LBB101_1632>
    cd98:	f7e00793          	li	a5,-130

000000000000cd9c <.LBB101_1632>:
    cd9c:	02938533          	mul	a0,t2,s1
    cda0:	d9043d03          	ld	s10,-624(s0)
    cda4:	013d0d33          	add	s10,s10,s3
    cda8:	01a50533          	add	a0,a0,s10
    cdac:	42855393          	srai	t2,a0,0x28
    cdb0:	0070c463          	blt	ra,t2,cdb8 <.LBB101_1634>
    cdb4:	f7e00393          	li	t2,-130

000000000000cdb8 <.LBB101_1634>:
    cdb8:	029e8533          	mul	a0,t4,s1
    cdbc:	013585b3          	add	a1,a1,s3
    cdc0:	00b50533          	add	a0,a0,a1
    cdc4:	42855e93          	srai	t4,a0,0x28
    cdc8:	01d0c463          	blt	ra,t4,cdd0 <.LBB101_1636>
    cdcc:	f7e00e93          	li	t4,-130

000000000000cdd0 <.LBB101_1636>:
    cdd0:	dd843503          	ld	a0,-552(s0)
    cdd4:	02950533          	mul	a0,a0,s1
    cdd8:	dd043583          	ld	a1,-560(s0)
    cddc:	013585b3          	add	a1,a1,s3
    cde0:	00b50533          	add	a0,a0,a1
    cde4:	42855913          	srai	s2,a0,0x28
    cde8:	0120c463          	blt	ra,s2,cdf0 <.LBB101_1638>
    cdec:	f7e00913          	li	s2,-130

000000000000cdf0 <.LBB101_1638>:
    cdf0:	df043503          	ld	a0,-528(s0)
    cdf4:	02950533          	mul	a0,a0,s1
    cdf8:	de843583          	ld	a1,-536(s0)
    cdfc:	013585b3          	add	a1,a1,s3
    ce00:	00b50533          	add	a0,a0,a1
    ce04:	42855513          	srai	a0,a0,0x28
    ce08:	00a0c463          	blt	ra,a0,ce10 <.LBB101_1640>
    ce0c:	f7e00513          	li	a0,-130

000000000000ce10 <.LBB101_1640>:
    ce10:	e0043583          	ld	a1,-512(s0)
    ce14:	029585b3          	mul	a1,a1,s1
    ce18:	df843603          	ld	a2,-520(s0)
    ce1c:	01360633          	add	a2,a2,s3
    ce20:	00c585b3          	add	a1,a1,a2
    ce24:	4285df13          	srai	t5,a1,0x28
    ce28:	01e0c463          	blt	ra,t5,ce30 <.LBB101_1642>
    ce2c:	f7e00f13          	li	t5,-130

000000000000ce30 <.LBB101_1642>:
    ce30:	f2043583          	ld	a1,-224(s0)
    ce34:	029585b3          	mul	a1,a1,s1
    ce38:	e0843603          	ld	a2,-504(s0)
    ce3c:	01360633          	add	a2,a2,s3
    ce40:	00c585b3          	add	a1,a1,a2
    ce44:	4285da93          	srai	s5,a1,0x28
    ce48:	0150c463          	blt	ra,s5,ce50 <.LBB101_1644>
    ce4c:	f7e00a93          	li	s5,-130

000000000000ce50 <.LBB101_1644>:
    ce50:	ec043583          	ld	a1,-320(s0)
    ce54:	029585b3          	mul	a1,a1,s1
    ce58:	01368633          	add	a2,a3,s3
    ce5c:	00c585b3          	add	a1,a1,a2
    ce60:	4285dc13          	srai	s8,a1,0x28
    ce64:	0180c463          	blt	ra,s8,ce6c <.LBB101_1646>
    ce68:	f7e00c13          	li	s8,-130

000000000000ce6c <.LBB101_1646>:
    ce6c:	f0843583          	ld	a1,-248(s0)
    ce70:	029585b3          	mul	a1,a1,s1
    ce74:	e1043603          	ld	a2,-496(s0)
    ce78:	01360633          	add	a2,a2,s3
    ce7c:	00c585b3          	add	a1,a1,a2
    ce80:	4285dd13          	srai	s10,a1,0x28
    ce84:	01a0c463          	blt	ra,s10,ce8c <.LBB101_1648>
    ce88:	f7e00d13          	li	s10,-130

000000000000ce8c <.LBB101_1648>:
    ce8c:	e3843583          	ld	a1,-456(s0)
    ce90:	029585b3          	mul	a1,a1,s1
    ce94:	01370633          	add	a2,a4,s3
    ce98:	00c585b3          	add	a1,a1,a2
    ce9c:	4285df93          	srai	t6,a1,0x28
    cea0:	01f0c463          	blt	ra,t6,cea8 <.LBB101_1650>
    cea4:	f7e00f93          	li	t6,-130

000000000000cea8 <.LBB101_1650>:
    cea8:	e4843583          	ld	a1,-440(s0)
    ceac:	029585b3          	mul	a1,a1,s1
    ceb0:	e4043603          	ld	a2,-448(s0)
    ceb4:	01360633          	add	a2,a2,s3
    ceb8:	00c585b3          	add	a1,a1,a2
    cebc:	4285de13          	srai	t3,a1,0x28
    cec0:	01c0c463          	blt	ra,t3,cec8 <.LBB101_1652>
    cec4:	f7e00e13          	li	t3,-130

000000000000cec8 <.LBB101_1652>:
    cec8:	e5843583          	ld	a1,-424(s0)
    cecc:	029585b3          	mul	a1,a1,s1
    ced0:	e5043603          	ld	a2,-432(s0)
    ced4:	01360633          	add	a2,a2,s3
    ced8:	00c585b3          	add	a1,a1,a2
    cedc:	4285dc93          	srai	s9,a1,0x28
    cee0:	0190c463          	blt	ra,s9,cee8 <.LBB101_1654>
    cee4:	f7e00c93          	li	s9,-130

000000000000cee8 <.LBB101_1654>:
    cee8:	ec843583          	ld	a1,-312(s0)
    ceec:	029585b3          	mul	a1,a1,s1
    cef0:	f2843603          	ld	a2,-216(s0)
    cef4:	01360633          	add	a2,a2,s3
    cef8:	00c585b3          	add	a1,a1,a2
    cefc:	4285dd93          	srai	s11,a1,0x28
    cf00:	01b0c463          	blt	ra,s11,cf08 <.LBB101_1656>
    cf04:	f7e00d93          	li	s11,-130

000000000000cf08 <.LBB101_1656>:
    cf08:	e6843583          	ld	a1,-408(s0)
    cf0c:	029585b3          	mul	a1,a1,s1
    cf10:	e6043603          	ld	a2,-416(s0)
    cf14:	01360633          	add	a2,a2,s3
    cf18:	00c585b3          	add	a1,a1,a2
    cf1c:	4285d613          	srai	a2,a1,0x28
    cf20:	00c0c463          	blt	ra,a2,cf28 <.LBB101_1658>
    cf24:	f7e00613          	li	a2,-130

000000000000cf28 <.LBB101_1658>:
    cf28:	e7843583          	ld	a1,-392(s0)
    cf2c:	029585b3          	mul	a1,a1,s1
    cf30:	e7043683          	ld	a3,-400(s0)
    cf34:	013686b3          	add	a3,a3,s3
    cf38:	00d585b3          	add	a1,a1,a3
    cf3c:	4285d693          	srai	a3,a1,0x28
    cf40:	00d0c463          	blt	ra,a3,cf48 <.LBB101_1660>
    cf44:	f7e00693          	li	a3,-130

000000000000cf48 <.LBB101_1660>:
    cf48:	e8843583          	ld	a1,-376(s0)
    cf4c:	029585b3          	mul	a1,a1,s1
    cf50:	e8043703          	ld	a4,-384(s0)
    cf54:	01370733          	add	a4,a4,s3
    cf58:	00e585b3          	add	a1,a1,a4
    cf5c:	4285d713          	srai	a4,a1,0x28
    cf60:	00e0c463          	blt	ra,a4,cf68 <.LBB101_1662>
    cf64:	f7e00713          	li	a4,-130

000000000000cf68 <.LBB101_1662>:
    cf68:	e9843583          	ld	a1,-360(s0)
    cf6c:	029585b3          	mul	a1,a1,s1
    cf70:	e9043803          	ld	a6,-368(s0)
    cf74:	01380833          	add	a6,a6,s3
    cf78:	010585b3          	add	a1,a1,a6
    cf7c:	4285da13          	srai	s4,a1,0x28
    cf80:	0140c463          	blt	ra,s4,cf88 <.LBB101_1664>
    cf84:	f7e00a13          	li	s4,-130

000000000000cf88 <.LBB101_1664>:
    cf88:	ea043583          	ld	a1,-352(s0)
    cf8c:	029585b3          	mul	a1,a1,s1
    cf90:	ed043803          	ld	a6,-304(s0)
    cf94:	01380833          	add	a6,a6,s3
    cf98:	010585b3          	add	a1,a1,a6
    cf9c:	4285db93          	srai	s7,a1,0x28
    cfa0:	0170c463          	blt	ra,s7,cfa8 <.LBB101_1666>
    cfa4:	f7e00b93          	li	s7,-130

000000000000cfa8 <.LBB101_1666>:
    cfa8:	ea843583          	ld	a1,-344(s0)
    cfac:	029585b3          	mul	a1,a1,s1
    cfb0:	ed843803          	ld	a6,-296(s0)
    cfb4:	01380833          	add	a6,a6,s3
    cfb8:	010585b3          	add	a1,a1,a6
    cfbc:	4285d813          	srai	a6,a1,0x28
    cfc0:	0100c463          	blt	ra,a6,cfc8 <.LBB101_1668>
    cfc4:	f7e00813          	li	a6,-130

000000000000cfc8 <.LBB101_1668>:
    cfc8:	ef043583          	ld	a1,-272(s0)
    cfcc:	029585b3          	mul	a1,a1,s1
    cfd0:	01330333          	add	t1,t1,s3
    cfd4:	006585b3          	add	a1,a1,t1
    cfd8:	4285d593          	srai	a1,a1,0x28
    cfdc:	00b0c463          	blt	ra,a1,cfe4 <.LBB101_1670>
    cfe0:	f7e00593          	li	a1,-130

000000000000cfe4 <.LBB101_1670>:
    cfe4:	ee843283          	ld	t0,-280(s0)
    cfe8:	02928333          	mul	t1,t0,s1
    cfec:	ef843483          	ld	s1,-264(s0)
    cff0:	013484b3          	add	s1,s1,s3
    cff4:	00930333          	add	t1,t1,s1
    cff8:	42835313          	srai	t1,t1,0x28
    cffc:	0060c463          	blt	ra,t1,d004 <.LBB101_1672>
    d000:	f7e00313          	li	t1,-130

000000000000d004 <.LBB101_1672>:
    d004:	e2843483          	ld	s1,-472(s0)
    d008:	eb843283          	ld	t0,-328(s0)
    d00c:	029284b3          	mul	s1,t0,s1
    d010:	eb043283          	ld	t0,-336(s0)
    d014:	013289b3          	add	s3,t0,s3
    d018:	013484b3          	add	s1,s1,s3
    d01c:	4284d493          	srai	s1,s1,0x28
    d020:	0a90d663          	bge	ra,s1,d0cc <.LBB101_1705>
    d024:	07d00093          	li	ra,125
    d028:	0a14d863          	bge	s1,ra,d0d8 <.LBB101_1706>

000000000000d02c <.LBB101_1674>:
    d02c:	0a135a63          	bge	t1,ra,d0e0 <.LBB101_1707>

000000000000d030 <.LBB101_1675>:
    d030:	0a15dc63          	bge	a1,ra,d0e8 <.LBB101_1708>

000000000000d034 <.LBB101_1676>:
    d034:	0a185e63          	bge	a6,ra,d0f0 <.LBB101_1709>

000000000000d038 <.LBB101_1677>:
    d038:	0c1bd063          	bge	s7,ra,d0f8 <.LBB101_1710>

000000000000d03c <.LBB101_1678>:
    d03c:	0c1a5263          	bge	s4,ra,d100 <.LBB101_1711>

000000000000d040 <.LBB101_1679>:
    d040:	0c175463          	bge	a4,ra,d108 <.LBB101_1712>

000000000000d044 <.LBB101_1680>:
    d044:	0c16d663          	bge	a3,ra,d110 <.LBB101_1713>

000000000000d048 <.LBB101_1681>:
    d048:	0c165863          	bge	a2,ra,d118 <.LBB101_1714>

000000000000d04c <.LBB101_1682>:
    d04c:	0c1dda63          	bge	s11,ra,d120 <.LBB101_1715>

000000000000d050 <.LBB101_1683>:
    d050:	0c1cdc63          	bge	s9,ra,d128 <.LBB101_1716>

000000000000d054 <.LBB101_1684>:
    d054:	0c1e5e63          	bge	t3,ra,d130 <.LBB101_1717>

000000000000d058 <.LBB101_1685>:
    d058:	0e1fd063          	bge	t6,ra,d138 <.LBB101_1718>

000000000000d05c <.LBB101_1686>:
    d05c:	0e1d5263          	bge	s10,ra,d140 <.LBB101_1719>

000000000000d060 <.LBB101_1687>:
    d060:	0e1c5463          	bge	s8,ra,d148 <.LBB101_1720>

000000000000d064 <.LBB101_1688>:
    d064:	0e1ad663          	bge	s5,ra,d150 <.LBB101_1721>

000000000000d068 <.LBB101_1689>:
    d068:	0e1f5863          	bge	t5,ra,d158 <.LBB101_1722>

000000000000d06c <.LBB101_1690>:
    d06c:	0e155a63          	bge	a0,ra,d160 <.LBB101_1723>

000000000000d070 <.LBB101_1691>:
    d070:	0e195c63          	bge	s2,ra,d168 <.LBB101_1724>

000000000000d074 <.LBB101_1692>:
    d074:	0e1ede63          	bge	t4,ra,d170 <.LBB101_1725>

000000000000d078 <.LBB101_1693>:
    d078:	1013d063          	bge	t2,ra,d178 <.LBB101_1726>

000000000000d07c <.LBB101_1694>:
    d07c:	1017d263          	bge	a5,ra,d180 <.LBB101_1727>

000000000000d080 <.LBB101_1695>:
    d080:	101b5463          	bge	s6,ra,d188 <.LBB101_1728>

000000000000d084 <.LBB101_1696>:
    d084:	1018d663          	bge	a7,ra,d190 <.LBB101_1729>

000000000000d088 <.LBB101_1697>:
    d088:	f5843283          	ld	t0,-168(s0)
    d08c:	1012d863          	bge	t0,ra,d19c <.LBB101_1730>

000000000000d090 <.LBB101_1698>:
    d090:	f6043283          	ld	t0,-160(s0)
    d094:	1012dc63          	bge	t0,ra,d1ac <.LBB101_1731>

000000000000d098 <.LBB101_1699>:
    d098:	f6843283          	ld	t0,-152(s0)
    d09c:	1212d063          	bge	t0,ra,d1bc <.LBB101_1732>

000000000000d0a0 <.LBB101_1700>:
    d0a0:	f7043283          	ld	t0,-144(s0)
    d0a4:	1212d463          	bge	t0,ra,d1cc <.LBB101_1733>

000000000000d0a8 <.LBB101_1701>:
    d0a8:	f7843283          	ld	t0,-136(s0)
    d0ac:	1212d863          	bge	t0,ra,d1dc <.LBB101_1734>

000000000000d0b0 <.LBB101_1702>:
    d0b0:	f8043283          	ld	t0,-128(s0)
    d0b4:	1212dc63          	bge	t0,ra,d1ec <.LBB101_1735>

000000000000d0b8 <.LBB101_1703>:
    d0b8:	f8843283          	ld	t0,-120(s0)
    d0bc:	1412d063          	bge	t0,ra,d1fc <.LBB101_1736>

000000000000d0c0 <.LBB101_1704>:
    d0c0:	f5043283          	ld	t0,-176(s0)
    d0c4:	1412d663          	bge	t0,ra,d210 <.LBB101_1737>
    d0c8:	ecdfe06f          	j	bf94 <.LBB101_1543>

000000000000d0cc <.LBB101_1705>:
    d0cc:	f7e00493          	li	s1,-130
    d0d0:	07d00093          	li	ra,125
    d0d4:	f414cce3          	blt	s1,ra,d02c <.LBB101_1674>

000000000000d0d8 <.LBB101_1706>:
    d0d8:	07d00493          	li	s1,125
    d0dc:	f4134ae3          	blt	t1,ra,d030 <.LBB101_1675>

000000000000d0e0 <.LBB101_1707>:
    d0e0:	07d00313          	li	t1,125
    d0e4:	f415c8e3          	blt	a1,ra,d034 <.LBB101_1676>

000000000000d0e8 <.LBB101_1708>:
    d0e8:	07d00593          	li	a1,125
    d0ec:	f41846e3          	blt	a6,ra,d038 <.LBB101_1677>

000000000000d0f0 <.LBB101_1709>:
    d0f0:	07d00813          	li	a6,125
    d0f4:	f41bc4e3          	blt	s7,ra,d03c <.LBB101_1678>

000000000000d0f8 <.LBB101_1710>:
    d0f8:	07d00b93          	li	s7,125
    d0fc:	f41a42e3          	blt	s4,ra,d040 <.LBB101_1679>

000000000000d100 <.LBB101_1711>:
    d100:	07d00a13          	li	s4,125
    d104:	f41740e3          	blt	a4,ra,d044 <.LBB101_1680>

000000000000d108 <.LBB101_1712>:
    d108:	07d00713          	li	a4,125
    d10c:	f216cee3          	blt	a3,ra,d048 <.LBB101_1681>

000000000000d110 <.LBB101_1713>:
    d110:	07d00693          	li	a3,125
    d114:	f2164ce3          	blt	a2,ra,d04c <.LBB101_1682>

000000000000d118 <.LBB101_1714>:
    d118:	07d00613          	li	a2,125
    d11c:	f21dcae3          	blt	s11,ra,d050 <.LBB101_1683>

000000000000d120 <.LBB101_1715>:
    d120:	07d00d93          	li	s11,125
    d124:	f21cc8e3          	blt	s9,ra,d054 <.LBB101_1684>

000000000000d128 <.LBB101_1716>:
    d128:	07d00c93          	li	s9,125
    d12c:	f21e46e3          	blt	t3,ra,d058 <.LBB101_1685>

000000000000d130 <.LBB101_1717>:
    d130:	07d00e13          	li	t3,125
    d134:	f21fc4e3          	blt	t6,ra,d05c <.LBB101_1686>

000000000000d138 <.LBB101_1718>:
    d138:	07d00f93          	li	t6,125
    d13c:	f21d42e3          	blt	s10,ra,d060 <.LBB101_1687>

000000000000d140 <.LBB101_1719>:
    d140:	07d00d13          	li	s10,125
    d144:	f21c40e3          	blt	s8,ra,d064 <.LBB101_1688>

000000000000d148 <.LBB101_1720>:
    d148:	07d00c13          	li	s8,125
    d14c:	f01acee3          	blt	s5,ra,d068 <.LBB101_1689>

000000000000d150 <.LBB101_1721>:
    d150:	07d00a93          	li	s5,125
    d154:	f01f4ce3          	blt	t5,ra,d06c <.LBB101_1690>

000000000000d158 <.LBB101_1722>:
    d158:	07d00f13          	li	t5,125
    d15c:	f0154ae3          	blt	a0,ra,d070 <.LBB101_1691>

000000000000d160 <.LBB101_1723>:
    d160:	07d00513          	li	a0,125
    d164:	f01948e3          	blt	s2,ra,d074 <.LBB101_1692>

000000000000d168 <.LBB101_1724>:
    d168:	07d00913          	li	s2,125
    d16c:	f01ec6e3          	blt	t4,ra,d078 <.LBB101_1693>

000000000000d170 <.LBB101_1725>:
    d170:	07d00e93          	li	t4,125
    d174:	f013c4e3          	blt	t2,ra,d07c <.LBB101_1694>

000000000000d178 <.LBB101_1726>:
    d178:	07d00393          	li	t2,125
    d17c:	f017c2e3          	blt	a5,ra,d080 <.LBB101_1695>

000000000000d180 <.LBB101_1727>:
    d180:	07d00793          	li	a5,125
    d184:	f01b40e3          	blt	s6,ra,d084 <.LBB101_1696>

000000000000d188 <.LBB101_1728>:
    d188:	07d00b13          	li	s6,125
    d18c:	ee18cee3          	blt	a7,ra,d088 <.LBB101_1697>

000000000000d190 <.LBB101_1729>:
    d190:	07d00893          	li	a7,125
    d194:	f5843283          	ld	t0,-168(s0)
    d198:	ee12cce3          	blt	t0,ra,d090 <.LBB101_1698>

000000000000d19c <.LBB101_1730>:
    d19c:	07d00293          	li	t0,125
    d1a0:	f4543c23          	sd	t0,-168(s0)
    d1a4:	f6043283          	ld	t0,-160(s0)
    d1a8:	ee12c8e3          	blt	t0,ra,d098 <.LBB101_1699>

000000000000d1ac <.LBB101_1731>:
    d1ac:	07d00293          	li	t0,125
    d1b0:	f6543023          	sd	t0,-160(s0)
    d1b4:	f6843283          	ld	t0,-152(s0)
    d1b8:	ee12c4e3          	blt	t0,ra,d0a0 <.LBB101_1700>

000000000000d1bc <.LBB101_1732>:
    d1bc:	07d00293          	li	t0,125
    d1c0:	f6543423          	sd	t0,-152(s0)
    d1c4:	f7043283          	ld	t0,-144(s0)
    d1c8:	ee12c0e3          	blt	t0,ra,d0a8 <.LBB101_1701>

000000000000d1cc <.LBB101_1733>:
    d1cc:	07d00293          	li	t0,125
    d1d0:	f6543823          	sd	t0,-144(s0)
    d1d4:	f7843283          	ld	t0,-136(s0)
    d1d8:	ec12cce3          	blt	t0,ra,d0b0 <.LBB101_1702>

000000000000d1dc <.LBB101_1734>:
    d1dc:	07d00293          	li	t0,125
    d1e0:	f6543c23          	sd	t0,-136(s0)
    d1e4:	f8043283          	ld	t0,-128(s0)
    d1e8:	ec12c8e3          	blt	t0,ra,d0b8 <.LBB101_1703>

000000000000d1ec <.LBB101_1735>:
    d1ec:	07d00293          	li	t0,125
    d1f0:	f8543023          	sd	t0,-128(s0)
    d1f4:	f8843283          	ld	t0,-120(s0)
    d1f8:	ec12c4e3          	blt	t0,ra,d0c0 <.LBB101_1704>

000000000000d1fc <.LBB101_1736>:
    d1fc:	07d00293          	li	t0,125
    d200:	f8543423          	sd	t0,-120(s0)
    d204:	f5043283          	ld	t0,-176(s0)
    d208:	0012d463          	bge	t0,ra,d210 <.LBB101_1737>
    d20c:	d89fe06f          	j	bf94 <.LBB101_1543>

000000000000d210 <.LBB101_1737>:
    d210:	07d00293          	li	t0,125
    d214:	d81fe06f          	j	bf94 <.LBB101_1543>

000000000000d218 <.LBB101_1738>:
    d218:	00000513          	li	a0,0
    d21c:	7f010113          	addi	sp,sp,2032
    d220:	50010113          	addi	sp,sp,1280
    d224:	7e813083          	ld	ra,2024(sp)
    d228:	7e013403          	ld	s0,2016(sp)
    d22c:	7d813483          	ld	s1,2008(sp)
    d230:	7d013903          	ld	s2,2000(sp)
    d234:	7c813983          	ld	s3,1992(sp)
    d238:	7c013a03          	ld	s4,1984(sp)
    d23c:	7b813a83          	ld	s5,1976(sp)
    d240:	7b013b03          	ld	s6,1968(sp)
    d244:	7a813b83          	ld	s7,1960(sp)
    d248:	7a013c03          	ld	s8,1952(sp)
    d24c:	79813c83          	ld	s9,1944(sp)
    d250:	79013d03          	ld	s10,1936(sp)
    d254:	78813d83          	ld	s11,1928(sp)
    d258:	7f010113          	addi	sp,sp,2032
    d25c:	00008067          	ret
