
code.o:     file format elf64-littleriscv


Disassembly of section .text.main_dispatch_61_depthwise_conv_2d_nhwc_hwc_1x14x14x384x3x3_i8xi8xi32:

0000000000000000 <main_dispatch_61_depthwise_conv_2d_nhwc_hwc_1x14x14x384x3x3_i8xi8xi32>:
   0:	f1501173          	csrrw	sp,0xf15,zero

0000000000000004 <.Lfunc_begin56>:
   4:	ce010113          	addi	sp,sp,-800
   8:	30113c23          	sd	ra,792(sp)
   c:	30813823          	sd	s0,784(sp)
  10:	30913423          	sd	s1,776(sp)
  14:	31213023          	sd	s2,768(sp)
  18:	2f313c23          	sd	s3,760(sp)
  1c:	2f413823          	sd	s4,752(sp)
  20:	2f513423          	sd	s5,744(sp)
  24:	2f613023          	sd	s6,736(sp)
  28:	2d713c23          	sd	s7,728(sp)
  2c:	2d813823          	sd	s8,720(sp)
  30:	2d913423          	sd	s9,712(sp)
  34:	2da13023          	sd	s10,704(sp)
  38:	2bb13c23          	sd	s11,696(sp)
  3c:	32010413          	addi	s0,sp,800
  40:	0185b503          	ld	a0,24(a1)
  44:	00000813          	li	a6,0
  48:	0205b583          	ld	a1,32(a1)
  4c:	00056603          	lwu	a2,0(a0)
  50:	00456683          	lwu	a3,4(a0)
  54:	00856503          	lwu	a0,8(a0)
  58:	0105b703          	ld	a4,16(a1)
  5c:	0005b783          	ld	a5,0(a1)
  60:	0085b583          	ld	a1,8(a1)
  64:	ffc57513          	andi	a0,a0,-4
  68:	00a70533          	add	a0,a4,a0
  6c:	cea43423          	sd	a0,-792(s0)
  70:	00f60633          	add	a2,a2,a5
  74:	60060d13          	addi	s10,a2,1536
  78:	00b685b3          	add	a1,a3,a1
  7c:	18058513          	addi	a0,a1,384
  80:	d0a43c23          	sd	a0,-744(s0)
  84:	01500513          	li	a0,21
  88:	00a51513          	slli	a0,a0,0xa
  8c:	cea43023          	sd	a0,-800(s0)
  90:	00900513          	li	a0,9
  94:	00951593          	slli	a1,a0,0x9
  98:	d0b43823          	sd	a1,-752(s0)
  9c:	00300593          	li	a1,3
  a0:	00b59693          	slli	a3,a1,0xb
  a4:	00f00593          	li	a1,15
  a8:	00959593          	slli	a1,a1,0x9
  ac:	d0b43423          	sd	a1,-760(s0)
  b0:	00a51513          	slli	a0,a0,0xa
  b4:	d0a43023          	sd	a0,-768(s0)
  b8:	d8d43423          	sd	a3,-632(s0)

00000000000000bc <.LBB56_1>:
  bc:	00000513          	li	a0,0
  c0:	cf043c23          	sd	a6,-776(s0)
  c4:	ce043583          	ld	a1,-800(s0)
  c8:	02b805b3          	mul	a1,a6,a1
  cc:	ce843603          	ld	a2,-792(s0)
  d0:	00b605b3          	add	a1,a2,a1
  d4:	d2b43023          	sd	a1,-736(s0)
  d8:	cfa43823          	sd	s10,-784(s0)

00000000000000dc <.LBB56_2>:
  dc:	00000593          	li	a1,0
  e0:	00050613          	mv	a2,a0
  e4:	60000513          	li	a0,1536
  e8:	d2c43423          	sd	a2,-728(s0)
  ec:	02a60533          	mul	a0,a2,a0
  f0:	d2043603          	ld	a2,-736(s0)
  f4:	00a60633          	add	a2,a2,a0
  f8:	60060513          	addi	a0,a2,1536
  fc:	d6a43023          	sd	a0,-672(s0)
 100:	7ff60513          	addi	a0,a2,2047
 104:	40150513          	addi	a0,a0,1025
 108:	d4a43c23          	sd	a0,-680(s0)
 10c:	d1043503          	ld	a0,-752(s0)
 110:	00a60533          	add	a0,a2,a0
 114:	d4a43823          	sd	a0,-688(s0)
 118:	00d60533          	add	a0,a2,a3
 11c:	d4a43423          	sd	a0,-696(s0)
 120:	d0843503          	ld	a0,-760(s0)
 124:	00a60533          	add	a0,a2,a0
 128:	d4a43023          	sd	a0,-704(s0)
 12c:	d0043503          	ld	a0,-768(s0)
 130:	d6c43423          	sd	a2,-664(s0)
 134:	00a60533          	add	a0,a2,a0
 138:	d2a43c23          	sd	a0,-712(s0)
 13c:	d1843a83          	ld	s5,-744(s0)
 140:	d3a43823          	sd	s10,-720(s0)

0000000000000144 <.LBB56_3>:
 144:	f6043023          	sd	zero,-160(s0)
 148:	00000f93          	li	t6,0
 14c:	00000093          	li	ra,0
 150:	00000893          	li	a7,0
 154:	f6043423          	sd	zero,-152(s0)
 158:	00000613          	li	a2,0
 15c:	00000313          	li	t1,0
 160:	f6043823          	sd	zero,-144(s0)
 164:	00000c93          	li	s9,0
 168:	f8043023          	sd	zero,-128(s0)
 16c:	f6043c23          	sd	zero,-136(s0)
 170:	f8043423          	sd	zero,-120(s0)
 174:	00000f13          	li	t5,0
 178:	f8043823          	sd	zero,-112(s0)
 17c:	00000393          	li	t2,0
 180:	00000293          	li	t0,0
 184:	00000b93          	li	s7,0
 188:	00000a13          	li	s4,0
 18c:	00000d93          	li	s11,0
 190:	00000c13          	li	s8,0
 194:	00000993          	li	s3,0
 198:	00000b13          	li	s6,0
 19c:	00000e93          	li	t4,0
 1a0:	00000493          	li	s1,0
 1a4:	00000e13          	li	t3,0
 1a8:	00000793          	li	a5,0
 1ac:	00000813          	li	a6,0
 1b0:	00000913          	li	s2,0
 1b4:	d6b43823          	sd	a1,-656(s0)
 1b8:	ffd00513          	li	a0,-3
 1bc:	d9543023          	sd	s5,-640(s0)
 1c0:	d7a43c23          	sd	s10,-648(s0)

00000000000001c4 <.LBB56_4>:
 1c4:	eb043c23          	sd	a6,-328(s0)
 1c8:	ecf43023          	sd	a5,-320(s0)
 1cc:	eb243823          	sd	s2,-336(s0)
 1d0:	f4a43c23          	sd	a0,-168(s0)
 1d4:	a02d0503          	lb	a0,-1534(s10)
 1d8:	e82a8903          	lb	s2,-382(s5)
 1dc:	a01d0583          	lb	a1,-1535(s10)
 1e0:	e81a8683          	lb	a3,-383(s5)
 1e4:	02a90533          	mul	a0,s2,a0
 1e8:	00150533          	add	a0,a0,ra
 1ec:	f4a43823          	sd	a0,-176(s0)
 1f0:	02b68533          	mul	a0,a3,a1
 1f4:	a00d0583          	lb	a1,-1536(s10)
 1f8:	e80a8783          	lb	a5,-384(s5)
 1fc:	01f50533          	add	a0,a0,t6
 200:	f4a43423          	sd	a0,-184(s0)
 204:	a03d0503          	lb	a0,-1533(s10)
 208:	000b0f93          	mv	t6,s6
 20c:	00098b13          	mv	s6,s3
 210:	000d8993          	mv	s3,s11
 214:	e83a8d83          	lb	s11,-381(s5)
 218:	02b785b3          	mul	a1,a5,a1
 21c:	f6043703          	ld	a4,-160(s0)
 220:	00e585b3          	add	a1,a1,a4
 224:	f6b43023          	sd	a1,-160(s0)
 228:	b80d0583          	lb	a1,-1152(s10)
 22c:	eab43423          	sd	a1,-344(s0)
 230:	02ad8533          	mul	a0,s11,a0
 234:	01150533          	add	a0,a0,a7
 238:	f4a43023          	sd	a0,-192(s0)
 23c:	b81d0703          	lb	a4,-1151(s10)
 240:	e8e43823          	sd	a4,-368(s0)
 244:	02b78533          	mul	a0,a5,a1
 248:	f6843583          	ld	a1,-152(s0)
 24c:	00b50533          	add	a0,a0,a1
 250:	f6a43423          	sd	a0,-152(s0)
 254:	b82d0583          	lb	a1,-1150(s10)
 258:	e6b43023          	sd	a1,-416(s0)
 25c:	02e68533          	mul	a0,a3,a4
 260:	00c50533          	add	a0,a0,a2
 264:	f2a43c23          	sd	a0,-200(s0)
 268:	b83d0803          	lb	a6,-1149(s10)
 26c:	02b90533          	mul	a0,s2,a1
 270:	00650533          	add	a0,a0,t1
 274:	f2a43823          	sd	a0,-208(s0)
 278:	d00d0603          	lb	a2,-768(s10)
 27c:	eac43023          	sd	a2,-352(s0)
 280:	030d8533          	mul	a0,s11,a6
 284:	f7043583          	ld	a1,-144(s0)
 288:	00b50533          	add	a0,a0,a1
 28c:	f6a43823          	sd	a0,-144(s0)
 290:	d01d0083          	lb	ra,-767(s10)
 294:	02c78533          	mul	a0,a5,a2
 298:	01950533          	add	a0,a0,s9
 29c:	f2a43423          	sd	a0,-216(s0)
 2a0:	d02d0c83          	lb	s9,-766(s10)
 2a4:	02168533          	mul	a0,a3,ra
 2a8:	f8043583          	ld	a1,-128(s0)
 2ac:	00b50533          	add	a0,a0,a1
 2b0:	f8a43023          	sd	a0,-128(s0)
 2b4:	d03d0703          	lb	a4,-765(s10)
 2b8:	03990533          	mul	a0,s2,s9
 2bc:	f7843583          	ld	a1,-136(s0)
 2c0:	00b50533          	add	a0,a0,a1
 2c4:	f6a43c23          	sd	a0,-136(s0)
 2c8:	e80d0603          	lb	a2,-384(s10)
 2cc:	e8c43c23          	sd	a2,-360(s0)
 2d0:	02ed8533          	mul	a0,s11,a4
 2d4:	f8843583          	ld	a1,-120(s0)
 2d8:	00b50533          	add	a0,a0,a1
 2dc:	f8a43423          	sd	a0,-120(s0)
 2e0:	e81d0303          	lb	t1,-383(s10)
 2e4:	02c78533          	mul	a0,a5,a2
 2e8:	01e50533          	add	a0,a0,t5
 2ec:	f2a43023          	sd	a0,-224(s0)
 2f0:	000a0593          	mv	a1,s4
 2f4:	e82d0a03          	lb	s4,-382(s10)
 2f8:	02668533          	mul	a0,a3,t1
 2fc:	f9043603          	ld	a2,-112(s0)
 300:	00c50533          	add	a0,a0,a2
 304:	f8a43823          	sd	a0,-112(s0)
 308:	e83d0883          	lb	a7,-381(s10)
 30c:	03490533          	mul	a0,s2,s4
 310:	00750533          	add	a0,a0,t2
 314:	f0a43c23          	sd	a0,-232(s0)
 318:	000d0603          	lb	a2,0(s10)
 31c:	e6c43c23          	sd	a2,-392(s0)
 320:	031d8533          	mul	a0,s11,a7
 324:	00550533          	add	a0,a0,t0
 328:	f0a43823          	sd	a0,-240(s0)
 32c:	001d0383          	lb	t2,1(s10)
 330:	02c78533          	mul	a0,a5,a2
 334:	01750533          	add	a0,a0,s7
 338:	f0a43423          	sd	a0,-248(s0)
 33c:	002d0b83          	lb	s7,2(s10)
 340:	02768533          	mul	a0,a3,t2
 344:	00b50533          	add	a0,a0,a1
 348:	f0a43023          	sd	a0,-256(s0)
 34c:	003d0583          	lb	a1,3(s10)
 350:	03790633          	mul	a2,s2,s7
 354:	01360633          	add	a2,a2,s3
 358:	eec43c23          	sd	a2,-264(s0)
 35c:	180d0f03          	lb	t5,384(s10)
 360:	02bd8633          	mul	a2,s11,a1
 364:	01860633          	add	a2,a2,s8
 368:	eec43823          	sd	a2,-272(s0)
 36c:	000e0513          	mv	a0,t3
 370:	181d0e03          	lb	t3,385(s10)
 374:	03e78633          	mul	a2,a5,t5
 378:	01660633          	add	a2,a2,s6
 37c:	eec43423          	sd	a2,-280(s0)
 380:	182d0c03          	lb	s8,386(s10)
 384:	03c68633          	mul	a2,a3,t3
 388:	01f60633          	add	a2,a2,t6
 38c:	eec43023          	sd	a2,-288(s0)
 390:	183d0603          	lb	a2,387(s10)
 394:	038909b3          	mul	s3,s2,s8
 398:	01d98eb3          	add	t4,s3,t4
 39c:	edd43c23          	sd	t4,-296(s0)
 3a0:	300d0983          	lb	s3,768(s10)
 3a4:	02cd8b33          	mul	s6,s11,a2
 3a8:	009b04b3          	add	s1,s6,s1
 3ac:	ec943823          	sd	s1,-304(s0)
 3b0:	301d0b03          	lb	s6,769(s10)
 3b4:	033787b3          	mul	a5,a5,s3
 3b8:	00a78533          	add	a0,a5,a0
 3bc:	eca43423          	sd	a0,-312(s0)
 3c0:	302d0783          	lb	a5,770(s10)
 3c4:	036686b3          	mul	a3,a3,s6
 3c8:	ec043503          	ld	a0,-320(s0)
 3cc:	00a686b3          	add	a3,a3,a0
 3d0:	ecd43023          	sd	a3,-320(s0)
 3d4:	303d0683          	lb	a3,771(s10)
 3d8:	02f90933          	mul	s2,s2,a5
 3dc:	003a8503          	lb	a0,3(s5)
 3e0:	eb843283          	ld	t0,-328(s0)
 3e4:	00590933          	add	s2,s2,t0
 3e8:	eb243c23          	sd	s2,-328(s0)
 3ec:	02dd8933          	mul	s2,s11,a3
 3f0:	eb043283          	ld	t0,-336(s0)
 3f4:	00590933          	add	s2,s2,t0
 3f8:	eb243823          	sd	s2,-336(s0)
 3fc:	03050833          	mul	a6,a0,a6
 400:	e5043423          	sd	a6,-440(s0)
 404:	483d0803          	lb	a6,1155(s10)
 408:	183a8903          	lb	s2,387(s5)
 40c:	02e502b3          	mul	t0,a0,a4
 410:	e4543823          	sd	t0,-432(s0)
 414:	031502b3          	mul	t0,a0,a7
 418:	e4543c23          	sd	t0,-424(s0)
 41c:	02b502b3          	mul	t0,a0,a1
 420:	e6543423          	sd	t0,-408(s0)
 424:	02c502b3          	mul	t0,a0,a2
 428:	e6543823          	sd	t0,-400(s0)
 42c:	02d502b3          	mul	t0,a0,a3
 430:	e8543023          	sd	t0,-384(s0)
 434:	03050533          	mul	a0,a0,a6
 438:	e8a43423          	sd	a0,-376(s0)
 43c:	02e90533          	mul	a0,s2,a4
 440:	e0a43023          	sd	a0,-512(s0)
 444:	03190533          	mul	a0,s2,a7
 448:	e0a43823          	sd	a0,-496(s0)
 44c:	02b90533          	mul	a0,s2,a1
 450:	e2a43023          	sd	a0,-480(s0)
 454:	02c90533          	mul	a0,s2,a2
 458:	e2a43423          	sd	a0,-472(s0)
 45c:	603d0503          	lb	a0,1539(s10)
 460:	002a8583          	lb	a1,2(s5)
 464:	02d90633          	mul	a2,s2,a3
 468:	e2c43823          	sd	a2,-464(s0)
 46c:	03090633          	mul	a2,s2,a6
 470:	e2c43c23          	sd	a2,-456(s0)
 474:	02a90533          	mul	a0,s2,a0
 478:	e4a43023          	sd	a0,-448(s0)
 47c:	e6043503          	ld	a0,-416(s0)
 480:	02a58db3          	mul	s11,a1,a0
 484:	482d0603          	lb	a2,1154(s10)
 488:	182a8803          	lb	a6,386(s5)
 48c:	03958533          	mul	a0,a1,s9
 490:	daa43823          	sd	a0,-592(s0)
 494:	03458533          	mul	a0,a1,s4
 498:	dca43823          	sd	a0,-560(s0)
 49c:	03758533          	mul	a0,a1,s7
 4a0:	dea43423          	sd	a0,-536(s0)
 4a4:	03858533          	mul	a0,a1,s8
 4a8:	dea43c23          	sd	a0,-520(s0)
 4ac:	02f58533          	mul	a0,a1,a5
 4b0:	e0a43c23          	sd	a0,-488(s0)
 4b4:	02c58533          	mul	a0,a1,a2
 4b8:	e6a43023          	sd	a0,-416(s0)
 4bc:	03980933          	mul	s2,a6,s9
 4c0:	03480533          	mul	a0,a6,s4
 4c4:	d8a43823          	sd	a0,-624(s0)
 4c8:	03780533          	mul	a0,a6,s7
 4cc:	daa43423          	sd	a0,-600(s0)
 4d0:	03880533          	mul	a0,a6,s8
 4d4:	dca43423          	sd	a0,-568(s0)
 4d8:	602d0e83          	lb	t4,1538(s10)
 4dc:	001a8a03          	lb	s4,1(s5)
 4e0:	02f80533          	mul	a0,a6,a5
 4e4:	dea43023          	sd	a0,-544(s0)
 4e8:	02c80533          	mul	a0,a6,a2
 4ec:	dea43823          	sd	a0,-528(s0)
 4f0:	03d80533          	mul	a0,a6,t4
 4f4:	e0a43423          	sd	a0,-504(s0)
 4f8:	e9043503          	ld	a0,-368(s0)
 4fc:	02aa08b3          	mul	a7,s4,a0
 500:	481d0803          	lb	a6,1153(s10)
 504:	181a8503          	lb	a0,385(s5)
 508:	021a02b3          	mul	t0,s4,ra
 50c:	026a0bb3          	mul	s7,s4,t1
 510:	027a05b3          	mul	a1,s4,t2
 514:	d8b43c23          	sd	a1,-616(s0)
 518:	03ca05b3          	mul	a1,s4,t3
 51c:	dab43c23          	sd	a1,-584(s0)
 520:	036a05b3          	mul	a1,s4,s6
 524:	dcb43c23          	sd	a1,-552(s0)
 528:	030a05b3          	mul	a1,s4,a6
 52c:	e8b43823          	sd	a1,-368(s0)
 530:	02150fb3          	mul	t6,a0,ra
 534:	02650333          	mul	t1,a0,t1
 538:	027503b3          	mul	t2,a0,t2
 53c:	03c50a33          	mul	s4,a0,t3
 540:	601d0583          	lb	a1,1537(s10)
 544:	000a8c83          	lb	s9,0(s5)
 548:	03650c33          	mul	s8,a0,s6
 54c:	03050633          	mul	a2,a0,a6
 550:	dac43023          	sd	a2,-608(s0)
 554:	02b50533          	mul	a0,a0,a1
 558:	dca43023          	sd	a0,-576(s0)
 55c:	ea843503          	ld	a0,-344(s0)
 560:	02ac8533          	mul	a0,s9,a0
 564:	480d0583          	lb	a1,1152(s10)
 568:	180a8083          	lb	ra,384(s5)
 56c:	ea043683          	ld	a3,-352(s0)
 570:	02dc87b3          	mul	a5,s9,a3
 574:	e9843703          	ld	a4,-360(s0)
 578:	02ec8833          	mul	a6,s9,a4
 57c:	e7843e03          	ld	t3,-392(s0)
 580:	03cc8eb3          	mul	t4,s9,t3
 584:	03ec8b33          	mul	s6,s9,t5
 588:	033c8633          	mul	a2,s9,s3
 58c:	eac43423          	sd	a2,-344(s0)
 590:	02bc8cb3          	mul	s9,s9,a1
 594:	02d084b3          	mul	s1,ra,a3
 598:	02e08633          	mul	a2,ra,a4
 59c:	03c086b3          	mul	a3,ra,t3
 5a0:	600d0e03          	lb	t3,1536(s10)
 5a4:	03e08733          	mul	a4,ra,t5
 5a8:	033089b3          	mul	s3,ra,s3
 5ac:	02b085b3          	mul	a1,ra,a1
 5b0:	03c08e33          	mul	t3,ra,t3
 5b4:	012d8933          	add	s2,s11,s2
 5b8:	f5043083          	ld	ra,-176(s0)
 5bc:	012080b3          	add	ra,ra,s2
 5c0:	01f888b3          	add	a7,a7,t6
 5c4:	f4843f83          	ld	t6,-184(s0)
 5c8:	011f8fb3          	add	t6,t6,a7
 5cc:	00950533          	add	a0,a0,s1
 5d0:	f6043883          	ld	a7,-160(s0)
 5d4:	00a88533          	add	a0,a7,a0
 5d8:	f6a43023          	sd	a0,-160(s0)
 5dc:	e4843883          	ld	a7,-440(s0)
 5e0:	e0043503          	ld	a0,-512(s0)
 5e4:	00a888b3          	add	a7,a7,a0
 5e8:	f4043503          	ld	a0,-192(s0)
 5ec:	011508b3          	add	a7,a0,a7
 5f0:	00c78633          	add	a2,a5,a2
 5f4:	f6843503          	ld	a0,-152(s0)
 5f8:	00c50633          	add	a2,a0,a2
 5fc:	f6c43423          	sd	a2,-152(s0)
 600:	00628633          	add	a2,t0,t1
 604:	f3843503          	ld	a0,-200(s0)
 608:	00c50633          	add	a2,a0,a2
 60c:	db043303          	ld	t1,-592(s0)
 610:	d9043503          	ld	a0,-624(s0)
 614:	00a30333          	add	t1,t1,a0
 618:	f3043503          	ld	a0,-208(s0)
 61c:	00650333          	add	t1,a0,t1
 620:	e5043503          	ld	a0,-432(s0)
 624:	e1043783          	ld	a5,-496(s0)
 628:	00f50533          	add	a0,a0,a5
 62c:	f7043283          	ld	t0,-144(s0)
 630:	00a28533          	add	a0,t0,a0
 634:	f6a43823          	sd	a0,-144(s0)
 638:	00d806b3          	add	a3,a6,a3
 63c:	f2843783          	ld	a5,-216(s0)
 640:	00d787b3          	add	a5,a5,a3
 644:	d8843683          	ld	a3,-632(s0)
 648:	007b83b3          	add	t2,s7,t2
 64c:	f8043503          	ld	a0,-128(s0)
 650:	007503b3          	add	t2,a0,t2
 654:	f8743023          	sd	t2,-128(s0)
 658:	dd043503          	ld	a0,-560(s0)
 65c:	da843803          	ld	a6,-600(s0)
 660:	01050533          	add	a0,a0,a6
 664:	f7843283          	ld	t0,-136(s0)
 668:	00a28533          	add	a0,t0,a0
 66c:	f6a43c23          	sd	a0,-136(s0)
 670:	e5843503          	ld	a0,-424(s0)
 674:	e2043803          	ld	a6,-480(s0)
 678:	01050533          	add	a0,a0,a6
 67c:	f8843283          	ld	t0,-120(s0)
 680:	00a28533          	add	a0,t0,a0
 684:	f8a43423          	sd	a0,-120(s0)
 688:	00ee8733          	add	a4,t4,a4
 68c:	f2043f03          	ld	t5,-224(s0)
 690:	00ef0f33          	add	t5,t5,a4
 694:	d9843503          	ld	a0,-616(s0)
 698:	01450a33          	add	s4,a0,s4
 69c:	f9043503          	ld	a0,-112(s0)
 6a0:	01450a33          	add	s4,a0,s4
 6a4:	f9443823          	sd	s4,-112(s0)
 6a8:	de843383          	ld	t2,-536(s0)
 6ac:	dc843503          	ld	a0,-568(s0)
 6b0:	00a383b3          	add	t2,t2,a0
 6b4:	f1843503          	ld	a0,-232(s0)
 6b8:	007503b3          	add	t2,a0,t2
 6bc:	e6843503          	ld	a0,-408(s0)
 6c0:	e2843703          	ld	a4,-472(s0)
 6c4:	00e50533          	add	a0,a0,a4
 6c8:	f1043283          	ld	t0,-240(s0)
 6cc:	00a282b3          	add	t0,t0,a0
 6d0:	013b0eb3          	add	t4,s6,s3
 6d4:	f0843b83          	ld	s7,-248(s0)
 6d8:	01db8bb3          	add	s7,s7,t4
 6dc:	db843503          	ld	a0,-584(s0)
 6e0:	01850c33          	add	s8,a0,s8
 6e4:	f0043a03          	ld	s4,-256(s0)
 6e8:	018a0a33          	add	s4,s4,s8
 6ec:	df843503          	ld	a0,-520(s0)
 6f0:	de043703          	ld	a4,-544(s0)
 6f4:	00e50533          	add	a0,a0,a4
 6f8:	ef843d83          	ld	s11,-264(s0)
 6fc:	00ad8db3          	add	s11,s11,a0
 700:	e7043503          	ld	a0,-400(s0)
 704:	e3043703          	ld	a4,-464(s0)
 708:	00e50533          	add	a0,a0,a4
 70c:	ef043c03          	ld	s8,-272(s0)
 710:	00ac0c33          	add	s8,s8,a0
 714:	ea843503          	ld	a0,-344(s0)
 718:	00b505b3          	add	a1,a0,a1
 71c:	ee843983          	ld	s3,-280(s0)
 720:	00b989b3          	add	s3,s3,a1
 724:	dd843503          	ld	a0,-552(s0)
 728:	da043583          	ld	a1,-608(s0)
 72c:	00b50533          	add	a0,a0,a1
 730:	ee043b03          	ld	s6,-288(s0)
 734:	00ab0b33          	add	s6,s6,a0
 738:	e1843503          	ld	a0,-488(s0)
 73c:	df043583          	ld	a1,-528(s0)
 740:	00b50533          	add	a0,a0,a1
 744:	ed843e83          	ld	t4,-296(s0)
 748:	00ae8eb3          	add	t4,t4,a0
 74c:	e8043503          	ld	a0,-384(s0)
 750:	e3843583          	ld	a1,-456(s0)
 754:	00b50533          	add	a0,a0,a1
 758:	ed043483          	ld	s1,-304(s0)
 75c:	00a484b3          	add	s1,s1,a0
 760:	01cc8e33          	add	t3,s9,t3
 764:	00078c93          	mv	s9,a5
 768:	ec843503          	ld	a0,-312(s0)
 76c:	01c50e33          	add	t3,a0,t3
 770:	e9043503          	ld	a0,-368(s0)
 774:	dc043583          	ld	a1,-576(s0)
 778:	00b50533          	add	a0,a0,a1
 77c:	ec043783          	ld	a5,-320(s0)
 780:	00a787b3          	add	a5,a5,a0
 784:	e6043503          	ld	a0,-416(s0)
 788:	e0843583          	ld	a1,-504(s0)
 78c:	00b50533          	add	a0,a0,a1
 790:	eb843803          	ld	a6,-328(s0)
 794:	00a80833          	add	a6,a6,a0
 798:	e8843503          	ld	a0,-376(s0)
 79c:	e4043583          	ld	a1,-448(s0)
 7a0:	00b50533          	add	a0,a0,a1
 7a4:	eb043903          	ld	s2,-336(s0)
 7a8:	00a90933          	add	s2,s2,a0
 7ac:	f5843503          	ld	a0,-168(s0)
 7b0:	00dd0d33          	add	s10,s10,a3
 7b4:	00150513          	addi	a0,a0,1
 7b8:	480a8a93          	addi	s5,s5,1152
 7bc:	a00514e3          	bnez	a0,1c4 <.LBB56_4>
 7c0:	d7043703          	ld	a4,-656(s0)
 7c4:	00271513          	slli	a0,a4,0x2
 7c8:	d6843583          	ld	a1,-664(s0)
 7cc:	00a585b3          	add	a1,a1,a0
 7d0:	0015a423          	sw	ra,8(a1)
 7d4:	01f5a223          	sw	t6,4(a1)
 7d8:	f6043f83          	ld	t6,-160(s0)
 7dc:	01f5a023          	sw	t6,0(a1)
 7e0:	0115a623          	sw	a7,12(a1)
 7e4:	d6043583          	ld	a1,-672(s0)
 7e8:	00a585b3          	add	a1,a1,a0
 7ec:	0065a423          	sw	t1,8(a1)
 7f0:	00c5a223          	sw	a2,4(a1)
 7f4:	f6843603          	ld	a2,-152(s0)
 7f8:	00c5a023          	sw	a2,0(a1)
 7fc:	f7043603          	ld	a2,-144(s0)
 800:	00c5a623          	sw	a2,12(a1)
 804:	d5843583          	ld	a1,-680(s0)
 808:	00a585b3          	add	a1,a1,a0
 80c:	f7843603          	ld	a2,-136(s0)
 810:	00c5a423          	sw	a2,8(a1)
 814:	f8043603          	ld	a2,-128(s0)
 818:	00c5a223          	sw	a2,4(a1)
 81c:	0195a023          	sw	s9,0(a1)
 820:	f8843603          	ld	a2,-120(s0)
 824:	00c5a623          	sw	a2,12(a1)
 828:	d5043583          	ld	a1,-688(s0)
 82c:	00a585b3          	add	a1,a1,a0
 830:	0075a423          	sw	t2,8(a1)
 834:	f9043603          	ld	a2,-112(s0)
 838:	00c5a223          	sw	a2,4(a1)
 83c:	01e5a023          	sw	t5,0(a1)
 840:	0055a623          	sw	t0,12(a1)
 844:	d4843583          	ld	a1,-696(s0)
 848:	00a585b3          	add	a1,a1,a0
 84c:	01b5a423          	sw	s11,8(a1)
 850:	0145a223          	sw	s4,4(a1)
 854:	0175a023          	sw	s7,0(a1)
 858:	0185a623          	sw	s8,12(a1)
 85c:	d4043583          	ld	a1,-704(s0)
 860:	00a585b3          	add	a1,a1,a0
 864:	01d5a423          	sw	t4,8(a1)
 868:	0165a223          	sw	s6,4(a1)
 86c:	0135a023          	sw	s3,0(a1)
 870:	0095a623          	sw	s1,12(a1)
 874:	d3843583          	ld	a1,-712(s0)
 878:	00a58533          	add	a0,a1,a0
 87c:	01052423          	sw	a6,8(a0)
 880:	00f52223          	sw	a5,4(a0)
 884:	01c52023          	sw	t3,0(a0)
 888:	01252623          	sw	s2,12(a0)
 88c:	00470593          	addi	a1,a4,4
 890:	d7843d03          	ld	s10,-648(s0)
 894:	004d0d13          	addi	s10,s10,4
 898:	d8043a83          	ld	s5,-640(s0)
 89c:	004a8a93          	addi	s5,s5,4
 8a0:	17c00513          	li	a0,380
 8a4:	8aa760e3          	bltu	a4,a0,144 <.LBB56_3>
 8a8:	d2843603          	ld	a2,-728(s0)
 8ac:	00760513          	addi	a0,a2,7
 8b0:	d3043583          	ld	a1,-720(s0)
 8b4:	7ff58593          	addi	a1,a1,2047
 8b8:	28158d13          	addi	s10,a1,641
 8bc:	00700593          	li	a1,7
 8c0:	80b66ee3          	bltu	a2,a1,dc <.LBB56_2>
 8c4:	cf843803          	ld	a6,-776(s0)
 8c8:	00180813          	addi	a6,a6,1
 8cc:	cf043d03          	ld	s10,-784(s0)
 8d0:	00dd0d33          	add	s10,s10,a3
 8d4:	00e00513          	li	a0,14
 8d8:	fea81263          	bne	a6,a0,bc <.LBB56_1>
 8dc:	00000513          	li	a0,0
 8e0:	31813083          	ld	ra,792(sp)
 8e4:	31013403          	ld	s0,784(sp)
 8e8:	30813483          	ld	s1,776(sp)
 8ec:	30013903          	ld	s2,768(sp)
 8f0:	2f813983          	ld	s3,760(sp)
 8f4:	2f013a03          	ld	s4,752(sp)
 8f8:	2e813a83          	ld	s5,744(sp)
 8fc:	2e013b03          	ld	s6,736(sp)
 900:	2d813b83          	ld	s7,728(sp)
 904:	2d013c03          	ld	s8,720(sp)
 908:	2c813c83          	ld	s9,712(sp)
 90c:	2c013d03          	ld	s10,704(sp)
 910:	2b813d83          	ld	s11,696(sp)
 914:	32010113          	addi	sp,sp,800
 918:	00008067          	ret
