
code.o:     file format elf64-littleriscv


Disassembly of section .text.main_dispatch_93_depthwise_conv_2d_nhwc_hwc_1x14x14x576x3x3_i8xi8xi32:

0000000000000000 <main_dispatch_93_depthwise_conv_2d_nhwc_hwc_1x14x14x576x3x3_i8xi8xi32>:
   0:	cf010113          	addi	sp,sp,-784
   4:	30113423          	sd	ra,776(sp)
   8:	30813023          	sd	s0,768(sp)
   c:	2e913c23          	sd	s1,760(sp)
  10:	2f213823          	sd	s2,752(sp)
  14:	2f313423          	sd	s3,744(sp)
  18:	2f413023          	sd	s4,736(sp)
  1c:	2d513c23          	sd	s5,728(sp)
  20:	2d613823          	sd	s6,720(sp)
  24:	2d713423          	sd	s7,712(sp)
  28:	2d813023          	sd	s8,704(sp)
  2c:	2b913c23          	sd	s9,696(sp)
  30:	2ba13823          	sd	s10,688(sp)
  34:	2bb13423          	sd	s11,680(sp)
  38:	31010413          	addi	s0,sp,784
  3c:	0185b503          	ld	a0,24(a1)
  40:	0205b583          	ld	a1,32(a1)
  44:	00000813          	li	a6,0
  48:	00056603          	lwu	a2,0(a0)
  4c:	00456683          	lwu	a3,4(a0)
  50:	0005b703          	ld	a4,0(a1)
  54:	00856503          	lwu	a0,8(a0)
  58:	0105b783          	ld	a5,16(a1)
  5c:	0085b583          	ld	a1,8(a1)
  60:	00c70a33          	add	s4,a4,a2
  64:	ffc57513          	andi	a0,a0,-4
  68:	00a78533          	add	a0,a5,a0
  6c:	cea43823          	sd	a0,-784(s0)
  70:	00b685b3          	add	a1,a3,a1
  74:	24058513          	addi	a0,a1,576
  78:	d2a43423          	sd	a0,-728(s0)
  7c:	00900513          	li	a0,9
  80:	00851593          	slli	a1,a0,0x8
  84:	d2b43023          	sd	a1,-736(s0)
  88:	00951e13          	slli	t3,a0,0x9
  8c:	01b00593          	li	a1,27
  90:	00859613          	slli	a2,a1,0x8
  94:	d0c43c23          	sd	a2,-744(s0)
  98:	00a51693          	slli	a3,a0,0xa
  9c:	00003537          	lui	a0,0x3
  a0:	d005051b          	addiw	a0,a0,-768 # 2d00 <.LBB87_10>
  a4:	d0a43823          	sd	a0,-752(s0)
  a8:	00959593          	slli	a1,a1,0x9
  ac:	d0b43423          	sd	a1,-760(s0)
  b0:	f5c43423          	sd	t3,-184(s0)
  b4:	d8d43c23          	sd	a3,-616(s0)

00000000000000b8 <.LBB73_1>:
  b8:	00000513          	li	a0,0
  bc:	00981593          	slli	a1,a6,0x9
  c0:	d1043023          	sd	a6,-768(s0)
  c4:	00f81613          	slli	a2,a6,0xf
  c8:	40b60633          	sub	a2,a2,a1
  cc:	cf043583          	ld	a1,-784(s0)
  d0:	00c585b3          	add	a1,a1,a2
  d4:	d2b43823          	sd	a1,-720(s0)
  d8:	cf443c23          	sd	s4,-776(s0)

00000000000000dc <.LBB73_2>:
  dc:	00000593          	li	a1,0
  e0:	d2043603          	ld	a2,-736(s0)
  e4:	d2a43c23          	sd	a0,-712(s0)
  e8:	02c50533          	mul	a0,a0,a2
  ec:	d3043703          	ld	a4,-720(s0)
  f0:	00a70733          	add	a4,a4,a0
  f4:	00c70633          	add	a2,a4,a2
  f8:	d6c43823          	sd	a2,-656(s0)
  fc:	01c70533          	add	a0,a4,t3
 100:	d6a43423          	sd	a0,-664(s0)
 104:	d1843503          	ld	a0,-744(s0)
 108:	00a70533          	add	a0,a4,a0
 10c:	d6a43023          	sd	a0,-672(s0)
 110:	00d70533          	add	a0,a4,a3
 114:	d4a43c23          	sd	a0,-680(s0)
 118:	d1043503          	ld	a0,-752(s0)
 11c:	00a70533          	add	a0,a4,a0
 120:	d4a43823          	sd	a0,-688(s0)
 124:	d0843503          	ld	a0,-760(s0)
 128:	d6e43c23          	sd	a4,-648(s0)
 12c:	00a70533          	add	a0,a4,a0
 130:	d4a43423          	sd	a0,-696(s0)
 134:	d5443023          	sd	s4,-704(s0)
 138:	d2843483          	ld	s1,-728(s0)

000000000000013c <.LBB73_3>:
 13c:	00000513          	li	a0,0
 140:	00000713          	li	a4,0
 144:	00000c13          	li	s8,0
 148:	00000393          	li	t2,0
 14c:	00000313          	li	t1,0
 150:	00000913          	li	s2,0
 154:	00000c93          	li	s9,0
 158:	f4043823          	sd	zero,-176(s0)
 15c:	f6043423          	sd	zero,-152(s0)
 160:	f6043023          	sd	zero,-160(s0)
 164:	f4043c23          	sd	zero,-168(s0)
 168:	f6043823          	sd	zero,-144(s0)
 16c:	00000a93          	li	s5,0
 170:	f8043023          	sd	zero,-128(s0)
 174:	f6043c23          	sd	zero,-136(s0)
 178:	00000f13          	li	t5,0
 17c:	00000b13          	li	s6,0
 180:	f8043823          	sd	zero,-112(s0)
 184:	f8043423          	sd	zero,-120(s0)
 188:	00000093          	li	ra,0
 18c:	00000893          	li	a7,0
 190:	00000293          	li	t0,0
 194:	00000f93          	li	t6,0
 198:	00000d93          	li	s11,0
 19c:	00000e93          	li	t4,0
 1a0:	00000d13          	li	s10,0
 1a4:	00000813          	li	a6,0
 1a8:	00000993          	li	s3,0
 1ac:	d8b43023          	sd	a1,-640(s0)
 1b0:	ffd00593          	li	a1,-3
 1b4:	d9443823          	sd	s4,-624(s0)
 1b8:	d8943423          	sd	s1,-632(s0)

00000000000001bc <.LBB73_4>:
 1bc:	edd43423          	sd	t4,-312(s0)
 1c0:	eda43023          	sd	s10,-320(s0)
 1c4:	eb343423          	sd	s3,-344(s0)
 1c8:	f4b43023          	sd	a1,-192(s0)
 1cc:	002a0583          	lb	a1,2(s4)
 1d0:	00028e93          	mv	t4,t0
 1d4:	dc248283          	lb	t0,-574(s1)
 1d8:	001a0603          	lb	a2,1(s4)
 1dc:	000d8d13          	mv	s10,s11
 1e0:	000f8d93          	mv	s11,t6
 1e4:	dc148f83          	lb	t6,-575(s1)
 1e8:	02b285b3          	mul	a1,t0,a1
 1ec:	018585b3          	add	a1,a1,s8
 1f0:	f2b43c23          	sd	a1,-200(s0)
 1f4:	02cf85b3          	mul	a1,t6,a2
 1f8:	000a0683          	lb	a3,0(s4)
 1fc:	dc048603          	lb	a2,-576(s1)
 200:	00e585b3          	add	a1,a1,a4
 204:	f2b43823          	sd	a1,-208(s0)
 208:	003a0783          	lb	a5,3(s4)
 20c:	dc348583          	lb	a1,-573(s1)
 210:	02d606b3          	mul	a3,a2,a3
 214:	00a68533          	add	a0,a3,a0
 218:	f2a43423          	sd	a0,-216(s0)
 21c:	240a0503          	lb	a0,576(s4)
 220:	eea43c23          	sd	a0,-264(s0)
 224:	02f586b3          	mul	a3,a1,a5
 228:	007686b3          	add	a3,a3,t2
 22c:	f2d43023          	sd	a3,-224(s0)
 230:	241a0683          	lb	a3,577(s4)
 234:	ead43023          	sd	a3,-352(s0)
 238:	02a60533          	mul	a0,a2,a0
 23c:	00650533          	add	a0,a0,t1
 240:	f0a43c23          	sd	a0,-232(s0)
 244:	242a0703          	lb	a4,578(s4)
 248:	e8e43823          	sd	a4,-368(s0)
 24c:	02df8533          	mul	a0,t6,a3
 250:	01250533          	add	a0,a0,s2
 254:	f0a43823          	sd	a0,-240(s0)
 258:	243a0b83          	lb	s7,579(s4)
 25c:	02e28533          	mul	a0,t0,a4
 260:	01950533          	add	a0,a0,s9
 264:	f0a43423          	sd	a0,-248(s0)
 268:	480a0703          	lb	a4,1152(s4)
 26c:	eae43823          	sd	a4,-336(s0)
 270:	03758533          	mul	a0,a1,s7
 274:	f5043683          	ld	a3,-176(s0)
 278:	00d50533          	add	a0,a0,a3
 27c:	f4a43823          	sd	a0,-176(s0)
 280:	481a0783          	lb	a5,1153(s4)
 284:	e8f43c23          	sd	a5,-360(s0)
 288:	02e60533          	mul	a0,a2,a4
 28c:	f6843683          	ld	a3,-152(s0)
 290:	00d50533          	add	a0,a0,a3
 294:	e8a43423          	sd	a0,-376(s0)
 298:	482a0303          	lb	t1,1154(s4)
 29c:	f6643423          	sd	t1,-152(s0)
 2a0:	02ff8533          	mul	a0,t6,a5
 2a4:	f6043683          	ld	a3,-160(s0)
 2a8:	00d50533          	add	a0,a0,a3
 2ac:	f6a43023          	sd	a0,-160(s0)
 2b0:	00088713          	mv	a4,a7
 2b4:	000f0893          	mv	a7,t5
 2b8:	483a0f03          	lb	t5,1155(s4)
 2bc:	02628533          	mul	a0,t0,t1
 2c0:	f5843683          	ld	a3,-168(s0)
 2c4:	00d50533          	add	a0,a0,a3
 2c8:	f4a43c23          	sd	a0,-168(s0)
 2cc:	6c0a0783          	lb	a5,1728(s4)
 2d0:	03e58533          	mul	a0,a1,t5
 2d4:	f7043683          	ld	a3,-144(s0)
 2d8:	00d50533          	add	a0,a0,a3
 2dc:	6c1a0983          	lb	s3,1729(s4)
 2e0:	02f606b3          	mul	a3,a2,a5
 2e4:	00078c93          	mv	s9,a5
 2e8:	e0f43823          	sd	a5,-496(s0)
 2ec:	015686b3          	add	a3,a3,s5
 2f0:	e6d43c23          	sd	a3,-392(s0)
 2f4:	00008793          	mv	a5,ra
 2f8:	6c2a0083          	lb	ra,1730(s4)
 2fc:	033f86b3          	mul	a3,t6,s3
 300:	dd343823          	sd	s3,-560(s0)
 304:	f8043303          	ld	t1,-128(s0)
 308:	006686b3          	add	a3,a3,t1
 30c:	e6d43023          	sd	a3,-416(s0)
 310:	6c3a0e03          	lb	t3,1731(s4)
 314:	021286b3          	mul	a3,t0,ra
 318:	f7843303          	ld	t1,-136(s0)
 31c:	006686b3          	add	a3,a3,t1
 320:	e6d43423          	sd	a3,-408(s0)
 324:	7ffa0a93          	addi	s5,s4,2047
 328:	101a8903          	lb	s2,257(s5)
 32c:	03c586b3          	mul	a3,a1,t3
 330:	011686b3          	add	a3,a3,a7
 334:	e6d43823          	sd	a3,-400(s0)
 338:	102a8883          	lb	a7,258(s5)
 33c:	032606b3          	mul	a3,a2,s2
 340:	df243423          	sd	s2,-536(s0)
 344:	016686b3          	add	a3,a3,s6
 348:	f0d43023          	sd	a3,-256(s0)
 34c:	103a8b03          	lb	s6,259(s5)
 350:	031f86b3          	mul	a3,t6,a7
 354:	f9043303          	ld	t1,-112(s0)
 358:	006686b3          	add	a3,a3,t1
 35c:	f8d43823          	sd	a3,-112(s0)
 360:	00080c13          	mv	s8,a6
 364:	104a8803          	lb	a6,260(s5)
 368:	036286b3          	mul	a3,t0,s6
 36c:	f8843303          	ld	t1,-120(s0)
 370:	006686b3          	add	a3,a3,t1
 374:	f8d43423          	sd	a3,-120(s0)
 378:	341a8303          	lb	t1,833(s5)
 37c:	f8643023          	sd	t1,-128(s0)
 380:	030586b3          	mul	a3,a1,a6
 384:	00f686b3          	add	a3,a3,a5
 388:	eed43823          	sd	a3,-272(s0)
 38c:	342a8783          	lb	a5,834(s5)
 390:	f6f43823          	sd	a5,-144(s0)
 394:	026606b3          	mul	a3,a2,t1
 398:	00e686b3          	add	a3,a3,a4
 39c:	eed43423          	sd	a3,-280(s0)
 3a0:	343a8303          	lb	t1,835(s5)
 3a4:	02ff86b3          	mul	a3,t6,a5
 3a8:	01d686b3          	add	a3,a3,t4
 3ac:	eed43023          	sd	a3,-288(s0)
 3b0:	344a8783          	lb	a5,836(s5)
 3b4:	026283b3          	mul	t2,t0,t1
 3b8:	01b383b3          	add	t2,t2,s11
 3bc:	ec743c23          	sd	t2,-296(s0)
 3c0:	581a8683          	lb	a3,1409(s5)
 3c4:	f6d43c23          	sd	a3,-136(s0)
 3c8:	02f583b3          	mul	t2,a1,a5
 3cc:	01a383b3          	add	t2,t2,s10
 3d0:	ec743823          	sd	t2,-304(s0)
 3d4:	582a8d83          	lb	s11,1410(s5)
 3d8:	02d60633          	mul	a2,a2,a3
 3dc:	ec843683          	ld	a3,-312(s0)
 3e0:	00d60633          	add	a2,a2,a3
 3e4:	ecc43423          	sd	a2,-312(s0)
 3e8:	583a8e83          	lb	t4,1411(s5)
 3ec:	03bf8633          	mul	a2,t6,s11
 3f0:	ec043683          	ld	a3,-320(s0)
 3f4:	00d60633          	add	a2,a2,a3
 3f8:	ecc43023          	sd	a2,-320(s0)
 3fc:	584a8703          	lb	a4,1412(s5)
 400:	03d282b3          	mul	t0,t0,t4
 404:	018282b3          	add	t0,t0,s8
 408:	ea543c23          	sd	t0,-328(s0)
 40c:	00348283          	lb	t0,3(s1)
 410:	02e585b3          	mul	a1,a1,a4
 414:	ea843603          	ld	a2,-344(s0)
 418:	00c585b3          	add	a1,a1,a2
 41c:	eab43423          	sd	a1,-344(s0)
 420:	00248583          	lb	a1,2(s1)
 424:	03c28fb3          	mul	t6,t0,t3
 428:	01f50533          	add	a0,a0,t6
 42c:	e8a43023          	sd	a0,-384(s0)
 430:	00148d03          	lb	s10,1(s1)
 434:	00048503          	lb	a0,0(s1)
 438:	02158fb3          	mul	t6,a1,ra
 43c:	f5843603          	ld	a2,-168(s0)
 440:	01f60fb3          	add	t6,a2,t6
 444:	f5f43c23          	sd	t6,-168(s0)
 448:	033d0fb3          	mul	t6,s10,s3
 44c:	f6043603          	ld	a2,-160(s0)
 450:	01f60fb3          	add	t6,a2,t6
 454:	f7f43023          	sd	t6,-160(s0)
 458:	03950fb3          	mul	t6,a0,s9
 45c:	e8843603          	ld	a2,-376(s0)
 460:	01f60fb3          	add	t6,a2,t6
 464:	e5f43c23          	sd	t6,-424(s0)
 468:	03028fb3          	mul	t6,t0,a6
 46c:	e7043603          	ld	a2,-400(s0)
 470:	01f60fb3          	add	t6,a2,t6
 474:	e7f43823          	sd	t6,-400(s0)
 478:	03658fb3          	mul	t6,a1,s6
 47c:	e6843603          	ld	a2,-408(s0)
 480:	01f60fb3          	add	t6,a2,t6
 484:	e7f43423          	sd	t6,-408(s0)
 488:	031d0fb3          	mul	t6,s10,a7
 48c:	e6043603          	ld	a2,-416(s0)
 490:	01f60fb3          	add	t6,a2,t6
 494:	e5f43823          	sd	t6,-432(s0)
 498:	03250fb3          	mul	t6,a0,s2
 49c:	e7843603          	ld	a2,-392(s0)
 4a0:	01f60fb3          	add	t6,a2,t6
 4a4:	e5f43423          	sd	t6,-440(s0)
 4a8:	03728633          	mul	a2,t0,s7
 4ac:	e2c43423          	sd	a2,-472(s0)
 4b0:	7c4a8603          	lb	a2,1988(s5)
 4b4:	24348903          	lb	s2,579(s1)
 4b8:	03e286b3          	mul	a3,t0,t5
 4bc:	e2d43c23          	sd	a3,-456(s0)
 4c0:	02f286b3          	mul	a3,t0,a5
 4c4:	e6d43023          	sd	a3,-416(s0)
 4c8:	02e286b3          	mul	a3,t0,a4
 4cc:	e6d43c23          	sd	a3,-392(s0)
 4d0:	02c286b3          	mul	a3,t0,a2
 4d4:	e8d43423          	sd	a3,-376(s0)
 4d8:	03e906b3          	mul	a3,s2,t5
 4dc:	ded43c23          	sd	a3,-520(s0)
 4e0:	03c906b3          	mul	a3,s2,t3
 4e4:	e0d43423          	sd	a3,-504(s0)
 4e8:	030906b3          	mul	a3,s2,a6
 4ec:	e0d43c23          	sd	a3,-488(s0)
 4f0:	f4843c83          	ld	s9,-184(s0)
 4f4:	019a0cb3          	add	s9,s4,s9
 4f8:	003c8683          	lb	a3,3(s9)
 4fc:	02f907b3          	mul	a5,s2,a5
 500:	e0f43023          	sd	a5,-512(s0)
 504:	02e90733          	mul	a4,s2,a4
 508:	e2e43023          	sd	a4,-480(s0)
 50c:	02c90633          	mul	a2,s2,a2
 510:	e2c43823          	sd	a2,-464(s0)
 514:	02d90633          	mul	a2,s2,a3
 518:	e4c43023          	sd	a2,-448(s0)
 51c:	e9043603          	ld	a2,-368(s0)
 520:	02c58933          	mul	s2,a1,a2
 524:	7c3a8983          	lb	s3,1987(s5)
 528:	24248b83          	lb	s7,578(s1)
 52c:	f6843603          	ld	a2,-152(s0)
 530:	02c586b3          	mul	a3,a1,a2
 534:	dad43423          	sd	a3,-600(s0)
 538:	026586b3          	mul	a3,a1,t1
 53c:	dcd43c23          	sd	a3,-552(s0)
 540:	03d586b3          	mul	a3,a1,t4
 544:	ded43823          	sd	a3,-528(s0)
 548:	033585b3          	mul	a1,a1,s3
 54c:	e8b43823          	sd	a1,-368(s0)
 550:	02cb83b3          	mul	t2,s7,a2
 554:	021b85b3          	mul	a1,s7,ra
 558:	f6b43423          	sd	a1,-152(s0)
 55c:	036b85b3          	mul	a1,s7,s6
 560:	dab43023          	sd	a1,-608(s0)
 564:	002c8083          	lb	ra,2(s9)
 568:	026b85b3          	mul	a1,s7,t1
 56c:	dab43823          	sd	a1,-592(s0)
 570:	03db85b3          	mul	a1,s7,t4
 574:	dcb43023          	sd	a1,-576(s0)
 578:	033b85b3          	mul	a1,s7,s3
 57c:	dcb43423          	sd	a1,-568(s0)
 580:	021b85b3          	mul	a1,s7,ra
 584:	deb43023          	sd	a1,-544(s0)
 588:	ea043583          	ld	a1,-352(s0)
 58c:	02bd0333          	mul	t1,s10,a1
 590:	7c2a8983          	lb	s3,1986(s5)
 594:	24148c03          	lb	s8,577(s1)
 598:	e9843583          	ld	a1,-360(s0)
 59c:	02bd02b3          	mul	t0,s10,a1
 5a0:	f7043603          	ld	a2,-144(s0)
 5a4:	02cd00b3          	mul	ra,s10,a2
 5a8:	03bd06b3          	mul	a3,s10,s11
 5ac:	dad43c23          	sd	a3,-584(s0)
 5b0:	033d06b3          	mul	a3,s10,s3
 5b4:	ead43023          	sd	a3,-352(s0)
 5b8:	02bc0733          	mul	a4,s8,a1
 5bc:	dd043583          	ld	a1,-560(s0)
 5c0:	02bc0833          	mul	a6,s8,a1
 5c4:	031c0e33          	mul	t3,s8,a7
 5c8:	001c8583          	lb	a1,1(s9)
 5cc:	02cc0f33          	mul	t5,s8,a2
 5d0:	03bc0fb3          	mul	t6,s8,s11
 5d4:	033c0bb3          	mul	s7,s8,s3
 5d8:	02bc0d33          	mul	s10,s8,a1
 5dc:	7c1a8a83          	lb	s5,1985(s5)
 5e0:	000c8c03          	lb	s8,0(s9)
 5e4:	ef843583          	ld	a1,-264(s0)
 5e8:	02b50cb3          	mul	s9,a0,a1
 5ec:	24048b03          	lb	s6,576(s1)
 5f0:	eb043603          	ld	a2,-336(s0)
 5f4:	02c505b3          	mul	a1,a0,a2
 5f8:	f8043683          	ld	a3,-128(s0)
 5fc:	02d508b3          	mul	a7,a0,a3
 600:	f7843783          	ld	a5,-136(s0)
 604:	02f50eb3          	mul	t4,a0,a5
 608:	035509b3          	mul	s3,a0,s5
 60c:	02cb0533          	mul	a0,s6,a2
 610:	e1043603          	ld	a2,-496(s0)
 614:	02cb0db3          	mul	s11,s6,a2
 618:	de843603          	ld	a2,-536(s0)
 61c:	02cb0633          	mul	a2,s6,a2
 620:	02db06b3          	mul	a3,s6,a3
 624:	02fb07b3          	mul	a5,s6,a5
 628:	035b0ab3          	mul	s5,s6,s5
 62c:	038b0b33          	mul	s6,s6,s8
 630:	007903b3          	add	t2,s2,t2
 634:	f3843c03          	ld	s8,-200(s0)
 638:	007c0c33          	add	s8,s8,t2
 63c:	00e30733          	add	a4,t1,a4
 640:	f3043303          	ld	t1,-208(s0)
 644:	00e30733          	add	a4,t1,a4
 648:	00ac8533          	add	a0,s9,a0
 64c:	f2843303          	ld	t1,-216(s0)
 650:	00a30533          	add	a0,t1,a0
 654:	e2843383          	ld	t2,-472(s0)
 658:	df843303          	ld	t1,-520(s0)
 65c:	006383b3          	add	t2,t2,t1
 660:	f2043303          	ld	t1,-224(s0)
 664:	007303b3          	add	t2,t1,t2
 668:	01b585b3          	add	a1,a1,s11
 66c:	f1843303          	ld	t1,-232(s0)
 670:	00b30333          	add	t1,t1,a1
 674:	01028833          	add	a6,t0,a6
 678:	f1043903          	ld	s2,-240(s0)
 67c:	01090933          	add	s2,s2,a6
 680:	da843c83          	ld	s9,-600(s0)
 684:	f6843583          	ld	a1,-152(s0)
 688:	00bc8cb3          	add	s9,s9,a1
 68c:	f0843583          	ld	a1,-248(s0)
 690:	01958cb3          	add	s9,a1,s9
 694:	e3843583          	ld	a1,-456(s0)
 698:	e0843803          	ld	a6,-504(s0)
 69c:	010585b3          	add	a1,a1,a6
 6a0:	f5043803          	ld	a6,-176(s0)
 6a4:	00b805b3          	add	a1,a6,a1
 6a8:	f4b43823          	sd	a1,-176(s0)
 6ac:	e5843583          	ld	a1,-424(s0)
 6b0:	00c58633          	add	a2,a1,a2
 6b4:	f6c43423          	sd	a2,-152(s0)
 6b8:	f6043583          	ld	a1,-160(s0)
 6bc:	01c58e33          	add	t3,a1,t3
 6c0:	f7c43023          	sd	t3,-160(s0)
 6c4:	f5843583          	ld	a1,-168(s0)
 6c8:	da043603          	ld	a2,-608(s0)
 6cc:	00c585b3          	add	a1,a1,a2
 6d0:	f4b43c23          	sd	a1,-168(s0)
 6d4:	e8043583          	ld	a1,-384(s0)
 6d8:	e1843603          	ld	a2,-488(s0)
 6dc:	00c585b3          	add	a1,a1,a2
 6e0:	f6b43823          	sd	a1,-144(s0)
 6e4:	e4843603          	ld	a2,-440(s0)
 6e8:	00d60633          	add	a2,a2,a3
 6ec:	d9843683          	ld	a3,-616(s0)
 6f0:	e5043583          	ld	a1,-432(s0)
 6f4:	01e58f33          	add	t5,a1,t5
 6f8:	f9e43023          	sd	t5,-128(s0)
 6fc:	e6843583          	ld	a1,-408(s0)
 700:	db043803          	ld	a6,-592(s0)
 704:	010585b3          	add	a1,a1,a6
 708:	f6b43c23          	sd	a1,-136(s0)
 70c:	e7043f03          	ld	t5,-400(s0)
 710:	e0043583          	ld	a1,-512(s0)
 714:	00bf0f33          	add	t5,t5,a1
 718:	00f887b3          	add	a5,a7,a5
 71c:	f0043583          	ld	a1,-256(s0)
 720:	00f587b3          	add	a5,a1,a5
 724:	01f08fb3          	add	t6,ra,t6
 728:	f9043583          	ld	a1,-112(s0)
 72c:	01f58fb3          	add	t6,a1,t6
 730:	f9f43823          	sd	t6,-112(s0)
 734:	dd843583          	ld	a1,-552(s0)
 738:	dc043803          	ld	a6,-576(s0)
 73c:	010585b3          	add	a1,a1,a6
 740:	f8843803          	ld	a6,-120(s0)
 744:	00b805b3          	add	a1,a6,a1
 748:	f8b43423          	sd	a1,-120(s0)
 74c:	e6043583          	ld	a1,-416(s0)
 750:	e2043803          	ld	a6,-480(s0)
 754:	010585b3          	add	a1,a1,a6
 758:	ef043083          	ld	ra,-272(s0)
 75c:	00b080b3          	add	ra,ra,a1
 760:	015e8eb3          	add	t4,t4,s5
 764:	00060a93          	mv	s5,a2
 768:	ee843883          	ld	a7,-280(s0)
 76c:	01d888b3          	add	a7,a7,t4
 770:	db843583          	ld	a1,-584(s0)
 774:	01758bb3          	add	s7,a1,s7
 778:	ee043283          	ld	t0,-288(s0)
 77c:	017282b3          	add	t0,t0,s7
 780:	df043583          	ld	a1,-528(s0)
 784:	dc843603          	ld	a2,-568(s0)
 788:	00c585b3          	add	a1,a1,a2
 78c:	ed843f83          	ld	t6,-296(s0)
 790:	00bf8fb3          	add	t6,t6,a1
 794:	e7843583          	ld	a1,-392(s0)
 798:	e3043603          	ld	a2,-464(s0)
 79c:	00c585b3          	add	a1,a1,a2
 7a0:	ed043d83          	ld	s11,-304(s0)
 7a4:	00bd8db3          	add	s11,s11,a1
 7a8:	016989b3          	add	s3,s3,s6
 7ac:	00078b13          	mv	s6,a5
 7b0:	ec843e83          	ld	t4,-312(s0)
 7b4:	013e8eb3          	add	t4,t4,s3
 7b8:	f4843e03          	ld	t3,-184(s0)
 7bc:	ea043583          	ld	a1,-352(s0)
 7c0:	01a58d33          	add	s10,a1,s10
 7c4:	ec043583          	ld	a1,-320(s0)
 7c8:	01a58d33          	add	s10,a1,s10
 7cc:	e9043583          	ld	a1,-368(s0)
 7d0:	de043603          	ld	a2,-544(s0)
 7d4:	00c585b3          	add	a1,a1,a2
 7d8:	eb843803          	ld	a6,-328(s0)
 7dc:	00b80833          	add	a6,a6,a1
 7e0:	e8843583          	ld	a1,-376(s0)
 7e4:	e4043603          	ld	a2,-448(s0)
 7e8:	00c585b3          	add	a1,a1,a2
 7ec:	ea843983          	ld	s3,-344(s0)
 7f0:	00b989b3          	add	s3,s3,a1
 7f4:	f4043583          	ld	a1,-192(s0)
 7f8:	6c048493          	addi	s1,s1,1728
 7fc:	00158593          	addi	a1,a1,1
 800:	00da0a33          	add	s4,s4,a3
 804:	9a059ce3          	bnez	a1,1bc <.LBB73_4>
 808:	d8043783          	ld	a5,-640(s0)
 80c:	00279593          	slli	a1,a5,0x2
 810:	d7843603          	ld	a2,-648(s0)
 814:	00b60633          	add	a2,a2,a1
 818:	01862423          	sw	s8,8(a2)
 81c:	00e62223          	sw	a4,4(a2)
 820:	00a62023          	sw	a0,0(a2)
 824:	00762623          	sw	t2,12(a2)
 828:	d7043503          	ld	a0,-656(s0)
 82c:	00b50533          	add	a0,a0,a1
 830:	01952423          	sw	s9,8(a0)
 834:	01252223          	sw	s2,4(a0)
 838:	00652023          	sw	t1,0(a0)
 83c:	f5043603          	ld	a2,-176(s0)
 840:	00c52623          	sw	a2,12(a0)
 844:	d6843503          	ld	a0,-664(s0)
 848:	00b50533          	add	a0,a0,a1
 84c:	f5843603          	ld	a2,-168(s0)
 850:	00c52423          	sw	a2,8(a0)
 854:	f6043603          	ld	a2,-160(s0)
 858:	00c52223          	sw	a2,4(a0)
 85c:	f6843603          	ld	a2,-152(s0)
 860:	00c52023          	sw	a2,0(a0)
 864:	f7043603          	ld	a2,-144(s0)
 868:	00c52623          	sw	a2,12(a0)
 86c:	d6043503          	ld	a0,-672(s0)
 870:	00b50533          	add	a0,a0,a1
 874:	f7843603          	ld	a2,-136(s0)
 878:	00c52423          	sw	a2,8(a0)
 87c:	f8043603          	ld	a2,-128(s0)
 880:	00c52223          	sw	a2,4(a0)
 884:	01552023          	sw	s5,0(a0)
 888:	01e52623          	sw	t5,12(a0)
 88c:	d5843503          	ld	a0,-680(s0)
 890:	00b50533          	add	a0,a0,a1
 894:	f8843603          	ld	a2,-120(s0)
 898:	00c52423          	sw	a2,8(a0)
 89c:	f9043603          	ld	a2,-112(s0)
 8a0:	00c52223          	sw	a2,4(a0)
 8a4:	01652023          	sw	s6,0(a0)
 8a8:	00152623          	sw	ra,12(a0)
 8ac:	d5043503          	ld	a0,-688(s0)
 8b0:	00b50533          	add	a0,a0,a1
 8b4:	01f52423          	sw	t6,8(a0)
 8b8:	00552223          	sw	t0,4(a0)
 8bc:	01152023          	sw	a7,0(a0)
 8c0:	01b52623          	sw	s11,12(a0)
 8c4:	d4843503          	ld	a0,-696(s0)
 8c8:	00b505b3          	add	a1,a0,a1
 8cc:	0105a423          	sw	a6,8(a1)
 8d0:	01a5a223          	sw	s10,4(a1)
 8d4:	01d5a023          	sw	t4,0(a1)
 8d8:	0135a623          	sw	s3,12(a1)
 8dc:	00478593          	addi	a1,a5,4
 8e0:	d8843483          	ld	s1,-632(s0)
 8e4:	00448493          	addi	s1,s1,4
 8e8:	d9043a03          	ld	s4,-624(s0)
 8ec:	004a0a13          	addi	s4,s4,4
 8f0:	23c00513          	li	a0,572
 8f4:	84a7e4e3          	bltu	a5,a0,13c <.LBB73_3>
 8f8:	d3843603          	ld	a2,-712(s0)
 8fc:	00760513          	addi	a0,a2,7
 900:	d4043583          	ld	a1,-704(s0)
 904:	7ff58593          	addi	a1,a1,2047
 908:	7c158a13          	addi	s4,a1,1985
 90c:	00700593          	li	a1,7
 910:	fcb66663          	bltu	a2,a1,dc <.LBB73_2>
 914:	d0043803          	ld	a6,-768(s0)
 918:	00180813          	addi	a6,a6,1
 91c:	cf843a03          	ld	s4,-776(s0)
 920:	00da0a33          	add	s4,s4,a3
 924:	00e00513          	li	a0,14
 928:	f8a81863          	bne	a6,a0,b8 <.LBB73_1>
 92c:	00000513          	li	a0,0
 930:	30813083          	ld	ra,776(sp)
 934:	30013403          	ld	s0,768(sp)
 938:	2f813483          	ld	s1,760(sp)
 93c:	2f013903          	ld	s2,752(sp)
 940:	2e813983          	ld	s3,744(sp)
 944:	2e013a03          	ld	s4,736(sp)
 948:	2d813a83          	ld	s5,728(sp)
 94c:	2d013b03          	ld	s6,720(sp)
 950:	2c813b83          	ld	s7,712(sp)
 954:	2c013c03          	ld	s8,704(sp)
 958:	2b813c83          	ld	s9,696(sp)
 95c:	2b013d03          	ld	s10,688(sp)
 960:	2a813d83          	ld	s11,680(sp)
 964:	31010113          	addi	sp,sp,784
 968:	00008067          	ret
