
code.o:     file format elf64-littleriscv


Disassembly of section .text.main_dispatch_89_matmul_196x96x384_i8xi8xi32:

0000000000000000 <main_dispatch_89_matmul_196x96x384_i8xi8xi32>:
       0:	f1501173          	csrrw	sp,0xf15,zero

0000000000000004 <.Lfunc_begin69>:
       4:	81010113          	addi	sp,sp,-2032
       8:	7e113423          	sd	ra,2024(sp)
       c:	7e813023          	sd	s0,2016(sp)
      10:	7c913c23          	sd	s1,2008(sp)
      14:	7d213823          	sd	s2,2000(sp)
      18:	7d313423          	sd	s3,1992(sp)
      1c:	7d413023          	sd	s4,1984(sp)
      20:	7b513c23          	sd	s5,1976(sp)
      24:	7b613823          	sd	s6,1968(sp)
      28:	7b713423          	sd	s7,1960(sp)
      2c:	7b813023          	sd	s8,1952(sp)
      30:	79913c23          	sd	s9,1944(sp)
      34:	79a13823          	sd	s10,1936(sp)
      38:	79b13423          	sd	s11,1928(sp)
      3c:	7f010413          	addi	s0,sp,2032
      40:	80010113          	addi	sp,sp,-2048
      44:	ae010113          	addi	sp,sp,-1312
      48:	0205b583          	ld	a1,32(a1)
      4c:	00000513          	li	a0,0
      50:	0085b603          	ld	a2,8(a1)
      54:	0005b703          	ld	a4,0(a1)
      58:	000606b7          	lui	a3,0x60
      5c:	a806869b          	addiw	a3,a3,-1408 # 5fa80 <.Lfunc_end80+0x370b4>
      60:	00d609b3          	add	s3,a2,a3
      64:	0001b6b7          	lui	a3,0x1b
      68:	f006869b          	addiw	a3,a3,-256 # 1af00 <.LBB41_3269>
      6c:	00d606b3          	add	a3,a2,a3
      70:	000017b7          	lui	a5,0x1
      74:	40f407b3          	sub	a5,s0,a5
      78:	b6d7b023          	sd	a3,-1184(a5) # b60 <.LBB69_3+0x938>
      7c:	000126b7          	lui	a3,0x12
      80:	6006869b          	addiw	a3,a3,1536 # 12600 <.LBB21_1086+0xc>
      84:	00d706b3          	add	a3,a4,a3
      88:	000017b7          	lui	a5,0x1
      8c:	40f407b3          	sub	a5,s0,a5
      90:	aed7bc23          	sd	a3,-1288(a5) # af8 <.LBB69_3+0x8d0>
      94:	000696b7          	lui	a3,0x69
      98:	a806869b          	addiw	a3,a3,-1408 # 68a80 <.Lfunc_end80+0x400b4>
      9c:	0105b583          	ld	a1,16(a1)
      a0:	00d60633          	add	a2,a2,a3
      a4:	000016b7          	lui	a3,0x1
      a8:	40d406b3          	sub	a3,s0,a3
      ac:	b4c6bc23          	sd	a2,-1192(a3) # b58 <.LBB69_3+0x930>
      b0:	00013637          	lui	a2,0x13
      b4:	9406061b          	addiw	a2,a2,-1728 # 12940 <.LBB21_1104+0x8>
      b8:	00c585b3          	add	a1,a1,a2
      bc:	00001637          	lui	a2,0x1
      c0:	40c40633          	sub	a2,s0,a2
      c4:	b0b63423          	sd	a1,-1272(a2) # b08 <.LBB69_3+0x8e0>
      c8:	000015b7          	lui	a1,0x1
      cc:	40b405b3          	sub	a1,s0,a1
      d0:	aee5b823          	sd	a4,-1296(a1) # af0 <.LBB69_3+0x8c8>
      d4:	60070593          	addi	a1,a4,1536
      d8:	00001637          	lui	a2,0x1
      dc:	40c40633          	sub	a2,s0,a2
      e0:	b6b63423          	sd	a1,-1176(a2) # b68 <.LBB69_3+0x940>
      e4:	433575b7          	lui	a1,0x43357
      e8:	d2d5859b          	addiw	a1,a1,-723 # 43356d2d <.Lfunc_end80+0x4332e361>
      ec:	00001637          	lui	a2,0x1
      f0:	40c40633          	sub	a2,s0,a2
      f4:	66b63423          	sd	a1,1640(a2) # 1668 <.LBB69_5+0x248>
      f8:	00100593          	li	a1,1
      fc:	02759593          	slli	a1,a1,0x27
     100:	e6b43023          	sd	a1,-416(s0)
     104:	000015b7          	lui	a1,0x1
     108:	40b405b3          	sub	a1,s0,a1
     10c:	b135b823          	sd	s3,-1264(a1) # b10 <.LBB69_3+0x8e8>
     110:	04c0006f          	j	15c <.LBB69_2>

0000000000000114 <.LBB69_1>:
     114:	00001537          	lui	a0,0x1
     118:	40a40533          	sub	a0,s0,a0
     11c:	b0053603          	ld	a2,-1280(a0) # b00 <.LBB69_3+0x8d8>
     120:	00860513          	addi	a0,a2,8
     124:	000015b7          	lui	a1,0x1
     128:	40b405b3          	sub	a1,s0,a1
     12c:	b685b583          	ld	a1,-1176(a1) # b68 <.LBB69_3+0x940>
     130:	7ff58593          	addi	a1,a1,2047
     134:	40158593          	addi	a1,a1,1025
     138:	000016b7          	lui	a3,0x1
     13c:	40d406b3          	sub	a3,s0,a3
     140:	b6b6b423          	sd	a1,-1176(a3) # b68 <.LBB69_3+0x940>
     144:	000015b7          	lui	a1,0x1
     148:	40b405b3          	sub	a1,s0,a1
     14c:	b105b983          	ld	s3,-1264(a1) # b10 <.LBB69_3+0x8e8>
     150:	0b800593          	li	a1,184
     154:	00b66463          	bltu	a2,a1,15c <.LBB69_2>
     158:	3a90b06f          	j	bd00 <.LBB69_1542>

000000000000015c <.LBB69_2>:
     15c:	00000593          	li	a1,0
     160:	00050693          	mv	a3,a0
     164:	00251513          	slli	a0,a0,0x2
     168:	00001637          	lui	a2,0x1
     16c:	40c40633          	sub	a2,s0,a2
     170:	af863603          	ld	a2,-1288(a2) # af8 <.LBB69_3+0x8d0>
     174:	00a60533          	add	a0,a2,a0
     178:	00001637          	lui	a2,0x1
     17c:	40c40633          	sub	a2,s0,a2
     180:	64a63c23          	sd	a0,1624(a2) # 1658 <.LBB69_5+0x238>
     184:	06000513          	li	a0,96
     188:	00001637          	lui	a2,0x1
     18c:	40c40633          	sub	a2,s0,a2
     190:	b0d63023          	sd	a3,-1280(a2) # b00 <.LBB69_3+0x8d8>
     194:	02a68533          	mul	a0,a3,a0
     198:	00001637          	lui	a2,0x1
     19c:	40c40633          	sub	a2,s0,a2
     1a0:	b0863603          	ld	a2,-1272(a2) # b08 <.LBB69_3+0x8e0>
     1a4:	00a60533          	add	a0,a2,a0
     1a8:	06050613          	addi	a2,a0,96
     1ac:	000016b7          	lui	a3,0x1
     1b0:	40d406b3          	sub	a3,s0,a3
     1b4:	b4c6b423          	sd	a2,-1208(a3) # b48 <.LBB69_3+0x920>
     1b8:	0c050613          	addi	a2,a0,192
     1bc:	000016b7          	lui	a3,0x1
     1c0:	40d406b3          	sub	a3,s0,a3
     1c4:	b4c6b023          	sd	a2,-1216(a3) # b40 <.LBB69_3+0x918>
     1c8:	12050613          	addi	a2,a0,288
     1cc:	000016b7          	lui	a3,0x1
     1d0:	40d406b3          	sub	a3,s0,a3
     1d4:	b2c6bc23          	sd	a2,-1224(a3) # b38 <.LBB69_3+0x910>
     1d8:	18050613          	addi	a2,a0,384
     1dc:	000016b7          	lui	a3,0x1
     1e0:	40d406b3          	sub	a3,s0,a3
     1e4:	b2c6b823          	sd	a2,-1232(a3) # b30 <.LBB69_3+0x908>
     1e8:	1e050613          	addi	a2,a0,480
     1ec:	000016b7          	lui	a3,0x1
     1f0:	40d406b3          	sub	a3,s0,a3
     1f4:	b2c6b423          	sd	a2,-1240(a3) # b28 <.LBB69_3+0x900>
     1f8:	24050613          	addi	a2,a0,576
     1fc:	000016b7          	lui	a3,0x1
     200:	40d406b3          	sub	a3,s0,a3
     204:	b2c6b023          	sd	a2,-1248(a3) # b20 <.LBB69_3+0x8f8>
     208:	00001637          	lui	a2,0x1
     20c:	40c40633          	sub	a2,s0,a2
     210:	b4a63823          	sd	a0,-1200(a2) # b50 <.LBB69_3+0x928>
     214:	2a050513          	addi	a0,a0,672
     218:	00001637          	lui	a2,0x1
     21c:	40c40633          	sub	a2,s0,a2
     220:	b0a63c23          	sd	a0,-1256(a2) # b18 <.LBB69_3+0x8f0>
     224:	4590006f          	j	e7c <.LBB69_4>

0000000000000228 <.LBB69_3>:
     228:	96143023          	sd	ra,-1696(s0)
     22c:	d6043483          	ld	s1,-672(s0)
     230:	00148493          	addi	s1,s1,1
     234:	00001837          	lui	a6,0x1
     238:	41040833          	sub	a6,s0,a6
     23c:	b5083083          	ld	ra,-1200(a6) # b50 <.LBB69_3+0x928>
     240:	00001837          	lui	a6,0x1
     244:	41040833          	sub	a6,s0,a6
     248:	66083803          	ld	a6,1632(a6) # 1660 <.LBB69_5+0x240>
     24c:	010080b3          	add	ra,ra,a6
     250:	009081a3          	sb	s1,3(ra)
     254:	e4843483          	ld	s1,-440(s0)
     258:	00148493          	addi	s1,s1,1
     25c:	00908123          	sb	s1,2(ra)
     260:	e5843483          	ld	s1,-424(s0)
     264:	00148493          	addi	s1,s1,1
     268:	009080a3          	sb	s1,1(ra)
     26c:	e7043483          	ld	s1,-400(s0)
     270:	00148493          	addi	s1,s1,1
     274:	00908023          	sb	s1,0(ra)
     278:	e8043483          	ld	s1,-384(s0)
     27c:	00148493          	addi	s1,s1,1
     280:	00908223          	sb	s1,4(ra)
     284:	e9043483          	ld	s1,-368(s0)
     288:	00148493          	addi	s1,s1,1
     28c:	009082a3          	sb	s1,5(ra)
     290:	ea043483          	ld	s1,-352(s0)
     294:	00148493          	addi	s1,s1,1
     298:	00908323          	sb	s1,6(ra)
     29c:	eb043483          	ld	s1,-336(s0)
     2a0:	00148493          	addi	s1,s1,1
     2a4:	009083a3          	sb	s1,7(ra)
     2a8:	ec043483          	ld	s1,-320(s0)
     2ac:	00148493          	addi	s1,s1,1
     2b0:	00908423          	sb	s1,8(ra)
     2b4:	ed043483          	ld	s1,-304(s0)
     2b8:	00148493          	addi	s1,s1,1
     2bc:	009084a3          	sb	s1,9(ra)
     2c0:	ee043483          	ld	s1,-288(s0)
     2c4:	00148493          	addi	s1,s1,1
     2c8:	00908523          	sb	s1,10(ra)
     2cc:	ee843483          	ld	s1,-280(s0)
     2d0:	00148493          	addi	s1,s1,1
     2d4:	009085a3          	sb	s1,11(ra)
     2d8:	ef043483          	ld	s1,-272(s0)
     2dc:	00148493          	addi	s1,s1,1
     2e0:	00908623          	sb	s1,12(ra)
     2e4:	ef843483          	ld	s1,-264(s0)
     2e8:	00148493          	addi	s1,s1,1
     2ec:	009086a3          	sb	s1,13(ra)
     2f0:	f0043483          	ld	s1,-256(s0)
     2f4:	00148493          	addi	s1,s1,1
     2f8:	00908723          	sb	s1,14(ra)
     2fc:	f0843483          	ld	s1,-248(s0)
     300:	00148493          	addi	s1,s1,1
     304:	009087a3          	sb	s1,15(ra)
     308:	f1043483          	ld	s1,-240(s0)
     30c:	00148493          	addi	s1,s1,1
     310:	00908823          	sb	s1,16(ra)
     314:	f1843483          	ld	s1,-232(s0)
     318:	00148493          	addi	s1,s1,1
     31c:	009088a3          	sb	s1,17(ra)
     320:	f2043483          	ld	s1,-224(s0)
     324:	00148493          	addi	s1,s1,1
     328:	00908923          	sb	s1,18(ra)
     32c:	f2843483          	ld	s1,-216(s0)
     330:	00148493          	addi	s1,s1,1
     334:	009089a3          	sb	s1,19(ra)
     338:	f3043483          	ld	s1,-208(s0)
     33c:	00148493          	addi	s1,s1,1
     340:	00908a23          	sb	s1,20(ra)
     344:	f3843483          	ld	s1,-200(s0)
     348:	00148493          	addi	s1,s1,1
     34c:	00908aa3          	sb	s1,21(ra)
     350:	f4043483          	ld	s1,-192(s0)
     354:	00148493          	addi	s1,s1,1
     358:	00908b23          	sb	s1,22(ra)
     35c:	f4843483          	ld	s1,-184(s0)
     360:	00148493          	addi	s1,s1,1
     364:	00908ba3          	sb	s1,23(ra)
     368:	f5043483          	ld	s1,-176(s0)
     36c:	00148493          	addi	s1,s1,1
     370:	00908c23          	sb	s1,24(ra)
     374:	f5843483          	ld	s1,-168(s0)
     378:	00148493          	addi	s1,s1,1
     37c:	00908ca3          	sb	s1,25(ra)
     380:	f6043483          	ld	s1,-160(s0)
     384:	00148493          	addi	s1,s1,1
     388:	00908d23          	sb	s1,26(ra)
     38c:	f6843483          	ld	s1,-152(s0)
     390:	00148493          	addi	s1,s1,1
     394:	00908da3          	sb	s1,27(ra)
     398:	f7043483          	ld	s1,-144(s0)
     39c:	00148493          	addi	s1,s1,1
     3a0:	00908e23          	sb	s1,28(ra)
     3a4:	f7843483          	ld	s1,-136(s0)
     3a8:	00148493          	addi	s1,s1,1
     3ac:	00908ea3          	sb	s1,29(ra)
     3b0:	f8043483          	ld	s1,-128(s0)
     3b4:	00148493          	addi	s1,s1,1
     3b8:	00908f23          	sb	s1,30(ra)
     3bc:	f8843483          	ld	s1,-120(s0)
     3c0:	00148493          	addi	s1,s1,1
     3c4:	00908fa3          	sb	s1,31(ra)
     3c8:	d3843083          	ld	ra,-712(s0)
     3cc:	00108093          	addi	ra,ra,1
     3d0:	000014b7          	lui	s1,0x1
     3d4:	409404b3          	sub	s1,s0,s1
     3d8:	b484b483          	ld	s1,-1208(s1) # b48 <.LBB69_3+0x920>
     3dc:	010484b3          	add	s1,s1,a6
     3e0:	001481a3          	sb	ra,3(s1)
     3e4:	d4843083          	ld	ra,-696(s0)
     3e8:	00108093          	addi	ra,ra,1
     3ec:	00148123          	sb	ra,2(s1)
     3f0:	d5843083          	ld	ra,-680(s0)
     3f4:	00108093          	addi	ra,ra,1
     3f8:	001480a3          	sb	ra,1(s1)
     3fc:	d7043083          	ld	ra,-656(s0)
     400:	00108093          	addi	ra,ra,1
     404:	00148023          	sb	ra,0(s1)
     408:	d8043083          	ld	ra,-640(s0)
     40c:	00108093          	addi	ra,ra,1
     410:	00148223          	sb	ra,4(s1)
     414:	d9043083          	ld	ra,-624(s0)
     418:	00108093          	addi	ra,ra,1
     41c:	001482a3          	sb	ra,5(s1)
     420:	da043083          	ld	ra,-608(s0)
     424:	00108093          	addi	ra,ra,1
     428:	00148323          	sb	ra,6(s1)
     42c:	db043083          	ld	ra,-592(s0)
     430:	00108093          	addi	ra,ra,1
     434:	001483a3          	sb	ra,7(s1)
     438:	dc043083          	ld	ra,-576(s0)
     43c:	00108093          	addi	ra,ra,1
     440:	00148423          	sb	ra,8(s1)
     444:	dd043083          	ld	ra,-560(s0)
     448:	00108093          	addi	ra,ra,1
     44c:	001484a3          	sb	ra,9(s1)
     450:	de043083          	ld	ra,-544(s0)
     454:	00108093          	addi	ra,ra,1
     458:	00148523          	sb	ra,10(s1)
     45c:	de843083          	ld	ra,-536(s0)
     460:	00108093          	addi	ra,ra,1
     464:	001485a3          	sb	ra,11(s1)
     468:	df043083          	ld	ra,-528(s0)
     46c:	00108093          	addi	ra,ra,1
     470:	00148623          	sb	ra,12(s1)
     474:	df843083          	ld	ra,-520(s0)
     478:	00108093          	addi	ra,ra,1
     47c:	001486a3          	sb	ra,13(s1)
     480:	e0043083          	ld	ra,-512(s0)
     484:	00108093          	addi	ra,ra,1
     488:	00148723          	sb	ra,14(s1)
     48c:	e0843083          	ld	ra,-504(s0)
     490:	00108093          	addi	ra,ra,1
     494:	001487a3          	sb	ra,15(s1)
     498:	e1043083          	ld	ra,-496(s0)
     49c:	00108093          	addi	ra,ra,1
     4a0:	00148823          	sb	ra,16(s1)
     4a4:	e1843083          	ld	ra,-488(s0)
     4a8:	00108093          	addi	ra,ra,1
     4ac:	001488a3          	sb	ra,17(s1)
     4b0:	e2043083          	ld	ra,-480(s0)
     4b4:	00108093          	addi	ra,ra,1
     4b8:	00148923          	sb	ra,18(s1)
     4bc:	e2843083          	ld	ra,-472(s0)
     4c0:	00108093          	addi	ra,ra,1
     4c4:	001489a3          	sb	ra,19(s1)
     4c8:	e3043083          	ld	ra,-464(s0)
     4cc:	00108093          	addi	ra,ra,1
     4d0:	00148a23          	sb	ra,20(s1)
     4d4:	e3843083          	ld	ra,-456(s0)
     4d8:	00108093          	addi	ra,ra,1
     4dc:	00148aa3          	sb	ra,21(s1)
     4e0:	e4043083          	ld	ra,-448(s0)
     4e4:	00108093          	addi	ra,ra,1
     4e8:	00148b23          	sb	ra,22(s1)
     4ec:	e5043083          	ld	ra,-432(s0)
     4f0:	00108093          	addi	ra,ra,1
     4f4:	00148ba3          	sb	ra,23(s1)
     4f8:	e6843083          	ld	ra,-408(s0)
     4fc:	00108093          	addi	ra,ra,1
     500:	00148c23          	sb	ra,24(s1)
     504:	e7843083          	ld	ra,-392(s0)
     508:	00108093          	addi	ra,ra,1
     50c:	00148ca3          	sb	ra,25(s1)
     510:	e8843083          	ld	ra,-376(s0)
     514:	00108093          	addi	ra,ra,1
     518:	00148d23          	sb	ra,26(s1)
     51c:	e9843083          	ld	ra,-360(s0)
     520:	00108093          	addi	ra,ra,1
     524:	00148da3          	sb	ra,27(s1)
     528:	ea843083          	ld	ra,-344(s0)
     52c:	00108093          	addi	ra,ra,1
     530:	00148e23          	sb	ra,28(s1)
     534:	eb843083          	ld	ra,-328(s0)
     538:	00108093          	addi	ra,ra,1
     53c:	00148ea3          	sb	ra,29(s1)
     540:	ec843083          	ld	ra,-312(s0)
     544:	00108093          	addi	ra,ra,1
     548:	00148f23          	sb	ra,30(s1)
     54c:	ed843083          	ld	ra,-296(s0)
     550:	00108093          	addi	ra,ra,1
     554:	00148fa3          	sb	ra,31(s1)
     558:	c3843083          	ld	ra,-968(s0)
     55c:	00108093          	addi	ra,ra,1
     560:	000014b7          	lui	s1,0x1
     564:	409404b3          	sub	s1,s0,s1
     568:	b404b483          	ld	s1,-1216(s1) # b40 <.LBB69_3+0x918>
     56c:	010484b3          	add	s1,s1,a6
     570:	001481a3          	sb	ra,3(s1)
     574:	c4843083          	ld	ra,-952(s0)
     578:	00108093          	addi	ra,ra,1
     57c:	00148123          	sb	ra,2(s1)
     580:	c5843083          	ld	ra,-936(s0)
     584:	00108093          	addi	ra,ra,1
     588:	001480a3          	sb	ra,1(s1)
     58c:	c6843083          	ld	ra,-920(s0)
     590:	00108093          	addi	ra,ra,1
     594:	00148023          	sb	ra,0(s1)
     598:	c7843083          	ld	ra,-904(s0)
     59c:	00108093          	addi	ra,ra,1
     5a0:	00148223          	sb	ra,4(s1)
     5a4:	c8843083          	ld	ra,-888(s0)
     5a8:	00108093          	addi	ra,ra,1
     5ac:	001482a3          	sb	ra,5(s1)
     5b0:	c9843083          	ld	ra,-872(s0)
     5b4:	00108093          	addi	ra,ra,1
     5b8:	00148323          	sb	ra,6(s1)
     5bc:	ca843083          	ld	ra,-856(s0)
     5c0:	00108093          	addi	ra,ra,1
     5c4:	001483a3          	sb	ra,7(s1)
     5c8:	cb843083          	ld	ra,-840(s0)
     5cc:	00108093          	addi	ra,ra,1
     5d0:	00148423          	sb	ra,8(s1)
     5d4:	cc843083          	ld	ra,-824(s0)
     5d8:	00108093          	addi	ra,ra,1
     5dc:	001484a3          	sb	ra,9(s1)
     5e0:	cd843083          	ld	ra,-808(s0)
     5e4:	00108093          	addi	ra,ra,1
     5e8:	00148523          	sb	ra,10(s1)
     5ec:	ce043083          	ld	ra,-800(s0)
     5f0:	00108093          	addi	ra,ra,1
     5f4:	001485a3          	sb	ra,11(s1)
     5f8:	ce843083          	ld	ra,-792(s0)
     5fc:	00108093          	addi	ra,ra,1
     600:	00148623          	sb	ra,12(s1)
     604:	cf043083          	ld	ra,-784(s0)
     608:	00108093          	addi	ra,ra,1
     60c:	001486a3          	sb	ra,13(s1)
     610:	cf843083          	ld	ra,-776(s0)
     614:	00108093          	addi	ra,ra,1
     618:	00148723          	sb	ra,14(s1)
     61c:	d0043083          	ld	ra,-768(s0)
     620:	00108093          	addi	ra,ra,1
     624:	001487a3          	sb	ra,15(s1)
     628:	d0843083          	ld	ra,-760(s0)
     62c:	00108093          	addi	ra,ra,1
     630:	00148823          	sb	ra,16(s1)
     634:	d1043083          	ld	ra,-752(s0)
     638:	00108093          	addi	ra,ra,1
     63c:	001488a3          	sb	ra,17(s1)
     640:	d1843083          	ld	ra,-744(s0)
     644:	00108093          	addi	ra,ra,1
     648:	00148923          	sb	ra,18(s1)
     64c:	d2043083          	ld	ra,-736(s0)
     650:	00108093          	addi	ra,ra,1
     654:	001489a3          	sb	ra,19(s1)
     658:	d2843083          	ld	ra,-728(s0)
     65c:	00108093          	addi	ra,ra,1
     660:	00148a23          	sb	ra,20(s1)
     664:	d3043083          	ld	ra,-720(s0)
     668:	00108093          	addi	ra,ra,1
     66c:	00148aa3          	sb	ra,21(s1)
     670:	d4043083          	ld	ra,-704(s0)
     674:	00108093          	addi	ra,ra,1
     678:	00148b23          	sb	ra,22(s1)
     67c:	d5043083          	ld	ra,-688(s0)
     680:	00108093          	addi	ra,ra,1
     684:	00148ba3          	sb	ra,23(s1)
     688:	d6843083          	ld	ra,-664(s0)
     68c:	00108093          	addi	ra,ra,1
     690:	00148c23          	sb	ra,24(s1)
     694:	d7843083          	ld	ra,-648(s0)
     698:	00108093          	addi	ra,ra,1
     69c:	00148ca3          	sb	ra,25(s1)
     6a0:	d8843083          	ld	ra,-632(s0)
     6a4:	00108093          	addi	ra,ra,1
     6a8:	00148d23          	sb	ra,26(s1)
     6ac:	d9843083          	ld	ra,-616(s0)
     6b0:	00108093          	addi	ra,ra,1
     6b4:	00148da3          	sb	ra,27(s1)
     6b8:	da843083          	ld	ra,-600(s0)
     6bc:	00108093          	addi	ra,ra,1
     6c0:	00148e23          	sb	ra,28(s1)
     6c4:	db843083          	ld	ra,-584(s0)
     6c8:	00108093          	addi	ra,ra,1
     6cc:	00148ea3          	sb	ra,29(s1)
     6d0:	dc843083          	ld	ra,-568(s0)
     6d4:	00108093          	addi	ra,ra,1
     6d8:	00148f23          	sb	ra,30(s1)
     6dc:	dd843083          	ld	ra,-552(s0)
     6e0:	00108093          	addi	ra,ra,1
     6e4:	00148fa3          	sb	ra,31(s1)
     6e8:	b3843083          	ld	ra,-1224(s0)
     6ec:	00108093          	addi	ra,ra,1
     6f0:	000014b7          	lui	s1,0x1
     6f4:	409404b3          	sub	s1,s0,s1
     6f8:	b384b483          	ld	s1,-1224(s1) # b38 <.LBB69_3+0x910>
     6fc:	010484b3          	add	s1,s1,a6
     700:	001481a3          	sb	ra,3(s1)
     704:	b4843083          	ld	ra,-1208(s0)
     708:	00108093          	addi	ra,ra,1
     70c:	00148123          	sb	ra,2(s1)
     710:	b5843083          	ld	ra,-1192(s0)
     714:	00108093          	addi	ra,ra,1
     718:	001480a3          	sb	ra,1(s1)
     71c:	b6843083          	ld	ra,-1176(s0)
     720:	00108093          	addi	ra,ra,1
     724:	00148023          	sb	ra,0(s1)
     728:	b7843083          	ld	ra,-1160(s0)
     72c:	00108093          	addi	ra,ra,1
     730:	00148223          	sb	ra,4(s1)
     734:	b8843083          	ld	ra,-1144(s0)
     738:	00108093          	addi	ra,ra,1
     73c:	001482a3          	sb	ra,5(s1)
     740:	b9843083          	ld	ra,-1128(s0)
     744:	00108093          	addi	ra,ra,1
     748:	00148323          	sb	ra,6(s1)
     74c:	ba843083          	ld	ra,-1112(s0)
     750:	00108093          	addi	ra,ra,1
     754:	001483a3          	sb	ra,7(s1)
     758:	bb843083          	ld	ra,-1096(s0)
     75c:	00108093          	addi	ra,ra,1
     760:	00148423          	sb	ra,8(s1)
     764:	bc843083          	ld	ra,-1080(s0)
     768:	00108093          	addi	ra,ra,1
     76c:	001484a3          	sb	ra,9(s1)
     770:	bd843083          	ld	ra,-1064(s0)
     774:	00108093          	addi	ra,ra,1
     778:	00148523          	sb	ra,10(s1)
     77c:	be043083          	ld	ra,-1056(s0)
     780:	00108093          	addi	ra,ra,1
     784:	001485a3          	sb	ra,11(s1)
     788:	be843083          	ld	ra,-1048(s0)
     78c:	00108093          	addi	ra,ra,1
     790:	00148623          	sb	ra,12(s1)
     794:	bf043083          	ld	ra,-1040(s0)
     798:	00108093          	addi	ra,ra,1
     79c:	001486a3          	sb	ra,13(s1)
     7a0:	bf843083          	ld	ra,-1032(s0)
     7a4:	00108093          	addi	ra,ra,1
     7a8:	00148723          	sb	ra,14(s1)
     7ac:	c0043083          	ld	ra,-1024(s0)
     7b0:	00108093          	addi	ra,ra,1
     7b4:	001487a3          	sb	ra,15(s1)
     7b8:	c0843083          	ld	ra,-1016(s0)
     7bc:	00108093          	addi	ra,ra,1
     7c0:	00148823          	sb	ra,16(s1)
     7c4:	c1043083          	ld	ra,-1008(s0)
     7c8:	00108093          	addi	ra,ra,1
     7cc:	001488a3          	sb	ra,17(s1)
     7d0:	c1843083          	ld	ra,-1000(s0)
     7d4:	00108093          	addi	ra,ra,1
     7d8:	00148923          	sb	ra,18(s1)
     7dc:	c2043083          	ld	ra,-992(s0)
     7e0:	00108093          	addi	ra,ra,1
     7e4:	001489a3          	sb	ra,19(s1)
     7e8:	c2843083          	ld	ra,-984(s0)
     7ec:	00108093          	addi	ra,ra,1
     7f0:	00148a23          	sb	ra,20(s1)
     7f4:	c3043083          	ld	ra,-976(s0)
     7f8:	00108093          	addi	ra,ra,1
     7fc:	00148aa3          	sb	ra,21(s1)
     800:	c4043083          	ld	ra,-960(s0)
     804:	00108093          	addi	ra,ra,1
     808:	00148b23          	sb	ra,22(s1)
     80c:	c5043083          	ld	ra,-944(s0)
     810:	00108093          	addi	ra,ra,1
     814:	00148ba3          	sb	ra,23(s1)
     818:	c6043083          	ld	ra,-928(s0)
     81c:	00108093          	addi	ra,ra,1
     820:	00148c23          	sb	ra,24(s1)
     824:	c7043083          	ld	ra,-912(s0)
     828:	00108093          	addi	ra,ra,1
     82c:	00148ca3          	sb	ra,25(s1)
     830:	c8043083          	ld	ra,-896(s0)
     834:	00108093          	addi	ra,ra,1
     838:	00148d23          	sb	ra,26(s1)
     83c:	c9043083          	ld	ra,-880(s0)
     840:	00108093          	addi	ra,ra,1
     844:	00148da3          	sb	ra,27(s1)
     848:	ca043083          	ld	ra,-864(s0)
     84c:	00108093          	addi	ra,ra,1
     850:	00148e23          	sb	ra,28(s1)
     854:	cb043083          	ld	ra,-848(s0)
     858:	00108093          	addi	ra,ra,1
     85c:	00148ea3          	sb	ra,29(s1)
     860:	cc043083          	ld	ra,-832(s0)
     864:	00108093          	addi	ra,ra,1
     868:	00148f23          	sb	ra,30(s1)
     86c:	cd043083          	ld	ra,-816(s0)
     870:	00108093          	addi	ra,ra,1
     874:	00148fa3          	sb	ra,31(s1)
     878:	a3843083          	ld	ra,-1480(s0)
     87c:	00108093          	addi	ra,ra,1
     880:	000014b7          	lui	s1,0x1
     884:	409404b3          	sub	s1,s0,s1
     888:	b304b483          	ld	s1,-1232(s1) # b30 <.LBB69_3+0x908>
     88c:	010484b3          	add	s1,s1,a6
     890:	001481a3          	sb	ra,3(s1)
     894:	a4843083          	ld	ra,-1464(s0)
     898:	00108093          	addi	ra,ra,1
     89c:	00148123          	sb	ra,2(s1)
     8a0:	a5843083          	ld	ra,-1448(s0)
     8a4:	00108093          	addi	ra,ra,1
     8a8:	001480a3          	sb	ra,1(s1)
     8ac:	a6843083          	ld	ra,-1432(s0)
     8b0:	00108093          	addi	ra,ra,1
     8b4:	00148023          	sb	ra,0(s1)
     8b8:	a7843083          	ld	ra,-1416(s0)
     8bc:	00108093          	addi	ra,ra,1
     8c0:	00148223          	sb	ra,4(s1)
     8c4:	a8843083          	ld	ra,-1400(s0)
     8c8:	00108093          	addi	ra,ra,1
     8cc:	001482a3          	sb	ra,5(s1)
     8d0:	a9843083          	ld	ra,-1384(s0)
     8d4:	00108093          	addi	ra,ra,1
     8d8:	00148323          	sb	ra,6(s1)
     8dc:	aa843083          	ld	ra,-1368(s0)
     8e0:	00108093          	addi	ra,ra,1
     8e4:	001483a3          	sb	ra,7(s1)
     8e8:	ab843083          	ld	ra,-1352(s0)
     8ec:	00108093          	addi	ra,ra,1
     8f0:	00148423          	sb	ra,8(s1)
     8f4:	ac843083          	ld	ra,-1336(s0)
     8f8:	00108093          	addi	ra,ra,1
     8fc:	001484a3          	sb	ra,9(s1)
     900:	ad843083          	ld	ra,-1320(s0)
     904:	00108093          	addi	ra,ra,1
     908:	00148523          	sb	ra,10(s1)
     90c:	ae043083          	ld	ra,-1312(s0)
     910:	00108093          	addi	ra,ra,1
     914:	001485a3          	sb	ra,11(s1)
     918:	ae843083          	ld	ra,-1304(s0)
     91c:	00108093          	addi	ra,ra,1
     920:	00148623          	sb	ra,12(s1)
     924:	af043083          	ld	ra,-1296(s0)
     928:	00108093          	addi	ra,ra,1
     92c:	001486a3          	sb	ra,13(s1)
     930:	af843083          	ld	ra,-1288(s0)
     934:	00108093          	addi	ra,ra,1
     938:	00148723          	sb	ra,14(s1)
     93c:	b0043083          	ld	ra,-1280(s0)
     940:	00108093          	addi	ra,ra,1
     944:	001487a3          	sb	ra,15(s1)
     948:	b0843083          	ld	ra,-1272(s0)
     94c:	00108093          	addi	ra,ra,1
     950:	00148823          	sb	ra,16(s1)
     954:	b1043083          	ld	ra,-1264(s0)
     958:	00108093          	addi	ra,ra,1
     95c:	001488a3          	sb	ra,17(s1)
     960:	b1843083          	ld	ra,-1256(s0)
     964:	00108093          	addi	ra,ra,1
     968:	00148923          	sb	ra,18(s1)
     96c:	b2043083          	ld	ra,-1248(s0)
     970:	00108093          	addi	ra,ra,1
     974:	001489a3          	sb	ra,19(s1)
     978:	b2843083          	ld	ra,-1240(s0)
     97c:	00108093          	addi	ra,ra,1
     980:	00148a23          	sb	ra,20(s1)
     984:	b3043083          	ld	ra,-1232(s0)
     988:	00108093          	addi	ra,ra,1
     98c:	00148aa3          	sb	ra,21(s1)
     990:	b4043083          	ld	ra,-1216(s0)
     994:	00108093          	addi	ra,ra,1
     998:	00148b23          	sb	ra,22(s1)
     99c:	b5043083          	ld	ra,-1200(s0)
     9a0:	00108093          	addi	ra,ra,1
     9a4:	00148ba3          	sb	ra,23(s1)
     9a8:	b6043083          	ld	ra,-1184(s0)
     9ac:	00108093          	addi	ra,ra,1
     9b0:	00148c23          	sb	ra,24(s1)
     9b4:	b7043083          	ld	ra,-1168(s0)
     9b8:	00108093          	addi	ra,ra,1
     9bc:	00148ca3          	sb	ra,25(s1)
     9c0:	b8043083          	ld	ra,-1152(s0)
     9c4:	00108093          	addi	ra,ra,1
     9c8:	00148d23          	sb	ra,26(s1)
     9cc:	b9043083          	ld	ra,-1136(s0)
     9d0:	00108093          	addi	ra,ra,1
     9d4:	00148da3          	sb	ra,27(s1)
     9d8:	ba043083          	ld	ra,-1120(s0)
     9dc:	00108093          	addi	ra,ra,1
     9e0:	00148e23          	sb	ra,28(s1)
     9e4:	bb043083          	ld	ra,-1104(s0)
     9e8:	00108093          	addi	ra,ra,1
     9ec:	00148ea3          	sb	ra,29(s1)
     9f0:	bc043083          	ld	ra,-1088(s0)
     9f4:	00108093          	addi	ra,ra,1
     9f8:	00148f23          	sb	ra,30(s1)
     9fc:	bd043083          	ld	ra,-1072(s0)
     a00:	00108093          	addi	ra,ra,1
     a04:	00148fa3          	sb	ra,31(s1)
     a08:	001b8093          	addi	ra,s7,1
     a0c:	000014b7          	lui	s1,0x1
     a10:	409404b3          	sub	s1,s0,s1
     a14:	b284b483          	ld	s1,-1240(s1) # b28 <.LBB69_3+0x900>
     a18:	010484b3          	add	s1,s1,a6
     a1c:	001481a3          	sb	ra,3(s1)
     a20:	001a8093          	addi	ra,s5,1
     a24:	00148123          	sb	ra,2(s1)
     a28:	00198093          	addi	ra,s3,1
     a2c:	001480a3          	sb	ra,1(s1)
     a30:	001e0093          	addi	ra,t3,1
     a34:	00148023          	sb	ra,0(s1)
     a38:	00168093          	addi	ra,a3,1
     a3c:	00148223          	sb	ra,4(s1)
     a40:	00130093          	addi	ra,t1,1
     a44:	001482a3          	sb	ra,5(s1)
     a48:	00170093          	addi	ra,a4,1
     a4c:	00148323          	sb	ra,6(s1)
     a50:	001e8093          	addi	ra,t4,1
     a54:	001483a3          	sb	ra,7(s1)
     a58:	84843083          	ld	ra,-1976(s0)
     a5c:	00108093          	addi	ra,ra,1
     a60:	00148423          	sb	ra,8(s1)
     a64:	9c843083          	ld	ra,-1592(s0)
     a68:	00108093          	addi	ra,ra,1
     a6c:	001484a3          	sb	ra,9(s1)
     a70:	9d843083          	ld	ra,-1576(s0)
     a74:	00108093          	addi	ra,ra,1
     a78:	00148523          	sb	ra,10(s1)
     a7c:	9e043083          	ld	ra,-1568(s0)
     a80:	00108093          	addi	ra,ra,1
     a84:	001485a3          	sb	ra,11(s1)
     a88:	9e843083          	ld	ra,-1560(s0)
     a8c:	00108093          	addi	ra,ra,1
     a90:	00148623          	sb	ra,12(s1)
     a94:	9f043083          	ld	ra,-1552(s0)
     a98:	00108093          	addi	ra,ra,1
     a9c:	001486a3          	sb	ra,13(s1)
     aa0:	9f843083          	ld	ra,-1544(s0)
     aa4:	00108093          	addi	ra,ra,1
     aa8:	00148723          	sb	ra,14(s1)
     aac:	a0043083          	ld	ra,-1536(s0)
     ab0:	00108093          	addi	ra,ra,1
     ab4:	001487a3          	sb	ra,15(s1)
     ab8:	a0843083          	ld	ra,-1528(s0)
     abc:	00108093          	addi	ra,ra,1
     ac0:	00148823          	sb	ra,16(s1)
     ac4:	a1043083          	ld	ra,-1520(s0)
     ac8:	00108093          	addi	ra,ra,1
     acc:	001488a3          	sb	ra,17(s1)
     ad0:	a1843083          	ld	ra,-1512(s0)
     ad4:	00108093          	addi	ra,ra,1
     ad8:	00148923          	sb	ra,18(s1)
     adc:	a2043083          	ld	ra,-1504(s0)
     ae0:	00108093          	addi	ra,ra,1
     ae4:	001489a3          	sb	ra,19(s1)
     ae8:	a2843083          	ld	ra,-1496(s0)
     aec:	00108093          	addi	ra,ra,1
     af0:	00148a23          	sb	ra,20(s1)
     af4:	a3043083          	ld	ra,-1488(s0)
     af8:	00108093          	addi	ra,ra,1
     afc:	00148aa3          	sb	ra,21(s1)
     b00:	a4043083          	ld	ra,-1472(s0)
     b04:	00108093          	addi	ra,ra,1
     b08:	00148b23          	sb	ra,22(s1)
     b0c:	a5043083          	ld	ra,-1456(s0)
     b10:	00108093          	addi	ra,ra,1
     b14:	00148ba3          	sb	ra,23(s1)
     b18:	a6043083          	ld	ra,-1440(s0)
     b1c:	00108093          	addi	ra,ra,1
     b20:	00148c23          	sb	ra,24(s1)
     b24:	a7043083          	ld	ra,-1424(s0)
     b28:	00108093          	addi	ra,ra,1
     b2c:	00148ca3          	sb	ra,25(s1)
     b30:	a8043083          	ld	ra,-1408(s0)
     b34:	00108093          	addi	ra,ra,1
     b38:	00148d23          	sb	ra,26(s1)
     b3c:	a9043083          	ld	ra,-1392(s0)
     b40:	00108093          	addi	ra,ra,1
     b44:	00148da3          	sb	ra,27(s1)
     b48:	aa043083          	ld	ra,-1376(s0)
     b4c:	00108093          	addi	ra,ra,1
     b50:	00148e23          	sb	ra,28(s1)
     b54:	ab043083          	ld	ra,-1360(s0)
     b58:	00108093          	addi	ra,ra,1
     b5c:	00148ea3          	sb	ra,29(s1)
     b60:	ac043083          	ld	ra,-1344(s0)
     b64:	00108093          	addi	ra,ra,1
     b68:	00148f23          	sb	ra,30(s1)
     b6c:	ad043083          	ld	ra,-1328(s0)
     b70:	00108093          	addi	ra,ra,1
     b74:	00148fa3          	sb	ra,31(s1)
     b78:	8c843483          	ld	s1,-1848(s0)
     b7c:	00148493          	addi	s1,s1,1
     b80:	000016b7          	lui	a3,0x1
     b84:	40d406b3          	sub	a3,s0,a3
     b88:	b206be83          	ld	t4,-1248(a3) # b20 <.LBB69_3+0x8f8>
     b8c:	010e8eb3          	add	t4,t4,a6
     b90:	009e81a3          	sb	s1,3(t4)
     b94:	8d843703          	ld	a4,-1832(s0)
     b98:	00170713          	addi	a4,a4,1
     b9c:	00ee8123          	sb	a4,2(t4)
     ba0:	8e843703          	ld	a4,-1816(s0)
     ba4:	00170713          	addi	a4,a4,1
     ba8:	00ee80a3          	sb	a4,1(t4)
     bac:	8f843703          	ld	a4,-1800(s0)
     bb0:	00170713          	addi	a4,a4,1
     bb4:	00ee8023          	sb	a4,0(t4)
     bb8:	90843703          	ld	a4,-1784(s0)
     bbc:	00170713          	addi	a4,a4,1
     bc0:	00ee8223          	sb	a4,4(t4)
     bc4:	91843703          	ld	a4,-1768(s0)
     bc8:	00170713          	addi	a4,a4,1
     bcc:	00ee82a3          	sb	a4,5(t4)
     bd0:	92843703          	ld	a4,-1752(s0)
     bd4:	00170713          	addi	a4,a4,1
     bd8:	00ee8323          	sb	a4,6(t4)
     bdc:	93843703          	ld	a4,-1736(s0)
     be0:	00170713          	addi	a4,a4,1
     be4:	00ee83a3          	sb	a4,7(t4)
     be8:	94843703          	ld	a4,-1720(s0)
     bec:	00170713          	addi	a4,a4,1
     bf0:	00ee8423          	sb	a4,8(t4)
     bf4:	95843703          	ld	a4,-1704(s0)
     bf8:	00170713          	addi	a4,a4,1
     bfc:	00ee84a3          	sb	a4,9(t4)
     c00:	96843703          	ld	a4,-1688(s0)
     c04:	00170713          	addi	a4,a4,1
     c08:	00ee8523          	sb	a4,10(t4)
     c0c:	97043703          	ld	a4,-1680(s0)
     c10:	00170713          	addi	a4,a4,1
     c14:	00ee85a3          	sb	a4,11(t4)
     c18:	97843703          	ld	a4,-1672(s0)
     c1c:	00170713          	addi	a4,a4,1
     c20:	00ee8623          	sb	a4,12(t4)
     c24:	98043703          	ld	a4,-1664(s0)
     c28:	00170713          	addi	a4,a4,1
     c2c:	00ee86a3          	sb	a4,13(t4)
     c30:	98843703          	ld	a4,-1656(s0)
     c34:	00170713          	addi	a4,a4,1
     c38:	00ee8723          	sb	a4,14(t4)
     c3c:	99043703          	ld	a4,-1648(s0)
     c40:	00170713          	addi	a4,a4,1
     c44:	00ee87a3          	sb	a4,15(t4)
     c48:	99843703          	ld	a4,-1640(s0)
     c4c:	00170713          	addi	a4,a4,1
     c50:	00ee8823          	sb	a4,16(t4)
     c54:	9a043703          	ld	a4,-1632(s0)
     c58:	00170713          	addi	a4,a4,1
     c5c:	00ee88a3          	sb	a4,17(t4)
     c60:	9a843703          	ld	a4,-1624(s0)
     c64:	00170713          	addi	a4,a4,1
     c68:	00ee8923          	sb	a4,18(t4)
     c6c:	9b043703          	ld	a4,-1616(s0)
     c70:	00170713          	addi	a4,a4,1
     c74:	00ee89a3          	sb	a4,19(t4)
     c78:	9b843703          	ld	a4,-1608(s0)
     c7c:	00170713          	addi	a4,a4,1
     c80:	00ee8a23          	sb	a4,20(t4)
     c84:	001d8713          	addi	a4,s11,1
     c88:	00ee8aa3          	sb	a4,21(t4)
     c8c:	001b0713          	addi	a4,s6,1
     c90:	00ee8b23          	sb	a4,22(t4)
     c94:	001a0713          	addi	a4,s4,1
     c98:	00ee8ba3          	sb	a4,23(t4)
     c9c:	00190713          	addi	a4,s2,1
     ca0:	00ee8c23          	sb	a4,24(t4)
     ca4:	001f0713          	addi	a4,t5,1
     ca8:	00ee8ca3          	sb	a4,25(t4)
     cac:	00138713          	addi	a4,t2,1
     cb0:	00ee8d23          	sb	a4,26(t4)
     cb4:	00128713          	addi	a4,t0,1
     cb8:	00ee8da3          	sb	a4,27(t4)
     cbc:	00178713          	addi	a4,a5,1
     cc0:	00ee8e23          	sb	a4,28(t4)
     cc4:	001d0713          	addi	a4,s10,1
     cc8:	00ee8ea3          	sb	a4,29(t4)
     ccc:	9c043703          	ld	a4,-1600(s0)
     cd0:	00170713          	addi	a4,a4,1
     cd4:	00ee8f23          	sb	a4,30(t4)
     cd8:	9d043703          	ld	a4,-1584(s0)
     cdc:	00170713          	addi	a4,a4,1
     ce0:	00ee8fa3          	sb	a4,31(t4)
     ce4:	001f8f93          	addi	t6,t6,1
     ce8:	000016b7          	lui	a3,0x1
     cec:	40d406b3          	sub	a3,s0,a3
     cf0:	b186b703          	ld	a4,-1256(a3) # b18 <.LBB69_3+0x8f0>
     cf4:	01070733          	add	a4,a4,a6
     cf8:	00080e93          	mv	t4,a6
     cfc:	01f701a3          	sb	t6,3(a4)
     d00:	001c8c93          	addi	s9,s9,1
     d04:	01970123          	sb	s9,2(a4)
     d08:	00150d93          	addi	s11,a0,1
     d0c:	01b700a3          	sb	s11,1(a4)
     d10:	00188893          	addi	a7,a7,1
     d14:	01170023          	sb	a7,0(a4)
     d18:	001c0c13          	addi	s8,s8,1
     d1c:	01870223          	sb	s8,4(a4)
     d20:	00160b93          	addi	s7,a2,1
     d24:	017702a3          	sb	s7,5(a4)
     d28:	00158b13          	addi	s6,a1,1
     d2c:	01670323          	sb	s6,6(a4)
     d30:	85043a83          	ld	s5,-1968(s0)
     d34:	001a8a93          	addi	s5,s5,1
     d38:	015703a3          	sb	s5,7(a4)
     d3c:	85843a03          	ld	s4,-1960(s0)
     d40:	001a0a13          	addi	s4,s4,1
     d44:	01470423          	sb	s4,8(a4)
     d48:	86043983          	ld	s3,-1952(s0)
     d4c:	00198993          	addi	s3,s3,1
     d50:	013704a3          	sb	s3,9(a4)
     d54:	86843903          	ld	s2,-1944(s0)
     d58:	00190913          	addi	s2,s2,1
     d5c:	01270523          	sb	s2,10(a4)
     d60:	87043603          	ld	a2,-1936(s0)
     d64:	00160613          	addi	a2,a2,1
     d68:	00c705a3          	sb	a2,11(a4)
     d6c:	87843583          	ld	a1,-1928(s0)
     d70:	00158593          	addi	a1,a1,1
     d74:	00b70623          	sb	a1,12(a4)
     d78:	88043e03          	ld	t3,-1920(s0)
     d7c:	001e0e13          	addi	t3,t3,1
     d80:	01c706a3          	sb	t3,13(a4)
     d84:	88843503          	ld	a0,-1912(s0)
     d88:	00150513          	addi	a0,a0,1
     d8c:	00a70723          	sb	a0,14(a4)
     d90:	89043f03          	ld	t5,-1904(s0)
     d94:	001f0f13          	addi	t5,t5,1
     d98:	01e707a3          	sb	t5,15(a4)
     d9c:	89843683          	ld	a3,-1896(s0)
     da0:	00168693          	addi	a3,a3,1
     da4:	00d70823          	sb	a3,16(a4)
     da8:	8a043383          	ld	t2,-1888(s0)
     dac:	00138393          	addi	t2,t2,1
     db0:	007708a3          	sb	t2,17(a4)
     db4:	8a843303          	ld	t1,-1880(s0)
     db8:	00130313          	addi	t1,t1,1
     dbc:	00670923          	sb	t1,18(a4)
     dc0:	8b043283          	ld	t0,-1872(s0)
     dc4:	00128293          	addi	t0,t0,1
     dc8:	005709a3          	sb	t0,19(a4)
     dcc:	8b843783          	ld	a5,-1864(s0)
     dd0:	00178793          	addi	a5,a5,1
     dd4:	00f70a23          	sb	a5,20(a4)
     dd8:	8c043d03          	ld	s10,-1856(s0)
     ddc:	001d0d13          	addi	s10,s10,1
     de0:	01a70aa3          	sb	s10,21(a4)
     de4:	8d043803          	ld	a6,-1840(s0)
     de8:	00180813          	addi	a6,a6,1
     dec:	01070b23          	sb	a6,22(a4)
     df0:	8e043503          	ld	a0,-1824(s0)
     df4:	00150513          	addi	a0,a0,1
     df8:	00a70ba3          	sb	a0,23(a4)
     dfc:	8f043503          	ld	a0,-1808(s0)
     e00:	00150513          	addi	a0,a0,1
     e04:	00a70c23          	sb	a0,24(a4)
     e08:	90043503          	ld	a0,-1792(s0)
     e0c:	00150513          	addi	a0,a0,1
     e10:	00a70ca3          	sb	a0,25(a4)
     e14:	91043503          	ld	a0,-1776(s0)
     e18:	00150513          	addi	a0,a0,1
     e1c:	00a70d23          	sb	a0,26(a4)
     e20:	92043503          	ld	a0,-1760(s0)
     e24:	00150513          	addi	a0,a0,1
     e28:	00a70da3          	sb	a0,27(a4)
     e2c:	93043503          	ld	a0,-1744(s0)
     e30:	00150513          	addi	a0,a0,1
     e34:	00a70e23          	sb	a0,28(a4)
     e38:	94043503          	ld	a0,-1728(s0)
     e3c:	00150513          	addi	a0,a0,1
     e40:	00a70ea3          	sb	a0,29(a4)
     e44:	95043503          	ld	a0,-1712(s0)
     e48:	00150513          	addi	a0,a0,1
     e4c:	00a70f23          	sb	a0,30(a4)
     e50:	96043503          	ld	a0,-1696(s0)
     e54:	00150513          	addi	a0,a0,1
     e58:	00a70fa3          	sb	a0,31(a4)
     e5c:	000e8613          	mv	a2,t4
     e60:	020e8593          	addi	a1,t4,32
     e64:	00001537          	lui	a0,0x1
     e68:	40a40533          	sub	a0,s0,a0
     e6c:	65053983          	ld	s3,1616(a0) # 1650 <.LBB69_5+0x230>
     e70:	02098993          	addi	s3,s3,32
     e74:	04000513          	li	a0,64
     e78:	a8aefe63          	bgeu	t4,a0,114 <.LBB69_1>

0000000000000e7c <.LBB69_4>:
     e7c:	00001537          	lui	a0,0x1
     e80:	40a40533          	sub	a0,s0,a0
     e84:	66b53023          	sd	a1,1632(a0) # 1660 <.LBB69_5+0x240>
     e88:	18000793          	li	a5,384
     e8c:	00001537          	lui	a0,0x1
     e90:	40a40533          	sub	a0,s0,a0
     e94:	65353823          	sd	s3,1616(a0) # 1650 <.LBB69_5+0x230>
     e98:	00098e93          	mv	t4,s3
     e9c:	00001537          	lui	a0,0x1
     ea0:	40a40533          	sub	a0,s0,a0
     ea4:	b6853f03          	ld	t5,-1176(a0) # b68 <.LBB69_3+0x940>
     ea8:	00001537          	lui	a0,0x1
     eac:	40a40533          	sub	a0,s0,a0
     eb0:	6c053023          	sd	zero,1728(a0) # 16c0 <.LBB69_5+0x2a0>
     eb4:	00001537          	lui	a0,0x1
     eb8:	40a40533          	sub	a0,s0,a0
     ebc:	6a053c23          	sd	zero,1720(a0) # 16b8 <.LBB69_5+0x298>
     ec0:	00001537          	lui	a0,0x1
     ec4:	40a40533          	sub	a0,s0,a0
     ec8:	6a053023          	sd	zero,1696(a0) # 16a0 <.LBB69_5+0x280>
     ecc:	00001537          	lui	a0,0x1
     ed0:	40a40533          	sub	a0,s0,a0
     ed4:	6a053423          	sd	zero,1704(a0) # 16a8 <.LBB69_5+0x288>
     ed8:	00001537          	lui	a0,0x1
     edc:	40a40533          	sub	a0,s0,a0
     ee0:	6c053423          	sd	zero,1736(a0) # 16c8 <.LBB69_5+0x2a8>
     ee4:	00001537          	lui	a0,0x1
     ee8:	40a40533          	sub	a0,s0,a0
     eec:	6a053823          	sd	zero,1712(a0) # 16b0 <.LBB69_5+0x290>
     ef0:	00001537          	lui	a0,0x1
     ef4:	40a40533          	sub	a0,s0,a0
     ef8:	68053c23          	sd	zero,1688(a0) # 1698 <.LBB69_5+0x278>
     efc:	00001537          	lui	a0,0x1
     f00:	40a40533          	sub	a0,s0,a0
     f04:	68053823          	sd	zero,1680(a0) # 1690 <.LBB69_5+0x270>
     f08:	00001537          	lui	a0,0x1
     f0c:	40a40533          	sub	a0,s0,a0
     f10:	68053423          	sd	zero,1672(a0) # 1688 <.LBB69_5+0x268>
     f14:	00001537          	lui	a0,0x1
     f18:	40a40533          	sub	a0,s0,a0
     f1c:	6c053823          	sd	zero,1744(a0) # 16d0 <.LBB69_5+0x2b0>
     f20:	00001537          	lui	a0,0x1
     f24:	40a40533          	sub	a0,s0,a0
     f28:	6c053c23          	sd	zero,1752(a0) # 16d8 <.LBB69_5+0x2b8>
     f2c:	00001537          	lui	a0,0x1
     f30:	40a40533          	sub	a0,s0,a0
     f34:	6e053023          	sd	zero,1760(a0) # 16e0 <.LBB69_5+0x2c0>
     f38:	00001537          	lui	a0,0x1
     f3c:	40a40533          	sub	a0,s0,a0
     f40:	6e053423          	sd	zero,1768(a0) # 16e8 <.LBB69_5+0x2c8>
     f44:	00001537          	lui	a0,0x1
     f48:	40a40533          	sub	a0,s0,a0
     f4c:	6e053823          	sd	zero,1776(a0) # 16f0 <.LBB69_5+0x2d0>
     f50:	00001537          	lui	a0,0x1
     f54:	40a40533          	sub	a0,s0,a0
     f58:	6e053c23          	sd	zero,1784(a0) # 16f8 <.LBB69_5+0x2d8>
     f5c:	00001537          	lui	a0,0x1
     f60:	40a40533          	sub	a0,s0,a0
     f64:	70053023          	sd	zero,1792(a0) # 1700 <.LBB69_5+0x2e0>
     f68:	00001537          	lui	a0,0x1
     f6c:	40a40533          	sub	a0,s0,a0
     f70:	70053423          	sd	zero,1800(a0) # 1708 <.LBB69_5+0x2e8>
     f74:	00001537          	lui	a0,0x1
     f78:	40a40533          	sub	a0,s0,a0
     f7c:	70053823          	sd	zero,1808(a0) # 1710 <.LBB69_5+0x2f0>
     f80:	00001537          	lui	a0,0x1
     f84:	40a40533          	sub	a0,s0,a0
     f88:	70053c23          	sd	zero,1816(a0) # 1718 <.LBB69_5+0x2f8>
     f8c:	00001537          	lui	a0,0x1
     f90:	40a40533          	sub	a0,s0,a0
     f94:	72053023          	sd	zero,1824(a0) # 1720 <.LBB69_5+0x300>
     f98:	00001537          	lui	a0,0x1
     f9c:	40a40533          	sub	a0,s0,a0
     fa0:	72053423          	sd	zero,1832(a0) # 1728 <.LBB69_5+0x308>
     fa4:	00001537          	lui	a0,0x1
     fa8:	40a40533          	sub	a0,s0,a0
     fac:	72053823          	sd	zero,1840(a0) # 1730 <.LBB69_5+0x310>
     fb0:	00001537          	lui	a0,0x1
     fb4:	40a40533          	sub	a0,s0,a0
     fb8:	72053c23          	sd	zero,1848(a0) # 1738 <.LBB69_5+0x318>
     fbc:	00001537          	lui	a0,0x1
     fc0:	40a40533          	sub	a0,s0,a0
     fc4:	74053023          	sd	zero,1856(a0) # 1740 <.LBB69_5+0x320>
     fc8:	00001537          	lui	a0,0x1
     fcc:	40a40533          	sub	a0,s0,a0
     fd0:	74053423          	sd	zero,1864(a0) # 1748 <.LBB69_5+0x328>
     fd4:	00001537          	lui	a0,0x1
     fd8:	40a40533          	sub	a0,s0,a0
     fdc:	74053823          	sd	zero,1872(a0) # 1750 <.LBB69_5+0x330>
     fe0:	00001537          	lui	a0,0x1
     fe4:	40a40533          	sub	a0,s0,a0
     fe8:	74053c23          	sd	zero,1880(a0) # 1758 <.LBB69_5+0x338>
     fec:	00001537          	lui	a0,0x1
     ff0:	40a40533          	sub	a0,s0,a0
     ff4:	76053023          	sd	zero,1888(a0) # 1760 <.LBB69_5+0x340>
     ff8:	00001537          	lui	a0,0x1
     ffc:	40a40533          	sub	a0,s0,a0
    1000:	76053423          	sd	zero,1896(a0) # 1768 <.LBB69_5+0x348>
    1004:	00001537          	lui	a0,0x1
    1008:	40a40533          	sub	a0,s0,a0
    100c:	76053823          	sd	zero,1904(a0) # 1770 <.LBB69_5+0x350>
    1010:	00001537          	lui	a0,0x1
    1014:	40a40533          	sub	a0,s0,a0
    1018:	76053c23          	sd	zero,1912(a0) # 1778 <.LBB69_5+0x358>
    101c:	00001537          	lui	a0,0x1
    1020:	40a40533          	sub	a0,s0,a0
    1024:	78053023          	sd	zero,1920(a0) # 1780 <.LBB69_5+0x360>
    1028:	00001537          	lui	a0,0x1
    102c:	40a40533          	sub	a0,s0,a0
    1030:	7a053023          	sd	zero,1952(a0) # 17a0 <.LBB69_5+0x380>
    1034:	00001537          	lui	a0,0x1
    1038:	40a40533          	sub	a0,s0,a0
    103c:	78053c23          	sd	zero,1944(a0) # 1798 <.LBB69_5+0x378>
    1040:	00001537          	lui	a0,0x1
    1044:	40a40533          	sub	a0,s0,a0
    1048:	78053823          	sd	zero,1936(a0) # 1790 <.LBB69_5+0x370>
    104c:	00001537          	lui	a0,0x1
    1050:	40a40533          	sub	a0,s0,a0
    1054:	78053423          	sd	zero,1928(a0) # 1788 <.LBB69_5+0x368>
    1058:	00001537          	lui	a0,0x1
    105c:	40a40533          	sub	a0,s0,a0
    1060:	7a053423          	sd	zero,1960(a0) # 17a8 <.LBB69_5+0x388>
    1064:	00001537          	lui	a0,0x1
    1068:	40a40533          	sub	a0,s0,a0
    106c:	7a053823          	sd	zero,1968(a0) # 17b0 <.LBB69_5+0x390>
    1070:	00001537          	lui	a0,0x1
    1074:	40a40533          	sub	a0,s0,a0
    1078:	7a053c23          	sd	zero,1976(a0) # 17b8 <.LBB69_5+0x398>
    107c:	00001537          	lui	a0,0x1
    1080:	40a40533          	sub	a0,s0,a0
    1084:	7c053023          	sd	zero,1984(a0) # 17c0 <.LBB69_5+0x3a0>
    1088:	00001537          	lui	a0,0x1
    108c:	40a40533          	sub	a0,s0,a0
    1090:	7c053423          	sd	zero,1992(a0) # 17c8 <.LBB69_5+0x3a8>
    1094:	00001537          	lui	a0,0x1
    1098:	40a40533          	sub	a0,s0,a0
    109c:	7c053823          	sd	zero,2000(a0) # 17d0 <.LBB69_5+0x3b0>
    10a0:	00001537          	lui	a0,0x1
    10a4:	40a40533          	sub	a0,s0,a0
    10a8:	7c053c23          	sd	zero,2008(a0) # 17d8 <.LBB69_5+0x3b8>
    10ac:	00001537          	lui	a0,0x1
    10b0:	40a40533          	sub	a0,s0,a0
    10b4:	7e053023          	sd	zero,2016(a0) # 17e0 <.LBB69_5+0x3c0>
    10b8:	00001537          	lui	a0,0x1
    10bc:	40a40533          	sub	a0,s0,a0
    10c0:	7e053423          	sd	zero,2024(a0) # 17e8 <.LBB69_5+0x3c8>
    10c4:	00001537          	lui	a0,0x1
    10c8:	40a40533          	sub	a0,s0,a0
    10cc:	7e053823          	sd	zero,2032(a0) # 17f0 <.LBB69_5+0x3d0>
    10d0:	00001537          	lui	a0,0x1
    10d4:	40a40533          	sub	a0,s0,a0
    10d8:	7e053c23          	sd	zero,2040(a0) # 17f8 <.LBB69_5+0x3d8>
    10dc:	80043023          	sd	zero,-2048(s0)
    10e0:	80043423          	sd	zero,-2040(s0)
    10e4:	80043823          	sd	zero,-2032(s0)
    10e8:	80043c23          	sd	zero,-2024(s0)
    10ec:	82043023          	sd	zero,-2016(s0)
    10f0:	82043423          	sd	zero,-2008(s0)
    10f4:	82043823          	sd	zero,-2000(s0)
    10f8:	82043c23          	sd	zero,-1992(s0)
    10fc:	84043023          	sd	zero,-1984(s0)
    1100:	84043423          	sd	zero,-1976(s0)
    1104:	84043823          	sd	zero,-1968(s0)
    1108:	84043c23          	sd	zero,-1960(s0)
    110c:	86043023          	sd	zero,-1952(s0)
    1110:	86043423          	sd	zero,-1944(s0)
    1114:	86043823          	sd	zero,-1936(s0)
    1118:	86043c23          	sd	zero,-1928(s0)
    111c:	88043023          	sd	zero,-1920(s0)
    1120:	8a043023          	sd	zero,-1888(s0)
    1124:	88043c23          	sd	zero,-1896(s0)
    1128:	88043823          	sd	zero,-1904(s0)
    112c:	88043423          	sd	zero,-1912(s0)
    1130:	8a043423          	sd	zero,-1880(s0)
    1134:	8a043823          	sd	zero,-1872(s0)
    1138:	8a043c23          	sd	zero,-1864(s0)
    113c:	8c043023          	sd	zero,-1856(s0)
    1140:	8c043423          	sd	zero,-1848(s0)
    1144:	8c043823          	sd	zero,-1840(s0)
    1148:	8c043c23          	sd	zero,-1832(s0)
    114c:	8e043023          	sd	zero,-1824(s0)
    1150:	8e043423          	sd	zero,-1816(s0)
    1154:	8e043823          	sd	zero,-1808(s0)
    1158:	8e043c23          	sd	zero,-1800(s0)
    115c:	90043023          	sd	zero,-1792(s0)
    1160:	90043423          	sd	zero,-1784(s0)
    1164:	90043823          	sd	zero,-1776(s0)
    1168:	90043c23          	sd	zero,-1768(s0)
    116c:	92043023          	sd	zero,-1760(s0)
    1170:	92043423          	sd	zero,-1752(s0)
    1174:	92043823          	sd	zero,-1744(s0)
    1178:	92043c23          	sd	zero,-1736(s0)
    117c:	94043023          	sd	zero,-1728(s0)
    1180:	94043423          	sd	zero,-1720(s0)
    1184:	94043823          	sd	zero,-1712(s0)
    1188:	94043c23          	sd	zero,-1704(s0)
    118c:	96043023          	sd	zero,-1696(s0)
    1190:	96043423          	sd	zero,-1688(s0)
    1194:	96043823          	sd	zero,-1680(s0)
    1198:	96043c23          	sd	zero,-1672(s0)
    119c:	98043023          	sd	zero,-1664(s0)
    11a0:	9a043023          	sd	zero,-1632(s0)
    11a4:	98043c23          	sd	zero,-1640(s0)
    11a8:	98043823          	sd	zero,-1648(s0)
    11ac:	98043423          	sd	zero,-1656(s0)
    11b0:	9a043423          	sd	zero,-1624(s0)
    11b4:	9a043823          	sd	zero,-1616(s0)
    11b8:	9a043c23          	sd	zero,-1608(s0)
    11bc:	9c043023          	sd	zero,-1600(s0)
    11c0:	9c043423          	sd	zero,-1592(s0)
    11c4:	9c043823          	sd	zero,-1584(s0)
    11c8:	9c043c23          	sd	zero,-1576(s0)
    11cc:	9e043023          	sd	zero,-1568(s0)
    11d0:	9e043423          	sd	zero,-1560(s0)
    11d4:	9e043823          	sd	zero,-1552(s0)
    11d8:	9e043c23          	sd	zero,-1544(s0)
    11dc:	a0043023          	sd	zero,-1536(s0)
    11e0:	a0043423          	sd	zero,-1528(s0)
    11e4:	a0043823          	sd	zero,-1520(s0)
    11e8:	a0043c23          	sd	zero,-1512(s0)
    11ec:	a2043023          	sd	zero,-1504(s0)
    11f0:	a2043423          	sd	zero,-1496(s0)
    11f4:	a2043823          	sd	zero,-1488(s0)
    11f8:	a2043c23          	sd	zero,-1480(s0)
    11fc:	a4043023          	sd	zero,-1472(s0)
    1200:	a4043423          	sd	zero,-1464(s0)
    1204:	a4043823          	sd	zero,-1456(s0)
    1208:	a4043c23          	sd	zero,-1448(s0)
    120c:	a6043023          	sd	zero,-1440(s0)
    1210:	a6043423          	sd	zero,-1432(s0)
    1214:	a6043823          	sd	zero,-1424(s0)
    1218:	a6043c23          	sd	zero,-1416(s0)
    121c:	a8043023          	sd	zero,-1408(s0)
    1220:	aa043023          	sd	zero,-1376(s0)
    1224:	a8043c23          	sd	zero,-1384(s0)
    1228:	a8043823          	sd	zero,-1392(s0)
    122c:	a8043423          	sd	zero,-1400(s0)
    1230:	aa043423          	sd	zero,-1368(s0)
    1234:	aa043823          	sd	zero,-1360(s0)
    1238:	aa043c23          	sd	zero,-1352(s0)
    123c:	ac043023          	sd	zero,-1344(s0)
    1240:	ac043423          	sd	zero,-1336(s0)
    1244:	ac043823          	sd	zero,-1328(s0)
    1248:	ac043c23          	sd	zero,-1320(s0)
    124c:	ae043023          	sd	zero,-1312(s0)
    1250:	ae043423          	sd	zero,-1304(s0)
    1254:	ae043823          	sd	zero,-1296(s0)
    1258:	ae043c23          	sd	zero,-1288(s0)
    125c:	b0043023          	sd	zero,-1280(s0)
    1260:	b0043423          	sd	zero,-1272(s0)
    1264:	b0043823          	sd	zero,-1264(s0)
    1268:	b0043c23          	sd	zero,-1256(s0)
    126c:	b2043023          	sd	zero,-1248(s0)
    1270:	b2043423          	sd	zero,-1240(s0)
    1274:	b2043823          	sd	zero,-1232(s0)
    1278:	b2043c23          	sd	zero,-1224(s0)
    127c:	b4043023          	sd	zero,-1216(s0)
    1280:	b4043423          	sd	zero,-1208(s0)
    1284:	b4043823          	sd	zero,-1200(s0)
    1288:	b4043c23          	sd	zero,-1192(s0)
    128c:	b6043023          	sd	zero,-1184(s0)
    1290:	b6043423          	sd	zero,-1176(s0)
    1294:	b6043823          	sd	zero,-1168(s0)
    1298:	b6043c23          	sd	zero,-1160(s0)
    129c:	b8043023          	sd	zero,-1152(s0)
    12a0:	ba043023          	sd	zero,-1120(s0)
    12a4:	b8043c23          	sd	zero,-1128(s0)
    12a8:	b8043823          	sd	zero,-1136(s0)
    12ac:	b8043423          	sd	zero,-1144(s0)
    12b0:	ba043423          	sd	zero,-1112(s0)
    12b4:	ba043823          	sd	zero,-1104(s0)
    12b8:	ba043c23          	sd	zero,-1096(s0)
    12bc:	bc043023          	sd	zero,-1088(s0)
    12c0:	bc043423          	sd	zero,-1080(s0)
    12c4:	bc043823          	sd	zero,-1072(s0)
    12c8:	bc043c23          	sd	zero,-1064(s0)
    12cc:	be043023          	sd	zero,-1056(s0)
    12d0:	be043423          	sd	zero,-1048(s0)
    12d4:	be043823          	sd	zero,-1040(s0)
    12d8:	be043c23          	sd	zero,-1032(s0)
    12dc:	c0043023          	sd	zero,-1024(s0)
    12e0:	c0043423          	sd	zero,-1016(s0)
    12e4:	c0043823          	sd	zero,-1008(s0)
    12e8:	c0043c23          	sd	zero,-1000(s0)
    12ec:	c2043023          	sd	zero,-992(s0)
    12f0:	c2043423          	sd	zero,-984(s0)
    12f4:	c2043823          	sd	zero,-976(s0)
    12f8:	c2043c23          	sd	zero,-968(s0)
    12fc:	c4043023          	sd	zero,-960(s0)
    1300:	c4043423          	sd	zero,-952(s0)
    1304:	c4043823          	sd	zero,-944(s0)
    1308:	c4043c23          	sd	zero,-936(s0)
    130c:	c6043023          	sd	zero,-928(s0)
    1310:	c6043423          	sd	zero,-920(s0)
    1314:	c6043823          	sd	zero,-912(s0)
    1318:	c6043c23          	sd	zero,-904(s0)
    131c:	c8043023          	sd	zero,-896(s0)
    1320:	ca043023          	sd	zero,-864(s0)
    1324:	c8043c23          	sd	zero,-872(s0)
    1328:	c8043823          	sd	zero,-880(s0)
    132c:	c8043423          	sd	zero,-888(s0)
    1330:	ca043423          	sd	zero,-856(s0)
    1334:	ca043823          	sd	zero,-848(s0)
    1338:	ca043c23          	sd	zero,-840(s0)
    133c:	cc043023          	sd	zero,-832(s0)
    1340:	cc043423          	sd	zero,-824(s0)
    1344:	cc043823          	sd	zero,-816(s0)
    1348:	cc043c23          	sd	zero,-808(s0)
    134c:	ce043023          	sd	zero,-800(s0)
    1350:	ce043423          	sd	zero,-792(s0)
    1354:	ce043823          	sd	zero,-784(s0)
    1358:	ce043c23          	sd	zero,-776(s0)
    135c:	d0043023          	sd	zero,-768(s0)
    1360:	d0043423          	sd	zero,-760(s0)
    1364:	d0043823          	sd	zero,-752(s0)
    1368:	d0043c23          	sd	zero,-744(s0)
    136c:	d2043023          	sd	zero,-736(s0)
    1370:	d2043423          	sd	zero,-728(s0)
    1374:	d2043823          	sd	zero,-720(s0)
    1378:	d2043c23          	sd	zero,-712(s0)
    137c:	d4043023          	sd	zero,-704(s0)
    1380:	d4043423          	sd	zero,-696(s0)
    1384:	d4043823          	sd	zero,-688(s0)
    1388:	d4043c23          	sd	zero,-680(s0)
    138c:	d6043023          	sd	zero,-672(s0)
    1390:	d6043423          	sd	zero,-664(s0)
    1394:	d6043823          	sd	zero,-656(s0)
    1398:	d6043c23          	sd	zero,-648(s0)
    139c:	d8043023          	sd	zero,-640(s0)
    13a0:	da043023          	sd	zero,-608(s0)
    13a4:	d8043c23          	sd	zero,-616(s0)
    13a8:	d8043823          	sd	zero,-624(s0)
    13ac:	d8043423          	sd	zero,-632(s0)
    13b0:	da043423          	sd	zero,-600(s0)
    13b4:	da043823          	sd	zero,-592(s0)
    13b8:	da043c23          	sd	zero,-584(s0)
    13bc:	dc043023          	sd	zero,-576(s0)
    13c0:	dc043423          	sd	zero,-568(s0)
    13c4:	dc043823          	sd	zero,-560(s0)
    13c8:	00000093          	li	ra,0
    13cc:	00000d93          	li	s11,0
    13d0:	00000d13          	li	s10,0
    13d4:	00000c93          	li	s9,0
    13d8:	00000c13          	li	s8,0
    13dc:	00000b93          	li	s7,0
    13e0:	00000b13          	li	s6,0
    13e4:	00000a93          	li	s5,0
    13e8:	00000a13          	li	s4,0
    13ec:	00000993          	li	s3,0
    13f0:	00000713          	li	a4,0
    13f4:	00000693          	li	a3,0
    13f8:	00000613          	li	a2,0
    13fc:	00000593          	li	a1,0
    1400:	00000513          	li	a0,0
    1404:	00000e13          	li	t3,0
    1408:	00000393          	li	t2,0
    140c:	00000313          	li	t1,0
    1410:	00000293          	li	t0,0
    1414:	00000813          	li	a6,0
    1418:	e4043823          	sd	zero,-432(s0)
    141c:	00000893          	li	a7,0

0000000000001420 <.LBB69_5>:
    1420:	f9e43023          	sd	t5,-128(s0)
    1424:	f9d43423          	sd	t4,-120(s0)
    1428:	00001fb7          	lui	t6,0x1
    142c:	41f40fb3          	sub	t6,s0,t6
    1430:	68ffb023          	sd	a5,1664(t6) # 1680 <.LBB69_5+0x260>
    1434:	dc143c23          	sd	ra,-552(s0)
    1438:	dfb43023          	sd	s11,-544(s0)
    143c:	dfa43423          	sd	s10,-536(s0)
    1440:	df943823          	sd	s9,-528(s0)
    1444:	df843c23          	sd	s8,-520(s0)
    1448:	e1743023          	sd	s7,-512(s0)
    144c:	e1643423          	sd	s6,-504(s0)
    1450:	e1543823          	sd	s5,-496(s0)
    1454:	e1443c23          	sd	s4,-488(s0)
    1458:	e3343023          	sd	s3,-480(s0)
    145c:	f0e43823          	sd	a4,-240(s0)
    1460:	f0d43c23          	sd	a3,-232(s0)
    1464:	f2c43023          	sd	a2,-224(s0)
    1468:	f2b43423          	sd	a1,-216(s0)
    146c:	f2a43823          	sd	a0,-208(s0)
    1470:	e3c43423          	sd	t3,-472(s0)
    1474:	e2743823          	sd	t2,-464(s0)
    1478:	e2643c23          	sd	t1,-456(s0)
    147c:	e4543023          	sd	t0,-448(s0)
    1480:	e5043423          	sd	a6,-440(s0)
    1484:	e5143c23          	sd	a7,-424(s0)
    1488:	a00f0503          	lb	a0,-1536(t5)
    148c:	002e8603          	lb	a2,2(t4)
    1490:	f4c43423          	sd	a2,-184(s0)
    1494:	001e8683          	lb	a3,1(t4)
    1498:	f4d43023          	sd	a3,-192(s0)
    149c:	000e8703          	lb	a4,0(t4)
    14a0:	003e8783          	lb	a5,3(t4)
    14a4:	f2f43c23          	sd	a5,-200(s0)
    14a8:	004e8803          	lb	a6,4(t4)
    14ac:	f7043c23          	sd	a6,-136(s0)
    14b0:	005e8983          	lb	s3,5(t4)
    14b4:	f7343823          	sd	s3,-144(s0)
    14b8:	006e8a03          	lb	s4,6(t4)
    14bc:	007e8d83          	lb	s11,7(t4)
    14c0:	edb43c23          	sd	s11,-296(s0)
    14c4:	008e8083          	lb	ra,8(t4)
    14c8:	009e8883          	lb	a7,9(t4)
    14cc:	000015b7          	lui	a1,0x1
    14d0:	40b405b3          	sub	a1,s0,a1
    14d4:	6715bc23          	sd	a7,1656(a1) # 1678 <.LBB69_5+0x258>
    14d8:	00ae8283          	lb	t0,10(t4)
    14dc:	e8543423          	sd	t0,-376(s0)
    14e0:	00be8c83          	lb	s9,11(t4)
    14e4:	ef943823          	sd	s9,-272(s0)
    14e8:	00ce8b03          	lb	s6,12(t4)
    14ec:	f5643c23          	sd	s6,-168(s0)
    14f0:	00de8483          	lb	s1,13(t4)
    14f4:	f0943023          	sd	s1,-256(s0)
    14f8:	00ee8303          	lb	t1,14(t4)
    14fc:	00fe8d03          	lb	s10,15(t4)
    1500:	eba43c23          	sd	s10,-328(s0)
    1504:	010e8e03          	lb	t3,16(t4)
    1508:	011e8f83          	lb	t6,17(t4)
    150c:	012e8f03          	lb	t5,18(t4)
    1510:	013e8383          	lb	t2,19(t4)
    1514:	f8843583          	ld	a1,-120(s0)
    1518:	01458a83          	lb	s5,20(a1)
    151c:	f1543423          	sd	s5,-248(s0)
    1520:	f8843583          	ld	a1,-120(s0)
    1524:	01558e83          	lb	t4,21(a1)
    1528:	f8843583          	ld	a1,-120(s0)
    152c:	01658b83          	lb	s7,22(a1)
    1530:	ed743423          	sd	s7,-312(s0)
    1534:	f8843583          	ld	a1,-120(s0)
    1538:	01758903          	lb	s2,23(a1)
    153c:	ed243823          	sd	s2,-304(s0)
    1540:	f8843583          	ld	a1,-120(s0)
    1544:	01858c03          	lb	s8,24(a1)
    1548:	f7843023          	sd	s8,-160(s0)
    154c:	02c505b3          	mul	a1,a0,a2
    1550:	00001637          	lui	a2,0x1
    1554:	40c40633          	sub	a2,s0,a2
    1558:	6a063603          	ld	a2,1696(a2) # 16a0 <.LBB69_5+0x280>
    155c:	00c58633          	add	a2,a1,a2
    1560:	000015b7          	lui	a1,0x1
    1564:	40b405b3          	sub	a1,s0,a1
    1568:	6ac5b023          	sd	a2,1696(a1) # 16a0 <.LBB69_5+0x280>
    156c:	02d505b3          	mul	a1,a0,a3
    1570:	00001637          	lui	a2,0x1
    1574:	40c40633          	sub	a2,s0,a2
    1578:	6b863603          	ld	a2,1720(a2) # 16b8 <.LBB69_5+0x298>
    157c:	00c58633          	add	a2,a1,a2
    1580:	000015b7          	lui	a1,0x1
    1584:	40b405b3          	sub	a1,s0,a1
    1588:	6ac5bc23          	sd	a2,1720(a1) # 16b8 <.LBB69_5+0x298>
    158c:	02e505b3          	mul	a1,a0,a4
    1590:	00070693          	mv	a3,a4
    1594:	00001637          	lui	a2,0x1
    1598:	40c40633          	sub	a2,s0,a2
    159c:	6c063603          	ld	a2,1728(a2) # 16c0 <.LBB69_5+0x2a0>
    15a0:	00c58633          	add	a2,a1,a2
    15a4:	000015b7          	lui	a1,0x1
    15a8:	40b405b3          	sub	a1,s0,a1
    15ac:	6cc5b023          	sd	a2,1728(a1) # 16c0 <.LBB69_5+0x2a0>
    15b0:	02f505b3          	mul	a1,a0,a5
    15b4:	00001637          	lui	a2,0x1
    15b8:	40c40633          	sub	a2,s0,a2
    15bc:	6a863603          	ld	a2,1704(a2) # 16a8 <.LBB69_5+0x288>
    15c0:	00c58633          	add	a2,a1,a2
    15c4:	000015b7          	lui	a1,0x1
    15c8:	40b405b3          	sub	a1,s0,a1
    15cc:	6ac5b423          	sd	a2,1704(a1) # 16a8 <.LBB69_5+0x288>
    15d0:	030505b3          	mul	a1,a0,a6
    15d4:	00001637          	lui	a2,0x1
    15d8:	40c40633          	sub	a2,s0,a2
    15dc:	6c863603          	ld	a2,1736(a2) # 16c8 <.LBB69_5+0x2a8>
    15e0:	00c58633          	add	a2,a1,a2
    15e4:	000015b7          	lui	a1,0x1
    15e8:	40b405b3          	sub	a1,s0,a1
    15ec:	6cc5b423          	sd	a2,1736(a1) # 16c8 <.LBB69_5+0x2a8>
    15f0:	033505b3          	mul	a1,a0,s3
    15f4:	00001637          	lui	a2,0x1
    15f8:	40c40633          	sub	a2,s0,a2
    15fc:	6b063603          	ld	a2,1712(a2) # 16b0 <.LBB69_5+0x290>
    1600:	00c58633          	add	a2,a1,a2
    1604:	000015b7          	lui	a1,0x1
    1608:	40b405b3          	sub	a1,s0,a1
    160c:	6ac5b823          	sd	a2,1712(a1) # 16b0 <.LBB69_5+0x290>
    1610:	034505b3          	mul	a1,a0,s4
    1614:	000a0713          	mv	a4,s4
    1618:	00001637          	lui	a2,0x1
    161c:	40c40633          	sub	a2,s0,a2
    1620:	69863603          	ld	a2,1688(a2) # 1698 <.LBB69_5+0x278>
    1624:	00c58633          	add	a2,a1,a2
    1628:	000015b7          	lui	a1,0x1
    162c:	40b405b3          	sub	a1,s0,a1
    1630:	68c5bc23          	sd	a2,1688(a1) # 1698 <.LBB69_5+0x278>
    1634:	03b505b3          	mul	a1,a0,s11
    1638:	00001637          	lui	a2,0x1
    163c:	40c40633          	sub	a2,s0,a2
    1640:	69063603          	ld	a2,1680(a2) # 1690 <.LBB69_5+0x270>
    1644:	00c58633          	add	a2,a1,a2
    1648:	000015b7          	lui	a1,0x1
    164c:	40b405b3          	sub	a1,s0,a1
    1650:	68c5b823          	sd	a2,1680(a1) # 1690 <.LBB69_5+0x270>
    1654:	021505b3          	mul	a1,a0,ra
    1658:	00001637          	lui	a2,0x1
    165c:	40c40633          	sub	a2,s0,a2
    1660:	68863603          	ld	a2,1672(a2) # 1688 <.LBB69_5+0x268>
    1664:	00c58633          	add	a2,a1,a2
    1668:	000015b7          	lui	a1,0x1
    166c:	40b405b3          	sub	a1,s0,a1
    1670:	68c5b423          	sd	a2,1672(a1) # 1688 <.LBB69_5+0x268>
    1674:	031505b3          	mul	a1,a0,a7
    1678:	00001637          	lui	a2,0x1
    167c:	40c40633          	sub	a2,s0,a2
    1680:	6d063603          	ld	a2,1744(a2) # 16d0 <.LBB69_5+0x2b0>
    1684:	00c58633          	add	a2,a1,a2
    1688:	000015b7          	lui	a1,0x1
    168c:	40b405b3          	sub	a1,s0,a1
    1690:	6cc5b823          	sd	a2,1744(a1) # 16d0 <.LBB69_5+0x2b0>
    1694:	025505b3          	mul	a1,a0,t0
    1698:	00001637          	lui	a2,0x1
    169c:	40c40633          	sub	a2,s0,a2
    16a0:	6d863603          	ld	a2,1752(a2) # 16d8 <.LBB69_5+0x2b8>
    16a4:	00c58633          	add	a2,a1,a2
    16a8:	000015b7          	lui	a1,0x1
    16ac:	40b405b3          	sub	a1,s0,a1
    16b0:	6cc5bc23          	sd	a2,1752(a1) # 16d8 <.LBB69_5+0x2b8>
    16b4:	039505b3          	mul	a1,a0,s9
    16b8:	00001637          	lui	a2,0x1
    16bc:	40c40633          	sub	a2,s0,a2
    16c0:	6e063603          	ld	a2,1760(a2) # 16e0 <.LBB69_5+0x2c0>
    16c4:	00c58633          	add	a2,a1,a2
    16c8:	000015b7          	lui	a1,0x1
    16cc:	40b405b3          	sub	a1,s0,a1
    16d0:	6ec5b023          	sd	a2,1760(a1) # 16e0 <.LBB69_5+0x2c0>
    16d4:	036505b3          	mul	a1,a0,s6
    16d8:	00001637          	lui	a2,0x1
    16dc:	40c40633          	sub	a2,s0,a2
    16e0:	6e863603          	ld	a2,1768(a2) # 16e8 <.LBB69_5+0x2c8>
    16e4:	00c58633          	add	a2,a1,a2
    16e8:	000015b7          	lui	a1,0x1
    16ec:	40b405b3          	sub	a1,s0,a1
    16f0:	6ec5b423          	sd	a2,1768(a1) # 16e8 <.LBB69_5+0x2c8>
    16f4:	029505b3          	mul	a1,a0,s1
    16f8:	00001637          	lui	a2,0x1
    16fc:	40c40633          	sub	a2,s0,a2
    1700:	6f063603          	ld	a2,1776(a2) # 16f0 <.LBB69_5+0x2d0>
    1704:	00c58633          	add	a2,a1,a2
    1708:	000015b7          	lui	a1,0x1
    170c:	40b405b3          	sub	a1,s0,a1
    1710:	6ec5b823          	sd	a2,1776(a1) # 16f0 <.LBB69_5+0x2d0>
    1714:	026505b3          	mul	a1,a0,t1
    1718:	00030493          	mv	s1,t1
    171c:	e6643423          	sd	t1,-408(s0)
    1720:	00001637          	lui	a2,0x1
    1724:	40c40633          	sub	a2,s0,a2
    1728:	6f863603          	ld	a2,1784(a2) # 16f8 <.LBB69_5+0x2d8>
    172c:	00c58633          	add	a2,a1,a2
    1730:	000015b7          	lui	a1,0x1
    1734:	40b405b3          	sub	a1,s0,a1
    1738:	6ec5bc23          	sd	a2,1784(a1) # 16f8 <.LBB69_5+0x2d8>
    173c:	03a505b3          	mul	a1,a0,s10
    1740:	00001637          	lui	a2,0x1
    1744:	40c40633          	sub	a2,s0,a2
    1748:	70063603          	ld	a2,1792(a2) # 1700 <.LBB69_5+0x2e0>
    174c:	00c58633          	add	a2,a1,a2
    1750:	000015b7          	lui	a1,0x1
    1754:	40b405b3          	sub	a1,s0,a1
    1758:	70c5b023          	sd	a2,1792(a1) # 1700 <.LBB69_5+0x2e0>
    175c:	03c505b3          	mul	a1,a0,t3
    1760:	000e0313          	mv	t1,t3
    1764:	e9c43823          	sd	t3,-368(s0)
    1768:	00001637          	lui	a2,0x1
    176c:	40c40633          	sub	a2,s0,a2
    1770:	70863603          	ld	a2,1800(a2) # 1708 <.LBB69_5+0x2e8>
    1774:	00c58633          	add	a2,a1,a2
    1778:	000015b7          	lui	a1,0x1
    177c:	40b405b3          	sub	a1,s0,a1
    1780:	70c5b423          	sd	a2,1800(a1) # 1708 <.LBB69_5+0x2e8>
    1784:	03f505b3          	mul	a1,a0,t6
    1788:	000f8d13          	mv	s10,t6
    178c:	00001637          	lui	a2,0x1
    1790:	40c40633          	sub	a2,s0,a2
    1794:	71063603          	ld	a2,1808(a2) # 1710 <.LBB69_5+0x2f0>
    1798:	00c58633          	add	a2,a1,a2
    179c:	000015b7          	lui	a1,0x1
    17a0:	40b405b3          	sub	a1,s0,a1
    17a4:	70c5b823          	sd	a2,1808(a1) # 1710 <.LBB69_5+0x2f0>
    17a8:	03e505b3          	mul	a1,a0,t5
    17ac:	00001637          	lui	a2,0x1
    17b0:	40c40633          	sub	a2,s0,a2
    17b4:	71863603          	ld	a2,1816(a2) # 1718 <.LBB69_5+0x2f8>
    17b8:	00c58633          	add	a2,a1,a2
    17bc:	000015b7          	lui	a1,0x1
    17c0:	40b405b3          	sub	a1,s0,a1
    17c4:	70c5bc23          	sd	a2,1816(a1) # 1718 <.LBB69_5+0x2f8>
    17c8:	027505b3          	mul	a1,a0,t2
    17cc:	00001637          	lui	a2,0x1
    17d0:	40c40633          	sub	a2,s0,a2
    17d4:	72063603          	ld	a2,1824(a2) # 1720 <.LBB69_5+0x300>
    17d8:	00c58633          	add	a2,a1,a2
    17dc:	000015b7          	lui	a1,0x1
    17e0:	40b405b3          	sub	a1,s0,a1
    17e4:	72c5b023          	sd	a2,1824(a1) # 1720 <.LBB69_5+0x300>
    17e8:	035505b3          	mul	a1,a0,s5
    17ec:	00001637          	lui	a2,0x1
    17f0:	40c40633          	sub	a2,s0,a2
    17f4:	72863603          	ld	a2,1832(a2) # 1728 <.LBB69_5+0x308>
    17f8:	00c58633          	add	a2,a1,a2
    17fc:	000015b7          	lui	a1,0x1
    1800:	40b405b3          	sub	a1,s0,a1
    1804:	72c5b423          	sd	a2,1832(a1) # 1728 <.LBB69_5+0x308>
    1808:	03d505b3          	mul	a1,a0,t4
    180c:	00001637          	lui	a2,0x1
    1810:	40c40633          	sub	a2,s0,a2
    1814:	73063603          	ld	a2,1840(a2) # 1730 <.LBB69_5+0x310>
    1818:	00c58633          	add	a2,a1,a2
    181c:	000015b7          	lui	a1,0x1
    1820:	40b405b3          	sub	a1,s0,a1
    1824:	72c5b823          	sd	a2,1840(a1) # 1730 <.LBB69_5+0x310>
    1828:	037505b3          	mul	a1,a0,s7
    182c:	00001637          	lui	a2,0x1
    1830:	40c40633          	sub	a2,s0,a2
    1834:	73863603          	ld	a2,1848(a2) # 1738 <.LBB69_5+0x318>
    1838:	00c58633          	add	a2,a1,a2
    183c:	000015b7          	lui	a1,0x1
    1840:	40b405b3          	sub	a1,s0,a1
    1844:	72c5bc23          	sd	a2,1848(a1) # 1738 <.LBB69_5+0x318>
    1848:	032505b3          	mul	a1,a0,s2
    184c:	00001637          	lui	a2,0x1
    1850:	40c40633          	sub	a2,s0,a2
    1854:	74063603          	ld	a2,1856(a2) # 1740 <.LBB69_5+0x320>
    1858:	00c58633          	add	a2,a1,a2
    185c:	000015b7          	lui	a1,0x1
    1860:	40b405b3          	sub	a1,s0,a1
    1864:	74c5b023          	sd	a2,1856(a1) # 1740 <.LBB69_5+0x320>
    1868:	f8843583          	ld	a1,-120(s0)
    186c:	01958803          	lb	a6,25(a1)
    1870:	038505b3          	mul	a1,a0,s8
    1874:	00001637          	lui	a2,0x1
    1878:	40c40633          	sub	a2,s0,a2
    187c:	74863603          	ld	a2,1864(a2) # 1748 <.LBB69_5+0x328>
    1880:	00c58633          	add	a2,a1,a2
    1884:	000015b7          	lui	a1,0x1
    1888:	40b405b3          	sub	a1,s0,a1
    188c:	74c5b423          	sd	a2,1864(a1) # 1748 <.LBB69_5+0x328>
    1890:	f8843583          	ld	a1,-120(s0)
    1894:	01a58783          	lb	a5,26(a1)
    1898:	f4f43823          	sd	a5,-176(s0)
    189c:	030505b3          	mul	a1,a0,a6
    18a0:	00001637          	lui	a2,0x1
    18a4:	40c40633          	sub	a2,s0,a2
    18a8:	75063603          	ld	a2,1872(a2) # 1750 <.LBB69_5+0x330>
    18ac:	00c58633          	add	a2,a1,a2
    18b0:	000015b7          	lui	a1,0x1
    18b4:	40b405b3          	sub	a1,s0,a1
    18b8:	74c5b823          	sd	a2,1872(a1) # 1750 <.LBB69_5+0x330>
    18bc:	f8843583          	ld	a1,-120(s0)
    18c0:	01b58883          	lb	a7,27(a1)
    18c4:	f7143423          	sd	a7,-152(s0)
    18c8:	02f505b3          	mul	a1,a0,a5
    18cc:	00001637          	lui	a2,0x1
    18d0:	40c40633          	sub	a2,s0,a2
    18d4:	75863603          	ld	a2,1880(a2) # 1758 <.LBB69_5+0x338>
    18d8:	00c58633          	add	a2,a1,a2
    18dc:	000015b7          	lui	a1,0x1
    18e0:	40b405b3          	sub	a1,s0,a1
    18e4:	74c5bc23          	sd	a2,1880(a1) # 1758 <.LBB69_5+0x338>
    18e8:	f8843583          	ld	a1,-120(s0)
    18ec:	01c58283          	lb	t0,28(a1)
    18f0:	031505b3          	mul	a1,a0,a7
    18f4:	00001637          	lui	a2,0x1
    18f8:	40c40633          	sub	a2,s0,a2
    18fc:	76063603          	ld	a2,1888(a2) # 1760 <.LBB69_5+0x340>
    1900:	00c58633          	add	a2,a1,a2
    1904:	000015b7          	lui	a1,0x1
    1908:	40b405b3          	sub	a1,s0,a1
    190c:	76c5b023          	sd	a2,1888(a1) # 1760 <.LBB69_5+0x340>
    1910:	f8843583          	ld	a1,-120(s0)
    1914:	01d58783          	lb	a5,29(a1)
    1918:	ecf43023          	sd	a5,-320(s0)
    191c:	025505b3          	mul	a1,a0,t0
    1920:	00001637          	lui	a2,0x1
    1924:	40c40633          	sub	a2,s0,a2
    1928:	76863603          	ld	a2,1896(a2) # 1768 <.LBB69_5+0x348>
    192c:	00c58633          	add	a2,a1,a2
    1930:	000015b7          	lui	a1,0x1
    1934:	40b405b3          	sub	a1,s0,a1
    1938:	76c5b423          	sd	a2,1896(a1) # 1768 <.LBB69_5+0x348>
    193c:	f8843583          	ld	a1,-120(s0)
    1940:	01e58883          	lb	a7,30(a1)
    1944:	eb143423          	sd	a7,-344(s0)
    1948:	02f505b3          	mul	a1,a0,a5
    194c:	00001637          	lui	a2,0x1
    1950:	40c40633          	sub	a2,s0,a2
    1954:	77063603          	ld	a2,1904(a2) # 1770 <.LBB69_5+0x350>
    1958:	00c58633          	add	a2,a1,a2
    195c:	000015b7          	lui	a1,0x1
    1960:	40b405b3          	sub	a1,s0,a1
    1964:	76c5b823          	sd	a2,1904(a1) # 1770 <.LBB69_5+0x350>
    1968:	f8843583          	ld	a1,-120(s0)
    196c:	01f58a83          	lb	s5,31(a1)
    1970:	f8043603          	ld	a2,-128(s0)
    1974:	b8060983          	lb	s3,-1152(a2)
    1978:	03150db3          	mul	s11,a0,a7
    197c:	000015b7          	lui	a1,0x1
    1980:	40b405b3          	sub	a1,s0,a1
    1984:	7785b603          	ld	a2,1912(a1) # 1778 <.LBB69_5+0x358>
    1988:	00cd8633          	add	a2,s11,a2
    198c:	000015b7          	lui	a1,0x1
    1990:	40b405b3          	sub	a1,s0,a1
    1994:	76c5bc23          	sd	a2,1912(a1) # 1778 <.LBB69_5+0x358>
    1998:	03550533          	mul	a0,a0,s5
    199c:	e7543823          	sd	s5,-400(s0)
    19a0:	000015b7          	lui	a1,0x1
    19a4:	40b405b3          	sub	a1,s0,a1
    19a8:	7805b603          	ld	a2,1920(a1) # 1780 <.LBB69_5+0x360>
    19ac:	00c50633          	add	a2,a0,a2
    19b0:	00001537          	lui	a0,0x1
    19b4:	40a40533          	sub	a0,s0,a0
    19b8:	78c53023          	sd	a2,1920(a0) # 1780 <.LBB69_5+0x360>
    19bc:	00068793          	mv	a5,a3
    19c0:	02d98533          	mul	a0,s3,a3
    19c4:	000015b7          	lui	a1,0x1
    19c8:	40b405b3          	sub	a1,s0,a1
    19cc:	7a05b603          	ld	a2,1952(a1) # 17a0 <.LBB69_5+0x380>
    19d0:	00c50633          	add	a2,a0,a2
    19d4:	00001537          	lui	a0,0x1
    19d8:	40a40533          	sub	a0,s0,a0
    19dc:	7ac53023          	sd	a2,1952(a0) # 17a0 <.LBB69_5+0x380>
    19e0:	f4043683          	ld	a3,-192(s0)
    19e4:	02d98533          	mul	a0,s3,a3
    19e8:	000015b7          	lui	a1,0x1
    19ec:	40b405b3          	sub	a1,s0,a1
    19f0:	7985b603          	ld	a2,1944(a1) # 1798 <.LBB69_5+0x378>
    19f4:	00c50633          	add	a2,a0,a2
    19f8:	00001537          	lui	a0,0x1
    19fc:	40a40533          	sub	a0,s0,a0
    1a00:	78c53c23          	sd	a2,1944(a0) # 1798 <.LBB69_5+0x378>
    1a04:	f4843883          	ld	a7,-184(s0)
    1a08:	03198533          	mul	a0,s3,a7
    1a0c:	000015b7          	lui	a1,0x1
    1a10:	40b405b3          	sub	a1,s0,a1
    1a14:	7905b603          	ld	a2,1936(a1) # 1790 <.LBB69_5+0x370>
    1a18:	00c50633          	add	a2,a0,a2
    1a1c:	00001537          	lui	a0,0x1
    1a20:	40a40533          	sub	a0,s0,a0
    1a24:	78c53823          	sd	a2,1936(a0) # 1790 <.LBB69_5+0x370>
    1a28:	f3843c83          	ld	s9,-200(s0)
    1a2c:	03998533          	mul	a0,s3,s9
    1a30:	000015b7          	lui	a1,0x1
    1a34:	40b405b3          	sub	a1,s0,a1
    1a38:	7885b603          	ld	a2,1928(a1) # 1788 <.LBB69_5+0x368>
    1a3c:	00c50633          	add	a2,a0,a2
    1a40:	00001537          	lui	a0,0x1
    1a44:	40a40533          	sub	a0,s0,a0
    1a48:	78c53423          	sd	a2,1928(a0) # 1788 <.LBB69_5+0x368>
    1a4c:	f7843e03          	ld	t3,-136(s0)
    1a50:	03c98533          	mul	a0,s3,t3
    1a54:	000015b7          	lui	a1,0x1
    1a58:	40b405b3          	sub	a1,s0,a1
    1a5c:	7a85b603          	ld	a2,1960(a1) # 17a8 <.LBB69_5+0x388>
    1a60:	00c50633          	add	a2,a0,a2
    1a64:	00001537          	lui	a0,0x1
    1a68:	40a40533          	sub	a0,s0,a0
    1a6c:	7ac53423          	sd	a2,1960(a0) # 17a8 <.LBB69_5+0x388>
    1a70:	f7043a03          	ld	s4,-144(s0)
    1a74:	03498533          	mul	a0,s3,s4
    1a78:	000015b7          	lui	a1,0x1
    1a7c:	40b405b3          	sub	a1,s0,a1
    1a80:	7b05b603          	ld	a2,1968(a1) # 17b0 <.LBB69_5+0x390>
    1a84:	00c50633          	add	a2,a0,a2
    1a88:	00001537          	lui	a0,0x1
    1a8c:	40a40533          	sub	a0,s0,a0
    1a90:	7ac53823          	sd	a2,1968(a0) # 17b0 <.LBB69_5+0x390>
    1a94:	02e98533          	mul	a0,s3,a4
    1a98:	00070c13          	mv	s8,a4
    1a9c:	eae43823          	sd	a4,-336(s0)
    1aa0:	000015b7          	lui	a1,0x1
    1aa4:	40b405b3          	sub	a1,s0,a1
    1aa8:	7b85b603          	ld	a2,1976(a1) # 17b8 <.LBB69_5+0x398>
    1aac:	00c50633          	add	a2,a0,a2
    1ab0:	00001537          	lui	a0,0x1
    1ab4:	40a40533          	sub	a0,s0,a0
    1ab8:	7ac53c23          	sd	a2,1976(a0) # 17b8 <.LBB69_5+0x398>
    1abc:	ed843703          	ld	a4,-296(s0)
    1ac0:	02e98533          	mul	a0,s3,a4
    1ac4:	000015b7          	lui	a1,0x1
    1ac8:	40b405b3          	sub	a1,s0,a1
    1acc:	7c05b603          	ld	a2,1984(a1) # 17c0 <.LBB69_5+0x3a0>
    1ad0:	00c50633          	add	a2,a0,a2
    1ad4:	00001537          	lui	a0,0x1
    1ad8:	40a40533          	sub	a0,s0,a0
    1adc:	7cc53023          	sd	a2,1984(a0) # 17c0 <.LBB69_5+0x3a0>
    1ae0:	02198533          	mul	a0,s3,ra
    1ae4:	000015b7          	lui	a1,0x1
    1ae8:	40b405b3          	sub	a1,s0,a1
    1aec:	7c85b603          	ld	a2,1992(a1) # 17c8 <.LBB69_5+0x3a8>
    1af0:	00c50633          	add	a2,a0,a2
    1af4:	00001537          	lui	a0,0x1
    1af8:	40a40533          	sub	a0,s0,a0
    1afc:	7cc53423          	sd	a2,1992(a0) # 17c8 <.LBB69_5+0x3a8>
    1b00:	00001537          	lui	a0,0x1
    1b04:	40a40533          	sub	a0,s0,a0
    1b08:	67853b03          	ld	s6,1656(a0) # 1678 <.LBB69_5+0x258>
    1b0c:	03698533          	mul	a0,s3,s6
    1b10:	000015b7          	lui	a1,0x1
    1b14:	40b405b3          	sub	a1,s0,a1
    1b18:	7d05b603          	ld	a2,2000(a1) # 17d0 <.LBB69_5+0x3b0>
    1b1c:	00c50633          	add	a2,a0,a2
    1b20:	00001537          	lui	a0,0x1
    1b24:	40a40533          	sub	a0,s0,a0
    1b28:	7cc53823          	sd	a2,2000(a0) # 17d0 <.LBB69_5+0x3b0>
    1b2c:	e8843b83          	ld	s7,-376(s0)
    1b30:	03798533          	mul	a0,s3,s7
    1b34:	000015b7          	lui	a1,0x1
    1b38:	40b405b3          	sub	a1,s0,a1
    1b3c:	7d85b603          	ld	a2,2008(a1) # 17d8 <.LBB69_5+0x3b8>
    1b40:	00c50633          	add	a2,a0,a2
    1b44:	00001537          	lui	a0,0x1
    1b48:	40a40533          	sub	a0,s0,a0
    1b4c:	7cc53c23          	sd	a2,2008(a0) # 17d8 <.LBB69_5+0x3b8>
    1b50:	ef043503          	ld	a0,-272(s0)
    1b54:	02a98533          	mul	a0,s3,a0
    1b58:	000015b7          	lui	a1,0x1
    1b5c:	40b405b3          	sub	a1,s0,a1
    1b60:	7e05b603          	ld	a2,2016(a1) # 17e0 <.LBB69_5+0x3c0>
    1b64:	00c50633          	add	a2,a0,a2
    1b68:	00001537          	lui	a0,0x1
    1b6c:	40a40533          	sub	a0,s0,a0
    1b70:	7ec53023          	sd	a2,2016(a0) # 17e0 <.LBB69_5+0x3c0>
    1b74:	f5843503          	ld	a0,-168(s0)
    1b78:	02a98533          	mul	a0,s3,a0
    1b7c:	000015b7          	lui	a1,0x1
    1b80:	40b405b3          	sub	a1,s0,a1
    1b84:	7e85b603          	ld	a2,2024(a1) # 17e8 <.LBB69_5+0x3c8>
    1b88:	00c50633          	add	a2,a0,a2
    1b8c:	00001537          	lui	a0,0x1
    1b90:	40a40533          	sub	a0,s0,a0
    1b94:	7ec53423          	sd	a2,2024(a0) # 17e8 <.LBB69_5+0x3c8>
    1b98:	f0043503          	ld	a0,-256(s0)
    1b9c:	02a98533          	mul	a0,s3,a0
    1ba0:	000015b7          	lui	a1,0x1
    1ba4:	40b405b3          	sub	a1,s0,a1
    1ba8:	7f05b603          	ld	a2,2032(a1) # 17f0 <.LBB69_5+0x3d0>
    1bac:	00c50633          	add	a2,a0,a2
    1bb0:	00001537          	lui	a0,0x1
    1bb4:	40a40533          	sub	a0,s0,a0
    1bb8:	7ec53823          	sd	a2,2032(a0) # 17f0 <.LBB69_5+0x3d0>
    1bbc:	02998533          	mul	a0,s3,s1
    1bc0:	000015b7          	lui	a1,0x1
    1bc4:	40b405b3          	sub	a1,s0,a1
    1bc8:	7f85b603          	ld	a2,2040(a1) # 17f8 <.LBB69_5+0x3d8>
    1bcc:	00c50633          	add	a2,a0,a2
    1bd0:	00001537          	lui	a0,0x1
    1bd4:	40a40533          	sub	a0,s0,a0
    1bd8:	7ec53c23          	sd	a2,2040(a0) # 17f8 <.LBB69_5+0x3d8>
    1bdc:	eb843483          	ld	s1,-328(s0)
    1be0:	02998533          	mul	a0,s3,s1
    1be4:	80043603          	ld	a2,-2048(s0)
    1be8:	00c50633          	add	a2,a0,a2
    1bec:	80c43023          	sd	a2,-2048(s0)
    1bf0:	02698533          	mul	a0,s3,t1
    1bf4:	80843603          	ld	a2,-2040(s0)
    1bf8:	00c50633          	add	a2,a0,a2
    1bfc:	80c43423          	sd	a2,-2040(s0)
    1c00:	000f8913          	mv	s2,t6
    1c04:	eff43023          	sd	t6,-288(s0)
    1c08:	03f98533          	mul	a0,s3,t6
    1c0c:	81043603          	ld	a2,-2032(s0)
    1c10:	00c50633          	add	a2,a0,a2
    1c14:	80c43823          	sd	a2,-2032(s0)
    1c18:	03e98533          	mul	a0,s3,t5
    1c1c:	000f0d13          	mv	s10,t5
    1c20:	efe43423          	sd	t5,-280(s0)
    1c24:	81843603          	ld	a2,-2024(s0)
    1c28:	00c50633          	add	a2,a0,a2
    1c2c:	80c43c23          	sd	a2,-2024(s0)
    1c30:	ee743c23          	sd	t2,-264(s0)
    1c34:	02798533          	mul	a0,s3,t2
    1c38:	82043603          	ld	a2,-2016(s0)
    1c3c:	00c50633          	add	a2,a0,a2
    1c40:	82c43023          	sd	a2,-2016(s0)
    1c44:	f0843503          	ld	a0,-248(s0)
    1c48:	02a98533          	mul	a0,s3,a0
    1c4c:	82843603          	ld	a2,-2008(s0)
    1c50:	00c50633          	add	a2,a0,a2
    1c54:	82c43423          	sd	a2,-2008(s0)
    1c58:	000e8f13          	mv	t5,t4
    1c5c:	03d98533          	mul	a0,s3,t4
    1c60:	83043603          	ld	a2,-2000(s0)
    1c64:	00c50633          	add	a2,a0,a2
    1c68:	82c43823          	sd	a2,-2000(s0)
    1c6c:	ec843303          	ld	t1,-312(s0)
    1c70:	02698533          	mul	a0,s3,t1
    1c74:	83843603          	ld	a2,-1992(s0)
    1c78:	00c50633          	add	a2,a0,a2
    1c7c:	82c43c23          	sd	a2,-1992(s0)
    1c80:	ed043583          	ld	a1,-304(s0)
    1c84:	02b98533          	mul	a0,s3,a1
    1c88:	84043603          	ld	a2,-1984(s0)
    1c8c:	00c50633          	add	a2,a0,a2
    1c90:	84c43023          	sd	a2,-1984(s0)
    1c94:	f6043503          	ld	a0,-160(s0)
    1c98:	02a98533          	mul	a0,s3,a0
    1c9c:	84843603          	ld	a2,-1976(s0)
    1ca0:	00c50633          	add	a2,a0,a2
    1ca4:	84c43423          	sd	a2,-1976(s0)
    1ca8:	03098533          	mul	a0,s3,a6
    1cac:	85043603          	ld	a2,-1968(s0)
    1cb0:	00c50633          	add	a2,a0,a2
    1cb4:	84c43823          	sd	a2,-1968(s0)
    1cb8:	f5043503          	ld	a0,-176(s0)
    1cbc:	02a98533          	mul	a0,s3,a0
    1cc0:	85843603          	ld	a2,-1960(s0)
    1cc4:	00c50633          	add	a2,a0,a2
    1cc8:	84c43c23          	sd	a2,-1960(s0)
    1ccc:	f6843503          	ld	a0,-152(s0)
    1cd0:	02a98533          	mul	a0,s3,a0
    1cd4:	86043603          	ld	a2,-1952(s0)
    1cd8:	00c50633          	add	a2,a0,a2
    1cdc:	86c43023          	sd	a2,-1952(s0)
    1ce0:	02598533          	mul	a0,s3,t0
    1ce4:	e6543c23          	sd	t0,-392(s0)
    1ce8:	86843603          	ld	a2,-1944(s0)
    1cec:	00c50633          	add	a2,a0,a2
    1cf0:	86c43423          	sd	a2,-1944(s0)
    1cf4:	ec043f83          	ld	t6,-320(s0)
    1cf8:	03f98533          	mul	a0,s3,t6
    1cfc:	87043603          	ld	a2,-1936(s0)
    1d00:	00c50633          	add	a2,a0,a2
    1d04:	86c43823          	sd	a2,-1936(s0)
    1d08:	f8043503          	ld	a0,-128(s0)
    1d0c:	d0050503          	lb	a0,-768(a0)
    1d10:	ea843e83          	ld	t4,-344(s0)
    1d14:	03d98db3          	mul	s11,s3,t4
    1d18:	87843603          	ld	a2,-1928(s0)
    1d1c:	00cd8633          	add	a2,s11,a2
    1d20:	86c43c23          	sd	a2,-1928(s0)
    1d24:	035989b3          	mul	s3,s3,s5
    1d28:	88043603          	ld	a2,-1920(s0)
    1d2c:	00c98633          	add	a2,s3,a2
    1d30:	88c43023          	sd	a2,-1920(s0)
    1d34:	02f509b3          	mul	s3,a0,a5
    1d38:	e8f43023          	sd	a5,-384(s0)
    1d3c:	8a043603          	ld	a2,-1888(s0)
    1d40:	00c98633          	add	a2,s3,a2
    1d44:	8ac43023          	sd	a2,-1888(s0)
    1d48:	02d509b3          	mul	s3,a0,a3
    1d4c:	89843603          	ld	a2,-1896(s0)
    1d50:	00c98633          	add	a2,s3,a2
    1d54:	88c43c23          	sd	a2,-1896(s0)
    1d58:	031509b3          	mul	s3,a0,a7
    1d5c:	89043603          	ld	a2,-1904(s0)
    1d60:	00c98633          	add	a2,s3,a2
    1d64:	88c43823          	sd	a2,-1904(s0)
    1d68:	039509b3          	mul	s3,a0,s9
    1d6c:	88843603          	ld	a2,-1912(s0)
    1d70:	00c98633          	add	a2,s3,a2
    1d74:	88c43423          	sd	a2,-1912(s0)
    1d78:	03c509b3          	mul	s3,a0,t3
    1d7c:	8a843603          	ld	a2,-1880(s0)
    1d80:	00c98633          	add	a2,s3,a2
    1d84:	8ac43423          	sd	a2,-1880(s0)
    1d88:	034509b3          	mul	s3,a0,s4
    1d8c:	8b043603          	ld	a2,-1872(s0)
    1d90:	00c98633          	add	a2,s3,a2
    1d94:	8ac43823          	sd	a2,-1872(s0)
    1d98:	038509b3          	mul	s3,a0,s8
    1d9c:	8b843603          	ld	a2,-1864(s0)
    1da0:	00c98633          	add	a2,s3,a2
    1da4:	8ac43c23          	sd	a2,-1864(s0)
    1da8:	02e509b3          	mul	s3,a0,a4
    1dac:	00070e13          	mv	t3,a4
    1db0:	8c043603          	ld	a2,-1856(s0)
    1db4:	00c98633          	add	a2,s3,a2
    1db8:	8cc43023          	sd	a2,-1856(s0)
    1dbc:	021509b3          	mul	s3,a0,ra
    1dc0:	00008a13          	mv	s4,ra
    1dc4:	8c843603          	ld	a2,-1848(s0)
    1dc8:	00c98633          	add	a2,s3,a2
    1dcc:	8cc43423          	sd	a2,-1848(s0)
    1dd0:	000b0c93          	mv	s9,s6
    1dd4:	036509b3          	mul	s3,a0,s6
    1dd8:	8d043603          	ld	a2,-1840(s0)
    1ddc:	00c98633          	add	a2,s3,a2
    1de0:	8cc43823          	sd	a2,-1840(s0)
    1de4:	000b8c13          	mv	s8,s7
    1de8:	037509b3          	mul	s3,a0,s7
    1dec:	8d843603          	ld	a2,-1832(s0)
    1df0:	00c98633          	add	a2,s3,a2
    1df4:	8cc43c23          	sd	a2,-1832(s0)
    1df8:	ef043b83          	ld	s7,-272(s0)
    1dfc:	037509b3          	mul	s3,a0,s7
    1e00:	8e043603          	ld	a2,-1824(s0)
    1e04:	00c98633          	add	a2,s3,a2
    1e08:	8ec43023          	sd	a2,-1824(s0)
    1e0c:	f5843b03          	ld	s6,-168(s0)
    1e10:	036509b3          	mul	s3,a0,s6
    1e14:	8e843603          	ld	a2,-1816(s0)
    1e18:	00c98633          	add	a2,s3,a2
    1e1c:	8ec43423          	sd	a2,-1816(s0)
    1e20:	f0043a83          	ld	s5,-256(s0)
    1e24:	035509b3          	mul	s3,a0,s5
    1e28:	8f043603          	ld	a2,-1808(s0)
    1e2c:	00c98633          	add	a2,s3,a2
    1e30:	8ec43823          	sd	a2,-1808(s0)
    1e34:	e6843883          	ld	a7,-408(s0)
    1e38:	031509b3          	mul	s3,a0,a7
    1e3c:	8f843603          	ld	a2,-1800(s0)
    1e40:	00c98633          	add	a2,s3,a2
    1e44:	8ec43c23          	sd	a2,-1800(s0)
    1e48:	029509b3          	mul	s3,a0,s1
    1e4c:	90043603          	ld	a2,-1792(s0)
    1e50:	00c98633          	add	a2,s3,a2
    1e54:	90c43023          	sd	a2,-1792(s0)
    1e58:	e9043603          	ld	a2,-368(s0)
    1e5c:	02c509b3          	mul	s3,a0,a2
    1e60:	90843603          	ld	a2,-1784(s0)
    1e64:	00c98633          	add	a2,s3,a2
    1e68:	90c43423          	sd	a2,-1784(s0)
    1e6c:	032509b3          	mul	s3,a0,s2
    1e70:	91043603          	ld	a2,-1776(s0)
    1e74:	00c98633          	add	a2,s3,a2
    1e78:	90c43823          	sd	a2,-1776(s0)
    1e7c:	03a509b3          	mul	s3,a0,s10
    1e80:	91843603          	ld	a2,-1768(s0)
    1e84:	00c98633          	add	a2,s3,a2
    1e88:	90c43c23          	sd	a2,-1768(s0)
    1e8c:	027509b3          	mul	s3,a0,t2
    1e90:	92043603          	ld	a2,-1760(s0)
    1e94:	00c98633          	add	a2,s3,a2
    1e98:	92c43023          	sd	a2,-1760(s0)
    1e9c:	f0843683          	ld	a3,-248(s0)
    1ea0:	02d509b3          	mul	s3,a0,a3
    1ea4:	92843603          	ld	a2,-1752(s0)
    1ea8:	00c98633          	add	a2,s3,a2
    1eac:	92c43423          	sd	a2,-1752(s0)
    1eb0:	03e509b3          	mul	s3,a0,t5
    1eb4:	000f0913          	mv	s2,t5
    1eb8:	ebe43023          	sd	t5,-352(s0)
    1ebc:	93043603          	ld	a2,-1744(s0)
    1ec0:	00c98633          	add	a2,s3,a2
    1ec4:	92c43823          	sd	a2,-1744(s0)
    1ec8:	026509b3          	mul	s3,a0,t1
    1ecc:	00030493          	mv	s1,t1
    1ed0:	93843603          	ld	a2,-1736(s0)
    1ed4:	00c98633          	add	a2,s3,a2
    1ed8:	92c43c23          	sd	a2,-1736(s0)
    1edc:	02b509b3          	mul	s3,a0,a1
    1ee0:	94043603          	ld	a2,-1728(s0)
    1ee4:	00c98633          	add	a2,s3,a2
    1ee8:	94c43023          	sd	a2,-1728(s0)
    1eec:	f6043583          	ld	a1,-160(s0)
    1ef0:	02b509b3          	mul	s3,a0,a1
    1ef4:	94843603          	ld	a2,-1720(s0)
    1ef8:	00c98633          	add	a2,s3,a2
    1efc:	94c43423          	sd	a2,-1720(s0)
    1f00:	030509b3          	mul	s3,a0,a6
    1f04:	00080f13          	mv	t5,a6
    1f08:	95043603          	ld	a2,-1712(s0)
    1f0c:	00c98633          	add	a2,s3,a2
    1f10:	94c43823          	sd	a2,-1712(s0)
    1f14:	f5043803          	ld	a6,-176(s0)
    1f18:	030509b3          	mul	s3,a0,a6
    1f1c:	95843603          	ld	a2,-1704(s0)
    1f20:	00c98633          	add	a2,s3,a2
    1f24:	94c43c23          	sd	a2,-1704(s0)
    1f28:	f6843603          	ld	a2,-152(s0)
    1f2c:	02c509b3          	mul	s3,a0,a2
    1f30:	96043603          	ld	a2,-1696(s0)
    1f34:	00c98633          	add	a2,s3,a2
    1f38:	96c43023          	sd	a2,-1696(s0)
    1f3c:	025509b3          	mul	s3,a0,t0
    1f40:	96843603          	ld	a2,-1688(s0)
    1f44:	00c98633          	add	a2,s3,a2
    1f48:	96c43423          	sd	a2,-1688(s0)
    1f4c:	03f509b3          	mul	s3,a0,t6
    1f50:	97043603          	ld	a2,-1680(s0)
    1f54:	00c98633          	add	a2,s3,a2
    1f58:	96c43823          	sd	a2,-1680(s0)
    1f5c:	f8043603          	ld	a2,-128(s0)
    1f60:	e8060983          	lb	s3,-384(a2)
    1f64:	03d50db3          	mul	s11,a0,t4
    1f68:	97843603          	ld	a2,-1672(s0)
    1f6c:	00cd8633          	add	a2,s11,a2
    1f70:	96c43c23          	sd	a2,-1672(s0)
    1f74:	e7043e83          	ld	t4,-400(s0)
    1f78:	03d50533          	mul	a0,a0,t4
    1f7c:	98043603          	ld	a2,-1664(s0)
    1f80:	00c50633          	add	a2,a0,a2
    1f84:	98c43023          	sd	a2,-1664(s0)
    1f88:	02f98533          	mul	a0,s3,a5
    1f8c:	9a043603          	ld	a2,-1632(s0)
    1f90:	00c50633          	add	a2,a0,a2
    1f94:	9ac43023          	sd	a2,-1632(s0)
    1f98:	f4043783          	ld	a5,-192(s0)
    1f9c:	02f98533          	mul	a0,s3,a5
    1fa0:	99843603          	ld	a2,-1640(s0)
    1fa4:	00c50633          	add	a2,a0,a2
    1fa8:	98c43c23          	sd	a2,-1640(s0)
    1fac:	f4843283          	ld	t0,-184(s0)
    1fb0:	02598533          	mul	a0,s3,t0
    1fb4:	99043603          	ld	a2,-1648(s0)
    1fb8:	00c50633          	add	a2,a0,a2
    1fbc:	98c43823          	sd	a2,-1648(s0)
    1fc0:	f3843703          	ld	a4,-200(s0)
    1fc4:	02e98533          	mul	a0,s3,a4
    1fc8:	98843603          	ld	a2,-1656(s0)
    1fcc:	00c50633          	add	a2,a0,a2
    1fd0:	98c43423          	sd	a2,-1656(s0)
    1fd4:	f7843503          	ld	a0,-136(s0)
    1fd8:	02a98533          	mul	a0,s3,a0
    1fdc:	9a843603          	ld	a2,-1624(s0)
    1fe0:	00c50633          	add	a2,a0,a2
    1fe4:	9ac43423          	sd	a2,-1624(s0)
    1fe8:	f7043503          	ld	a0,-144(s0)
    1fec:	02a98533          	mul	a0,s3,a0
    1ff0:	9b043603          	ld	a2,-1616(s0)
    1ff4:	00c50633          	add	a2,a0,a2
    1ff8:	9ac43823          	sd	a2,-1616(s0)
    1ffc:	eb043f83          	ld	t6,-336(s0)
    2000:	03f98533          	mul	a0,s3,t6
    2004:	9b843603          	ld	a2,-1608(s0)
    2008:	00c50633          	add	a2,a0,a2
    200c:	9ac43c23          	sd	a2,-1608(s0)
    2010:	03c98533          	mul	a0,s3,t3
    2014:	000e0093          	mv	ra,t3
    2018:	9c043603          	ld	a2,-1600(s0)
    201c:	00c50633          	add	a2,a0,a2
    2020:	9cc43023          	sd	a2,-1600(s0)
    2024:	03498533          	mul	a0,s3,s4
    2028:	000a0d13          	mv	s10,s4
    202c:	e9443c23          	sd	s4,-360(s0)
    2030:	9c843603          	ld	a2,-1592(s0)
    2034:	00c50633          	add	a2,a0,a2
    2038:	9cc43423          	sd	a2,-1592(s0)
    203c:	03998533          	mul	a0,s3,s9
    2040:	9d043603          	ld	a2,-1584(s0)
    2044:	00c50633          	add	a2,a0,a2
    2048:	9cc43823          	sd	a2,-1584(s0)
    204c:	03898533          	mul	a0,s3,s8
    2050:	9d843603          	ld	a2,-1576(s0)
    2054:	00c50633          	add	a2,a0,a2
    2058:	9cc43c23          	sd	a2,-1576(s0)
    205c:	03798533          	mul	a0,s3,s7
    2060:	9e043603          	ld	a2,-1568(s0)
    2064:	00c50633          	add	a2,a0,a2
    2068:	9ec43023          	sd	a2,-1568(s0)
    206c:	03698533          	mul	a0,s3,s6
    2070:	9e843603          	ld	a2,-1560(s0)
    2074:	00c50633          	add	a2,a0,a2
    2078:	9ec43423          	sd	a2,-1560(s0)
    207c:	03598533          	mul	a0,s3,s5
    2080:	9f043603          	ld	a2,-1552(s0)
    2084:	00c50633          	add	a2,a0,a2
    2088:	9ec43823          	sd	a2,-1552(s0)
    208c:	03198533          	mul	a0,s3,a7
    2090:	00088b13          	mv	s6,a7
    2094:	9f843603          	ld	a2,-1544(s0)
    2098:	00c50633          	add	a2,a0,a2
    209c:	9ec43c23          	sd	a2,-1544(s0)
    20a0:	eb843303          	ld	t1,-328(s0)
    20a4:	02698533          	mul	a0,s3,t1
    20a8:	a0043603          	ld	a2,-1536(s0)
    20ac:	00c50633          	add	a2,a0,a2
    20b0:	a0c43023          	sd	a2,-1536(s0)
    20b4:	e9043883          	ld	a7,-368(s0)
    20b8:	03198533          	mul	a0,s3,a7
    20bc:	a0843603          	ld	a2,-1528(s0)
    20c0:	00c50633          	add	a2,a0,a2
    20c4:	a0c43423          	sd	a2,-1528(s0)
    20c8:	ee043383          	ld	t2,-288(s0)
    20cc:	02798533          	mul	a0,s3,t2
    20d0:	a1043603          	ld	a2,-1520(s0)
    20d4:	00c50633          	add	a2,a0,a2
    20d8:	a0c43823          	sd	a2,-1520(s0)
    20dc:	ee843e03          	ld	t3,-280(s0)
    20e0:	03c98533          	mul	a0,s3,t3
    20e4:	a1843603          	ld	a2,-1512(s0)
    20e8:	00c50633          	add	a2,a0,a2
    20ec:	a0c43c23          	sd	a2,-1512(s0)
    20f0:	ef843503          	ld	a0,-264(s0)
    20f4:	02a98533          	mul	a0,s3,a0
    20f8:	a2043603          	ld	a2,-1504(s0)
    20fc:	00c50633          	add	a2,a0,a2
    2100:	a2c43023          	sd	a2,-1504(s0)
    2104:	02d98533          	mul	a0,s3,a3
    2108:	00068a93          	mv	s5,a3
    210c:	a2843603          	ld	a2,-1496(s0)
    2110:	00c50633          	add	a2,a0,a2
    2114:	a2c43423          	sd	a2,-1496(s0)
    2118:	03298533          	mul	a0,s3,s2
    211c:	a3043603          	ld	a2,-1488(s0)
    2120:	00c50633          	add	a2,a0,a2
    2124:	a2c43823          	sd	a2,-1488(s0)
    2128:	02998533          	mul	a0,s3,s1
    212c:	a3843603          	ld	a2,-1480(s0)
    2130:	00c50633          	add	a2,a0,a2
    2134:	a2c43c23          	sd	a2,-1480(s0)
    2138:	ed043a03          	ld	s4,-304(s0)
    213c:	03498533          	mul	a0,s3,s4
    2140:	a4043603          	ld	a2,-1472(s0)
    2144:	00c50633          	add	a2,a0,a2
    2148:	a4c43023          	sd	a2,-1472(s0)
    214c:	02b98533          	mul	a0,s3,a1
    2150:	a4843603          	ld	a2,-1464(s0)
    2154:	00c50633          	add	a2,a0,a2
    2158:	a4c43423          	sd	a2,-1464(s0)
    215c:	03e98533          	mul	a0,s3,t5
    2160:	000f0493          	mv	s1,t5
    2164:	a5043603          	ld	a2,-1456(s0)
    2168:	00c50633          	add	a2,a0,a2
    216c:	a4c43823          	sd	a2,-1456(s0)
    2170:	03098533          	mul	a0,s3,a6
    2174:	a5843603          	ld	a2,-1448(s0)
    2178:	00c50633          	add	a2,a0,a2
    217c:	a4c43c23          	sd	a2,-1448(s0)
    2180:	f6843503          	ld	a0,-152(s0)
    2184:	02a98533          	mul	a0,s3,a0
    2188:	a6043603          	ld	a2,-1440(s0)
    218c:	00c50633          	add	a2,a0,a2
    2190:	a6c43023          	sd	a2,-1440(s0)
    2194:	e7843803          	ld	a6,-392(s0)
    2198:	03098533          	mul	a0,s3,a6
    219c:	a6843603          	ld	a2,-1432(s0)
    21a0:	00c50633          	add	a2,a0,a2
    21a4:	a6c43423          	sd	a2,-1432(s0)
    21a8:	ec043f03          	ld	t5,-320(s0)
    21ac:	03e98533          	mul	a0,s3,t5
    21b0:	a7043603          	ld	a2,-1424(s0)
    21b4:	00c50633          	add	a2,a0,a2
    21b8:	a6c43823          	sd	a2,-1424(s0)
    21bc:	f8043503          	ld	a0,-128(s0)
    21c0:	00050503          	lb	a0,0(a0)
    21c4:	ea843683          	ld	a3,-344(s0)
    21c8:	02d98db3          	mul	s11,s3,a3
    21cc:	a7843603          	ld	a2,-1416(s0)
    21d0:	00cd8633          	add	a2,s11,a2
    21d4:	a6c43c23          	sd	a2,-1416(s0)
    21d8:	03d989b3          	mul	s3,s3,t4
    21dc:	a8043603          	ld	a2,-1408(s0)
    21e0:	00c98633          	add	a2,s3,a2
    21e4:	a8c43023          	sd	a2,-1408(s0)
    21e8:	e8043903          	ld	s2,-384(s0)
    21ec:	032509b3          	mul	s3,a0,s2
    21f0:	aa043603          	ld	a2,-1376(s0)
    21f4:	00c98633          	add	a2,s3,a2
    21f8:	aac43023          	sd	a2,-1376(s0)
    21fc:	02f509b3          	mul	s3,a0,a5
    2200:	a9843603          	ld	a2,-1384(s0)
    2204:	00c98633          	add	a2,s3,a2
    2208:	a8c43c23          	sd	a2,-1384(s0)
    220c:	025509b3          	mul	s3,a0,t0
    2210:	a9043603          	ld	a2,-1392(s0)
    2214:	00c98633          	add	a2,s3,a2
    2218:	a8c43823          	sd	a2,-1392(s0)
    221c:	02e509b3          	mul	s3,a0,a4
    2220:	a8843603          	ld	a2,-1400(s0)
    2224:	00c98633          	add	a2,s3,a2
    2228:	a8c43423          	sd	a2,-1400(s0)
    222c:	f7843783          	ld	a5,-136(s0)
    2230:	02f509b3          	mul	s3,a0,a5
    2234:	aa843603          	ld	a2,-1368(s0)
    2238:	00c98633          	add	a2,s3,a2
    223c:	aac43423          	sd	a2,-1368(s0)
    2240:	f7043583          	ld	a1,-144(s0)
    2244:	02b509b3          	mul	s3,a0,a1
    2248:	ab043603          	ld	a2,-1360(s0)
    224c:	00c98633          	add	a2,s3,a2
    2250:	aac43823          	sd	a2,-1360(s0)
    2254:	03f509b3          	mul	s3,a0,t6
    2258:	ab843603          	ld	a2,-1352(s0)
    225c:	00c98633          	add	a2,s3,a2
    2260:	aac43c23          	sd	a2,-1352(s0)
    2264:	00008713          	mv	a4,ra
    2268:	021509b3          	mul	s3,a0,ra
    226c:	ac043603          	ld	a2,-1344(s0)
    2270:	00c98633          	add	a2,s3,a2
    2274:	acc43023          	sd	a2,-1344(s0)
    2278:	03a509b3          	mul	s3,a0,s10
    227c:	ac843603          	ld	a2,-1336(s0)
    2280:	00c98633          	add	a2,s3,a2
    2284:	acc43423          	sd	a2,-1336(s0)
    2288:	039509b3          	mul	s3,a0,s9
    228c:	ad043603          	ld	a2,-1328(s0)
    2290:	00c98633          	add	a2,s3,a2
    2294:	acc43823          	sd	a2,-1328(s0)
    2298:	038509b3          	mul	s3,a0,s8
    229c:	ad843603          	ld	a2,-1320(s0)
    22a0:	00c98633          	add	a2,s3,a2
    22a4:	acc43c23          	sd	a2,-1320(s0)
    22a8:	037509b3          	mul	s3,a0,s7
    22ac:	ae043603          	ld	a2,-1312(s0)
    22b0:	00c98633          	add	a2,s3,a2
    22b4:	aec43023          	sd	a2,-1312(s0)
    22b8:	f5843f83          	ld	t6,-168(s0)
    22bc:	03f509b3          	mul	s3,a0,t6
    22c0:	ae843603          	ld	a2,-1304(s0)
    22c4:	00c98633          	add	a2,s3,a2
    22c8:	aec43423          	sd	a2,-1304(s0)
    22cc:	f0043083          	ld	ra,-256(s0)
    22d0:	021509b3          	mul	s3,a0,ra
    22d4:	af043603          	ld	a2,-1296(s0)
    22d8:	00c98633          	add	a2,s3,a2
    22dc:	aec43823          	sd	a2,-1296(s0)
    22e0:	036509b3          	mul	s3,a0,s6
    22e4:	af843603          	ld	a2,-1288(s0)
    22e8:	00c98633          	add	a2,s3,a2
    22ec:	aec43c23          	sd	a2,-1288(s0)
    22f0:	026509b3          	mul	s3,a0,t1
    22f4:	b0043603          	ld	a2,-1280(s0)
    22f8:	00c98633          	add	a2,s3,a2
    22fc:	b0c43023          	sd	a2,-1280(s0)
    2300:	00088313          	mv	t1,a7
    2304:	031509b3          	mul	s3,a0,a7
    2308:	b0843603          	ld	a2,-1272(s0)
    230c:	00c98633          	add	a2,s3,a2
    2310:	b0c43423          	sd	a2,-1272(s0)
    2314:	027509b3          	mul	s3,a0,t2
    2318:	b1043603          	ld	a2,-1264(s0)
    231c:	00c98633          	add	a2,s3,a2
    2320:	b0c43823          	sd	a2,-1264(s0)
    2324:	03c509b3          	mul	s3,a0,t3
    2328:	b1843603          	ld	a2,-1256(s0)
    232c:	00c98633          	add	a2,s3,a2
    2330:	b0c43c23          	sd	a2,-1256(s0)
    2334:	ef843e03          	ld	t3,-264(s0)
    2338:	03c509b3          	mul	s3,a0,t3
    233c:	b2043603          	ld	a2,-1248(s0)
    2340:	00c98633          	add	a2,s3,a2
    2344:	b2c43023          	sd	a2,-1248(s0)
    2348:	035509b3          	mul	s3,a0,s5
    234c:	b2843603          	ld	a2,-1240(s0)
    2350:	00c98633          	add	a2,s3,a2
    2354:	b2c43423          	sd	a2,-1240(s0)
    2358:	ea043603          	ld	a2,-352(s0)
    235c:	02c509b3          	mul	s3,a0,a2
    2360:	b3043603          	ld	a2,-1232(s0)
    2364:	00c98633          	add	a2,s3,a2
    2368:	b2c43823          	sd	a2,-1232(s0)
    236c:	ec843b03          	ld	s6,-312(s0)
    2370:	036509b3          	mul	s3,a0,s6
    2374:	b3843603          	ld	a2,-1224(s0)
    2378:	00c98633          	add	a2,s3,a2
    237c:	b2c43c23          	sd	a2,-1224(s0)
    2380:	034509b3          	mul	s3,a0,s4
    2384:	b4043603          	ld	a2,-1216(s0)
    2388:	00c98633          	add	a2,s3,a2
    238c:	b4c43023          	sd	a2,-1216(s0)
    2390:	f6043a03          	ld	s4,-160(s0)
    2394:	034509b3          	mul	s3,a0,s4
    2398:	b4843603          	ld	a2,-1208(s0)
    239c:	00c98633          	add	a2,s3,a2
    23a0:	b4c43423          	sd	a2,-1208(s0)
    23a4:	029509b3          	mul	s3,a0,s1
    23a8:	b5043603          	ld	a2,-1200(s0)
    23ac:	00c98633          	add	a2,s3,a2
    23b0:	b4c43823          	sd	a2,-1200(s0)
    23b4:	f5043d03          	ld	s10,-176(s0)
    23b8:	03a509b3          	mul	s3,a0,s10
    23bc:	b5843603          	ld	a2,-1192(s0)
    23c0:	00c98633          	add	a2,s3,a2
    23c4:	b4c43c23          	sd	a2,-1192(s0)
    23c8:	f6843283          	ld	t0,-152(s0)
    23cc:	025509b3          	mul	s3,a0,t0
    23d0:	b6043603          	ld	a2,-1184(s0)
    23d4:	00c98633          	add	a2,s3,a2
    23d8:	b6c43023          	sd	a2,-1184(s0)
    23dc:	030509b3          	mul	s3,a0,a6
    23e0:	b6843603          	ld	a2,-1176(s0)
    23e4:	00c98633          	add	a2,s3,a2
    23e8:	b6c43423          	sd	a2,-1176(s0)
    23ec:	03e509b3          	mul	s3,a0,t5
    23f0:	b7043603          	ld	a2,-1168(s0)
    23f4:	00c98633          	add	a2,s3,a2
    23f8:	b6c43823          	sd	a2,-1168(s0)
    23fc:	f8043603          	ld	a2,-128(s0)
    2400:	18060983          	lb	s3,384(a2)
    2404:	02d50db3          	mul	s11,a0,a3
    2408:	b7843603          	ld	a2,-1160(s0)
    240c:	00cd8633          	add	a2,s11,a2
    2410:	b6c43c23          	sd	a2,-1160(s0)
    2414:	000e8893          	mv	a7,t4
    2418:	03d50533          	mul	a0,a0,t4
    241c:	b8043603          	ld	a2,-1152(s0)
    2420:	00c50633          	add	a2,a0,a2
    2424:	b8c43023          	sd	a2,-1152(s0)
    2428:	03298533          	mul	a0,s3,s2
    242c:	00090e93          	mv	t4,s2
    2430:	ba043603          	ld	a2,-1120(s0)
    2434:	00c50633          	add	a2,a0,a2
    2438:	bac43023          	sd	a2,-1120(s0)
    243c:	f4043803          	ld	a6,-192(s0)
    2440:	03098533          	mul	a0,s3,a6
    2444:	b9843603          	ld	a2,-1128(s0)
    2448:	00c50633          	add	a2,a0,a2
    244c:	b8c43c23          	sd	a2,-1128(s0)
    2450:	f4843383          	ld	t2,-184(s0)
    2454:	02798533          	mul	a0,s3,t2
    2458:	b9043603          	ld	a2,-1136(s0)
    245c:	00c50633          	add	a2,a0,a2
    2460:	b8c43823          	sd	a2,-1136(s0)
    2464:	f3843903          	ld	s2,-200(s0)
    2468:	03298533          	mul	a0,s3,s2
    246c:	b8843603          	ld	a2,-1144(s0)
    2470:	00c50633          	add	a2,a0,a2
    2474:	b8c43423          	sd	a2,-1144(s0)
    2478:	02f98533          	mul	a0,s3,a5
    247c:	ba843603          	ld	a2,-1112(s0)
    2480:	00c50633          	add	a2,a0,a2
    2484:	bac43423          	sd	a2,-1112(s0)
    2488:	02b98533          	mul	a0,s3,a1
    248c:	bb043603          	ld	a2,-1104(s0)
    2490:	00c50633          	add	a2,a0,a2
    2494:	bac43823          	sd	a2,-1104(s0)
    2498:	eb043783          	ld	a5,-336(s0)
    249c:	02f98533          	mul	a0,s3,a5
    24a0:	bb843603          	ld	a2,-1096(s0)
    24a4:	00c50633          	add	a2,a0,a2
    24a8:	bac43c23          	sd	a2,-1096(s0)
    24ac:	02e98533          	mul	a0,s3,a4
    24b0:	bc043603          	ld	a2,-1088(s0)
    24b4:	00c50633          	add	a2,a0,a2
    24b8:	bcc43023          	sd	a2,-1088(s0)
    24bc:	e9843503          	ld	a0,-360(s0)
    24c0:	02a98533          	mul	a0,s3,a0
    24c4:	bc843603          	ld	a2,-1080(s0)
    24c8:	00c50633          	add	a2,a0,a2
    24cc:	bcc43423          	sd	a2,-1080(s0)
    24d0:	03998533          	mul	a0,s3,s9
    24d4:	bd043603          	ld	a2,-1072(s0)
    24d8:	00c50633          	add	a2,a0,a2
    24dc:	bcc43823          	sd	a2,-1072(s0)
    24e0:	03898533          	mul	a0,s3,s8
    24e4:	bd843603          	ld	a2,-1064(s0)
    24e8:	00c50633          	add	a2,a0,a2
    24ec:	bcc43c23          	sd	a2,-1064(s0)
    24f0:	03798533          	mul	a0,s3,s7
    24f4:	be043603          	ld	a2,-1056(s0)
    24f8:	00c50633          	add	a2,a0,a2
    24fc:	bec43023          	sd	a2,-1056(s0)
    2500:	000f8693          	mv	a3,t6
    2504:	03f98533          	mul	a0,s3,t6
    2508:	be843603          	ld	a2,-1048(s0)
    250c:	00c50633          	add	a2,a0,a2
    2510:	bec43423          	sd	a2,-1048(s0)
    2514:	00008593          	mv	a1,ra
    2518:	02198533          	mul	a0,s3,ra
    251c:	bf043603          	ld	a2,-1040(s0)
    2520:	00c50633          	add	a2,a0,a2
    2524:	bec43823          	sd	a2,-1040(s0)
    2528:	e6843f83          	ld	t6,-408(s0)
    252c:	03f98533          	mul	a0,s3,t6
    2530:	bf843603          	ld	a2,-1032(s0)
    2534:	00c50633          	add	a2,a0,a2
    2538:	bec43c23          	sd	a2,-1032(s0)
    253c:	eb843c03          	ld	s8,-328(s0)
    2540:	03898533          	mul	a0,s3,s8
    2544:	c0043603          	ld	a2,-1024(s0)
    2548:	00c50633          	add	a2,a0,a2
    254c:	c0c43023          	sd	a2,-1024(s0)
    2550:	02698533          	mul	a0,s3,t1
    2554:	c0843603          	ld	a2,-1016(s0)
    2558:	00c50633          	add	a2,a0,a2
    255c:	c0c43423          	sd	a2,-1016(s0)
    2560:	ee043503          	ld	a0,-288(s0)
    2564:	02a98533          	mul	a0,s3,a0
    2568:	c1043603          	ld	a2,-1008(s0)
    256c:	00c50633          	add	a2,a0,a2
    2570:	c0c43823          	sd	a2,-1008(s0)
    2574:	ee843503          	ld	a0,-280(s0)
    2578:	02a98533          	mul	a0,s3,a0
    257c:	c1843603          	ld	a2,-1000(s0)
    2580:	00c50633          	add	a2,a0,a2
    2584:	c0c43c23          	sd	a2,-1000(s0)
    2588:	03c98533          	mul	a0,s3,t3
    258c:	c2043603          	ld	a2,-992(s0)
    2590:	00c50633          	add	a2,a0,a2
    2594:	c2c43023          	sd	a2,-992(s0)
    2598:	03598533          	mul	a0,s3,s5
    259c:	c2843603          	ld	a2,-984(s0)
    25a0:	00c50633          	add	a2,a0,a2
    25a4:	c2c43423          	sd	a2,-984(s0)
    25a8:	ea043a83          	ld	s5,-352(s0)
    25ac:	03598533          	mul	a0,s3,s5
    25b0:	c3043603          	ld	a2,-976(s0)
    25b4:	00c50633          	add	a2,a0,a2
    25b8:	c2c43823          	sd	a2,-976(s0)
    25bc:	03698533          	mul	a0,s3,s6
    25c0:	c3843603          	ld	a2,-968(s0)
    25c4:	00c50633          	add	a2,a0,a2
    25c8:	c2c43c23          	sd	a2,-968(s0)
    25cc:	ed043703          	ld	a4,-304(s0)
    25d0:	02e98533          	mul	a0,s3,a4
    25d4:	c4043603          	ld	a2,-960(s0)
    25d8:	00c50633          	add	a2,a0,a2
    25dc:	c4c43023          	sd	a2,-960(s0)
    25e0:	03498533          	mul	a0,s3,s4
    25e4:	c4843603          	ld	a2,-952(s0)
    25e8:	00c50633          	add	a2,a0,a2
    25ec:	c4c43423          	sd	a2,-952(s0)
    25f0:	02998533          	mul	a0,s3,s1
    25f4:	c5043603          	ld	a2,-944(s0)
    25f8:	00c50633          	add	a2,a0,a2
    25fc:	c4c43823          	sd	a2,-944(s0)
    2600:	03a98533          	mul	a0,s3,s10
    2604:	c5843603          	ld	a2,-936(s0)
    2608:	00c50633          	add	a2,a0,a2
    260c:	c4c43c23          	sd	a2,-936(s0)
    2610:	02598533          	mul	a0,s3,t0
    2614:	c6043603          	ld	a2,-928(s0)
    2618:	00c50633          	add	a2,a0,a2
    261c:	c6c43023          	sd	a2,-928(s0)
    2620:	e7843283          	ld	t0,-392(s0)
    2624:	02598533          	mul	a0,s3,t0
    2628:	c6843603          	ld	a2,-920(s0)
    262c:	00c50633          	add	a2,a0,a2
    2630:	c6c43423          	sd	a2,-920(s0)
    2634:	03e98533          	mul	a0,s3,t5
    2638:	c7043603          	ld	a2,-912(s0)
    263c:	00c50633          	add	a2,a0,a2
    2640:	c6c43823          	sd	a2,-912(s0)
    2644:	f8043503          	ld	a0,-128(s0)
    2648:	30050503          	lb	a0,768(a0)
    264c:	ea843b03          	ld	s6,-344(s0)
    2650:	03698db3          	mul	s11,s3,s6
    2654:	c7843603          	ld	a2,-904(s0)
    2658:	00cd8633          	add	a2,s11,a2
    265c:	c6c43c23          	sd	a2,-904(s0)
    2660:	031989b3          	mul	s3,s3,a7
    2664:	c8043603          	ld	a2,-896(s0)
    2668:	00c98633          	add	a2,s3,a2
    266c:	c8c43023          	sd	a2,-896(s0)
    2670:	03d509b3          	mul	s3,a0,t4
    2674:	ca043603          	ld	a2,-864(s0)
    2678:	00c98633          	add	a2,s3,a2
    267c:	cac43023          	sd	a2,-864(s0)
    2680:	030509b3          	mul	s3,a0,a6
    2684:	c9843603          	ld	a2,-872(s0)
    2688:	00c98633          	add	a2,s3,a2
    268c:	c8c43c23          	sd	a2,-872(s0)
    2690:	027509b3          	mul	s3,a0,t2
    2694:	c9043603          	ld	a2,-880(s0)
    2698:	00c98633          	add	a2,s3,a2
    269c:	c8c43823          	sd	a2,-880(s0)
    26a0:	032509b3          	mul	s3,a0,s2
    26a4:	c8843603          	ld	a2,-888(s0)
    26a8:	00c98633          	add	a2,s3,a2
    26ac:	c8c43423          	sd	a2,-888(s0)
    26b0:	f7843603          	ld	a2,-136(s0)
    26b4:	02c509b3          	mul	s3,a0,a2
    26b8:	ca843603          	ld	a2,-856(s0)
    26bc:	00c98633          	add	a2,s3,a2
    26c0:	cac43423          	sd	a2,-856(s0)
    26c4:	f7043603          	ld	a2,-144(s0)
    26c8:	02c509b3          	mul	s3,a0,a2
    26cc:	cb043603          	ld	a2,-848(s0)
    26d0:	00c98633          	add	a2,s3,a2
    26d4:	cac43823          	sd	a2,-848(s0)
    26d8:	02f509b3          	mul	s3,a0,a5
    26dc:	cb843603          	ld	a2,-840(s0)
    26e0:	00c98633          	add	a2,s3,a2
    26e4:	cac43c23          	sd	a2,-840(s0)
    26e8:	ed843603          	ld	a2,-296(s0)
    26ec:	02c509b3          	mul	s3,a0,a2
    26f0:	cc043603          	ld	a2,-832(s0)
    26f4:	00c98633          	add	a2,s3,a2
    26f8:	ccc43023          	sd	a2,-832(s0)
    26fc:	e9843083          	ld	ra,-360(s0)
    2700:	021509b3          	mul	s3,a0,ra
    2704:	cc843603          	ld	a2,-824(s0)
    2708:	00c98633          	add	a2,s3,a2
    270c:	ccc43423          	sd	a2,-824(s0)
    2710:	000c8d13          	mv	s10,s9
    2714:	039509b3          	mul	s3,a0,s9
    2718:	cd043603          	ld	a2,-816(s0)
    271c:	00c98633          	add	a2,s3,a2
    2720:	ccc43823          	sd	a2,-816(s0)
    2724:	e8843c83          	ld	s9,-376(s0)
    2728:	039509b3          	mul	s3,a0,s9
    272c:	cd843603          	ld	a2,-808(s0)
    2730:	00c98633          	add	a2,s3,a2
    2734:	ccc43c23          	sd	a2,-808(s0)
    2738:	037509b3          	mul	s3,a0,s7
    273c:	ce043603          	ld	a2,-800(s0)
    2740:	00c98633          	add	a2,s3,a2
    2744:	cec43023          	sd	a2,-800(s0)
    2748:	02d509b3          	mul	s3,a0,a3
    274c:	ce843603          	ld	a2,-792(s0)
    2750:	00c98633          	add	a2,s3,a2
    2754:	cec43423          	sd	a2,-792(s0)
    2758:	02b509b3          	mul	s3,a0,a1
    275c:	00058b93          	mv	s7,a1
    2760:	cf043603          	ld	a2,-784(s0)
    2764:	00c98633          	add	a2,s3,a2
    2768:	cec43823          	sd	a2,-784(s0)
    276c:	000f8a13          	mv	s4,t6
    2770:	03f509b3          	mul	s3,a0,t6
    2774:	cf843603          	ld	a2,-776(s0)
    2778:	00c98633          	add	a2,s3,a2
    277c:	cec43c23          	sd	a2,-776(s0)
    2780:	000c0e13          	mv	t3,s8
    2784:	038509b3          	mul	s3,a0,s8
    2788:	d0043603          	ld	a2,-768(s0)
    278c:	00c98633          	add	a2,s3,a2
    2790:	d0c43023          	sd	a2,-768(s0)
    2794:	00030c13          	mv	s8,t1
    2798:	026509b3          	mul	s3,a0,t1
    279c:	d0843603          	ld	a2,-760(s0)
    27a0:	00c98633          	add	a2,s3,a2
    27a4:	d0c43423          	sd	a2,-760(s0)
    27a8:	ee043383          	ld	t2,-288(s0)
    27ac:	027509b3          	mul	s3,a0,t2
    27b0:	d1043603          	ld	a2,-752(s0)
    27b4:	00c98633          	add	a2,s3,a2
    27b8:	d0c43823          	sd	a2,-752(s0)
    27bc:	ee843303          	ld	t1,-280(s0)
    27c0:	026509b3          	mul	s3,a0,t1
    27c4:	d1843603          	ld	a2,-744(s0)
    27c8:	00c98633          	add	a2,s3,a2
    27cc:	d0c43c23          	sd	a2,-744(s0)
    27d0:	ef843883          	ld	a7,-264(s0)
    27d4:	031509b3          	mul	s3,a0,a7
    27d8:	d2043603          	ld	a2,-736(s0)
    27dc:	00c98633          	add	a2,s3,a2
    27e0:	d2c43023          	sd	a2,-736(s0)
    27e4:	f0843803          	ld	a6,-248(s0)
    27e8:	030509b3          	mul	s3,a0,a6
    27ec:	d2843603          	ld	a2,-728(s0)
    27f0:	00c98633          	add	a2,s3,a2
    27f4:	d2c43423          	sd	a2,-728(s0)
    27f8:	000a8793          	mv	a5,s5
    27fc:	035509b3          	mul	s3,a0,s5
    2800:	d3043603          	ld	a2,-720(s0)
    2804:	00c98633          	add	a2,s3,a2
    2808:	d2c43823          	sd	a2,-720(s0)
    280c:	ec843683          	ld	a3,-312(s0)
    2810:	02d509b3          	mul	s3,a0,a3
    2814:	d3843603          	ld	a2,-712(s0)
    2818:	00c98633          	add	a2,s3,a2
    281c:	d2c43c23          	sd	a2,-712(s0)
    2820:	00070593          	mv	a1,a4
    2824:	02e509b3          	mul	s3,a0,a4
    2828:	d4043603          	ld	a2,-704(s0)
    282c:	00c98633          	add	a2,s3,a2
    2830:	d4c43023          	sd	a2,-704(s0)
    2834:	f6043f03          	ld	t5,-160(s0)
    2838:	03e509b3          	mul	s3,a0,t5
    283c:	d4843603          	ld	a2,-696(s0)
    2840:	00c98633          	add	a2,s3,a2
    2844:	d4c43423          	sd	a2,-696(s0)
    2848:	00048913          	mv	s2,s1
    284c:	029509b3          	mul	s3,a0,s1
    2850:	d5043603          	ld	a2,-688(s0)
    2854:	00c98633          	add	a2,s3,a2
    2858:	d4c43823          	sd	a2,-688(s0)
    285c:	f5043483          	ld	s1,-176(s0)
    2860:	029509b3          	mul	s3,a0,s1
    2864:	d5843603          	ld	a2,-680(s0)
    2868:	00c98633          	add	a2,s3,a2
    286c:	d4c43c23          	sd	a2,-680(s0)
    2870:	f6843a83          	ld	s5,-152(s0)
    2874:	035509b3          	mul	s3,a0,s5
    2878:	d6043603          	ld	a2,-672(s0)
    287c:	00c98633          	add	a2,s3,a2
    2880:	d6c43023          	sd	a2,-672(s0)
    2884:	025509b3          	mul	s3,a0,t0
    2888:	d6843603          	ld	a2,-664(s0)
    288c:	00c98633          	add	a2,s3,a2
    2890:	d6c43423          	sd	a2,-664(s0)
    2894:	ec043f83          	ld	t6,-320(s0)
    2898:	03f509b3          	mul	s3,a0,t6
    289c:	d7043603          	ld	a2,-656(s0)
    28a0:	00c98633          	add	a2,s3,a2
    28a4:	d6c43823          	sd	a2,-656(s0)
    28a8:	f8043603          	ld	a2,-128(s0)
    28ac:	48060983          	lb	s3,1152(a2)
    28b0:	03650db3          	mul	s11,a0,s6
    28b4:	d7843603          	ld	a2,-648(s0)
    28b8:	00cd8633          	add	a2,s11,a2
    28bc:	d6c43c23          	sd	a2,-648(s0)
    28c0:	e7043703          	ld	a4,-400(s0)
    28c4:	02e50533          	mul	a0,a0,a4
    28c8:	d8043603          	ld	a2,-640(s0)
    28cc:	00c50633          	add	a2,a0,a2
    28d0:	d8c43023          	sd	a2,-640(s0)
    28d4:	02e98533          	mul	a0,s3,a4
    28d8:	e6a43823          	sd	a0,-400(s0)
    28dc:	03698533          	mul	a0,s3,s6
    28e0:	eaa43423          	sd	a0,-344(s0)
    28e4:	03f98533          	mul	a0,s3,t6
    28e8:	eca43023          	sd	a0,-320(s0)
    28ec:	02598533          	mul	a0,s3,t0
    28f0:	e6a43c23          	sd	a0,-392(s0)
    28f4:	03598533          	mul	a0,s3,s5
    28f8:	00001637          	lui	a2,0x1
    28fc:	40c40633          	sub	a2,s0,a2
    2900:	66a63823          	sd	a0,1648(a2) # 1670 <.LBB69_5+0x250>
    2904:	02998533          	mul	a0,s3,s1
    2908:	f6a43423          	sd	a0,-152(s0)
    290c:	03298533          	mul	a0,s3,s2
    2910:	f4a43823          	sd	a0,-176(s0)
    2914:	03e98533          	mul	a0,s3,t5
    2918:	f6a43023          	sd	a0,-160(s0)
    291c:	02b98533          	mul	a0,s3,a1
    2920:	eca43823          	sd	a0,-304(s0)
    2924:	02d98933          	mul	s2,s3,a3
    2928:	02f984b3          	mul	s1,s3,a5
    292c:	03098fb3          	mul	t6,s3,a6
    2930:	03198f33          	mul	t5,s3,a7
    2934:	02698eb3          	mul	t4,s3,t1
    2938:	027982b3          	mul	t0,s3,t2
    293c:	03898833          	mul	a6,s3,s8
    2940:	03c983b3          	mul	t2,s3,t3
    2944:	03498a33          	mul	s4,s3,s4
    2948:	03798ab3          	mul	s5,s3,s7
    294c:	f5843503          	ld	a0,-168(s0)
    2950:	02a98b33          	mul	s6,s3,a0
    2954:	ef043503          	ld	a0,-272(s0)
    2958:	02a98bb3          	mul	s7,s3,a0
    295c:	03998c33          	mul	s8,s3,s9
    2960:	03a98cb3          	mul	s9,s3,s10
    2964:	02198d33          	mul	s10,s3,ra
    2968:	ed843503          	ld	a0,-296(s0)
    296c:	02a98db3          	mul	s11,s3,a0
    2970:	eb043503          	ld	a0,-336(s0)
    2974:	02a98733          	mul	a4,s3,a0
    2978:	f7043503          	ld	a0,-144(s0)
    297c:	02a980b3          	mul	ra,s3,a0
    2980:	f7843503          	ld	a0,-136(s0)
    2984:	02a986b3          	mul	a3,s3,a0
    2988:	f3843503          	ld	a0,-200(s0)
    298c:	02a98633          	mul	a2,s3,a0
    2990:	f4843503          	ld	a0,-184(s0)
    2994:	02a985b3          	mul	a1,s3,a0
    2998:	f4043503          	ld	a0,-192(s0)
    299c:	02a98533          	mul	a0,s3,a0
    29a0:	e8043783          	ld	a5,-384(s0)
    29a4:	02f989b3          	mul	s3,s3,a5
    29a8:	da043783          	ld	a5,-608(s0)
    29ac:	00f987b3          	add	a5,s3,a5
    29b0:	daf43023          	sd	a5,-608(s0)
    29b4:	e2043983          	ld	s3,-480(s0)
    29b8:	d9843783          	ld	a5,-616(s0)
    29bc:	00f507b3          	add	a5,a0,a5
    29c0:	d8f43c23          	sd	a5,-616(s0)
    29c4:	d9043503          	ld	a0,-624(s0)
    29c8:	00a58533          	add	a0,a1,a0
    29cc:	d8a43823          	sd	a0,-624(s0)
    29d0:	d8843503          	ld	a0,-632(s0)
    29d4:	00a60533          	add	a0,a2,a0
    29d8:	d8a43423          	sd	a0,-632(s0)
    29dc:	da843503          	ld	a0,-600(s0)
    29e0:	00a68533          	add	a0,a3,a0
    29e4:	daa43423          	sd	a0,-600(s0)
    29e8:	db043503          	ld	a0,-592(s0)
    29ec:	00a08533          	add	a0,ra,a0
    29f0:	daa43823          	sd	a0,-592(s0)
    29f4:	dd843083          	ld	ra,-552(s0)
    29f8:	db843503          	ld	a0,-584(s0)
    29fc:	00a70533          	add	a0,a4,a0
    2a00:	daa43c23          	sd	a0,-584(s0)
    2a04:	dc043503          	ld	a0,-576(s0)
    2a08:	00ad8533          	add	a0,s11,a0
    2a0c:	dca43023          	sd	a0,-576(s0)
    2a10:	de043d83          	ld	s11,-544(s0)
    2a14:	dc843503          	ld	a0,-568(s0)
    2a18:	00ad0533          	add	a0,s10,a0
    2a1c:	dca43423          	sd	a0,-568(s0)
    2a20:	de843d03          	ld	s10,-536(s0)
    2a24:	dd043503          	ld	a0,-560(s0)
    2a28:	00ac8533          	add	a0,s9,a0
    2a2c:	dca43823          	sd	a0,-560(s0)
    2a30:	df043c83          	ld	s9,-528(s0)
    2a34:	001c00b3          	add	ra,s8,ra
    2a38:	df843c03          	ld	s8,-520(s0)
    2a3c:	01bb8db3          	add	s11,s7,s11
    2a40:	e0043b83          	ld	s7,-512(s0)
    2a44:	01ab0d33          	add	s10,s6,s10
    2a48:	e0843b03          	ld	s6,-504(s0)
    2a4c:	019a8cb3          	add	s9,s5,s9
    2a50:	e1043a83          	ld	s5,-496(s0)
    2a54:	018a0c33          	add	s8,s4,s8
    2a58:	e1843a03          	ld	s4,-488(s0)
    2a5c:	01738bb3          	add	s7,t2,s7
    2a60:	e3043383          	ld	t2,-464(s0)
    2a64:	01680b33          	add	s6,a6,s6
    2a68:	e3843303          	ld	t1,-456(s0)
    2a6c:	01528ab3          	add	s5,t0,s5
    2a70:	e4043283          	ld	t0,-448(s0)
    2a74:	014e8a33          	add	s4,t4,s4
    2a78:	013f09b3          	add	s3,t5,s3
    2a7c:	e2843e03          	ld	t3,-472(s0)
    2a80:	f1043503          	ld	a0,-240(s0)
    2a84:	00af8533          	add	a0,t6,a0
    2a88:	f8843e83          	ld	t4,-120(s0)
    2a8c:	f0a43823          	sd	a0,-240(s0)
    2a90:	f1043703          	ld	a4,-240(s0)
    2a94:	f1843503          	ld	a0,-232(s0)
    2a98:	00a48533          	add	a0,s1,a0
    2a9c:	f8043f03          	ld	t5,-128(s0)
    2aa0:	f0a43c23          	sd	a0,-232(s0)
    2aa4:	f1843683          	ld	a3,-232(s0)
    2aa8:	f2043503          	ld	a0,-224(s0)
    2aac:	00a90533          	add	a0,s2,a0
    2ab0:	f2a43023          	sd	a0,-224(s0)
    2ab4:	f2043603          	ld	a2,-224(s0)
    2ab8:	f2843503          	ld	a0,-216(s0)
    2abc:	ed043583          	ld	a1,-304(s0)
    2ac0:	00a58533          	add	a0,a1,a0
    2ac4:	f2a43423          	sd	a0,-216(s0)
    2ac8:	f2843583          	ld	a1,-216(s0)
    2acc:	e5843883          	ld	a7,-424(s0)
    2ad0:	f3043503          	ld	a0,-208(s0)
    2ad4:	f6043783          	ld	a5,-160(s0)
    2ad8:	00a78533          	add	a0,a5,a0
    2adc:	f2a43823          	sd	a0,-208(s0)
    2ae0:	f3043503          	ld	a0,-208(s0)
    2ae4:	f5043783          	ld	a5,-176(s0)
    2ae8:	01c78e33          	add	t3,a5,t3
    2aec:	e4843803          	ld	a6,-440(s0)
    2af0:	f6843783          	ld	a5,-152(s0)
    2af4:	007783b3          	add	t2,a5,t2
    2af8:	000017b7          	lui	a5,0x1
    2afc:	40f407b3          	sub	a5,s0,a5
    2b00:	6807b783          	ld	a5,1664(a5) # 1680 <.LBB69_5+0x260>
    2b04:	00001fb7          	lui	t6,0x1
    2b08:	41f40fb3          	sub	t6,s0,t6
    2b0c:	670fbf83          	ld	t6,1648(t6) # 1670 <.LBB69_5+0x250>
    2b10:	006f8333          	add	t1,t6,t1
    2b14:	e7843f83          	ld	t6,-392(s0)
    2b18:	005f82b3          	add	t0,t6,t0
    2b1c:	ec043f83          	ld	t6,-320(s0)
    2b20:	010f8833          	add	a6,t6,a6
    2b24:	e5043f83          	ld	t6,-432(s0)
    2b28:	ea843483          	ld	s1,-344(s0)
    2b2c:	01f48fb3          	add	t6,s1,t6
    2b30:	e5f43823          	sd	t6,-432(s0)
    2b34:	e7043f83          	ld	t6,-400(s0)
    2b38:	011f88b3          	add	a7,t6,a7
    2b3c:	fff78793          	addi	a5,a5,-1
    2b40:	001f0f13          	addi	t5,t5,1
    2b44:	060e8e93          	addi	t4,t4,96
    2b48:	00078463          	beqz	a5,2b50 <.LBB69_6>
    2b4c:	8d5fe06f          	j	1420 <.LBB69_5>

0000000000002b50 <.LBB69_6>:
    2b50:	00001537          	lui	a0,0x1
    2b54:	40a40533          	sub	a0,s0,a0
    2b58:	6a053903          	ld	s2,1696(a0) # 16a0 <.LBB69_5+0x280>
    2b5c:	00001537          	lui	a0,0x1
    2b60:	40a40533          	sub	a0,s0,a0
    2b64:	69853483          	ld	s1,1688(a0) # 1698 <.LBB69_5+0x278>
    2b68:	00001537          	lui	a0,0x1
    2b6c:	40a40533          	sub	a0,s0,a0
    2b70:	69053f83          	ld	t6,1680(a0) # 1690 <.LBB69_5+0x270>
    2b74:	00001537          	lui	a0,0x1
    2b78:	40a40533          	sub	a0,s0,a0
    2b7c:	68853f03          	ld	t5,1672(a0) # 1688 <.LBB69_5+0x268>
    2b80:	00001537          	lui	a0,0x1
    2b84:	40a40533          	sub	a0,s0,a0
    2b88:	66053503          	ld	a0,1632(a0) # 1660 <.LBB69_5+0x240>
    2b8c:	00251513          	slli	a0,a0,0x2
    2b90:	000015b7          	lui	a1,0x1
    2b94:	40b405b3          	sub	a1,s0,a1
    2b98:	b605b603          	ld	a2,-1184(a1) # b60 <.LBB69_3+0x938>
    2b9c:	00a60633          	add	a2,a2,a0
    2ba0:	000015b7          	lui	a1,0x1
    2ba4:	40b405b3          	sub	a1,s0,a1
    2ba8:	b585b583          	ld	a1,-1192(a1) # b58 <.LBB69_3+0x930>
    2bac:	00a58533          	add	a0,a1,a0
    2bb0:	00c52683          	lw	a3,12(a0)
    2bb4:	00c62703          	lw	a4,12(a2)
    2bb8:	000015b7          	lui	a1,0x1
    2bbc:	40b405b3          	sub	a1,s0,a1
    2bc0:	6585b583          	ld	a1,1624(a1) # 1658 <.LBB69_5+0x238>
    2bc4:	0005a583          	lw	a1,0(a1)
    2bc8:	00769793          	slli	a5,a3,0x7
    2bcc:	eae43823          	sd	a4,-336(s0)
    2bd0:	000016b7          	lui	a3,0x1
    2bd4:	40d406b3          	sub	a3,s0,a3
    2bd8:	6a86b683          	ld	a3,1704(a3) # 16a8 <.LBB69_5+0x288>
    2bdc:	00e686b3          	add	a3,a3,a4
    2be0:	eaf43423          	sd	a5,-344(s0)
    2be4:	00f686b3          	add	a3,a3,a5
    2be8:	ffff47b7          	lui	a5,0xffff4
    2bec:	40f5873b          	subw	a4,a1,a5
    2bf0:	40e6873b          	subw	a4,a3,a4
    2bf4:	400006b7          	lui	a3,0x40000
    2bf8:	00001eb7          	lui	t4,0x1
    2bfc:	41d40eb3          	sub	t4,s0,t4
    2c00:	68deb023          	sd	a3,1664(t4) # 1680 <.LBB69_5+0x260>
    2c04:	00001eb7          	lui	t4,0x1
    2c08:	41d40eb3          	sub	t4,s0,t4
    2c0c:	66eebc23          	sd	a4,1656(t4) # 1678 <.LBB69_5+0x258>
    2c10:	00075463          	bgez	a4,2c18 <.LBB69_8>
    2c14:	c00006b7          	lui	a3,0xc0000

0000000000002c18 <.LBB69_8>:
    2c18:	00001737          	lui	a4,0x1
    2c1c:	40e40733          	sub	a4,s0,a4
    2c20:	66d73823          	sd	a3,1648(a4) # 1670 <.LBB69_5+0x250>
    2c24:	00852683          	lw	a3,8(a0)
    2c28:	00862703          	lw	a4,8(a2)
    2c2c:	00769e93          	slli	t4,a3,0x7
    2c30:	eae43023          	sd	a4,-352(s0)
    2c34:	00e906b3          	add	a3,s2,a4
    2c38:	e9d43c23          	sd	t4,-360(s0)
    2c3c:	01d686b3          	add	a3,a3,t4
    2c40:	40f5873b          	subw	a4,a1,a5
    2c44:	40e686bb          	subw	a3,a3,a4
    2c48:	40000737          	lui	a4,0x40000
    2c4c:	00001eb7          	lui	t4,0x1
    2c50:	41d40eb3          	sub	t4,s0,t4
    2c54:	64deb423          	sd	a3,1608(t4) # 1648 <.LBB69_5+0x228>
    2c58:	00001eb7          	lui	t4,0x1
    2c5c:	41d40eb3          	sub	t4,s0,t4
    2c60:	6b0eb903          	ld	s2,1712(t4) # 16b0 <.LBB69_5+0x290>
    2c64:	0006d463          	bgez	a3,2c6c <.LBB69_10>
    2c68:	c0000737          	lui	a4,0xc0000

0000000000002c6c <.LBB69_10>:
    2c6c:	000016b7          	lui	a3,0x1
    2c70:	40d406b3          	sub	a3,s0,a3
    2c74:	64e6b023          	sd	a4,1600(a3) # 1640 <.LBB69_5+0x220>
    2c78:	00452683          	lw	a3,4(a0)
    2c7c:	00462703          	lw	a4,4(a2)
    2c80:	00769e93          	slli	t4,a3,0x7
    2c84:	e8e43823          	sd	a4,-368(s0)
    2c88:	000016b7          	lui	a3,0x1
    2c8c:	40d406b3          	sub	a3,s0,a3
    2c90:	6b86b683          	ld	a3,1720(a3) # 16b8 <.LBB69_5+0x298>
    2c94:	00e686b3          	add	a3,a3,a4
    2c98:	e9d43423          	sd	t4,-376(s0)
    2c9c:	01d686b3          	add	a3,a3,t4
    2ca0:	40f5873b          	subw	a4,a1,a5
    2ca4:	40e686bb          	subw	a3,a3,a4
    2ca8:	40000737          	lui	a4,0x40000
    2cac:	00001eb7          	lui	t4,0x1
    2cb0:	41d40eb3          	sub	t4,s0,t4
    2cb4:	62debc23          	sd	a3,1592(t4) # 1638 <.LBB69_5+0x218>
    2cb8:	0006d463          	bgez	a3,2cc0 <.LBB69_12>
    2cbc:	c0000737          	lui	a4,0xc0000

0000000000002cc0 <.LBB69_12>:
    2cc0:	000016b7          	lui	a3,0x1
    2cc4:	40d406b3          	sub	a3,s0,a3
    2cc8:	62e6b823          	sd	a4,1584(a3) # 1630 <.LBB69_5+0x210>
    2ccc:	00052683          	lw	a3,0(a0)
    2cd0:	00062703          	lw	a4,0(a2)
    2cd4:	00769e93          	slli	t4,a3,0x7
    2cd8:	e8e43023          	sd	a4,-384(s0)
    2cdc:	000016b7          	lui	a3,0x1
    2ce0:	40d406b3          	sub	a3,s0,a3
    2ce4:	6c06b683          	ld	a3,1728(a3) # 16c0 <.LBB69_5+0x2a0>
    2ce8:	00e686b3          	add	a3,a3,a4
    2cec:	e7d43c23          	sd	t4,-392(s0)
    2cf0:	01d686b3          	add	a3,a3,t4
    2cf4:	40f5873b          	subw	a4,a1,a5
    2cf8:	40e686bb          	subw	a3,a3,a4
    2cfc:	40000737          	lui	a4,0x40000
    2d00:	00001eb7          	lui	t4,0x1
    2d04:	41d40eb3          	sub	t4,s0,t4
    2d08:	62deb423          	sd	a3,1576(t4) # 1628 <.LBB69_5+0x208>
    2d0c:	0006d463          	bgez	a3,2d14 <.LBB69_14>
    2d10:	c0000737          	lui	a4,0xc0000

0000000000002d14 <.LBB69_14>:
    2d14:	000016b7          	lui	a3,0x1
    2d18:	40d406b3          	sub	a3,s0,a3
    2d1c:	62e6b023          	sd	a4,1568(a3) # 1620 <.LBB69_5+0x200>
    2d20:	01052683          	lw	a3,16(a0)
    2d24:	01062703          	lw	a4,16(a2)
    2d28:	00769e93          	slli	t4,a3,0x7
    2d2c:	e6e43823          	sd	a4,-400(s0)
    2d30:	000016b7          	lui	a3,0x1
    2d34:	40d406b3          	sub	a3,s0,a3
    2d38:	6c86b683          	ld	a3,1736(a3) # 16c8 <.LBB69_5+0x2a8>
    2d3c:	00e686b3          	add	a3,a3,a4
    2d40:	e7d43423          	sd	t4,-408(s0)
    2d44:	01d686b3          	add	a3,a3,t4
    2d48:	40f5873b          	subw	a4,a1,a5
    2d4c:	40e686bb          	subw	a3,a3,a4
    2d50:	40000737          	lui	a4,0x40000
    2d54:	00001eb7          	lui	t4,0x1
    2d58:	41d40eb3          	sub	t4,s0,t4
    2d5c:	60debc23          	sd	a3,1560(t4) # 1618 <.LBB69_5+0x1f8>
    2d60:	0006d463          	bgez	a3,2d68 <.LBB69_16>
    2d64:	c0000737          	lui	a4,0xc0000

0000000000002d68 <.LBB69_16>:
    2d68:	000016b7          	lui	a3,0x1
    2d6c:	40d406b3          	sub	a3,s0,a3
    2d70:	60e6b823          	sd	a4,1552(a3) # 1610 <.LBB69_5+0x1f0>
    2d74:	01452683          	lw	a3,20(a0)
    2d78:	01462703          	lw	a4,20(a2)
    2d7c:	00769e93          	slli	t4,a3,0x7
    2d80:	000016b7          	lui	a3,0x1
    2d84:	40d406b3          	sub	a3,s0,a3
    2d88:	6ce6b423          	sd	a4,1736(a3) # 16c8 <.LBB69_5+0x2a8>
    2d8c:	00e906b3          	add	a3,s2,a4
    2d90:	00001737          	lui	a4,0x1
    2d94:	40e40733          	sub	a4,s0,a4
    2d98:	6dd73023          	sd	t4,1728(a4) # 16c0 <.LBB69_5+0x2a0>
    2d9c:	01d686b3          	add	a3,a3,t4
    2da0:	40f5873b          	subw	a4,a1,a5
    2da4:	40e686bb          	subw	a3,a3,a4
    2da8:	40000737          	lui	a4,0x40000
    2dac:	00001eb7          	lui	t4,0x1
    2db0:	41d40eb3          	sub	t4,s0,t4
    2db4:	60deb423          	sd	a3,1544(t4) # 1608 <.LBB69_5+0x1e8>
    2db8:	0006d463          	bgez	a3,2dc0 <.LBB69_18>
    2dbc:	c0000737          	lui	a4,0xc0000

0000000000002dc0 <.LBB69_18>:
    2dc0:	000016b7          	lui	a3,0x1
    2dc4:	40d406b3          	sub	a3,s0,a3
    2dc8:	60e6b023          	sd	a4,1536(a3) # 1600 <.LBB69_5+0x1e0>
    2dcc:	01852683          	lw	a3,24(a0)
    2dd0:	01862703          	lw	a4,24(a2)
    2dd4:	00769e93          	slli	t4,a3,0x7
    2dd8:	000016b7          	lui	a3,0x1
    2ddc:	40d406b3          	sub	a3,s0,a3
    2de0:	6ae6bc23          	sd	a4,1720(a3) # 16b8 <.LBB69_5+0x298>
    2de4:	00e486b3          	add	a3,s1,a4
    2de8:	00001737          	lui	a4,0x1
    2dec:	40e40733          	sub	a4,s0,a4
    2df0:	6bd73823          	sd	t4,1712(a4) # 16b0 <.LBB69_5+0x290>
    2df4:	01d686b3          	add	a3,a3,t4
    2df8:	40f5873b          	subw	a4,a1,a5
    2dfc:	40e686bb          	subw	a3,a3,a4
    2e00:	40000737          	lui	a4,0x40000
    2e04:	00001eb7          	lui	t4,0x1
    2e08:	41d40eb3          	sub	t4,s0,t4
    2e0c:	5edebc23          	sd	a3,1528(t4) # 15f8 <.LBB69_5+0x1d8>
    2e10:	0006d463          	bgez	a3,2e18 <.LBB69_20>
    2e14:	c0000737          	lui	a4,0xc0000

0000000000002e18 <.LBB69_20>:
    2e18:	000016b7          	lui	a3,0x1
    2e1c:	40d406b3          	sub	a3,s0,a3
    2e20:	5ee6b823          	sd	a4,1520(a3) # 15f0 <.LBB69_5+0x1d0>
    2e24:	01c52683          	lw	a3,28(a0)
    2e28:	01c62703          	lw	a4,28(a2)
    2e2c:	00769e93          	slli	t4,a3,0x7
    2e30:	000016b7          	lui	a3,0x1
    2e34:	40d406b3          	sub	a3,s0,a3
    2e38:	6ae6b423          	sd	a4,1704(a3) # 16a8 <.LBB69_5+0x288>
    2e3c:	00ef86b3          	add	a3,t6,a4
    2e40:	00001737          	lui	a4,0x1
    2e44:	40e40733          	sub	a4,s0,a4
    2e48:	6bd73023          	sd	t4,1696(a4) # 16a0 <.LBB69_5+0x280>
    2e4c:	01d686b3          	add	a3,a3,t4
    2e50:	40f5873b          	subw	a4,a1,a5
    2e54:	40e686bb          	subw	a3,a3,a4
    2e58:	40000737          	lui	a4,0x40000
    2e5c:	00001eb7          	lui	t4,0x1
    2e60:	41d40eb3          	sub	t4,s0,t4
    2e64:	5edeb423          	sd	a3,1512(t4) # 15e8 <.LBB69_5+0x1c8>
    2e68:	0006d463          	bgez	a3,2e70 <.LBB69_22>
    2e6c:	c0000737          	lui	a4,0xc0000

0000000000002e70 <.LBB69_22>:
    2e70:	000016b7          	lui	a3,0x1
    2e74:	40d406b3          	sub	a3,s0,a3
    2e78:	5ee6b023          	sd	a4,1504(a3) # 15e0 <.LBB69_5+0x1c0>
    2e7c:	dc143c23          	sd	ra,-552(s0)
    2e80:	dfb43023          	sd	s11,-544(s0)
    2e84:	dfa43423          	sd	s10,-536(s0)
    2e88:	df943823          	sd	s9,-528(s0)
    2e8c:	df843c23          	sd	s8,-520(s0)
    2e90:	e1743023          	sd	s7,-512(s0)
    2e94:	e1643423          	sd	s6,-504(s0)
    2e98:	e1543823          	sd	s5,-496(s0)
    2e9c:	e1443c23          	sd	s4,-488(s0)
    2ea0:	e3343023          	sd	s3,-480(s0)
    2ea4:	e3c43423          	sd	t3,-472(s0)
    2ea8:	e2743823          	sd	t2,-464(s0)
    2eac:	e2643c23          	sd	t1,-456(s0)
    2eb0:	e4543023          	sd	t0,-448(s0)
    2eb4:	e5043423          	sd	a6,-440(s0)
    2eb8:	e5143c23          	sd	a7,-424(s0)
    2ebc:	02052683          	lw	a3,32(a0)
    2ec0:	02062703          	lw	a4,32(a2)
    2ec4:	00769813          	slli	a6,a3,0x7
    2ec8:	000016b7          	lui	a3,0x1
    2ecc:	40d406b3          	sub	a3,s0,a3
    2ed0:	68e6bc23          	sd	a4,1688(a3) # 1698 <.LBB69_5+0x278>
    2ed4:	00ef06b3          	add	a3,t5,a4
    2ed8:	00001737          	lui	a4,0x1
    2edc:	40e40733          	sub	a4,s0,a4
    2ee0:	69073823          	sd	a6,1680(a4) # 1690 <.LBB69_5+0x270>
    2ee4:	010686b3          	add	a3,a3,a6
    2ee8:	ffff48b7          	lui	a7,0xffff4
    2eec:	40f5873b          	subw	a4,a1,a5
    2ef0:	40e686bb          	subw	a3,a3,a4
    2ef4:	40000737          	lui	a4,0x40000
    2ef8:	000017b7          	lui	a5,0x1
    2efc:	40f407b3          	sub	a5,s0,a5
    2f00:	5cd7bc23          	sd	a3,1496(a5) # 15d8 <.LBB69_5+0x1b8>
    2f04:	0006d463          	bgez	a3,2f0c <.LBB69_24>
    2f08:	c0000737          	lui	a4,0xc0000

0000000000002f0c <.LBB69_24>:
    2f0c:	000016b7          	lui	a3,0x1
    2f10:	40d406b3          	sub	a3,s0,a3
    2f14:	5ce6b823          	sd	a4,1488(a3) # 15d0 <.LBB69_5+0x1b0>
    2f18:	07c62683          	lw	a3,124(a2)
    2f1c:	f8d43423          	sd	a3,-120(s0)
    2f20:	07862683          	lw	a3,120(a2)
    2f24:	f8d43023          	sd	a3,-128(s0)
    2f28:	07462683          	lw	a3,116(a2)
    2f2c:	f6d43c23          	sd	a3,-136(s0)
    2f30:	07062683          	lw	a3,112(a2)
    2f34:	f6d43823          	sd	a3,-144(s0)
    2f38:	06c62683          	lw	a3,108(a2)
    2f3c:	f6d43423          	sd	a3,-152(s0)
    2f40:	06862683          	lw	a3,104(a2)
    2f44:	f6d43023          	sd	a3,-160(s0)
    2f48:	06462683          	lw	a3,100(a2)
    2f4c:	f4d43c23          	sd	a3,-168(s0)
    2f50:	06062683          	lw	a3,96(a2)
    2f54:	f4d43823          	sd	a3,-176(s0)
    2f58:	05c62683          	lw	a3,92(a2)
    2f5c:	f4d43423          	sd	a3,-184(s0)
    2f60:	05862683          	lw	a3,88(a2)
    2f64:	f4d43023          	sd	a3,-192(s0)
    2f68:	05462683          	lw	a3,84(a2)
    2f6c:	f2d43c23          	sd	a3,-200(s0)
    2f70:	05062683          	lw	a3,80(a2)
    2f74:	f0d43423          	sd	a3,-248(s0)
    2f78:	04c62683          	lw	a3,76(a2)
    2f7c:	f0d43023          	sd	a3,-256(s0)
    2f80:	04862683          	lw	a3,72(a2)
    2f84:	eed43c23          	sd	a3,-264(s0)
    2f88:	04462683          	lw	a3,68(a2)
    2f8c:	eed43823          	sd	a3,-272(s0)
    2f90:	04062683          	lw	a3,64(a2)
    2f94:	eed43423          	sd	a3,-280(s0)
    2f98:	03c62683          	lw	a3,60(a2)
    2f9c:	eed43023          	sd	a3,-288(s0)
    2fa0:	03862683          	lw	a3,56(a2)
    2fa4:	ecd43c23          	sd	a3,-296(s0)
    2fa8:	03462683          	lw	a3,52(a2)
    2fac:	ecd43823          	sd	a3,-304(s0)
    2fb0:	03062683          	lw	a3,48(a2)
    2fb4:	ecd43423          	sd	a3,-312(s0)
    2fb8:	02c62683          	lw	a3,44(a2)
    2fbc:	ecd43023          	sd	a3,-320(s0)
    2fc0:	02862683          	lw	a3,40(a2)
    2fc4:	ead43c23          	sd	a3,-328(s0)
    2fc8:	02462603          	lw	a2,36(a2)
    2fcc:	07c52683          	lw	a3,124(a0)
    2fd0:	00001737          	lui	a4,0x1
    2fd4:	40e40733          	sub	a4,s0,a4
    2fd8:	5cd73423          	sd	a3,1480(a4) # 15c8 <.LBB69_5+0x1a8>
    2fdc:	07852683          	lw	a3,120(a0)
    2fe0:	00001737          	lui	a4,0x1
    2fe4:	40e40733          	sub	a4,s0,a4
    2fe8:	5cd73023          	sd	a3,1472(a4) # 15c0 <.LBB69_5+0x1a0>
    2fec:	07452683          	lw	a3,116(a0)
    2ff0:	00001737          	lui	a4,0x1
    2ff4:	40e40733          	sub	a4,s0,a4
    2ff8:	5ad73c23          	sd	a3,1464(a4) # 15b8 <.LBB69_5+0x198>
    2ffc:	07052283          	lw	t0,112(a0)
    3000:	06c52303          	lw	t1,108(a0)
    3004:	06852383          	lw	t2,104(a0)
    3008:	06452e03          	lw	t3,100(a0)
    300c:	06052e83          	lw	t4,96(a0)
    3010:	05c52f03          	lw	t5,92(a0)
    3014:	05852f83          	lw	t6,88(a0)
    3018:	05452483          	lw	s1,84(a0)
    301c:	05052903          	lw	s2,80(a0)
    3020:	04c52983          	lw	s3,76(a0)
    3024:	04852a03          	lw	s4,72(a0)
    3028:	04452a83          	lw	s5,68(a0)
    302c:	04052b03          	lw	s6,64(a0)
    3030:	03c52b83          	lw	s7,60(a0)
    3034:	03852c03          	lw	s8,56(a0)
    3038:	03452c83          	lw	s9,52(a0)
    303c:	02452703          	lw	a4,36(a0)
    3040:	03052d03          	lw	s10,48(a0)
    3044:	02c52d83          	lw	s11,44(a0)
    3048:	02852083          	lw	ra,40(a0)
    304c:	00771713          	slli	a4,a4,0x7
    3050:	00001537          	lui	a0,0x1
    3054:	40a40533          	sub	a0,s0,a0
    3058:	68c53423          	sd	a2,1672(a0) # 1688 <.LBB69_5+0x268>
    305c:	00001537          	lui	a0,0x1
    3060:	40a40533          	sub	a0,s0,a0
    3064:	6d053503          	ld	a0,1744(a0) # 16d0 <.LBB69_5+0x2b0>
    3068:	00c50533          	add	a0,a0,a2
    306c:	00001637          	lui	a2,0x1
    3070:	40c40633          	sub	a2,s0,a2
    3074:	6ce63823          	sd	a4,1744(a2) # 16d0 <.LBB69_5+0x2b0>
    3078:	00e50533          	add	a0,a0,a4
    307c:	00001637          	lui	a2,0x1
    3080:	40c40633          	sub	a2,s0,a2
    3084:	65863603          	ld	a2,1624(a2) # 1658 <.LBB69_5+0x238>
    3088:	01c62683          	lw	a3,28(a2)
    308c:	00001737          	lui	a4,0x1
    3090:	40e40733          	sub	a4,s0,a4
    3094:	14d73423          	sd	a3,328(a4) # 1148 <.LBB69_4+0x2cc>
    3098:	01862683          	lw	a3,24(a2)
    309c:	00001737          	lui	a4,0x1
    30a0:	40e40733          	sub	a4,s0,a4
    30a4:	3cd73023          	sd	a3,960(a4) # 13c0 <.LBB69_4+0x544>
    30a8:	01462683          	lw	a3,20(a2)
    30ac:	00001737          	lui	a4,0x1
    30b0:	40e40733          	sub	a4,s0,a4
    30b4:	5ad73423          	sd	a3,1448(a4) # 15a8 <.LBB69_5+0x188>
    30b8:	01062703          	lw	a4,16(a2)
    30bc:	00c62783          	lw	a5,12(a2)
    30c0:	00862803          	lw	a6,8(a2)
    30c4:	00462603          	lw	a2,4(a2)
    30c8:	411586bb          	subw	a3,a1,a7
    30cc:	40d5053b          	subw	a0,a0,a3
    30d0:	400006b7          	lui	a3,0x40000
    30d4:	000018b7          	lui	a7,0x1
    30d8:	411408b3          	sub	a7,s0,a7
    30dc:	5aa8b023          	sd	a0,1440(a7) # 15a0 <.LBB69_5+0x180>
    30e0:	00055463          	bgez	a0,30e8 <.LBB69_26>
    30e4:	c00006b7          	lui	a3,0xc0000

00000000000030e8 <.LBB69_26>:
    30e8:	00001537          	lui	a0,0x1
    30ec:	40a40533          	sub	a0,s0,a0
    30f0:	58d53c23          	sd	a3,1432(a0) # 1598 <.LBB69_5+0x178>
    30f4:	00709093          	slli	ra,ra,0x7
    30f8:	eb843503          	ld	a0,-328(s0)
    30fc:	000016b7          	lui	a3,0x1
    3100:	40d406b3          	sub	a3,s0,a3
    3104:	6d86b683          	ld	a3,1752(a3) # 16d8 <.LBB69_5+0x2b8>
    3108:	00a68533          	add	a0,a3,a0
    310c:	000016b7          	lui	a3,0x1
    3110:	40d406b3          	sub	a3,s0,a3
    3114:	6c16bc23          	sd	ra,1752(a3) # 16d8 <.LBB69_5+0x2b8>
    3118:	00150533          	add	a0,a0,ra
    311c:	ffff40b7          	lui	ra,0xffff4
    3120:	401586bb          	subw	a3,a1,ra
    3124:	40d5053b          	subw	a0,a0,a3
    3128:	400006b7          	lui	a3,0x40000
    312c:	000018b7          	lui	a7,0x1
    3130:	411408b3          	sub	a7,s0,a7
    3134:	54a8b423          	sd	a0,1352(a7) # 1548 <.LBB69_5+0x128>
    3138:	000018b7          	lui	a7,0x1
    313c:	411408b3          	sub	a7,s0,a7
    3140:	7088b883          	ld	a7,1800(a7) # 1708 <.LBB69_5+0x2e8>
    3144:	00055463          	bgez	a0,314c <.LBB69_28>
    3148:	c00006b7          	lui	a3,0xc0000

000000000000314c <.LBB69_28>:
    314c:	f8c43823          	sd	a2,-112(s0)
    3150:	00001537          	lui	a0,0x1
    3154:	40a40533          	sub	a0,s0,a0
    3158:	50d53c23          	sd	a3,1304(a0) # 1518 <.LBB69_5+0xf8>
    315c:	007d9693          	slli	a3,s11,0x7
    3160:	ec043503          	ld	a0,-320(s0)
    3164:	00001637          	lui	a2,0x1
    3168:	40c40633          	sub	a2,s0,a2
    316c:	6e063d83          	ld	s11,1760(a2) # 16e0 <.LBB69_5+0x2c0>
    3170:	00ad8533          	add	a0,s11,a0
    3174:	00068d93          	mv	s11,a3
    3178:	00d50533          	add	a0,a0,a3
    317c:	401586bb          	subw	a3,a1,ra
    3180:	40d5053b          	subw	a0,a0,a3
    3184:	400006b7          	lui	a3,0x40000
    3188:	00001637          	lui	a2,0x1
    318c:	40c40633          	sub	a2,s0,a2
    3190:	4ea63423          	sd	a0,1256(a2) # 14e8 <.LBB69_5+0xc8>
    3194:	f9043603          	ld	a2,-112(s0)
    3198:	00055463          	bgez	a0,31a0 <.LBB69_30>
    319c:	c00006b7          	lui	a3,0xc0000

00000000000031a0 <.LBB69_30>:
    31a0:	f8c43823          	sd	a2,-112(s0)
    31a4:	00001537          	lui	a0,0x1
    31a8:	40a40533          	sub	a0,s0,a0
    31ac:	4cd53023          	sd	a3,1216(a0) # 14c0 <.LBB69_5+0xa0>
    31b0:	007d1693          	slli	a3,s10,0x7
    31b4:	ec843503          	ld	a0,-312(s0)
    31b8:	00001637          	lui	a2,0x1
    31bc:	40c40633          	sub	a2,s0,a2
    31c0:	6e863d03          	ld	s10,1768(a2) # 16e8 <.LBB69_5+0x2c8>
    31c4:	00ad0533          	add	a0,s10,a0
    31c8:	00068d13          	mv	s10,a3
    31cc:	00d50533          	add	a0,a0,a3
    31d0:	401586bb          	subw	a3,a1,ra
    31d4:	40d5053b          	subw	a0,a0,a3
    31d8:	400006b7          	lui	a3,0x40000
    31dc:	00001637          	lui	a2,0x1
    31e0:	40c40633          	sub	a2,s0,a2
    31e4:	46a63823          	sd	a0,1136(a2) # 1470 <.LBB69_5+0x50>
    31e8:	f9043603          	ld	a2,-112(s0)
    31ec:	00055463          	bgez	a0,31f4 <.LBB69_32>
    31f0:	c00006b7          	lui	a3,0xc0000

00000000000031f4 <.LBB69_32>:
    31f4:	f8c43823          	sd	a2,-112(s0)
    31f8:	00001537          	lui	a0,0x1
    31fc:	40a40533          	sub	a0,s0,a0
    3200:	44d53023          	sd	a3,1088(a0) # 1440 <.LBB69_5+0x20>
    3204:	007c9693          	slli	a3,s9,0x7
    3208:	ed043503          	ld	a0,-304(s0)
    320c:	00001637          	lui	a2,0x1
    3210:	40c40633          	sub	a2,s0,a2
    3214:	6f063c83          	ld	s9,1776(a2) # 16f0 <.LBB69_5+0x2d0>
    3218:	00ac8533          	add	a0,s9,a0
    321c:	00068c93          	mv	s9,a3
    3220:	00d50533          	add	a0,a0,a3
    3224:	401586bb          	subw	a3,a1,ra
    3228:	40d5053b          	subw	a0,a0,a3
    322c:	400006b7          	lui	a3,0x40000
    3230:	00001637          	lui	a2,0x1
    3234:	40c40633          	sub	a2,s0,a2
    3238:	3ea63823          	sd	a0,1008(a2) # 13f0 <.LBB69_4+0x574>
    323c:	f9043603          	ld	a2,-112(s0)
    3240:	00055463          	bgez	a0,3248 <.LBB69_34>
    3244:	c00006b7          	lui	a3,0xc0000

0000000000003248 <.LBB69_34>:
    3248:	f8c43823          	sd	a2,-112(s0)
    324c:	00001537          	lui	a0,0x1
    3250:	40a40533          	sub	a0,s0,a0
    3254:	3ed53423          	sd	a3,1000(a0) # 13e8 <.LBB69_4+0x56c>
    3258:	007c1693          	slli	a3,s8,0x7
    325c:	ed843503          	ld	a0,-296(s0)
    3260:	00001637          	lui	a2,0x1
    3264:	40c40633          	sub	a2,s0,a2
    3268:	6f863c03          	ld	s8,1784(a2) # 16f8 <.LBB69_5+0x2d8>
    326c:	00ac0533          	add	a0,s8,a0
    3270:	00068c13          	mv	s8,a3
    3274:	00d50533          	add	a0,a0,a3
    3278:	401586bb          	subw	a3,a1,ra
    327c:	40d5053b          	subw	a0,a0,a3
    3280:	400006b7          	lui	a3,0x40000
    3284:	00001637          	lui	a2,0x1
    3288:	40c40633          	sub	a2,s0,a2
    328c:	38a63423          	sd	a0,904(a2) # 1388 <.LBB69_4+0x50c>
    3290:	f9043603          	ld	a2,-112(s0)
    3294:	00055463          	bgez	a0,329c <.LBB69_36>
    3298:	c00006b7          	lui	a3,0xc0000

000000000000329c <.LBB69_36>:
    329c:	f8c43823          	sd	a2,-112(s0)
    32a0:	00001537          	lui	a0,0x1
    32a4:	40a40533          	sub	a0,s0,a0
    32a8:	38d53023          	sd	a3,896(a0) # 1380 <.LBB69_4+0x504>
    32ac:	007b9693          	slli	a3,s7,0x7
    32b0:	ee043503          	ld	a0,-288(s0)
    32b4:	00001637          	lui	a2,0x1
    32b8:	40c40633          	sub	a2,s0,a2
    32bc:	70063b83          	ld	s7,1792(a2) # 1700 <.LBB69_5+0x2e0>
    32c0:	00ab8533          	add	a0,s7,a0
    32c4:	00068b93          	mv	s7,a3
    32c8:	00d50533          	add	a0,a0,a3
    32cc:	401586bb          	subw	a3,a1,ra
    32d0:	40d5053b          	subw	a0,a0,a3
    32d4:	400006b7          	lui	a3,0x40000
    32d8:	00001637          	lui	a2,0x1
    32dc:	40c40633          	sub	a2,s0,a2
    32e0:	32a63023          	sd	a0,800(a2) # 1320 <.LBB69_4+0x4a4>
    32e4:	f9043603          	ld	a2,-112(s0)
    32e8:	00055463          	bgez	a0,32f0 <.LBB69_38>
    32ec:	c00006b7          	lui	a3,0xc0000

00000000000032f0 <.LBB69_38>:
    32f0:	00001537          	lui	a0,0x1
    32f4:	40a40533          	sub	a0,s0,a0
    32f8:	30d53c23          	sd	a3,792(a0) # 1318 <.LBB69_4+0x49c>
    32fc:	007b1693          	slli	a3,s6,0x7
    3300:	ee843503          	ld	a0,-280(s0)
    3304:	00a88533          	add	a0,a7,a0
    3308:	00068b13          	mv	s6,a3
    330c:	00d50533          	add	a0,a0,a3
    3310:	401586bb          	subw	a3,a1,ra
    3314:	40d5053b          	subw	a0,a0,a3
    3318:	400006b7          	lui	a3,0x40000
    331c:	000018b7          	lui	a7,0x1
    3320:	411408b3          	sub	a7,s0,a7
    3324:	2aa8bc23          	sd	a0,696(a7) # 12b8 <.LBB69_4+0x43c>
    3328:	97843883          	ld	a7,-1672(s0)
    332c:	00055463          	bgez	a0,3334 <.LBB69_40>
    3330:	c00006b7          	lui	a3,0xc0000

0000000000003334 <.LBB69_40>:
    3334:	f8c43823          	sd	a2,-112(s0)
    3338:	00001537          	lui	a0,0x1
    333c:	40a40533          	sub	a0,s0,a0
    3340:	2ad53823          	sd	a3,688(a0) # 12b0 <.LBB69_4+0x434>
    3344:	007a9693          	slli	a3,s5,0x7
    3348:	ef043503          	ld	a0,-272(s0)
    334c:	00001637          	lui	a2,0x1
    3350:	40c40633          	sub	a2,s0,a2
    3354:	71063a83          	ld	s5,1808(a2) # 1710 <.LBB69_5+0x2f0>
    3358:	00aa8533          	add	a0,s5,a0
    335c:	00068a93          	mv	s5,a3
    3360:	00d50533          	add	a0,a0,a3
    3364:	401586bb          	subw	a3,a1,ra
    3368:	40d5053b          	subw	a0,a0,a3
    336c:	400006b7          	lui	a3,0x40000
    3370:	00001637          	lui	a2,0x1
    3374:	40c40633          	sub	a2,s0,a2
    3378:	24a63023          	sd	a0,576(a2) # 1240 <.LBB69_4+0x3c4>
    337c:	f9043603          	ld	a2,-112(s0)
    3380:	00055463          	bgez	a0,3388 <.LBB69_42>
    3384:	c00006b7          	lui	a3,0xc0000

0000000000003388 <.LBB69_42>:
    3388:	00001537          	lui	a0,0x1
    338c:	40a40533          	sub	a0,s0,a0
    3390:	22d53c23          	sd	a3,568(a0) # 1238 <.LBB69_4+0x3bc>
    3394:	007a1a13          	slli	s4,s4,0x7
    3398:	ef843503          	ld	a0,-264(s0)
    339c:	000016b7          	lui	a3,0x1
    33a0:	40d406b3          	sub	a3,s0,a3
    33a4:	7186b683          	ld	a3,1816(a3) # 1718 <.LBB69_5+0x2f8>
    33a8:	00a68533          	add	a0,a3,a0
    33ac:	000016b7          	lui	a3,0x1
    33b0:	40d406b3          	sub	a3,s0,a3
    33b4:	7146bc23          	sd	s4,1816(a3) # 1718 <.LBB69_5+0x2f8>
    33b8:	01450533          	add	a0,a0,s4
    33bc:	401586bb          	subw	a3,a1,ra
    33c0:	40d5053b          	subw	a0,a0,a3
    33c4:	400006b7          	lui	a3,0x40000
    33c8:	00001a37          	lui	s4,0x1
    33cc:	41440a33          	sub	s4,s0,s4
    33d0:	1caa3423          	sd	a0,456(s4) # 11c8 <.LBB69_4+0x34c>
    33d4:	00055463          	bgez	a0,33dc <.LBB69_44>
    33d8:	c00006b7          	lui	a3,0xc0000

00000000000033dc <.LBB69_44>:
    33dc:	00001537          	lui	a0,0x1
    33e0:	40a40533          	sub	a0,s0,a0
    33e4:	1cd53023          	sd	a3,448(a0) # 11c0 <.LBB69_4+0x344>
    33e8:	00799693          	slli	a3,s3,0x7
    33ec:	f0043503          	ld	a0,-256(s0)
    33f0:	000019b7          	lui	s3,0x1
    33f4:	413409b3          	sub	s3,s0,s3
    33f8:	7209b983          	ld	s3,1824(s3) # 1720 <.LBB69_5+0x300>
    33fc:	00a98533          	add	a0,s3,a0
    3400:	00068993          	mv	s3,a3
    3404:	00d50533          	add	a0,a0,a3
    3408:	401586bb          	subw	a3,a1,ra
    340c:	40d5053b          	subw	a0,a0,a3
    3410:	400006b7          	lui	a3,0x40000
    3414:	00001a37          	lui	s4,0x1
    3418:	41440a33          	sub	s4,s0,s4
    341c:	14aa3c23          	sd	a0,344(s4) # 1158 <.LBB69_4+0x2dc>
    3420:	00001a37          	lui	s4,0x1
    3424:	41440a33          	sub	s4,s0,s4
    3428:	728a3a03          	ld	s4,1832(s4) # 1728 <.LBB69_5+0x308>
    342c:	00055463          	bgez	a0,3434 <.LBB69_46>
    3430:	c00006b7          	lui	a3,0xc0000

0000000000003434 <.LBB69_46>:
    3434:	f8c43823          	sd	a2,-112(s0)
    3438:	00001537          	lui	a0,0x1
    343c:	40a40533          	sub	a0,s0,a0
    3440:	14d53823          	sd	a3,336(a0) # 1150 <.LBB69_4+0x2d4>
    3444:	00791693          	slli	a3,s2,0x7
    3448:	f0843503          	ld	a0,-248(s0)
    344c:	00aa0533          	add	a0,s4,a0
    3450:	00068913          	mv	s2,a3
    3454:	00d50533          	add	a0,a0,a3
    3458:	401586bb          	subw	a3,a1,ra
    345c:	40d5053b          	subw	a0,a0,a3
    3460:	400006b7          	lui	a3,0x40000
    3464:	97043a03          	ld	s4,-1680(s0)
    3468:	00001637          	lui	a2,0x1
    346c:	40c40633          	sub	a2,s0,a2
    3470:	0ca63c23          	sd	a0,216(a2) # 10d8 <.LBB69_4+0x25c>
    3474:	f9043603          	ld	a2,-112(s0)
    3478:	00055463          	bgez	a0,3480 <.LBB69_48>
    347c:	c00006b7          	lui	a3,0xc0000

0000000000003480 <.LBB69_48>:
    3480:	00001537          	lui	a0,0x1
    3484:	40a40533          	sub	a0,s0,a0
    3488:	0cd53823          	sd	a3,208(a0) # 10d0 <.LBB69_4+0x254>
    348c:	00749693          	slli	a3,s1,0x7
    3490:	f3843503          	ld	a0,-200(s0)
    3494:	000014b7          	lui	s1,0x1
    3498:	409404b3          	sub	s1,s0,s1
    349c:	7304b483          	ld	s1,1840(s1) # 1730 <.LBB69_5+0x310>
    34a0:	00a48533          	add	a0,s1,a0
    34a4:	000014b7          	lui	s1,0x1
    34a8:	409404b3          	sub	s1,s0,s1
    34ac:	72d4b823          	sd	a3,1840(s1) # 1730 <.LBB69_5+0x310>
    34b0:	00d50533          	add	a0,a0,a3
    34b4:	401586bb          	subw	a3,a1,ra
    34b8:	40d5053b          	subw	a0,a0,a3
    34bc:	400006b7          	lui	a3,0x40000
    34c0:	000014b7          	lui	s1,0x1
    34c4:	409404b3          	sub	s1,s0,s1
    34c8:	06a4b023          	sd	a0,96(s1) # 1060 <.LBB69_4+0x1e4>
    34cc:	00055463          	bgez	a0,34d4 <.LBB69_50>
    34d0:	c00006b7          	lui	a3,0xc0000

00000000000034d4 <.LBB69_50>:
    34d4:	00001537          	lui	a0,0x1
    34d8:	40a40533          	sub	a0,s0,a0
    34dc:	04d53c23          	sd	a3,88(a0) # 1058 <.LBB69_4+0x1dc>
    34e0:	007f9693          	slli	a3,t6,0x7
    34e4:	f4043503          	ld	a0,-192(s0)
    34e8:	00001fb7          	lui	t6,0x1
    34ec:	41f40fb3          	sub	t6,s0,t6
    34f0:	738fbf83          	ld	t6,1848(t6) # 1738 <.LBB69_5+0x318>
    34f4:	00af8533          	add	a0,t6,a0
    34f8:	00001fb7          	lui	t6,0x1
    34fc:	41f40fb3          	sub	t6,s0,t6
    3500:	72dfbc23          	sd	a3,1848(t6) # 1738 <.LBB69_5+0x318>
    3504:	00d50533          	add	a0,a0,a3
    3508:	401586bb          	subw	a3,a1,ra
    350c:	40d5053b          	subw	a0,a0,a3
    3510:	400006b7          	lui	a3,0x40000
    3514:	00001fb7          	lui	t6,0x1
    3518:	41f40fb3          	sub	t6,s0,t6
    351c:	feafb823          	sd	a0,-16(t6) # ff0 <.LBB69_4+0x174>
    3520:	00001fb7          	lui	t6,0x1
    3524:	41f40fb3          	sub	t6,s0,t6
    3528:	778fb483          	ld	s1,1912(t6) # 1778 <.LBB69_5+0x358>
    352c:	00055463          	bgez	a0,3534 <.LBB69_52>
    3530:	c00006b7          	lui	a3,0xc0000

0000000000003534 <.LBB69_52>:
    3534:	00001537          	lui	a0,0x1
    3538:	40a40533          	sub	a0,s0,a0
    353c:	fed53423          	sd	a3,-24(a0) # fe8 <.LBB69_4+0x16c>
    3540:	007f1693          	slli	a3,t5,0x7
    3544:	f4843503          	ld	a0,-184(s0)
    3548:	00001f37          	lui	t5,0x1
    354c:	41e40f33          	sub	t5,s0,t5
    3550:	740f3f03          	ld	t5,1856(t5) # 1740 <.LBB69_5+0x320>
    3554:	00af0533          	add	a0,t5,a0
    3558:	00001f37          	lui	t5,0x1
    355c:	41e40f33          	sub	t5,s0,t5
    3560:	74df3023          	sd	a3,1856(t5) # 1740 <.LBB69_5+0x320>
    3564:	00d50533          	add	a0,a0,a3
    3568:	401586bb          	subw	a3,a1,ra
    356c:	40d5053b          	subw	a0,a0,a3
    3570:	400006b7          	lui	a3,0x40000
    3574:	00001f37          	lui	t5,0x1
    3578:	41e40f33          	sub	t5,s0,t5
    357c:	f6af3c23          	sd	a0,-136(t5) # f78 <.LBB69_4+0xfc>
    3580:	00001f37          	lui	t5,0x1
    3584:	41e40f33          	sub	t5,s0,t5
    3588:	768f3f83          	ld	t6,1896(t5) # 1768 <.LBB69_5+0x348>
    358c:	00055463          	bgez	a0,3594 <.LBB69_54>
    3590:	c00006b7          	lui	a3,0xc0000

0000000000003594 <.LBB69_54>:
    3594:	00001537          	lui	a0,0x1
    3598:	40a40533          	sub	a0,s0,a0
    359c:	f6d53823          	sd	a3,-144(a0) # f70 <.LBB69_4+0xf4>
    35a0:	007e9693          	slli	a3,t4,0x7
    35a4:	f5043503          	ld	a0,-176(s0)
    35a8:	00001eb7          	lui	t4,0x1
    35ac:	41d40eb3          	sub	t4,s0,t4
    35b0:	748ebe83          	ld	t4,1864(t4) # 1748 <.LBB69_5+0x328>
    35b4:	00ae8533          	add	a0,t4,a0
    35b8:	00068f13          	mv	t5,a3
    35bc:	00d50533          	add	a0,a0,a3
    35c0:	401586bb          	subw	a3,a1,ra
    35c4:	40d5053b          	subw	a0,a0,a3
    35c8:	400006b7          	lui	a3,0x40000
    35cc:	00001eb7          	lui	t4,0x1
    35d0:	41d40eb3          	sub	t4,s0,t4
    35d4:	f0aeb423          	sd	a0,-248(t4) # f08 <.LBB69_4+0x8c>
    35d8:	00055463          	bgez	a0,35e0 <.LBB69_56>
    35dc:	c00006b7          	lui	a3,0xc0000

00000000000035e0 <.LBB69_56>:
    35e0:	00001537          	lui	a0,0x1
    35e4:	40a40533          	sub	a0,s0,a0
    35e8:	f0d53023          	sd	a3,-256(a0) # f00 <.LBB69_4+0x84>
    35ec:	007e1693          	slli	a3,t3,0x7
    35f0:	f5843503          	ld	a0,-168(s0)
    35f4:	00001e37          	lui	t3,0x1
    35f8:	41c40e33          	sub	t3,s0,t3
    35fc:	750e3e03          	ld	t3,1872(t3) # 1750 <.LBB69_5+0x330>
    3600:	00ae0533          	add	a0,t3,a0
    3604:	00068e13          	mv	t3,a3
    3608:	00d50533          	add	a0,a0,a3
    360c:	401586bb          	subw	a3,a1,ra
    3610:	40d5053b          	subw	a0,a0,a3
    3614:	400006b7          	lui	a3,0x40000
    3618:	00001eb7          	lui	t4,0x1
    361c:	41d40eb3          	sub	t4,s0,t4
    3620:	e8aeb423          	sd	a0,-376(t4) # e88 <.LBB69_4+0xc>
    3624:	00001eb7          	lui	t4,0x1
    3628:	41d40eb3          	sub	t4,s0,t4
    362c:	780ebe83          	ld	t4,1920(t4) # 1780 <.LBB69_5+0x360>
    3630:	00055463          	bgez	a0,3638 <.LBB69_58>
    3634:	c00006b7          	lui	a3,0xc0000

0000000000003638 <.LBB69_58>:
    3638:	f8c43823          	sd	a2,-112(s0)
    363c:	00001537          	lui	a0,0x1
    3640:	40a40533          	sub	a0,s0,a0
    3644:	e8d53023          	sd	a3,-384(a0) # e80 <.LBB69_4+0x4>
    3648:	00739693          	slli	a3,t2,0x7
    364c:	f6043503          	ld	a0,-160(s0)
    3650:	00001637          	lui	a2,0x1
    3654:	40c40633          	sub	a2,s0,a2
    3658:	75863383          	ld	t2,1880(a2) # 1758 <.LBB69_5+0x338>
    365c:	00a38533          	add	a0,t2,a0
    3660:	00068393          	mv	t2,a3
    3664:	00d50533          	add	a0,a0,a3
    3668:	401586bb          	subw	a3,a1,ra
    366c:	40d5053b          	subw	a0,a0,a3
    3670:	400006b7          	lui	a3,0x40000
    3674:	00001637          	lui	a2,0x1
    3678:	40c40633          	sub	a2,s0,a2
    367c:	e0a63823          	sd	a0,-496(a2) # e10 <.LBB69_3+0xbe8>
    3680:	f9043603          	ld	a2,-112(s0)
    3684:	00055463          	bgez	a0,368c <.LBB69_60>
    3688:	c00006b7          	lui	a3,0xc0000

000000000000368c <.LBB69_60>:
    368c:	f8c43823          	sd	a2,-112(s0)
    3690:	00001537          	lui	a0,0x1
    3694:	40a40533          	sub	a0,s0,a0
    3698:	e0d53423          	sd	a3,-504(a0) # e08 <.LBB69_3+0xbe0>
    369c:	00731693          	slli	a3,t1,0x7
    36a0:	f6843503          	ld	a0,-152(s0)
    36a4:	00001637          	lui	a2,0x1
    36a8:	40c40633          	sub	a2,s0,a2
    36ac:	76063303          	ld	t1,1888(a2) # 1760 <.LBB69_5+0x340>
    36b0:	00a30533          	add	a0,t1,a0
    36b4:	00068313          	mv	t1,a3
    36b8:	00d50533          	add	a0,a0,a3
    36bc:	401586bb          	subw	a3,a1,ra
    36c0:	40d5053b          	subw	a0,a0,a3
    36c4:	400006b7          	lui	a3,0x40000
    36c8:	00001637          	lui	a2,0x1
    36cc:	40c40633          	sub	a2,s0,a2
    36d0:	d8a63823          	sd	a0,-624(a2) # d90 <.LBB69_3+0xb68>
    36d4:	f9043603          	ld	a2,-112(s0)
    36d8:	00055463          	bgez	a0,36e0 <.LBB69_62>
    36dc:	c00006b7          	lui	a3,0xc0000

00000000000036e0 <.LBB69_62>:
    36e0:	00001537          	lui	a0,0x1
    36e4:	40a40533          	sub	a0,s0,a0
    36e8:	d8d53423          	sd	a3,-632(a0) # d88 <.LBB69_3+0xb60>
    36ec:	00729293          	slli	t0,t0,0x7
    36f0:	f7043503          	ld	a0,-144(s0)
    36f4:	00af8533          	add	a0,t6,a0
    36f8:	00028f93          	mv	t6,t0
    36fc:	00550533          	add	a0,a0,t0
    3700:	401586bb          	subw	a3,a1,ra
    3704:	40d5053b          	subw	a0,a0,a3
    3708:	400006b7          	lui	a3,0x40000
    370c:	000012b7          	lui	t0,0x1
    3710:	405402b3          	sub	t0,s0,t0
    3714:	d0a2bc23          	sd	a0,-744(t0) # d18 <.LBB69_3+0xaf0>
    3718:	00055463          	bgez	a0,3720 <.LBB69_64>
    371c:	c00006b7          	lui	a3,0xc0000

0000000000003720 <.LBB69_64>:
    3720:	00001537          	lui	a0,0x1
    3724:	40a40533          	sub	a0,s0,a0
    3728:	d0d53823          	sd	a3,-752(a0) # d10 <.LBB69_3+0xae8>
    372c:	00001537          	lui	a0,0x1
    3730:	40a40533          	sub	a0,s0,a0
    3734:	5b853683          	ld	a3,1464(a0) # 15b8 <.LBB69_5+0x198>
    3738:	00769693          	slli	a3,a3,0x7
    373c:	f7843503          	ld	a0,-136(s0)
    3740:	000012b7          	lui	t0,0x1
    3744:	405402b3          	sub	t0,s0,t0
    3748:	7702b283          	ld	t0,1904(t0) # 1770 <.LBB69_5+0x350>
    374c:	00a28533          	add	a0,t0,a0
    3750:	000012b7          	lui	t0,0x1
    3754:	405402b3          	sub	t0,s0,t0
    3758:	76d2b823          	sd	a3,1904(t0) # 1770 <.LBB69_5+0x350>
    375c:	00d50533          	add	a0,a0,a3
    3760:	401586bb          	subw	a3,a1,ra
    3764:	40d5053b          	subw	a0,a0,a3
    3768:	400006b7          	lui	a3,0x40000
    376c:	000012b7          	lui	t0,0x1
    3770:	405402b3          	sub	t0,s0,t0
    3774:	caa2b423          	sd	a0,-856(t0) # ca8 <.LBB69_3+0xa80>
    3778:	00055463          	bgez	a0,3780 <.LBB69_66>
    377c:	c00006b7          	lui	a3,0xc0000

0000000000003780 <.LBB69_66>:
    3780:	00001537          	lui	a0,0x1
    3784:	40a40533          	sub	a0,s0,a0
    3788:	cad53023          	sd	a3,-864(a0) # ca0 <.LBB69_3+0xa78>
    378c:	00001537          	lui	a0,0x1
    3790:	40a40533          	sub	a0,s0,a0
    3794:	5c053683          	ld	a3,1472(a0) # 15c0 <.LBB69_5+0x1a0>
    3798:	00769693          	slli	a3,a3,0x7
    379c:	f8043503          	ld	a0,-128(s0)
    37a0:	00a48533          	add	a0,s1,a0
    37a4:	00068493          	mv	s1,a3
    37a8:	00d50533          	add	a0,a0,a3
    37ac:	401586bb          	subw	a3,a1,ra
    37b0:	40d5053b          	subw	a0,a0,a3
    37b4:	400006b7          	lui	a3,0x40000
    37b8:	000012b7          	lui	t0,0x1
    37bc:	405402b3          	sub	t0,s0,t0
    37c0:	c6a2b023          	sd	a0,-928(t0) # c60 <.LBB69_3+0xa38>
    37c4:	00055463          	bgez	a0,37cc <.LBB69_68>
    37c8:	c00006b7          	lui	a3,0xc0000

00000000000037cc <.LBB69_68>:
    37cc:	00001537          	lui	a0,0x1
    37d0:	40a40533          	sub	a0,s0,a0
    37d4:	c4d53423          	sd	a3,-952(a0) # c48 <.LBB69_3+0xa20>
    37d8:	00001537          	lui	a0,0x1
    37dc:	40a40533          	sub	a0,s0,a0
    37e0:	5c853683          	ld	a3,1480(a0) # 15c8 <.LBB69_5+0x1a8>
    37e4:	00769693          	slli	a3,a3,0x7
    37e8:	f8843503          	ld	a0,-120(s0)
    37ec:	00ae8533          	add	a0,t4,a0
    37f0:	00068e93          	mv	t4,a3
    37f4:	00d50533          	add	a0,a0,a3
    37f8:	401585bb          	subw	a1,a1,ra
    37fc:	40b5053b          	subw	a0,a0,a1
    3800:	400005b7          	lui	a1,0x40000
    3804:	000016b7          	lui	a3,0x1
    3808:	40d406b3          	sub	a3,s0,a3
    380c:	baa6b423          	sd	a0,-1112(a3) # ba8 <.LBB69_3+0x980>
    3810:	00055463          	bgez	a0,3818 <.LBB69_70>
    3814:	c00005b7          	lui	a1,0xc0000

0000000000003818 <.LBB69_70>:
    3818:	00001537          	lui	a0,0x1
    381c:	40a40533          	sub	a0,s0,a0
    3820:	b6b53823          	sd	a1,-1168(a0) # b70 <.LBB69_3+0x948>
    3824:	eb043503          	ld	a0,-336(s0)
    3828:	000015b7          	lui	a1,0x1
    382c:	40b405b3          	sub	a1,s0,a1
    3830:	7885b583          	ld	a1,1928(a1) # 1788 <.LBB69_5+0x368>
    3834:	00a58533          	add	a0,a1,a0
    3838:	ea843583          	ld	a1,-344(s0)
    383c:	00b50533          	add	a0,a0,a1
    3840:	401605bb          	subw	a1,a2,ra
    3844:	40b5053b          	subw	a0,a0,a1
    3848:	400006b7          	lui	a3,0x40000
    384c:	000015b7          	lui	a1,0x1
    3850:	40b405b3          	sub	a1,s0,a1
    3854:	78a5b423          	sd	a0,1928(a1) # 1788 <.LBB69_5+0x368>
    3858:	00055463          	bgez	a0,3860 <.LBB69_72>
    385c:	c00006b7          	lui	a3,0xc0000

0000000000003860 <.LBB69_72>:
    3860:	ea043503          	ld	a0,-352(s0)
    3864:	000015b7          	lui	a1,0x1
    3868:	40b405b3          	sub	a1,s0,a1
    386c:	7905b583          	ld	a1,1936(a1) # 1790 <.LBB69_5+0x370>
    3870:	00a58533          	add	a0,a1,a0
    3874:	e9843583          	ld	a1,-360(s0)
    3878:	00b50533          	add	a0,a0,a1
    387c:	401605bb          	subw	a1,a2,ra
    3880:	40b5053b          	subw	a0,a0,a1
    3884:	400005b7          	lui	a1,0x40000
    3888:	000012b7          	lui	t0,0x1
    388c:	405402b3          	sub	t0,s0,t0
    3890:	78a2b823          	sd	a0,1936(t0) # 1790 <.LBB69_5+0x370>
    3894:	00055463          	bgez	a0,389c <.LBB69_74>
    3898:	c00005b7          	lui	a1,0xc0000

000000000000389c <.LBB69_74>:
    389c:	00001537          	lui	a0,0x1
    38a0:	40a40533          	sub	a0,s0,a0
    38a4:	78b53023          	sd	a1,1920(a0) # 1780 <.LBB69_5+0x360>
    38a8:	e9043503          	ld	a0,-368(s0)
    38ac:	000015b7          	lui	a1,0x1
    38b0:	40b405b3          	sub	a1,s0,a1
    38b4:	7985b583          	ld	a1,1944(a1) # 1798 <.LBB69_5+0x378>
    38b8:	00a58533          	add	a0,a1,a0
    38bc:	e8843583          	ld	a1,-376(s0)
    38c0:	00b50533          	add	a0,a0,a1
    38c4:	401605bb          	subw	a1,a2,ra
    38c8:	40b5053b          	subw	a0,a0,a1
    38cc:	400005b7          	lui	a1,0x40000
    38d0:	000012b7          	lui	t0,0x1
    38d4:	405402b3          	sub	t0,s0,t0
    38d8:	78a2bc23          	sd	a0,1944(t0) # 1798 <.LBB69_5+0x378>
    38dc:	00055463          	bgez	a0,38e4 <.LBB69_76>
    38e0:	c00005b7          	lui	a1,0xc0000

00000000000038e4 <.LBB69_76>:
    38e4:	00001537          	lui	a0,0x1
    38e8:	40a40533          	sub	a0,s0,a0
    38ec:	76b53c23          	sd	a1,1912(a0) # 1778 <.LBB69_5+0x358>
    38f0:	e8043503          	ld	a0,-384(s0)
    38f4:	000015b7          	lui	a1,0x1
    38f8:	40b405b3          	sub	a1,s0,a1
    38fc:	7a05b583          	ld	a1,1952(a1) # 17a0 <.LBB69_5+0x380>
    3900:	00a58533          	add	a0,a1,a0
    3904:	e7843583          	ld	a1,-392(s0)
    3908:	00b50533          	add	a0,a0,a1
    390c:	401605bb          	subw	a1,a2,ra
    3910:	40b5053b          	subw	a0,a0,a1
    3914:	400005b7          	lui	a1,0x40000
    3918:	000012b7          	lui	t0,0x1
    391c:	405402b3          	sub	t0,s0,t0
    3920:	7aa2b023          	sd	a0,1952(t0) # 17a0 <.LBB69_5+0x380>
    3924:	00055463          	bgez	a0,392c <.LBB69_78>
    3928:	c00005b7          	lui	a1,0xc0000

000000000000392c <.LBB69_78>:
    392c:	00001537          	lui	a0,0x1
    3930:	40a40533          	sub	a0,s0,a0
    3934:	76b53423          	sd	a1,1896(a0) # 1768 <.LBB69_5+0x348>
    3938:	e7043503          	ld	a0,-400(s0)
    393c:	000015b7          	lui	a1,0x1
    3940:	40b405b3          	sub	a1,s0,a1
    3944:	7a85b583          	ld	a1,1960(a1) # 17a8 <.LBB69_5+0x388>
    3948:	00a58533          	add	a0,a1,a0
    394c:	e6843583          	ld	a1,-408(s0)
    3950:	00b50533          	add	a0,a0,a1
    3954:	401605bb          	subw	a1,a2,ra
    3958:	40b5053b          	subw	a0,a0,a1
    395c:	400005b7          	lui	a1,0x40000
    3960:	000012b7          	lui	t0,0x1
    3964:	405402b3          	sub	t0,s0,t0
    3968:	7aa2b423          	sd	a0,1960(t0) # 17a8 <.LBB69_5+0x388>
    396c:	00055463          	bgez	a0,3974 <.LBB69_80>
    3970:	c00005b7          	lui	a1,0xc0000

0000000000003974 <.LBB69_80>:
    3974:	00001537          	lui	a0,0x1
    3978:	40a40533          	sub	a0,s0,a0
    397c:	76b53023          	sd	a1,1888(a0) # 1760 <.LBB69_5+0x340>
    3980:	00001537          	lui	a0,0x1
    3984:	40a40533          	sub	a0,s0,a0
    3988:	6c853503          	ld	a0,1736(a0) # 16c8 <.LBB69_5+0x2a8>
    398c:	000015b7          	lui	a1,0x1
    3990:	40b405b3          	sub	a1,s0,a1
    3994:	7b05b583          	ld	a1,1968(a1) # 17b0 <.LBB69_5+0x390>
    3998:	00a58533          	add	a0,a1,a0
    399c:	000015b7          	lui	a1,0x1
    39a0:	40b405b3          	sub	a1,s0,a1
    39a4:	6c05b583          	ld	a1,1728(a1) # 16c0 <.LBB69_5+0x2a0>
    39a8:	00b50533          	add	a0,a0,a1
    39ac:	401605bb          	subw	a1,a2,ra
    39b0:	40b5053b          	subw	a0,a0,a1
    39b4:	400005b7          	lui	a1,0x40000
    39b8:	000012b7          	lui	t0,0x1
    39bc:	405402b3          	sub	t0,s0,t0
    39c0:	7aa2b823          	sd	a0,1968(t0) # 17b0 <.LBB69_5+0x390>
    39c4:	00055463          	bgez	a0,39cc <.LBB69_82>
    39c8:	c00005b7          	lui	a1,0xc0000

00000000000039cc <.LBB69_82>:
    39cc:	00001537          	lui	a0,0x1
    39d0:	40a40533          	sub	a0,s0,a0
    39d4:	74b53c23          	sd	a1,1880(a0) # 1758 <.LBB69_5+0x338>
    39d8:	00001537          	lui	a0,0x1
    39dc:	40a40533          	sub	a0,s0,a0
    39e0:	6b853503          	ld	a0,1720(a0) # 16b8 <.LBB69_5+0x298>
    39e4:	000015b7          	lui	a1,0x1
    39e8:	40b405b3          	sub	a1,s0,a1
    39ec:	7b85b583          	ld	a1,1976(a1) # 17b8 <.LBB69_5+0x398>
    39f0:	00a58533          	add	a0,a1,a0
    39f4:	000015b7          	lui	a1,0x1
    39f8:	40b405b3          	sub	a1,s0,a1
    39fc:	6b05b583          	ld	a1,1712(a1) # 16b0 <.LBB69_5+0x290>
    3a00:	00b50533          	add	a0,a0,a1
    3a04:	401605bb          	subw	a1,a2,ra
    3a08:	40b5053b          	subw	a0,a0,a1
    3a0c:	400005b7          	lui	a1,0x40000
    3a10:	000012b7          	lui	t0,0x1
    3a14:	405402b3          	sub	t0,s0,t0
    3a18:	7aa2bc23          	sd	a0,1976(t0) # 17b8 <.LBB69_5+0x398>
    3a1c:	00055463          	bgez	a0,3a24 <.LBB69_84>
    3a20:	c00005b7          	lui	a1,0xc0000

0000000000003a24 <.LBB69_84>:
    3a24:	00001537          	lui	a0,0x1
    3a28:	40a40533          	sub	a0,s0,a0
    3a2c:	74b53823          	sd	a1,1872(a0) # 1750 <.LBB69_5+0x330>
    3a30:	00001537          	lui	a0,0x1
    3a34:	40a40533          	sub	a0,s0,a0
    3a38:	6a853503          	ld	a0,1704(a0) # 16a8 <.LBB69_5+0x288>
    3a3c:	000015b7          	lui	a1,0x1
    3a40:	40b405b3          	sub	a1,s0,a1
    3a44:	7c05b583          	ld	a1,1984(a1) # 17c0 <.LBB69_5+0x3a0>
    3a48:	00a58533          	add	a0,a1,a0
    3a4c:	000015b7          	lui	a1,0x1
    3a50:	40b405b3          	sub	a1,s0,a1
    3a54:	6a05b583          	ld	a1,1696(a1) # 16a0 <.LBB69_5+0x280>
    3a58:	00b50533          	add	a0,a0,a1
    3a5c:	401605bb          	subw	a1,a2,ra
    3a60:	40b5053b          	subw	a0,a0,a1
    3a64:	400005b7          	lui	a1,0x40000
    3a68:	000012b7          	lui	t0,0x1
    3a6c:	405402b3          	sub	t0,s0,t0
    3a70:	70a2b423          	sd	a0,1800(t0) # 1708 <.LBB69_5+0x2e8>
    3a74:	00055463          	bgez	a0,3a7c <.LBB69_86>
    3a78:	c00005b7          	lui	a1,0xc0000

0000000000003a7c <.LBB69_86>:
    3a7c:	00001537          	lui	a0,0x1
    3a80:	40a40533          	sub	a0,s0,a0
    3a84:	5cb53423          	sd	a1,1480(a0) # 15c8 <.LBB69_5+0x1a8>
    3a88:	00001537          	lui	a0,0x1
    3a8c:	40a40533          	sub	a0,s0,a0
    3a90:	69853503          	ld	a0,1688(a0) # 1698 <.LBB69_5+0x278>
    3a94:	000015b7          	lui	a1,0x1
    3a98:	40b405b3          	sub	a1,s0,a1
    3a9c:	7c85b583          	ld	a1,1992(a1) # 17c8 <.LBB69_5+0x3a8>
    3aa0:	00a58533          	add	a0,a1,a0
    3aa4:	000015b7          	lui	a1,0x1
    3aa8:	40b405b3          	sub	a1,s0,a1
    3aac:	6905b583          	ld	a1,1680(a1) # 1690 <.LBB69_5+0x270>
    3ab0:	00b50533          	add	a0,a0,a1
    3ab4:	401605bb          	subw	a1,a2,ra
    3ab8:	40b5053b          	subw	a0,a0,a1
    3abc:	400005b7          	lui	a1,0x40000
    3ac0:	000012b7          	lui	t0,0x1
    3ac4:	405402b3          	sub	t0,s0,t0
    3ac8:	58a2b823          	sd	a0,1424(t0) # 1590 <.LBB69_5+0x170>
    3acc:	00055463          	bgez	a0,3ad4 <.LBB69_88>
    3ad0:	c00005b7          	lui	a1,0xc0000

0000000000003ad4 <.LBB69_88>:
    3ad4:	00001537          	lui	a0,0x1
    3ad8:	40a40533          	sub	a0,s0,a0
    3adc:	56b53823          	sd	a1,1392(a0) # 1570 <.LBB69_5+0x150>
    3ae0:	00001537          	lui	a0,0x1
    3ae4:	40a40533          	sub	a0,s0,a0
    3ae8:	68853503          	ld	a0,1672(a0) # 1688 <.LBB69_5+0x268>
    3aec:	000015b7          	lui	a1,0x1
    3af0:	40b405b3          	sub	a1,s0,a1
    3af4:	7d05b583          	ld	a1,2000(a1) # 17d0 <.LBB69_5+0x3b0>
    3af8:	00a58533          	add	a0,a1,a0
    3afc:	000015b7          	lui	a1,0x1
    3b00:	40b405b3          	sub	a1,s0,a1
    3b04:	6d05b583          	ld	a1,1744(a1) # 16d0 <.LBB69_5+0x2b0>
    3b08:	00b50533          	add	a0,a0,a1
    3b0c:	401605bb          	subw	a1,a2,ra
    3b10:	40b5053b          	subw	a0,a0,a1
    3b14:	400005b7          	lui	a1,0x40000
    3b18:	000012b7          	lui	t0,0x1
    3b1c:	405402b3          	sub	t0,s0,t0
    3b20:	54a2b023          	sd	a0,1344(t0) # 1540 <.LBB69_5+0x120>
    3b24:	00055463          	bgez	a0,3b2c <.LBB69_90>
    3b28:	c00005b7          	lui	a1,0xc0000

0000000000003b2c <.LBB69_90>:
    3b2c:	00001537          	lui	a0,0x1
    3b30:	40a40533          	sub	a0,s0,a0
    3b34:	50b53823          	sd	a1,1296(a0) # 1510 <.LBB69_5+0xf0>
    3b38:	eb843503          	ld	a0,-328(s0)
    3b3c:	000015b7          	lui	a1,0x1
    3b40:	40b405b3          	sub	a1,s0,a1
    3b44:	7d85b583          	ld	a1,2008(a1) # 17d8 <.LBB69_5+0x3b8>
    3b48:	00a58533          	add	a0,a1,a0
    3b4c:	000015b7          	lui	a1,0x1
    3b50:	40b405b3          	sub	a1,s0,a1
    3b54:	6d85b583          	ld	a1,1752(a1) # 16d8 <.LBB69_5+0x2b8>
    3b58:	00b50533          	add	a0,a0,a1
    3b5c:	401605bb          	subw	a1,a2,ra
    3b60:	40b5053b          	subw	a0,a0,a1
    3b64:	400005b7          	lui	a1,0x40000
    3b68:	000012b7          	lui	t0,0x1
    3b6c:	405402b3          	sub	t0,s0,t0
    3b70:	4ea2b023          	sd	a0,1248(t0) # 14e0 <.LBB69_5+0xc0>
    3b74:	00055463          	bgez	a0,3b7c <.LBB69_92>
    3b78:	c00005b7          	lui	a1,0xc0000

0000000000003b7c <.LBB69_92>:
    3b7c:	00001537          	lui	a0,0x1
    3b80:	40a40533          	sub	a0,s0,a0
    3b84:	4ab53c23          	sd	a1,1208(a0) # 14b8 <.LBB69_5+0x98>
    3b88:	ec043503          	ld	a0,-320(s0)
    3b8c:	000015b7          	lui	a1,0x1
    3b90:	40b405b3          	sub	a1,s0,a1
    3b94:	7e05b583          	ld	a1,2016(a1) # 17e0 <.LBB69_5+0x3c0>
    3b98:	00a58533          	add	a0,a1,a0
    3b9c:	01b50533          	add	a0,a0,s11
    3ba0:	401605bb          	subw	a1,a2,ra
    3ba4:	40b5053b          	subw	a0,a0,a1
    3ba8:	400005b7          	lui	a1,0x40000
    3bac:	000012b7          	lui	t0,0x1
    3bb0:	405402b3          	sub	t0,s0,t0
    3bb4:	48a2b823          	sd	a0,1168(t0) # 1490 <.LBB69_5+0x70>
    3bb8:	00055463          	bgez	a0,3bc0 <.LBB69_94>
    3bbc:	c00005b7          	lui	a1,0xc0000

0000000000003bc0 <.LBB69_94>:
    3bc0:	00001537          	lui	a0,0x1
    3bc4:	40a40533          	sub	a0,s0,a0
    3bc8:	46b53423          	sd	a1,1128(a0) # 1468 <.LBB69_5+0x48>
    3bcc:	ec843503          	ld	a0,-312(s0)
    3bd0:	000015b7          	lui	a1,0x1
    3bd4:	40b405b3          	sub	a1,s0,a1
    3bd8:	7e85b583          	ld	a1,2024(a1) # 17e8 <.LBB69_5+0x3c8>
    3bdc:	00a58533          	add	a0,a1,a0
    3be0:	01a50533          	add	a0,a0,s10
    3be4:	401605bb          	subw	a1,a2,ra
    3be8:	40b5053b          	subw	a0,a0,a1
    3bec:	400005b7          	lui	a1,0x40000
    3bf0:	000012b7          	lui	t0,0x1
    3bf4:	405402b3          	sub	t0,s0,t0
    3bf8:	42a2bc23          	sd	a0,1080(t0) # 1438 <.LBB69_5+0x18>
    3bfc:	00055463          	bgez	a0,3c04 <.LBB69_96>
    3c00:	c00005b7          	lui	a1,0xc0000

0000000000003c04 <.LBB69_96>:
    3c04:	00001537          	lui	a0,0x1
    3c08:	40a40533          	sub	a0,s0,a0
    3c0c:	40b53c23          	sd	a1,1048(a0) # 1418 <.LBB69_4+0x59c>
    3c10:	ed043503          	ld	a0,-304(s0)
    3c14:	000015b7          	lui	a1,0x1
    3c18:	40b405b3          	sub	a1,s0,a1
    3c1c:	7f05b583          	ld	a1,2032(a1) # 17f0 <.LBB69_5+0x3d0>
    3c20:	00a58533          	add	a0,a1,a0
    3c24:	01950533          	add	a0,a0,s9
    3c28:	401605bb          	subw	a1,a2,ra
    3c2c:	40b5053b          	subw	a0,a0,a1
    3c30:	400005b7          	lui	a1,0x40000
    3c34:	000012b7          	lui	t0,0x1
    3c38:	405402b3          	sub	t0,s0,t0
    3c3c:	3ea2b023          	sd	a0,992(t0) # 13e0 <.LBB69_4+0x564>
    3c40:	00055463          	bgez	a0,3c48 <.LBB69_98>
    3c44:	c00005b7          	lui	a1,0xc0000

0000000000003c48 <.LBB69_98>:
    3c48:	00001537          	lui	a0,0x1
    3c4c:	40a40533          	sub	a0,s0,a0
    3c50:	3ab53c23          	sd	a1,952(a0) # 13b8 <.LBB69_4+0x53c>
    3c54:	ed843503          	ld	a0,-296(s0)
    3c58:	000015b7          	lui	a1,0x1
    3c5c:	40b405b3          	sub	a1,s0,a1
    3c60:	7f85b583          	ld	a1,2040(a1) # 17f8 <.LBB69_5+0x3d8>
    3c64:	00a58533          	add	a0,a1,a0
    3c68:	01850533          	add	a0,a0,s8
    3c6c:	401605bb          	subw	a1,a2,ra
    3c70:	40b5053b          	subw	a0,a0,a1
    3c74:	400005b7          	lui	a1,0x40000
    3c78:	000012b7          	lui	t0,0x1
    3c7c:	405402b3          	sub	t0,s0,t0
    3c80:	36a2bc23          	sd	a0,888(t0) # 1378 <.LBB69_4+0x4fc>
    3c84:	00055463          	bgez	a0,3c8c <.LBB69_100>
    3c88:	c00005b7          	lui	a1,0xc0000

0000000000003c8c <.LBB69_100>:
    3c8c:	00001537          	lui	a0,0x1
    3c90:	40a40533          	sub	a0,s0,a0
    3c94:	34b53823          	sd	a1,848(a0) # 1350 <.LBB69_4+0x4d4>
    3c98:	ee043503          	ld	a0,-288(s0)
    3c9c:	80043583          	ld	a1,-2048(s0)
    3ca0:	00a58533          	add	a0,a1,a0
    3ca4:	01750533          	add	a0,a0,s7
    3ca8:	401605bb          	subw	a1,a2,ra
    3cac:	40b5053b          	subw	a0,a0,a1
    3cb0:	400005b7          	lui	a1,0x40000
    3cb4:	000012b7          	lui	t0,0x1
    3cb8:	405402b3          	sub	t0,s0,t0
    3cbc:	30a2b823          	sd	a0,784(t0) # 1310 <.LBB69_4+0x494>
    3cc0:	00055463          	bgez	a0,3cc8 <.LBB69_102>
    3cc4:	c00005b7          	lui	a1,0xc0000

0000000000003cc8 <.LBB69_102>:
    3cc8:	00001537          	lui	a0,0x1
    3ccc:	40a40533          	sub	a0,s0,a0
    3cd0:	2eb53423          	sd	a1,744(a0) # 12e8 <.LBB69_4+0x46c>
    3cd4:	ee843503          	ld	a0,-280(s0)
    3cd8:	80843583          	ld	a1,-2040(s0)
    3cdc:	00a58533          	add	a0,a1,a0
    3ce0:	01650533          	add	a0,a0,s6
    3ce4:	401605bb          	subw	a1,a2,ra
    3ce8:	40b5053b          	subw	a0,a0,a1
    3cec:	400005b7          	lui	a1,0x40000
    3cf0:	000012b7          	lui	t0,0x1
    3cf4:	405402b3          	sub	t0,s0,t0
    3cf8:	2aa2b423          	sd	a0,680(t0) # 12a8 <.LBB69_4+0x42c>
    3cfc:	00055463          	bgez	a0,3d04 <.LBB69_104>
    3d00:	c00005b7          	lui	a1,0xc0000

0000000000003d04 <.LBB69_104>:
    3d04:	00001537          	lui	a0,0x1
    3d08:	40a40533          	sub	a0,s0,a0
    3d0c:	26b53c23          	sd	a1,632(a0) # 1278 <.LBB69_4+0x3fc>
    3d10:	ef043503          	ld	a0,-272(s0)
    3d14:	81043583          	ld	a1,-2032(s0)
    3d18:	00a58533          	add	a0,a1,a0
    3d1c:	01550533          	add	a0,a0,s5
    3d20:	401605bb          	subw	a1,a2,ra
    3d24:	40b5053b          	subw	a0,a0,a1
    3d28:	400005b7          	lui	a1,0x40000
    3d2c:	000012b7          	lui	t0,0x1
    3d30:	405402b3          	sub	t0,s0,t0
    3d34:	22a2b823          	sd	a0,560(t0) # 1230 <.LBB69_4+0x3b4>
    3d38:	00055463          	bgez	a0,3d40 <.LBB69_106>
    3d3c:	c00005b7          	lui	a1,0xc0000

0000000000003d40 <.LBB69_106>:
    3d40:	00001537          	lui	a0,0x1
    3d44:	40a40533          	sub	a0,s0,a0
    3d48:	20b53023          	sd	a1,512(a0) # 1200 <.LBB69_4+0x384>
    3d4c:	ef843503          	ld	a0,-264(s0)
    3d50:	81843583          	ld	a1,-2024(s0)
    3d54:	00a58533          	add	a0,a1,a0
    3d58:	000015b7          	lui	a1,0x1
    3d5c:	40b405b3          	sub	a1,s0,a1
    3d60:	7185b583          	ld	a1,1816(a1) # 1718 <.LBB69_5+0x2f8>
    3d64:	00b50533          	add	a0,a0,a1
    3d68:	401605bb          	subw	a1,a2,ra
    3d6c:	40b5053b          	subw	a0,a0,a1
    3d70:	400005b7          	lui	a1,0x40000
    3d74:	000012b7          	lui	t0,0x1
    3d78:	405402b3          	sub	t0,s0,t0
    3d7c:	1aa2bc23          	sd	a0,440(t0) # 11b8 <.LBB69_4+0x33c>
    3d80:	00055463          	bgez	a0,3d88 <.LBB69_108>
    3d84:	c00005b7          	lui	a1,0xc0000

0000000000003d88 <.LBB69_108>:
    3d88:	00001537          	lui	a0,0x1
    3d8c:	40a40533          	sub	a0,s0,a0
    3d90:	18b53823          	sd	a1,400(a0) # 1190 <.LBB69_4+0x314>
    3d94:	f0043503          	ld	a0,-256(s0)
    3d98:	82043583          	ld	a1,-2016(s0)
    3d9c:	00a58533          	add	a0,a1,a0
    3da0:	01350533          	add	a0,a0,s3
    3da4:	401605bb          	subw	a1,a2,ra
    3da8:	40b5053b          	subw	a0,a0,a1
    3dac:	400005b7          	lui	a1,0x40000
    3db0:	000012b7          	lui	t0,0x1
    3db4:	405402b3          	sub	t0,s0,t0
    3db8:	14a2b023          	sd	a0,320(t0) # 1140 <.LBB69_4+0x2c4>
    3dbc:	00055463          	bgez	a0,3dc4 <.LBB69_110>
    3dc0:	c00005b7          	lui	a1,0xc0000

0000000000003dc4 <.LBB69_110>:
    3dc4:	00001537          	lui	a0,0x1
    3dc8:	40a40533          	sub	a0,s0,a0
    3dcc:	10b53823          	sd	a1,272(a0) # 1110 <.LBB69_4+0x294>
    3dd0:	f0843503          	ld	a0,-248(s0)
    3dd4:	82843583          	ld	a1,-2008(s0)
    3dd8:	00a58533          	add	a0,a1,a0
    3ddc:	01250533          	add	a0,a0,s2
    3de0:	401605bb          	subw	a1,a2,ra
    3de4:	40b5053b          	subw	a0,a0,a1
    3de8:	400005b7          	lui	a1,0x40000
    3dec:	000012b7          	lui	t0,0x1
    3df0:	405402b3          	sub	t0,s0,t0
    3df4:	0ca2b423          	sd	a0,200(t0) # 10c8 <.LBB69_4+0x24c>
    3df8:	00055463          	bgez	a0,3e00 <.LBB69_112>
    3dfc:	c00005b7          	lui	a1,0xc0000

0000000000003e00 <.LBB69_112>:
    3e00:	00001537          	lui	a0,0x1
    3e04:	40a40533          	sub	a0,s0,a0
    3e08:	08b53c23          	sd	a1,152(a0) # 1098 <.LBB69_4+0x21c>
    3e0c:	f3843503          	ld	a0,-200(s0)
    3e10:	83043583          	ld	a1,-2000(s0)
    3e14:	00a58533          	add	a0,a1,a0
    3e18:	000015b7          	lui	a1,0x1
    3e1c:	40b405b3          	sub	a1,s0,a1
    3e20:	7305b583          	ld	a1,1840(a1) # 1730 <.LBB69_5+0x310>
    3e24:	00b50533          	add	a0,a0,a1
    3e28:	401605bb          	subw	a1,a2,ra
    3e2c:	40b5053b          	subw	a0,a0,a1
    3e30:	400005b7          	lui	a1,0x40000
    3e34:	000012b7          	lui	t0,0x1
    3e38:	405402b3          	sub	t0,s0,t0
    3e3c:	04a2b823          	sd	a0,80(t0) # 1050 <.LBB69_4+0x1d4>
    3e40:	00055463          	bgez	a0,3e48 <.LBB69_114>
    3e44:	c00005b7          	lui	a1,0xc0000

0000000000003e48 <.LBB69_114>:
    3e48:	00001537          	lui	a0,0x1
    3e4c:	40a40533          	sub	a0,s0,a0
    3e50:	02b53423          	sd	a1,40(a0) # 1028 <.LBB69_4+0x1ac>
    3e54:	f4043503          	ld	a0,-192(s0)
    3e58:	83843583          	ld	a1,-1992(s0)
    3e5c:	00a58533          	add	a0,a1,a0
    3e60:	000015b7          	lui	a1,0x1
    3e64:	40b405b3          	sub	a1,s0,a1
    3e68:	7385b583          	ld	a1,1848(a1) # 1738 <.LBB69_5+0x318>
    3e6c:	00b50533          	add	a0,a0,a1
    3e70:	401605bb          	subw	a1,a2,ra
    3e74:	40b5053b          	subw	a0,a0,a1
    3e78:	400005b7          	lui	a1,0x40000
    3e7c:	000012b7          	lui	t0,0x1
    3e80:	405402b3          	sub	t0,s0,t0
    3e84:	fea2b023          	sd	a0,-32(t0) # fe0 <.LBB69_4+0x164>
    3e88:	00055463          	bgez	a0,3e90 <.LBB69_116>
    3e8c:	c00005b7          	lui	a1,0xc0000

0000000000003e90 <.LBB69_116>:
    3e90:	00001537          	lui	a0,0x1
    3e94:	40a40533          	sub	a0,s0,a0
    3e98:	fab53823          	sd	a1,-80(a0) # fb0 <.LBB69_4+0x134>
    3e9c:	f4843503          	ld	a0,-184(s0)
    3ea0:	84043583          	ld	a1,-1984(s0)
    3ea4:	00a58533          	add	a0,a1,a0
    3ea8:	000015b7          	lui	a1,0x1
    3eac:	40b405b3          	sub	a1,s0,a1
    3eb0:	7405b583          	ld	a1,1856(a1) # 1740 <.LBB69_5+0x320>
    3eb4:	00b50533          	add	a0,a0,a1
    3eb8:	401605bb          	subw	a1,a2,ra
    3ebc:	40b5053b          	subw	a0,a0,a1
    3ec0:	400005b7          	lui	a1,0x40000
    3ec4:	000012b7          	lui	t0,0x1
    3ec8:	405402b3          	sub	t0,s0,t0
    3ecc:	f6a2b423          	sd	a0,-152(t0) # f68 <.LBB69_4+0xec>
    3ed0:	00055463          	bgez	a0,3ed8 <.LBB69_118>
    3ed4:	c00005b7          	lui	a1,0xc0000

0000000000003ed8 <.LBB69_118>:
    3ed8:	00001537          	lui	a0,0x1
    3edc:	40a40533          	sub	a0,s0,a0
    3ee0:	f4b53023          	sd	a1,-192(a0) # f40 <.LBB69_4+0xc4>
    3ee4:	f5043503          	ld	a0,-176(s0)
    3ee8:	84843583          	ld	a1,-1976(s0)
    3eec:	00a58533          	add	a0,a1,a0
    3ef0:	01e50533          	add	a0,a0,t5
    3ef4:	401605bb          	subw	a1,a2,ra
    3ef8:	40b5053b          	subw	a0,a0,a1
    3efc:	400005b7          	lui	a1,0x40000
    3f00:	000012b7          	lui	t0,0x1
    3f04:	405402b3          	sub	t0,s0,t0
    3f08:	eea2bc23          	sd	a0,-264(t0) # ef8 <.LBB69_4+0x7c>
    3f0c:	00055463          	bgez	a0,3f14 <.LBB69_120>
    3f10:	c00005b7          	lui	a1,0xc0000

0000000000003f14 <.LBB69_120>:
    3f14:	00001537          	lui	a0,0x1
    3f18:	40a40533          	sub	a0,s0,a0
    3f1c:	ecb53023          	sd	a1,-320(a0) # ec0 <.LBB69_4+0x44>
    3f20:	f5843503          	ld	a0,-168(s0)
    3f24:	85043583          	ld	a1,-1968(s0)
    3f28:	00a58533          	add	a0,a1,a0
    3f2c:	01c50533          	add	a0,a0,t3
    3f30:	401605bb          	subw	a1,a2,ra
    3f34:	40b5053b          	subw	a0,a0,a1
    3f38:	400005b7          	lui	a1,0x40000
    3f3c:	000012b7          	lui	t0,0x1
    3f40:	405402b3          	sub	t0,s0,t0
    3f44:	e6a2bc23          	sd	a0,-392(t0) # e78 <.LBB69_3+0xc50>
    3f48:	00055463          	bgez	a0,3f50 <.LBB69_122>
    3f4c:	c00005b7          	lui	a1,0xc0000

0000000000003f50 <.LBB69_122>:
    3f50:	00001537          	lui	a0,0x1
    3f54:	40a40533          	sub	a0,s0,a0
    3f58:	e4b53423          	sd	a1,-440(a0) # e48 <.LBB69_3+0xc20>
    3f5c:	f6043503          	ld	a0,-160(s0)
    3f60:	85843583          	ld	a1,-1960(s0)
    3f64:	00a58533          	add	a0,a1,a0
    3f68:	00750533          	add	a0,a0,t2
    3f6c:	401605bb          	subw	a1,a2,ra
    3f70:	40b5053b          	subw	a0,a0,a1
    3f74:	400005b7          	lui	a1,0x40000
    3f78:	000012b7          	lui	t0,0x1
    3f7c:	405402b3          	sub	t0,s0,t0
    3f80:	e0a2b023          	sd	a0,-512(t0) # e00 <.LBB69_3+0xbd8>
    3f84:	00055463          	bgez	a0,3f8c <.LBB69_124>
    3f88:	c00005b7          	lui	a1,0xc0000

0000000000003f8c <.LBB69_124>:
    3f8c:	00001537          	lui	a0,0x1
    3f90:	40a40533          	sub	a0,s0,a0
    3f94:	dcb53423          	sd	a1,-568(a0) # dc8 <.LBB69_3+0xba0>
    3f98:	f6843503          	ld	a0,-152(s0)
    3f9c:	86043583          	ld	a1,-1952(s0)
    3fa0:	00a58533          	add	a0,a1,a0
    3fa4:	00650533          	add	a0,a0,t1
    3fa8:	401605bb          	subw	a1,a2,ra
    3fac:	40b5053b          	subw	a0,a0,a1
    3fb0:	400005b7          	lui	a1,0x40000
    3fb4:	000012b7          	lui	t0,0x1
    3fb8:	405402b3          	sub	t0,s0,t0
    3fbc:	d8a2b023          	sd	a0,-640(t0) # d80 <.LBB69_3+0xb58>
    3fc0:	00055463          	bgez	a0,3fc8 <.LBB69_126>
    3fc4:	c00005b7          	lui	a1,0xc0000

0000000000003fc8 <.LBB69_126>:
    3fc8:	00001537          	lui	a0,0x1
    3fcc:	40a40533          	sub	a0,s0,a0
    3fd0:	d4b53823          	sd	a1,-688(a0) # d50 <.LBB69_3+0xb28>
    3fd4:	f7043503          	ld	a0,-144(s0)
    3fd8:	86843583          	ld	a1,-1944(s0)
    3fdc:	00a58533          	add	a0,a1,a0
    3fe0:	01f50533          	add	a0,a0,t6
    3fe4:	401605bb          	subw	a1,a2,ra
    3fe8:	40b5053b          	subw	a0,a0,a1
    3fec:	400005b7          	lui	a1,0x40000
    3ff0:	000012b7          	lui	t0,0x1
    3ff4:	405402b3          	sub	t0,s0,t0
    3ff8:	d0a2b423          	sd	a0,-760(t0) # d08 <.LBB69_3+0xae0>
    3ffc:	00055463          	bgez	a0,4004 <.LBB69_128>
    4000:	c00005b7          	lui	a1,0xc0000

0000000000004004 <.LBB69_128>:
    4004:	00001537          	lui	a0,0x1
    4008:	40a40533          	sub	a0,s0,a0
    400c:	ceb53023          	sd	a1,-800(a0) # ce0 <.LBB69_3+0xab8>
    4010:	f7843503          	ld	a0,-136(s0)
    4014:	87043583          	ld	a1,-1936(s0)
    4018:	00a58533          	add	a0,a1,a0
    401c:	000015b7          	lui	a1,0x1
    4020:	40b405b3          	sub	a1,s0,a1
    4024:	7705b583          	ld	a1,1904(a1) # 1770 <.LBB69_5+0x350>
    4028:	00b50533          	add	a0,a0,a1
    402c:	401605bb          	subw	a1,a2,ra
    4030:	40b5053b          	subw	a0,a0,a1
    4034:	400005b7          	lui	a1,0x40000
    4038:	000012b7          	lui	t0,0x1
    403c:	405402b3          	sub	t0,s0,t0
    4040:	c8a2bc23          	sd	a0,-872(t0) # c98 <.LBB69_3+0xa70>
    4044:	00055463          	bgez	a0,404c <.LBB69_130>
    4048:	c00005b7          	lui	a1,0xc0000

000000000000404c <.LBB69_130>:
    404c:	00001537          	lui	a0,0x1
    4050:	40a40533          	sub	a0,s0,a0
    4054:	c8b53823          	sd	a1,-880(a0) # c90 <.LBB69_3+0xa68>
    4058:	86d43823          	sd	a3,-1936(s0)
    405c:	f8043503          	ld	a0,-128(s0)
    4060:	87843583          	ld	a1,-1928(s0)
    4064:	00a58533          	add	a0,a1,a0
    4068:	00950533          	add	a0,a0,s1
    406c:	401605bb          	subw	a1,a2,ra
    4070:	40b5053b          	subw	a0,a0,a1
    4074:	400005b7          	lui	a1,0x40000
    4078:	000016b7          	lui	a3,0x1
    407c:	40d406b3          	sub	a3,s0,a3
    4080:	c4a6bc23          	sd	a0,-936(a3) # c58 <.LBB69_3+0xa30>
    4084:	00055463          	bgez	a0,408c <.LBB69_132>
    4088:	c00005b7          	lui	a1,0xc0000

000000000000408c <.LBB69_132>:
    408c:	00001537          	lui	a0,0x1
    4090:	40a40533          	sub	a0,s0,a0
    4094:	c4b53023          	sd	a1,-960(a0) # c40 <.LBB69_3+0xa18>
    4098:	f8843503          	ld	a0,-120(s0)
    409c:	88043583          	ld	a1,-1920(s0)
    40a0:	00a58533          	add	a0,a1,a0
    40a4:	01d50533          	add	a0,a0,t4
    40a8:	401605bb          	subw	a1,a2,ra
    40ac:	40b506bb          	subw	a3,a0,a1
    40b0:	40000537          	lui	a0,0x40000
    40b4:	0006d463          	bgez	a3,40bc <.LBB69_134>
    40b8:	c0000537          	lui	a0,0xc0000

00000000000040bc <.LBB69_134>:
    40bc:	000015b7          	lui	a1,0x1
    40c0:	40b405b3          	sub	a1,s0,a1
    40c4:	baa5b023          	sd	a0,-1120(a1) # ba0 <.LBB69_3+0x978>
    40c8:	eb043503          	ld	a0,-336(s0)
    40cc:	88843583          	ld	a1,-1912(s0)
    40d0:	00a58533          	add	a0,a1,a0
    40d4:	ea843583          	ld	a1,-344(s0)
    40d8:	00b50533          	add	a0,a0,a1
    40dc:	401805bb          	subw	a1,a6,ra
    40e0:	40b5053b          	subw	a0,a0,a1
    40e4:	400005b7          	lui	a1,0x40000
    40e8:	88a43423          	sd	a0,-1912(s0)
    40ec:	98843603          	ld	a2,-1656(s0)
    40f0:	00055463          	bgez	a0,40f8 <.LBB69_136>
    40f4:	c00005b7          	lui	a1,0xc0000

00000000000040f8 <.LBB69_136>:
    40f8:	88b43023          	sd	a1,-1920(s0)
    40fc:	ea043503          	ld	a0,-352(s0)
    4100:	89043583          	ld	a1,-1904(s0)
    4104:	00a58533          	add	a0,a1,a0
    4108:	e9843583          	ld	a1,-360(s0)
    410c:	00b50533          	add	a0,a0,a1
    4110:	401805bb          	subw	a1,a6,ra
    4114:	40b5053b          	subw	a0,a0,a1
    4118:	400005b7          	lui	a1,0x40000
    411c:	88a43823          	sd	a0,-1904(s0)
    4120:	00055463          	bgez	a0,4128 <.LBB69_138>
    4124:	c00005b7          	lui	a1,0xc0000

0000000000004128 <.LBB69_138>:
    4128:	86b43c23          	sd	a1,-1928(s0)
    412c:	e9043503          	ld	a0,-368(s0)
    4130:	89843583          	ld	a1,-1896(s0)
    4134:	00a58533          	add	a0,a1,a0
    4138:	e8843583          	ld	a1,-376(s0)
    413c:	00b50533          	add	a0,a0,a1
    4140:	401805bb          	subw	a1,a6,ra
    4144:	40b5053b          	subw	a0,a0,a1
    4148:	400005b7          	lui	a1,0x40000
    414c:	88a43c23          	sd	a0,-1896(s0)
    4150:	00055463          	bgez	a0,4158 <.LBB69_140>
    4154:	c00005b7          	lui	a1,0xc0000

0000000000004158 <.LBB69_140>:
    4158:	86b43423          	sd	a1,-1944(s0)
    415c:	e8043503          	ld	a0,-384(s0)
    4160:	8a043583          	ld	a1,-1888(s0)
    4164:	00a58533          	add	a0,a1,a0
    4168:	e7843583          	ld	a1,-392(s0)
    416c:	00b50533          	add	a0,a0,a1
    4170:	401805bb          	subw	a1,a6,ra
    4174:	40b5053b          	subw	a0,a0,a1
    4178:	400005b7          	lui	a1,0x40000
    417c:	8aa43023          	sd	a0,-1888(s0)
    4180:	00055463          	bgez	a0,4188 <.LBB69_142>
    4184:	c00005b7          	lui	a1,0xc0000

0000000000004188 <.LBB69_142>:
    4188:	86b43023          	sd	a1,-1952(s0)
    418c:	e7043503          	ld	a0,-400(s0)
    4190:	8a843583          	ld	a1,-1880(s0)
    4194:	00a58533          	add	a0,a1,a0
    4198:	e6843583          	ld	a1,-408(s0)
    419c:	00b50533          	add	a0,a0,a1
    41a0:	401805bb          	subw	a1,a6,ra
    41a4:	40b5053b          	subw	a0,a0,a1
    41a8:	400005b7          	lui	a1,0x40000
    41ac:	8aa43423          	sd	a0,-1880(s0)
    41b0:	00055463          	bgez	a0,41b8 <.LBB69_144>
    41b4:	c00005b7          	lui	a1,0xc0000

00000000000041b8 <.LBB69_144>:
    41b8:	84b43c23          	sd	a1,-1960(s0)
    41bc:	00001537          	lui	a0,0x1
    41c0:	40a40533          	sub	a0,s0,a0
    41c4:	6c853503          	ld	a0,1736(a0) # 16c8 <.LBB69_5+0x2a8>
    41c8:	8b043583          	ld	a1,-1872(s0)
    41cc:	00a58533          	add	a0,a1,a0
    41d0:	000015b7          	lui	a1,0x1
    41d4:	40b405b3          	sub	a1,s0,a1
    41d8:	6c05b583          	ld	a1,1728(a1) # 16c0 <.LBB69_5+0x2a0>
    41dc:	00b50533          	add	a0,a0,a1
    41e0:	401805bb          	subw	a1,a6,ra
    41e4:	40b5053b          	subw	a0,a0,a1
    41e8:	400005b7          	lui	a1,0x40000
    41ec:	8aa43823          	sd	a0,-1872(s0)
    41f0:	00055463          	bgez	a0,41f8 <.LBB69_146>
    41f4:	c00005b7          	lui	a1,0xc0000

00000000000041f8 <.LBB69_146>:
    41f8:	84b43823          	sd	a1,-1968(s0)
    41fc:	00001537          	lui	a0,0x1
    4200:	40a40533          	sub	a0,s0,a0
    4204:	6b853503          	ld	a0,1720(a0) # 16b8 <.LBB69_5+0x298>
    4208:	8b843583          	ld	a1,-1864(s0)
    420c:	00a58533          	add	a0,a1,a0
    4210:	000015b7          	lui	a1,0x1
    4214:	40b405b3          	sub	a1,s0,a1
    4218:	6b05b583          	ld	a1,1712(a1) # 16b0 <.LBB69_5+0x290>
    421c:	00b50533          	add	a0,a0,a1
    4220:	401805bb          	subw	a1,a6,ra
    4224:	40b5053b          	subw	a0,a0,a1
    4228:	400005b7          	lui	a1,0x40000
    422c:	84a43023          	sd	a0,-1984(s0)
    4230:	00055463          	bgez	a0,4238 <.LBB69_148>
    4234:	c00005b7          	lui	a1,0xc0000

0000000000004238 <.LBB69_148>:
    4238:	00001537          	lui	a0,0x1
    423c:	40a40533          	sub	a0,s0,a0
    4240:	7cb53023          	sd	a1,1984(a0) # 17c0 <.LBB69_5+0x3a0>
    4244:	8c043503          	ld	a0,-1856(s0)
    4248:	000015b7          	lui	a1,0x1
    424c:	40b405b3          	sub	a1,s0,a1
    4250:	6a85b583          	ld	a1,1704(a1) # 16a8 <.LBB69_5+0x288>
    4254:	00b50533          	add	a0,a0,a1
    4258:	000015b7          	lui	a1,0x1
    425c:	40b405b3          	sub	a1,s0,a1
    4260:	6a05b583          	ld	a1,1696(a1) # 16a0 <.LBB69_5+0x280>
    4264:	00b50533          	add	a0,a0,a1
    4268:	401805bb          	subw	a1,a6,ra
    426c:	40b5053b          	subw	a0,a0,a1
    4270:	400005b7          	lui	a1,0x40000
    4274:	000012b7          	lui	t0,0x1
    4278:	405402b3          	sub	t0,s0,t0
    427c:	70a2b023          	sd	a0,1792(t0) # 1700 <.LBB69_5+0x2e0>
    4280:	00055463          	bgez	a0,4288 <.LBB69_150>
    4284:	c00005b7          	lui	a1,0xc0000

0000000000004288 <.LBB69_150>:
    4288:	00001537          	lui	a0,0x1
    428c:	40a40533          	sub	a0,s0,a0
    4290:	5cb53023          	sd	a1,1472(a0) # 15c0 <.LBB69_5+0x1a0>
    4294:	8c843503          	ld	a0,-1848(s0)
    4298:	000015b7          	lui	a1,0x1
    429c:	40b405b3          	sub	a1,s0,a1
    42a0:	6985b583          	ld	a1,1688(a1) # 1698 <.LBB69_5+0x278>
    42a4:	00b50533          	add	a0,a0,a1
    42a8:	000015b7          	lui	a1,0x1
    42ac:	40b405b3          	sub	a1,s0,a1
    42b0:	6905b583          	ld	a1,1680(a1) # 1690 <.LBB69_5+0x270>
    42b4:	00b50533          	add	a0,a0,a1
    42b8:	401805bb          	subw	a1,a6,ra
    42bc:	40b5053b          	subw	a0,a0,a1
    42c0:	400005b7          	lui	a1,0x40000
    42c4:	000012b7          	lui	t0,0x1
    42c8:	405402b3          	sub	t0,s0,t0
    42cc:	58a2b423          	sd	a0,1416(t0) # 1588 <.LBB69_5+0x168>
    42d0:	00055463          	bgez	a0,42d8 <.LBB69_152>
    42d4:	c00005b7          	lui	a1,0xc0000

00000000000042d8 <.LBB69_152>:
    42d8:	00001537          	lui	a0,0x1
    42dc:	40a40533          	sub	a0,s0,a0
    42e0:	56b53423          	sd	a1,1384(a0) # 1568 <.LBB69_5+0x148>
    42e4:	8d043503          	ld	a0,-1840(s0)
    42e8:	000015b7          	lui	a1,0x1
    42ec:	40b405b3          	sub	a1,s0,a1
    42f0:	6885b583          	ld	a1,1672(a1) # 1688 <.LBB69_5+0x268>
    42f4:	00b50533          	add	a0,a0,a1
    42f8:	000015b7          	lui	a1,0x1
    42fc:	40b405b3          	sub	a1,s0,a1
    4300:	6d05b583          	ld	a1,1744(a1) # 16d0 <.LBB69_5+0x2b0>
    4304:	00b50533          	add	a0,a0,a1
    4308:	401805bb          	subw	a1,a6,ra
    430c:	40b5053b          	subw	a0,a0,a1
    4310:	400005b7          	lui	a1,0x40000
    4314:	000012b7          	lui	t0,0x1
    4318:	405402b3          	sub	t0,s0,t0
    431c:	52a2bc23          	sd	a0,1336(t0) # 1538 <.LBB69_5+0x118>
    4320:	00055463          	bgez	a0,4328 <.LBB69_154>
    4324:	c00005b7          	lui	a1,0xc0000

0000000000004328 <.LBB69_154>:
    4328:	00001537          	lui	a0,0x1
    432c:	40a40533          	sub	a0,s0,a0
    4330:	50b53423          	sd	a1,1288(a0) # 1508 <.LBB69_5+0xe8>
    4334:	8d843503          	ld	a0,-1832(s0)
    4338:	eb843583          	ld	a1,-328(s0)
    433c:	00b50533          	add	a0,a0,a1
    4340:	000015b7          	lui	a1,0x1
    4344:	40b405b3          	sub	a1,s0,a1
    4348:	6d85b583          	ld	a1,1752(a1) # 16d8 <.LBB69_5+0x2b8>
    434c:	00b50533          	add	a0,a0,a1
    4350:	401805bb          	subw	a1,a6,ra
    4354:	40b5053b          	subw	a0,a0,a1
    4358:	400005b7          	lui	a1,0x40000
    435c:	000012b7          	lui	t0,0x1
    4360:	405402b3          	sub	t0,s0,t0
    4364:	4ca2bc23          	sd	a0,1240(t0) # 14d8 <.LBB69_5+0xb8>
    4368:	00055463          	bgez	a0,4370 <.LBB69_156>
    436c:	c00005b7          	lui	a1,0xc0000

0000000000004370 <.LBB69_156>:
    4370:	00001537          	lui	a0,0x1
    4374:	40a40533          	sub	a0,s0,a0
    4378:	4ab53823          	sd	a1,1200(a0) # 14b0 <.LBB69_5+0x90>
    437c:	8e043503          	ld	a0,-1824(s0)
    4380:	ec043583          	ld	a1,-320(s0)
    4384:	00b50533          	add	a0,a0,a1
    4388:	01b50533          	add	a0,a0,s11
    438c:	401805bb          	subw	a1,a6,ra
    4390:	40b5053b          	subw	a0,a0,a1
    4394:	400005b7          	lui	a1,0x40000
    4398:	000012b7          	lui	t0,0x1
    439c:	405402b3          	sub	t0,s0,t0
    43a0:	48a2b423          	sd	a0,1160(t0) # 1488 <.LBB69_5+0x68>
    43a4:	00055463          	bgez	a0,43ac <.LBB69_158>
    43a8:	c00005b7          	lui	a1,0xc0000

00000000000043ac <.LBB69_158>:
    43ac:	00001537          	lui	a0,0x1
    43b0:	40a40533          	sub	a0,s0,a0
    43b4:	46b53023          	sd	a1,1120(a0) # 1460 <.LBB69_5+0x40>
    43b8:	8e843503          	ld	a0,-1816(s0)
    43bc:	ec843583          	ld	a1,-312(s0)
    43c0:	00b50533          	add	a0,a0,a1
    43c4:	01a50533          	add	a0,a0,s10
    43c8:	401805bb          	subw	a1,a6,ra
    43cc:	40b5053b          	subw	a0,a0,a1
    43d0:	400005b7          	lui	a1,0x40000
    43d4:	000012b7          	lui	t0,0x1
    43d8:	405402b3          	sub	t0,s0,t0
    43dc:	42a2b823          	sd	a0,1072(t0) # 1430 <.LBB69_5+0x10>
    43e0:	00055463          	bgez	a0,43e8 <.LBB69_160>
    43e4:	c00005b7          	lui	a1,0xc0000

00000000000043e8 <.LBB69_160>:
    43e8:	00001537          	lui	a0,0x1
    43ec:	40a40533          	sub	a0,s0,a0
    43f0:	40b53823          	sd	a1,1040(a0) # 1410 <.LBB69_4+0x594>
    43f4:	8f043503          	ld	a0,-1808(s0)
    43f8:	ed043583          	ld	a1,-304(s0)
    43fc:	00b50533          	add	a0,a0,a1
    4400:	01950533          	add	a0,a0,s9
    4404:	401805bb          	subw	a1,a6,ra
    4408:	40b5053b          	subw	a0,a0,a1
    440c:	400005b7          	lui	a1,0x40000
    4410:	000012b7          	lui	t0,0x1
    4414:	405402b3          	sub	t0,s0,t0
    4418:	3ca2bc23          	sd	a0,984(t0) # 13d8 <.LBB69_4+0x55c>
    441c:	00055463          	bgez	a0,4424 <.LBB69_162>
    4420:	c00005b7          	lui	a1,0xc0000

0000000000004424 <.LBB69_162>:
    4424:	00001537          	lui	a0,0x1
    4428:	40a40533          	sub	a0,s0,a0
    442c:	3ab53823          	sd	a1,944(a0) # 13b0 <.LBB69_4+0x534>
    4430:	8f843503          	ld	a0,-1800(s0)
    4434:	ed843583          	ld	a1,-296(s0)
    4438:	00b50533          	add	a0,a0,a1
    443c:	01850533          	add	a0,a0,s8
    4440:	401805bb          	subw	a1,a6,ra
    4444:	40b5053b          	subw	a0,a0,a1
    4448:	400005b7          	lui	a1,0x40000
    444c:	000012b7          	lui	t0,0x1
    4450:	405402b3          	sub	t0,s0,t0
    4454:	36a2b823          	sd	a0,880(t0) # 1370 <.LBB69_4+0x4f4>
    4458:	00055463          	bgez	a0,4460 <.LBB69_164>
    445c:	c00005b7          	lui	a1,0xc0000

0000000000004460 <.LBB69_164>:
    4460:	00001537          	lui	a0,0x1
    4464:	40a40533          	sub	a0,s0,a0
    4468:	34b53423          	sd	a1,840(a0) # 1348 <.LBB69_4+0x4cc>
    446c:	90043503          	ld	a0,-1792(s0)
    4470:	ee043583          	ld	a1,-288(s0)
    4474:	00b50533          	add	a0,a0,a1
    4478:	01750533          	add	a0,a0,s7
    447c:	401805bb          	subw	a1,a6,ra
    4480:	40b5053b          	subw	a0,a0,a1
    4484:	400005b7          	lui	a1,0x40000
    4488:	000012b7          	lui	t0,0x1
    448c:	405402b3          	sub	t0,s0,t0
    4490:	30a2b423          	sd	a0,776(t0) # 1308 <.LBB69_4+0x48c>
    4494:	00055463          	bgez	a0,449c <.LBB69_166>
    4498:	c00005b7          	lui	a1,0xc0000

000000000000449c <.LBB69_166>:
    449c:	00001537          	lui	a0,0x1
    44a0:	40a40533          	sub	a0,s0,a0
    44a4:	2eb53023          	sd	a1,736(a0) # 12e0 <.LBB69_4+0x464>
    44a8:	90843503          	ld	a0,-1784(s0)
    44ac:	ee843583          	ld	a1,-280(s0)
    44b0:	00b50533          	add	a0,a0,a1
    44b4:	01650533          	add	a0,a0,s6
    44b8:	401805bb          	subw	a1,a6,ra
    44bc:	40b5053b          	subw	a0,a0,a1
    44c0:	400005b7          	lui	a1,0x40000
    44c4:	000012b7          	lui	t0,0x1
    44c8:	405402b3          	sub	t0,s0,t0
    44cc:	2aa2b023          	sd	a0,672(t0) # 12a0 <.LBB69_4+0x424>
    44d0:	00055463          	bgez	a0,44d8 <.LBB69_168>
    44d4:	c00005b7          	lui	a1,0xc0000

00000000000044d8 <.LBB69_168>:
    44d8:	00001537          	lui	a0,0x1
    44dc:	40a40533          	sub	a0,s0,a0
    44e0:	26b53823          	sd	a1,624(a0) # 1270 <.LBB69_4+0x3f4>
    44e4:	91043503          	ld	a0,-1776(s0)
    44e8:	ef043583          	ld	a1,-272(s0)
    44ec:	00b50533          	add	a0,a0,a1
    44f0:	01550533          	add	a0,a0,s5
    44f4:	401805bb          	subw	a1,a6,ra
    44f8:	40b5053b          	subw	a0,a0,a1
    44fc:	400005b7          	lui	a1,0x40000
    4500:	000012b7          	lui	t0,0x1
    4504:	405402b3          	sub	t0,s0,t0
    4508:	22a2b423          	sd	a0,552(t0) # 1228 <.LBB69_4+0x3ac>
    450c:	00055463          	bgez	a0,4514 <.LBB69_170>
    4510:	c00005b7          	lui	a1,0xc0000

0000000000004514 <.LBB69_170>:
    4514:	00001537          	lui	a0,0x1
    4518:	40a40533          	sub	a0,s0,a0
    451c:	1eb53c23          	sd	a1,504(a0) # 11f8 <.LBB69_4+0x37c>
    4520:	91843503          	ld	a0,-1768(s0)
    4524:	ef843583          	ld	a1,-264(s0)
    4528:	00b50533          	add	a0,a0,a1
    452c:	000015b7          	lui	a1,0x1
    4530:	40b405b3          	sub	a1,s0,a1
    4534:	7185b583          	ld	a1,1816(a1) # 1718 <.LBB69_5+0x2f8>
    4538:	00b50533          	add	a0,a0,a1
    453c:	401805bb          	subw	a1,a6,ra
    4540:	40b5053b          	subw	a0,a0,a1
    4544:	400005b7          	lui	a1,0x40000
    4548:	000012b7          	lui	t0,0x1
    454c:	405402b3          	sub	t0,s0,t0
    4550:	1aa2b823          	sd	a0,432(t0) # 11b0 <.LBB69_4+0x334>
    4554:	00055463          	bgez	a0,455c <.LBB69_172>
    4558:	c00005b7          	lui	a1,0xc0000

000000000000455c <.LBB69_172>:
    455c:	00001537          	lui	a0,0x1
    4560:	40a40533          	sub	a0,s0,a0
    4564:	18b53423          	sd	a1,392(a0) # 1188 <.LBB69_4+0x30c>
    4568:	92043503          	ld	a0,-1760(s0)
    456c:	f0043583          	ld	a1,-256(s0)
    4570:	00b50533          	add	a0,a0,a1
    4574:	01350533          	add	a0,a0,s3
    4578:	401805bb          	subw	a1,a6,ra
    457c:	40b5053b          	subw	a0,a0,a1
    4580:	400005b7          	lui	a1,0x40000
    4584:	000012b7          	lui	t0,0x1
    4588:	405402b3          	sub	t0,s0,t0
    458c:	12a2bc23          	sd	a0,312(t0) # 1138 <.LBB69_4+0x2bc>
    4590:	00055463          	bgez	a0,4598 <.LBB69_174>
    4594:	c00005b7          	lui	a1,0xc0000

0000000000004598 <.LBB69_174>:
    4598:	00001537          	lui	a0,0x1
    459c:	40a40533          	sub	a0,s0,a0
    45a0:	10b53423          	sd	a1,264(a0) # 1108 <.LBB69_4+0x28c>
    45a4:	92843503          	ld	a0,-1752(s0)
    45a8:	f0843583          	ld	a1,-248(s0)
    45ac:	00b50533          	add	a0,a0,a1
    45b0:	01250533          	add	a0,a0,s2
    45b4:	401805bb          	subw	a1,a6,ra
    45b8:	40b5053b          	subw	a0,a0,a1
    45bc:	400005b7          	lui	a1,0x40000
    45c0:	000012b7          	lui	t0,0x1
    45c4:	405402b3          	sub	t0,s0,t0
    45c8:	0ca2b023          	sd	a0,192(t0) # 10c0 <.LBB69_4+0x244>
    45cc:	00055463          	bgez	a0,45d4 <.LBB69_176>
    45d0:	c00005b7          	lui	a1,0xc0000

00000000000045d4 <.LBB69_176>:
    45d4:	00001537          	lui	a0,0x1
    45d8:	40a40533          	sub	a0,s0,a0
    45dc:	08b53823          	sd	a1,144(a0) # 1090 <.LBB69_4+0x214>
    45e0:	93043503          	ld	a0,-1744(s0)
    45e4:	f3843583          	ld	a1,-200(s0)
    45e8:	00b50533          	add	a0,a0,a1
    45ec:	000015b7          	lui	a1,0x1
    45f0:	40b405b3          	sub	a1,s0,a1
    45f4:	7305b583          	ld	a1,1840(a1) # 1730 <.LBB69_5+0x310>
    45f8:	00b50533          	add	a0,a0,a1
    45fc:	401805bb          	subw	a1,a6,ra
    4600:	40b5053b          	subw	a0,a0,a1
    4604:	400005b7          	lui	a1,0x40000
    4608:	000012b7          	lui	t0,0x1
    460c:	405402b3          	sub	t0,s0,t0
    4610:	04a2b423          	sd	a0,72(t0) # 1048 <.LBB69_4+0x1cc>
    4614:	00055463          	bgez	a0,461c <.LBB69_178>
    4618:	c00005b7          	lui	a1,0xc0000

000000000000461c <.LBB69_178>:
    461c:	00001537          	lui	a0,0x1
    4620:	40a40533          	sub	a0,s0,a0
    4624:	02b53023          	sd	a1,32(a0) # 1020 <.LBB69_4+0x1a4>
    4628:	93843503          	ld	a0,-1736(s0)
    462c:	f4043583          	ld	a1,-192(s0)
    4630:	00b50533          	add	a0,a0,a1
    4634:	000015b7          	lui	a1,0x1
    4638:	40b405b3          	sub	a1,s0,a1
    463c:	7385b583          	ld	a1,1848(a1) # 1738 <.LBB69_5+0x318>
    4640:	00b50533          	add	a0,a0,a1
    4644:	401805bb          	subw	a1,a6,ra
    4648:	40b5053b          	subw	a0,a0,a1
    464c:	400005b7          	lui	a1,0x40000
    4650:	000012b7          	lui	t0,0x1
    4654:	405402b3          	sub	t0,s0,t0
    4658:	fca2bc23          	sd	a0,-40(t0) # fd8 <.LBB69_4+0x15c>
    465c:	00055463          	bgez	a0,4664 <.LBB69_180>
    4660:	c00005b7          	lui	a1,0xc0000

0000000000004664 <.LBB69_180>:
    4664:	00001537          	lui	a0,0x1
    4668:	40a40533          	sub	a0,s0,a0
    466c:	fab53423          	sd	a1,-88(a0) # fa8 <.LBB69_4+0x12c>
    4670:	94043503          	ld	a0,-1728(s0)
    4674:	f4843583          	ld	a1,-184(s0)
    4678:	00b50533          	add	a0,a0,a1
    467c:	000015b7          	lui	a1,0x1
    4680:	40b405b3          	sub	a1,s0,a1
    4684:	7405b583          	ld	a1,1856(a1) # 1740 <.LBB69_5+0x320>
    4688:	00b50533          	add	a0,a0,a1
    468c:	401805bb          	subw	a1,a6,ra
    4690:	40b5053b          	subw	a0,a0,a1
    4694:	400005b7          	lui	a1,0x40000
    4698:	000012b7          	lui	t0,0x1
    469c:	405402b3          	sub	t0,s0,t0
    46a0:	f6a2b023          	sd	a0,-160(t0) # f60 <.LBB69_4+0xe4>
    46a4:	00055463          	bgez	a0,46ac <.LBB69_182>
    46a8:	c00005b7          	lui	a1,0xc0000

00000000000046ac <.LBB69_182>:
    46ac:	00001537          	lui	a0,0x1
    46b0:	40a40533          	sub	a0,s0,a0
    46b4:	f2b53c23          	sd	a1,-200(a0) # f38 <.LBB69_4+0xbc>
    46b8:	94843503          	ld	a0,-1720(s0)
    46bc:	f5043583          	ld	a1,-176(s0)
    46c0:	00b50533          	add	a0,a0,a1
    46c4:	01e50533          	add	a0,a0,t5
    46c8:	401805bb          	subw	a1,a6,ra
    46cc:	40b5053b          	subw	a0,a0,a1
    46d0:	400005b7          	lui	a1,0x40000
    46d4:	000012b7          	lui	t0,0x1
    46d8:	405402b3          	sub	t0,s0,t0
    46dc:	eea2b823          	sd	a0,-272(t0) # ef0 <.LBB69_4+0x74>
    46e0:	00055463          	bgez	a0,46e8 <.LBB69_184>
    46e4:	c00005b7          	lui	a1,0xc0000

00000000000046e8 <.LBB69_184>:
    46e8:	00001537          	lui	a0,0x1
    46ec:	40a40533          	sub	a0,s0,a0
    46f0:	eab53c23          	sd	a1,-328(a0) # eb8 <.LBB69_4+0x3c>
    46f4:	95043503          	ld	a0,-1712(s0)
    46f8:	f5843583          	ld	a1,-168(s0)
    46fc:	00b50533          	add	a0,a0,a1
    4700:	01c50533          	add	a0,a0,t3
    4704:	401805bb          	subw	a1,a6,ra
    4708:	40b5053b          	subw	a0,a0,a1
    470c:	400005b7          	lui	a1,0x40000
    4710:	000012b7          	lui	t0,0x1
    4714:	405402b3          	sub	t0,s0,t0
    4718:	e6a2b823          	sd	a0,-400(t0) # e70 <.LBB69_3+0xc48>
    471c:	00055463          	bgez	a0,4724 <.LBB69_186>
    4720:	c00005b7          	lui	a1,0xc0000

0000000000004724 <.LBB69_186>:
    4724:	00001537          	lui	a0,0x1
    4728:	40a40533          	sub	a0,s0,a0
    472c:	e4b53023          	sd	a1,-448(a0) # e40 <.LBB69_3+0xc18>
    4730:	95843503          	ld	a0,-1704(s0)
    4734:	f6043583          	ld	a1,-160(s0)
    4738:	00b50533          	add	a0,a0,a1
    473c:	00750533          	add	a0,a0,t2
    4740:	401805bb          	subw	a1,a6,ra
    4744:	40b5053b          	subw	a0,a0,a1
    4748:	400005b7          	lui	a1,0x40000
    474c:	000012b7          	lui	t0,0x1
    4750:	405402b3          	sub	t0,s0,t0
    4754:	dea2bc23          	sd	a0,-520(t0) # df8 <.LBB69_3+0xbd0>
    4758:	00055463          	bgez	a0,4760 <.LBB69_188>
    475c:	c00005b7          	lui	a1,0xc0000

0000000000004760 <.LBB69_188>:
    4760:	00001537          	lui	a0,0x1
    4764:	40a40533          	sub	a0,s0,a0
    4768:	dcb53023          	sd	a1,-576(a0) # dc0 <.LBB69_3+0xb98>
    476c:	96043503          	ld	a0,-1696(s0)
    4770:	f6843583          	ld	a1,-152(s0)
    4774:	00b50533          	add	a0,a0,a1
    4778:	00650533          	add	a0,a0,t1
    477c:	401805bb          	subw	a1,a6,ra
    4780:	40b5053b          	subw	a0,a0,a1
    4784:	400005b7          	lui	a1,0x40000
    4788:	000012b7          	lui	t0,0x1
    478c:	405402b3          	sub	t0,s0,t0
    4790:	d6a2bc23          	sd	a0,-648(t0) # d78 <.LBB69_3+0xb50>
    4794:	00055463          	bgez	a0,479c <.LBB69_190>
    4798:	c00005b7          	lui	a1,0xc0000

000000000000479c <.LBB69_190>:
    479c:	00001537          	lui	a0,0x1
    47a0:	40a40533          	sub	a0,s0,a0
    47a4:	d4b53423          	sd	a1,-696(a0) # d48 <.LBB69_3+0xb20>
    47a8:	96843503          	ld	a0,-1688(s0)
    47ac:	f7043583          	ld	a1,-144(s0)
    47b0:	00b50533          	add	a0,a0,a1
    47b4:	01f50533          	add	a0,a0,t6
    47b8:	401805bb          	subw	a1,a6,ra
    47bc:	40b5053b          	subw	a0,a0,a1
    47c0:	400005b7          	lui	a1,0x40000
    47c4:	000012b7          	lui	t0,0x1
    47c8:	405402b3          	sub	t0,s0,t0
    47cc:	d0a2b023          	sd	a0,-768(t0) # d00 <.LBB69_3+0xad8>
    47d0:	00055463          	bgez	a0,47d8 <.LBB69_192>
    47d4:	c00005b7          	lui	a1,0xc0000

00000000000047d8 <.LBB69_192>:
    47d8:	00001537          	lui	a0,0x1
    47dc:	40a40533          	sub	a0,s0,a0
    47e0:	ccb53c23          	sd	a1,-808(a0) # cd8 <.LBB69_3+0xab0>
    47e4:	f7843503          	ld	a0,-136(s0)
    47e8:	00aa0533          	add	a0,s4,a0
    47ec:	000015b7          	lui	a1,0x1
    47f0:	40b405b3          	sub	a1,s0,a1
    47f4:	7705ba03          	ld	s4,1904(a1) # 1770 <.LBB69_5+0x350>
    47f8:	01450533          	add	a0,a0,s4
    47fc:	401805bb          	subw	a1,a6,ra
    4800:	40b505bb          	subw	a1,a0,a1
    4804:	40000537          	lui	a0,0x40000
    4808:	000012b7          	lui	t0,0x1
    480c:	405402b3          	sub	t0,s0,t0
    4810:	beb2bc23          	sd	a1,-1032(t0) # bf8 <.LBB69_3+0x9d0>
    4814:	0005d463          	bgez	a1,481c <.LBB69_194>
    4818:	c0000537          	lui	a0,0xc0000

000000000000481c <.LBB69_194>:
    481c:	000015b7          	lui	a1,0x1
    4820:	40b405b3          	sub	a1,s0,a1
    4824:	c8a5b423          	sd	a0,-888(a1) # c88 <.LBB69_3+0xa60>
    4828:	f8043503          	ld	a0,-128(s0)
    482c:	00a88533          	add	a0,a7,a0
    4830:	00950533          	add	a0,a0,s1
    4834:	401805bb          	subw	a1,a6,ra
    4838:	40b505bb          	subw	a1,a0,a1
    483c:	40000537          	lui	a0,0x40000
    4840:	000018b7          	lui	a7,0x1
    4844:	411408b3          	sub	a7,s0,a7
    4848:	beb8b823          	sd	a1,-1040(a7) # bf0 <.LBB69_3+0x9c8>
    484c:	0005d463          	bgez	a1,4854 <.LBB69_196>
    4850:	c0000537          	lui	a0,0xc0000

0000000000004854 <.LBB69_196>:
    4854:	000015b7          	lui	a1,0x1
    4858:	40b405b3          	sub	a1,s0,a1
    485c:	c2a5bc23          	sd	a0,-968(a1) # c38 <.LBB69_3+0xa10>
    4860:	f8843503          	ld	a0,-120(s0)
    4864:	98043583          	ld	a1,-1664(s0)
    4868:	00a58533          	add	a0,a1,a0
    486c:	01d50533          	add	a0,a0,t4
    4870:	401805bb          	subw	a1,a6,ra
    4874:	40b5053b          	subw	a0,a0,a1
    4878:	400005b7          	lui	a1,0x40000
    487c:	00001837          	lui	a6,0x1
    4880:	41040833          	sub	a6,s0,a6
    4884:	baa83c23          	sd	a0,-1096(a6) # bb8 <.LBB69_3+0x990>
    4888:	00001837          	lui	a6,0x1
    488c:	41040833          	sub	a6,s0,a6
    4890:	5a883883          	ld	a7,1448(a6) # 15a8 <.LBB69_5+0x188>
    4894:	00055463          	bgez	a0,489c <.LBB69_198>
    4898:	c00005b7          	lui	a1,0xc0000

000000000000489c <.LBB69_198>:
    489c:	00001537          	lui	a0,0x1
    48a0:	40a40533          	sub	a0,s0,a0
    48a4:	b8b53c23          	sd	a1,-1128(a0) # b98 <.LBB69_3+0x970>
    48a8:	eb043503          	ld	a0,-336(s0)
    48ac:	00a60533          	add	a0,a2,a0
    48b0:	ea843583          	ld	a1,-344(s0)
    48b4:	00b50533          	add	a0,a0,a1
    48b8:	401785bb          	subw	a1,a5,ra
    48bc:	40b5053b          	subw	a0,a0,a1
    48c0:	40000637          	lui	a2,0x40000
    48c4:	c8043803          	ld	a6,-896(s0)
    48c8:	98a43423          	sd	a0,-1656(s0)
    48cc:	00055463          	bgez	a0,48d4 <.LBB69_200>
    48d0:	c0000637          	lui	a2,0xc0000

00000000000048d4 <.LBB69_200>:
    48d4:	99043503          	ld	a0,-1648(s0)
    48d8:	ea043583          	ld	a1,-352(s0)
    48dc:	00b50533          	add	a0,a0,a1
    48e0:	e9843583          	ld	a1,-360(s0)
    48e4:	00b50533          	add	a0,a0,a1
    48e8:	401785bb          	subw	a1,a5,ra
    48ec:	40b5053b          	subw	a0,a0,a1
    48f0:	400005b7          	lui	a1,0x40000
    48f4:	98a43823          	sd	a0,-1648(s0)
    48f8:	00055463          	bgez	a0,4900 <.LBB69_202>
    48fc:	c00005b7          	lui	a1,0xc0000

0000000000004900 <.LBB69_202>:
    4900:	98b43023          	sd	a1,-1664(s0)
    4904:	99843503          	ld	a0,-1640(s0)
    4908:	e9043583          	ld	a1,-368(s0)
    490c:	00b50533          	add	a0,a0,a1
    4910:	e8843583          	ld	a1,-376(s0)
    4914:	00b50533          	add	a0,a0,a1
    4918:	401785bb          	subw	a1,a5,ra
    491c:	40b5053b          	subw	a0,a0,a1
    4920:	400005b7          	lui	a1,0x40000
    4924:	98a43c23          	sd	a0,-1640(s0)
    4928:	00055463          	bgez	a0,4930 <.LBB69_204>
    492c:	c00005b7          	lui	a1,0xc0000

0000000000004930 <.LBB69_204>:
    4930:	96b43c23          	sd	a1,-1672(s0)
    4934:	9a043503          	ld	a0,-1632(s0)
    4938:	e8043583          	ld	a1,-384(s0)
    493c:	00b50533          	add	a0,a0,a1
    4940:	e7843583          	ld	a1,-392(s0)
    4944:	00b50533          	add	a0,a0,a1
    4948:	401785bb          	subw	a1,a5,ra
    494c:	40b5053b          	subw	a0,a0,a1
    4950:	400005b7          	lui	a1,0x40000
    4954:	96a43823          	sd	a0,-1680(s0)
    4958:	00055463          	bgez	a0,4960 <.LBB69_206>
    495c:	c00005b7          	lui	a1,0xc0000

0000000000004960 <.LBB69_206>:
    4960:	94b43c23          	sd	a1,-1704(s0)
    4964:	9a843503          	ld	a0,-1624(s0)
    4968:	e7043583          	ld	a1,-400(s0)
    496c:	00b50533          	add	a0,a0,a1
    4970:	e6843583          	ld	a1,-408(s0)
    4974:	00b50533          	add	a0,a0,a1
    4978:	401785bb          	subw	a1,a5,ra
    497c:	40b5053b          	subw	a0,a0,a1
    4980:	400005b7          	lui	a1,0x40000
    4984:	92a43c23          	sd	a0,-1736(s0)
    4988:	00055463          	bgez	a0,4990 <.LBB69_208>
    498c:	c00005b7          	lui	a1,0xc0000

0000000000004990 <.LBB69_208>:
    4990:	90b43c23          	sd	a1,-1768(s0)
    4994:	9b043503          	ld	a0,-1616(s0)
    4998:	000015b7          	lui	a1,0x1
    499c:	40b405b3          	sub	a1,s0,a1
    49a0:	6c85b583          	ld	a1,1736(a1) # 16c8 <.LBB69_5+0x2a8>
    49a4:	00b50533          	add	a0,a0,a1
    49a8:	000015b7          	lui	a1,0x1
    49ac:	40b405b3          	sub	a1,s0,a1
    49b0:	6c05b583          	ld	a1,1728(a1) # 16c0 <.LBB69_5+0x2a0>
    49b4:	00b50533          	add	a0,a0,a1
    49b8:	401785bb          	subw	a1,a5,ra
    49bc:	40b5053b          	subw	a0,a0,a1
    49c0:	400005b7          	lui	a1,0x40000
    49c4:	8ea43023          	sd	a0,-1824(s0)
    49c8:	00055463          	bgez	a0,49d0 <.LBB69_210>
    49cc:	c00005b7          	lui	a1,0xc0000

00000000000049d0 <.LBB69_210>:
    49d0:	8cb43423          	sd	a1,-1848(s0)
    49d4:	9b843503          	ld	a0,-1608(s0)
    49d8:	000015b7          	lui	a1,0x1
    49dc:	40b405b3          	sub	a1,s0,a1
    49e0:	6b85b583          	ld	a1,1720(a1) # 16b8 <.LBB69_5+0x298>
    49e4:	00b50533          	add	a0,a0,a1
    49e8:	000015b7          	lui	a1,0x1
    49ec:	40b405b3          	sub	a1,s0,a1
    49f0:	6b05b583          	ld	a1,1712(a1) # 16b0 <.LBB69_5+0x290>
    49f4:	00b50533          	add	a0,a0,a1
    49f8:	401785bb          	subw	a1,a5,ra
    49fc:	40b5053b          	subw	a0,a0,a1
    4a00:	400005b7          	lui	a1,0x40000
    4a04:	000012b7          	lui	t0,0x1
    4a08:	405402b3          	sub	t0,s0,t0
    4a0c:	7ea2b023          	sd	a0,2016(t0) # 17e0 <.LBB69_5+0x3c0>
    4a10:	00055463          	bgez	a0,4a18 <.LBB69_212>
    4a14:	c00005b7          	lui	a1,0xc0000

0000000000004a18 <.LBB69_212>:
    4a18:	00001537          	lui	a0,0x1
    4a1c:	40a40533          	sub	a0,s0,a0
    4a20:	74b53423          	sd	a1,1864(a0) # 1748 <.LBB69_5+0x328>
    4a24:	9c043503          	ld	a0,-1600(s0)
    4a28:	000015b7          	lui	a1,0x1
    4a2c:	40b405b3          	sub	a1,s0,a1
    4a30:	6a85b583          	ld	a1,1704(a1) # 16a8 <.LBB69_5+0x288>
    4a34:	00b50533          	add	a0,a0,a1
    4a38:	000015b7          	lui	a1,0x1
    4a3c:	40b405b3          	sub	a1,s0,a1
    4a40:	6a05b583          	ld	a1,1696(a1) # 16a0 <.LBB69_5+0x280>
    4a44:	00b50533          	add	a0,a0,a1
    4a48:	401785bb          	subw	a1,a5,ra
    4a4c:	40b5053b          	subw	a0,a0,a1
    4a50:	400005b7          	lui	a1,0x40000
    4a54:	000012b7          	lui	t0,0x1
    4a58:	405402b3          	sub	t0,s0,t0
    4a5c:	6ea2bc23          	sd	a0,1784(t0) # 16f8 <.LBB69_5+0x2d8>
    4a60:	00055463          	bgez	a0,4a68 <.LBB69_214>
    4a64:	c00005b7          	lui	a1,0xc0000

0000000000004a68 <.LBB69_214>:
    4a68:	00001537          	lui	a0,0x1
    4a6c:	40a40533          	sub	a0,s0,a0
    4a70:	5ab53c23          	sd	a1,1464(a0) # 15b8 <.LBB69_5+0x198>
    4a74:	9c843503          	ld	a0,-1592(s0)
    4a78:	000015b7          	lui	a1,0x1
    4a7c:	40b405b3          	sub	a1,s0,a1
    4a80:	6985b583          	ld	a1,1688(a1) # 1698 <.LBB69_5+0x278>
    4a84:	00b50533          	add	a0,a0,a1
    4a88:	000015b7          	lui	a1,0x1
    4a8c:	40b405b3          	sub	a1,s0,a1
    4a90:	6905b583          	ld	a1,1680(a1) # 1690 <.LBB69_5+0x270>
    4a94:	00b50533          	add	a0,a0,a1
    4a98:	401785bb          	subw	a1,a5,ra
    4a9c:	40b5053b          	subw	a0,a0,a1
    4aa0:	400005b7          	lui	a1,0x40000
    4aa4:	9ca43423          	sd	a0,-1592(s0)
    4aa8:	00055463          	bgez	a0,4ab0 <.LBB69_216>
    4aac:	c00005b7          	lui	a1,0xc0000

0000000000004ab0 <.LBB69_216>:
    4ab0:	00001537          	lui	a0,0x1
    4ab4:	40a40533          	sub	a0,s0,a0
    4ab8:	56b53023          	sd	a1,1376(a0) # 1560 <.LBB69_5+0x140>
    4abc:	9d043503          	ld	a0,-1584(s0)
    4ac0:	000015b7          	lui	a1,0x1
    4ac4:	40b405b3          	sub	a1,s0,a1
    4ac8:	6885b583          	ld	a1,1672(a1) # 1688 <.LBB69_5+0x268>
    4acc:	00b50533          	add	a0,a0,a1
    4ad0:	000015b7          	lui	a1,0x1
    4ad4:	40b405b3          	sub	a1,s0,a1
    4ad8:	6d05b583          	ld	a1,1744(a1) # 16d0 <.LBB69_5+0x2b0>
    4adc:	00b50533          	add	a0,a0,a1
    4ae0:	401785bb          	subw	a1,a5,ra
    4ae4:	40b5053b          	subw	a0,a0,a1
    4ae8:	400005b7          	lui	a1,0x40000
    4aec:	000012b7          	lui	t0,0x1
    4af0:	405402b3          	sub	t0,s0,t0
    4af4:	52a2b823          	sd	a0,1328(t0) # 1530 <.LBB69_5+0x110>
    4af8:	00055463          	bgez	a0,4b00 <.LBB69_218>
    4afc:	c00005b7          	lui	a1,0xc0000

0000000000004b00 <.LBB69_218>:
    4b00:	00001537          	lui	a0,0x1
    4b04:	40a40533          	sub	a0,s0,a0
    4b08:	50b53023          	sd	a1,1280(a0) # 1500 <.LBB69_5+0xe0>
    4b0c:	9d843503          	ld	a0,-1576(s0)
    4b10:	eb843583          	ld	a1,-328(s0)
    4b14:	00b50533          	add	a0,a0,a1
    4b18:	000015b7          	lui	a1,0x1
    4b1c:	40b405b3          	sub	a1,s0,a1
    4b20:	6d85b583          	ld	a1,1752(a1) # 16d8 <.LBB69_5+0x2b8>
    4b24:	00b50533          	add	a0,a0,a1
    4b28:	401785bb          	subw	a1,a5,ra
    4b2c:	40b5053b          	subw	a0,a0,a1
    4b30:	400005b7          	lui	a1,0x40000
    4b34:	9ca43c23          	sd	a0,-1576(s0)
    4b38:	00055463          	bgez	a0,4b40 <.LBB69_220>
    4b3c:	c00005b7          	lui	a1,0xc0000

0000000000004b40 <.LBB69_220>:
    4b40:	00001537          	lui	a0,0x1
    4b44:	40a40533          	sub	a0,s0,a0
    4b48:	4ab53423          	sd	a1,1192(a0) # 14a8 <.LBB69_5+0x88>
    4b4c:	9e043503          	ld	a0,-1568(s0)
    4b50:	ec043583          	ld	a1,-320(s0)
    4b54:	00b50533          	add	a0,a0,a1
    4b58:	01b50533          	add	a0,a0,s11
    4b5c:	401785bb          	subw	a1,a5,ra
    4b60:	40b5053b          	subw	a0,a0,a1
    4b64:	400005b7          	lui	a1,0x40000
    4b68:	9ea43023          	sd	a0,-1568(s0)
    4b6c:	00055463          	bgez	a0,4b74 <.LBB69_222>
    4b70:	c00005b7          	lui	a1,0xc0000

0000000000004b74 <.LBB69_222>:
    4b74:	00001537          	lui	a0,0x1
    4b78:	40a40533          	sub	a0,s0,a0
    4b7c:	44b53c23          	sd	a1,1112(a0) # 1458 <.LBB69_5+0x38>
    4b80:	9e843503          	ld	a0,-1560(s0)
    4b84:	ec843583          	ld	a1,-312(s0)
    4b88:	00b50533          	add	a0,a0,a1
    4b8c:	01a50533          	add	a0,a0,s10
    4b90:	401785bb          	subw	a1,a5,ra
    4b94:	40b5053b          	subw	a0,a0,a1
    4b98:	400005b7          	lui	a1,0x40000
    4b9c:	9ea43423          	sd	a0,-1560(s0)
    4ba0:	00055463          	bgez	a0,4ba8 <.LBB69_224>
    4ba4:	c00005b7          	lui	a1,0xc0000

0000000000004ba8 <.LBB69_224>:
    4ba8:	00001537          	lui	a0,0x1
    4bac:	40a40533          	sub	a0,s0,a0
    4bb0:	40b53423          	sd	a1,1032(a0) # 1408 <.LBB69_4+0x58c>
    4bb4:	9f043503          	ld	a0,-1552(s0)
    4bb8:	ed043583          	ld	a1,-304(s0)
    4bbc:	00b50533          	add	a0,a0,a1
    4bc0:	01950533          	add	a0,a0,s9
    4bc4:	401785bb          	subw	a1,a5,ra
    4bc8:	40b5053b          	subw	a0,a0,a1
    4bcc:	400005b7          	lui	a1,0x40000
    4bd0:	9ea43823          	sd	a0,-1552(s0)
    4bd4:	00055463          	bgez	a0,4bdc <.LBB69_226>
    4bd8:	c00005b7          	lui	a1,0xc0000

0000000000004bdc <.LBB69_226>:
    4bdc:	00001537          	lui	a0,0x1
    4be0:	40a40533          	sub	a0,s0,a0
    4be4:	3ab53423          	sd	a1,936(a0) # 13a8 <.LBB69_4+0x52c>
    4be8:	9f843503          	ld	a0,-1544(s0)
    4bec:	ed843583          	ld	a1,-296(s0)
    4bf0:	00b50533          	add	a0,a0,a1
    4bf4:	01850533          	add	a0,a0,s8
    4bf8:	401785bb          	subw	a1,a5,ra
    4bfc:	40b5053b          	subw	a0,a0,a1
    4c00:	400005b7          	lui	a1,0x40000
    4c04:	9ea43c23          	sd	a0,-1544(s0)
    4c08:	00055463          	bgez	a0,4c10 <.LBB69_228>
    4c0c:	c00005b7          	lui	a1,0xc0000

0000000000004c10 <.LBB69_228>:
    4c10:	00001537          	lui	a0,0x1
    4c14:	40a40533          	sub	a0,s0,a0
    4c18:	34b53023          	sd	a1,832(a0) # 1340 <.LBB69_4+0x4c4>
    4c1c:	a0043503          	ld	a0,-1536(s0)
    4c20:	ee043583          	ld	a1,-288(s0)
    4c24:	00b50533          	add	a0,a0,a1
    4c28:	01750533          	add	a0,a0,s7
    4c2c:	401785bb          	subw	a1,a5,ra
    4c30:	40b5053b          	subw	a0,a0,a1
    4c34:	400005b7          	lui	a1,0x40000
    4c38:	a0a43023          	sd	a0,-1536(s0)
    4c3c:	00055463          	bgez	a0,4c44 <.LBB69_230>
    4c40:	c00005b7          	lui	a1,0xc0000

0000000000004c44 <.LBB69_230>:
    4c44:	00001537          	lui	a0,0x1
    4c48:	40a40533          	sub	a0,s0,a0
    4c4c:	2cb53c23          	sd	a1,728(a0) # 12d8 <.LBB69_4+0x45c>
    4c50:	a0843503          	ld	a0,-1528(s0)
    4c54:	ee843583          	ld	a1,-280(s0)
    4c58:	00b50533          	add	a0,a0,a1
    4c5c:	01650533          	add	a0,a0,s6
    4c60:	401785bb          	subw	a1,a5,ra
    4c64:	40b5053b          	subw	a0,a0,a1
    4c68:	400005b7          	lui	a1,0x40000
    4c6c:	000012b7          	lui	t0,0x1
    4c70:	405402b3          	sub	t0,s0,t0
    4c74:	28a2bc23          	sd	a0,664(t0) # 1298 <.LBB69_4+0x41c>
    4c78:	00055463          	bgez	a0,4c80 <.LBB69_232>
    4c7c:	c00005b7          	lui	a1,0xc0000

0000000000004c80 <.LBB69_232>:
    4c80:	00001537          	lui	a0,0x1
    4c84:	40a40533          	sub	a0,s0,a0
    4c88:	26b53423          	sd	a1,616(a0) # 1268 <.LBB69_4+0x3ec>
    4c8c:	a1043503          	ld	a0,-1520(s0)
    4c90:	ef043583          	ld	a1,-272(s0)
    4c94:	00b50533          	add	a0,a0,a1
    4c98:	01550533          	add	a0,a0,s5
    4c9c:	401785bb          	subw	a1,a5,ra
    4ca0:	40b5053b          	subw	a0,a0,a1
    4ca4:	400005b7          	lui	a1,0x40000
    4ca8:	000012b7          	lui	t0,0x1
    4cac:	405402b3          	sub	t0,s0,t0
    4cb0:	22a2b023          	sd	a0,544(t0) # 1220 <.LBB69_4+0x3a4>
    4cb4:	00055463          	bgez	a0,4cbc <.LBB69_234>
    4cb8:	c00005b7          	lui	a1,0xc0000

0000000000004cbc <.LBB69_234>:
    4cbc:	00001537          	lui	a0,0x1
    4cc0:	40a40533          	sub	a0,s0,a0
    4cc4:	1eb53823          	sd	a1,496(a0) # 11f0 <.LBB69_4+0x374>
    4cc8:	a1843503          	ld	a0,-1512(s0)
    4ccc:	ef843583          	ld	a1,-264(s0)
    4cd0:	00b50533          	add	a0,a0,a1
    4cd4:	000015b7          	lui	a1,0x1
    4cd8:	40b405b3          	sub	a1,s0,a1
    4cdc:	7185b583          	ld	a1,1816(a1) # 1718 <.LBB69_5+0x2f8>
    4ce0:	00b50533          	add	a0,a0,a1
    4ce4:	401785bb          	subw	a1,a5,ra
    4ce8:	40b5053b          	subw	a0,a0,a1
    4cec:	400005b7          	lui	a1,0x40000
    4cf0:	000012b7          	lui	t0,0x1
    4cf4:	405402b3          	sub	t0,s0,t0
    4cf8:	1aa2b423          	sd	a0,424(t0) # 11a8 <.LBB69_4+0x32c>
    4cfc:	00055463          	bgez	a0,4d04 <.LBB69_236>
    4d00:	c00005b7          	lui	a1,0xc0000

0000000000004d04 <.LBB69_236>:
    4d04:	00001537          	lui	a0,0x1
    4d08:	40a40533          	sub	a0,s0,a0
    4d0c:	18b53023          	sd	a1,384(a0) # 1180 <.LBB69_4+0x304>
    4d10:	a2043503          	ld	a0,-1504(s0)
    4d14:	f0043583          	ld	a1,-256(s0)
    4d18:	00b50533          	add	a0,a0,a1
    4d1c:	01350533          	add	a0,a0,s3
    4d20:	401785bb          	subw	a1,a5,ra
    4d24:	40b5053b          	subw	a0,a0,a1
    4d28:	400005b7          	lui	a1,0x40000
    4d2c:	000012b7          	lui	t0,0x1
    4d30:	405402b3          	sub	t0,s0,t0
    4d34:	12a2b823          	sd	a0,304(t0) # 1130 <.LBB69_4+0x2b4>
    4d38:	00055463          	bgez	a0,4d40 <.LBB69_238>
    4d3c:	c00005b7          	lui	a1,0xc0000

0000000000004d40 <.LBB69_238>:
    4d40:	00001537          	lui	a0,0x1
    4d44:	40a40533          	sub	a0,s0,a0
    4d48:	10b53023          	sd	a1,256(a0) # 1100 <.LBB69_4+0x284>
    4d4c:	a2843503          	ld	a0,-1496(s0)
    4d50:	f0843583          	ld	a1,-248(s0)
    4d54:	00b50533          	add	a0,a0,a1
    4d58:	01250533          	add	a0,a0,s2
    4d5c:	401785bb          	subw	a1,a5,ra
    4d60:	40b5053b          	subw	a0,a0,a1
    4d64:	400005b7          	lui	a1,0x40000
    4d68:	000012b7          	lui	t0,0x1
    4d6c:	405402b3          	sub	t0,s0,t0
    4d70:	0aa2bc23          	sd	a0,184(t0) # 10b8 <.LBB69_4+0x23c>
    4d74:	00055463          	bgez	a0,4d7c <.LBB69_240>
    4d78:	c00005b7          	lui	a1,0xc0000

0000000000004d7c <.LBB69_240>:
    4d7c:	00001537          	lui	a0,0x1
    4d80:	40a40533          	sub	a0,s0,a0
    4d84:	08b53423          	sd	a1,136(a0) # 1088 <.LBB69_4+0x20c>
    4d88:	a3043503          	ld	a0,-1488(s0)
    4d8c:	f3843583          	ld	a1,-200(s0)
    4d90:	00b50533          	add	a0,a0,a1
    4d94:	000015b7          	lui	a1,0x1
    4d98:	40b405b3          	sub	a1,s0,a1
    4d9c:	7305b583          	ld	a1,1840(a1) # 1730 <.LBB69_5+0x310>
    4da0:	00b50533          	add	a0,a0,a1
    4da4:	401785bb          	subw	a1,a5,ra
    4da8:	40b5053b          	subw	a0,a0,a1
    4dac:	400005b7          	lui	a1,0x40000
    4db0:	000012b7          	lui	t0,0x1
    4db4:	405402b3          	sub	t0,s0,t0
    4db8:	04a2b023          	sd	a0,64(t0) # 1040 <.LBB69_4+0x1c4>
    4dbc:	00055463          	bgez	a0,4dc4 <.LBB69_242>
    4dc0:	c00005b7          	lui	a1,0xc0000

0000000000004dc4 <.LBB69_242>:
    4dc4:	00001537          	lui	a0,0x1
    4dc8:	40a40533          	sub	a0,s0,a0
    4dcc:	00b53c23          	sd	a1,24(a0) # 1018 <.LBB69_4+0x19c>
    4dd0:	a3843503          	ld	a0,-1480(s0)
    4dd4:	f4043583          	ld	a1,-192(s0)
    4dd8:	00b50533          	add	a0,a0,a1
    4ddc:	000015b7          	lui	a1,0x1
    4de0:	40b405b3          	sub	a1,s0,a1
    4de4:	7385b583          	ld	a1,1848(a1) # 1738 <.LBB69_5+0x318>
    4de8:	00b50533          	add	a0,a0,a1
    4dec:	401785bb          	subw	a1,a5,ra
    4df0:	40b5053b          	subw	a0,a0,a1
    4df4:	400005b7          	lui	a1,0x40000
    4df8:	000012b7          	lui	t0,0x1
    4dfc:	405402b3          	sub	t0,s0,t0
    4e00:	fca2b823          	sd	a0,-48(t0) # fd0 <.LBB69_4+0x154>
    4e04:	00055463          	bgez	a0,4e0c <.LBB69_244>
    4e08:	c00005b7          	lui	a1,0xc0000

0000000000004e0c <.LBB69_244>:
    4e0c:	00001537          	lui	a0,0x1
    4e10:	40a40533          	sub	a0,s0,a0
    4e14:	fab53023          	sd	a1,-96(a0) # fa0 <.LBB69_4+0x124>
    4e18:	f4843503          	ld	a0,-184(s0)
    4e1c:	a4043583          	ld	a1,-1472(s0)
    4e20:	00a58533          	add	a0,a1,a0
    4e24:	000015b7          	lui	a1,0x1
    4e28:	40b405b3          	sub	a1,s0,a1
    4e2c:	7405b583          	ld	a1,1856(a1) # 1740 <.LBB69_5+0x320>
    4e30:	00b50533          	add	a0,a0,a1
    4e34:	401785bb          	subw	a1,a5,ra
    4e38:	40b5053b          	subw	a0,a0,a1
    4e3c:	400005b7          	lui	a1,0x40000
    4e40:	000012b7          	lui	t0,0x1
    4e44:	405402b3          	sub	t0,s0,t0
    4e48:	f4a2bc23          	sd	a0,-168(t0) # f58 <.LBB69_4+0xdc>
    4e4c:	00055463          	bgez	a0,4e54 <.LBB69_246>
    4e50:	c00005b7          	lui	a1,0xc0000

0000000000004e54 <.LBB69_246>:
    4e54:	00001537          	lui	a0,0x1
    4e58:	40a40533          	sub	a0,s0,a0
    4e5c:	f2b53823          	sd	a1,-208(a0) # f30 <.LBB69_4+0xb4>
    4e60:	f5043503          	ld	a0,-176(s0)
    4e64:	a4843583          	ld	a1,-1464(s0)
    4e68:	00a58533          	add	a0,a1,a0
    4e6c:	01e50533          	add	a0,a0,t5
    4e70:	401785bb          	subw	a1,a5,ra
    4e74:	40b5053b          	subw	a0,a0,a1
    4e78:	400005b7          	lui	a1,0x40000
    4e7c:	000012b7          	lui	t0,0x1
    4e80:	405402b3          	sub	t0,s0,t0
    4e84:	eea2b423          	sd	a0,-280(t0) # ee8 <.LBB69_4+0x6c>
    4e88:	00055463          	bgez	a0,4e90 <.LBB69_248>
    4e8c:	c00005b7          	lui	a1,0xc0000

0000000000004e90 <.LBB69_248>:
    4e90:	00001537          	lui	a0,0x1
    4e94:	40a40533          	sub	a0,s0,a0
    4e98:	eab53823          	sd	a1,-336(a0) # eb0 <.LBB69_4+0x34>
    4e9c:	a5043503          	ld	a0,-1456(s0)
    4ea0:	f5843583          	ld	a1,-168(s0)
    4ea4:	00b50533          	add	a0,a0,a1
    4ea8:	01c50533          	add	a0,a0,t3
    4eac:	401785bb          	subw	a1,a5,ra
    4eb0:	40b5053b          	subw	a0,a0,a1
    4eb4:	400005b7          	lui	a1,0x40000
    4eb8:	000012b7          	lui	t0,0x1
    4ebc:	405402b3          	sub	t0,s0,t0
    4ec0:	e6a2b423          	sd	a0,-408(t0) # e68 <.LBB69_3+0xc40>
    4ec4:	00055463          	bgez	a0,4ecc <.LBB69_250>
    4ec8:	c00005b7          	lui	a1,0xc0000

0000000000004ecc <.LBB69_250>:
    4ecc:	00001537          	lui	a0,0x1
    4ed0:	40a40533          	sub	a0,s0,a0
    4ed4:	e2b53c23          	sd	a1,-456(a0) # e38 <.LBB69_3+0xc10>
    4ed8:	f6043503          	ld	a0,-160(s0)
    4edc:	a5843583          	ld	a1,-1448(s0)
    4ee0:	00a58533          	add	a0,a1,a0
    4ee4:	00750533          	add	a0,a0,t2
    4ee8:	401785bb          	subw	a1,a5,ra
    4eec:	40b5053b          	subw	a0,a0,a1
    4ef0:	400005b7          	lui	a1,0x40000
    4ef4:	000012b7          	lui	t0,0x1
    4ef8:	405402b3          	sub	t0,s0,t0
    4efc:	dea2b823          	sd	a0,-528(t0) # df0 <.LBB69_3+0xbc8>
    4f00:	00055463          	bgez	a0,4f08 <.LBB69_252>
    4f04:	c00005b7          	lui	a1,0xc0000

0000000000004f08 <.LBB69_252>:
    4f08:	00001537          	lui	a0,0x1
    4f0c:	40a40533          	sub	a0,s0,a0
    4f10:	dab53c23          	sd	a1,-584(a0) # db8 <.LBB69_3+0xb90>
    4f14:	f6843503          	ld	a0,-152(s0)
    4f18:	a6043583          	ld	a1,-1440(s0)
    4f1c:	00a58533          	add	a0,a1,a0
    4f20:	00650533          	add	a0,a0,t1
    4f24:	401785bb          	subw	a1,a5,ra
    4f28:	40b5053b          	subw	a0,a0,a1
    4f2c:	400005b7          	lui	a1,0x40000
    4f30:	000012b7          	lui	t0,0x1
    4f34:	405402b3          	sub	t0,s0,t0
    4f38:	d6a2b823          	sd	a0,-656(t0) # d70 <.LBB69_3+0xb48>
    4f3c:	00055463          	bgez	a0,4f44 <.LBB69_254>
    4f40:	c00005b7          	lui	a1,0xc0000

0000000000004f44 <.LBB69_254>:
    4f44:	00001537          	lui	a0,0x1
    4f48:	40a40533          	sub	a0,s0,a0
    4f4c:	d4b53023          	sd	a1,-704(a0) # d40 <.LBB69_3+0xb18>
    4f50:	f7043503          	ld	a0,-144(s0)
    4f54:	a6843583          	ld	a1,-1432(s0)
    4f58:	00a58533          	add	a0,a1,a0
    4f5c:	01f50533          	add	a0,a0,t6
    4f60:	401785bb          	subw	a1,a5,ra
    4f64:	40b505bb          	subw	a1,a0,a1
    4f68:	40000537          	lui	a0,0x40000
    4f6c:	000012b7          	lui	t0,0x1
    4f70:	405402b3          	sub	t0,s0,t0
    4f74:	c0b2b023          	sd	a1,-1024(t0) # c00 <.LBB69_3+0x9d8>
    4f78:	0005d463          	bgez	a1,4f80 <.LBB69_256>
    4f7c:	c0000537          	lui	a0,0xc0000

0000000000004f80 <.LBB69_256>:
    4f80:	000015b7          	lui	a1,0x1
    4f84:	40b405b3          	sub	a1,s0,a1
    4f88:	cca5b823          	sd	a0,-816(a1) # cd0 <.LBB69_3+0xaa8>
    4f8c:	f7843503          	ld	a0,-136(s0)
    4f90:	a7043583          	ld	a1,-1424(s0)
    4f94:	00a58533          	add	a0,a1,a0
    4f98:	01450533          	add	a0,a0,s4
    4f9c:	401785bb          	subw	a1,a5,ra
    4fa0:	40b505bb          	subw	a1,a0,a1
    4fa4:	40000537          	lui	a0,0x40000
    4fa8:	000012b7          	lui	t0,0x1
    4fac:	405402b3          	sub	t0,s0,t0
    4fb0:	beb2b423          	sd	a1,-1048(t0) # be8 <.LBB69_3+0x9c0>
    4fb4:	0005d463          	bgez	a1,4fbc <.LBB69_258>
    4fb8:	c0000537          	lui	a0,0xc0000

0000000000004fbc <.LBB69_258>:
    4fbc:	000015b7          	lui	a1,0x1
    4fc0:	40b405b3          	sub	a1,s0,a1
    4fc4:	c8a5b023          	sd	a0,-896(a1) # c80 <.LBB69_3+0xa58>
    4fc8:	f8043503          	ld	a0,-128(s0)
    4fcc:	a7843583          	ld	a1,-1416(s0)
    4fd0:	00a58533          	add	a0,a1,a0
    4fd4:	00950533          	add	a0,a0,s1
    4fd8:	401785bb          	subw	a1,a5,ra
    4fdc:	40b505bb          	subw	a1,a0,a1
    4fe0:	40000537          	lui	a0,0x40000
    4fe4:	000012b7          	lui	t0,0x1
    4fe8:	405402b3          	sub	t0,s0,t0
    4fec:	bcb2b023          	sd	a1,-1088(t0) # bc0 <.LBB69_3+0x998>
    4ff0:	0005d463          	bgez	a1,4ff8 <.LBB69_260>
    4ff4:	c0000537          	lui	a0,0xc0000

0000000000004ff8 <.LBB69_260>:
    4ff8:	000015b7          	lui	a1,0x1
    4ffc:	40b405b3          	sub	a1,s0,a1
    5000:	c2a5b823          	sd	a0,-976(a1) # c30 <.LBB69_3+0xa08>
    5004:	a6c43c23          	sd	a2,-1416(s0)
    5008:	a8043503          	ld	a0,-1408(s0)
    500c:	f8843583          	ld	a1,-120(s0)
    5010:	00b50533          	add	a0,a0,a1
    5014:	01d50533          	add	a0,a0,t4
    5018:	401785bb          	subw	a1,a5,ra
    501c:	40b5053b          	subw	a0,a0,a1
    5020:	400005b7          	lui	a1,0x40000
    5024:	00055463          	bgez	a0,502c <.LBB69_262>
    5028:	c00005b7          	lui	a1,0xc0000

000000000000502c <.LBB69_262>:
    502c:	00001637          	lui	a2,0x1
    5030:	40c40633          	sub	a2,s0,a2
    5034:	b8b63823          	sd	a1,-1136(a2) # b90 <.LBB69_3+0x968>
    5038:	a8843583          	ld	a1,-1400(s0)
    503c:	eb043603          	ld	a2,-336(s0)
    5040:	00c585b3          	add	a1,a1,a2
    5044:	ea843603          	ld	a2,-344(s0)
    5048:	00c585b3          	add	a1,a1,a2
    504c:	4017063b          	subw	a2,a4,ra
    5050:	40c585bb          	subw	a1,a1,a2
    5054:	40000637          	lui	a2,0x40000
    5058:	b7043783          	ld	a5,-1168(s0)
    505c:	a8b43023          	sd	a1,-1408(s0)
    5060:	0005d463          	bgez	a1,5068 <.LBB69_264>
    5064:	c0000637          	lui	a2,0xc0000

0000000000005068 <.LBB69_264>:
    5068:	a6c43823          	sd	a2,-1424(s0)
    506c:	a9043583          	ld	a1,-1392(s0)
    5070:	ea043603          	ld	a2,-352(s0)
    5074:	00c585b3          	add	a1,a1,a2
    5078:	e9843603          	ld	a2,-360(s0)
    507c:	00c585b3          	add	a1,a1,a2
    5080:	4017063b          	subw	a2,a4,ra
    5084:	40c585bb          	subw	a1,a1,a2
    5088:	40000637          	lui	a2,0x40000
    508c:	a8b43823          	sd	a1,-1392(s0)
    5090:	0005d463          	bgez	a1,5098 <.LBB69_266>
    5094:	c0000637          	lui	a2,0xc0000

0000000000005098 <.LBB69_266>:
    5098:	a6c43023          	sd	a2,-1440(s0)
    509c:	a9843583          	ld	a1,-1384(s0)
    50a0:	e9043603          	ld	a2,-368(s0)
    50a4:	00c585b3          	add	a1,a1,a2
    50a8:	e8843603          	ld	a2,-376(s0)
    50ac:	00c585b3          	add	a1,a1,a2
    50b0:	4017063b          	subw	a2,a4,ra
    50b4:	40c585bb          	subw	a1,a1,a2
    50b8:	40000637          	lui	a2,0x40000
    50bc:	a4b43c23          	sd	a1,-1448(s0)
    50c0:	0005d463          	bgez	a1,50c8 <.LBB69_268>
    50c4:	c0000637          	lui	a2,0xc0000

00000000000050c8 <.LBB69_268>:
    50c8:	a4c43823          	sd	a2,-1456(s0)
    50cc:	aa043583          	ld	a1,-1376(s0)
    50d0:	e8043603          	ld	a2,-384(s0)
    50d4:	00c585b3          	add	a1,a1,a2
    50d8:	e7843603          	ld	a2,-392(s0)
    50dc:	00c585b3          	add	a1,a1,a2
    50e0:	4017063b          	subw	a2,a4,ra
    50e4:	40c585bb          	subw	a1,a1,a2
    50e8:	40000637          	lui	a2,0x40000
    50ec:	aab43023          	sd	a1,-1376(s0)
    50f0:	0005d463          	bgez	a1,50f8 <.LBB69_270>
    50f4:	c0000637          	lui	a2,0xc0000

00000000000050f8 <.LBB69_270>:
    50f8:	a6c43423          	sd	a2,-1432(s0)
    50fc:	aa843583          	ld	a1,-1368(s0)
    5100:	e7043603          	ld	a2,-400(s0)
    5104:	00c585b3          	add	a1,a1,a2
    5108:	e6843603          	ld	a2,-408(s0)
    510c:	00c585b3          	add	a1,a1,a2
    5110:	4017063b          	subw	a2,a4,ra
    5114:	40c585bb          	subw	a1,a1,a2
    5118:	40000637          	lui	a2,0x40000
    511c:	a4b43423          	sd	a1,-1464(s0)
    5120:	0005d463          	bgez	a1,5128 <.LBB69_272>
    5124:	c0000637          	lui	a2,0xc0000

0000000000005128 <.LBB69_272>:
    5128:	a4c43023          	sd	a2,-1472(s0)
    512c:	ab043583          	ld	a1,-1360(s0)
    5130:	00001637          	lui	a2,0x1
    5134:	40c40633          	sub	a2,s0,a2
    5138:	6c863603          	ld	a2,1736(a2) # 16c8 <.LBB69_5+0x2a8>
    513c:	00c585b3          	add	a1,a1,a2
    5140:	00001637          	lui	a2,0x1
    5144:	40c40633          	sub	a2,s0,a2
    5148:	6c063603          	ld	a2,1728(a2) # 16c0 <.LBB69_5+0x2a0>
    514c:	00c585b3          	add	a1,a1,a2
    5150:	4017063b          	subw	a2,a4,ra
    5154:	40c585bb          	subw	a1,a1,a2
    5158:	40000637          	lui	a2,0x40000
    515c:	aab43823          	sd	a1,-1360(s0)
    5160:	0005d463          	bgez	a1,5168 <.LBB69_274>
    5164:	c0000637          	lui	a2,0xc0000

0000000000005168 <.LBB69_274>:
    5168:	a8c43423          	sd	a2,-1400(s0)
    516c:	ab843583          	ld	a1,-1352(s0)
    5170:	00001637          	lui	a2,0x1
    5174:	40c40633          	sub	a2,s0,a2
    5178:	6b863603          	ld	a2,1720(a2) # 16b8 <.LBB69_5+0x298>
    517c:	00c585b3          	add	a1,a1,a2
    5180:	00001637          	lui	a2,0x1
    5184:	40c40633          	sub	a2,s0,a2
    5188:	6b063603          	ld	a2,1712(a2) # 16b0 <.LBB69_5+0x290>
    518c:	00c585b3          	add	a1,a1,a2
    5190:	4017063b          	subw	a2,a4,ra
    5194:	40c5863b          	subw	a2,a1,a2
    5198:	400005b7          	lui	a1,0x40000
    519c:	000012b7          	lui	t0,0x1
    51a0:	405402b3          	sub	t0,s0,t0
    51a4:	c0c2b823          	sd	a2,-1008(t0) # c10 <.LBB69_3+0x9e8>
    51a8:	00065463          	bgez	a2,51b0 <.LBB69_276>
    51ac:	c00005b7          	lui	a1,0xc0000

00000000000051b0 <.LBB69_276>:
    51b0:	a8b43c23          	sd	a1,-1384(s0)
    51b4:	ac043583          	ld	a1,-1344(s0)
    51b8:	00001637          	lui	a2,0x1
    51bc:	40c40633          	sub	a2,s0,a2
    51c0:	6a863603          	ld	a2,1704(a2) # 16a8 <.LBB69_5+0x288>
    51c4:	00c585b3          	add	a1,a1,a2
    51c8:	00001637          	lui	a2,0x1
    51cc:	40c40633          	sub	a2,s0,a2
    51d0:	6a063603          	ld	a2,1696(a2) # 16a0 <.LBB69_5+0x280>
    51d4:	00c585b3          	add	a1,a1,a2
    51d8:	4017063b          	subw	a2,a4,ra
    51dc:	40c585bb          	subw	a1,a1,a2
    51e0:	40000637          	lui	a2,0x40000
    51e4:	acb43023          	sd	a1,-1344(s0)
    51e8:	0005d463          	bgez	a1,51f0 <.LBB69_278>
    51ec:	c0000637          	lui	a2,0xc0000

00000000000051f0 <.LBB69_278>:
    51f0:	aac43423          	sd	a2,-1368(s0)
    51f4:	ac843583          	ld	a1,-1336(s0)
    51f8:	00001637          	lui	a2,0x1
    51fc:	40c40633          	sub	a2,s0,a2
    5200:	69863603          	ld	a2,1688(a2) # 1698 <.LBB69_5+0x278>
    5204:	00c585b3          	add	a1,a1,a2
    5208:	00001637          	lui	a2,0x1
    520c:	40c40633          	sub	a2,s0,a2
    5210:	69063603          	ld	a2,1680(a2) # 1690 <.LBB69_5+0x270>
    5214:	00c585b3          	add	a1,a1,a2
    5218:	4017063b          	subw	a2,a4,ra
    521c:	40c585bb          	subw	a1,a1,a2
    5220:	40000637          	lui	a2,0x40000
    5224:	aab43c23          	sd	a1,-1352(s0)
    5228:	0005d463          	bgez	a1,5230 <.LBB69_280>
    522c:	c0000637          	lui	a2,0xc0000

0000000000005230 <.LBB69_280>:
    5230:	a2c43c23          	sd	a2,-1480(s0)
    5234:	ad043583          	ld	a1,-1328(s0)
    5238:	00001637          	lui	a2,0x1
    523c:	40c40633          	sub	a2,s0,a2
    5240:	68863603          	ld	a2,1672(a2) # 1688 <.LBB69_5+0x268>
    5244:	00c585b3          	add	a1,a1,a2
    5248:	00001637          	lui	a2,0x1
    524c:	40c40633          	sub	a2,s0,a2
    5250:	6d063603          	ld	a2,1744(a2) # 16d0 <.LBB69_5+0x2b0>
    5254:	00c585b3          	add	a1,a1,a2
    5258:	4017063b          	subw	a2,a4,ra
    525c:	40c585bb          	subw	a1,a1,a2
    5260:	40000637          	lui	a2,0x40000
    5264:	acb43823          	sd	a1,-1328(s0)
    5268:	0005d463          	bgez	a1,5270 <.LBB69_282>
    526c:	c0000637          	lui	a2,0xc0000

0000000000005270 <.LBB69_282>:
    5270:	acc43423          	sd	a2,-1336(s0)
    5274:	ad843583          	ld	a1,-1320(s0)
    5278:	eb843603          	ld	a2,-328(s0)
    527c:	00c585b3          	add	a1,a1,a2
    5280:	00001637          	lui	a2,0x1
    5284:	40c40633          	sub	a2,s0,a2
    5288:	6d863603          	ld	a2,1752(a2) # 16d8 <.LBB69_5+0x2b8>
    528c:	00c585b3          	add	a1,a1,a2
    5290:	4017063b          	subw	a2,a4,ra
    5294:	40c585bb          	subw	a1,a1,a2
    5298:	40000637          	lui	a2,0x40000
    529c:	acb43c23          	sd	a1,-1320(s0)
    52a0:	0005d463          	bgez	a1,52a8 <.LBB69_284>
    52a4:	c0000637          	lui	a2,0xc0000

00000000000052a8 <.LBB69_284>:
    52a8:	a2c43823          	sd	a2,-1488(s0)
    52ac:	ae043583          	ld	a1,-1312(s0)
    52b0:	ec043603          	ld	a2,-320(s0)
    52b4:	00c585b3          	add	a1,a1,a2
    52b8:	01b585b3          	add	a1,a1,s11
    52bc:	4017063b          	subw	a2,a4,ra
    52c0:	40c585bb          	subw	a1,a1,a2
    52c4:	40000637          	lui	a2,0x40000
    52c8:	aeb43023          	sd	a1,-1312(s0)
    52cc:	0005d463          	bgez	a1,52d4 <.LBB69_286>
    52d0:	c0000637          	lui	a2,0xc0000

00000000000052d4 <.LBB69_286>:
    52d4:	a2c43423          	sd	a2,-1496(s0)
    52d8:	ae843583          	ld	a1,-1304(s0)
    52dc:	ec843603          	ld	a2,-312(s0)
    52e0:	00c585b3          	add	a1,a1,a2
    52e4:	01a585b3          	add	a1,a1,s10
    52e8:	4017063b          	subw	a2,a4,ra
    52ec:	40c585bb          	subw	a1,a1,a2
    52f0:	40000637          	lui	a2,0x40000
    52f4:	aeb43423          	sd	a1,-1304(s0)
    52f8:	0005d463          	bgez	a1,5300 <.LBB69_288>
    52fc:	c0000637          	lui	a2,0xc0000

0000000000005300 <.LBB69_288>:
    5300:	a2c43023          	sd	a2,-1504(s0)
    5304:	af043583          	ld	a1,-1296(s0)
    5308:	ed043603          	ld	a2,-304(s0)
    530c:	00c585b3          	add	a1,a1,a2
    5310:	019585b3          	add	a1,a1,s9
    5314:	4017063b          	subw	a2,a4,ra
    5318:	40c585bb          	subw	a1,a1,a2
    531c:	40000637          	lui	a2,0x40000
    5320:	aeb43823          	sd	a1,-1296(s0)
    5324:	0005d463          	bgez	a1,532c <.LBB69_290>
    5328:	c0000637          	lui	a2,0xc0000

000000000000532c <.LBB69_290>:
    532c:	a0c43c23          	sd	a2,-1512(s0)
    5330:	af843583          	ld	a1,-1288(s0)
    5334:	ed843603          	ld	a2,-296(s0)
    5338:	00c585b3          	add	a1,a1,a2
    533c:	018585b3          	add	a1,a1,s8
    5340:	4017063b          	subw	a2,a4,ra
    5344:	40c585bb          	subw	a1,a1,a2
    5348:	40000637          	lui	a2,0x40000
    534c:	aeb43c23          	sd	a1,-1288(s0)
    5350:	0005d463          	bgez	a1,5358 <.LBB69_292>
    5354:	c0000637          	lui	a2,0xc0000

0000000000005358 <.LBB69_292>:
    5358:	a0c43823          	sd	a2,-1520(s0)
    535c:	b0043583          	ld	a1,-1280(s0)
    5360:	ee043603          	ld	a2,-288(s0)
    5364:	00c585b3          	add	a1,a1,a2
    5368:	017585b3          	add	a1,a1,s7
    536c:	4017063b          	subw	a2,a4,ra
    5370:	40c585bb          	subw	a1,a1,a2
    5374:	40000637          	lui	a2,0x40000
    5378:	b0b43023          	sd	a1,-1280(s0)
    537c:	0005d463          	bgez	a1,5384 <.LBB69_294>
    5380:	c0000637          	lui	a2,0xc0000

0000000000005384 <.LBB69_294>:
    5384:	a0c43423          	sd	a2,-1528(s0)
    5388:	b0843583          	ld	a1,-1272(s0)
    538c:	ee843603          	ld	a2,-280(s0)
    5390:	00c585b3          	add	a1,a1,a2
    5394:	016585b3          	add	a1,a1,s6
    5398:	4017063b          	subw	a2,a4,ra
    539c:	40c585bb          	subw	a1,a1,a2
    53a0:	40000637          	lui	a2,0x40000
    53a4:	b0b43423          	sd	a1,-1272(s0)
    53a8:	0005d463          	bgez	a1,53b0 <.LBB69_296>
    53ac:	c0000637          	lui	a2,0xc0000

00000000000053b0 <.LBB69_296>:
    53b0:	000015b7          	lui	a1,0x1
    53b4:	40b405b3          	sub	a1,s0,a1
    53b8:	26c5b023          	sd	a2,608(a1) # 1260 <.LBB69_4+0x3e4>
    53bc:	b1043583          	ld	a1,-1264(s0)
    53c0:	ef043603          	ld	a2,-272(s0)
    53c4:	00c585b3          	add	a1,a1,a2
    53c8:	015585b3          	add	a1,a1,s5
    53cc:	4017063b          	subw	a2,a4,ra
    53d0:	40c585bb          	subw	a1,a1,a2
    53d4:	40000637          	lui	a2,0x40000
    53d8:	b0b43823          	sd	a1,-1264(s0)
