
code.o:     file format elf64-littleriscv


Disassembly of section .text.main_dispatch_115_matmul_49x960x160_i8xi8xi32:

0000000000000000 <main_dispatch_115_matmul_49x960x160_i8xi8xi32>:
       0:	81010113          	addi	sp,sp,-2032
       4:	7e113423          	sd	ra,2024(sp)
       8:	7e813023          	sd	s0,2016(sp)
       c:	7c913c23          	sd	s1,2008(sp)
      10:	7d213823          	sd	s2,2000(sp)
      14:	7d313423          	sd	s3,1992(sp)
      18:	7d413023          	sd	s4,1984(sp)
      1c:	7b513c23          	sd	s5,1976(sp)
      20:	7b613823          	sd	s6,1968(sp)
      24:	7b713423          	sd	s7,1960(sp)
      28:	7b813023          	sd	s8,1952(sp)
      2c:	79913c23          	sd	s9,1944(sp)
      30:	79a13823          	sd	s10,1936(sp)
      34:	79b13423          	sd	s11,1928(sp)
      38:	7f010413          	addi	s0,sp,2032
      3c:	80010113          	addi	sp,sp,-2048
      40:	d0010113          	addi	sp,sp,-768
      44:	0205b583          	ld	a1,32(a1)
      48:	00000513          	li	a0,0
      4c:	0085b603          	ld	a2,8(a1)
      50:	0005b703          	ld	a4,0(a1)
      54:	000c66b7          	lui	a3,0xc6
      58:	7806869b          	addiw	a3,a3,1920 # c6780 <.Lfunc_end80+0x9ddb8>
      5c:	00d60933          	add	s2,a2,a3
      60:	000166b7          	lui	a3,0x16
      64:	4806869b          	addiw	a3,a3,1152 # 16480 <.LBB63_2497+0x4>
      68:	00d606b3          	add	a3,a2,a3
      6c:	000017b7          	lui	a5,0x1
      70:	40f407b3          	sub	a5,s0,a5
      74:	dad7b023          	sd	a3,-608(a5) # da0 <.LBB89_3+0xb20>
      78:	000ec6b7          	lui	a3,0xec
      7c:	f806869b          	addiw	a3,a3,-128 # ebf80 <.Lfunc_end80+0xc35b8>
      80:	0105b583          	ld	a1,16(a1)
      84:	00d60633          	add	a2,a2,a3
      88:	000016b7          	lui	a3,0x1
      8c:	40d406b3          	sub	a3,s0,a3
      90:	d8c6bc23          	sd	a2,-616(a3) # d98 <.LBB89_3+0xb18>
      94:	00002637          	lui	a2,0x2
      98:	fc06069b          	addiw	a3,a2,-64 # 1fc0 <.LBB89_5+0x818>
      9c:	00d585b3          	add	a1,a1,a3
      a0:	000016b7          	lui	a3,0x1
      a4:	40d406b3          	sub	a3,s0,a3
      a8:	d2b6b823          	sd	a1,-720(a3) # d30 <.LBB89_3+0xab0>
      ac:	000015b7          	lui	a1,0x1
      b0:	40b405b3          	sub	a1,s0,a1
      b4:	d2e5bc23          	sd	a4,-712(a1) # d38 <.LBB89_3+0xab8>
      b8:	2e070593          	addi	a1,a4,736
      bc:	000016b7          	lui	a3,0x1
      c0:	40d406b3          	sub	a3,s0,a3
      c4:	dab6b423          	sd	a1,-600(a3) # da8 <.LBB89_3+0xb28>
      c8:	000015b7          	lui	a1,0x1
      cc:	2c05869b          	addiw	a3,a1,704 # 12c0 <.LBB89_4+0xc4>
      d0:	00001737          	lui	a4,0x1
      d4:	40e40733          	sub	a4,s0,a4
      d8:	d2d73023          	sd	a3,-736(a4) # d20 <.LBB89_3+0xaa0>
      dc:	6805859b          	addiw	a1,a1,1664
      e0:	000016b7          	lui	a3,0x1
      e4:	40d406b3          	sub	a3,s0,a3
      e8:	d0b6bc23          	sd	a1,-744(a3) # d18 <.LBB89_3+0xa98>
      ec:	a406059b          	addiw	a1,a2,-1472
      f0:	00001637          	lui	a2,0x1
      f4:	40c40633          	sub	a2,s0,a2
      f8:	d0b63823          	sd	a1,-752(a2) # d10 <.LBB89_3+0xa90>
      fc:	000265b7          	lui	a1,0x26
     100:	8005859b          	addiw	a1,a1,-2048 # 25800 <.LBB80_4718>
     104:	00001637          	lui	a2,0x1
     108:	40c40633          	sub	a2,s0,a2
     10c:	d4b63823          	sd	a1,-688(a2) # d50 <.LBB89_3+0xad0>
     110:	5d3465b7          	lui	a1,0x5d346
     114:	2235859b          	addiw	a1,a1,547 # 5d346223 <.Lfunc_end80+0x5d31d85b>
     118:	00001637          	lui	a2,0x1
     11c:	40c40633          	sub	a2,s0,a2
     120:	d4b63423          	sd	a1,-696(a2) # d48 <.LBB89_3+0xac8>
     124:	00100593          	li	a1,1
     128:	02459593          	slli	a1,a1,0x24
     12c:	00001637          	lui	a2,0x1
     130:	40c40633          	sub	a2,s0,a2
     134:	64b63c23          	sd	a1,1624(a2) # 1658 <.LBB89_4+0x45c>
     138:	000015b7          	lui	a1,0x1
     13c:	40b405b3          	sub	a1,s0,a1
     140:	d525b023          	sd	s2,-704(a1) # d40 <.LBB89_3+0xac0>
     144:	0480006f          	j	18c <.LBB89_2>

0000000000000148 <.LBB89_1>:
     148:	00001537          	lui	a0,0x1
     14c:	40a40533          	sub	a0,s0,a0
     150:	d2853603          	ld	a2,-728(a0) # d28 <.LBB89_3+0xaa8>
     154:	00860513          	addi	a0,a2,8
     158:	000015b7          	lui	a1,0x1
     15c:	40b405b3          	sub	a1,s0,a1
     160:	da85b583          	ld	a1,-600(a1) # da8 <.LBB89_3+0xb28>
     164:	50058593          	addi	a1,a1,1280
     168:	000016b7          	lui	a3,0x1
     16c:	40d406b3          	sub	a3,s0,a3
     170:	dab6b423          	sd	a1,-600(a3) # da8 <.LBB89_3+0xb28>
     174:	000015b7          	lui	a1,0x1
     178:	40b405b3          	sub	a1,s0,a1
     17c:	d405b903          	ld	s2,-704(a1) # d40 <.LBB89_3+0xac0>
     180:	02800593          	li	a1,40
     184:	00b66463          	bltu	a2,a1,18c <.LBB89_2>
     188:	7050a06f          	j	b08c <.LBB89_1030>

000000000000018c <.LBB89_2>:
     18c:	00000593          	li	a1,0
     190:	00050693          	mv	a3,a0
     194:	00251513          	slli	a0,a0,0x2
     198:	00001637          	lui	a2,0x1
     19c:	40c40633          	sub	a2,s0,a2
     1a0:	d3863603          	ld	a2,-712(a2) # d38 <.LBB89_3+0xab8>
     1a4:	00a60533          	add	a0,a2,a0
     1a8:	00001637          	lui	a2,0x1
     1ac:	40c40633          	sub	a2,s0,a2
     1b0:	66a63023          	sd	a0,1632(a2) # 1660 <.LBB89_4+0x464>
     1b4:	3c000513          	li	a0,960
     1b8:	00001637          	lui	a2,0x1
     1bc:	40c40633          	sub	a2,s0,a2
     1c0:	d2d63423          	sd	a3,-728(a2) # d28 <.LBB89_3+0xaa8>
     1c4:	02a68533          	mul	a0,a3,a0
     1c8:	00001637          	lui	a2,0x1
     1cc:	40c40633          	sub	a2,s0,a2
     1d0:	d3063603          	ld	a2,-720(a2) # d30 <.LBB89_3+0xab0>
     1d4:	00a60633          	add	a2,a2,a0
     1d8:	3c060513          	addi	a0,a2,960
     1dc:	000016b7          	lui	a3,0x1
     1e0:	40d406b3          	sub	a3,s0,a3
     1e4:	d8a6b423          	sd	a0,-632(a3) # d88 <.LBB89_3+0xb08>
     1e8:	78060513          	addi	a0,a2,1920
     1ec:	000016b7          	lui	a3,0x1
     1f0:	40d406b3          	sub	a3,s0,a3
     1f4:	d8a6b023          	sd	a0,-640(a3) # d80 <.LBB89_3+0xb00>
     1f8:	7ff60513          	addi	a0,a2,2047
     1fc:	34150693          	addi	a3,a0,833
     200:	00001737          	lui	a4,0x1
     204:	40e40733          	sub	a4,s0,a4
     208:	d6d73c23          	sd	a3,-648(a4) # d78 <.LBB89_3+0xaf8>
     20c:	70150513          	addi	a0,a0,1793
     210:	000016b7          	lui	a3,0x1
     214:	40d406b3          	sub	a3,s0,a3
     218:	d6a6b823          	sd	a0,-656(a3) # d70 <.LBB89_3+0xaf0>
     21c:	00001537          	lui	a0,0x1
     220:	40a40533          	sub	a0,s0,a0
     224:	d2053503          	ld	a0,-736(a0) # d20 <.LBB89_3+0xaa0>
     228:	00a60533          	add	a0,a2,a0
     22c:	000016b7          	lui	a3,0x1
     230:	40d406b3          	sub	a3,s0,a3
     234:	d6a6b423          	sd	a0,-664(a3) # d68 <.LBB89_3+0xae8>
     238:	00001537          	lui	a0,0x1
     23c:	40a40533          	sub	a0,s0,a0
     240:	d1853503          	ld	a0,-744(a0) # d18 <.LBB89_3+0xa98>
     244:	00a60533          	add	a0,a2,a0
     248:	000016b7          	lui	a3,0x1
     24c:	40d406b3          	sub	a3,s0,a3
     250:	d6a6b023          	sd	a0,-672(a3) # d60 <.LBB89_3+0xae0>
     254:	00001537          	lui	a0,0x1
     258:	40a40533          	sub	a0,s0,a0
     25c:	d1053503          	ld	a0,-752(a0) # d10 <.LBB89_3+0xa90>
     260:	000016b7          	lui	a3,0x1
     264:	40d406b3          	sub	a3,s0,a3
     268:	d8c6b823          	sd	a2,-624(a3) # d90 <.LBB89_3+0xb10>
     26c:	00a60533          	add	a0,a2,a0
     270:	00001637          	lui	a2,0x1
     274:	40c40633          	sub	a2,s0,a2
     278:	d4a63c23          	sd	a0,-680(a2) # d58 <.LBB89_3+0xad8>
     27c:	7810006f          	j	11fc <.LBB89_4>

0000000000000280 <.LBB89_3>:
     280:	080d4c93          	xori	s9,s10,128
     284:	00001c37          	lui	s8,0x1
     288:	41840c33          	sub	s8,s0,s8
     28c:	d90c3c03          	ld	s8,-624(s8) # d90 <.LBB89_3+0xb10>
     290:	00001d37          	lui	s10,0x1
     294:	41a40d33          	sub	s10,s0,s10
     298:	668d3d03          	ld	s10,1640(s10) # 1668 <.LBB89_4+0x46c>
     29c:	01ac0c33          	add	s8,s8,s10
     2a0:	019c01a3          	sb	s9,3(s8)
     2a4:	f8843c83          	ld	s9,-120(s0)
     2a8:	080ccc93          	xori	s9,s9,128
     2ac:	019c0123          	sb	s9,2(s8)
     2b0:	f8043c83          	ld	s9,-128(s0)
     2b4:	080ccc93          	xori	s9,s9,128
     2b8:	019c00a3          	sb	s9,1(s8)
     2bc:	f7843c83          	ld	s9,-136(s0)
     2c0:	080ccc93          	xori	s9,s9,128
     2c4:	019c0023          	sb	s9,0(s8)
     2c8:	f7043c83          	ld	s9,-144(s0)
     2cc:	080ccc93          	xori	s9,s9,128
     2d0:	019c0223          	sb	s9,4(s8)
     2d4:	f6843c83          	ld	s9,-152(s0)
     2d8:	080ccc93          	xori	s9,s9,128
     2dc:	019c02a3          	sb	s9,5(s8)
     2e0:	f6043c83          	ld	s9,-160(s0)
     2e4:	080ccc93          	xori	s9,s9,128
     2e8:	019c0323          	sb	s9,6(s8)
     2ec:	f5843c83          	ld	s9,-168(s0)
     2f0:	080ccc93          	xori	s9,s9,128
     2f4:	019c03a3          	sb	s9,7(s8)
     2f8:	f5043c83          	ld	s9,-176(s0)
     2fc:	080ccc93          	xori	s9,s9,128
     300:	019c0423          	sb	s9,8(s8)
     304:	f4843c83          	ld	s9,-184(s0)
     308:	080ccc93          	xori	s9,s9,128
     30c:	019c04a3          	sb	s9,9(s8)
     310:	f4043c83          	ld	s9,-192(s0)
     314:	080ccc93          	xori	s9,s9,128
     318:	019c0523          	sb	s9,10(s8)
     31c:	f3843c83          	ld	s9,-200(s0)
     320:	080ccc93          	xori	s9,s9,128
     324:	019c05a3          	sb	s9,11(s8)
     328:	f3043c83          	ld	s9,-208(s0)
     32c:	080ccc93          	xori	s9,s9,128
     330:	019c0623          	sb	s9,12(s8)
     334:	f2843c83          	ld	s9,-216(s0)
     338:	080ccc93          	xori	s9,s9,128
     33c:	019c06a3          	sb	s9,13(s8)
     340:	f2043c83          	ld	s9,-224(s0)
     344:	080ccc93          	xori	s9,s9,128
     348:	019c0723          	sb	s9,14(s8)
     34c:	f1843c83          	ld	s9,-232(s0)
     350:	080ccc93          	xori	s9,s9,128
     354:	019c07a3          	sb	s9,15(s8)
     358:	f1043c83          	ld	s9,-240(s0)
     35c:	080ccc93          	xori	s9,s9,128
     360:	019c0823          	sb	s9,16(s8)
     364:	f0843c83          	ld	s9,-248(s0)
     368:	080ccc93          	xori	s9,s9,128
     36c:	019c08a3          	sb	s9,17(s8)
     370:	f0043c83          	ld	s9,-256(s0)
     374:	080ccc93          	xori	s9,s9,128
     378:	019c0923          	sb	s9,18(s8)
     37c:	ef843c83          	ld	s9,-264(s0)
     380:	080ccc93          	xori	s9,s9,128
     384:	019c09a3          	sb	s9,19(s8)
     388:	ef043c83          	ld	s9,-272(s0)
     38c:	080ccc93          	xori	s9,s9,128
     390:	019c0a23          	sb	s9,20(s8)
     394:	ee043c83          	ld	s9,-288(s0)
     398:	080ccc93          	xori	s9,s9,128
     39c:	019c0aa3          	sb	s9,21(s8)
     3a0:	ed843c83          	ld	s9,-296(s0)
     3a4:	080ccc93          	xori	s9,s9,128
     3a8:	019c0b23          	sb	s9,22(s8)
     3ac:	ed043c83          	ld	s9,-304(s0)
     3b0:	080ccc93          	xori	s9,s9,128
     3b4:	019c0ba3          	sb	s9,23(s8)
     3b8:	ea843c83          	ld	s9,-344(s0)
     3bc:	080ccc93          	xori	s9,s9,128
     3c0:	019c0c23          	sb	s9,24(s8)
     3c4:	e8043c83          	ld	s9,-384(s0)
     3c8:	080ccc93          	xori	s9,s9,128
     3cc:	019c0ca3          	sb	s9,25(s8)
     3d0:	e6043c83          	ld	s9,-416(s0)
     3d4:	080ccc93          	xori	s9,s9,128
     3d8:	019c0d23          	sb	s9,26(s8)
     3dc:	e4843c83          	ld	s9,-440(s0)
     3e0:	080ccc93          	xori	s9,s9,128
     3e4:	019c0da3          	sb	s9,27(s8)
     3e8:	e4043c83          	ld	s9,-448(s0)
     3ec:	080ccc93          	xori	s9,s9,128
     3f0:	019c0e23          	sb	s9,28(s8)
     3f4:	e3843c83          	ld	s9,-456(s0)
     3f8:	080ccc93          	xori	s9,s9,128
     3fc:	019c0ea3          	sb	s9,29(s8)
     400:	e3043c83          	ld	s9,-464(s0)
     404:	080ccc93          	xori	s9,s9,128
     408:	019c0f23          	sb	s9,30(s8)
     40c:	e2843c83          	ld	s9,-472(s0)
     410:	080ccc93          	xori	s9,s9,128
     414:	019c0fa3          	sb	s9,31(s8)
     418:	e2043c03          	ld	s8,-480(s0)
     41c:	080c4c93          	xori	s9,s8,128
     420:	00001c37          	lui	s8,0x1
     424:	41840c33          	sub	s8,s0,s8
     428:	d88c3c03          	ld	s8,-632(s8) # d88 <.LBB89_3+0xb08>
     42c:	01ac0c33          	add	s8,s8,s10
     430:	019c01a3          	sb	s9,3(s8)
     434:	e1843c83          	ld	s9,-488(s0)
     438:	080ccc93          	xori	s9,s9,128
     43c:	019c0123          	sb	s9,2(s8)
     440:	c5843c83          	ld	s9,-936(s0)
     444:	080ccc93          	xori	s9,s9,128
     448:	019c00a3          	sb	s9,1(s8)
     44c:	c1043c83          	ld	s9,-1008(s0)
     450:	080ccc93          	xori	s9,s9,128
     454:	019c0023          	sb	s9,0(s8)
     458:	bd043c83          	ld	s9,-1072(s0)
     45c:	080ccc93          	xori	s9,s9,128
     460:	019c0223          	sb	s9,4(s8)
     464:	b9043c83          	ld	s9,-1136(s0)
     468:	080ccc93          	xori	s9,s9,128
     46c:	019c02a3          	sb	s9,5(s8)
     470:	b4843c83          	ld	s9,-1208(s0)
     474:	080ccc93          	xori	s9,s9,128
     478:	019c0323          	sb	s9,6(s8)
     47c:	b0843c83          	ld	s9,-1272(s0)
     480:	080ccc93          	xori	s9,s9,128
     484:	019c03a3          	sb	s9,7(s8)
     488:	ac843c83          	ld	s9,-1336(s0)
     48c:	080ccc93          	xori	s9,s9,128
     490:	019c0423          	sb	s9,8(s8)
     494:	a7843c83          	ld	s9,-1416(s0)
     498:	080ccc93          	xori	s9,s9,128
     49c:	019c04a3          	sb	s9,9(s8)
     4a0:	a3843c83          	ld	s9,-1480(s0)
     4a4:	080ccc93          	xori	s9,s9,128
     4a8:	019c0523          	sb	s9,10(s8)
     4ac:	9f043c83          	ld	s9,-1552(s0)
     4b0:	080ccc93          	xori	s9,s9,128
     4b4:	019c05a3          	sb	s9,11(s8)
     4b8:	9b043c83          	ld	s9,-1616(s0)
     4bc:	080ccc93          	xori	s9,s9,128
     4c0:	019c0623          	sb	s9,12(s8)
     4c4:	97043c83          	ld	s9,-1680(s0)
     4c8:	080ccc93          	xori	s9,s9,128
     4cc:	019c06a3          	sb	s9,13(s8)
     4d0:	92843c83          	ld	s9,-1752(s0)
     4d4:	080ccc93          	xori	s9,s9,128
     4d8:	019c0723          	sb	s9,14(s8)
     4dc:	8e843c83          	ld	s9,-1816(s0)
     4e0:	080ccc93          	xori	s9,s9,128
     4e4:	019c07a3          	sb	s9,15(s8)
     4e8:	8a843c83          	ld	s9,-1880(s0)
     4ec:	080ccc93          	xori	s9,s9,128
     4f0:	019c0823          	sb	s9,16(s8)
     4f4:	85843c83          	ld	s9,-1960(s0)
     4f8:	080ccc93          	xori	s9,s9,128
     4fc:	019c08a3          	sb	s9,17(s8)
     500:	81843c83          	ld	s9,-2024(s0)
     504:	080ccc93          	xori	s9,s9,128
     508:	019c0923          	sb	s9,18(s8)
     50c:	00001cb7          	lui	s9,0x1
     510:	41940cb3          	sub	s9,s0,s9
     514:	7d0cbc83          	ld	s9,2000(s9) # 17d0 <.LBB89_5+0x28>
     518:	080ccc93          	xori	s9,s9,128
     51c:	019c09a3          	sb	s9,19(s8)
     520:	00001cb7          	lui	s9,0x1
     524:	41940cb3          	sub	s9,s0,s9
     528:	790cbc83          	ld	s9,1936(s9) # 1790 <.LBB89_4+0x594>
     52c:	080ccc93          	xori	s9,s9,128
     530:	019c0a23          	sb	s9,20(s8)
     534:	00001cb7          	lui	s9,0x1
     538:	41940cb3          	sub	s9,s0,s9
     53c:	780cbc83          	ld	s9,1920(s9) # 1780 <.LBB89_4+0x584>
     540:	080ccc93          	xori	s9,s9,128
     544:	019c0aa3          	sb	s9,21(s8)
     548:	00001cb7          	lui	s9,0x1
     54c:	41940cb3          	sub	s9,s0,s9
     550:	778cbc83          	ld	s9,1912(s9) # 1778 <.LBB89_4+0x57c>
     554:	080ccc93          	xori	s9,s9,128
     558:	019c0b23          	sb	s9,22(s8)
     55c:	00001cb7          	lui	s9,0x1
     560:	41940cb3          	sub	s9,s0,s9
     564:	770cbc83          	ld	s9,1904(s9) # 1770 <.LBB89_4+0x574>
     568:	080ccc93          	xori	s9,s9,128
     56c:	019c0ba3          	sb	s9,23(s8)
     570:	00001cb7          	lui	s9,0x1
     574:	41940cb3          	sub	s9,s0,s9
     578:	768cbc83          	ld	s9,1896(s9) # 1768 <.LBB89_4+0x56c>
     57c:	080ccc93          	xori	s9,s9,128
     580:	019c0c23          	sb	s9,24(s8)
     584:	00001cb7          	lui	s9,0x1
     588:	41940cb3          	sub	s9,s0,s9
     58c:	760cbc83          	ld	s9,1888(s9) # 1760 <.LBB89_4+0x564>
     590:	080ccc93          	xori	s9,s9,128
     594:	019c0ca3          	sb	s9,25(s8)
     598:	00001cb7          	lui	s9,0x1
     59c:	41940cb3          	sub	s9,s0,s9
     5a0:	758cbc83          	ld	s9,1880(s9) # 1758 <.LBB89_4+0x55c>
     5a4:	080ccc93          	xori	s9,s9,128
     5a8:	019c0d23          	sb	s9,26(s8)
     5ac:	00001cb7          	lui	s9,0x1
     5b0:	41940cb3          	sub	s9,s0,s9
     5b4:	750cbc83          	ld	s9,1872(s9) # 1750 <.LBB89_4+0x554>
     5b8:	080ccc93          	xori	s9,s9,128
     5bc:	019c0da3          	sb	s9,27(s8)
     5c0:	00001cb7          	lui	s9,0x1
     5c4:	41940cb3          	sub	s9,s0,s9
     5c8:	748cbc83          	ld	s9,1864(s9) # 1748 <.LBB89_4+0x54c>
     5cc:	080ccc93          	xori	s9,s9,128
     5d0:	019c0e23          	sb	s9,28(s8)
     5d4:	00001cb7          	lui	s9,0x1
     5d8:	41940cb3          	sub	s9,s0,s9
     5dc:	740cbc83          	ld	s9,1856(s9) # 1740 <.LBB89_4+0x544>
     5e0:	080ccc93          	xori	s9,s9,128
     5e4:	019c0ea3          	sb	s9,29(s8)
     5e8:	00001cb7          	lui	s9,0x1
     5ec:	41940cb3          	sub	s9,s0,s9
     5f0:	738cbc83          	ld	s9,1848(s9) # 1738 <.LBB89_4+0x53c>
     5f4:	080ccc93          	xori	s9,s9,128
     5f8:	019c0f23          	sb	s9,30(s8)
     5fc:	00001cb7          	lui	s9,0x1
     600:	41940cb3          	sub	s9,s0,s9
     604:	730cbc83          	ld	s9,1840(s9) # 1730 <.LBB89_4+0x534>
     608:	080ccc93          	xori	s9,s9,128
     60c:	019c0fa3          	sb	s9,31(s8)
     610:	00001c37          	lui	s8,0x1
     614:	41840c33          	sub	s8,s0,s8
     618:	728c3c03          	ld	s8,1832(s8) # 1728 <.LBB89_4+0x52c>
     61c:	080c4c93          	xori	s9,s8,128
     620:	00001c37          	lui	s8,0x1
     624:	41840c33          	sub	s8,s0,s8
     628:	d80c3c03          	ld	s8,-640(s8) # d80 <.LBB89_3+0xb00>
     62c:	01ac0c33          	add	s8,s8,s10
     630:	019c01a3          	sb	s9,3(s8)
     634:	00001cb7          	lui	s9,0x1
     638:	41940cb3          	sub	s9,s0,s9
     63c:	720cbc83          	ld	s9,1824(s9) # 1720 <.LBB89_4+0x524>
     640:	080ccc93          	xori	s9,s9,128
     644:	019c0123          	sb	s9,2(s8)
     648:	00001cb7          	lui	s9,0x1
     64c:	41940cb3          	sub	s9,s0,s9
     650:	718cbc83          	ld	s9,1816(s9) # 1718 <.LBB89_4+0x51c>
     654:	080ccc93          	xori	s9,s9,128
     658:	019c00a3          	sb	s9,1(s8)
     65c:	00001cb7          	lui	s9,0x1
     660:	41940cb3          	sub	s9,s0,s9
     664:	710cbc83          	ld	s9,1808(s9) # 1710 <.LBB89_4+0x514>
     668:	080ccc93          	xori	s9,s9,128
     66c:	019c0023          	sb	s9,0(s8)
     670:	00001cb7          	lui	s9,0x1
     674:	41940cb3          	sub	s9,s0,s9
     678:	6f8cbc83          	ld	s9,1784(s9) # 16f8 <.LBB89_4+0x4fc>
     67c:	080ccc93          	xori	s9,s9,128
     680:	019c0223          	sb	s9,4(s8)
     684:	00001cb7          	lui	s9,0x1
     688:	41940cb3          	sub	s9,s0,s9
     68c:	6f0cbc83          	ld	s9,1776(s9) # 16f0 <.LBB89_4+0x4f4>
     690:	080ccc93          	xori	s9,s9,128
     694:	019c02a3          	sb	s9,5(s8)
     698:	00001cb7          	lui	s9,0x1
     69c:	41940cb3          	sub	s9,s0,s9
     6a0:	6e8cbc83          	ld	s9,1768(s9) # 16e8 <.LBB89_4+0x4ec>
     6a4:	080ccc93          	xori	s9,s9,128
     6a8:	019c0323          	sb	s9,6(s8)
     6ac:	00001cb7          	lui	s9,0x1
     6b0:	41940cb3          	sub	s9,s0,s9
     6b4:	6e0cbc83          	ld	s9,1760(s9) # 16e0 <.LBB89_4+0x4e4>
     6b8:	080ccc93          	xori	s9,s9,128
     6bc:	019c03a3          	sb	s9,7(s8)
     6c0:	00001cb7          	lui	s9,0x1
     6c4:	41940cb3          	sub	s9,s0,s9
     6c8:	6d8cbc83          	ld	s9,1752(s9) # 16d8 <.LBB89_4+0x4dc>
     6cc:	080ccc93          	xori	s9,s9,128
     6d0:	019c0423          	sb	s9,8(s8)
     6d4:	00001cb7          	lui	s9,0x1
     6d8:	41940cb3          	sub	s9,s0,s9
     6dc:	6d0cbc83          	ld	s9,1744(s9) # 16d0 <.LBB89_4+0x4d4>
     6e0:	080ccc93          	xori	s9,s9,128
     6e4:	019c04a3          	sb	s9,9(s8)
     6e8:	00001cb7          	lui	s9,0x1
     6ec:	41940cb3          	sub	s9,s0,s9
     6f0:	6c8cbc83          	ld	s9,1736(s9) # 16c8 <.LBB89_4+0x4cc>
     6f4:	080ccc93          	xori	s9,s9,128
     6f8:	019c0523          	sb	s9,10(s8)
     6fc:	00001cb7          	lui	s9,0x1
     700:	41940cb3          	sub	s9,s0,s9
     704:	6c0cbc83          	ld	s9,1728(s9) # 16c0 <.LBB89_4+0x4c4>
     708:	080ccc93          	xori	s9,s9,128
     70c:	019c05a3          	sb	s9,11(s8)
     710:	00001cb7          	lui	s9,0x1
     714:	41940cb3          	sub	s9,s0,s9
     718:	6b8cbc83          	ld	s9,1720(s9) # 16b8 <.LBB89_4+0x4bc>
     71c:	080ccc93          	xori	s9,s9,128
     720:	019c0623          	sb	s9,12(s8)
     724:	00001cb7          	lui	s9,0x1
     728:	41940cb3          	sub	s9,s0,s9
     72c:	6a0cbc83          	ld	s9,1696(s9) # 16a0 <.LBB89_4+0x4a4>
     730:	080ccc93          	xori	s9,s9,128
     734:	019c06a3          	sb	s9,13(s8)
     738:	00001cb7          	lui	s9,0x1
     73c:	41940cb3          	sub	s9,s0,s9
     740:	238cbc83          	ld	s9,568(s9) # 1238 <.LBB89_4+0x3c>
     744:	080ccc93          	xori	s9,s9,128
     748:	019c0723          	sb	s9,14(s8)
     74c:	00001cb7          	lui	s9,0x1
     750:	41940cb3          	sub	s9,s0,s9
     754:	248cbc83          	ld	s9,584(s9) # 1248 <.LBB89_4+0x4c>
     758:	080ccc93          	xori	s9,s9,128
     75c:	019c07a3          	sb	s9,15(s8)
     760:	00001cb7          	lui	s9,0x1
     764:	41940cb3          	sub	s9,s0,s9
     768:	258cbc83          	ld	s9,600(s9) # 1258 <.LBB89_4+0x5c>
     76c:	080ccc93          	xori	s9,s9,128
     770:	019c0823          	sb	s9,16(s8)
     774:	00001cb7          	lui	s9,0x1
     778:	41940cb3          	sub	s9,s0,s9
     77c:	268cbc83          	ld	s9,616(s9) # 1268 <.LBB89_4+0x6c>
     780:	080ccc93          	xori	s9,s9,128
     784:	019c08a3          	sb	s9,17(s8)
     788:	00001cb7          	lui	s9,0x1
     78c:	41940cb3          	sub	s9,s0,s9
     790:	278cbc83          	ld	s9,632(s9) # 1278 <.LBB89_4+0x7c>
     794:	080ccc93          	xori	s9,s9,128
     798:	019c0923          	sb	s9,18(s8)
     79c:	00001cb7          	lui	s9,0x1
     7a0:	41940cb3          	sub	s9,s0,s9
     7a4:	288cbc83          	ld	s9,648(s9) # 1288 <.LBB89_4+0x8c>
     7a8:	080ccc93          	xori	s9,s9,128
     7ac:	019c09a3          	sb	s9,19(s8)
     7b0:	00001cb7          	lui	s9,0x1
     7b4:	41940cb3          	sub	s9,s0,s9
     7b8:	298cbc83          	ld	s9,664(s9) # 1298 <.LBB89_4+0x9c>
     7bc:	080ccc93          	xori	s9,s9,128
     7c0:	019c0a23          	sb	s9,20(s8)
     7c4:	00001cb7          	lui	s9,0x1
     7c8:	41940cb3          	sub	s9,s0,s9
     7cc:	2a8cbc83          	ld	s9,680(s9) # 12a8 <.LBB89_4+0xac>
     7d0:	080ccc93          	xori	s9,s9,128
     7d4:	019c0aa3          	sb	s9,21(s8)
     7d8:	00001cb7          	lui	s9,0x1
     7dc:	41940cb3          	sub	s9,s0,s9
     7e0:	2b8cbc83          	ld	s9,696(s9) # 12b8 <.LBB89_4+0xbc>
     7e4:	080ccc93          	xori	s9,s9,128
     7e8:	019c0b23          	sb	s9,22(s8)
     7ec:	00001cb7          	lui	s9,0x1
     7f0:	41940cb3          	sub	s9,s0,s9
     7f4:	2c8cbc83          	ld	s9,712(s9) # 12c8 <.LBB89_4+0xcc>
     7f8:	080ccc93          	xori	s9,s9,128
     7fc:	019c0ba3          	sb	s9,23(s8)
     800:	00001cb7          	lui	s9,0x1
     804:	41940cb3          	sub	s9,s0,s9
     808:	2d8cbc83          	ld	s9,728(s9) # 12d8 <.LBB89_4+0xdc>
     80c:	080ccc93          	xori	s9,s9,128
     810:	019c0c23          	sb	s9,24(s8)
     814:	00001cb7          	lui	s9,0x1
     818:	41940cb3          	sub	s9,s0,s9
     81c:	2e8cbc83          	ld	s9,744(s9) # 12e8 <.LBB89_4+0xec>
     820:	080ccc93          	xori	s9,s9,128
     824:	019c0ca3          	sb	s9,25(s8)
     828:	00001cb7          	lui	s9,0x1
     82c:	41940cb3          	sub	s9,s0,s9
     830:	2f8cbc83          	ld	s9,760(s9) # 12f8 <.LBB89_4+0xfc>
     834:	080ccc93          	xori	s9,s9,128
     838:	019c0d23          	sb	s9,26(s8)
     83c:	00001cb7          	lui	s9,0x1
     840:	41940cb3          	sub	s9,s0,s9
     844:	308cbc83          	ld	s9,776(s9) # 1308 <.LBB89_4+0x10c>
     848:	080ccc93          	xori	s9,s9,128
     84c:	019c0da3          	sb	s9,27(s8)
     850:	00001cb7          	lui	s9,0x1
     854:	41940cb3          	sub	s9,s0,s9
     858:	318cbc83          	ld	s9,792(s9) # 1318 <.LBB89_4+0x11c>
     85c:	080ccc93          	xori	s9,s9,128
     860:	019c0e23          	sb	s9,28(s8)
     864:	00001cb7          	lui	s9,0x1
     868:	41940cb3          	sub	s9,s0,s9
     86c:	328cbc83          	ld	s9,808(s9) # 1328 <.LBB89_4+0x12c>
     870:	080ccc93          	xori	s9,s9,128
     874:	019c0ea3          	sb	s9,29(s8)
     878:	00001cb7          	lui	s9,0x1
     87c:	41940cb3          	sub	s9,s0,s9
     880:	338cbc83          	ld	s9,824(s9) # 1338 <.LBB89_4+0x13c>
     884:	080ccc93          	xori	s9,s9,128
     888:	019c0f23          	sb	s9,30(s8)
     88c:	00001cb7          	lui	s9,0x1
     890:	41940cb3          	sub	s9,s0,s9
     894:	350cbc83          	ld	s9,848(s9) # 1350 <.LBB89_4+0x154>
     898:	080ccc93          	xori	s9,s9,128
     89c:	019c0fa3          	sb	s9,31(s8)
     8a0:	00001c37          	lui	s8,0x1
     8a4:	41840c33          	sub	s8,s0,s8
     8a8:	358c3c03          	ld	s8,856(s8) # 1358 <.LBB89_4+0x15c>
     8ac:	080c4c93          	xori	s9,s8,128
     8b0:	00001c37          	lui	s8,0x1
     8b4:	41840c33          	sub	s8,s0,s8
     8b8:	d78c3c03          	ld	s8,-648(s8) # d78 <.LBB89_3+0xaf8>
     8bc:	01ac0c33          	add	s8,s8,s10
     8c0:	019c01a3          	sb	s9,3(s8)
     8c4:	00001cb7          	lui	s9,0x1
     8c8:	41940cb3          	sub	s9,s0,s9
     8cc:	368cbc83          	ld	s9,872(s9) # 1368 <.LBB89_4+0x16c>
     8d0:	080ccc93          	xori	s9,s9,128
     8d4:	019c0123          	sb	s9,2(s8)
     8d8:	00001cb7          	lui	s9,0x1
     8dc:	41940cb3          	sub	s9,s0,s9
     8e0:	378cbc83          	ld	s9,888(s9) # 1378 <.LBB89_4+0x17c>
     8e4:	080ccc93          	xori	s9,s9,128
     8e8:	019c00a3          	sb	s9,1(s8)
     8ec:	00001cb7          	lui	s9,0x1
     8f0:	41940cb3          	sub	s9,s0,s9
     8f4:	388cbc83          	ld	s9,904(s9) # 1388 <.LBB89_4+0x18c>
     8f8:	080ccc93          	xori	s9,s9,128
     8fc:	019c0023          	sb	s9,0(s8)
     900:	00001cb7          	lui	s9,0x1
     904:	41940cb3          	sub	s9,s0,s9
     908:	398cbc83          	ld	s9,920(s9) # 1398 <.LBB89_4+0x19c>
     90c:	080ccc93          	xori	s9,s9,128
     910:	019c0223          	sb	s9,4(s8)
     914:	00001cb7          	lui	s9,0x1
     918:	41940cb3          	sub	s9,s0,s9
     91c:	3a8cbc83          	ld	s9,936(s9) # 13a8 <.LBB89_4+0x1ac>
     920:	080ccc93          	xori	s9,s9,128
     924:	019c02a3          	sb	s9,5(s8)
     928:	00001cb7          	lui	s9,0x1
     92c:	41940cb3          	sub	s9,s0,s9
     930:	3b8cbc83          	ld	s9,952(s9) # 13b8 <.LBB89_4+0x1bc>
     934:	080ccc93          	xori	s9,s9,128
     938:	019c0323          	sb	s9,6(s8)
     93c:	00001cb7          	lui	s9,0x1
     940:	41940cb3          	sub	s9,s0,s9
     944:	3c8cbc83          	ld	s9,968(s9) # 13c8 <.LBB89_4+0x1cc>
     948:	080ccc93          	xori	s9,s9,128
     94c:	019c03a3          	sb	s9,7(s8)
     950:	00001cb7          	lui	s9,0x1
     954:	41940cb3          	sub	s9,s0,s9
     958:	3d8cbc83          	ld	s9,984(s9) # 13d8 <.LBB89_4+0x1dc>
     95c:	080ccc93          	xori	s9,s9,128
     960:	019c0423          	sb	s9,8(s8)
     964:	00001cb7          	lui	s9,0x1
     968:	41940cb3          	sub	s9,s0,s9
     96c:	3e8cbc83          	ld	s9,1000(s9) # 13e8 <.LBB89_4+0x1ec>
     970:	080ccc93          	xori	s9,s9,128
     974:	019c04a3          	sb	s9,9(s8)
     978:	00001cb7          	lui	s9,0x1
     97c:	41940cb3          	sub	s9,s0,s9
     980:	3f8cbc83          	ld	s9,1016(s9) # 13f8 <.LBB89_4+0x1fc>
     984:	080ccc93          	xori	s9,s9,128
     988:	019c0523          	sb	s9,10(s8)
     98c:	00001cb7          	lui	s9,0x1
     990:	41940cb3          	sub	s9,s0,s9
     994:	408cbc83          	ld	s9,1032(s9) # 1408 <.LBB89_4+0x20c>
     998:	080ccc93          	xori	s9,s9,128
     99c:	019c05a3          	sb	s9,11(s8)
     9a0:	00001cb7          	lui	s9,0x1
     9a4:	41940cb3          	sub	s9,s0,s9
     9a8:	418cbc83          	ld	s9,1048(s9) # 1418 <.LBB89_4+0x21c>
     9ac:	080ccc93          	xori	s9,s9,128
     9b0:	019c0623          	sb	s9,12(s8)
     9b4:	00001cb7          	lui	s9,0x1
     9b8:	41940cb3          	sub	s9,s0,s9
     9bc:	428cbc83          	ld	s9,1064(s9) # 1428 <.LBB89_4+0x22c>
     9c0:	080ccc93          	xori	s9,s9,128
     9c4:	019c06a3          	sb	s9,13(s8)
     9c8:	00001cb7          	lui	s9,0x1
     9cc:	41940cb3          	sub	s9,s0,s9
     9d0:	438cbc83          	ld	s9,1080(s9) # 1438 <.LBB89_4+0x23c>
     9d4:	080ccc93          	xori	s9,s9,128
     9d8:	019c0723          	sb	s9,14(s8)
     9dc:	00001cb7          	lui	s9,0x1
     9e0:	41940cb3          	sub	s9,s0,s9
     9e4:	448cbc83          	ld	s9,1096(s9) # 1448 <.LBB89_4+0x24c>
     9e8:	080ccc93          	xori	s9,s9,128
     9ec:	019c07a3          	sb	s9,15(s8)
     9f0:	00001cb7          	lui	s9,0x1
     9f4:	41940cb3          	sub	s9,s0,s9
     9f8:	458cbc83          	ld	s9,1112(s9) # 1458 <.LBB89_4+0x25c>
     9fc:	080ccc93          	xori	s9,s9,128
     a00:	019c0823          	sb	s9,16(s8)
     a04:	00001cb7          	lui	s9,0x1
     a08:	41940cb3          	sub	s9,s0,s9
     a0c:	468cbc83          	ld	s9,1128(s9) # 1468 <.LBB89_4+0x26c>
     a10:	080ccc93          	xori	s9,s9,128
     a14:	019c08a3          	sb	s9,17(s8)
     a18:	00001cb7          	lui	s9,0x1
     a1c:	41940cb3          	sub	s9,s0,s9
     a20:	478cbc83          	ld	s9,1144(s9) # 1478 <.LBB89_4+0x27c>
     a24:	080ccc93          	xori	s9,s9,128
     a28:	019c0923          	sb	s9,18(s8)
     a2c:	00001cb7          	lui	s9,0x1
     a30:	41940cb3          	sub	s9,s0,s9
     a34:	488cbc83          	ld	s9,1160(s9) # 1488 <.LBB89_4+0x28c>
     a38:	080ccc93          	xori	s9,s9,128
     a3c:	019c09a3          	sb	s9,19(s8)
     a40:	00001cb7          	lui	s9,0x1
     a44:	41940cb3          	sub	s9,s0,s9
     a48:	498cbc83          	ld	s9,1176(s9) # 1498 <.LBB89_4+0x29c>
     a4c:	080ccc93          	xori	s9,s9,128
     a50:	019c0a23          	sb	s9,20(s8)
     a54:	00001cb7          	lui	s9,0x1
     a58:	41940cb3          	sub	s9,s0,s9
     a5c:	4a8cbc83          	ld	s9,1192(s9) # 14a8 <.LBB89_4+0x2ac>
     a60:	080ccc93          	xori	s9,s9,128
     a64:	019c0aa3          	sb	s9,21(s8)
     a68:	00001cb7          	lui	s9,0x1
     a6c:	41940cb3          	sub	s9,s0,s9
     a70:	4b8cbc83          	ld	s9,1208(s9) # 14b8 <.LBB89_4+0x2bc>
     a74:	080ccc93          	xori	s9,s9,128
     a78:	019c0b23          	sb	s9,22(s8)
     a7c:	00001cb7          	lui	s9,0x1
     a80:	41940cb3          	sub	s9,s0,s9
     a84:	4c8cbc83          	ld	s9,1224(s9) # 14c8 <.LBB89_4+0x2cc>
     a88:	080ccc93          	xori	s9,s9,128
     a8c:	019c0ba3          	sb	s9,23(s8)
     a90:	00001cb7          	lui	s9,0x1
     a94:	41940cb3          	sub	s9,s0,s9
     a98:	4d8cbc83          	ld	s9,1240(s9) # 14d8 <.LBB89_4+0x2dc>
     a9c:	080ccc93          	xori	s9,s9,128
     aa0:	019c0c23          	sb	s9,24(s8)
     aa4:	00001cb7          	lui	s9,0x1
     aa8:	41940cb3          	sub	s9,s0,s9
     aac:	4e8cbc83          	ld	s9,1256(s9) # 14e8 <.LBB89_4+0x2ec>
     ab0:	080ccc93          	xori	s9,s9,128
     ab4:	019c0ca3          	sb	s9,25(s8)
     ab8:	00001cb7          	lui	s9,0x1
     abc:	41940cb3          	sub	s9,s0,s9
     ac0:	4f8cbc83          	ld	s9,1272(s9) # 14f8 <.LBB89_4+0x2fc>
     ac4:	080ccc93          	xori	s9,s9,128
     ac8:	019c0d23          	sb	s9,26(s8)
     acc:	00001cb7          	lui	s9,0x1
     ad0:	41940cb3          	sub	s9,s0,s9
     ad4:	508cbc83          	ld	s9,1288(s9) # 1508 <.LBB89_4+0x30c>
     ad8:	080ccc93          	xori	s9,s9,128
     adc:	019c0da3          	sb	s9,27(s8)
     ae0:	00001cb7          	lui	s9,0x1
     ae4:	41940cb3          	sub	s9,s0,s9
     ae8:	518cbc83          	ld	s9,1304(s9) # 1518 <.LBB89_4+0x31c>
     aec:	080ccc93          	xori	s9,s9,128
     af0:	019c0e23          	sb	s9,28(s8)
     af4:	00001cb7          	lui	s9,0x1
     af8:	41940cb3          	sub	s9,s0,s9
     afc:	528cbc83          	ld	s9,1320(s9) # 1528 <.LBB89_4+0x32c>
     b00:	080ccc93          	xori	s9,s9,128
     b04:	019c0ea3          	sb	s9,29(s8)
     b08:	00001cb7          	lui	s9,0x1
     b0c:	41940cb3          	sub	s9,s0,s9
     b10:	538cbc83          	ld	s9,1336(s9) # 1538 <.LBB89_4+0x33c>
     b14:	080ccc93          	xori	s9,s9,128
     b18:	019c0f23          	sb	s9,30(s8)
     b1c:	00001cb7          	lui	s9,0x1
     b20:	41940cb3          	sub	s9,s0,s9
     b24:	550cbc83          	ld	s9,1360(s9) # 1550 <.LBB89_4+0x354>
     b28:	080ccc93          	xori	s9,s9,128
     b2c:	019c0fa3          	sb	s9,31(s8)
     b30:	00001c37          	lui	s8,0x1
     b34:	41840c33          	sub	s8,s0,s8
     b38:	558c3c03          	ld	s8,1368(s8) # 1558 <.LBB89_4+0x35c>
     b3c:	080c4c93          	xori	s9,s8,128
     b40:	00001c37          	lui	s8,0x1
     b44:	41840c33          	sub	s8,s0,s8
     b48:	d70c3c03          	ld	s8,-656(s8) # d70 <.LBB89_3+0xaf0>
     b4c:	01ac0c33          	add	s8,s8,s10
     b50:	019c01a3          	sb	s9,3(s8)
     b54:	00001cb7          	lui	s9,0x1
     b58:	41940cb3          	sub	s9,s0,s9
     b5c:	568cbc83          	ld	s9,1384(s9) # 1568 <.LBB89_4+0x36c>
     b60:	080ccc93          	xori	s9,s9,128
     b64:	019c0123          	sb	s9,2(s8)
     b68:	00001cb7          	lui	s9,0x1
     b6c:	41940cb3          	sub	s9,s0,s9
     b70:	578cbc83          	ld	s9,1400(s9) # 1578 <.LBB89_4+0x37c>
     b74:	080ccc93          	xori	s9,s9,128
     b78:	019c00a3          	sb	s9,1(s8)
     b7c:	00001cb7          	lui	s9,0x1
     b80:	41940cb3          	sub	s9,s0,s9
     b84:	588cbc83          	ld	s9,1416(s9) # 1588 <.LBB89_4+0x38c>
     b88:	080ccc93          	xori	s9,s9,128
     b8c:	019c0023          	sb	s9,0(s8)
     b90:	00001cb7          	lui	s9,0x1
     b94:	41940cb3          	sub	s9,s0,s9
     b98:	598cbc83          	ld	s9,1432(s9) # 1598 <.LBB89_4+0x39c>
     b9c:	080ccc93          	xori	s9,s9,128
     ba0:	019c0223          	sb	s9,4(s8)
     ba4:	00001cb7          	lui	s9,0x1
     ba8:	41940cb3          	sub	s9,s0,s9
     bac:	5a8cbc83          	ld	s9,1448(s9) # 15a8 <.LBB89_4+0x3ac>
     bb0:	080ccc93          	xori	s9,s9,128
     bb4:	019c02a3          	sb	s9,5(s8)
     bb8:	00001cb7          	lui	s9,0x1
     bbc:	41940cb3          	sub	s9,s0,s9
     bc0:	5b8cbc83          	ld	s9,1464(s9) # 15b8 <.LBB89_4+0x3bc>
     bc4:	080ccc93          	xori	s9,s9,128
     bc8:	019c0323          	sb	s9,6(s8)
     bcc:	00001cb7          	lui	s9,0x1
     bd0:	41940cb3          	sub	s9,s0,s9
     bd4:	5c8cbc83          	ld	s9,1480(s9) # 15c8 <.LBB89_4+0x3cc>
     bd8:	080ccc93          	xori	s9,s9,128
     bdc:	019c03a3          	sb	s9,7(s8)
     be0:	00001cb7          	lui	s9,0x1
     be4:	41940cb3          	sub	s9,s0,s9
     be8:	5d8cbc83          	ld	s9,1496(s9) # 15d8 <.LBB89_4+0x3dc>
     bec:	080ccc93          	xori	s9,s9,128
     bf0:	019c0423          	sb	s9,8(s8)
     bf4:	00001cb7          	lui	s9,0x1
     bf8:	41940cb3          	sub	s9,s0,s9
     bfc:	5e8cbc83          	ld	s9,1512(s9) # 15e8 <.LBB89_4+0x3ec>
     c00:	080ccc93          	xori	s9,s9,128
     c04:	019c04a3          	sb	s9,9(s8)
     c08:	00001cb7          	lui	s9,0x1
     c0c:	41940cb3          	sub	s9,s0,s9
     c10:	5f8cbc83          	ld	s9,1528(s9) # 15f8 <.LBB89_4+0x3fc>
     c14:	080ccc93          	xori	s9,s9,128
     c18:	019c0523          	sb	s9,10(s8)
     c1c:	00001cb7          	lui	s9,0x1
     c20:	41940cb3          	sub	s9,s0,s9
     c24:	608cbc83          	ld	s9,1544(s9) # 1608 <.LBB89_4+0x40c>
     c28:	080ccc93          	xori	s9,s9,128
     c2c:	019c05a3          	sb	s9,11(s8)
     c30:	00001cb7          	lui	s9,0x1
     c34:	41940cb3          	sub	s9,s0,s9
     c38:	618cbc83          	ld	s9,1560(s9) # 1618 <.LBB89_4+0x41c>
     c3c:	080ccc93          	xori	s9,s9,128
     c40:	019c0623          	sb	s9,12(s8)
     c44:	00001cb7          	lui	s9,0x1
     c48:	41940cb3          	sub	s9,s0,s9
     c4c:	628cbc83          	ld	s9,1576(s9) # 1628 <.LBB89_4+0x42c>
     c50:	080ccc93          	xori	s9,s9,128
     c54:	019c06a3          	sb	s9,13(s8)
     c58:	00001cb7          	lui	s9,0x1
     c5c:	41940cb3          	sub	s9,s0,s9
     c60:	638cbc83          	ld	s9,1592(s9) # 1638 <.LBB89_4+0x43c>
     c64:	080ccc93          	xori	s9,s9,128
     c68:	019c0723          	sb	s9,14(s8)
     c6c:	00001cb7          	lui	s9,0x1
     c70:	41940cb3          	sub	s9,s0,s9
     c74:	648cbc83          	ld	s9,1608(s9) # 1648 <.LBB89_4+0x44c>
     c78:	080ccc93          	xori	s9,s9,128
     c7c:	019c07a3          	sb	s9,15(s8)
     c80:	00001cb7          	lui	s9,0x1
     c84:	41940cb3          	sub	s9,s0,s9
     c88:	678cbc83          	ld	s9,1656(s9) # 1678 <.LBB89_4+0x47c>
     c8c:	080ccc93          	xori	s9,s9,128
     c90:	019c0823          	sb	s9,16(s8)
     c94:	00001cb7          	lui	s9,0x1
     c98:	41940cb3          	sub	s9,s0,s9
     c9c:	688cbc83          	ld	s9,1672(s9) # 1688 <.LBB89_4+0x48c>
     ca0:	080ccc93          	xori	s9,s9,128
     ca4:	019c08a3          	sb	s9,17(s8)
     ca8:	00001cb7          	lui	s9,0x1
     cac:	41940cb3          	sub	s9,s0,s9
     cb0:	708cbc83          	ld	s9,1800(s9) # 1708 <.LBB89_4+0x50c>
     cb4:	080ccc93          	xori	s9,s9,128
     cb8:	019c0923          	sb	s9,18(s8)
     cbc:	00001cb7          	lui	s9,0x1
     cc0:	41940cb3          	sub	s9,s0,s9
     cc4:	798cbc83          	ld	s9,1944(s9) # 1798 <.LBB89_4+0x59c>
     cc8:	080ccc93          	xori	s9,s9,128
     ccc:	019c09a3          	sb	s9,19(s8)
     cd0:	00001cb7          	lui	s9,0x1
     cd4:	41940cb3          	sub	s9,s0,s9
     cd8:	7a8cbc83          	ld	s9,1960(s9) # 17a8 <.LBB89_5>
     cdc:	080ccc93          	xori	s9,s9,128
     ce0:	019c0a23          	sb	s9,20(s8)
     ce4:	00001cb7          	lui	s9,0x1
     ce8:	41940cb3          	sub	s9,s0,s9
     cec:	7b8cbc83          	ld	s9,1976(s9) # 17b8 <.LBB89_5+0x10>
     cf0:	080ccc93          	xori	s9,s9,128
     cf4:	019c0aa3          	sb	s9,21(s8)
     cf8:	00001cb7          	lui	s9,0x1
     cfc:	41940cb3          	sub	s9,s0,s9
     d00:	7c8cbc83          	ld	s9,1992(s9) # 17c8 <.LBB89_5+0x20>
     d04:	080ccc93          	xori	s9,s9,128
     d08:	019c0b23          	sb	s9,22(s8)
     d0c:	00001cb7          	lui	s9,0x1
     d10:	41940cb3          	sub	s9,s0,s9
     d14:	7e0cbc83          	ld	s9,2016(s9) # 17e0 <.LBB89_5+0x38>
     d18:	080ccc93          	xori	s9,s9,128
     d1c:	019c0ba3          	sb	s9,23(s8)
     d20:	00001cb7          	lui	s9,0x1
     d24:	41940cb3          	sub	s9,s0,s9
     d28:	7f0cbc83          	ld	s9,2032(s9) # 17f0 <.LBB89_5+0x48>
     d2c:	080ccc93          	xori	s9,s9,128
     d30:	019c0c23          	sb	s9,24(s8)
     d34:	80043c83          	ld	s9,-2048(s0)
     d38:	080ccc93          	xori	s9,s9,128
     d3c:	019c0ca3          	sb	s9,25(s8)
     d40:	81043c83          	ld	s9,-2032(s0)
     d44:	080ccc93          	xori	s9,s9,128
     d48:	019c0d23          	sb	s9,26(s8)
     d4c:	82843c83          	ld	s9,-2008(s0)
     d50:	080ccc93          	xori	s9,s9,128
     d54:	019c0da3          	sb	s9,27(s8)
     d58:	83843c83          	ld	s9,-1992(s0)
     d5c:	080ccc93          	xori	s9,s9,128
     d60:	019c0e23          	sb	s9,28(s8)
     d64:	84843c83          	ld	s9,-1976(s0)
     d68:	080ccc93          	xori	s9,s9,128
     d6c:	019c0ea3          	sb	s9,29(s8)
     d70:	86043c83          	ld	s9,-1952(s0)
     d74:	080ccc93          	xori	s9,s9,128
     d78:	019c0f23          	sb	s9,30(s8)
     d7c:	87843c83          	ld	s9,-1928(s0)
     d80:	080ccc93          	xori	s9,s9,128
     d84:	019c0fa3          	sb	s9,31(s8)
     d88:	88043c03          	ld	s8,-1920(s0)
     d8c:	080c4c93          	xori	s9,s8,128
     d90:	00001c37          	lui	s8,0x1
     d94:	41840c33          	sub	s8,s0,s8
     d98:	d68c3c03          	ld	s8,-664(s8) # d68 <.LBB89_3+0xae8>
     d9c:	01ac0c33          	add	s8,s8,s10
     da0:	019c01a3          	sb	s9,3(s8)
     da4:	89043c83          	ld	s9,-1904(s0)
     da8:	080ccc93          	xori	s9,s9,128
     dac:	019c0123          	sb	s9,2(s8)
     db0:	8a043c83          	ld	s9,-1888(s0)
     db4:	080ccc93          	xori	s9,s9,128
     db8:	019c00a3          	sb	s9,1(s8)
     dbc:	8b843c83          	ld	s9,-1864(s0)
     dc0:	080ccc93          	xori	s9,s9,128
     dc4:	019c0023          	sb	s9,0(s8)
     dc8:	8c843c83          	ld	s9,-1848(s0)
     dcc:	080ccc93          	xori	s9,s9,128
     dd0:	019c0223          	sb	s9,4(s8)
     dd4:	8d843c83          	ld	s9,-1832(s0)
     dd8:	080ccc93          	xori	s9,s9,128
     ddc:	019c02a3          	sb	s9,5(s8)
     de0:	8f043c83          	ld	s9,-1808(s0)
     de4:	080ccc93          	xori	s9,s9,128
     de8:	019c0323          	sb	s9,6(s8)
     dec:	90043c83          	ld	s9,-1792(s0)
     df0:	080ccc93          	xori	s9,s9,128
     df4:	019c03a3          	sb	s9,7(s8)
     df8:	91043c83          	ld	s9,-1776(s0)
     dfc:	080ccc93          	xori	s9,s9,128
     e00:	019c0423          	sb	s9,8(s8)
     e04:	92043c83          	ld	s9,-1760(s0)
     e08:	080ccc93          	xori	s9,s9,128
     e0c:	019c04a3          	sb	s9,9(s8)
     e10:	93843c83          	ld	s9,-1736(s0)
     e14:	080ccc93          	xori	s9,s9,128
     e18:	019c0523          	sb	s9,10(s8)
     e1c:	94843c83          	ld	s9,-1720(s0)
     e20:	080ccc93          	xori	s9,s9,128
     e24:	019c05a3          	sb	s9,11(s8)
     e28:	95843c83          	ld	s9,-1704(s0)
     e2c:	080ccc93          	xori	s9,s9,128
     e30:	019c0623          	sb	s9,12(s8)
     e34:	96843c83          	ld	s9,-1688(s0)
     e38:	080ccc93          	xori	s9,s9,128
     e3c:	019c06a3          	sb	s9,13(s8)
     e40:	98043c83          	ld	s9,-1664(s0)
     e44:	080ccc93          	xori	s9,s9,128
     e48:	019c0723          	sb	s9,14(s8)
     e4c:	99043c83          	ld	s9,-1648(s0)
     e50:	080ccc93          	xori	s9,s9,128
     e54:	019c07a3          	sb	s9,15(s8)
     e58:	9a043c83          	ld	s9,-1632(s0)
     e5c:	080ccc93          	xori	s9,s9,128
     e60:	019c0823          	sb	s9,16(s8)
     e64:	9b843c83          	ld	s9,-1608(s0)
     e68:	080ccc93          	xori	s9,s9,128
     e6c:	019c08a3          	sb	s9,17(s8)
     e70:	9c843c83          	ld	s9,-1592(s0)
     e74:	080ccc93          	xori	s9,s9,128
     e78:	019c0923          	sb	s9,18(s8)
     e7c:	9d843c83          	ld	s9,-1576(s0)
     e80:	080ccc93          	xori	s9,s9,128
     e84:	019c09a3          	sb	s9,19(s8)
     e88:	9e843c83          	ld	s9,-1560(s0)
     e8c:	080ccc93          	xori	s9,s9,128
     e90:	019c0a23          	sb	s9,20(s8)
     e94:	a0043c83          	ld	s9,-1536(s0)
     e98:	080ccc93          	xori	s9,s9,128
     e9c:	019c0aa3          	sb	s9,21(s8)
     ea0:	a1043c83          	ld	s9,-1520(s0)
     ea4:	080ccc93          	xori	s9,s9,128
     ea8:	019c0b23          	sb	s9,22(s8)
     eac:	a2043c83          	ld	s9,-1504(s0)
     eb0:	080ccc93          	xori	s9,s9,128
     eb4:	019c0ba3          	sb	s9,23(s8)
     eb8:	a3043c83          	ld	s9,-1488(s0)
     ebc:	080ccc93          	xori	s9,s9,128
     ec0:	019c0c23          	sb	s9,24(s8)
     ec4:	a4843c83          	ld	s9,-1464(s0)
     ec8:	080ccc93          	xori	s9,s9,128
     ecc:	019c0ca3          	sb	s9,25(s8)
     ed0:	a5843c83          	ld	s9,-1448(s0)
     ed4:	080ccc93          	xori	s9,s9,128
     ed8:	019c0d23          	sb	s9,26(s8)
     edc:	a6843c83          	ld	s9,-1432(s0)
     ee0:	080ccc93          	xori	s9,s9,128
     ee4:	019c0da3          	sb	s9,27(s8)
     ee8:	a8043c83          	ld	s9,-1408(s0)
     eec:	080ccc93          	xori	s9,s9,128
     ef0:	019c0e23          	sb	s9,28(s8)
     ef4:	a9043c83          	ld	s9,-1392(s0)
     ef8:	080ccc93          	xori	s9,s9,128
     efc:	019c0ea3          	sb	s9,29(s8)
     f00:	aa043c83          	ld	s9,-1376(s0)
     f04:	080ccc93          	xori	s9,s9,128
     f08:	019c0f23          	sb	s9,30(s8)
     f0c:	ab843c83          	ld	s9,-1352(s0)
     f10:	080ccc93          	xori	s9,s9,128
     f14:	019c0fa3          	sb	s9,31(s8)
     f18:	ac043c03          	ld	s8,-1344(s0)
     f1c:	080c4c93          	xori	s9,s8,128
     f20:	00001c37          	lui	s8,0x1
     f24:	41840c33          	sub	s8,s0,s8
     f28:	d60c3c03          	ld	s8,-672(s8) # d60 <.LBB89_3+0xae0>
     f2c:	01ac0c33          	add	s8,s8,s10
     f30:	019c01a3          	sb	s9,3(s8)
     f34:	ad843c83          	ld	s9,-1320(s0)
     f38:	080ccc93          	xori	s9,s9,128
     f3c:	019c0123          	sb	s9,2(s8)
     f40:	ae843c83          	ld	s9,-1304(s0)
     f44:	080ccc93          	xori	s9,s9,128
     f48:	019c00a3          	sb	s9,1(s8)
     f4c:	af843c83          	ld	s9,-1288(s0)
     f50:	080ccc93          	xori	s9,s9,128
     f54:	019c0023          	sb	s9,0(s8)
     f58:	b1043c83          	ld	s9,-1264(s0)
     f5c:	080ccc93          	xori	s9,s9,128
     f60:	019c0223          	sb	s9,4(s8)
     f64:	b2043c83          	ld	s9,-1248(s0)
     f68:	080ccc93          	xori	s9,s9,128
     f6c:	019c02a3          	sb	s9,5(s8)
     f70:	b3043c83          	ld	s9,-1232(s0)
     f74:	080ccc93          	xori	s9,s9,128
     f78:	019c0323          	sb	s9,6(s8)
     f7c:	b4043c83          	ld	s9,-1216(s0)
     f80:	080ccc93          	xori	s9,s9,128
     f84:	019c03a3          	sb	s9,7(s8)
     f88:	b5843c83          	ld	s9,-1192(s0)
     f8c:	080ccc93          	xori	s9,s9,128
     f90:	019c0423          	sb	s9,8(s8)
     f94:	b6843c83          	ld	s9,-1176(s0)
     f98:	080ccc93          	xori	s9,s9,128
     f9c:	019c04a3          	sb	s9,9(s8)
     fa0:	b7843c83          	ld	s9,-1160(s0)
     fa4:	080ccc93          	xori	s9,s9,128
     fa8:	019c0523          	sb	s9,10(s8)
     fac:	b8843c83          	ld	s9,-1144(s0)
     fb0:	080ccc93          	xori	s9,s9,128
     fb4:	019c05a3          	sb	s9,11(s8)
     fb8:	ba043c83          	ld	s9,-1120(s0)
     fbc:	080ccc93          	xori	s9,s9,128
     fc0:	019c0623          	sb	s9,12(s8)
     fc4:	bb043c83          	ld	s9,-1104(s0)
     fc8:	080ccc93          	xori	s9,s9,128
     fcc:	019c06a3          	sb	s9,13(s8)
     fd0:	bc043c83          	ld	s9,-1088(s0)
     fd4:	080ccc93          	xori	s9,s9,128
     fd8:	019c0723          	sb	s9,14(s8)
     fdc:	bd843c83          	ld	s9,-1064(s0)
     fe0:	080ccc93          	xori	s9,s9,128
     fe4:	019c07a3          	sb	s9,15(s8)
     fe8:	be843c83          	ld	s9,-1048(s0)
     fec:	080ccc93          	xori	s9,s9,128
     ff0:	019c0823          	sb	s9,16(s8)
     ff4:	bf843c83          	ld	s9,-1032(s0)
     ff8:	080ccc93          	xori	s9,s9,128
     ffc:	019c08a3          	sb	s9,17(s8)
    1000:	c0843c83          	ld	s9,-1016(s0)
    1004:	080ccc93          	xori	s9,s9,128
    1008:	019c0923          	sb	s9,18(s8)
    100c:	c2043c83          	ld	s9,-992(s0)
    1010:	080ccc93          	xori	s9,s9,128
    1014:	019c09a3          	sb	s9,19(s8)
    1018:	c3043c83          	ld	s9,-976(s0)
    101c:	080ccc93          	xori	s9,s9,128
    1020:	019c0a23          	sb	s9,20(s8)
    1024:	c4043c83          	ld	s9,-960(s0)
    1028:	080ccc93          	xori	s9,s9,128
    102c:	019c0aa3          	sb	s9,21(s8)
    1030:	c5043c83          	ld	s9,-944(s0)
    1034:	080ccc93          	xori	s9,s9,128
    1038:	019c0b23          	sb	s9,22(s8)
    103c:	c6843c83          	ld	s9,-920(s0)
    1040:	080ccc93          	xori	s9,s9,128
    1044:	019c0ba3          	sb	s9,23(s8)
    1048:	c7843c83          	ld	s9,-904(s0)
    104c:	080ccc93          	xori	s9,s9,128
    1050:	019c0c23          	sb	s9,24(s8)
    1054:	c8843c83          	ld	s9,-888(s0)
    1058:	080ccc93          	xori	s9,s9,128
    105c:	019c0ca3          	sb	s9,25(s8)
    1060:	c9843c83          	ld	s9,-872(s0)
    1064:	080ccc93          	xori	s9,s9,128
    1068:	019c0d23          	sb	s9,26(s8)
    106c:	ca843c83          	ld	s9,-856(s0)
    1070:	080ccc93          	xori	s9,s9,128
    1074:	019c0da3          	sb	s9,27(s8)
    1078:	cb843c83          	ld	s9,-840(s0)
    107c:	080ccc93          	xori	s9,s9,128
    1080:	019c0e23          	sb	s9,28(s8)
    1084:	cc843c83          	ld	s9,-824(s0)
    1088:	080ccc93          	xori	s9,s9,128
    108c:	019c0ea3          	sb	s9,29(s8)
    1090:	cd843c83          	ld	s9,-808(s0)
    1094:	080ccc93          	xori	s9,s9,128
    1098:	019c0f23          	sb	s9,30(s8)
    109c:	cf043c83          	ld	s9,-784(s0)
    10a0:	080ccc93          	xori	s9,s9,128
    10a4:	019c0fa3          	sb	s9,31(s8)
    10a8:	cf843c03          	ld	s8,-776(s0)
    10ac:	080c4c93          	xori	s9,s8,128
    10b0:	00001c37          	lui	s8,0x1
    10b4:	41840c33          	sub	s8,s0,s8
    10b8:	d58c3c03          	ld	s8,-680(s8) # d58 <.LBB89_3+0xad8>
    10bc:	01ac0c33          	add	s8,s8,s10
    10c0:	019c01a3          	sb	s9,3(s8)
    10c4:	d0843c83          	ld	s9,-760(s0)
    10c8:	080ccc93          	xori	s9,s9,128
    10cc:	019c0123          	sb	s9,2(s8)
    10d0:	d1843c83          	ld	s9,-744(s0)
    10d4:	080ccc93          	xori	s9,s9,128
    10d8:	019c00a3          	sb	s9,1(s8)
    10dc:	d2843c83          	ld	s9,-728(s0)
    10e0:	080ccc93          	xori	s9,s9,128
    10e4:	019c0023          	sb	s9,0(s8)
    10e8:	d3843c83          	ld	s9,-712(s0)
    10ec:	080ccc93          	xori	s9,s9,128
    10f0:	019c0223          	sb	s9,4(s8)
    10f4:	d4843c83          	ld	s9,-696(s0)
    10f8:	080ccc93          	xori	s9,s9,128
    10fc:	019c02a3          	sb	s9,5(s8)
    1100:	d5843c83          	ld	s9,-680(s0)
    1104:	080ccc93          	xori	s9,s9,128
    1108:	019c0323          	sb	s9,6(s8)
    110c:	d6843c83          	ld	s9,-664(s0)
    1110:	080ccc93          	xori	s9,s9,128
    1114:	019c03a3          	sb	s9,7(s8)
    1118:	d7843c83          	ld	s9,-648(s0)
    111c:	080ccc93          	xori	s9,s9,128
    1120:	019c0423          	sb	s9,8(s8)
    1124:	080dcc93          	xori	s9,s11,128
    1128:	019c04a3          	sb	s9,9(s8)
    112c:	08054513          	xori	a0,a0,128
    1130:	00ac0523          	sb	a0,10(s8)
    1134:	0805c513          	xori	a0,a1,128
    1138:	00ac05a3          	sb	a0,11(s8)
    113c:	08064513          	xori	a0,a2,128
    1140:	00ac0623          	sb	a0,12(s8)
    1144:	0806c513          	xori	a0,a3,128
    1148:	00ac06a3          	sb	a0,13(s8)
    114c:	08074513          	xori	a0,a4,128
    1150:	00ac0723          	sb	a0,14(s8)
    1154:	0807c513          	xori	a0,a5,128
    1158:	00ac07a3          	sb	a0,15(s8)
    115c:	08084513          	xori	a0,a6,128
    1160:	00ac0823          	sb	a0,16(s8)
    1164:	0808c513          	xori	a0,a7,128
    1168:	00ac08a3          	sb	a0,17(s8)
    116c:	0802c513          	xori	a0,t0,128
    1170:	00ac0923          	sb	a0,18(s8)
    1174:	08034513          	xori	a0,t1,128
    1178:	00ac09a3          	sb	a0,19(s8)
    117c:	0803c513          	xori	a0,t2,128
    1180:	00ac0a23          	sb	a0,20(s8)
    1184:	080e4513          	xori	a0,t3,128
    1188:	00ac0aa3          	sb	a0,21(s8)
    118c:	080ec513          	xori	a0,t4,128
    1190:	00ac0b23          	sb	a0,22(s8)
    1194:	080f4513          	xori	a0,t5,128
    1198:	00ac0ba3          	sb	a0,23(s8)
    119c:	080fc513          	xori	a0,t6,128
    11a0:	00ac0c23          	sb	a0,24(s8)
    11a4:	0804c513          	xori	a0,s1,128
    11a8:	00ac0ca3          	sb	a0,25(s8)
    11ac:	08094513          	xori	a0,s2,128
    11b0:	00ac0d23          	sb	a0,26(s8)
    11b4:	0809c513          	xori	a0,s3,128
    11b8:	00ac0da3          	sb	a0,27(s8)
    11bc:	080a4513          	xori	a0,s4,128
    11c0:	00ac0e23          	sb	a0,28(s8)
    11c4:	080ac513          	xori	a0,s5,128
    11c8:	00ac0ea3          	sb	a0,29(s8)
    11cc:	080b4513          	xori	a0,s6,128
    11d0:	00ac0f23          	sb	a0,30(s8)
    11d4:	080bc513          	xori	a0,s7,128
    11d8:	00ac0fa3          	sb	a0,31(s8)
    11dc:	020d0593          	addi	a1,s10,32
    11e0:	00001537          	lui	a0,0x1
    11e4:	40a40533          	sub	a0,s0,a0
    11e8:	65053903          	ld	s2,1616(a0) # 1650 <.LBB89_4+0x454>
    11ec:	02090913          	addi	s2,s2,32
    11f0:	3a000513          	li	a0,928
    11f4:	00ad6463          	bltu	s10,a0,11fc <.LBB89_4>
    11f8:	f51fe06f          	j	148 <.LBB89_1>

00000000000011fc <.LBB89_4>:
    11fc:	00001537          	lui	a0,0x1
    1200:	40a40533          	sub	a0,s0,a0
    1204:	66b53423          	sd	a1,1640(a0) # 1668 <.LBB89_4+0x46c>
    1208:	00001537          	lui	a0,0x1
    120c:	40a40533          	sub	a0,s0,a0
    1210:	d5053a83          	ld	s5,-688(a0) # d50 <.LBB89_3+0xad0>
    1214:	00001537          	lui	a0,0x1
    1218:	40a40533          	sub	a0,s0,a0
    121c:	da853b03          	ld	s6,-600(a0) # da8 <.LBB89_3+0xb28>
    1220:	00001537          	lui	a0,0x1
    1224:	40a40533          	sub	a0,s0,a0
    1228:	65253823          	sd	s2,1616(a0) # 1650 <.LBB89_4+0x454>
    122c:	00090b93          	mv	s7,s2
    1230:	00001537          	lui	a0,0x1
    1234:	40a40533          	sub	a0,s0,a0
    1238:	6a053823          	sd	zero,1712(a0) # 16b0 <.LBB89_4+0x4b4>
    123c:	00001537          	lui	a0,0x1
    1240:	40a40533          	sub	a0,s0,a0
    1244:	6a053423          	sd	zero,1704(a0) # 16a8 <.LBB89_4+0x4ac>
    1248:	00001537          	lui	a0,0x1
    124c:	40a40533          	sub	a0,s0,a0
    1250:	6a053023          	sd	zero,1696(a0) # 16a0 <.LBB89_4+0x4a4>
    1254:	00001537          	lui	a0,0x1
    1258:	40a40533          	sub	a0,s0,a0
    125c:	6a053c23          	sd	zero,1720(a0) # 16b8 <.LBB89_4+0x4bc>
    1260:	00001537          	lui	a0,0x1
    1264:	40a40533          	sub	a0,s0,a0
    1268:	68053c23          	sd	zero,1688(a0) # 1698 <.LBB89_4+0x49c>
    126c:	00001537          	lui	a0,0x1
    1270:	40a40533          	sub	a0,s0,a0
    1274:	68053823          	sd	zero,1680(a0) # 1690 <.LBB89_4+0x494>
    1278:	00001537          	lui	a0,0x1
    127c:	40a40533          	sub	a0,s0,a0
    1280:	6c053423          	sd	zero,1736(a0) # 16c8 <.LBB89_4+0x4cc>
    1284:	00001537          	lui	a0,0x1
    1288:	40a40533          	sub	a0,s0,a0
    128c:	6c053023          	sd	zero,1728(a0) # 16c0 <.LBB89_4+0x4c4>
    1290:	00001537          	lui	a0,0x1
    1294:	40a40533          	sub	a0,s0,a0
    1298:	68053423          	sd	zero,1672(a0) # 1688 <.LBB89_4+0x48c>
    129c:	00001537          	lui	a0,0x1
    12a0:	40a40533          	sub	a0,s0,a0
    12a4:	6c053823          	sd	zero,1744(a0) # 16d0 <.LBB89_4+0x4d4>
    12a8:	00001537          	lui	a0,0x1
    12ac:	40a40533          	sub	a0,s0,a0
    12b0:	6c053c23          	sd	zero,1752(a0) # 16d8 <.LBB89_4+0x4dc>
    12b4:	00001537          	lui	a0,0x1
    12b8:	40a40533          	sub	a0,s0,a0
    12bc:	6e053023          	sd	zero,1760(a0) # 16e0 <.LBB89_4+0x4e4>
    12c0:	00001537          	lui	a0,0x1
    12c4:	40a40533          	sub	a0,s0,a0
    12c8:	6e053423          	sd	zero,1768(a0) # 16e8 <.LBB89_4+0x4ec>
    12cc:	00001537          	lui	a0,0x1
    12d0:	40a40533          	sub	a0,s0,a0
    12d4:	6e053823          	sd	zero,1776(a0) # 16f0 <.LBB89_4+0x4f4>
    12d8:	00001537          	lui	a0,0x1
    12dc:	40a40533          	sub	a0,s0,a0
    12e0:	6e053c23          	sd	zero,1784(a0) # 16f8 <.LBB89_4+0x4fc>
    12e4:	00001537          	lui	a0,0x1
    12e8:	40a40533          	sub	a0,s0,a0
    12ec:	70053023          	sd	zero,1792(a0) # 1700 <.LBB89_4+0x504>
    12f0:	00001537          	lui	a0,0x1
    12f4:	40a40533          	sub	a0,s0,a0
    12f8:	70053423          	sd	zero,1800(a0) # 1708 <.LBB89_4+0x50c>
    12fc:	00001537          	lui	a0,0x1
    1300:	40a40533          	sub	a0,s0,a0
    1304:	70053823          	sd	zero,1808(a0) # 1710 <.LBB89_4+0x514>
    1308:	00001537          	lui	a0,0x1
    130c:	40a40533          	sub	a0,s0,a0
    1310:	70053c23          	sd	zero,1816(a0) # 1718 <.LBB89_4+0x51c>
    1314:	00001537          	lui	a0,0x1
    1318:	40a40533          	sub	a0,s0,a0
    131c:	72053023          	sd	zero,1824(a0) # 1720 <.LBB89_4+0x524>
    1320:	00001537          	lui	a0,0x1
    1324:	40a40533          	sub	a0,s0,a0
    1328:	72053423          	sd	zero,1832(a0) # 1728 <.LBB89_4+0x52c>
    132c:	00001537          	lui	a0,0x1
    1330:	40a40533          	sub	a0,s0,a0
    1334:	72053823          	sd	zero,1840(a0) # 1730 <.LBB89_4+0x534>
    1338:	00001537          	lui	a0,0x1
    133c:	40a40533          	sub	a0,s0,a0
    1340:	72053c23          	sd	zero,1848(a0) # 1738 <.LBB89_4+0x53c>
    1344:	00001537          	lui	a0,0x1
    1348:	40a40533          	sub	a0,s0,a0
    134c:	74053023          	sd	zero,1856(a0) # 1740 <.LBB89_4+0x544>
    1350:	00001537          	lui	a0,0x1
    1354:	40a40533          	sub	a0,s0,a0
    1358:	74053423          	sd	zero,1864(a0) # 1748 <.LBB89_4+0x54c>
    135c:	00001537          	lui	a0,0x1
    1360:	40a40533          	sub	a0,s0,a0
    1364:	74053823          	sd	zero,1872(a0) # 1750 <.LBB89_4+0x554>
    1368:	00001537          	lui	a0,0x1
    136c:	40a40533          	sub	a0,s0,a0
    1370:	74053c23          	sd	zero,1880(a0) # 1758 <.LBB89_4+0x55c>
    1374:	00001537          	lui	a0,0x1
    1378:	40a40533          	sub	a0,s0,a0
    137c:	76053023          	sd	zero,1888(a0) # 1760 <.LBB89_4+0x564>
    1380:	00001537          	lui	a0,0x1
    1384:	40a40533          	sub	a0,s0,a0
    1388:	76053423          	sd	zero,1896(a0) # 1768 <.LBB89_4+0x56c>
    138c:	00001537          	lui	a0,0x1
    1390:	40a40533          	sub	a0,s0,a0
    1394:	76053823          	sd	zero,1904(a0) # 1770 <.LBB89_4+0x574>
    1398:	00001537          	lui	a0,0x1
    139c:	40a40533          	sub	a0,s0,a0
    13a0:	76053c23          	sd	zero,1912(a0) # 1778 <.LBB89_4+0x57c>
    13a4:	00001537          	lui	a0,0x1
    13a8:	40a40533          	sub	a0,s0,a0
    13ac:	78053023          	sd	zero,1920(a0) # 1780 <.LBB89_4+0x584>
    13b0:	00001537          	lui	a0,0x1
    13b4:	40a40533          	sub	a0,s0,a0
    13b8:	7a053023          	sd	zero,1952(a0) # 17a0 <.LBB89_4+0x5a4>
    13bc:	00001537          	lui	a0,0x1
    13c0:	40a40533          	sub	a0,s0,a0
    13c4:	78053c23          	sd	zero,1944(a0) # 1798 <.LBB89_4+0x59c>
    13c8:	00001537          	lui	a0,0x1
    13cc:	40a40533          	sub	a0,s0,a0
    13d0:	78053823          	sd	zero,1936(a0) # 1790 <.LBB89_4+0x594>
    13d4:	00001537          	lui	a0,0x1
    13d8:	40a40533          	sub	a0,s0,a0
    13dc:	78053423          	sd	zero,1928(a0) # 1788 <.LBB89_4+0x58c>
    13e0:	00001537          	lui	a0,0x1
    13e4:	40a40533          	sub	a0,s0,a0
    13e8:	7a053423          	sd	zero,1960(a0) # 17a8 <.LBB89_5>
    13ec:	00001537          	lui	a0,0x1
    13f0:	40a40533          	sub	a0,s0,a0
    13f4:	7a053823          	sd	zero,1968(a0) # 17b0 <.LBB89_5+0x8>
    13f8:	00001537          	lui	a0,0x1
    13fc:	40a40533          	sub	a0,s0,a0
    1400:	7a053c23          	sd	zero,1976(a0) # 17b8 <.LBB89_5+0x10>
    1404:	00001537          	lui	a0,0x1
    1408:	40a40533          	sub	a0,s0,a0
    140c:	7c053023          	sd	zero,1984(a0) # 17c0 <.LBB89_5+0x18>
    1410:	00001537          	lui	a0,0x1
    1414:	40a40533          	sub	a0,s0,a0
    1418:	7c053423          	sd	zero,1992(a0) # 17c8 <.LBB89_5+0x20>
    141c:	00001537          	lui	a0,0x1
    1420:	40a40533          	sub	a0,s0,a0
    1424:	7c053823          	sd	zero,2000(a0) # 17d0 <.LBB89_5+0x28>
    1428:	00001537          	lui	a0,0x1
    142c:	40a40533          	sub	a0,s0,a0
    1430:	7c053c23          	sd	zero,2008(a0) # 17d8 <.LBB89_5+0x30>
    1434:	00001537          	lui	a0,0x1
    1438:	40a40533          	sub	a0,s0,a0
    143c:	7e053023          	sd	zero,2016(a0) # 17e0 <.LBB89_5+0x38>
    1440:	00001537          	lui	a0,0x1
    1444:	40a40533          	sub	a0,s0,a0
    1448:	7e053423          	sd	zero,2024(a0) # 17e8 <.LBB89_5+0x40>
    144c:	00001537          	lui	a0,0x1
    1450:	40a40533          	sub	a0,s0,a0
    1454:	7e053823          	sd	zero,2032(a0) # 17f0 <.LBB89_5+0x48>
    1458:	00001537          	lui	a0,0x1
    145c:	40a40533          	sub	a0,s0,a0
    1460:	7e053c23          	sd	zero,2040(a0) # 17f8 <.LBB89_5+0x50>
    1464:	80043023          	sd	zero,-2048(s0)
    1468:	80043423          	sd	zero,-2040(s0)
    146c:	80043823          	sd	zero,-2032(s0)
    1470:	80043c23          	sd	zero,-2024(s0)
    1474:	82043023          	sd	zero,-2016(s0)
    1478:	82043423          	sd	zero,-2008(s0)
    147c:	82043823          	sd	zero,-2000(s0)
    1480:	82043c23          	sd	zero,-1992(s0)
    1484:	84043023          	sd	zero,-1984(s0)
    1488:	84043423          	sd	zero,-1976(s0)
    148c:	84043823          	sd	zero,-1968(s0)
    1490:	84043c23          	sd	zero,-1960(s0)
    1494:	86043023          	sd	zero,-1952(s0)
    1498:	86043423          	sd	zero,-1944(s0)
    149c:	86043823          	sd	zero,-1936(s0)
    14a0:	86043c23          	sd	zero,-1928(s0)
    14a4:	88043023          	sd	zero,-1920(s0)
    14a8:	8a043023          	sd	zero,-1888(s0)
    14ac:	88043c23          	sd	zero,-1896(s0)
    14b0:	88043823          	sd	zero,-1904(s0)
    14b4:	88043423          	sd	zero,-1912(s0)
    14b8:	8a043423          	sd	zero,-1880(s0)
    14bc:	8a043823          	sd	zero,-1872(s0)
    14c0:	8a043c23          	sd	zero,-1864(s0)
    14c4:	8c043023          	sd	zero,-1856(s0)
    14c8:	8c043423          	sd	zero,-1848(s0)
    14cc:	8c043823          	sd	zero,-1840(s0)
    14d0:	8c043c23          	sd	zero,-1832(s0)
    14d4:	8e043023          	sd	zero,-1824(s0)
    14d8:	8e043423          	sd	zero,-1816(s0)
    14dc:	8e043823          	sd	zero,-1808(s0)
    14e0:	8e043c23          	sd	zero,-1800(s0)
    14e4:	90043023          	sd	zero,-1792(s0)
    14e8:	90043423          	sd	zero,-1784(s0)
    14ec:	90043823          	sd	zero,-1776(s0)
    14f0:	90043c23          	sd	zero,-1768(s0)
    14f4:	92043023          	sd	zero,-1760(s0)
    14f8:	92043423          	sd	zero,-1752(s0)
    14fc:	92043823          	sd	zero,-1744(s0)
    1500:	92043c23          	sd	zero,-1736(s0)
    1504:	94043023          	sd	zero,-1728(s0)
    1508:	94043423          	sd	zero,-1720(s0)
    150c:	94043823          	sd	zero,-1712(s0)
    1510:	94043c23          	sd	zero,-1704(s0)
    1514:	96043023          	sd	zero,-1696(s0)
    1518:	96043423          	sd	zero,-1688(s0)
    151c:	96043823          	sd	zero,-1680(s0)
    1520:	96043c23          	sd	zero,-1672(s0)
    1524:	98043023          	sd	zero,-1664(s0)
    1528:	9a043023          	sd	zero,-1632(s0)
    152c:	98043c23          	sd	zero,-1640(s0)
    1530:	98043823          	sd	zero,-1648(s0)
    1534:	98043423          	sd	zero,-1656(s0)
    1538:	9a043423          	sd	zero,-1624(s0)
    153c:	9a043823          	sd	zero,-1616(s0)
    1540:	9a043c23          	sd	zero,-1608(s0)
    1544:	9c043023          	sd	zero,-1600(s0)
    1548:	9c043423          	sd	zero,-1592(s0)
    154c:	9c043823          	sd	zero,-1584(s0)
    1550:	9c043c23          	sd	zero,-1576(s0)
    1554:	9e043023          	sd	zero,-1568(s0)
    1558:	9e043423          	sd	zero,-1560(s0)
    155c:	9e043823          	sd	zero,-1552(s0)
    1560:	9e043c23          	sd	zero,-1544(s0)
    1564:	a0043023          	sd	zero,-1536(s0)
    1568:	a0043423          	sd	zero,-1528(s0)
    156c:	a0043823          	sd	zero,-1520(s0)
    1570:	a0043c23          	sd	zero,-1512(s0)
    1574:	a2043023          	sd	zero,-1504(s0)
    1578:	a2043423          	sd	zero,-1496(s0)
    157c:	a2043823          	sd	zero,-1488(s0)
    1580:	a2043c23          	sd	zero,-1480(s0)
    1584:	a4043023          	sd	zero,-1472(s0)
    1588:	a4043423          	sd	zero,-1464(s0)
    158c:	a4043823          	sd	zero,-1456(s0)
    1590:	a4043c23          	sd	zero,-1448(s0)
    1594:	a6043023          	sd	zero,-1440(s0)
    1598:	a6043423          	sd	zero,-1432(s0)
    159c:	a6043823          	sd	zero,-1424(s0)
    15a0:	a6043c23          	sd	zero,-1416(s0)
    15a4:	a8043023          	sd	zero,-1408(s0)
    15a8:	aa043023          	sd	zero,-1376(s0)
    15ac:	a8043c23          	sd	zero,-1384(s0)
    15b0:	a8043823          	sd	zero,-1392(s0)
    15b4:	a8043423          	sd	zero,-1400(s0)
    15b8:	aa043423          	sd	zero,-1368(s0)
    15bc:	aa043823          	sd	zero,-1360(s0)
    15c0:	aa043c23          	sd	zero,-1352(s0)
    15c4:	ac043023          	sd	zero,-1344(s0)
    15c8:	ac043423          	sd	zero,-1336(s0)
    15cc:	ac043823          	sd	zero,-1328(s0)
    15d0:	ac043c23          	sd	zero,-1320(s0)
    15d4:	ae043023          	sd	zero,-1312(s0)
    15d8:	ae043423          	sd	zero,-1304(s0)
    15dc:	ae043823          	sd	zero,-1296(s0)
    15e0:	ae043c23          	sd	zero,-1288(s0)
    15e4:	b0043023          	sd	zero,-1280(s0)
    15e8:	b0043423          	sd	zero,-1272(s0)
    15ec:	b0043823          	sd	zero,-1264(s0)
    15f0:	b0043c23          	sd	zero,-1256(s0)
    15f4:	b2043023          	sd	zero,-1248(s0)
    15f8:	b2043423          	sd	zero,-1240(s0)
    15fc:	b2043823          	sd	zero,-1232(s0)
    1600:	b2043c23          	sd	zero,-1224(s0)
    1604:	b4043023          	sd	zero,-1216(s0)
    1608:	b4043423          	sd	zero,-1208(s0)
    160c:	b4043823          	sd	zero,-1200(s0)
    1610:	b4043c23          	sd	zero,-1192(s0)
    1614:	b6043023          	sd	zero,-1184(s0)
    1618:	b6043423          	sd	zero,-1176(s0)
    161c:	b6043823          	sd	zero,-1168(s0)
    1620:	b6043c23          	sd	zero,-1160(s0)
    1624:	b8043023          	sd	zero,-1152(s0)
    1628:	ba043023          	sd	zero,-1120(s0)
    162c:	b8043c23          	sd	zero,-1128(s0)
    1630:	b8043823          	sd	zero,-1136(s0)
    1634:	b8043423          	sd	zero,-1144(s0)
    1638:	ba043423          	sd	zero,-1112(s0)
    163c:	ba043823          	sd	zero,-1104(s0)
    1640:	ba043c23          	sd	zero,-1096(s0)
    1644:	bc043023          	sd	zero,-1088(s0)
    1648:	bc043423          	sd	zero,-1080(s0)
    164c:	bc043823          	sd	zero,-1072(s0)
    1650:	bc043c23          	sd	zero,-1064(s0)
    1654:	be043023          	sd	zero,-1056(s0)
    1658:	be043423          	sd	zero,-1048(s0)
    165c:	be043823          	sd	zero,-1040(s0)
    1660:	be043c23          	sd	zero,-1032(s0)
    1664:	c0043023          	sd	zero,-1024(s0)
    1668:	c0043423          	sd	zero,-1016(s0)
    166c:	c0043823          	sd	zero,-1008(s0)
    1670:	c0043c23          	sd	zero,-1000(s0)
    1674:	c2043023          	sd	zero,-992(s0)
    1678:	c2043423          	sd	zero,-984(s0)
    167c:	c2043823          	sd	zero,-976(s0)
    1680:	c2043c23          	sd	zero,-968(s0)
    1684:	c4043023          	sd	zero,-960(s0)
    1688:	c4043423          	sd	zero,-952(s0)
    168c:	c4043823          	sd	zero,-944(s0)
    1690:	c4043c23          	sd	zero,-936(s0)
    1694:	c6043023          	sd	zero,-928(s0)
    1698:	c6043423          	sd	zero,-920(s0)
    169c:	c6043823          	sd	zero,-912(s0)
    16a0:	c6043c23          	sd	zero,-904(s0)
    16a4:	c8043023          	sd	zero,-896(s0)
    16a8:	ca043023          	sd	zero,-864(s0)
    16ac:	c8043c23          	sd	zero,-872(s0)
    16b0:	c8043823          	sd	zero,-880(s0)
    16b4:	c8043423          	sd	zero,-888(s0)
    16b8:	ca043423          	sd	zero,-856(s0)
    16bc:	ca043823          	sd	zero,-848(s0)
    16c0:	ca043c23          	sd	zero,-840(s0)
    16c4:	cc043023          	sd	zero,-832(s0)
    16c8:	cc043423          	sd	zero,-824(s0)
    16cc:	cc043823          	sd	zero,-816(s0)
    16d0:	cc043c23          	sd	zero,-808(s0)
    16d4:	ce043023          	sd	zero,-800(s0)
    16d8:	ce043423          	sd	zero,-792(s0)
    16dc:	ce043823          	sd	zero,-784(s0)
    16e0:	ce043c23          	sd	zero,-776(s0)
    16e4:	d0043023          	sd	zero,-768(s0)
    16e8:	d0043423          	sd	zero,-760(s0)
    16ec:	d0043823          	sd	zero,-752(s0)
    16f0:	d0043c23          	sd	zero,-744(s0)
    16f4:	d2043023          	sd	zero,-736(s0)
    16f8:	d2043423          	sd	zero,-728(s0)
    16fc:	d2043823          	sd	zero,-720(s0)
    1700:	d2043c23          	sd	zero,-712(s0)
    1704:	d4043023          	sd	zero,-704(s0)
    1708:	d4043423          	sd	zero,-696(s0)
    170c:	d4043823          	sd	zero,-688(s0)
    1710:	d4043c23          	sd	zero,-680(s0)
    1714:	d6043023          	sd	zero,-672(s0)
    1718:	d6043423          	sd	zero,-664(s0)
    171c:	d6043823          	sd	zero,-656(s0)
    1720:	d6043c23          	sd	zero,-648(s0)
    1724:	d8043023          	sd	zero,-640(s0)
    1728:	da043023          	sd	zero,-608(s0)
    172c:	d8043c23          	sd	zero,-616(s0)
    1730:	d8043823          	sd	zero,-624(s0)
    1734:	d8043423          	sd	zero,-632(s0)
    1738:	da043423          	sd	zero,-600(s0)
    173c:	da043823          	sd	zero,-592(s0)
    1740:	da043c23          	sd	zero,-584(s0)
    1744:	00000093          	li	ra,0
    1748:	00000d93          	li	s11,0
    174c:	00000d13          	li	s10,0
    1750:	dc043c23          	sd	zero,-552(s0)
    1754:	de043023          	sd	zero,-544(s0)
    1758:	00000993          	li	s3,0
    175c:	00000913          	li	s2,0
    1760:	00000493          	li	s1,0
    1764:	00000f93          	li	t6,0
    1768:	00000f13          	li	t5,0
    176c:	00000e93          	li	t4,0
    1770:	00000e13          	li	t3,0
    1774:	00000393          	li	t2,0
    1778:	00000713          	li	a4,0
    177c:	00000693          	li	a3,0
    1780:	00000613          	li	a2,0
    1784:	00000593          	li	a1,0
    1788:	00000513          	li	a0,0
    178c:	00000313          	li	t1,0
    1790:	00000293          	li	t0,0
    1794:	00000893          	li	a7,0
    1798:	00000813          	li	a6,0
    179c:	00000793          	li	a5,0
    17a0:	00000c93          	li	s9,0
    17a4:	e4043423          	sd	zero,-440(s0)

00000000000017a8 <.LBB89_5>:
    17a8:	e5943023          	sd	s9,-448(s0)
    17ac:	f9743423          	sd	s7,-120(s0)
    17b0:	f9643023          	sd	s6,-128(s0)
    17b4:	00001a37          	lui	s4,0x1
    17b8:	41440a33          	sub	s4,s0,s4
    17bc:	695a3023          	sd	s5,1664(s4) # 1680 <.LBB89_4+0x484>
    17c0:	dc143023          	sd	ra,-576(s0)
    17c4:	ddb43423          	sd	s11,-568(s0)
    17c8:	dda43823          	sd	s10,-560(s0)
    17cc:	df343423          	sd	s3,-536(s0)
    17d0:	df243823          	sd	s2,-528(s0)
    17d4:	de943c23          	sd	s1,-520(s0)
    17d8:	edf43823          	sd	t6,-304(s0)
    17dc:	e1e43023          	sd	t5,-512(s0)
    17e0:	e1d43423          	sd	t4,-504(s0)
    17e4:	e1c43823          	sd	t3,-496(s0)
    17e8:	ec743c23          	sd	t2,-296(s0)
    17ec:	eee43023          	sd	a4,-288(s0)
    17f0:	eed43423          	sd	a3,-280(s0)
    17f4:	eec43823          	sd	a2,-272(s0)
    17f8:	eeb43c23          	sd	a1,-264(s0)
    17fc:	f0a43023          	sd	a0,-256(s0)
    1800:	e0643c23          	sd	t1,-488(s0)
    1804:	e2543023          	sd	t0,-480(s0)
    1808:	e3143423          	sd	a7,-472(s0)
    180c:	e3043823          	sd	a6,-464(s0)
    1810:	e2f43c23          	sd	a5,-456(s0)
    1814:	e20b0503          	lb	a0,-480(s6)
    1818:	002b8603          	lb	a2,2(s7)
    181c:	f2c43023          	sd	a2,-224(s0)
    1820:	001b8683          	lb	a3,1(s7)
    1824:	f0d43823          	sd	a3,-240(s0)
    1828:	000b8703          	lb	a4,0(s7)
    182c:	003b8783          	lb	a5,3(s7)
    1830:	f0f43c23          	sd	a5,-232(s0)
    1834:	004b8803          	lb	a6,4(s7)
    1838:	f3043823          	sd	a6,-208(s0)
    183c:	005b8883          	lb	a7,5(s7)
    1840:	f7143823          	sd	a7,-144(s0)
    1844:	006b8d83          	lb	s11,6(s7)
    1848:	f7b43c23          	sd	s11,-136(s0)
    184c:	007b8083          	lb	ra,7(s7)
    1850:	f4143423          	sd	ra,-184(s0)
    1854:	008b8a03          	lb	s4,8(s7)
    1858:	f5443023          	sd	s4,-192(s0)
    185c:	009b8283          	lb	t0,9(s7)
    1860:	f0543423          	sd	t0,-248(s0)
    1864:	00ab8303          	lb	t1,10(s7)
    1868:	e8643823          	sd	t1,-368(s0)
    186c:	00bb8383          	lb	t2,11(s7)
    1870:	ea743823          	sd	t2,-336(s0)
    1874:	00cb8e83          	lb	t4,12(s7)
    1878:	00db8e03          	lb	t3,13(s7)
    187c:	edc43023          	sd	t3,-320(s0)
    1880:	00eb8d03          	lb	s10,14(s7)
    1884:	f7a43023          	sd	s10,-160(s0)
    1888:	00fb8a83          	lb	s5,15(s7)
    188c:	010b8c83          	lb	s9,16(s7)
    1890:	eb943423          	sd	s9,-344(s0)
    1894:	011b8b03          	lb	s6,17(s7)
    1898:	f3643c23          	sd	s6,-200(s0)
    189c:	012b8c03          	lb	s8,18(s7)
    18a0:	013b8f03          	lb	t5,19(s7)
    18a4:	ede43423          	sd	t5,-312(s0)
    18a8:	014b8f83          	lb	t6,20(s7)
    18ac:	f8843583          	ld	a1,-120(s0)
    18b0:	01558b83          	lb	s7,21(a1)
    18b4:	f8843583          	ld	a1,-120(s0)
    18b8:	01658583          	lb	a1,22(a1)
    18bc:	f4b43823          	sd	a1,-176(s0)
    18c0:	f8843583          	ld	a1,-120(s0)
    18c4:	01758903          	lb	s2,23(a1)
    18c8:	f7243423          	sd	s2,-152(s0)
    18cc:	f8843583          	ld	a1,-120(s0)
    18d0:	01858983          	lb	s3,24(a1)
    18d4:	02c505b3          	mul	a1,a0,a2
    18d8:	00001637          	lui	a2,0x1
    18dc:	40c40633          	sub	a2,s0,a2
    18e0:	6a063603          	ld	a2,1696(a2) # 16a0 <.LBB89_4+0x4a4>
    18e4:	00c58633          	add	a2,a1,a2
    18e8:	000015b7          	lui	a1,0x1
    18ec:	40b405b3          	sub	a1,s0,a1
    18f0:	6ac5b023          	sd	a2,1696(a1) # 16a0 <.LBB89_4+0x4a4>
    18f4:	02d505b3          	mul	a1,a0,a3
    18f8:	00001637          	lui	a2,0x1
    18fc:	40c40633          	sub	a2,s0,a2
    1900:	6a863603          	ld	a2,1704(a2) # 16a8 <.LBB89_4+0x4ac>
    1904:	00c58633          	add	a2,a1,a2
    1908:	000015b7          	lui	a1,0x1
    190c:	40b405b3          	sub	a1,s0,a1
    1910:	6ac5b423          	sd	a2,1704(a1) # 16a8 <.LBB89_4+0x4ac>
    1914:	02e505b3          	mul	a1,a0,a4
    1918:	00070693          	mv	a3,a4
    191c:	00001637          	lui	a2,0x1
    1920:	40c40633          	sub	a2,s0,a2
    1924:	6b063603          	ld	a2,1712(a2) # 16b0 <.LBB89_4+0x4b4>
    1928:	00c58633          	add	a2,a1,a2
    192c:	000015b7          	lui	a1,0x1
    1930:	40b405b3          	sub	a1,s0,a1
    1934:	6ac5b823          	sd	a2,1712(a1) # 16b0 <.LBB89_4+0x4b4>
    1938:	02f505b3          	mul	a1,a0,a5
    193c:	00001637          	lui	a2,0x1
    1940:	40c40633          	sub	a2,s0,a2
    1944:	6b863603          	ld	a2,1720(a2) # 16b8 <.LBB89_4+0x4bc>
    1948:	00c58633          	add	a2,a1,a2
    194c:	000015b7          	lui	a1,0x1
    1950:	40b405b3          	sub	a1,s0,a1
    1954:	6ac5bc23          	sd	a2,1720(a1) # 16b8 <.LBB89_4+0x4bc>
    1958:	030505b3          	mul	a1,a0,a6
    195c:	00001637          	lui	a2,0x1
    1960:	40c40633          	sub	a2,s0,a2
    1964:	69863603          	ld	a2,1688(a2) # 1698 <.LBB89_4+0x49c>
    1968:	00c58633          	add	a2,a1,a2
    196c:	000015b7          	lui	a1,0x1
    1970:	40b405b3          	sub	a1,s0,a1
    1974:	68c5bc23          	sd	a2,1688(a1) # 1698 <.LBB89_4+0x49c>
    1978:	031505b3          	mul	a1,a0,a7
    197c:	00001637          	lui	a2,0x1
    1980:	40c40633          	sub	a2,s0,a2
    1984:	69063603          	ld	a2,1680(a2) # 1690 <.LBB89_4+0x494>
    1988:	00c58633          	add	a2,a1,a2
    198c:	000015b7          	lui	a1,0x1
    1990:	40b405b3          	sub	a1,s0,a1
    1994:	68c5b823          	sd	a2,1680(a1) # 1690 <.LBB89_4+0x494>
    1998:	03b505b3          	mul	a1,a0,s11
    199c:	00001637          	lui	a2,0x1
    19a0:	40c40633          	sub	a2,s0,a2
    19a4:	6c863603          	ld	a2,1736(a2) # 16c8 <.LBB89_4+0x4cc>
    19a8:	00c58633          	add	a2,a1,a2
    19ac:	000015b7          	lui	a1,0x1
    19b0:	40b405b3          	sub	a1,s0,a1
    19b4:	6cc5b423          	sd	a2,1736(a1) # 16c8 <.LBB89_4+0x4cc>
    19b8:	021505b3          	mul	a1,a0,ra
    19bc:	00001637          	lui	a2,0x1
    19c0:	40c40633          	sub	a2,s0,a2
    19c4:	6c063603          	ld	a2,1728(a2) # 16c0 <.LBB89_4+0x4c4>
    19c8:	00c58633          	add	a2,a1,a2
    19cc:	000015b7          	lui	a1,0x1
    19d0:	40b405b3          	sub	a1,s0,a1
    19d4:	6cc5b023          	sd	a2,1728(a1) # 16c0 <.LBB89_4+0x4c4>
    19d8:	034505b3          	mul	a1,a0,s4
    19dc:	00001637          	lui	a2,0x1
    19e0:	40c40633          	sub	a2,s0,a2
    19e4:	68863603          	ld	a2,1672(a2) # 1688 <.LBB89_4+0x48c>
    19e8:	00c58633          	add	a2,a1,a2
    19ec:	000015b7          	lui	a1,0x1
    19f0:	40b405b3          	sub	a1,s0,a1
    19f4:	68c5b423          	sd	a2,1672(a1) # 1688 <.LBB89_4+0x48c>
    19f8:	025505b3          	mul	a1,a0,t0
    19fc:	00001637          	lui	a2,0x1
    1a00:	40c40633          	sub	a2,s0,a2
    1a04:	6d063603          	ld	a2,1744(a2) # 16d0 <.LBB89_4+0x4d4>
    1a08:	00c58633          	add	a2,a1,a2
    1a0c:	000015b7          	lui	a1,0x1
    1a10:	40b405b3          	sub	a1,s0,a1
    1a14:	6cc5b823          	sd	a2,1744(a1) # 16d0 <.LBB89_4+0x4d4>
    1a18:	026505b3          	mul	a1,a0,t1
    1a1c:	00001637          	lui	a2,0x1
    1a20:	40c40633          	sub	a2,s0,a2
    1a24:	6d863603          	ld	a2,1752(a2) # 16d8 <.LBB89_4+0x4dc>
    1a28:	00c58633          	add	a2,a1,a2
    1a2c:	000015b7          	lui	a1,0x1
    1a30:	40b405b3          	sub	a1,s0,a1
    1a34:	6cc5bc23          	sd	a2,1752(a1) # 16d8 <.LBB89_4+0x4dc>
    1a38:	027505b3          	mul	a1,a0,t2
    1a3c:	00001637          	lui	a2,0x1
    1a40:	40c40633          	sub	a2,s0,a2
    1a44:	6e063603          	ld	a2,1760(a2) # 16e0 <.LBB89_4+0x4e4>
    1a48:	00c58633          	add	a2,a1,a2
    1a4c:	000015b7          	lui	a1,0x1
    1a50:	40b405b3          	sub	a1,s0,a1
    1a54:	6ec5b023          	sd	a2,1760(a1) # 16e0 <.LBB89_4+0x4e4>
    1a58:	03d505b3          	mul	a1,a0,t4
    1a5c:	000e8293          	mv	t0,t4
    1a60:	00001637          	lui	a2,0x1
    1a64:	40c40633          	sub	a2,s0,a2
    1a68:	6e863603          	ld	a2,1768(a2) # 16e8 <.LBB89_4+0x4ec>
    1a6c:	00c58633          	add	a2,a1,a2
    1a70:	000015b7          	lui	a1,0x1
    1a74:	40b405b3          	sub	a1,s0,a1
    1a78:	6ec5b423          	sd	a2,1768(a1) # 16e8 <.LBB89_4+0x4ec>
    1a7c:	03c505b3          	mul	a1,a0,t3
    1a80:	00001637          	lui	a2,0x1
    1a84:	40c40633          	sub	a2,s0,a2
    1a88:	6f063603          	ld	a2,1776(a2) # 16f0 <.LBB89_4+0x4f4>
    1a8c:	00c58633          	add	a2,a1,a2
    1a90:	000015b7          	lui	a1,0x1
    1a94:	40b405b3          	sub	a1,s0,a1
    1a98:	6ec5b823          	sd	a2,1776(a1) # 16f0 <.LBB89_4+0x4f4>
    1a9c:	03a505b3          	mul	a1,a0,s10
    1aa0:	00001637          	lui	a2,0x1
    1aa4:	40c40633          	sub	a2,s0,a2
    1aa8:	6f863603          	ld	a2,1784(a2) # 16f8 <.LBB89_4+0x4fc>
    1aac:	00c58633          	add	a2,a1,a2
    1ab0:	000015b7          	lui	a1,0x1
    1ab4:	40b405b3          	sub	a1,s0,a1
    1ab8:	6ec5bc23          	sd	a2,1784(a1) # 16f8 <.LBB89_4+0x4fc>
    1abc:	035505b3          	mul	a1,a0,s5
    1ac0:	e7543823          	sd	s5,-400(s0)
    1ac4:	00001637          	lui	a2,0x1
    1ac8:	40c40633          	sub	a2,s0,a2
    1acc:	70063603          	ld	a2,1792(a2) # 1700 <.LBB89_4+0x504>
    1ad0:	00c58633          	add	a2,a1,a2
    1ad4:	000015b7          	lui	a1,0x1
    1ad8:	40b405b3          	sub	a1,s0,a1
    1adc:	70c5b023          	sd	a2,1792(a1) # 1700 <.LBB89_4+0x504>
    1ae0:	039505b3          	mul	a1,a0,s9
    1ae4:	00001637          	lui	a2,0x1
    1ae8:	40c40633          	sub	a2,s0,a2
    1aec:	70863603          	ld	a2,1800(a2) # 1708 <.LBB89_4+0x50c>
    1af0:	00c58633          	add	a2,a1,a2
    1af4:	000015b7          	lui	a1,0x1
    1af8:	40b405b3          	sub	a1,s0,a1
    1afc:	70c5b423          	sd	a2,1800(a1) # 1708 <.LBB89_4+0x50c>
    1b00:	036505b3          	mul	a1,a0,s6
    1b04:	00001637          	lui	a2,0x1
    1b08:	40c40633          	sub	a2,s0,a2
    1b0c:	71063603          	ld	a2,1808(a2) # 1710 <.LBB89_4+0x514>
    1b10:	00c58633          	add	a2,a1,a2
    1b14:	000015b7          	lui	a1,0x1
    1b18:	40b405b3          	sub	a1,s0,a1
    1b1c:	70c5b823          	sd	a2,1808(a1) # 1710 <.LBB89_4+0x514>
    1b20:	038505b3          	mul	a1,a0,s8
    1b24:	00001637          	lui	a2,0x1
    1b28:	40c40633          	sub	a2,s0,a2
    1b2c:	71863603          	ld	a2,1816(a2) # 1718 <.LBB89_4+0x51c>
    1b30:	00c58633          	add	a2,a1,a2
    1b34:	000015b7          	lui	a1,0x1
    1b38:	40b405b3          	sub	a1,s0,a1
    1b3c:	70c5bc23          	sd	a2,1816(a1) # 1718 <.LBB89_4+0x51c>
    1b40:	03e505b3          	mul	a1,a0,t5
    1b44:	00001637          	lui	a2,0x1
    1b48:	40c40633          	sub	a2,s0,a2
    1b4c:	72063603          	ld	a2,1824(a2) # 1720 <.LBB89_4+0x524>
    1b50:	00c58633          	add	a2,a1,a2
    1b54:	000015b7          	lui	a1,0x1
    1b58:	40b405b3          	sub	a1,s0,a1
    1b5c:	72c5b023          	sd	a2,1824(a1) # 1720 <.LBB89_4+0x524>
    1b60:	03f505b3          	mul	a1,a0,t6
    1b64:	000f8d13          	mv	s10,t6
    1b68:	e9f43c23          	sd	t6,-360(s0)
    1b6c:	00001637          	lui	a2,0x1
    1b70:	40c40633          	sub	a2,s0,a2
    1b74:	72863603          	ld	a2,1832(a2) # 1728 <.LBB89_4+0x52c>
    1b78:	00c58633          	add	a2,a1,a2
    1b7c:	000015b7          	lui	a1,0x1
    1b80:	40b405b3          	sub	a1,s0,a1
    1b84:	72c5b423          	sd	a2,1832(a1) # 1728 <.LBB89_4+0x52c>
    1b88:	037505b3          	mul	a1,a0,s7
    1b8c:	00001637          	lui	a2,0x1
    1b90:	40c40633          	sub	a2,s0,a2
    1b94:	73063603          	ld	a2,1840(a2) # 1730 <.LBB89_4+0x534>
    1b98:	00c58633          	add	a2,a1,a2
    1b9c:	000015b7          	lui	a1,0x1
    1ba0:	40b405b3          	sub	a1,s0,a1
    1ba4:	72c5b823          	sd	a2,1840(a1) # 1730 <.LBB89_4+0x534>
    1ba8:	f5043803          	ld	a6,-176(s0)
    1bac:	030505b3          	mul	a1,a0,a6
    1bb0:	00001637          	lui	a2,0x1
    1bb4:	40c40633          	sub	a2,s0,a2
    1bb8:	73863603          	ld	a2,1848(a2) # 1738 <.LBB89_4+0x53c>
    1bbc:	00c58633          	add	a2,a1,a2
    1bc0:	000015b7          	lui	a1,0x1
    1bc4:	40b405b3          	sub	a1,s0,a1
    1bc8:	72c5bc23          	sd	a2,1848(a1) # 1738 <.LBB89_4+0x53c>
    1bcc:	032505b3          	mul	a1,a0,s2
    1bd0:	00001637          	lui	a2,0x1
    1bd4:	40c40633          	sub	a2,s0,a2
    1bd8:	74063603          	ld	a2,1856(a2) # 1740 <.LBB89_4+0x544>
    1bdc:	00c58633          	add	a2,a1,a2
    1be0:	000015b7          	lui	a1,0x1
    1be4:	40b405b3          	sub	a1,s0,a1
    1be8:	74c5b023          	sd	a2,1856(a1) # 1740 <.LBB89_4+0x544>
    1bec:	f8843583          	ld	a1,-120(s0)
    1bf0:	01958703          	lb	a4,25(a1)
    1bf4:	eae43c23          	sd	a4,-328(s0)
    1bf8:	033505b3          	mul	a1,a0,s3
    1bfc:	00098e93          	mv	t4,s3
    1c00:	00001637          	lui	a2,0x1
    1c04:	40c40633          	sub	a2,s0,a2
    1c08:	74863603          	ld	a2,1864(a2) # 1748 <.LBB89_4+0x54c>
    1c0c:	00c58633          	add	a2,a1,a2
    1c10:	000015b7          	lui	a1,0x1
    1c14:	40b405b3          	sub	a1,s0,a1
    1c18:	74c5b423          	sd	a2,1864(a1) # 1748 <.LBB89_4+0x54c>
    1c1c:	f8843583          	ld	a1,-120(s0)
    1c20:	01a58883          	lb	a7,26(a1)
    1c24:	f5143c23          	sd	a7,-168(s0)
    1c28:	02e505b3          	mul	a1,a0,a4
    1c2c:	00001637          	lui	a2,0x1
    1c30:	40c40633          	sub	a2,s0,a2
    1c34:	75063603          	ld	a2,1872(a2) # 1750 <.LBB89_4+0x554>
    1c38:	00c58633          	add	a2,a1,a2
    1c3c:	000015b7          	lui	a1,0x1
    1c40:	40b405b3          	sub	a1,s0,a1
    1c44:	74c5b823          	sd	a2,1872(a1) # 1750 <.LBB89_4+0x554>
    1c48:	f8843583          	ld	a1,-120(s0)
    1c4c:	01b58783          	lb	a5,27(a1)
    1c50:	f2f43423          	sd	a5,-216(s0)
    1c54:	031505b3          	mul	a1,a0,a7
    1c58:	00001637          	lui	a2,0x1
    1c5c:	40c40633          	sub	a2,s0,a2
    1c60:	75863603          	ld	a2,1880(a2) # 1758 <.LBB89_4+0x55c>
    1c64:	00c58633          	add	a2,a1,a2
    1c68:	000015b7          	lui	a1,0x1
    1c6c:	40b405b3          	sub	a1,s0,a1
    1c70:	74c5bc23          	sd	a2,1880(a1) # 1758 <.LBB89_4+0x55c>
    1c74:	f8843583          	ld	a1,-120(s0)
    1c78:	01c58d83          	lb	s11,28(a1)
    1c7c:	02f505b3          	mul	a1,a0,a5
    1c80:	00001637          	lui	a2,0x1
    1c84:	40c40633          	sub	a2,s0,a2
    1c88:	76063603          	ld	a2,1888(a2) # 1760 <.LBB89_4+0x564>
    1c8c:	00c58633          	add	a2,a1,a2
    1c90:	000015b7          	lui	a1,0x1
    1c94:	40b405b3          	sub	a1,s0,a1
    1c98:	76c5b023          	sd	a2,1888(a1) # 1760 <.LBB89_4+0x564>
    1c9c:	f8843583          	ld	a1,-120(s0)
    1ca0:	01d58783          	lb	a5,29(a1)
    1ca4:	03b505b3          	mul	a1,a0,s11
    1ca8:	e9b43023          	sd	s11,-384(s0)
    1cac:	00001637          	lui	a2,0x1
    1cb0:	40c40633          	sub	a2,s0,a2
    1cb4:	76863603          	ld	a2,1896(a2) # 1768 <.LBB89_4+0x56c>
    1cb8:	00c58633          	add	a2,a1,a2
    1cbc:	000015b7          	lui	a1,0x1
    1cc0:	40b405b3          	sub	a1,s0,a1
    1cc4:	76c5b423          	sd	a2,1896(a1) # 1768 <.LBB89_4+0x56c>
    1cc8:	f8843583          	ld	a1,-120(s0)
    1ccc:	01e58b03          	lb	s6,30(a1)
    1cd0:	02f505b3          	mul	a1,a0,a5
    1cd4:	00078913          	mv	s2,a5
    1cd8:	e6f43023          	sd	a5,-416(s0)
    1cdc:	00001637          	lui	a2,0x1
    1ce0:	40c40633          	sub	a2,s0,a2
    1ce4:	77063603          	ld	a2,1904(a2) # 1770 <.LBB89_4+0x574>
    1ce8:	00c58633          	add	a2,a1,a2
    1cec:	000015b7          	lui	a1,0x1
    1cf0:	40b405b3          	sub	a1,s0,a1
    1cf4:	76c5b823          	sd	a2,1904(a1) # 1770 <.LBB89_4+0x574>
    1cf8:	f8843583          	ld	a1,-120(s0)
    1cfc:	01f58583          	lb	a1,31(a1)
    1d00:	f8043603          	ld	a2,-128(s0)
    1d04:	ec060783          	lb	a5,-320(a2)
    1d08:	03650a33          	mul	s4,a0,s6
    1d0c:	000b0c93          	mv	s9,s6
    1d10:	00001637          	lui	a2,0x1
    1d14:	40c40633          	sub	a2,s0,a2
    1d18:	77863603          	ld	a2,1912(a2) # 1778 <.LBB89_4+0x57c>
    1d1c:	00ca0633          	add	a2,s4,a2
    1d20:	00001737          	lui	a4,0x1
    1d24:	40e40733          	sub	a4,s0,a4
    1d28:	76c73c23          	sd	a2,1912(a4) # 1778 <.LBB89_4+0x57c>
    1d2c:	02b50533          	mul	a0,a0,a1
    1d30:	00058b13          	mv	s6,a1
    1d34:	000015b7          	lui	a1,0x1
    1d38:	40b405b3          	sub	a1,s0,a1
    1d3c:	7805b603          	ld	a2,1920(a1) # 1780 <.LBB89_4+0x584>
    1d40:	00c50633          	add	a2,a0,a2
    1d44:	00001537          	lui	a0,0x1
    1d48:	40a40533          	sub	a0,s0,a0
    1d4c:	78c53023          	sd	a2,1920(a0) # 1780 <.LBB89_4+0x584>
    1d50:	00068893          	mv	a7,a3
    1d54:	02d78533          	mul	a0,a5,a3
    1d58:	000015b7          	lui	a1,0x1
    1d5c:	40b405b3          	sub	a1,s0,a1
    1d60:	7a05b603          	ld	a2,1952(a1) # 17a0 <.LBB89_4+0x5a4>
    1d64:	00c50633          	add	a2,a0,a2
    1d68:	00001537          	lui	a0,0x1
    1d6c:	40a40533          	sub	a0,s0,a0
    1d70:	7ac53023          	sd	a2,1952(a0) # 17a0 <.LBB89_4+0x5a4>
    1d74:	f1043083          	ld	ra,-240(s0)
    1d78:	02178533          	mul	a0,a5,ra
    1d7c:	000015b7          	lui	a1,0x1
    1d80:	40b405b3          	sub	a1,s0,a1
    1d84:	7985b603          	ld	a2,1944(a1) # 1798 <.LBB89_4+0x59c>
    1d88:	00c50633          	add	a2,a0,a2
    1d8c:	00001537          	lui	a0,0x1
    1d90:	40a40533          	sub	a0,s0,a0
    1d94:	78c53c23          	sd	a2,1944(a0) # 1798 <.LBB89_4+0x59c>
    1d98:	f2043303          	ld	t1,-224(s0)
    1d9c:	02678533          	mul	a0,a5,t1
    1da0:	000015b7          	lui	a1,0x1
    1da4:	40b405b3          	sub	a1,s0,a1
    1da8:	7905b603          	ld	a2,1936(a1) # 1790 <.LBB89_4+0x594>
    1dac:	00c50633          	add	a2,a0,a2
    1db0:	00001537          	lui	a0,0x1
    1db4:	40a40533          	sub	a0,s0,a0
    1db8:	78c53823          	sd	a2,1936(a0) # 1790 <.LBB89_4+0x594>
    1dbc:	f1843683          	ld	a3,-232(s0)
    1dc0:	02d78533          	mul	a0,a5,a3
    1dc4:	000015b7          	lui	a1,0x1
    1dc8:	40b405b3          	sub	a1,s0,a1
    1dcc:	7885b603          	ld	a2,1928(a1) # 1788 <.LBB89_4+0x58c>
    1dd0:	00c50633          	add	a2,a0,a2
    1dd4:	00001537          	lui	a0,0x1
    1dd8:	40a40533          	sub	a0,s0,a0
    1ddc:	78c53423          	sd	a2,1928(a0) # 1788 <.LBB89_4+0x58c>
    1de0:	f3043383          	ld	t2,-208(s0)
    1de4:	02778533          	mul	a0,a5,t2
    1de8:	000015b7          	lui	a1,0x1
    1dec:	40b405b3          	sub	a1,s0,a1
    1df0:	7a85b603          	ld	a2,1960(a1) # 17a8 <.LBB89_5>
    1df4:	00c50633          	add	a2,a0,a2
    1df8:	00001537          	lui	a0,0x1
    1dfc:	40a40533          	sub	a0,s0,a0
    1e00:	7ac53423          	sd	a2,1960(a0) # 17a8 <.LBB89_5>
    1e04:	f7043503          	ld	a0,-144(s0)
    1e08:	02a78533          	mul	a0,a5,a0
    1e0c:	000015b7          	lui	a1,0x1
    1e10:	40b405b3          	sub	a1,s0,a1
    1e14:	7b05b603          	ld	a2,1968(a1) # 17b0 <.LBB89_5+0x8>
    1e18:	00c50633          	add	a2,a0,a2
    1e1c:	00001537          	lui	a0,0x1
    1e20:	40a40533          	sub	a0,s0,a0
    1e24:	7ac53823          	sd	a2,1968(a0) # 17b0 <.LBB89_5+0x8>
    1e28:	f7843503          	ld	a0,-136(s0)
    1e2c:	02a78533          	mul	a0,a5,a0
    1e30:	000015b7          	lui	a1,0x1
    1e34:	40b405b3          	sub	a1,s0,a1
    1e38:	7b85b603          	ld	a2,1976(a1) # 17b8 <.LBB89_5+0x10>
    1e3c:	00c50633          	add	a2,a0,a2
    1e40:	00001537          	lui	a0,0x1
    1e44:	40a40533          	sub	a0,s0,a0
    1e48:	7ac53c23          	sd	a2,1976(a0) # 17b8 <.LBB89_5+0x10>
    1e4c:	f4843e03          	ld	t3,-184(s0)
    1e50:	03c78533          	mul	a0,a5,t3
    1e54:	000015b7          	lui	a1,0x1
    1e58:	40b405b3          	sub	a1,s0,a1
    1e5c:	7c05b603          	ld	a2,1984(a1) # 17c0 <.LBB89_5+0x18>
    1e60:	00c50633          	add	a2,a0,a2
    1e64:	00001537          	lui	a0,0x1
    1e68:	40a40533          	sub	a0,s0,a0
    1e6c:	7cc53023          	sd	a2,1984(a0) # 17c0 <.LBB89_5+0x18>
    1e70:	f4043f83          	ld	t6,-192(s0)
    1e74:	03f78533          	mul	a0,a5,t6
    1e78:	000015b7          	lui	a1,0x1
    1e7c:	40b405b3          	sub	a1,s0,a1
    1e80:	7c85b603          	ld	a2,1992(a1) # 17c8 <.LBB89_5+0x20>
    1e84:	00c50633          	add	a2,a0,a2
    1e88:	00001537          	lui	a0,0x1
    1e8c:	40a40533          	sub	a0,s0,a0
    1e90:	7cc53423          	sd	a2,1992(a0) # 17c8 <.LBB89_5+0x20>
    1e94:	f0843983          	ld	s3,-248(s0)
    1e98:	03378533          	mul	a0,a5,s3
    1e9c:	000015b7          	lui	a1,0x1
    1ea0:	40b405b3          	sub	a1,s0,a1
    1ea4:	7d05b603          	ld	a2,2000(a1) # 17d0 <.LBB89_5+0x28>
    1ea8:	00c50633          	add	a2,a0,a2
    1eac:	00001537          	lui	a0,0x1
    1eb0:	40a40533          	sub	a0,s0,a0
    1eb4:	7cc53823          	sd	a2,2000(a0) # 17d0 <.LBB89_5+0x28>
    1eb8:	e9043483          	ld	s1,-368(s0)
    1ebc:	02978533          	mul	a0,a5,s1
    1ec0:	000015b7          	lui	a1,0x1
    1ec4:	40b405b3          	sub	a1,s0,a1
    1ec8:	7d85b603          	ld	a2,2008(a1) # 17d8 <.LBB89_5+0x30>
    1ecc:	00c50633          	add	a2,a0,a2
    1ed0:	00001537          	lui	a0,0x1
    1ed4:	40a40533          	sub	a0,s0,a0
    1ed8:	7cc53c23          	sd	a2,2008(a0) # 17d8 <.LBB89_5+0x30>
    1edc:	eb043f03          	ld	t5,-336(s0)
    1ee0:	03e78533          	mul	a0,a5,t5
    1ee4:	000015b7          	lui	a1,0x1
    1ee8:	40b405b3          	sub	a1,s0,a1
    1eec:	7e05b603          	ld	a2,2016(a1) # 17e0 <.LBB89_5+0x38>
    1ef0:	00c50633          	add	a2,a0,a2
    1ef4:	00001537          	lui	a0,0x1
    1ef8:	40a40533          	sub	a0,s0,a0
    1efc:	7ec53023          	sd	a2,2016(a0) # 17e0 <.LBB89_5+0x38>
    1f00:	ea543023          	sd	t0,-352(s0)
    1f04:	02578533          	mul	a0,a5,t0
    1f08:	000015b7          	lui	a1,0x1
    1f0c:	40b405b3          	sub	a1,s0,a1
    1f10:	7e85b603          	ld	a2,2024(a1) # 17e8 <.LBB89_5+0x40>
    1f14:	00c50633          	add	a2,a0,a2
    1f18:	00001537          	lui	a0,0x1
    1f1c:	40a40533          	sub	a0,s0,a0
    1f20:	7ec53423          	sd	a2,2024(a0) # 17e8 <.LBB89_5+0x40>
    1f24:	ec043503          	ld	a0,-320(s0)
    1f28:	02a78533          	mul	a0,a5,a0
    1f2c:	000015b7          	lui	a1,0x1
    1f30:	40b405b3          	sub	a1,s0,a1
    1f34:	7f05b603          	ld	a2,2032(a1) # 17f0 <.LBB89_5+0x48>
    1f38:	00c50633          	add	a2,a0,a2
    1f3c:	00001537          	lui	a0,0x1
    1f40:	40a40533          	sub	a0,s0,a0
    1f44:	7ec53823          	sd	a2,2032(a0) # 17f0 <.LBB89_5+0x48>
    1f48:	f6043503          	ld	a0,-160(s0)
    1f4c:	02a78533          	mul	a0,a5,a0
    1f50:	000015b7          	lui	a1,0x1
    1f54:	40b405b3          	sub	a1,s0,a1
    1f58:	7f85b603          	ld	a2,2040(a1) # 17f8 <.LBB89_5+0x50>
    1f5c:	00c50633          	add	a2,a0,a2
    1f60:	00001537          	lui	a0,0x1
    1f64:	40a40533          	sub	a0,s0,a0
    1f68:	7ec53c23          	sd	a2,2040(a0) # 17f8 <.LBB89_5+0x50>
    1f6c:	03578533          	mul	a0,a5,s5
    1f70:	80043603          	ld	a2,-2048(s0)
    1f74:	00c50633          	add	a2,a0,a2
    1f78:	80c43023          	sd	a2,-2048(s0)
    1f7c:	ea843a83          	ld	s5,-344(s0)
    1f80:	03578533          	mul	a0,a5,s5
    1f84:	80843603          	ld	a2,-2040(s0)
    1f88:	00c50633          	add	a2,a0,a2
    1f8c:	80c43423          	sd	a2,-2040(s0)
    1f90:	f3843703          	ld	a4,-200(s0)
    1f94:	02e78533          	mul	a0,a5,a4
    1f98:	81043603          	ld	a2,-2032(s0)
    1f9c:	00c50633          	add	a2,a0,a2
    1fa0:	80c43823          	sd	a2,-2032(s0)
    1fa4:	03878533          	mul	a0,a5,s8
    1fa8:	81843603          	ld	a2,-2024(s0)
    1fac:	00c50633          	add	a2,a0,a2
    1fb0:	80c43c23          	sd	a2,-2024(s0)
    1fb4:	ec843503          	ld	a0,-312(s0)
    1fb8:	02a78533          	mul	a0,a5,a0
    1fbc:	82043603          	ld	a2,-2016(s0)
    1fc0:	00c50633          	add	a2,a0,a2
    1fc4:	82c43023          	sd	a2,-2016(s0)
    1fc8:	03a78533          	mul	a0,a5,s10
    1fcc:	82843603          	ld	a2,-2008(s0)
    1fd0:	00c50633          	add	a2,a0,a2
    1fd4:	82c43423          	sd	a2,-2008(s0)
    1fd8:	03778533          	mul	a0,a5,s7
    1fdc:	83043603          	ld	a2,-2000(s0)
    1fe0:	00c50633          	add	a2,a0,a2
    1fe4:	82c43823          	sd	a2,-2000(s0)
    1fe8:	03078533          	mul	a0,a5,a6
    1fec:	00080d13          	mv	s10,a6
    1ff0:	83843603          	ld	a2,-1992(s0)
    1ff4:	00c50633          	add	a2,a0,a2
    1ff8:	82c43c23          	sd	a2,-1992(s0)
    1ffc:	f6843503          	ld	a0,-152(s0)
    2000:	02a78533          	mul	a0,a5,a0
    2004:	84043603          	ld	a2,-1984(s0)
    2008:	00c50633          	add	a2,a0,a2
    200c:	84c43023          	sd	a2,-1984(s0)
    2010:	000e8593          	mv	a1,t4
    2014:	e7d43c23          	sd	t4,-392(s0)
    2018:	03d78533          	mul	a0,a5,t4
    201c:	84843603          	ld	a2,-1976(s0)
    2020:	00c50633          	add	a2,a0,a2
    2024:	84c43423          	sd	a2,-1976(s0)
    2028:	eb843503          	ld	a0,-328(s0)
    202c:	02a78533          	mul	a0,a5,a0
    2030:	85043603          	ld	a2,-1968(s0)
    2034:	00c50633          	add	a2,a0,a2
    2038:	84c43823          	sd	a2,-1968(s0)
    203c:	f5843503          	ld	a0,-168(s0)
    2040:	02a78533          	mul	a0,a5,a0
    2044:	85843603          	ld	a2,-1960(s0)
    2048:	00c50633          	add	a2,a0,a2
    204c:	84c43c23          	sd	a2,-1960(s0)
    2050:	f2843503          	ld	a0,-216(s0)
    2054:	02a78533          	mul	a0,a5,a0
    2058:	86043603          	ld	a2,-1952(s0)
    205c:	00c50633          	add	a2,a0,a2
    2060:	86c43023          	sd	a2,-1952(s0)
    2064:	03b78533          	mul	a0,a5,s11
    2068:	86843603          	ld	a2,-1944(s0)
    206c:	00c50633          	add	a2,a0,a2
    2070:	86c43423          	sd	a2,-1944(s0)
    2074:	03278533          	mul	a0,a5,s2
    2078:	87043603          	ld	a2,-1936(s0)
    207c:	00c50633          	add	a2,a0,a2
    2080:	86c43823          	sd	a2,-1936(s0)
    2084:	f8043503          	ld	a0,-128(s0)
    2088:	f6050503          	lb	a0,-160(a0)
    208c:	03978a33          	mul	s4,a5,s9
    2090:	000c8d93          	mv	s11,s9
    2094:	87843603          	ld	a2,-1928(s0)
    2098:	00ca0633          	add	a2,s4,a2
    209c:	86c43c23          	sd	a2,-1928(s0)
    20a0:	036787b3          	mul	a5,a5,s6
    20a4:	e5643c23          	sd	s6,-424(s0)
    20a8:	88043603          	ld	a2,-1920(s0)
    20ac:	00c78633          	add	a2,a5,a2
    20b0:	88c43023          	sd	a2,-1920(s0)
    20b4:	031507b3          	mul	a5,a0,a7
    20b8:	8a043603          	ld	a2,-1888(s0)
    20bc:	00c78633          	add	a2,a5,a2
    20c0:	8ac43023          	sd	a2,-1888(s0)
    20c4:	021507b3          	mul	a5,a0,ra
    20c8:	89843603          	ld	a2,-1896(s0)
    20cc:	00c78633          	add	a2,a5,a2
    20d0:	88c43c23          	sd	a2,-1896(s0)
    20d4:	026507b3          	mul	a5,a0,t1
    20d8:	89043603          	ld	a2,-1904(s0)
    20dc:	00c78633          	add	a2,a5,a2
    20e0:	88c43823          	sd	a2,-1904(s0)
    20e4:	02d507b3          	mul	a5,a0,a3
    20e8:	88843603          	ld	a2,-1912(s0)
    20ec:	00c78633          	add	a2,a5,a2
    20f0:	88c43423          	sd	a2,-1912(s0)
    20f4:	027507b3          	mul	a5,a0,t2
    20f8:	8a843603          	ld	a2,-1880(s0)
    20fc:	00c78633          	add	a2,a5,a2
    2100:	8ac43423          	sd	a2,-1880(s0)
    2104:	f7043803          	ld	a6,-144(s0)
    2108:	030507b3          	mul	a5,a0,a6
    210c:	8b043603          	ld	a2,-1872(s0)
    2110:	00c78633          	add	a2,a5,a2
    2114:	8ac43823          	sd	a2,-1872(s0)
    2118:	f7843603          	ld	a2,-136(s0)
    211c:	02c507b3          	mul	a5,a0,a2
    2120:	8b843603          	ld	a2,-1864(s0)
    2124:	00c78633          	add	a2,a5,a2
    2128:	8ac43c23          	sd	a2,-1864(s0)
    212c:	03c507b3          	mul	a5,a0,t3
    2130:	8c043603          	ld	a2,-1856(s0)
    2134:	00c78633          	add	a2,a5,a2
    2138:	8cc43023          	sd	a2,-1856(s0)
    213c:	03f507b3          	mul	a5,a0,t6
    2140:	8c843603          	ld	a2,-1848(s0)
    2144:	00c78633          	add	a2,a5,a2
    2148:	8cc43423          	sd	a2,-1848(s0)
    214c:	033507b3          	mul	a5,a0,s3
    2150:	8d043603          	ld	a2,-1840(s0)
    2154:	00c78633          	add	a2,a5,a2
    2158:	8cc43823          	sd	a2,-1840(s0)
    215c:	029507b3          	mul	a5,a0,s1
    2160:	00048f93          	mv	t6,s1
    2164:	8d843603          	ld	a2,-1832(s0)
    2168:	00c78633          	add	a2,a5,a2
    216c:	8cc43c23          	sd	a2,-1832(s0)
    2170:	03e507b3          	mul	a5,a0,t5
    2174:	8e043603          	ld	a2,-1824(s0)
    2178:	00c78633          	add	a2,a5,a2
    217c:	8ec43023          	sd	a2,-1824(s0)
    2180:	025507b3          	mul	a5,a0,t0
    2184:	8e843603          	ld	a2,-1816(s0)
    2188:	00c78633          	add	a2,a5,a2
    218c:	8ec43423          	sd	a2,-1816(s0)
    2190:	ec043e83          	ld	t4,-320(s0)
    2194:	03d507b3          	mul	a5,a0,t4
    2198:	8f043603          	ld	a2,-1808(s0)
    219c:	00c78633          	add	a2,a5,a2
    21a0:	8ec43823          	sd	a2,-1808(s0)
    21a4:	f6043e03          	ld	t3,-160(s0)
    21a8:	03c507b3          	mul	a5,a0,t3
    21ac:	8f843603          	ld	a2,-1800(s0)
    21b0:	00c78633          	add	a2,a5,a2
    21b4:	8ec43c23          	sd	a2,-1800(s0)
    21b8:	e7043303          	ld	t1,-400(s0)
    21bc:	026507b3          	mul	a5,a0,t1
    21c0:	90043603          	ld	a2,-1792(s0)
    21c4:	00c78633          	add	a2,a5,a2
    21c8:	90c43023          	sd	a2,-1792(s0)
    21cc:	035507b3          	mul	a5,a0,s5
    21d0:	90843603          	ld	a2,-1784(s0)
    21d4:	00c78633          	add	a2,a5,a2
    21d8:	90c43423          	sd	a2,-1784(s0)
    21dc:	02e507b3          	mul	a5,a0,a4
    21e0:	91043603          	ld	a2,-1776(s0)
    21e4:	00c78633          	add	a2,a5,a2
    21e8:	90c43823          	sd	a2,-1776(s0)
    21ec:	038507b3          	mul	a5,a0,s8
    21f0:	000c0093          	mv	ra,s8
    21f4:	e7843423          	sd	s8,-408(s0)
    21f8:	91843603          	ld	a2,-1768(s0)
    21fc:	00c78633          	add	a2,a5,a2
    2200:	90c43c23          	sd	a2,-1768(s0)
    2204:	ec843a83          	ld	s5,-312(s0)
    2208:	035507b3          	mul	a5,a0,s5
    220c:	92043603          	ld	a2,-1760(s0)
    2210:	00c78633          	add	a2,a5,a2
    2214:	92c43023          	sd	a2,-1760(s0)
    2218:	e9843283          	ld	t0,-360(s0)
    221c:	025507b3          	mul	a5,a0,t0
    2220:	92843603          	ld	a2,-1752(s0)
    2224:	00c78633          	add	a2,a5,a2
    2228:	92c43423          	sd	a2,-1752(s0)
    222c:	037507b3          	mul	a5,a0,s7
    2230:	000b8c93          	mv	s9,s7
    2234:	00001637          	lui	a2,0x1
    2238:	40c40633          	sub	a2,s0,a2
    223c:	67763c23          	sd	s7,1656(a2) # 1678 <.LBB89_4+0x47c>
    2240:	93043603          	ld	a2,-1744(s0)
    2244:	00c78633          	add	a2,a5,a2
    2248:	92c43823          	sd	a2,-1744(s0)
    224c:	03a507b3          	mul	a5,a0,s10
    2250:	93843603          	ld	a2,-1736(s0)
    2254:	00c78633          	add	a2,a5,a2
    2258:	92c43c23          	sd	a2,-1736(s0)
    225c:	f6843683          	ld	a3,-152(s0)
    2260:	02d507b3          	mul	a5,a0,a3
    2264:	94043603          	ld	a2,-1728(s0)
    2268:	00c78633          	add	a2,a5,a2
    226c:	94c43023          	sd	a2,-1728(s0)
    2270:	02b507b3          	mul	a5,a0,a1
    2274:	94843603          	ld	a2,-1720(s0)
    2278:	00c78633          	add	a2,a5,a2
    227c:	94c43423          	sd	a2,-1720(s0)
    2280:	eb843703          	ld	a4,-328(s0)
    2284:	02e507b3          	mul	a5,a0,a4
    2288:	95043603          	ld	a2,-1712(s0)
    228c:	00c78633          	add	a2,a5,a2
    2290:	94c43823          	sd	a2,-1712(s0)
    2294:	f5843b83          	ld	s7,-168(s0)
    2298:	037507b3          	mul	a5,a0,s7
    229c:	95843603          	ld	a2,-1704(s0)
    22a0:	00c78633          	add	a2,a5,a2
    22a4:	94c43c23          	sd	a2,-1704(s0)
    22a8:	f2843c03          	ld	s8,-216(s0)
    22ac:	038507b3          	mul	a5,a0,s8
    22b0:	96043603          	ld	a2,-1696(s0)
    22b4:	00c78633          	add	a2,a5,a2
    22b8:	96c43023          	sd	a2,-1696(s0)
    22bc:	e8043903          	ld	s2,-384(s0)
    22c0:	032507b3          	mul	a5,a0,s2
    22c4:	96843603          	ld	a2,-1688(s0)
    22c8:	00c78633          	add	a2,a5,a2
    22cc:	96c43423          	sd	a2,-1688(s0)
    22d0:	e6043d03          	ld	s10,-416(s0)
    22d4:	03a507b3          	mul	a5,a0,s10
    22d8:	97043603          	ld	a2,-1680(s0)
    22dc:	00c78633          	add	a2,a5,a2
    22e0:	96c43823          	sd	a2,-1680(s0)
    22e4:	f8043603          	ld	a2,-128(s0)
    22e8:	00060783          	lb	a5,0(a2)
    22ec:	03b50a33          	mul	s4,a0,s11
    22f0:	97843603          	ld	a2,-1672(s0)
    22f4:	00ca0633          	add	a2,s4,a2
    22f8:	96c43c23          	sd	a2,-1672(s0)
    22fc:	03650533          	mul	a0,a0,s6
    2300:	98043603          	ld	a2,-1664(s0)
    2304:	00c50633          	add	a2,a0,a2
    2308:	98c43023          	sd	a2,-1664(s0)
    230c:	00088993          	mv	s3,a7
    2310:	e9143423          	sd	a7,-376(s0)
    2314:	03178533          	mul	a0,a5,a7
    2318:	9a043603          	ld	a2,-1632(s0)
    231c:	00c50633          	add	a2,a0,a2
    2320:	9ac43023          	sd	a2,-1632(s0)
    2324:	f1043583          	ld	a1,-240(s0)
    2328:	02b78533          	mul	a0,a5,a1
    232c:	99843603          	ld	a2,-1640(s0)
    2330:	00c50633          	add	a2,a0,a2
    2334:	98c43c23          	sd	a2,-1640(s0)
    2338:	f2043483          	ld	s1,-224(s0)
    233c:	02978533          	mul	a0,a5,s1
    2340:	99043603          	ld	a2,-1648(s0)
    2344:	00c50633          	add	a2,a0,a2
    2348:	98c43823          	sd	a2,-1648(s0)
    234c:	f1843883          	ld	a7,-232(s0)
    2350:	03178533          	mul	a0,a5,a7
    2354:	98843603          	ld	a2,-1656(s0)
    2358:	00c50633          	add	a2,a0,a2
    235c:	98c43423          	sd	a2,-1656(s0)
    2360:	02778533          	mul	a0,a5,t2
    2364:	9a843603          	ld	a2,-1624(s0)
    2368:	00c50633          	add	a2,a0,a2
    236c:	9ac43423          	sd	a2,-1624(s0)
    2370:	03078533          	mul	a0,a5,a6
    2374:	9b043603          	ld	a2,-1616(s0)
    2378:	00c50633          	add	a2,a0,a2
    237c:	9ac43823          	sd	a2,-1616(s0)
    2380:	f7843803          	ld	a6,-136(s0)
    2384:	03078533          	mul	a0,a5,a6
    2388:	9b843603          	ld	a2,-1608(s0)
    238c:	00c50633          	add	a2,a0,a2
    2390:	9ac43c23          	sd	a2,-1608(s0)
    2394:	f4843503          	ld	a0,-184(s0)
    2398:	02a78533          	mul	a0,a5,a0
    239c:	9c043603          	ld	a2,-1600(s0)
    23a0:	00c50633          	add	a2,a0,a2
    23a4:	9cc43023          	sd	a2,-1600(s0)
    23a8:	f4043503          	ld	a0,-192(s0)
    23ac:	02a78533          	mul	a0,a5,a0
    23b0:	9c843603          	ld	a2,-1592(s0)
    23b4:	00c50633          	add	a2,a0,a2
    23b8:	9cc43423          	sd	a2,-1592(s0)
    23bc:	f0843503          	ld	a0,-248(s0)
    23c0:	02a78533          	mul	a0,a5,a0
    23c4:	9d043603          	ld	a2,-1584(s0)
    23c8:	00c50633          	add	a2,a0,a2
    23cc:	9cc43823          	sd	a2,-1584(s0)
    23d0:	03f78533          	mul	a0,a5,t6
    23d4:	9d843603          	ld	a2,-1576(s0)
    23d8:	00c50633          	add	a2,a0,a2
    23dc:	9cc43c23          	sd	a2,-1576(s0)
    23e0:	03e78533          	mul	a0,a5,t5
    23e4:	9e043603          	ld	a2,-1568(s0)
    23e8:	00c50633          	add	a2,a0,a2
    23ec:	9ec43023          	sd	a2,-1568(s0)
    23f0:	ea043b03          	ld	s6,-352(s0)
    23f4:	03678533          	mul	a0,a5,s6
    23f8:	9e843603          	ld	a2,-1560(s0)
    23fc:	00c50633          	add	a2,a0,a2
    2400:	9ec43423          	sd	a2,-1560(s0)
    2404:	03d78533          	mul	a0,a5,t4
    2408:	9f043603          	ld	a2,-1552(s0)
    240c:	00c50633          	add	a2,a0,a2
    2410:	9ec43823          	sd	a2,-1552(s0)
    2414:	03c78533          	mul	a0,a5,t3
    2418:	9f843603          	ld	a2,-1544(s0)
    241c:	00c50633          	add	a2,a0,a2
    2420:	9ec43c23          	sd	a2,-1544(s0)
    2424:	02678533          	mul	a0,a5,t1
    2428:	a0043603          	ld	a2,-1536(s0)
    242c:	00c50633          	add	a2,a0,a2
    2430:	a0c43023          	sd	a2,-1536(s0)
    2434:	ea843383          	ld	t2,-344(s0)
    2438:	02778533          	mul	a0,a5,t2
    243c:	a0843603          	ld	a2,-1528(s0)
    2440:	00c50633          	add	a2,a0,a2
    2444:	a0c43423          	sd	a2,-1528(s0)
    2448:	f3843f83          	ld	t6,-200(s0)
    244c:	03f78533          	mul	a0,a5,t6
    2450:	a1043603          	ld	a2,-1520(s0)
    2454:	00c50633          	add	a2,a0,a2
    2458:	a0c43823          	sd	a2,-1520(s0)
    245c:	02178533          	mul	a0,a5,ra
    2460:	a1843603          	ld	a2,-1512(s0)
    2464:	00c50633          	add	a2,a0,a2
    2468:	a0c43c23          	sd	a2,-1512(s0)
    246c:	03578533          	mul	a0,a5,s5
    2470:	a2043603          	ld	a2,-1504(s0)
    2474:	00c50633          	add	a2,a0,a2
    2478:	a2c43023          	sd	a2,-1504(s0)
    247c:	02578533          	mul	a0,a5,t0
    2480:	a2843603          	ld	a2,-1496(s0)
    2484:	00c50633          	add	a2,a0,a2
    2488:	a2c43423          	sd	a2,-1496(s0)
    248c:	03978533          	mul	a0,a5,s9
    2490:	a3043603          	ld	a2,-1488(s0)
    2494:	00c50633          	add	a2,a0,a2
    2498:	a2c43823          	sd	a2,-1488(s0)
    249c:	f5043503          	ld	a0,-176(s0)
    24a0:	02a78533          	mul	a0,a5,a0
    24a4:	a3843603          	ld	a2,-1480(s0)
    24a8:	00c50633          	add	a2,a0,a2
    24ac:	a2c43c23          	sd	a2,-1480(s0)
    24b0:	02d78533          	mul	a0,a5,a3
    24b4:	a4043603          	ld	a2,-1472(s0)
    24b8:	00c50633          	add	a2,a0,a2
    24bc:	a4c43023          	sd	a2,-1472(s0)
    24c0:	e7843e03          	ld	t3,-392(s0)
    24c4:	03c78533          	mul	a0,a5,t3
    24c8:	a4843603          	ld	a2,-1464(s0)
    24cc:	00c50633          	add	a2,a0,a2
    24d0:	a4c43423          	sd	a2,-1464(s0)
    24d4:	02e78533          	mul	a0,a5,a4
    24d8:	a5043603          	ld	a2,-1456(s0)
    24dc:	00c50633          	add	a2,a0,a2
    24e0:	a4c43823          	sd	a2,-1456(s0)
    24e4:	03778533          	mul	a0,a5,s7
    24e8:	a5843603          	ld	a2,-1448(s0)
    24ec:	00c50633          	add	a2,a0,a2
    24f0:	a4c43c23          	sd	a2,-1448(s0)
    24f4:	03878533          	mul	a0,a5,s8
    24f8:	a6043603          	ld	a2,-1440(s0)
    24fc:	00c50633          	add	a2,a0,a2
    2500:	a6c43023          	sd	a2,-1440(s0)
    2504:	03278533          	mul	a0,a5,s2
    2508:	00090b93          	mv	s7,s2
    250c:	a6843603          	ld	a2,-1432(s0)
    2510:	00c50633          	add	a2,a0,a2
    2514:	a6c43423          	sd	a2,-1432(s0)
    2518:	000d0c93          	mv	s9,s10
    251c:	03a78533          	mul	a0,a5,s10
    2520:	a7043603          	ld	a2,-1424(s0)
    2524:	00c50633          	add	a2,a0,a2
    2528:	a6c43823          	sd	a2,-1424(s0)
    252c:	f8043503          	ld	a0,-128(s0)
    2530:	0a050503          	lb	a0,160(a0)
    2534:	03b78a33          	mul	s4,a5,s11
    2538:	000d8913          	mv	s2,s11
    253c:	e5b43823          	sd	s11,-432(s0)
    2540:	a7843603          	ld	a2,-1416(s0)
    2544:	00ca0633          	add	a2,s4,a2
    2548:	a6c43c23          	sd	a2,-1416(s0)
    254c:	e5843d83          	ld	s11,-424(s0)
    2550:	03b787b3          	mul	a5,a5,s11
    2554:	a8043603          	ld	a2,-1408(s0)
    2558:	00c78633          	add	a2,a5,a2
    255c:	a8c43023          	sd	a2,-1408(s0)
    2560:	033507b3          	mul	a5,a0,s3
    2564:	aa043603          	ld	a2,-1376(s0)
    2568:	00c78633          	add	a2,a5,a2
    256c:	aac43023          	sd	a2,-1376(s0)
    2570:	02b507b3          	mul	a5,a0,a1
    2574:	a9843603          	ld	a2,-1384(s0)
    2578:	00c78633          	add	a2,a5,a2
    257c:	a8c43c23          	sd	a2,-1384(s0)
    2580:	029507b3          	mul	a5,a0,s1
    2584:	a9043603          	ld	a2,-1392(s0)
    2588:	00c78633          	add	a2,a5,a2
    258c:	a8c43823          	sd	a2,-1392(s0)
    2590:	031507b3          	mul	a5,a0,a7
    2594:	a8843603          	ld	a2,-1400(s0)
    2598:	00c78633          	add	a2,a5,a2
    259c:	a8c43423          	sd	a2,-1400(s0)
    25a0:	f3043d03          	ld	s10,-208(s0)
    25a4:	03a507b3          	mul	a5,a0,s10
    25a8:	aa843603          	ld	a2,-1368(s0)
    25ac:	00c78633          	add	a2,a5,a2
    25b0:	aac43423          	sd	a2,-1368(s0)
    25b4:	f7043583          	ld	a1,-144(s0)
    25b8:	02b507b3          	mul	a5,a0,a1
    25bc:	ab043603          	ld	a2,-1360(s0)
    25c0:	00c78633          	add	a2,a5,a2
    25c4:	aac43823          	sd	a2,-1360(s0)
    25c8:	030507b3          	mul	a5,a0,a6
    25cc:	ab843603          	ld	a2,-1352(s0)
    25d0:	00c78633          	add	a2,a5,a2
    25d4:	aac43c23          	sd	a2,-1352(s0)
    25d8:	f4843683          	ld	a3,-184(s0)
    25dc:	02d507b3          	mul	a5,a0,a3
    25e0:	ac043603          	ld	a2,-1344(s0)
    25e4:	00c78633          	add	a2,a5,a2
    25e8:	acc43023          	sd	a2,-1344(s0)
    25ec:	f4043803          	ld	a6,-192(s0)
    25f0:	030507b3          	mul	a5,a0,a6
    25f4:	ac843603          	ld	a2,-1336(s0)
    25f8:	00c78633          	add	a2,a5,a2
    25fc:	acc43423          	sd	a2,-1336(s0)
    2600:	f0843483          	ld	s1,-248(s0)
    2604:	029507b3          	mul	a5,a0,s1
    2608:	ad043603          	ld	a2,-1328(s0)
    260c:	00c78633          	add	a2,a5,a2
    2610:	acc43823          	sd	a2,-1328(s0)
    2614:	e9043983          	ld	s3,-368(s0)
    2618:	033507b3          	mul	a5,a0,s3
    261c:	ad843603          	ld	a2,-1320(s0)
    2620:	00c78633          	add	a2,a5,a2
    2624:	acc43c23          	sd	a2,-1320(s0)
    2628:	03e507b3          	mul	a5,a0,t5
    262c:	ae043603          	ld	a2,-1312(s0)
    2630:	00c78633          	add	a2,a5,a2
    2634:	aec43023          	sd	a2,-1312(s0)
    2638:	036507b3          	mul	a5,a0,s6
    263c:	ae843603          	ld	a2,-1304(s0)
    2640:	00c78633          	add	a2,a5,a2
    2644:	aec43423          	sd	a2,-1304(s0)
    2648:	03d507b3          	mul	a5,a0,t4
    264c:	af043603          	ld	a2,-1296(s0)
    2650:	00c78633          	add	a2,a5,a2
    2654:	aec43823          	sd	a2,-1296(s0)
    2658:	f6043083          	ld	ra,-160(s0)
    265c:	021507b3          	mul	a5,a0,ra
    2660:	af843603          	ld	a2,-1288(s0)
    2664:	00c78633          	add	a2,a5,a2
    2668:	aec43c23          	sd	a2,-1288(s0)
    266c:	026507b3          	mul	a5,a0,t1
    2670:	b0043603          	ld	a2,-1280(s0)
    2674:	00c78633          	add	a2,a5,a2
    2678:	b0c43023          	sd	a2,-1280(s0)
    267c:	027507b3          	mul	a5,a0,t2
    2680:	b0843603          	ld	a2,-1272(s0)
    2684:	00c78633          	add	a2,a5,a2
    2688:	b0c43423          	sd	a2,-1272(s0)
    268c:	03f507b3          	mul	a5,a0,t6
    2690:	b1043603          	ld	a2,-1264(s0)
    2694:	00c78633          	add	a2,a5,a2
    2698:	b0c43823          	sd	a2,-1264(s0)
    269c:	e6843283          	ld	t0,-408(s0)
    26a0:	025507b3          	mul	a5,a0,t0
    26a4:	b1843603          	ld	a2,-1256(s0)
    26a8:	00c78633          	add	a2,a5,a2
    26ac:	b0c43c23          	sd	a2,-1256(s0)
    26b0:	035507b3          	mul	a5,a0,s5
    26b4:	b2043603          	ld	a2,-1248(s0)
    26b8:	00c78633          	add	a2,a5,a2
    26bc:	b2c43023          	sd	a2,-1248(s0)
    26c0:	e9843a83          	ld	s5,-360(s0)
    26c4:	035507b3          	mul	a5,a0,s5
    26c8:	b2843603          	ld	a2,-1240(s0)
    26cc:	00c78633          	add	a2,a5,a2
    26d0:	b2c43423          	sd	a2,-1240(s0)
    26d4:	000015b7          	lui	a1,0x1
    26d8:	40b405b3          	sub	a1,s0,a1
    26dc:	6785bb03          	ld	s6,1656(a1) # 1678 <.LBB89_4+0x47c>
    26e0:	036507b3          	mul	a5,a0,s6
    26e4:	b3043603          	ld	a2,-1232(s0)
    26e8:	00c78633          	add	a2,a5,a2
    26ec:	b2c43823          	sd	a2,-1232(s0)
    26f0:	f5043303          	ld	t1,-176(s0)
    26f4:	026507b3          	mul	a5,a0,t1
    26f8:	b3843603          	ld	a2,-1224(s0)
    26fc:	00c78633          	add	a2,a5,a2
    2700:	b2c43c23          	sd	a2,-1224(s0)
    2704:	f6843703          	ld	a4,-152(s0)
    2708:	02e507b3          	mul	a5,a0,a4
    270c:	b4043603          	ld	a2,-1216(s0)
    2710:	00c78633          	add	a2,a5,a2
    2714:	b4c43023          	sd	a2,-1216(s0)
    2718:	03c507b3          	mul	a5,a0,t3
    271c:	b4843603          	ld	a2,-1208(s0)
    2720:	00c78633          	add	a2,a5,a2
    2724:	b4c43423          	sd	a2,-1208(s0)
    2728:	eb843883          	ld	a7,-328(s0)
    272c:	031507b3          	mul	a5,a0,a7
    2730:	b5043603          	ld	a2,-1200(s0)
    2734:	00c78633          	add	a2,a5,a2
    2738:	b4c43823          	sd	a2,-1200(s0)
    273c:	f5843c03          	ld	s8,-168(s0)
    2740:	038507b3          	mul	a5,a0,s8
    2744:	b5843603          	ld	a2,-1192(s0)
    2748:	00c78633          	add	a2,a5,a2
    274c:	b4c43c23          	sd	a2,-1192(s0)
    2750:	f2843e83          	ld	t4,-216(s0)
    2754:	03d507b3          	mul	a5,a0,t4
    2758:	b6043603          	ld	a2,-1184(s0)
    275c:	00c78633          	add	a2,a5,a2
    2760:	b6c43023          	sd	a2,-1184(s0)
    2764:	037507b3          	mul	a5,a0,s7
    2768:	b6843603          	ld	a2,-1176(s0)
    276c:	00c78633          	add	a2,a5,a2
    2770:	b6c43423          	sd	a2,-1176(s0)
    2774:	039507b3          	mul	a5,a0,s9
    2778:	b7043603          	ld	a2,-1168(s0)
    277c:	00c78633          	add	a2,a5,a2
    2780:	b6c43823          	sd	a2,-1168(s0)
    2784:	f8043603          	ld	a2,-128(s0)
    2788:	14060783          	lb	a5,320(a2)
    278c:	03250a33          	mul	s4,a0,s2
    2790:	b7843603          	ld	a2,-1160(s0)
    2794:	00ca0633          	add	a2,s4,a2
    2798:	b6c43c23          	sd	a2,-1160(s0)
    279c:	03b50533          	mul	a0,a0,s11
    27a0:	b8043603          	ld	a2,-1152(s0)
    27a4:	00c50633          	add	a2,a0,a2
    27a8:	b8c43023          	sd	a2,-1152(s0)
    27ac:	e8843f03          	ld	t5,-376(s0)
    27b0:	03e78533          	mul	a0,a5,t5
    27b4:	ba043603          	ld	a2,-1120(s0)
    27b8:	00c50633          	add	a2,a0,a2
    27bc:	bac43023          	sd	a2,-1120(s0)
    27c0:	f1043383          	ld	t2,-240(s0)
    27c4:	02778533          	mul	a0,a5,t2
    27c8:	b9843603          	ld	a2,-1128(s0)
    27cc:	00c50633          	add	a2,a0,a2
    27d0:	b8c43c23          	sd	a2,-1128(s0)
    27d4:	f2043f83          	ld	t6,-224(s0)
    27d8:	03f78533          	mul	a0,a5,t6
    27dc:	b9043603          	ld	a2,-1136(s0)
    27e0:	00c50633          	add	a2,a0,a2
    27e4:	b8c43823          	sd	a2,-1136(s0)
    27e8:	f1843583          	ld	a1,-232(s0)
    27ec:	02b78533          	mul	a0,a5,a1
    27f0:	b8843603          	ld	a2,-1144(s0)
    27f4:	00c50633          	add	a2,a0,a2
    27f8:	b8c43423          	sd	a2,-1144(s0)
    27fc:	03a78533          	mul	a0,a5,s10
    2800:	ba843603          	ld	a2,-1112(s0)
    2804:	00c50633          	add	a2,a0,a2
    2808:	bac43423          	sd	a2,-1112(s0)
    280c:	f7043d03          	ld	s10,-144(s0)
    2810:	03a78533          	mul	a0,a5,s10
    2814:	bb043603          	ld	a2,-1104(s0)
    2818:	00c50633          	add	a2,a0,a2
    281c:	bac43823          	sd	a2,-1104(s0)
    2820:	f7843e03          	ld	t3,-136(s0)
    2824:	03c78533          	mul	a0,a5,t3
    2828:	bb843603          	ld	a2,-1096(s0)
    282c:	00c50633          	add	a2,a0,a2
    2830:	bac43c23          	sd	a2,-1096(s0)
    2834:	02d78533          	mul	a0,a5,a3
    2838:	bc043603          	ld	a2,-1088(s0)
    283c:	00c50633          	add	a2,a0,a2
    2840:	bcc43023          	sd	a2,-1088(s0)
    2844:	03078533          	mul	a0,a5,a6
    2848:	bc843603          	ld	a2,-1080(s0)
    284c:	00c50633          	add	a2,a0,a2
    2850:	bcc43423          	sd	a2,-1080(s0)
    2854:	02978533          	mul	a0,a5,s1
    2858:	bd043603          	ld	a2,-1072(s0)
    285c:	00c50633          	add	a2,a0,a2
    2860:	bcc43823          	sd	a2,-1072(s0)
    2864:	03378533          	mul	a0,a5,s3
    2868:	bd843603          	ld	a2,-1064(s0)
    286c:	00c50633          	add	a2,a0,a2
    2870:	bcc43c23          	sd	a2,-1064(s0)
    2874:	eb043503          	ld	a0,-336(s0)
    2878:	02a78533          	mul	a0,a5,a0
    287c:	be043603          	ld	a2,-1056(s0)
    2880:	00c50633          	add	a2,a0,a2
    2884:	bec43023          	sd	a2,-1056(s0)
    2888:	ea043683          	ld	a3,-352(s0)
    288c:	02d78533          	mul	a0,a5,a3
    2890:	be843603          	ld	a2,-1048(s0)
    2894:	00c50633          	add	a2,a0,a2
    2898:	bec43423          	sd	a2,-1048(s0)
    289c:	ec043803          	ld	a6,-320(s0)
    28a0:	03078533          	mul	a0,a5,a6
    28a4:	bf043603          	ld	a2,-1040(s0)
    28a8:	00c50633          	add	a2,a0,a2
    28ac:	bec43823          	sd	a2,-1040(s0)
    28b0:	02178533          	mul	a0,a5,ra
    28b4:	bf843603          	ld	a2,-1032(s0)
    28b8:	00c50633          	add	a2,a0,a2
    28bc:	bec43c23          	sd	a2,-1032(s0)
    28c0:	e7043c83          	ld	s9,-400(s0)
    28c4:	03978533          	mul	a0,a5,s9
    28c8:	c0043603          	ld	a2,-1024(s0)
    28cc:	00c50633          	add	a2,a0,a2
    28d0:	c0c43023          	sd	a2,-1024(s0)
    28d4:	ea843083          	ld	ra,-344(s0)
    28d8:	02178533          	mul	a0,a5,ra
    28dc:	c0843603          	ld	a2,-1016(s0)
    28e0:	00c50633          	add	a2,a0,a2
    28e4:	c0c43423          	sd	a2,-1016(s0)
    28e8:	f3843503          	ld	a0,-200(s0)
    28ec:	02a78533          	mul	a0,a5,a0
    28f0:	c1043603          	ld	a2,-1008(s0)
    28f4:	00c50633          	add	a2,a0,a2
    28f8:	c0c43823          	sd	a2,-1008(s0)
    28fc:	02578533          	mul	a0,a5,t0
    2900:	c1843603          	ld	a2,-1000(s0)
    2904:	00c50633          	add	a2,a0,a2
    2908:	c0c43c23          	sd	a2,-1000(s0)
    290c:	ec843483          	ld	s1,-312(s0)
    2910:	02978533          	mul	a0,a5,s1
    2914:	c2043603          	ld	a2,-992(s0)
    2918:	00c50633          	add	a2,a0,a2
    291c:	c2c43023          	sd	a2,-992(s0)
    2920:	03578533          	mul	a0,a5,s5
    2924:	c2843603          	ld	a2,-984(s0)
    2928:	00c50633          	add	a2,a0,a2
    292c:	c2c43423          	sd	a2,-984(s0)
    2930:	03678533          	mul	a0,a5,s6
    2934:	c3043603          	ld	a2,-976(s0)
    2938:	00c50633          	add	a2,a0,a2
    293c:	c2c43823          	sd	a2,-976(s0)
    2940:	02678533          	mul	a0,a5,t1
    2944:	c3843603          	ld	a2,-968(s0)
    2948:	00c50633          	add	a2,a0,a2
    294c:	c2c43c23          	sd	a2,-968(s0)
    2950:	02e78533          	mul	a0,a5,a4
    2954:	c4043603          	ld	a2,-960(s0)
    2958:	00c50633          	add	a2,a0,a2
    295c:	c4c43023          	sd	a2,-960(s0)
    2960:	e7843703          	ld	a4,-392(s0)
    2964:	02e78533          	mul	a0,a5,a4
    2968:	c4843603          	ld	a2,-952(s0)
    296c:	00c50633          	add	a2,a0,a2
    2970:	c4c43423          	sd	a2,-952(s0)
    2974:	03178533          	mul	a0,a5,a7
    2978:	00088313          	mv	t1,a7
    297c:	c5043603          	ld	a2,-944(s0)
    2980:	00c50633          	add	a2,a0,a2
    2984:	c4c43823          	sd	a2,-944(s0)
    2988:	03878533          	mul	a0,a5,s8
    298c:	c5843603          	ld	a2,-936(s0)
    2990:	00c50633          	add	a2,a0,a2
    2994:	c4c43c23          	sd	a2,-936(s0)
    2998:	03d78533          	mul	a0,a5,t4
    299c:	c6043603          	ld	a2,-928(s0)
    29a0:	00c50633          	add	a2,a0,a2
    29a4:	c6c43023          	sd	a2,-928(s0)
    29a8:	03778533          	mul	a0,a5,s7
    29ac:	c6843603          	ld	a2,-920(s0)
    29b0:	00c50633          	add	a2,a0,a2
    29b4:	c6c43423          	sd	a2,-920(s0)
    29b8:	e6043903          	ld	s2,-416(s0)
    29bc:	03278533          	mul	a0,a5,s2
    29c0:	c7043603          	ld	a2,-912(s0)
    29c4:	00c50633          	add	a2,a0,a2
    29c8:	c6c43823          	sd	a2,-912(s0)
    29cc:	f8043503          	ld	a0,-128(s0)
    29d0:	1e050503          	lb	a0,480(a0)
    29d4:	e5043603          	ld	a2,-432(s0)
    29d8:	02c78a33          	mul	s4,a5,a2
    29dc:	c7843603          	ld	a2,-904(s0)
    29e0:	00ca0633          	add	a2,s4,a2
    29e4:	c6c43c23          	sd	a2,-904(s0)
    29e8:	03b787b3          	mul	a5,a5,s11
    29ec:	c8043603          	ld	a2,-896(s0)
    29f0:	00c78633          	add	a2,a5,a2
    29f4:	c8c43023          	sd	a2,-896(s0)
    29f8:	03e507b3          	mul	a5,a0,t5
    29fc:	ca043603          	ld	a2,-864(s0)
    2a00:	00c78633          	add	a2,a5,a2
    2a04:	cac43023          	sd	a2,-864(s0)
    2a08:	027507b3          	mul	a5,a0,t2
    2a0c:	c9843603          	ld	a2,-872(s0)
    2a10:	00c78633          	add	a2,a5,a2
    2a14:	c8c43c23          	sd	a2,-872(s0)
    2a18:	03f507b3          	mul	a5,a0,t6
    2a1c:	c9043603          	ld	a2,-880(s0)
    2a20:	00c78633          	add	a2,a5,a2
    2a24:	c8c43823          	sd	a2,-880(s0)
    2a28:	02b507b3          	mul	a5,a0,a1
    2a2c:	c8843603          	ld	a2,-888(s0)
    2a30:	00c78633          	add	a2,a5,a2
    2a34:	c8c43423          	sd	a2,-888(s0)
    2a38:	f3043583          	ld	a1,-208(s0)
    2a3c:	02b507b3          	mul	a5,a0,a1
    2a40:	ca843603          	ld	a2,-856(s0)
    2a44:	00c78633          	add	a2,a5,a2
    2a48:	cac43423          	sd	a2,-856(s0)
    2a4c:	03a507b3          	mul	a5,a0,s10
    2a50:	cb043603          	ld	a2,-848(s0)
    2a54:	00c78633          	add	a2,a5,a2
    2a58:	cac43823          	sd	a2,-848(s0)
    2a5c:	03c507b3          	mul	a5,a0,t3
    2a60:	cb843603          	ld	a2,-840(s0)
    2a64:	00c78633          	add	a2,a5,a2
    2a68:	cac43c23          	sd	a2,-840(s0)
    2a6c:	f4843d83          	ld	s11,-184(s0)
    2a70:	03b507b3          	mul	a5,a0,s11
    2a74:	cc043603          	ld	a2,-832(s0)
    2a78:	00c78633          	add	a2,a5,a2
    2a7c:	ccc43023          	sd	a2,-832(s0)
    2a80:	f4043c03          	ld	s8,-192(s0)
    2a84:	038507b3          	mul	a5,a0,s8
    2a88:	cc843603          	ld	a2,-824(s0)
    2a8c:	00c78633          	add	a2,a5,a2
    2a90:	ccc43423          	sd	a2,-824(s0)
    2a94:	f0843d03          	ld	s10,-248(s0)
    2a98:	03a507b3          	mul	a5,a0,s10
    2a9c:	cd043603          	ld	a2,-816(s0)
    2aa0:	00c78633          	add	a2,a5,a2
    2aa4:	ccc43823          	sd	a2,-816(s0)
    2aa8:	00098b93          	mv	s7,s3
    2aac:	033507b3          	mul	a5,a0,s3
    2ab0:	cd843603          	ld	a2,-808(s0)
    2ab4:	00c78633          	add	a2,a5,a2
    2ab8:	ccc43c23          	sd	a2,-808(s0)
    2abc:	eb043a83          	ld	s5,-336(s0)
    2ac0:	035507b3          	mul	a5,a0,s5
    2ac4:	ce043603          	ld	a2,-800(s0)
    2ac8:	00c78633          	add	a2,a5,a2
    2acc:	cec43023          	sd	a2,-800(s0)
    2ad0:	02d507b3          	mul	a5,a0,a3
    2ad4:	ce843603          	ld	a2,-792(s0)
    2ad8:	00c78633          	add	a2,a5,a2
    2adc:	cec43423          	sd	a2,-792(s0)
    2ae0:	00080993          	mv	s3,a6
    2ae4:	030507b3          	mul	a5,a0,a6
    2ae8:	cf043603          	ld	a2,-784(s0)
    2aec:	00c78633          	add	a2,a5,a2
    2af0:	cec43823          	sd	a2,-784(s0)
    2af4:	f6043f03          	ld	t5,-160(s0)
    2af8:	03e507b3          	mul	a5,a0,t5
    2afc:	cf843603          	ld	a2,-776(s0)
    2b00:	00c78633          	add	a2,a5,a2
    2b04:	cec43c23          	sd	a2,-776(s0)
    2b08:	000c8e93          	mv	t4,s9
    2b0c:	039507b3          	mul	a5,a0,s9
    2b10:	d0043603          	ld	a2,-768(s0)
    2b14:	00c78633          	add	a2,a5,a2
    2b18:	d0c43023          	sd	a2,-768(s0)
    2b1c:	00008293          	mv	t0,ra
    2b20:	021507b3          	mul	a5,a0,ra
    2b24:	d0843603          	ld	a2,-760(s0)
    2b28:	00c78633          	add	a2,a5,a2
    2b2c:	d0c43423          	sd	a2,-760(s0)
    2b30:	f3843883          	ld	a7,-200(s0)
    2b34:	031507b3          	mul	a5,a0,a7
    2b38:	d1043603          	ld	a2,-752(s0)
    2b3c:	00c78633          	add	a2,a5,a2
    2b40:	d0c43823          	sd	a2,-752(s0)
    2b44:	e6843083          	ld	ra,-408(s0)
    2b48:	021507b3          	mul	a5,a0,ra
    2b4c:	d1843603          	ld	a2,-744(s0)
    2b50:	00c78633          	add	a2,a5,a2
    2b54:	d0c43c23          	sd	a2,-744(s0)
    2b58:	00048f93          	mv	t6,s1
    2b5c:	029507b3          	mul	a5,a0,s1
    2b60:	d2043603          	ld	a2,-736(s0)
    2b64:	00c78633          	add	a2,a5,a2
    2b68:	d2c43023          	sd	a2,-736(s0)
    2b6c:	e9843803          	ld	a6,-360(s0)
    2b70:	030507b3          	mul	a5,a0,a6
    2b74:	d2843603          	ld	a2,-728(s0)
    2b78:	00c78633          	add	a2,a5,a2
    2b7c:	d2c43423          	sd	a2,-728(s0)
    2b80:	036507b3          	mul	a5,a0,s6
    2b84:	d3043603          	ld	a2,-720(s0)
    2b88:	00c78633          	add	a2,a5,a2
    2b8c:	d2c43823          	sd	a2,-720(s0)
    2b90:	f5043683          	ld	a3,-176(s0)
    2b94:	02d507b3          	mul	a5,a0,a3
    2b98:	d3843603          	ld	a2,-712(s0)
    2b9c:	00c78633          	add	a2,a5,a2
    2ba0:	d2c43c23          	sd	a2,-712(s0)
    2ba4:	f6843383          	ld	t2,-152(s0)
    2ba8:	027507b3          	mul	a5,a0,t2
    2bac:	d4043603          	ld	a2,-704(s0)
    2bb0:	00c78633          	add	a2,a5,a2
    2bb4:	d4c43023          	sd	a2,-704(s0)
    2bb8:	00070e13          	mv	t3,a4
    2bbc:	02e507b3          	mul	a5,a0,a4
    2bc0:	d4843603          	ld	a2,-696(s0)
    2bc4:	00c78633          	add	a2,a5,a2
    2bc8:	d4c43423          	sd	a2,-696(s0)
    2bcc:	00030593          	mv	a1,t1
    2bd0:	026507b3          	mul	a5,a0,t1
    2bd4:	d5043603          	ld	a2,-688(s0)
    2bd8:	00c78633          	add	a2,a5,a2
    2bdc:	d4c43823          	sd	a2,-688(s0)
    2be0:	f5843483          	ld	s1,-168(s0)
    2be4:	029507b3          	mul	a5,a0,s1
    2be8:	d5843603          	ld	a2,-680(s0)
    2bec:	00c78633          	add	a2,a5,a2
    2bf0:	d4c43c23          	sd	a2,-680(s0)
    2bf4:	f2843703          	ld	a4,-216(s0)
    2bf8:	02e507b3          	mul	a5,a0,a4
    2bfc:	d6043603          	ld	a2,-672(s0)
    2c00:	00c78633          	add	a2,a5,a2
    2c04:	d6c43023          	sd	a2,-672(s0)
    2c08:	e8043303          	ld	t1,-384(s0)
    2c0c:	026507b3          	mul	a5,a0,t1
    2c10:	d6843603          	ld	a2,-664(s0)
    2c14:	00c78633          	add	a2,a5,a2
    2c18:	d6c43423          	sd	a2,-664(s0)
    2c1c:	032507b3          	mul	a5,a0,s2
    2c20:	d7043603          	ld	a2,-656(s0)
    2c24:	00c78633          	add	a2,a5,a2
    2c28:	d6c43823          	sd	a2,-656(s0)
    2c2c:	f8043603          	ld	a2,-128(s0)
    2c30:	28060783          	lb	a5,640(a2)
    2c34:	e5043c83          	ld	s9,-432(s0)
    2c38:	03950a33          	mul	s4,a0,s9
    2c3c:	d7843603          	ld	a2,-648(s0)
    2c40:	00ca0633          	add	a2,s4,a2
    2c44:	d6c43c23          	sd	a2,-648(s0)
    2c48:	e5843a03          	ld	s4,-424(s0)
    2c4c:	03450533          	mul	a0,a0,s4
    2c50:	d8043603          	ld	a2,-640(s0)
    2c54:	00c50633          	add	a2,a0,a2
    2c58:	d8c43023          	sd	a2,-640(s0)
    2c5c:	03478533          	mul	a0,a5,s4
    2c60:	e4a43c23          	sd	a0,-424(s0)
    2c64:	03978533          	mul	a0,a5,s9
    2c68:	e4a43823          	sd	a0,-432(s0)
    2c6c:	03278533          	mul	a0,a5,s2
    2c70:	e6a43023          	sd	a0,-416(s0)
    2c74:	02678533          	mul	a0,a5,t1
    2c78:	e8a43023          	sd	a0,-384(s0)
    2c7c:	02e78533          	mul	a0,a5,a4
    2c80:	00001637          	lui	a2,0x1
    2c84:	40c40633          	sub	a2,s0,a2
    2c88:	66a63823          	sd	a0,1648(a2) # 1670 <.LBB89_4+0x474>
    2c8c:	02978533          	mul	a0,a5,s1
    2c90:	f4a43c23          	sd	a0,-168(s0)
    2c94:	02b78533          	mul	a0,a5,a1
    2c98:	f2a43423          	sd	a0,-216(s0)
    2c9c:	03c78533          	mul	a0,a5,t3
    2ca0:	eaa43c23          	sd	a0,-328(s0)
    2ca4:	02778533          	mul	a0,a5,t2
    2ca8:	f6a43423          	sd	a0,-152(s0)
    2cac:	02d78533          	mul	a0,a5,a3
    2cb0:	f4a43823          	sd	a0,-176(s0)
    2cb4:	03678533          	mul	a0,a5,s6
    2cb8:	e6a43c23          	sd	a0,-392(s0)
    2cbc:	03078cb3          	mul	s9,a5,a6
    2cc0:	03f78b33          	mul	s6,a5,t6
    2cc4:	02178a33          	mul	s4,a5,ra
    2cc8:	03178333          	mul	t1,a5,a7
    2ccc:	025783b3          	mul	t2,a5,t0
    2cd0:	03d78fb3          	mul	t6,a5,t4
    2cd4:	03e78e33          	mul	t3,a5,t5
    2cd8:	03378eb3          	mul	t4,a5,s3
    2cdc:	ea043503          	ld	a0,-352(s0)
    2ce0:	02a78933          	mul	s2,a5,a0
    2ce4:	03578f33          	mul	t5,a5,s5
    2ce8:	037784b3          	mul	s1,a5,s7
    2cec:	03a789b3          	mul	s3,a5,s10
    2cf0:	03878d33          	mul	s10,a5,s8
    2cf4:	03b78db3          	mul	s11,a5,s11
    2cf8:	f7843503          	ld	a0,-136(s0)
    2cfc:	02a78733          	mul	a4,a5,a0
    2d00:	f7043503          	ld	a0,-144(s0)
    2d04:	02a780b3          	mul	ra,a5,a0
    2d08:	f3043503          	ld	a0,-208(s0)
    2d0c:	02a786b3          	mul	a3,a5,a0
    2d10:	f1843503          	ld	a0,-232(s0)
    2d14:	02a78633          	mul	a2,a5,a0
    2d18:	f2043503          	ld	a0,-224(s0)
    2d1c:	02a785b3          	mul	a1,a5,a0
    2d20:	f1043503          	ld	a0,-240(s0)
    2d24:	02a78533          	mul	a0,a5,a0
    2d28:	e8843803          	ld	a6,-376(s0)
    2d2c:	030787b3          	mul	a5,a5,a6
    2d30:	da043803          	ld	a6,-608(s0)
    2d34:	01078833          	add	a6,a5,a6
    2d38:	db043023          	sd	a6,-608(s0)
    2d3c:	e3843783          	ld	a5,-456(s0)
    2d40:	d9843803          	ld	a6,-616(s0)
    2d44:	01050833          	add	a6,a0,a6
    2d48:	d9043c23          	sd	a6,-616(s0)
    2d4c:	d9043503          	ld	a0,-624(s0)
    2d50:	00a58533          	add	a0,a1,a0
    2d54:	d8a43823          	sd	a0,-624(s0)
    2d58:	d8843503          	ld	a0,-632(s0)
    2d5c:	00a60533          	add	a0,a2,a0
    2d60:	d8a43423          	sd	a0,-632(s0)
    2d64:	da843503          	ld	a0,-600(s0)
    2d68:	00a68533          	add	a0,a3,a0
    2d6c:	daa43423          	sd	a0,-600(s0)
    2d70:	db043503          	ld	a0,-592(s0)
    2d74:	00a08533          	add	a0,ra,a0
    2d78:	daa43823          	sd	a0,-592(s0)
    2d7c:	dc043083          	ld	ra,-576(s0)
    2d80:	db843503          	ld	a0,-584(s0)
    2d84:	00a70533          	add	a0,a4,a0
    2d88:	daa43c23          	sd	a0,-584(s0)
    2d8c:	001d80b3          	add	ra,s11,ra
    2d90:	dc843d83          	ld	s11,-568(s0)
    2d94:	01bd0db3          	add	s11,s10,s11
    2d98:	dd043d03          	ld	s10,-560(s0)
    2d9c:	01a98d33          	add	s10,s3,s10
    2da0:	de843983          	ld	s3,-536(s0)
    2da4:	dd843503          	ld	a0,-552(s0)
    2da8:	00a48533          	add	a0,s1,a0
    2dac:	dca43c23          	sd	a0,-552(s0)
    2db0:	df843483          	ld	s1,-520(s0)
    2db4:	de043503          	ld	a0,-544(s0)
    2db8:	00af0533          	add	a0,t5,a0
    2dbc:	dea43023          	sd	a0,-544(s0)
    2dc0:	e0043f03          	ld	t5,-512(s0)
    2dc4:	013909b3          	add	s3,s2,s3
    2dc8:	df043903          	ld	s2,-528(s0)
    2dcc:	012e8933          	add	s2,t4,s2
    2dd0:	e0843e83          	ld	t4,-504(s0)
    2dd4:	009e04b3          	add	s1,t3,s1
    2dd8:	e1043e03          	ld	t3,-496(s0)
    2ddc:	ed043503          	ld	a0,-304(s0)
    2de0:	00af8533          	add	a0,t6,a0
    2de4:	eca43823          	sd	a0,-304(s0)
    2de8:	ed043f83          	ld	t6,-304(s0)
    2dec:	01e38f33          	add	t5,t2,t5
    2df0:	01d30eb3          	add	t4,t1,t4
    2df4:	e1843303          	ld	t1,-488(s0)
    2df8:	01ca0e33          	add	t3,s4,t3
    2dfc:	e2043283          	ld	t0,-480(s0)
    2e00:	ed843503          	ld	a0,-296(s0)
    2e04:	00ab0533          	add	a0,s6,a0
    2e08:	000015b7          	lui	a1,0x1
    2e0c:	40b405b3          	sub	a1,s0,a1
    2e10:	6805ba83          	ld	s5,1664(a1) # 1680 <.LBB89_4+0x484>
    2e14:	eca43c23          	sd	a0,-296(s0)
    2e18:	ed843383          	ld	t2,-296(s0)
    2e1c:	ee043503          	ld	a0,-288(s0)
    2e20:	00ac8533          	add	a0,s9,a0
    2e24:	f8043b03          	ld	s6,-128(s0)
    2e28:	eea43023          	sd	a0,-288(s0)
    2e2c:	ee043703          	ld	a4,-288(s0)
    2e30:	ee843503          	ld	a0,-280(s0)
    2e34:	e7843583          	ld	a1,-392(s0)
    2e38:	00a58533          	add	a0,a1,a0
    2e3c:	f8843b83          	ld	s7,-120(s0)
    2e40:	eea43423          	sd	a0,-280(s0)
    2e44:	ee843683          	ld	a3,-280(s0)
    2e48:	ef043503          	ld	a0,-272(s0)
    2e4c:	f5043583          	ld	a1,-176(s0)
    2e50:	00a58533          	add	a0,a1,a0
    2e54:	eea43823          	sd	a0,-272(s0)
    2e58:	ef043603          	ld	a2,-272(s0)
    2e5c:	ef843503          	ld	a0,-264(s0)
    2e60:	f6843583          	ld	a1,-152(s0)
    2e64:	00a58533          	add	a0,a1,a0
    2e68:	e4043c83          	ld	s9,-448(s0)
    2e6c:	eea43c23          	sd	a0,-264(s0)
    2e70:	ef843583          	ld	a1,-264(s0)
    2e74:	f0043503          	ld	a0,-256(s0)
    2e78:	eb843803          	ld	a6,-328(s0)
    2e7c:	00a80533          	add	a0,a6,a0
    2e80:	f0a43023          	sd	a0,-256(s0)
    2e84:	f0043503          	ld	a0,-256(s0)
    2e88:	f2843803          	ld	a6,-216(s0)
    2e8c:	00680333          	add	t1,a6,t1
    2e90:	e2843883          	ld	a7,-472(s0)
    2e94:	f5843803          	ld	a6,-168(s0)
    2e98:	005802b3          	add	t0,a6,t0
    2e9c:	e3043803          	ld	a6,-464(s0)
    2ea0:	00001a37          	lui	s4,0x1
    2ea4:	41440a33          	sub	s4,s0,s4
    2ea8:	670a3a03          	ld	s4,1648(s4) # 1670 <.LBB89_4+0x474>
    2eac:	011a08b3          	add	a7,s4,a7
    2eb0:	e8043a03          	ld	s4,-384(s0)
    2eb4:	010a0833          	add	a6,s4,a6
    2eb8:	e6043a03          	ld	s4,-416(s0)
    2ebc:	00fa07b3          	add	a5,s4,a5
    2ec0:	e5043a03          	ld	s4,-432(s0)
    2ec4:	019a0cb3          	add	s9,s4,s9
    2ec8:	e4843c03          	ld	s8,-440(s0)
    2ecc:	e5843a03          	ld	s4,-424(s0)
    2ed0:	018a0c33          	add	s8,s4,s8
    2ed4:	e5843423          	sd	s8,-440(s0)
    2ed8:	c40a8a93          	addi	s5,s5,-960
    2edc:	3c0b8b93          	addi	s7,s7,960
    2ee0:	001b0b13          	addi	s6,s6,1
    2ee4:	000a8463          	beqz	s5,2eec <.LBB89_6>
    2ee8:	8c1fe06f          	j	17a8 <.LBB89_5>

0000000000002eec <.LBB89_6>:
    2eec:	00001537          	lui	a0,0x1
    2ef0:	40a40533          	sub	a0,s0,a0
    2ef4:	6a053a03          	ld	s4,1696(a0) # 16a0 <.LBB89_4+0x4a4>
    2ef8:	00001537          	lui	a0,0x1
    2efc:	40a40533          	sub	a0,s0,a0
    2f00:	6a853a83          	ld	s5,1704(a0) # 16a8 <.LBB89_4+0x4ac>
    2f04:	00001537          	lui	a0,0x1
    2f08:	40a40533          	sub	a0,s0,a0
    2f0c:	6b053b03          	ld	s6,1712(a0) # 16b0 <.LBB89_4+0x4b4>
    2f10:	00001537          	lui	a0,0x1
    2f14:	40a40533          	sub	a0,s0,a0
    2f18:	69853c03          	ld	s8,1688(a0) # 1698 <.LBB89_4+0x49c>
    2f1c:	00001537          	lui	a0,0x1
    2f20:	40a40533          	sub	a0,s0,a0
    2f24:	69053b83          	ld	s7,1680(a0) # 1690 <.LBB89_4+0x494>
    2f28:	00001537          	lui	a0,0x1
    2f2c:	40a40533          	sub	a0,s0,a0
    2f30:	68853f83          	ld	t6,1672(a0) # 1688 <.LBB89_4+0x48c>
    2f34:	e5943023          	sd	s9,-448(s0)
    2f38:	00001537          	lui	a0,0x1
    2f3c:	40a40533          	sub	a0,s0,a0
    2f40:	66853503          	ld	a0,1640(a0) # 1668 <.LBB89_4+0x46c>
    2f44:	00251513          	slli	a0,a0,0x2
    2f48:	000015b7          	lui	a1,0x1
    2f4c:	40b405b3          	sub	a1,s0,a1
    2f50:	da05b603          	ld	a2,-608(a1) # da0 <.LBB89_3+0xb20>
    2f54:	00a60633          	add	a2,a2,a0
    2f58:	000015b7          	lui	a1,0x1
    2f5c:	40b405b3          	sub	a1,s0,a1
    2f60:	6605b583          	ld	a1,1632(a1) # 1660 <.LBB89_4+0x464>
    2f64:	0005a583          	lw	a1,0(a1)
    2f68:	000016b7          	lui	a3,0x1
    2f6c:	40d406b3          	sub	a3,s0,a3
    2f70:	d986b683          	ld	a3,-616(a3) # d98 <.LBB89_3+0xb18>
    2f74:	00a68533          	add	a0,a3,a0
    2f78:	00c52683          	lw	a3,12(a0)
    2f7c:	00c62383          	lw	t2,12(a2)
    2f80:	00359713          	slli	a4,a1,0x3
    2f84:	40b705bb          	subw	a1,a4,a1
    2f88:	00269713          	slli	a4,a3,0x2
    2f8c:	ea743023          	sd	t2,-352(s0)
    2f90:	000016b7          	lui	a3,0x1
    2f94:	40d406b3          	sub	a3,s0,a3
    2f98:	6b86b683          	ld	a3,1720(a3) # 16b8 <.LBB89_4+0x4bc>
    2f9c:	007686b3          	add	a3,a3,t2
    2fa0:	e8e43c23          	sd	a4,-360(s0)
    2fa4:	40e686bb          	subw	a3,a3,a4
    2fa8:	00001737          	lui	a4,0x1
    2fac:	18070713          	addi	a4,a4,384 # 1180 <.LBB89_3+0xf00>
    2fb0:	00070c93          	mv	s9,a4
    2fb4:	40e5873b          	subw	a4,a1,a4
    2fb8:	40e686bb          	subw	a3,a3,a4
    2fbc:	40000737          	lui	a4,0x40000
    2fc0:	000013b7          	lui	t2,0x1
    2fc4:	407403b3          	sub	t2,s0,t2
    2fc8:	04d3b423          	sd	a3,72(t2) # 1048 <.LBB89_3+0xdc8>
    2fcc:	0006d463          	bgez	a3,2fd4 <.LBB89_8>
    2fd0:	c0000737          	lui	a4,0xc0000

0000000000002fd4 <.LBB89_8>:
    2fd4:	000016b7          	lui	a3,0x1
    2fd8:	40d406b3          	sub	a3,s0,a3
    2fdc:	00e6b423          	sd	a4,8(a3) # 1008 <.LBB89_3+0xd88>
    2fe0:	00852683          	lw	a3,8(a0)
    2fe4:	00862703          	lw	a4,8(a2)
    2fe8:	00269393          	slli	t2,a3,0x2
    2fec:	e8e43823          	sd	a4,-368(s0)
    2ff0:	00ea06b3          	add	a3,s4,a4
    2ff4:	e8743423          	sd	t2,-376(s0)
    2ff8:	407686bb          	subw	a3,a3,t2
    2ffc:	4195873b          	subw	a4,a1,s9
    3000:	40e686bb          	subw	a3,a3,a4
    3004:	40000737          	lui	a4,0x40000
    3008:	000013b7          	lui	t2,0x1
    300c:	407403b3          	sub	t2,s0,t2
    3010:	02d3bc23          	sd	a3,56(t2) # 1038 <.LBB89_3+0xdb8>
    3014:	000f8a13          	mv	s4,t6
    3018:	0006d463          	bgez	a3,3020 <.LBB89_10>
    301c:	c0000737          	lui	a4,0xc0000

0000000000003020 <.LBB89_10>:
    3020:	000016b7          	lui	a3,0x1
    3024:	40d406b3          	sub	a3,s0,a3
    3028:	02e6b023          	sd	a4,32(a3) # 1020 <.LBB89_3+0xda0>
    302c:	00452683          	lw	a3,4(a0)
    3030:	00462703          	lw	a4,4(a2)
    3034:	00269393          	slli	t2,a3,0x2
    3038:	e8e43023          	sd	a4,-384(s0)
    303c:	00ea86b3          	add	a3,s5,a4
    3040:	e6743c23          	sd	t2,-392(s0)
    3044:	407686bb          	subw	a3,a3,t2
    3048:	4195873b          	subw	a4,a1,s9
    304c:	40e686bb          	subw	a3,a3,a4
    3050:	40000737          	lui	a4,0x40000
    3054:	000013b7          	lui	t2,0x1
    3058:	407403b3          	sub	t2,s0,t2
    305c:	02d3b423          	sd	a3,40(t2) # 1028 <.LBB89_3+0xda8>
    3060:	0006d463          	bgez	a3,3068 <.LBB89_12>
    3064:	c0000737          	lui	a4,0xc0000

0000000000003068 <.LBB89_12>:
    3068:	000016b7          	lui	a3,0x1
    306c:	40d406b3          	sub	a3,s0,a3
    3070:	00e6b023          	sd	a4,0(a3) # 1000 <.LBB89_3+0xd80>
    3074:	00052683          	lw	a3,0(a0)
    3078:	00062703          	lw	a4,0(a2)
    307c:	00269393          	slli	t2,a3,0x2
    3080:	e6e43823          	sd	a4,-400(s0)
    3084:	00eb06b3          	add	a3,s6,a4
    3088:	e6743423          	sd	t2,-408(s0)
    308c:	407686bb          	subw	a3,a3,t2
    3090:	4195873b          	subw	a4,a1,s9
    3094:	40e686bb          	subw	a3,a3,a4
    3098:	40000737          	lui	a4,0x40000
    309c:	000013b7          	lui	t2,0x1
    30a0:	407403b3          	sub	t2,s0,t2
    30a4:	00d3bc23          	sd	a3,24(t2) # 1018 <.LBB89_3+0xd98>
    30a8:	0006d463          	bgez	a3,30b0 <.LBB89_14>
    30ac:	c0000737          	lui	a4,0xc0000

00000000000030b0 <.LBB89_14>:
    30b0:	000016b7          	lui	a3,0x1
    30b4:	40d406b3          	sub	a3,s0,a3
    30b8:	fee6b823          	sd	a4,-16(a3) # ff0 <.LBB89_3+0xd70>
    30bc:	01052683          	lw	a3,16(a0)
    30c0:	01062703          	lw	a4,16(a2)
    30c4:	00269393          	slli	t2,a3,0x2
    30c8:	e6e43023          	sd	a4,-416(s0)
    30cc:	00ec06b3          	add	a3,s8,a4
    30d0:	e4743c23          	sd	t2,-424(s0)
    30d4:	407686bb          	subw	a3,a3,t2
    30d8:	4195873b          	subw	a4,a1,s9
    30dc:	40e686bb          	subw	a3,a3,a4
    30e0:	40000737          	lui	a4,0x40000
    30e4:	000013b7          	lui	t2,0x1
    30e8:	407403b3          	sub	t2,s0,t2
    30ec:	fed3bc23          	sd	a3,-8(t2) # ff8 <.LBB89_3+0xd78>
    30f0:	0006d463          	bgez	a3,30f8 <.LBB89_16>
    30f4:	c0000737          	lui	a4,0xc0000

00000000000030f8 <.LBB89_16>:
    30f8:	000016b7          	lui	a3,0x1
    30fc:	40d406b3          	sub	a3,s0,a3
    3100:	fce6bc23          	sd	a4,-40(a3) # fd8 <.LBB89_3+0xd58>
    3104:	e0643c23          	sd	t1,-488(s0)
    3108:	01452683          	lw	a3,20(a0)
    310c:	01462703          	lw	a4,20(a2)
    3110:	00269313          	slli	t1,a3,0x2
    3114:	e4e43823          	sd	a4,-432(s0)
    3118:	00eb86b3          	add	a3,s7,a4
    311c:	00001737          	lui	a4,0x1
    3120:	40e40733          	sub	a4,s0,a4
    3124:	6a673c23          	sd	t1,1720(a4) # 16b8 <.LBB89_4+0x4bc>
    3128:	406686bb          	subw	a3,a3,t1
    312c:	4195873b          	subw	a4,a1,s9
    3130:	40e686bb          	subw	a3,a3,a4
    3134:	40000737          	lui	a4,0x40000
    3138:	00001337          	lui	t1,0x1
    313c:	40640333          	sub	t1,s0,t1
    3140:	fed33023          	sd	a3,-32(t1) # fe0 <.LBB89_3+0xd60>
    3144:	00001337          	lui	t1,0x1
    3148:	40640333          	sub	t1,s0,t1
    314c:	6c033a83          	ld	s5,1728(t1) # 16c0 <.LBB89_4+0x4c4>
    3150:	00001337          	lui	t1,0x1
    3154:	40640333          	sub	t1,s0,t1
    3158:	6c833b03          	ld	s6,1736(t1) # 16c8 <.LBB89_4+0x4cc>
    315c:	0006d463          	bgez	a3,3164 <.LBB89_18>
    3160:	c0000737          	lui	a4,0xc0000

0000000000003164 <.LBB89_18>:
    3164:	000016b7          	lui	a3,0x1
    3168:	40d406b3          	sub	a3,s0,a3
    316c:	fce6b023          	sd	a4,-64(a3) # fc0 <.LBB89_3+0xd40>
    3170:	00028313          	mv	t1,t0
    3174:	01852683          	lw	a3,24(a0)
    3178:	01862703          	lw	a4,24(a2)
    317c:	00269293          	slli	t0,a3,0x2
    3180:	000016b7          	lui	a3,0x1
    3184:	40d406b3          	sub	a3,s0,a3
    3188:	6ae6b823          	sd	a4,1712(a3) # 16b0 <.LBB89_4+0x4b4>
    318c:	00eb06b3          	add	a3,s6,a4
    3190:	00001737          	lui	a4,0x1
    3194:	40e40733          	sub	a4,s0,a4
    3198:	6c573423          	sd	t0,1736(a4) # 16c8 <.LBB89_4+0x4cc>
    319c:	405686bb          	subw	a3,a3,t0
    31a0:	4195873b          	subw	a4,a1,s9
    31a4:	40e686bb          	subw	a3,a3,a4
    31a8:	40000737          	lui	a4,0x40000
    31ac:	000012b7          	lui	t0,0x1
    31b0:	405402b3          	sub	t0,s0,t0
    31b4:	fcd2b823          	sd	a3,-48(t0) # fd0 <.LBB89_3+0xd50>
    31b8:	0006d463          	bgez	a3,31c0 <.LBB89_20>
    31bc:	c0000737          	lui	a4,0xc0000

00000000000031c0 <.LBB89_20>:
    31c0:	000016b7          	lui	a3,0x1
    31c4:	40d406b3          	sub	a3,s0,a3
    31c8:	fae6b823          	sd	a4,-80(a3) # fb0 <.LBB89_3+0xd30>
    31cc:	00080293          	mv	t0,a6
    31d0:	01c52683          	lw	a3,28(a0)
    31d4:	01c62703          	lw	a4,28(a2)
    31d8:	00269813          	slli	a6,a3,0x2
    31dc:	000016b7          	lui	a3,0x1
    31e0:	40d406b3          	sub	a3,s0,a3
    31e4:	6ae6b423          	sd	a4,1704(a3) # 16a8 <.LBB89_4+0x4ac>
    31e8:	00ea86b3          	add	a3,s5,a4
    31ec:	00001737          	lui	a4,0x1
    31f0:	40e40733          	sub	a4,s0,a4
    31f4:	6d073023          	sd	a6,1728(a4) # 16c0 <.LBB89_4+0x4c4>
    31f8:	410686bb          	subw	a3,a3,a6
    31fc:	4195873b          	subw	a4,a1,s9
    3200:	40e686bb          	subw	a3,a3,a4
    3204:	40000737          	lui	a4,0x40000
    3208:	00001837          	lui	a6,0x1
    320c:	41040833          	sub	a6,s0,a6
    3210:	fad83c23          	sd	a3,-72(a6) # fb8 <.LBB89_3+0xd38>
    3214:	0006d463          	bgez	a3,321c <.LBB89_22>
    3218:	c0000737          	lui	a4,0xc0000

000000000000321c <.LBB89_22>:
    321c:	000016b7          	lui	a3,0x1
    3220:	40d406b3          	sub	a3,s0,a3
    3224:	f8e6bc23          	sd	a4,-104(a3) # f98 <.LBB89_3+0xd18>
    3228:	00008f93          	mv	t6,ra
    322c:	000d8393          	mv	t2,s11
    3230:	dda43823          	sd	s10,-560(s0)
    3234:	df343423          	sd	s3,-536(s0)
    3238:	df243823          	sd	s2,-528(s0)
    323c:	de943c23          	sd	s1,-520(s0)
    3240:	e1e43023          	sd	t5,-512(s0)
    3244:	e1d43423          	sd	t4,-504(s0)
    3248:	e1c43823          	sd	t3,-496(s0)
    324c:	e3143423          	sd	a7,-472(s0)
    3250:	00078813          	mv	a6,a5
    3254:	02052683          	lw	a3,32(a0)
    3258:	02062703          	lw	a4,32(a2)
    325c:	00269793          	slli	a5,a3,0x2
    3260:	000016b7          	lui	a3,0x1
    3264:	40d406b3          	sub	a3,s0,a3
    3268:	6ae6b023          	sd	a4,1696(a3) # 16a0 <.LBB89_4+0x4a4>
    326c:	00ea06b3          	add	a3,s4,a4
    3270:	00001737          	lui	a4,0x1
    3274:	40e40733          	sub	a4,s0,a4
    3278:	68f73c23          	sd	a5,1688(a4) # 1698 <.LBB89_4+0x49c>
    327c:	40f686bb          	subw	a3,a3,a5
    3280:	4195873b          	subw	a4,a1,s9
    3284:	40e686bb          	subw	a3,a3,a4
    3288:	40000737          	lui	a4,0x40000
    328c:	000017b7          	lui	a5,0x1
    3290:	40f407b3          	sub	a5,s0,a5
    3294:	fad7b023          	sd	a3,-96(a5) # fa0 <.LBB89_3+0xd20>
    3298:	0006d463          	bgez	a3,32a0 <.LBB89_24>
    329c:	c0000737          	lui	a4,0xc0000

00000000000032a0 <.LBB89_24>:
    32a0:	000016b7          	lui	a3,0x1
    32a4:	40d406b3          	sub	a3,s0,a3
    32a8:	f8e6b423          	sd	a4,-120(a3) # f88 <.LBB89_3+0xd08>
    32ac:	07c62683          	lw	a3,124(a2)
    32b0:	f8d43423          	sd	a3,-120(s0)
    32b4:	07862683          	lw	a3,120(a2)
    32b8:	f8d43023          	sd	a3,-128(s0)
    32bc:	07462683          	lw	a3,116(a2)
    32c0:	f6d43c23          	sd	a3,-136(s0)
    32c4:	07062683          	lw	a3,112(a2)
    32c8:	f6d43823          	sd	a3,-144(s0)
    32cc:	06c62683          	lw	a3,108(a2)
    32d0:	f6d43423          	sd	a3,-152(s0)
    32d4:	06862683          	lw	a3,104(a2)
    32d8:	f6d43023          	sd	a3,-160(s0)
    32dc:	06462683          	lw	a3,100(a2)
    32e0:	f4d43c23          	sd	a3,-168(s0)
    32e4:	06062683          	lw	a3,96(a2)
    32e8:	f4d43823          	sd	a3,-176(s0)
    32ec:	05c62683          	lw	a3,92(a2)
    32f0:	f4d43423          	sd	a3,-184(s0)
    32f4:	05862683          	lw	a3,88(a2)
    32f8:	f4d43023          	sd	a3,-192(s0)
    32fc:	05462683          	lw	a3,84(a2)
    3300:	f2d43c23          	sd	a3,-200(s0)
    3304:	05062683          	lw	a3,80(a2)
    3308:	f2d43823          	sd	a3,-208(s0)
    330c:	04c62683          	lw	a3,76(a2)
    3310:	f2d43423          	sd	a3,-216(s0)
    3314:	04862683          	lw	a3,72(a2)
    3318:	f2d43023          	sd	a3,-224(s0)
    331c:	04462683          	lw	a3,68(a2)
    3320:	f0d43c23          	sd	a3,-232(s0)
    3324:	04062683          	lw	a3,64(a2)
    3328:	f0d43823          	sd	a3,-240(s0)
    332c:	03c62683          	lw	a3,60(a2)
    3330:	f0d43423          	sd	a3,-248(s0)
    3334:	03862683          	lw	a3,56(a2)
    3338:	ecd43423          	sd	a3,-312(s0)
    333c:	03462683          	lw	a3,52(a2)
    3340:	ecd43023          	sd	a3,-320(s0)
    3344:	03062683          	lw	a3,48(a2)
    3348:	ead43c23          	sd	a3,-328(s0)
    334c:	02c62683          	lw	a3,44(a2)
    3350:	ead43823          	sd	a3,-336(s0)
    3354:	02862683          	lw	a3,40(a2)
    3358:	ead43423          	sd	a3,-344(s0)
    335c:	02462783          	lw	a5,36(a2)
    3360:	07c52603          	lw	a2,124(a0)
    3364:	f8b43823          	sd	a1,-112(s0)
    3368:	000015b7          	lui	a1,0x1
    336c:	40b405b3          	sub	a1,s0,a1
    3370:	66c5b823          	sd	a2,1648(a1) # 1670 <.LBB89_4+0x474>
    3374:	07852603          	lw	a2,120(a0)
    3378:	000015b7          	lui	a1,0x1
    337c:	40b405b3          	sub	a1,s0,a1
    3380:	64c5b423          	sd	a2,1608(a1) # 1648 <.LBB89_4+0x44c>
    3384:	07452603          	lw	a2,116(a0)
    3388:	000015b7          	lui	a1,0x1
    338c:	40b405b3          	sub	a1,s0,a1
    3390:	64c5b023          	sd	a2,1600(a1) # 1640 <.LBB89_4+0x444>
    3394:	07052603          	lw	a2,112(a0)
    3398:	000015b7          	lui	a1,0x1
    339c:	40b405b3          	sub	a1,s0,a1
    33a0:	62c5bc23          	sd	a2,1592(a1) # 1638 <.LBB89_4+0x43c>
    33a4:	06c52603          	lw	a2,108(a0)
    33a8:	000015b7          	lui	a1,0x1
    33ac:	40b405b3          	sub	a1,s0,a1
    33b0:	62c5b823          	sd	a2,1584(a1) # 1630 <.LBB89_4+0x434>
    33b4:	06852603          	lw	a2,104(a0)
    33b8:	000015b7          	lui	a1,0x1
    33bc:	40b405b3          	sub	a1,s0,a1
    33c0:	62c5b423          	sd	a2,1576(a1) # 1628 <.LBB89_4+0x42c>
    33c4:	06452e83          	lw	t4,100(a0)
    33c8:	06052f03          	lw	t5,96(a0)
    33cc:	05c52703          	lw	a4,92(a0)
    33d0:	05852483          	lw	s1,88(a0)
    33d4:	05452903          	lw	s2,84(a0)
    33d8:	05052983          	lw	s3,80(a0)
    33dc:	04c52a03          	lw	s4,76(a0)
    33e0:	04852a83          	lw	s5,72(a0)
    33e4:	04452b03          	lw	s6,68(a0)
    33e8:	04052b83          	lw	s7,64(a0)
    33ec:	03c52c03          	lw	s8,60(a0)
    33f0:	03852e03          	lw	t3,56(a0)
    33f4:	03452d03          	lw	s10,52(a0)
    33f8:	02452683          	lw	a3,36(a0)
    33fc:	03052d83          	lw	s11,48(a0)
    3400:	02c52083          	lw	ra,44(a0)
    3404:	02852603          	lw	a2,40(a0)
    3408:	00269693          	slli	a3,a3,0x2
    340c:	00001537          	lui	a0,0x1
    3410:	40a40533          	sub	a0,s0,a0
    3414:	68f53823          	sd	a5,1680(a0) # 1690 <.LBB89_4+0x494>
    3418:	00001537          	lui	a0,0x1
    341c:	40a40533          	sub	a0,s0,a0
    3420:	6d053503          	ld	a0,1744(a0) # 16d0 <.LBB89_4+0x4d4>
    3424:	00f50533          	add	a0,a0,a5
    3428:	000015b7          	lui	a1,0x1
    342c:	40b405b3          	sub	a1,s0,a1
    3430:	6cd5b823          	sd	a3,1744(a1) # 16d0 <.LBB89_4+0x4d4>
    3434:	40d506bb          	subw	a3,a0,a3
    3438:	00001537          	lui	a0,0x1
    343c:	40a40533          	sub	a0,s0,a0
    3440:	66053783          	ld	a5,1632(a0) # 1660 <.LBB89_4+0x464>
    3444:	0047a883          	lw	a7,4(a5)
    3448:	0087a503          	lw	a0,8(a5)
    344c:	000015b7          	lui	a1,0x1
    3450:	40b405b3          	sub	a1,s0,a1
    3454:	66a5bc23          	sd	a0,1656(a1) # 1678 <.LBB89_4+0x47c>
    3458:	00c7a503          	lw	a0,12(a5)
    345c:	000015b7          	lui	a1,0x1
    3460:	40b405b3          	sub	a1,s0,a1
    3464:	68a5b023          	sd	a0,1664(a1) # 1680 <.LBB89_4+0x484>
    3468:	0107a503          	lw	a0,16(a5)
    346c:	000015b7          	lui	a1,0x1
    3470:	40b405b3          	sub	a1,s0,a1
    3474:	68a5b423          	sd	a0,1672(a1) # 1688 <.LBB89_4+0x48c>
    3478:	0147a503          	lw	a0,20(a5)
    347c:	000015b7          	lui	a1,0x1
    3480:	40b405b3          	sub	a1,s0,a1
    3484:	0ca5b823          	sd	a0,208(a1) # 10d0 <.LBB89_3+0xe50>
    3488:	0187a503          	lw	a0,24(a5)
    348c:	000015b7          	lui	a1,0x1
    3490:	40b405b3          	sub	a1,s0,a1
    3494:	0ea5b023          	sd	a0,224(a1) # 10e0 <.LBB89_3+0xe60>
    3498:	f9043583          	ld	a1,-112(s0)
    349c:	01c7a783          	lw	a5,28(a5)
    34a0:	00001537          	lui	a0,0x1
    34a4:	40a40533          	sub	a0,s0,a0
    34a8:	0ef53423          	sd	a5,232(a0) # 10e8 <.LBB89_3+0xe68>
    34ac:	419587bb          	subw	a5,a1,s9
    34b0:	40f686bb          	subw	a3,a3,a5
    34b4:	400007b7          	lui	a5,0x40000
    34b8:	00001537          	lui	a0,0x1
    34bc:	40a40533          	sub	a0,s0,a0
    34c0:	dcd53423          	sd	a3,-568(a0) # dc8 <.LBB89_3+0xb48>
    34c4:	0006d463          	bgez	a3,34cc <.LBB89_26>
    34c8:	c00007b7          	lui	a5,0xc0000

00000000000034cc <.LBB89_26>:
    34cc:	00261693          	slli	a3,a2,0x2
    34d0:	ea843603          	ld	a2,-344(s0)
    34d4:	00001537          	lui	a0,0x1
    34d8:	40a40533          	sub	a0,s0,a0
    34dc:	6d853503          	ld	a0,1752(a0) # 16d8 <.LBB89_4+0x4dc>
    34e0:	00c50633          	add	a2,a0,a2
    34e4:	00001537          	lui	a0,0x1
    34e8:	40a40533          	sub	a0,s0,a0
    34ec:	6cd53c23          	sd	a3,1752(a0) # 16d8 <.LBB89_4+0x4dc>
    34f0:	40d6063b          	subw	a2,a2,a3
    34f4:	419586bb          	subw	a3,a1,s9
    34f8:	40d6063b          	subw	a2,a2,a3
    34fc:	400006b7          	lui	a3,0x40000
    3500:	00001537          	lui	a0,0x1
    3504:	40a40533          	sub	a0,s0,a0
    3508:	dcc53c23          	sd	a2,-552(a0) # dd8 <.LBB89_3+0xb58>
    350c:	00001537          	lui	a0,0x1
    3510:	40a40533          	sub	a0,s0,a0
    3514:	72053503          	ld	a0,1824(a0) # 1720 <.LBB89_4+0x524>
    3518:	00065463          	bgez	a2,3520 <.LBB89_28>
    351c:	c00006b7          	lui	a3,0xc0000

0000000000003520 <.LBB89_28>:
    3520:	00001637          	lui	a2,0x1
    3524:	40c40633          	sub	a2,s0,a2
    3528:	dcd63823          	sd	a3,-560(a2) # dd0 <.LBB89_3+0xb50>
    352c:	00209093          	slli	ra,ra,0x2
    3530:	eb043603          	ld	a2,-336(s0)
    3534:	000016b7          	lui	a3,0x1
    3538:	40d406b3          	sub	a3,s0,a3
    353c:	6e06b683          	ld	a3,1760(a3) # 16e0 <.LBB89_4+0x4e4>
    3540:	00c68633          	add	a2,a3,a2
    3544:	000016b7          	lui	a3,0x1
    3548:	40d406b3          	sub	a3,s0,a3
    354c:	6e16b023          	sd	ra,1760(a3) # 16e0 <.LBB89_4+0x4e4>
    3550:	4016063b          	subw	a2,a2,ra
    3554:	419586bb          	subw	a3,a1,s9
    3558:	40d6063b          	subw	a2,a2,a3
    355c:	400006b7          	lui	a3,0x40000
    3560:	e3043c23          	sd	a6,-456(s0)
    3564:	00001837          	lui	a6,0x1
    3568:	41040833          	sub	a6,s0,a6
    356c:	dec83423          	sd	a2,-536(a6) # de8 <.LBB89_3+0xb68>
    3570:	00065463          	bgez	a2,3578 <.LBB89_30>
    3574:	c00006b7          	lui	a3,0xc0000

0000000000003578 <.LBB89_30>:
    3578:	00001637          	lui	a2,0x1
    357c:	40c40633          	sub	a2,s0,a2
    3580:	ded63023          	sd	a3,-544(a2) # de0 <.LBB89_3+0xb60>
    3584:	002d9d93          	slli	s11,s11,0x2
    3588:	eb843603          	ld	a2,-328(s0)
    358c:	000016b7          	lui	a3,0x1
    3590:	40d406b3          	sub	a3,s0,a3
    3594:	6e86b683          	ld	a3,1768(a3) # 16e8 <.LBB89_4+0x4ec>
    3598:	00c68633          	add	a2,a3,a2
    359c:	000016b7          	lui	a3,0x1
    35a0:	40d406b3          	sub	a3,s0,a3
    35a4:	6fb6b423          	sd	s11,1768(a3) # 16e8 <.LBB89_4+0x4ec>
    35a8:	41b6063b          	subw	a2,a2,s11
    35ac:	419586bb          	subw	a3,a1,s9
    35b0:	40d6063b          	subw	a2,a2,a3
    35b4:	400006b7          	lui	a3,0x40000
    35b8:	e2543823          	sd	t0,-464(s0)
    35bc:	ddf43023          	sd	t6,-576(s0)
    35c0:	00001837          	lui	a6,0x1
    35c4:	41040833          	sub	a6,s0,a6
    35c8:	dec83c23          	sd	a2,-520(a6) # df8 <.LBB89_3+0xb78>
    35cc:	84043083          	ld	ra,-1984(s0)
    35d0:	00001837          	lui	a6,0x1
    35d4:	41040833          	sub	a6,s0,a6
    35d8:	77883803          	ld	a6,1912(a6) # 1778 <.LBB89_4+0x57c>
    35dc:	00065463          	bgez	a2,35e4 <.LBB89_32>
    35e0:	c00006b7          	lui	a3,0xc0000

00000000000035e4 <.LBB89_32>:
    35e4:	00001637          	lui	a2,0x1
    35e8:	40c40633          	sub	a2,s0,a2
    35ec:	ded63823          	sd	a3,-528(a2) # df0 <.LBB89_3+0xb70>
    35f0:	002d1693          	slli	a3,s10,0x2
    35f4:	ec043603          	ld	a2,-320(s0)
    35f8:	000012b7          	lui	t0,0x1
    35fc:	405402b3          	sub	t0,s0,t0
    3600:	6f02b283          	ld	t0,1776(t0) # 16f0 <.LBB89_4+0x4f4>
    3604:	00c28633          	add	a2,t0,a2
    3608:	000012b7          	lui	t0,0x1
    360c:	405402b3          	sub	t0,s0,t0
    3610:	6ed2b823          	sd	a3,1776(t0) # 16f0 <.LBB89_4+0x4f4>
    3614:	40d6063b          	subw	a2,a2,a3
    3618:	419586bb          	subw	a3,a1,s9
    361c:	40d6063b          	subw	a2,a2,a3
    3620:	400006b7          	lui	a3,0x40000
    3624:	e2643023          	sd	t1,-480(s0)
    3628:	dc743423          	sd	t2,-568(s0)
    362c:	000012b7          	lui	t0,0x1
    3630:	405402b3          	sub	t0,s0,t0
    3634:	e0c2b423          	sd	a2,-504(t0) # e08 <.LBB89_3+0xb88>
    3638:	80043f83          	ld	t6,-2048(s0)
    363c:	000012b7          	lui	t0,0x1
    3640:	405402b3          	sub	t0,s0,t0
    3644:	7f82bd83          	ld	s11,2040(t0) # 17f8 <.LBB89_5+0x50>
    3648:	000012b7          	lui	t0,0x1
    364c:	405402b3          	sub	t0,s0,t0
    3650:	7682b283          	ld	t0,1896(t0) # 1768 <.LBB89_4+0x56c>
    3654:	00065463          	bgez	a2,365c <.LBB89_34>
    3658:	c00006b7          	lui	a3,0xc0000

000000000000365c <.LBB89_34>:
    365c:	00001637          	lui	a2,0x1
    3660:	40c40633          	sub	a2,s0,a2
    3664:	e0d63023          	sd	a3,-512(a2) # e00 <.LBB89_3+0xb80>
    3668:	002e1e13          	slli	t3,t3,0x2
    366c:	ec843603          	ld	a2,-312(s0)
    3670:	000016b7          	lui	a3,0x1
    3674:	40d406b3          	sub	a3,s0,a3
    3678:	6f86b683          	ld	a3,1784(a3) # 16f8 <.LBB89_4+0x4fc>
    367c:	00c68633          	add	a2,a3,a2
    3680:	000016b7          	lui	a3,0x1
    3684:	40d406b3          	sub	a3,s0,a3
    3688:	6fc6bc23          	sd	t3,1784(a3) # 16f8 <.LBB89_4+0x4fc>
    368c:	41c6063b          	subw	a2,a2,t3
    3690:	419586bb          	subw	a3,a1,s9
    3694:	40d6063b          	subw	a2,a2,a3
    3698:	400006b7          	lui	a3,0x40000
    369c:	00001337          	lui	t1,0x1
    36a0:	40640333          	sub	t1,s0,t1
    36a4:	e0c33c23          	sd	a2,-488(t1) # e18 <.LBB89_3+0xb98>
    36a8:	85843383          	ld	t2,-1960(s0)
    36ac:	00001337          	lui	t1,0x1
    36b0:	40640333          	sub	t1,s0,t1
    36b4:	75833303          	ld	t1,1880(t1) # 1758 <.LBB89_4+0x55c>
    36b8:	00001e37          	lui	t3,0x1
    36bc:	41c40e33          	sub	t3,s0,t3
    36c0:	708e3d03          	ld	s10,1800(t3) # 1708 <.LBB89_4+0x50c>
    36c4:	00065463          	bgez	a2,36cc <.LBB89_36>
    36c8:	c00006b7          	lui	a3,0xc0000

00000000000036cc <.LBB89_36>:
    36cc:	00001637          	lui	a2,0x1
    36d0:	40c40633          	sub	a2,s0,a2
    36d4:	e0d63823          	sd	a3,-496(a2) # e10 <.LBB89_3+0xb90>
    36d8:	002c1c13          	slli	s8,s8,0x2
    36dc:	f0843603          	ld	a2,-248(s0)
    36e0:	000016b7          	lui	a3,0x1
    36e4:	40d406b3          	sub	a3,s0,a3
    36e8:	7006b683          	ld	a3,1792(a3) # 1700 <.LBB89_4+0x504>
    36ec:	00c68633          	add	a2,a3,a2
    36f0:	000c0e13          	mv	t3,s8
    36f4:	4186063b          	subw	a2,a2,s8
    36f8:	419586bb          	subw	a3,a1,s9
    36fc:	40d6063b          	subw	a2,a2,a3
    3700:	400006b7          	lui	a3,0x40000
    3704:	00001c37          	lui	s8,0x1
    3708:	41840c33          	sub	s8,s0,s8
    370c:	e2cc3423          	sd	a2,-472(s8) # e28 <.LBB89_3+0xba8>
    3710:	00065463          	bgez	a2,3718 <.LBB89_38>
    3714:	c00006b7          	lui	a3,0xc0000

0000000000003718 <.LBB89_38>:
    3718:	00001637          	lui	a2,0x1
    371c:	40c40633          	sub	a2,s0,a2
    3720:	e2d63023          	sd	a3,-480(a2) # e20 <.LBB89_3+0xba0>
    3724:	002b9b93          	slli	s7,s7,0x2
    3728:	f1043603          	ld	a2,-240(s0)
    372c:	00cd0633          	add	a2,s10,a2
    3730:	000b8d13          	mv	s10,s7
    3734:	4176063b          	subw	a2,a2,s7
    3738:	419586bb          	subw	a3,a1,s9
    373c:	40d6063b          	subw	a2,a2,a3
    3740:	400006b7          	lui	a3,0x40000
    3744:	00001bb7          	lui	s7,0x1
    3748:	41740bb3          	sub	s7,s0,s7
    374c:	d48bbc03          	ld	s8,-696(s7) # d48 <.LBB89_3+0xac8>
    3750:	00001bb7          	lui	s7,0x1
    3754:	41740bb3          	sub	s7,s0,s7
    3758:	e2cbbc23          	sd	a2,-456(s7) # e38 <.LBB89_3+0xbb8>
    375c:	00065463          	bgez	a2,3764 <.LBB89_40>
    3760:	c00006b7          	lui	a3,0xc0000

0000000000003764 <.LBB89_40>:
    3764:	00001637          	lui	a2,0x1
    3768:	40c40633          	sub	a2,s0,a2
    376c:	e2d63823          	sd	a3,-464(a2) # e30 <.LBB89_3+0xbb0>
    3770:	002b1b13          	slli	s6,s6,0x2
    3774:	f1843603          	ld	a2,-232(s0)
    3778:	000016b7          	lui	a3,0x1
    377c:	40d406b3          	sub	a3,s0,a3
    3780:	7106b683          	ld	a3,1808(a3) # 1710 <.LBB89_4+0x514>
    3784:	00c68633          	add	a2,a3,a2
    3788:	000016b7          	lui	a3,0x1
    378c:	40d406b3          	sub	a3,s0,a3
    3790:	7166b823          	sd	s6,1808(a3) # 1710 <.LBB89_4+0x514>
    3794:	4166063b          	subw	a2,a2,s6
    3798:	419586bb          	subw	a3,a1,s9
    379c:	40d6063b          	subw	a2,a2,a3
    37a0:	400006b7          	lui	a3,0x40000
    37a4:	00001b37          	lui	s6,0x1
    37a8:	41640b33          	sub	s6,s0,s6
    37ac:	658b3b83          	ld	s7,1624(s6) # 1658 <.LBB89_4+0x45c>
    37b0:	00001b37          	lui	s6,0x1
    37b4:	41640b33          	sub	s6,s0,s6
    37b8:	e4cb3423          	sd	a2,-440(s6) # e48 <.LBB89_3+0xbc8>
    37bc:	00065463          	bgez	a2,37c4 <.LBB89_42>
    37c0:	c00006b7          	lui	a3,0xc0000

00000000000037c4 <.LBB89_42>:
    37c4:	00001637          	lui	a2,0x1
    37c8:	40c40633          	sub	a2,s0,a2
    37cc:	e4d63023          	sd	a3,-448(a2) # e40 <.LBB89_3+0xbc0>
    37d0:	002a9a93          	slli	s5,s5,0x2
    37d4:	f2043603          	ld	a2,-224(s0)
    37d8:	000016b7          	lui	a3,0x1
    37dc:	40d406b3          	sub	a3,s0,a3
    37e0:	7186b683          	ld	a3,1816(a3) # 1718 <.LBB89_4+0x51c>
    37e4:	00c68633          	add	a2,a3,a2
    37e8:	000016b7          	lui	a3,0x1
    37ec:	40d406b3          	sub	a3,s0,a3
    37f0:	7156bc23          	sd	s5,1816(a3) # 1718 <.LBB89_4+0x51c>
    37f4:	4156063b          	subw	a2,a2,s5
    37f8:	419586bb          	subw	a3,a1,s9
    37fc:	40d6063b          	subw	a2,a2,a3
    3800:	400006b7          	lui	a3,0x40000
    3804:	00001ab7          	lui	s5,0x1
    3808:	41540ab3          	sub	s5,s0,s5
    380c:	e4cabc23          	sd	a2,-424(s5) # e58 <.LBB89_3+0xbd8>
    3810:	82843b03          	ld	s6,-2008(s0)
    3814:	00065463          	bgez	a2,381c <.LBB89_44>
    3818:	c00006b7          	lui	a3,0xc0000

000000000000381c <.LBB89_44>:
    381c:	00001637          	lui	a2,0x1
    3820:	40c40633          	sub	a2,s0,a2
    3824:	e4d63823          	sd	a3,-432(a2) # e50 <.LBB89_3+0xbd0>
    3828:	002a1a13          	slli	s4,s4,0x2
    382c:	f2843603          	ld	a2,-216(s0)
    3830:	00c50633          	add	a2,a0,a2
    3834:	00001537          	lui	a0,0x1
    3838:	40a40533          	sub	a0,s0,a0
    383c:	73453023          	sd	s4,1824(a0) # 1720 <.LBB89_4+0x524>
    3840:	4146063b          	subw	a2,a2,s4
    3844:	419586bb          	subw	a3,a1,s9
    3848:	40d6063b          	subw	a2,a2,a3
    384c:	400006b7          	lui	a3,0x40000
    3850:	00001537          	lui	a0,0x1
    3854:	40a40533          	sub	a0,s0,a0
    3858:	e6c53423          	sd	a2,-408(a0) # e68 <.LBB89_3+0xbe8>
    385c:	84843a83          	ld	s5,-1976(s0)
    3860:	00065463          	bgez	a2,3868 <.LBB89_46>
    3864:	c00006b7          	lui	a3,0xc0000

0000000000003868 <.LBB89_46>:
    3868:	00001537          	lui	a0,0x1
    386c:	40a40533          	sub	a0,s0,a0
    3870:	e6d53023          	sd	a3,-416(a0) # e60 <.LBB89_3+0xbe0>
    3874:	00299993          	slli	s3,s3,0x2
    3878:	f3043603          	ld	a2,-208(s0)
    387c:	00001537          	lui	a0,0x1
    3880:	40a40533          	sub	a0,s0,a0
    3884:	72853683          	ld	a3,1832(a0) # 1728 <.LBB89_4+0x52c>
    3888:	00c68633          	add	a2,a3,a2
    388c:	00001537          	lui	a0,0x1
    3890:	40a40533          	sub	a0,s0,a0
    3894:	73353423          	sd	s3,1832(a0) # 1728 <.LBB89_4+0x52c>
    3898:	4136063b          	subw	a2,a2,s3
    389c:	419586bb          	subw	a3,a1,s9
    38a0:	40d6063b          	subw	a2,a2,a3
    38a4:	400006b7          	lui	a3,0x40000
    38a8:	00001537          	lui	a0,0x1
    38ac:	40a40533          	sub	a0,s0,a0
    38b0:	e6c53c23          	sd	a2,-392(a0) # e78 <.LBB89_3+0xbf8>
    38b4:	82043a03          	ld	s4,-2016(s0)
    38b8:	00065463          	bgez	a2,38c0 <.LBB89_48>
    38bc:	c00006b7          	lui	a3,0xc0000

00000000000038c0 <.LBB89_48>:
    38c0:	00001537          	lui	a0,0x1
    38c4:	40a40533          	sub	a0,s0,a0
    38c8:	e6d53823          	sd	a3,-400(a0) # e70 <.LBB89_3+0xbf0>
    38cc:	00291913          	slli	s2,s2,0x2
    38d0:	f3843603          	ld	a2,-200(s0)
    38d4:	00001537          	lui	a0,0x1
    38d8:	40a40533          	sub	a0,s0,a0
    38dc:	73053683          	ld	a3,1840(a0) # 1730 <.LBB89_4+0x534>
    38e0:	00c68633          	add	a2,a3,a2
    38e4:	00001537          	lui	a0,0x1
    38e8:	40a40533          	sub	a0,s0,a0
    38ec:	73253823          	sd	s2,1840(a0) # 1730 <.LBB89_4+0x534>
    38f0:	4126063b          	subw	a2,a2,s2
    38f4:	419586bb          	subw	a3,a1,s9
    38f8:	40d6063b          	subw	a2,a2,a3
    38fc:	400006b7          	lui	a3,0x40000
    3900:	00001537          	lui	a0,0x1
    3904:	40a40533          	sub	a0,s0,a0
    3908:	e8c53423          	sd	a2,-376(a0) # e88 <.LBB89_3+0xc08>
    390c:	81843983          	ld	s3,-2024(s0)
    3910:	00065463          	bgez	a2,3918 <.LBB89_50>
    3914:	c00006b7          	lui	a3,0xc0000

0000000000003918 <.LBB89_50>:
    3918:	00001537          	lui	a0,0x1
    391c:	40a40533          	sub	a0,s0,a0
    3920:	e8d53023          	sd	a3,-384(a0) # e80 <.LBB89_3+0xc00>
    3924:	00249493          	slli	s1,s1,0x2
    3928:	f4043603          	ld	a2,-192(s0)
    392c:	00001537          	lui	a0,0x1
    3930:	40a40533          	sub	a0,s0,a0
    3934:	73853683          	ld	a3,1848(a0) # 1738 <.LBB89_4+0x53c>
    3938:	00c68633          	add	a2,a3,a2
    393c:	00001537          	lui	a0,0x1
    3940:	40a40533          	sub	a0,s0,a0
    3944:	72953c23          	sd	s1,1848(a0) # 1738 <.LBB89_4+0x53c>
    3948:	4096063b          	subw	a2,a2,s1
    394c:	419586bb          	subw	a3,a1,s9
    3950:	40d6063b          	subw	a2,a2,a3
    3954:	400006b7          	lui	a3,0x40000
    3958:	00001537          	lui	a0,0x1
    395c:	40a40533          	sub	a0,s0,a0
    3960:	e8c53c23          	sd	a2,-360(a0) # e98 <.LBB89_3+0xc18>
    3964:	81043903          	ld	s2,-2032(s0)
    3968:	00065463          	bgez	a2,3970 <.LBB89_52>
    396c:	c00006b7          	lui	a3,0xc0000

0000000000003970 <.LBB89_52>:
    3970:	00001537          	lui	a0,0x1
    3974:	40a40533          	sub	a0,s0,a0
    3978:	e8d53823          	sd	a3,-368(a0) # e90 <.LBB89_3+0xc10>
    397c:	00271713          	slli	a4,a4,0x2
    3980:	f4843603          	ld	a2,-184(s0)
    3984:	00001537          	lui	a0,0x1
    3988:	40a40533          	sub	a0,s0,a0
    398c:	74053683          	ld	a3,1856(a0) # 1740 <.LBB89_4+0x544>
    3990:	00c68633          	add	a2,a3,a2
    3994:	00001537          	lui	a0,0x1
    3998:	40a40533          	sub	a0,s0,a0
    399c:	74e53023          	sd	a4,1856(a0) # 1740 <.LBB89_4+0x544>
    39a0:	40e6063b          	subw	a2,a2,a4
    39a4:	419586bb          	subw	a3,a1,s9
    39a8:	40d6063b          	subw	a2,a2,a3
    39ac:	400006b7          	lui	a3,0x40000
    39b0:	00001537          	lui	a0,0x1
    39b4:	40a40533          	sub	a0,s0,a0
    39b8:	eac53423          	sd	a2,-344(a0) # ea8 <.LBB89_3+0xc28>
    39bc:	80843483          	ld	s1,-2040(s0)
    39c0:	00065463          	bgez	a2,39c8 <.LBB89_54>
    39c4:	c00006b7          	lui	a3,0xc0000

00000000000039c8 <.LBB89_54>:
    39c8:	00001537          	lui	a0,0x1
    39cc:	40a40533          	sub	a0,s0,a0
    39d0:	ead53023          	sd	a3,-352(a0) # ea0 <.LBB89_3+0xc20>
    39d4:	002f1f13          	slli	t5,t5,0x2
    39d8:	f5043603          	ld	a2,-176(s0)
    39dc:	00001537          	lui	a0,0x1
    39e0:	40a40533          	sub	a0,s0,a0
    39e4:	74853683          	ld	a3,1864(a0) # 1748 <.LBB89_4+0x54c>
    39e8:	00c68633          	add	a2,a3,a2
    39ec:	00001537          	lui	a0,0x1
    39f0:	40a40533          	sub	a0,s0,a0
    39f4:	75e53423          	sd	t5,1864(a0) # 1748 <.LBB89_4+0x54c>
    39f8:	41e6063b          	subw	a2,a2,t5
    39fc:	419586bb          	subw	a3,a1,s9
    3a00:	40d6063b          	subw	a2,a2,a3
    3a04:	400006b7          	lui	a3,0x40000
    3a08:	00001537          	lui	a0,0x1
    3a0c:	40a40533          	sub	a0,s0,a0
    3a10:	eac53c23          	sd	a2,-328(a0) # eb8 <.LBB89_3+0xc38>
    3a14:	85043703          	ld	a4,-1968(s0)
    3a18:	00065463          	bgez	a2,3a20 <.LBB89_56>
    3a1c:	c00006b7          	lui	a3,0xc0000

0000000000003a20 <.LBB89_56>:
    3a20:	00001537          	lui	a0,0x1
    3a24:	40a40533          	sub	a0,s0,a0
    3a28:	ead53823          	sd	a3,-336(a0) # eb0 <.LBB89_3+0xc30>
    3a2c:	002e9e93          	slli	t4,t4,0x2
    3a30:	f5843603          	ld	a2,-168(s0)
    3a34:	00001537          	lui	a0,0x1
    3a38:	40a40533          	sub	a0,s0,a0
    3a3c:	75053683          	ld	a3,1872(a0) # 1750 <.LBB89_4+0x554>
    3a40:	00c68633          	add	a2,a3,a2
    3a44:	00001537          	lui	a0,0x1
    3a48:	40a40533          	sub	a0,s0,a0
    3a4c:	75d53823          	sd	t4,1872(a0) # 1750 <.LBB89_4+0x554>
    3a50:	41d6063b          	subw	a2,a2,t4
    3a54:	419586bb          	subw	a3,a1,s9
    3a58:	40d6063b          	subw	a2,a2,a3
    3a5c:	400006b7          	lui	a3,0x40000
    3a60:	00001537          	lui	a0,0x1
    3a64:	40a40533          	sub	a0,s0,a0
    3a68:	ecc53423          	sd	a2,-312(a0) # ec8 <.LBB89_3+0xc48>
    3a6c:	83043f03          	ld	t5,-2000(s0)
    3a70:	00065463          	bgez	a2,3a78 <.LBB89_58>
    3a74:	c00006b7          	lui	a3,0xc0000

0000000000003a78 <.LBB89_58>:
    3a78:	00001537          	lui	a0,0x1
    3a7c:	40a40533          	sub	a0,s0,a0
    3a80:	ecd53023          	sd	a3,-320(a0) # ec0 <.LBB89_3+0xc40>
    3a84:	00001537          	lui	a0,0x1
    3a88:	40a40533          	sub	a0,s0,a0
    3a8c:	62853683          	ld	a3,1576(a0) # 1628 <.LBB89_4+0x42c>
    3a90:	00269693          	slli	a3,a3,0x2
    3a94:	f6043603          	ld	a2,-160(s0)
    3a98:	00c30633          	add	a2,t1,a2
    3a9c:	00001537          	lui	a0,0x1
    3aa0:	40a40533          	sub	a0,s0,a0
    3aa4:	74d53c23          	sd	a3,1880(a0) # 1758 <.LBB89_4+0x55c>
    3aa8:	40d6063b          	subw	a2,a2,a3
    3aac:	419586bb          	subw	a3,a1,s9
    3ab0:	40d6063b          	subw	a2,a2,a3
    3ab4:	400006b7          	lui	a3,0x40000
    3ab8:	00001537          	lui	a0,0x1
    3abc:	40a40533          	sub	a0,s0,a0
    3ac0:	ecc53c23          	sd	a2,-296(a0) # ed8 <.LBB89_3+0xc58>
    3ac4:	88043e83          	ld	t4,-1920(s0)
    3ac8:	00065463          	bgez	a2,3ad0 <.LBB89_60>
    3acc:	c00006b7          	lui	a3,0xc0000

0000000000003ad0 <.LBB89_60>:
    3ad0:	00001537          	lui	a0,0x1
    3ad4:	40a40533          	sub	a0,s0,a0
    3ad8:	ecd53823          	sd	a3,-304(a0) # ed0 <.LBB89_3+0xc50>
    3adc:	00001537          	lui	a0,0x1
    3ae0:	40a40533          	sub	a0,s0,a0
    3ae4:	63053683          	ld	a3,1584(a0) # 1630 <.LBB89_4+0x434>
    3ae8:	00269693          	slli	a3,a3,0x2
    3aec:	f6843603          	ld	a2,-152(s0)
    3af0:	00001537          	lui	a0,0x1
    3af4:	40a40533          	sub	a0,s0,a0
    3af8:	76053303          	ld	t1,1888(a0) # 1760 <.LBB89_4+0x564>
    3afc:	00c30633          	add	a2,t1,a2
    3b00:	00001537          	lui	a0,0x1
    3b04:	40a40533          	sub	a0,s0,a0
    3b08:	76d53023          	sd	a3,1888(a0) # 1760 <.LBB89_4+0x564>
    3b0c:	40d6063b          	subw	a2,a2,a3
    3b10:	419586bb          	subw	a3,a1,s9
    3b14:	40d6063b          	subw	a2,a2,a3
    3b18:	400006b7          	lui	a3,0x40000
    3b1c:	00001537          	lui	a0,0x1
    3b20:	40a40533          	sub	a0,s0,a0
    3b24:	eec53423          	sd	a2,-280(a0) # ee8 <.LBB89_3+0xc68>
    3b28:	00065463          	bgez	a2,3b30 <.LBB89_62>
    3b2c:	c00006b7          	lui	a3,0xc0000

0000000000003b30 <.LBB89_62>:
    3b30:	00001537          	lui	a0,0x1
    3b34:	40a40533          	sub	a0,s0,a0
    3b38:	eed53023          	sd	a3,-288(a0) # ee0 <.LBB89_3+0xc60>
    3b3c:	00001537          	lui	a0,0x1
    3b40:	40a40533          	sub	a0,s0,a0
    3b44:	63853683          	ld	a3,1592(a0) # 1638 <.LBB89_4+0x43c>
    3b48:	00269693          	slli	a3,a3,0x2
    3b4c:	f7043603          	ld	a2,-144(s0)
    3b50:	00c28633          	add	a2,t0,a2
    3b54:	00001537          	lui	a0,0x1
    3b58:	40a40533          	sub	a0,s0,a0
    3b5c:	76d53423          	sd	a3,1896(a0) # 1768 <.LBB89_4+0x56c>
    3b60:	40d6063b          	subw	a2,a2,a3
    3b64:	419586bb          	subw	a3,a1,s9
    3b68:	40d6063b          	subw	a2,a2,a3
    3b6c:	400006b7          	lui	a3,0x40000
    3b70:	00001537          	lui	a0,0x1
    3b74:	40a40533          	sub	a0,s0,a0
    3b78:	eec53c23          	sd	a2,-264(a0) # ef8 <.LBB89_3+0xc78>
    3b7c:	00065463          	bgez	a2,3b84 <.LBB89_64>
    3b80:	c00006b7          	lui	a3,0xc0000

0000000000003b84 <.LBB89_64>:
    3b84:	00001537          	lui	a0,0x1
    3b88:	40a40533          	sub	a0,s0,a0
    3b8c:	eed53823          	sd	a3,-272(a0) # ef0 <.LBB89_3+0xc70>
    3b90:	00001537          	lui	a0,0x1
    3b94:	40a40533          	sub	a0,s0,a0
    3b98:	64053683          	ld	a3,1600(a0) # 1640 <.LBB89_4+0x444>
    3b9c:	00269693          	slli	a3,a3,0x2
    3ba0:	f7843603          	ld	a2,-136(s0)
    3ba4:	00001537          	lui	a0,0x1
    3ba8:	40a40533          	sub	a0,s0,a0
    3bac:	77053283          	ld	t0,1904(a0) # 1770 <.LBB89_4+0x574>
    3bb0:	00c28633          	add	a2,t0,a2
    3bb4:	00001537          	lui	a0,0x1
    3bb8:	40a40533          	sub	a0,s0,a0
    3bbc:	76d53823          	sd	a3,1904(a0) # 1770 <.LBB89_4+0x574>
    3bc0:	40d6063b          	subw	a2,a2,a3
    3bc4:	419586bb          	subw	a3,a1,s9
    3bc8:	40d6063b          	subw	a2,a2,a3
    3bcc:	400006b7          	lui	a3,0x40000
    3bd0:	00001537          	lui	a0,0x1
    3bd4:	40a40533          	sub	a0,s0,a0
    3bd8:	f0c53423          	sd	a2,-248(a0) # f08 <.LBB89_3+0xc88>
    3bdc:	00065463          	bgez	a2,3be4 <.LBB89_66>
    3be0:	c00006b7          	lui	a3,0xc0000

0000000000003be4 <.LBB89_66>:
    3be4:	00001537          	lui	a0,0x1
    3be8:	40a40533          	sub	a0,s0,a0
    3bec:	f0d53023          	sd	a3,-256(a0) # f00 <.LBB89_3+0xc80>
    3bf0:	00001537          	lui	a0,0x1
    3bf4:	40a40533          	sub	a0,s0,a0
    3bf8:	64853683          	ld	a3,1608(a0) # 1648 <.LBB89_4+0x44c>
    3bfc:	00269693          	slli	a3,a3,0x2
    3c00:	f8043603          	ld	a2,-128(s0)
    3c04:	00c80633          	add	a2,a6,a2
    3c08:	00001537          	lui	a0,0x1
    3c0c:	40a40533          	sub	a0,s0,a0
    3c10:	76d53c23          	sd	a3,1912(a0) # 1778 <.LBB89_4+0x57c>
    3c14:	40d6063b          	subw	a2,a2,a3
    3c18:	419586bb          	subw	a3,a1,s9
    3c1c:	40d6063b          	subw	a2,a2,a3
    3c20:	400006b7          	lui	a3,0x40000
    3c24:	00001537          	lui	a0,0x1
    3c28:	40a40533          	sub	a0,s0,a0
    3c2c:	f0c53c23          	sd	a2,-232(a0) # f18 <.LBB89_3+0xc98>
    3c30:	00065463          	bgez	a2,3c38 <.LBB89_68>
    3c34:	c00006b7          	lui	a3,0xc0000

0000000000003c38 <.LBB89_68>:
    3c38:	00001537          	lui	a0,0x1
    3c3c:	40a40533          	sub	a0,s0,a0
    3c40:	f0d53823          	sd	a3,-240(a0) # f10 <.LBB89_3+0xc90>
    3c44:	00001537          	lui	a0,0x1
    3c48:	40a40533          	sub	a0,s0,a0
    3c4c:	67053683          	ld	a3,1648(a0) # 1670 <.LBB89_4+0x474>
    3c50:	00269693          	slli	a3,a3,0x2
    3c54:	f8843603          	ld	a2,-120(s0)
    3c58:	00001537          	lui	a0,0x1
    3c5c:	40a40533          	sub	a0,s0,a0
    3c60:	78053803          	ld	a6,1920(a0) # 1780 <.LBB89_4+0x584>
    3c64:	00c80633          	add	a2,a6,a2
    3c68:	00001537          	lui	a0,0x1
    3c6c:	40a40533          	sub	a0,s0,a0
    3c70:	78d53023          	sd	a3,1920(a0) # 1780 <.LBB89_4+0x584>
    3c74:	40d6063b          	subw	a2,a2,a3
    3c78:	419585bb          	subw	a1,a1,s9
    3c7c:	40b6063b          	subw	a2,a2,a1
    3c80:	400005b7          	lui	a1,0x40000
    3c84:	00001537          	lui	a0,0x1
    3c88:	40a40533          	sub	a0,s0,a0
    3c8c:	f2c53823          	sd	a2,-208(a0) # f30 <.LBB89_3+0xcb0>
    3c90:	00065463          	bgez	a2,3c98 <.LBB89_70>
    3c94:	c00005b7          	lui	a1,0xc0000

0000000000003c98 <.LBB89_70>:
    3c98:	00001537          	lui	a0,0x1
    3c9c:	40a40533          	sub	a0,s0,a0
    3ca0:	f2b53023          	sd	a1,-224(a0) # f20 <.LBB89_3+0xca0>
    3ca4:	00389593          	slli	a1,a7,0x3
    3ca8:	ea043603          	ld	a2,-352(s0)
    3cac:	00001537          	lui	a0,0x1
    3cb0:	40a40533          	sub	a0,s0,a0
    3cb4:	78853683          	ld	a3,1928(a0) # 1788 <.LBB89_4+0x58c>
    3cb8:	00c68633          	add	a2,a3,a2
    3cbc:	411585bb          	subw	a1,a1,a7
    3cc0:	e9843683          	ld	a3,-360(s0)
    3cc4:	40d6063b          	subw	a2,a2,a3
    3cc8:	419586bb          	subw	a3,a1,s9
    3ccc:	40d6063b          	subw	a2,a2,a3
    3cd0:	400006b7          	lui	a3,0x40000
    3cd4:	00001537          	lui	a0,0x1
    3cd8:	40a40533          	sub	a0,s0,a0
    3cdc:	f2c53c23          	sd	a2,-200(a0) # f38 <.LBB89_3+0xcb8>
    3ce0:	00065463          	bgez	a2,3ce8 <.LBB89_72>
    3ce4:	c00006b7          	lui	a3,0xc0000

0000000000003ce8 <.LBB89_72>:
    3ce8:	00001537          	lui	a0,0x1
    3cec:	40a40533          	sub	a0,s0,a0
    3cf0:	f2d53423          	sd	a3,-216(a0) # f28 <.LBB89_3+0xca8>
    3cf4:	e9043603          	ld	a2,-368(s0)
    3cf8:	00001537          	lui	a0,0x1
    3cfc:	40a40533          	sub	a0,s0,a0
    3d00:	79053683          	ld	a3,1936(a0) # 1790 <.LBB89_4+0x594>
    3d04:	00c68633          	add	a2,a3,a2
    3d08:	e8843683          	ld	a3,-376(s0)
    3d0c:	40d6063b          	subw	a2,a2,a3
    3d10:	419586bb          	subw	a3,a1,s9
    3d14:	40d6063b          	subw	a2,a2,a3
    3d18:	400006b7          	lui	a3,0x40000
    3d1c:	00001537          	lui	a0,0x1
    3d20:	40a40533          	sub	a0,s0,a0
    3d24:	f4c53423          	sd	a2,-184(a0) # f48 <.LBB89_3+0xcc8>
    3d28:	83843883          	ld	a7,-1992(s0)
    3d2c:	00065463          	bgez	a2,3d34 <.LBB89_74>
    3d30:	c00006b7          	lui	a3,0xc0000

0000000000003d34 <.LBB89_74>:
    3d34:	00001537          	lui	a0,0x1
    3d38:	40a40533          	sub	a0,s0,a0
    3d3c:	f4d53023          	sd	a3,-192(a0) # f40 <.LBB89_3+0xcc0>
    3d40:	e8043603          	ld	a2,-384(s0)
    3d44:	00001537          	lui	a0,0x1
    3d48:	40a40533          	sub	a0,s0,a0
    3d4c:	79853683          	ld	a3,1944(a0) # 1798 <.LBB89_4+0x59c>
    3d50:	00c68633          	add	a2,a3,a2
    3d54:	e7843683          	ld	a3,-392(s0)
    3d58:	40d6063b          	subw	a2,a2,a3
    3d5c:	419586bb          	subw	a3,a1,s9
    3d60:	40d6063b          	subw	a2,a2,a3
    3d64:	400006b7          	lui	a3,0x40000
    3d68:	00001537          	lui	a0,0x1
    3d6c:	40a40533          	sub	a0,s0,a0
    3d70:	f4c53c23          	sd	a2,-168(a0) # f58 <.LBB89_3+0xcd8>
    3d74:	00065463          	bgez	a2,3d7c <.LBB89_76>
    3d78:	c00006b7          	lui	a3,0xc0000

0000000000003d7c <.LBB89_76>:
    3d7c:	00001537          	lui	a0,0x1
    3d80:	40a40533          	sub	a0,s0,a0
    3d84:	f4d53823          	sd	a3,-176(a0) # f50 <.LBB89_3+0xcd0>
    3d88:	e7043603          	ld	a2,-400(s0)
    3d8c:	00001537          	lui	a0,0x1
    3d90:	40a40533          	sub	a0,s0,a0
    3d94:	7a053683          	ld	a3,1952(a0) # 17a0 <.LBB89_4+0x5a4>
    3d98:	00c68633          	add	a2,a3,a2
    3d9c:	e6843683          	ld	a3,-408(s0)
    3da0:	40d6063b          	subw	a2,a2,a3
    3da4:	419586bb          	subw	a3,a1,s9
    3da8:	40d6063b          	subw	a2,a2,a3
    3dac:	400006b7          	lui	a3,0x40000
    3db0:	00001537          	lui	a0,0x1
    3db4:	40a40533          	sub	a0,s0,a0
    3db8:	f6c53423          	sd	a2,-152(a0) # f68 <.LBB89_3+0xce8>
    3dbc:	00065463          	bgez	a2,3dc4 <.LBB89_78>
    3dc0:	c00006b7          	lui	a3,0xc0000

0000000000003dc4 <.LBB89_78>:
    3dc4:	00001537          	lui	a0,0x1
    3dc8:	40a40533          	sub	a0,s0,a0
    3dcc:	f6d53023          	sd	a3,-160(a0) # f60 <.LBB89_3+0xce0>
    3dd0:	e6043603          	ld	a2,-416(s0)
    3dd4:	00001537          	lui	a0,0x1
    3dd8:	40a40533          	sub	a0,s0,a0
    3ddc:	7a853683          	ld	a3,1960(a0) # 17a8 <.LBB89_5>
    3de0:	00c68633          	add	a2,a3,a2
    3de4:	e5843683          	ld	a3,-424(s0)
    3de8:	40d6063b          	subw	a2,a2,a3
    3dec:	419586bb          	subw	a3,a1,s9
    3df0:	40d6063b          	subw	a2,a2,a3
    3df4:	400006b7          	lui	a3,0x40000
    3df8:	00001537          	lui	a0,0x1
    3dfc:	40a40533          	sub	a0,s0,a0
    3e00:	f6c53c23          	sd	a2,-136(a0) # f78 <.LBB89_3+0xcf8>
    3e04:	00065463          	bgez	a2,3e0c <.LBB89_80>
    3e08:	c00006b7          	lui	a3,0xc0000

0000000000003e0c <.LBB89_80>:
    3e0c:	00001537          	lui	a0,0x1
    3e10:	40a40533          	sub	a0,s0,a0
    3e14:	f6d53823          	sd	a3,-144(a0) # f70 <.LBB89_3+0xcf0>
    3e18:	e5043603          	ld	a2,-432(s0)
    3e1c:	00001537          	lui	a0,0x1
    3e20:	40a40533          	sub	a0,s0,a0
    3e24:	7b053683          	ld	a3,1968(a0) # 17b0 <.LBB89_5+0x8>
    3e28:	00c68633          	add	a2,a3,a2
    3e2c:	00001537          	lui	a0,0x1
    3e30:	40a40533          	sub	a0,s0,a0
    3e34:	6b853683          	ld	a3,1720(a0) # 16b8 <.LBB89_4+0x4bc>
    3e38:	40d6063b          	subw	a2,a2,a3
    3e3c:	419586bb          	subw	a3,a1,s9
    3e40:	40d6063b          	subw	a2,a2,a3
    3e44:	400006b7          	lui	a3,0x40000
    3e48:	00001537          	lui	a0,0x1
    3e4c:	40a40533          	sub	a0,s0,a0
    3e50:	f8c53823          	sd	a2,-112(a0) # f90 <.LBB89_3+0xd10>
    3e54:	00065463          	bgez	a2,3e5c <.LBB89_82>
    3e58:	c00006b7          	lui	a3,0xc0000

0000000000003e5c <.LBB89_82>:
    3e5c:	00001537          	lui	a0,0x1
    3e60:	40a40533          	sub	a0,s0,a0
    3e64:	f8d53023          	sd	a3,-128(a0) # f80 <.LBB89_3+0xd00>
    3e68:	00001537          	lui	a0,0x1
    3e6c:	40a40533          	sub	a0,s0,a0
    3e70:	6b053603          	ld	a2,1712(a0) # 16b0 <.LBB89_4+0x4b4>
    3e74:	00001537          	lui	a0,0x1
    3e78:	40a40533          	sub	a0,s0,a0
    3e7c:	7b853683          	ld	a3,1976(a0) # 17b8 <.LBB89_5+0x10>
    3e80:	00c68633          	add	a2,a3,a2
    3e84:	00001537          	lui	a0,0x1
    3e88:	40a40533          	sub	a0,s0,a0
    3e8c:	6c853683          	ld	a3,1736(a0) # 16c8 <.LBB89_4+0x4cc>
    3e90:	40d6063b          	subw	a2,a2,a3
    3e94:	419586bb          	subw	a3,a1,s9
    3e98:	40d6063b          	subw	a2,a2,a3
    3e9c:	400006b7          	lui	a3,0x40000
    3ea0:	00001537          	lui	a0,0x1
    3ea4:	40a40533          	sub	a0,s0,a0
    3ea8:	fcc53423          	sd	a2,-56(a0) # fc8 <.LBB89_3+0xd48>
    3eac:	00065463          	bgez	a2,3eb4 <.LBB89_84>
    3eb0:	c00006b7          	lui	a3,0xc0000

0000000000003eb4 <.LBB89_84>:
    3eb4:	00001537          	lui	a0,0x1
    3eb8:	40a40533          	sub	a0,s0,a0
    3ebc:	fad53423          	sd	a3,-88(a0) # fa8 <.LBB89_3+0xd28>
    3ec0:	00001537          	lui	a0,0x1
    3ec4:	40a40533          	sub	a0,s0,a0
    3ec8:	6a853603          	ld	a2,1704(a0) # 16a8 <.LBB89_4+0x4ac>
    3ecc:	00001537          	lui	a0,0x1
    3ed0:	40a40533          	sub	a0,s0,a0
    3ed4:	7c053683          	ld	a3,1984(a0) # 17c0 <.LBB89_5+0x18>
    3ed8:	00c68633          	add	a2,a3,a2
    3edc:	00001537          	lui	a0,0x1
    3ee0:	40a40533          	sub	a0,s0,a0
    3ee4:	6c053683          	ld	a3,1728(a0) # 16c0 <.LBB89_4+0x4c4>
    3ee8:	40d6063b          	subw	a2,a2,a3
    3eec:	419586bb          	subw	a3,a1,s9
    3ef0:	40d6063b          	subw	a2,a2,a3
    3ef4:	400006b7          	lui	a3,0x40000
    3ef8:	00001537          	lui	a0,0x1
    3efc:	40a40533          	sub	a0,s0,a0
    3f00:	00c53823          	sd	a2,16(a0) # 1010 <.LBB89_3+0xd90>
    3f04:	00065463          	bgez	a2,3f0c <.LBB89_86>
    3f08:	c00006b7          	lui	a3,0xc0000

0000000000003f0c <.LBB89_86>:
    3f0c:	00001537          	lui	a0,0x1
    3f10:	40a40533          	sub	a0,s0,a0
    3f14:	fed53423          	sd	a3,-24(a0) # fe8 <.LBB89_3+0xd68>
    3f18:	00001537          	lui	a0,0x1
    3f1c:	40a40533          	sub	a0,s0,a0
    3f20:	6a053603          	ld	a2,1696(a0) # 16a0 <.LBB89_4+0x4a4>
    3f24:	00001537          	lui	a0,0x1
    3f28:	40a40533          	sub	a0,s0,a0
    3f2c:	7c853683          	ld	a3,1992(a0) # 17c8 <.LBB89_5+0x20>
    3f30:	00c68633          	add	a2,a3,a2
    3f34:	00001537          	lui	a0,0x1
    3f38:	40a40533          	sub	a0,s0,a0
    3f3c:	69853683          	ld	a3,1688(a0) # 1698 <.LBB89_4+0x49c>
    3f40:	40d6063b          	subw	a2,a2,a3
    3f44:	419586bb          	subw	a3,a1,s9
    3f48:	40d6063b          	subw	a2,a2,a3
    3f4c:	400006b7          	lui	a3,0x40000
    3f50:	00001537          	lui	a0,0x1
    3f54:	40a40533          	sub	a0,s0,a0
    3f58:	04c53023          	sd	a2,64(a0) # 1040 <.LBB89_3+0xdc0>
    3f5c:	00065463          	bgez	a2,3f64 <.LBB89_88>
    3f60:	c00006b7          	lui	a3,0xc0000

0000000000003f64 <.LBB89_88>:
    3f64:	00001537          	lui	a0,0x1
    3f68:	40a40533          	sub	a0,s0,a0
    3f6c:	02d53823          	sd	a3,48(a0) # 1030 <.LBB89_3+0xdb0>
    3f70:	00001537          	lui	a0,0x1
    3f74:	40a40533          	sub	a0,s0,a0
    3f78:	69053603          	ld	a2,1680(a0) # 1690 <.LBB89_4+0x494>
    3f7c:	00001537          	lui	a0,0x1
    3f80:	40a40533          	sub	a0,s0,a0
    3f84:	7d053683          	ld	a3,2000(a0) # 17d0 <.LBB89_5+0x28>
    3f88:	00c68633          	add	a2,a3,a2
    3f8c:	00001537          	lui	a0,0x1
    3f90:	40a40533          	sub	a0,s0,a0
    3f94:	6d053683          	ld	a3,1744(a0) # 16d0 <.LBB89_4+0x4d4>
    3f98:	40d6063b          	subw	a2,a2,a3
    3f9c:	419586bb          	subw	a3,a1,s9
    3fa0:	40d6063b          	subw	a2,a2,a3
    3fa4:	400006b7          	lui	a3,0x40000
    3fa8:	00001537          	lui	a0,0x1
    3fac:	40a40533          	sub	a0,s0,a0
    3fb0:	04c53c23          	sd	a2,88(a0) # 1058 <.LBB89_3+0xdd8>
    3fb4:	00065463          	bgez	a2,3fbc <.LBB89_90>
    3fb8:	c00006b7          	lui	a3,0xc0000

0000000000003fbc <.LBB89_90>:
    3fbc:	00001537          	lui	a0,0x1
    3fc0:	40a40533          	sub	a0,s0,a0
    3fc4:	04d53823          	sd	a3,80(a0) # 1050 <.LBB89_3+0xdd0>
    3fc8:	ea843603          	ld	a2,-344(s0)
    3fcc:	00001537          	lui	a0,0x1
    3fd0:	40a40533          	sub	a0,s0,a0
    3fd4:	7d853683          	ld	a3,2008(a0) # 17d8 <.LBB89_5+0x30>
    3fd8:	00c68633          	add	a2,a3,a2
    3fdc:	00001537          	lui	a0,0x1
    3fe0:	40a40533          	sub	a0,s0,a0
    3fe4:	6d853683          	ld	a3,1752(a0) # 16d8 <.LBB89_4+0x4dc>
    3fe8:	40d6063b          	subw	a2,a2,a3
    3fec:	419586bb          	subw	a3,a1,s9
    3ff0:	40d6063b          	subw	a2,a2,a3
    3ff4:	400006b7          	lui	a3,0x40000
    3ff8:	00001537          	lui	a0,0x1
    3ffc:	40a40533          	sub	a0,s0,a0
    4000:	06c53423          	sd	a2,104(a0) # 1068 <.LBB89_3+0xde8>
    4004:	00065463          	bgez	a2,400c <.LBB89_92>
    4008:	c00006b7          	lui	a3,0xc0000

000000000000400c <.LBB89_92>:
    400c:	00001537          	lui	a0,0x1
    4010:	40a40533          	sub	a0,s0,a0
    4014:	06d53023          	sd	a3,96(a0) # 1060 <.LBB89_3+0xde0>
    4018:	eb043603          	ld	a2,-336(s0)
    401c:	00001537          	lui	a0,0x1
    4020:	40a40533          	sub	a0,s0,a0
    4024:	7e053683          	ld	a3,2016(a0) # 17e0 <.LBB89_5+0x38>
    4028:	00c68633          	add	a2,a3,a2
    402c:	00001537          	lui	a0,0x1
    4030:	40a40533          	sub	a0,s0,a0
    4034:	6e053683          	ld	a3,1760(a0) # 16e0 <.LBB89_4+0x4e4>
    4038:	40d6063b          	subw	a2,a2,a3
    403c:	419586bb          	subw	a3,a1,s9
    4040:	40d6063b          	subw	a2,a2,a3
    4044:	400006b7          	lui	a3,0x40000
    4048:	00001537          	lui	a0,0x1
    404c:	40a40533          	sub	a0,s0,a0
    4050:	06c53c23          	sd	a2,120(a0) # 1078 <.LBB89_3+0xdf8>
    4054:	00065463          	bgez	a2,405c <.LBB89_94>
    4058:	c00006b7          	lui	a3,0xc0000

000000000000405c <.LBB89_94>:
    405c:	00001537          	lui	a0,0x1
    4060:	40a40533          	sub	a0,s0,a0
    4064:	06d53823          	sd	a3,112(a0) # 1070 <.LBB89_3+0xdf0>
    4068:	eb843603          	ld	a2,-328(s0)
    406c:	00001537          	lui	a0,0x1
    4070:	40a40533          	sub	a0,s0,a0
    4074:	7e853683          	ld	a3,2024(a0) # 17e8 <.LBB89_5+0x40>
    4078:	00c68633          	add	a2,a3,a2
    407c:	00001537          	lui	a0,0x1
    4080:	40a40533          	sub	a0,s0,a0
    4084:	6e853683          	ld	a3,1768(a0) # 16e8 <.LBB89_4+0x4ec>
    4088:	40d6063b          	subw	a2,a2,a3
    408c:	419586bb          	subw	a3,a1,s9
    4090:	40d6063b          	subw	a2,a2,a3
    4094:	400006b7          	lui	a3,0x40000
    4098:	00001537          	lui	a0,0x1
    409c:	40a40533          	sub	a0,s0,a0
    40a0:	08c53423          	sd	a2,136(a0) # 1088 <.LBB89_3+0xe08>
    40a4:	00065463          	bgez	a2,40ac <.LBB89_96>
    40a8:	c00006b7          	lui	a3,0xc0000

00000000000040ac <.LBB89_96>:
    40ac:	00001537          	lui	a0,0x1
    40b0:	40a40533          	sub	a0,s0,a0
    40b4:	dcd53023          	sd	a3,-576(a0) # dc0 <.LBB89_3+0xb40>
    40b8:	ec043603          	ld	a2,-320(s0)
    40bc:	00001537          	lui	a0,0x1
    40c0:	40a40533          	sub	a0,s0,a0
    40c4:	7f053683          	ld	a3,2032(a0) # 17f0 <.LBB89_5+0x48>
    40c8:	00c68633          	add	a2,a3,a2
    40cc:	00001537          	lui	a0,0x1
    40d0:	40a40533          	sub	a0,s0,a0
    40d4:	6f053683          	ld	a3,1776(a0) # 16f0 <.LBB89_4+0x4f4>
    40d8:	40d6063b          	subw	a2,a2,a3
    40dc:	419586bb          	subw	a3,a1,s9
    40e0:	40d6063b          	subw	a2,a2,a3
    40e4:	400006b7          	lui	a3,0x40000
    40e8:	00001537          	lui	a0,0x1
    40ec:	40a40533          	sub	a0,s0,a0
    40f0:	08c53c23          	sd	a2,152(a0) # 1098 <.LBB89_3+0xe18>
    40f4:	00065463          	bgez	a2,40fc <.LBB89_98>
    40f8:	c00006b7          	lui	a3,0xc0000

00000000000040fc <.LBB89_98>:
    40fc:	00001537          	lui	a0,0x1
    4100:	40a40533          	sub	a0,s0,a0
    4104:	dad53c23          	sd	a3,-584(a0) # db8 <.LBB89_3+0xb38>
    4108:	ec843603          	ld	a2,-312(s0)
    410c:	00cd8633          	add	a2,s11,a2
    4110:	00001537          	lui	a0,0x1
    4114:	40a40533          	sub	a0,s0,a0
    4118:	6f853683          	ld	a3,1784(a0) # 16f8 <.LBB89_4+0x4fc>
    411c:	40d6063b          	subw	a2,a2,a3
    4120:	419586bb          	subw	a3,a1,s9
    4124:	40d6063b          	subw	a2,a2,a3
    4128:	400006b7          	lui	a3,0x40000
    412c:	00001537          	lui	a0,0x1
    4130:	40a40533          	sub	a0,s0,a0
    4134:	0ac53423          	sd	a2,168(a0) # 10a8 <.LBB89_3+0xe28>
    4138:	00065463          	bgez	a2,4140 <.LBB89_100>
    413c:	c00006b7          	lui	a3,0xc0000

0000000000004140 <.LBB89_100>:
    4140:	00001537          	lui	a0,0x1
    4144:	40a40533          	sub	a0,s0,a0
    4148:	dad53823          	sd	a3,-592(a0) # db0 <.LBB89_3+0xb30>
    414c:	f0843603          	ld	a2,-248(s0)
    4150:	00cf8633          	add	a2,t6,a2
    4154:	41c6063b          	subw	a2,a2,t3
    4158:	419586bb          	subw	a3,a1,s9
    415c:	40d6063b          	subw	a2,a2,a3
    4160:	40000fb7          	lui	t6,0x40000
    4164:	00001537          	lui	a0,0x1
    4168:	40a40533          	sub	a0,s0,a0
    416c:	0ac53c23          	sd	a2,184(a0) # 10b8 <.LBB89_3+0xe38>
    4170:	00065463          	bgez	a2,4178 <.LBB89_102>
    4174:	c0000fb7          	lui	t6,0xc0000

0000000000004178 <.LBB89_102>:
    4178:	f1043603          	ld	a2,-240(s0)
    417c:	00c48633          	add	a2,s1,a2
    4180:	41a6063b          	subw	a2,a2,s10
    4184:	419586bb          	subw	a3,a1,s9
    4188:	40d6063b          	subw	a2,a2,a3
    418c:	400004b7          	lui	s1,0x40000
    4190:	00001537          	lui	a0,0x1
    4194:	40a40533          	sub	a0,s0,a0
    4198:	0cc53423          	sd	a2,200(a0) # 10c8 <.LBB89_3+0xe48>
    419c:	00065463          	bgez	a2,41a4 <.LBB89_104>
    41a0:	c00004b7          	lui	s1,0xc0000

00000000000041a4 <.LBB89_104>:
    41a4:	f1843603          	ld	a2,-232(s0)
    41a8:	00c90633          	add	a2,s2,a2
    41ac:	00001537          	lui	a0,0x1
    41b0:	40a40533          	sub	a0,s0,a0
    41b4:	71053683          	ld	a3,1808(a0) # 1710 <.LBB89_4+0x514>
    41b8:	40d6063b          	subw	a2,a2,a3
    41bc:	419586bb          	subw	a3,a1,s9
    41c0:	40d6063b          	subw	a2,a2,a3
    41c4:	40000937          	lui	s2,0x40000
    41c8:	00001537          	lui	a0,0x1
    41cc:	40a40533          	sub	a0,s0,a0
    41d0:	0cc53c23          	sd	a2,216(a0) # 10d8 <.LBB89_3+0xe58>
    41d4:	00065463          	bgez	a2,41dc <.LBB89_106>
    41d8:	c0000937          	lui	s2,0xc0000

00000000000041dc <.LBB89_106>:
    41dc:	f2043603          	ld	a2,-224(s0)
    41e0:	00c98633          	add	a2,s3,a2
    41e4:	00001537          	lui	a0,0x1
    41e8:	40a40533          	sub	a0,s0,a0
    41ec:	71853683          	ld	a3,1816(a0) # 1718 <.LBB89_4+0x51c>
    41f0:	40d6063b          	subw	a2,a2,a3
    41f4:	419586bb          	subw	a3,a1,s9
    41f8:	40d6063b          	subw	a2,a2,a3
    41fc:	400009b7          	lui	s3,0x40000
    4200:	80c43c23          	sd	a2,-2024(s0)
    4204:	00065463          	bgez	a2,420c <.LBB89_108>
    4208:	c00009b7          	lui	s3,0xc0000

000000000000420c <.LBB89_108>:
    420c:	f2843603          	ld	a2,-216(s0)
    4210:	00ca0633          	add	a2,s4,a2
    4214:	00001537          	lui	a0,0x1
    4218:	40a40533          	sub	a0,s0,a0
    421c:	72053683          	ld	a3,1824(a0) # 1720 <.LBB89_4+0x524>
    4220:	40d6063b          	subw	a2,a2,a3
    4224:	419586bb          	subw	a3,a1,s9
    4228:	40d6063b          	subw	a2,a2,a3
    422c:	40000a37          	lui	s4,0x40000
    4230:	00001537          	lui	a0,0x1
    4234:	40a40533          	sub	a0,s0,a0
    4238:	7cc53823          	sd	a2,2000(a0) # 17d0 <.LBB89_5+0x28>
    423c:	00065463          	bgez	a2,4244 <.LBB89_110>
    4240:	c0000a37          	lui	s4,0xc0000

0000000000004244 <.LBB89_110>:
    4244:	f3043603          	ld	a2,-208(s0)
    4248:	00cb0633          	add	a2,s6,a2
    424c:	00001537          	lui	a0,0x1
    4250:	40a40533          	sub	a0,s0,a0
    4254:	72853683          	ld	a3,1832(a0) # 1728 <.LBB89_4+0x52c>
    4258:	40d6063b          	subw	a2,a2,a3
    425c:	419586bb          	subw	a3,a1,s9
    4260:	40d6063b          	subw	a2,a2,a3
    4264:	40000b37          	lui	s6,0x40000
    4268:	00001537          	lui	a0,0x1
    426c:	40a40533          	sub	a0,s0,a0
    4270:	78c53823          	sd	a2,1936(a0) # 1790 <.LBB89_4+0x594>
    4274:	00065463          	bgez	a2,427c <.LBB89_112>
    4278:	c0000b37          	lui	s6,0xc0000

000000000000427c <.LBB89_112>:
    427c:	f3843603          	ld	a2,-200(s0)
    4280:	00cf0633          	add	a2,t5,a2
    4284:	00001537          	lui	a0,0x1
    4288:	40a40533          	sub	a0,s0,a0
    428c:	73053683          	ld	a3,1840(a0) # 1730 <.LBB89_4+0x534>
    4290:	40d6063b          	subw	a2,a2,a3
    4294:	419586bb          	subw	a3,a1,s9
    4298:	40d6063b          	subw	a2,a2,a3
    429c:	40000db7          	lui	s11,0x40000
    42a0:	00001537          	lui	a0,0x1
    42a4:	40a40533          	sub	a0,s0,a0
    42a8:	0ec53823          	sd	a2,240(a0) # 10f0 <.LBB89_3+0xe70>
    42ac:	00065463          	bgez	a2,42b4 <.LBB89_114>
    42b0:	c0000db7          	lui	s11,0xc0000

00000000000042b4 <.LBB89_114>:
    42b4:	f4043603          	ld	a2,-192(s0)
    42b8:	00c88633          	add	a2,a7,a2
    42bc:	00001537          	lui	a0,0x1
    42c0:	40a40533          	sub	a0,s0,a0
    42c4:	73853683          	ld	a3,1848(a0) # 1738 <.LBB89_4+0x53c>
    42c8:	40d6063b          	subw	a2,a2,a3
    42cc:	419586bb          	subw	a3,a1,s9
    42d0:	40d6063b          	subw	a2,a2,a3
    42d4:	400008b7          	lui	a7,0x40000
    42d8:	00001537          	lui	a0,0x1
    42dc:	40a40533          	sub	a0,s0,a0
    42e0:	0ec53c23          	sd	a2,248(a0) # 10f8 <.LBB89_3+0xe78>
    42e4:	00065463          	bgez	a2,42ec <.LBB89_116>
    42e8:	c00008b7          	lui	a7,0xc0000

00000000000042ec <.LBB89_116>:
    42ec:	f4843603          	ld	a2,-184(s0)
    42f0:	00c08633          	add	a2,ra,a2
    42f4:	00001537          	lui	a0,0x1
    42f8:	40a40533          	sub	a0,s0,a0
    42fc:	74053683          	ld	a3,1856(a0) # 1740 <.LBB89_4+0x544>
    4300:	40d6063b          	subw	a2,a2,a3
    4304:	419586bb          	subw	a3,a1,s9
    4308:	40d6063b          	subw	a2,a2,a3
    430c:	400000b7          	lui	ra,0x40000
    4310:	00001537          	lui	a0,0x1
    4314:	40a40533          	sub	a0,s0,a0
    4318:	10c53023          	sd	a2,256(a0) # 1100 <.LBB89_3+0xe80>
    431c:	00065463          	bgez	a2,4324 <.LBB89_118>
    4320:	c00000b7          	lui	ra,0xc0000

0000000000004324 <.LBB89_118>:
    4324:	f5043603          	ld	a2,-176(s0)
    4328:	00ca8633          	add	a2,s5,a2
    432c:	00001537          	lui	a0,0x1
    4330:	40a40533          	sub	a0,s0,a0
    4334:	74853683          	ld	a3,1864(a0) # 1748 <.LBB89_4+0x54c>
    4338:	40d6063b          	subw	a2,a2,a3
    433c:	419586bb          	subw	a3,a1,s9
    4340:	40d6063b          	subw	a2,a2,a3
    4344:	40000ab7          	lui	s5,0x40000
    4348:	00001537          	lui	a0,0x1
    434c:	40a40533          	sub	a0,s0,a0
    4350:	10c53423          	sd	a2,264(a0) # 1108 <.LBB89_3+0xe88>
    4354:	00065463          	bgez	a2,435c <.LBB89_120>
    4358:	c0000ab7          	lui	s5,0xc0000

000000000000435c <.LBB89_120>:
    435c:	f5843603          	ld	a2,-168(s0)
    4360:	00c70633          	add	a2,a4,a2
    4364:	00001537          	lui	a0,0x1
    4368:	40a40533          	sub	a0,s0,a0
    436c:	75053683          	ld	a3,1872(a0) # 1750 <.LBB89_4+0x554>
    4370:	40d6063b          	subw	a2,a2,a3
    4374:	419586bb          	subw	a3,a1,s9
    4378:	40d6063b          	subw	a2,a2,a3
    437c:	40000737          	lui	a4,0x40000
    4380:	00001537          	lui	a0,0x1
    4384:	40a40533          	sub	a0,s0,a0
    4388:	10c53823          	sd	a2,272(a0) # 1110 <.LBB89_3+0xe90>
    438c:	00065463          	bgez	a2,4394 <.LBB89_122>
    4390:	c0000737          	lui	a4,0xc0000

0000000000004394 <.LBB89_122>:
    4394:	f6043603          	ld	a2,-160(s0)
    4398:	00c38633          	add	a2,t2,a2
    439c:	00001537          	lui	a0,0x1
    43a0:	40a40533          	sub	a0,s0,a0
    43a4:	75853683          	ld	a3,1880(a0) # 1758 <.LBB89_4+0x55c>
    43a8:	40d6063b          	subw	a2,a2,a3
    43ac:	419586bb          	subw	a3,a1,s9
    43b0:	40d6063b          	subw	a2,a2,a3
    43b4:	400003b7          	lui	t2,0x40000
    43b8:	00001537          	lui	a0,0x1
    43bc:	40a40533          	sub	a0,s0,a0
    43c0:	10c53c23          	sd	a2,280(a0) # 1118 <.LBB89_3+0xe98>
    43c4:	00065463          	bgez	a2,43cc <.LBB89_124>
    43c8:	c00003b7          	lui	t2,0xc0000

00000000000043cc <.LBB89_124>:
    43cc:	f6843603          	ld	a2,-152(s0)
    43d0:	86043503          	ld	a0,-1952(s0)
    43d4:	00c50633          	add	a2,a0,a2
    43d8:	00001537          	lui	a0,0x1
    43dc:	40a40533          	sub	a0,s0,a0
    43e0:	76053683          	ld	a3,1888(a0) # 1760 <.LBB89_4+0x564>
    43e4:	40d6063b          	subw	a2,a2,a3
    43e8:	419586bb          	subw	a3,a1,s9
    43ec:	40d6063b          	subw	a2,a2,a3
    43f0:	40000337          	lui	t1,0x40000
    43f4:	00001537          	lui	a0,0x1
    43f8:	40a40533          	sub	a0,s0,a0
    43fc:	12c53023          	sd	a2,288(a0) # 1120 <.LBB89_3+0xea0>
    4400:	00065463          	bgez	a2,4408 <.LBB89_126>
    4404:	c0000337          	lui	t1,0xc0000

0000000000004408 <.LBB89_126>:
    4408:	f7043603          	ld	a2,-144(s0)
    440c:	86843503          	ld	a0,-1944(s0)
    4410:	00c50633          	add	a2,a0,a2
    4414:	00001537          	lui	a0,0x1
    4418:	40a40533          	sub	a0,s0,a0
    441c:	76853683          	ld	a3,1896(a0) # 1768 <.LBB89_4+0x56c>
    4420:	40d6063b          	subw	a2,a2,a3
    4424:	419586bb          	subw	a3,a1,s9
    4428:	40d6063b          	subw	a2,a2,a3
    442c:	400002b7          	lui	t0,0x40000
    4430:	00001537          	lui	a0,0x1
    4434:	40a40533          	sub	a0,s0,a0
    4438:	12c53423          	sd	a2,296(a0) # 1128 <.LBB89_3+0xea8>
    443c:	00065463          	bgez	a2,4444 <.LBB89_128>
    4440:	c00002b7          	lui	t0,0xc0000

0000000000004444 <.LBB89_128>:
    4444:	84f43c23          	sd	a5,-1960(s0)
    4448:	f7843603          	ld	a2,-136(s0)
    444c:	87043503          	ld	a0,-1936(s0)
    4450:	00c50633          	add	a2,a0,a2
    4454:	00001537          	lui	a0,0x1
    4458:	40a40533          	sub	a0,s0,a0
    445c:	77053683          	ld	a3,1904(a0) # 1770 <.LBB89_4+0x574>
    4460:	40d6063b          	subw	a2,a2,a3
    4464:	419586bb          	subw	a3,a1,s9
    4468:	40d6063b          	subw	a2,a2,a3
    446c:	40000837          	lui	a6,0x40000
    4470:	00001537          	lui	a0,0x1
    4474:	40a40533          	sub	a0,s0,a0
    4478:	12c53823          	sd	a2,304(a0) # 1130 <.LBB89_3+0xeb0>
    447c:	00065463          	bgez	a2,4484 <.LBB89_130>
    4480:	c0000837          	lui	a6,0xc0000

0000000000004484 <.LBB89_130>:
    4484:	f8043603          	ld	a2,-128(s0)
    4488:	87843683          	ld	a3,-1928(s0)
    448c:	00c68633          	add	a2,a3,a2
    4490:	00001537          	lui	a0,0x1
    4494:	40a40533          	sub	a0,s0,a0
    4498:	77853683          	ld	a3,1912(a0) # 1778 <.LBB89_4+0x57c>
    449c:	40d6063b          	subw	a2,a2,a3
    44a0:	419586bb          	subw	a3,a1,s9
    44a4:	40d6063b          	subw	a2,a2,a3
    44a8:	400007b7          	lui	a5,0x40000
    44ac:	00001537          	lui	a0,0x1
    44b0:	40a40533          	sub	a0,s0,a0
    44b4:	12c53c23          	sd	a2,312(a0) # 1138 <.LBB89_3+0xeb8>
    44b8:	00065463          	bgez	a2,44c0 <.LBB89_132>
    44bc:	c00007b7          	lui	a5,0xc0000

00000000000044c0 <.LBB89_132>:
    44c0:	f8843603          	ld	a2,-120(s0)
    44c4:	00ce8633          	add	a2,t4,a2
    44c8:	00001537          	lui	a0,0x1
    44cc:	40a40533          	sub	a0,s0,a0
    44d0:	78053683          	ld	a3,1920(a0) # 1780 <.LBB89_4+0x584>
    44d4:	40d6063b          	subw	a2,a2,a3
    44d8:	419585bb          	subw	a1,a1,s9
    44dc:	40b6063b          	subw	a2,a2,a1
    44e0:	400005b7          	lui	a1,0x40000
    44e4:	e4843f03          	ld	t5,-440(s0)
    44e8:	00001537          	lui	a0,0x1
    44ec:	40a40533          	sub	a0,s0,a0
    44f0:	14c53823          	sd	a2,336(a0) # 1150 <.LBB89_3+0xed0>
    44f4:	00065463          	bgez	a2,44fc <.LBB89_134>
    44f8:	c00005b7          	lui	a1,0xc0000

00000000000044fc <.LBB89_134>:
    44fc:	00001537          	lui	a0,0x1
    4500:	40a40533          	sub	a0,s0,a0
    4504:	14b53023          	sd	a1,320(a0) # 1140 <.LBB89_3+0xec0>
    4508:	00001537          	lui	a0,0x1
    450c:	40a40533          	sub	a0,s0,a0
    4510:	67853503          	ld	a0,1656(a0) # 1678 <.LBB89_4+0x47c>
    4514:	00351593          	slli	a1,a0,0x3
    4518:	ea043603          	ld	a2,-352(s0)
    451c:	88843683          	ld	a3,-1912(s0)
    4520:	00c68633          	add	a2,a3,a2
    4524:	40a5853b          	subw	a0,a1,a0
    4528:	e9843583          	ld	a1,-360(s0)
    452c:	40b605bb          	subw	a1,a2,a1
    4530:	4195063b          	subw	a2,a0,s9
    4534:	40c585bb          	subw	a1,a1,a2
    4538:	40000637          	lui	a2,0x40000
    453c:	000016b7          	lui	a3,0x1
    4540:	40d406b3          	sub	a3,s0,a3
    4544:	14b6bc23          	sd	a1,344(a3) # 1158 <.LBB89_3+0xed8>
    4548:	0005d463          	bgez	a1,4550 <.LBB89_136>
    454c:	c0000637          	lui	a2,0xc0000

0000000000004550 <.LBB89_136>:
    4550:	000015b7          	lui	a1,0x1
    4554:	40b405b3          	sub	a1,s0,a1
    4558:	14c5b423          	sd	a2,328(a1) # 1148 <.LBB89_3+0xec8>
    455c:	e9043583          	ld	a1,-368(s0)
    4560:	89043603          	ld	a2,-1904(s0)
    4564:	00b605b3          	add	a1,a2,a1
    4568:	e8843603          	ld	a2,-376(s0)
    456c:	40c585bb          	subw	a1,a1,a2
    4570:	4195063b          	subw	a2,a0,s9
    4574:	40c585bb          	subw	a1,a1,a2
    4578:	40000637          	lui	a2,0x40000
    457c:	000016b7          	lui	a3,0x1
    4580:	40d406b3          	sub	a3,s0,a3
    4584:	16b6b423          	sd	a1,360(a3) # 1168 <.LBB89_3+0xee8>
    4588:	000e0693          	mv	a3,t3
    458c:	0005d463          	bgez	a1,4594 <.LBB89_138>
    4590:	c0000637          	lui	a2,0xc0000

0000000000004594 <.LBB89_138>:
    4594:	000015b7          	lui	a1,0x1
    4598:	40b405b3          	sub	a1,s0,a1
    459c:	16c5b023          	sd	a2,352(a1) # 1160 <.LBB89_3+0xee0>
    45a0:	e8043583          	ld	a1,-384(s0)
    45a4:	89843603          	ld	a2,-1896(s0)
    45a8:	00b605b3          	add	a1,a2,a1
    45ac:	e7843603          	ld	a2,-392(s0)
    45b0:	40c585bb          	subw	a1,a1,a2
    45b4:	4195063b          	subw	a2,a0,s9
    45b8:	40c585bb          	subw	a1,a1,a2
    45bc:	40000637          	lui	a2,0x40000
    45c0:	00001e37          	lui	t3,0x1
    45c4:	41c40e33          	sub	t3,s0,t3
    45c8:	16be3c23          	sd	a1,376(t3) # 1178 <.LBB89_3+0xef8>
    45cc:	000d0e13          	mv	t3,s10
    45d0:	0005d463          	bgez	a1,45d8 <.LBB89_140>
    45d4:	c0000637          	lui	a2,0xc0000

00000000000045d8 <.LBB89_140>:
    45d8:	000015b7          	lui	a1,0x1
    45dc:	40b405b3          	sub	a1,s0,a1
    45e0:	16c5b823          	sd	a2,368(a1) # 1170 <.LBB89_3+0xef0>
    45e4:	e7043583          	ld	a1,-400(s0)
    45e8:	8a043603          	ld	a2,-1888(s0)
    45ec:	00b605b3          	add	a1,a2,a1
    45f0:	e6843603          	ld	a2,-408(s0)
    45f4:	40c585bb          	subw	a1,a1,a2
    45f8:	4195063b          	subw	a2,a0,s9
    45fc:	40c585bb          	subw	a1,a1,a2
    4600:	40000637          	lui	a2,0x40000
    4604:	00001eb7          	lui	t4,0x1
    4608:	41d40eb3          	sub	t4,s0,t4
    460c:	18beb423          	sd	a1,392(t4) # 1188 <.LBB89_3+0xf08>
    4610:	00001eb7          	lui	t4,0x1
    4614:	41d40eb3          	sub	t4,s0,t4
    4618:	710ebd03          	ld	s10,1808(t4) # 1710 <.LBB89_4+0x514>
    461c:	0005d463          	bgez	a1,4624 <.LBB89_142>
    4620:	c0000637          	lui	a2,0xc0000

0000000000004624 <.LBB89_142>:
    4624:	000015b7          	lui	a1,0x1
    4628:	40b405b3          	sub	a1,s0,a1
    462c:	18c5b023          	sd	a2,384(a1) # 1180 <.LBB89_3+0xf00>
    4630:	e6043583          	ld	a1,-416(s0)
    4634:	8a843603          	ld	a2,-1880(s0)
    4638:	00b605b3          	add	a1,a2,a1
    463c:	e5843603          	ld	a2,-424(s0)
    4640:	40c585bb          	subw	a1,a1,a2
    4644:	4195063b          	subw	a2,a0,s9
    4648:	40c585bb          	subw	a1,a1,a2
    464c:	40000637          	lui	a2,0x40000
    4650:	00001eb7          	lui	t4,0x1
    4654:	41d40eb3          	sub	t4,s0,t4
    4658:	18bebc23          	sd	a1,408(t4) # 1198 <.LBB89_3+0xf18>
    465c:	0005d463          	bgez	a1,4664 <.LBB89_144>
    4660:	c0000637          	lui	a2,0xc0000

0000000000004664 <.LBB89_144>:
    4664:	000015b7          	lui	a1,0x1
    4668:	40b405b3          	sub	a1,s0,a1
    466c:	18c5b823          	sd	a2,400(a1) # 1190 <.LBB89_3+0xf10>
    4670:	e5043583          	ld	a1,-432(s0)
    4674:	8b043603          	ld	a2,-1872(s0)
    4678:	00b605b3          	add	a1,a2,a1
    467c:	00001637          	lui	a2,0x1
    4680:	40c40633          	sub	a2,s0,a2
    4684:	6b863603          	ld	a2,1720(a2) # 16b8 <.LBB89_4+0x4bc>
    4688:	40c585bb          	subw	a1,a1,a2
    468c:	4195063b          	subw	a2,a0,s9
    4690:	40c585bb          	subw	a1,a1,a2
    4694:	40000637          	lui	a2,0x40000
    4698:	00001eb7          	lui	t4,0x1
    469c:	41d40eb3          	sub	t4,s0,t4
    46a0:	1abeb423          	sd	a1,424(t4) # 11a8 <.LBB89_3+0xf28>
    46a4:	0005d463          	bgez	a1,46ac <.LBB89_146>
    46a8:	c0000637          	lui	a2,0xc0000

00000000000046ac <.LBB89_146>:
    46ac:	000015b7          	lui	a1,0x1
    46b0:	40b405b3          	sub	a1,s0,a1
    46b4:	1ac5b023          	sd	a2,416(a1) # 11a0 <.LBB89_3+0xf20>
    46b8:	000015b7          	lui	a1,0x1
    46bc:	40b405b3          	sub	a1,s0,a1
    46c0:	6b05b583          	ld	a1,1712(a1) # 16b0 <.LBB89_4+0x4b4>
    46c4:	8b843603          	ld	a2,-1864(s0)
    46c8:	00b605b3          	add	a1,a2,a1
    46cc:	00001637          	lui	a2,0x1
    46d0:	40c40633          	sub	a2,s0,a2
    46d4:	6c863603          	ld	a2,1736(a2) # 16c8 <.LBB89_4+0x4cc>
    46d8:	40c585bb          	subw	a1,a1,a2
    46dc:	4195063b          	subw	a2,a0,s9
    46e0:	40c585bb          	subw	a1,a1,a2
    46e4:	40000637          	lui	a2,0x40000
    46e8:	00001eb7          	lui	t4,0x1
    46ec:	41d40eb3          	sub	t4,s0,t4
    46f0:	1abebc23          	sd	a1,440(t4) # 11b8 <.LBB89_3+0xf38>
    46f4:	0005d463          	bgez	a1,46fc <.LBB89_148>
    46f8:	c0000637          	lui	a2,0xc0000

00000000000046fc <.LBB89_148>:
    46fc:	000015b7          	lui	a1,0x1
    4700:	40b405b3          	sub	a1,s0,a1
    4704:	1ac5b823          	sd	a2,432(a1) # 11b0 <.LBB89_3+0xf30>
    4708:	000015b7          	lui	a1,0x1
    470c:	40b405b3          	sub	a1,s0,a1
    4710:	6a85b583          	ld	a1,1704(a1) # 16a8 <.LBB89_4+0x4ac>
    4714:	8c043603          	ld	a2,-1856(s0)
    4718:	00b605b3          	add	a1,a2,a1
    471c:	00001637          	lui	a2,0x1
    4720:	40c40633          	sub	a2,s0,a2
    4724:	6c063603          	ld	a2,1728(a2) # 16c0 <.LBB89_4+0x4c4>
    4728:	40c585bb          	subw	a1,a1,a2
    472c:	4195063b          	subw	a2,a0,s9
    4730:	40c585bb          	subw	a1,a1,a2
    4734:	40000637          	lui	a2,0x40000
    4738:	00001eb7          	lui	t4,0x1
    473c:	41d40eb3          	sub	t4,s0,t4
    4740:	1cbeb423          	sd	a1,456(t4) # 11c8 <.LBB89_3+0xf48>
    4744:	0005d463          	bgez	a1,474c <.LBB89_150>
    4748:	c0000637          	lui	a2,0xc0000

000000000000474c <.LBB89_150>:
    474c:	000015b7          	lui	a1,0x1
    4750:	40b405b3          	sub	a1,s0,a1
    4754:	1cc5b023          	sd	a2,448(a1) # 11c0 <.LBB89_3+0xf40>
    4758:	8c843583          	ld	a1,-1848(s0)
    475c:	00001637          	lui	a2,0x1
    4760:	40c40633          	sub	a2,s0,a2
    4764:	6a063603          	ld	a2,1696(a2) # 16a0 <.LBB89_4+0x4a4>
    4768:	00c585b3          	add	a1,a1,a2
    476c:	00001637          	lui	a2,0x1
    4770:	40c40633          	sub	a2,s0,a2
    4774:	69863603          	ld	a2,1688(a2) # 1698 <.LBB89_4+0x49c>
    4778:	40c585bb          	subw	a1,a1,a2
    477c:	4195063b          	subw	a2,a0,s9
    4780:	40c585bb          	subw	a1,a1,a2
    4784:	40000637          	lui	a2,0x40000
    4788:	00001eb7          	lui	t4,0x1
    478c:	41d40eb3          	sub	t4,s0,t4
    4790:	1cbebc23          	sd	a1,472(t4) # 11d8 <.LBB89_3+0xf58>
    4794:	0005d463          	bgez	a1,479c <.LBB89_152>
    4798:	c0000637          	lui	a2,0xc0000

000000000000479c <.LBB89_152>:
    479c:	000015b7          	lui	a1,0x1
    47a0:	40b405b3          	sub	a1,s0,a1
    47a4:	1cc5b823          	sd	a2,464(a1) # 11d0 <.LBB89_3+0xf50>
    47a8:	8d043583          	ld	a1,-1840(s0)
    47ac:	00001637          	lui	a2,0x1
    47b0:	40c40633          	sub	a2,s0,a2
    47b4:	69063603          	ld	a2,1680(a2) # 1690 <.LBB89_4+0x494>
    47b8:	00c585b3          	add	a1,a1,a2
    47bc:	00001637          	lui	a2,0x1
    47c0:	40c40633          	sub	a2,s0,a2
    47c4:	6d063603          	ld	a2,1744(a2) # 16d0 <.LBB89_4+0x4d4>
    47c8:	40c585bb          	subw	a1,a1,a2
    47cc:	4195063b          	subw	a2,a0,s9
    47d0:	40c585bb          	subw	a1,a1,a2
    47d4:	40000637          	lui	a2,0x40000
    47d8:	00001eb7          	lui	t4,0x1
    47dc:	41d40eb3          	sub	t4,s0,t4
    47e0:	1ebeb423          	sd	a1,488(t4) # 11e8 <.LBB89_3+0xf68>
    47e4:	0005d463          	bgez	a1,47ec <.LBB89_154>
    47e8:	c0000637          	lui	a2,0xc0000

00000000000047ec <.LBB89_154>:
    47ec:	000015b7          	lui	a1,0x1
    47f0:	40b405b3          	sub	a1,s0,a1
    47f4:	1ec5b023          	sd	a2,480(a1) # 11e0 <.LBB89_3+0xf60>
    47f8:	8d843583          	ld	a1,-1832(s0)
    47fc:	ea843603          	ld	a2,-344(s0)
    4800:	00c585b3          	add	a1,a1,a2
    4804:	00001637          	lui	a2,0x1
    4808:	40c40633          	sub	a2,s0,a2
    480c:	6d863603          	ld	a2,1752(a2) # 16d8 <.LBB89_4+0x4dc>
    4810:	40c585bb          	subw	a1,a1,a2
    4814:	4195063b          	subw	a2,a0,s9
    4818:	40c585bb          	subw	a1,a1,a2
    481c:	40000637          	lui	a2,0x40000
    4820:	00001eb7          	lui	t4,0x1
    4824:	41d40eb3          	sub	t4,s0,t4
    4828:	1ebebc23          	sd	a1,504(t4) # 11f8 <.LBB89_3+0xf78>
    482c:	0005d463          	bgez	a1,4834 <.LBB89_156>
    4830:	c0000637          	lui	a2,0xc0000

0000000000004834 <.LBB89_156>:
    4834:	000015b7          	lui	a1,0x1
    4838:	40b405b3          	sub	a1,s0,a1
    483c:	1ec5b823          	sd	a2,496(a1) # 11f0 <.LBB89_3+0xf70>
    4840:	8e043583          	ld	a1,-1824(s0)
    4844:	eb043603          	ld	a2,-336(s0)
    4848:	00c585b3          	add	a1,a1,a2
    484c:	00001637          	lui	a2,0x1
    4850:	40c40633          	sub	a2,s0,a2
    4854:	6e063603          	ld	a2,1760(a2) # 16e0 <.LBB89_4+0x4e4>
    4858:	40c585bb          	subw	a1,a1,a2
    485c:	4195063b          	subw	a2,a0,s9
    4860:	40c585bb          	subw	a1,a1,a2
    4864:	40000637          	lui	a2,0x40000
    4868:	00001eb7          	lui	t4,0x1
    486c:	41d40eb3          	sub	t4,s0,t4
    4870:	20beb423          	sd	a1,520(t4) # 1208 <.LBB89_4+0xc>
    4874:	0005d463          	bgez	a1,487c <.LBB89_158>
    4878:	c0000637          	lui	a2,0xc0000

000000000000487c <.LBB89_158>:
    487c:	000015b7          	lui	a1,0x1
    4880:	40b405b3          	sub	a1,s0,a1
    4884:	20c5b023          	sd	a2,512(a1) # 1200 <.LBB89_4+0x4>
    4888:	8e843583          	ld	a1,-1816(s0)
    488c:	eb843603          	ld	a2,-328(s0)
    4890:	00c585b3          	add	a1,a1,a2
    4894:	00001637          	lui	a2,0x1
    4898:	40c40633          	sub	a2,s0,a2
    489c:	6e863603          	ld	a2,1768(a2) # 16e8 <.LBB89_4+0x4ec>
    48a0:	40c585bb          	subw	a1,a1,a2
    48a4:	4195063b          	subw	a2,a0,s9
    48a8:	40c585bb          	subw	a1,a1,a2
    48ac:	40000637          	lui	a2,0x40000
    48b0:	00001eb7          	lui	t4,0x1
    48b4:	41d40eb3          	sub	t4,s0,t4
    48b8:	20bebc23          	sd	a1,536(t4) # 1218 <.LBB89_4+0x1c>
    48bc:	0005d463          	bgez	a1,48c4 <.LBB89_160>
    48c0:	c0000637          	lui	a2,0xc0000

00000000000048c4 <.LBB89_160>:
    48c4:	000015b7          	lui	a1,0x1
    48c8:	40b405b3          	sub	a1,s0,a1
    48cc:	20c5b823          	sd	a2,528(a1) # 1210 <.LBB89_4+0x14>
    48d0:	8f043583          	ld	a1,-1808(s0)
    48d4:	ec043603          	ld	a2,-320(s0)
    48d8:	00c585b3          	add	a1,a1,a2
    48dc:	00001637          	lui	a2,0x1
    48e0:	40c40633          	sub	a2,s0,a2
    48e4:	6f063603          	ld	a2,1776(a2) # 16f0 <.LBB89_4+0x4f4>
    48e8:	40c585bb          	subw	a1,a1,a2
    48ec:	4195063b          	subw	a2,a0,s9
    48f0:	40c585bb          	subw	a1,a1,a2
    48f4:	40000637          	lui	a2,0x40000
    48f8:	00001eb7          	lui	t4,0x1
    48fc:	41d40eb3          	sub	t4,s0,t4
    4900:	22beb423          	sd	a1,552(t4) # 1228 <.LBB89_4+0x2c>
    4904:	0005d463          	bgez	a1,490c <.LBB89_162>
    4908:	c0000637          	lui	a2,0xc0000

000000000000490c <.LBB89_162>:
    490c:	000015b7          	lui	a1,0x1
    4910:	40b405b3          	sub	a1,s0,a1
    4914:	22c5b023          	sd	a2,544(a1) # 1220 <.LBB89_4+0x24>
    4918:	8f843583          	ld	a1,-1800(s0)
    491c:	ec843603          	ld	a2,-312(s0)
    4920:	00c585b3          	add	a1,a1,a2
    4924:	00001637          	lui	a2,0x1
    4928:	40c40633          	sub	a2,s0,a2
    492c:	6f863603          	ld	a2,1784(a2) # 16f8 <.LBB89_4+0x4fc>
    4930:	40c585bb          	subw	a1,a1,a2
    4934:	4195063b          	subw	a2,a0,s9
    4938:	40c585bb          	subw	a1,a1,a2
    493c:	40000637          	lui	a2,0x40000
    4940:	00001eb7          	lui	t4,0x1
    4944:	41d40eb3          	sub	t4,s0,t4
    4948:	22bebc23          	sd	a1,568(t4) # 1238 <.LBB89_4+0x3c>
    494c:	0005d463          	bgez	a1,4954 <.LBB89_164>
    4950:	c0000637          	lui	a2,0xc0000

0000000000004954 <.LBB89_164>:
    4954:	000015b7          	lui	a1,0x1
    4958:	40b405b3          	sub	a1,s0,a1
    495c:	22c5b823          	sd	a2,560(a1) # 1230 <.LBB89_4+0x34>
    4960:	90043583          	ld	a1,-1792(s0)
    4964:	f0843603          	ld	a2,-248(s0)
    4968:	00c585b3          	add	a1,a1,a2
    496c:	40d585bb          	subw	a1,a1,a3
    4970:	4195063b          	subw	a2,a0,s9
    4974:	40c585bb          	subw	a1,a1,a2
    4978:	40000637          	lui	a2,0x40000
    497c:	00001eb7          	lui	t4,0x1
    4980:	41d40eb3          	sub	t4,s0,t4
    4984:	24beb423          	sd	a1,584(t4) # 1248 <.LBB89_4+0x4c>
    4988:	0005d463          	bgez	a1,4990 <.LBB89_166>
    498c:	c0000637          	lui	a2,0xc0000

0000000000004990 <.LBB89_166>:
    4990:	000015b7          	lui	a1,0x1
    4994:	40b405b3          	sub	a1,s0,a1
    4998:	24c5b023          	sd	a2,576(a1) # 1240 <.LBB89_4+0x44>
    499c:	90843583          	ld	a1,-1784(s0)
    49a0:	f1043603          	ld	a2,-240(s0)
    49a4:	00c585b3          	add	a1,a1,a2
    49a8:	41c585bb          	subw	a1,a1,t3
    49ac:	4195063b          	subw	a2,a0,s9
    49b0:	40c585bb          	subw	a1,a1,a2
    49b4:	40000637          	lui	a2,0x40000
    49b8:	00001eb7          	lui	t4,0x1
    49bc:	41d40eb3          	sub	t4,s0,t4
    49c0:	24bebc23          	sd	a1,600(t4) # 1258 <.LBB89_4+0x5c>
    49c4:	0005d463          	bgez	a1,49cc <.LBB89_168>
    49c8:	c0000637          	lui	a2,0xc0000

00000000000049cc <.LBB89_168>:
    49cc:	000015b7          	lui	a1,0x1
    49d0:	40b405b3          	sub	a1,s0,a1
    49d4:	24c5b823          	sd	a2,592(a1) # 1250 <.LBB89_4+0x54>
    49d8:	91043583          	ld	a1,-1776(s0)
    49dc:	f1843603          	ld	a2,-232(s0)
    49e0:	00c585b3          	add	a1,a1,a2
    49e4:	41a585bb          	subw	a1,a1,s10
    49e8:	4195063b          	subw	a2,a0,s9
    49ec:	40c585bb          	subw	a1,a1,a2
    49f0:	40000637          	lui	a2,0x40000
    49f4:	00001eb7          	lui	t4,0x1
    49f8:	41d40eb3          	sub	t4,s0,t4
    49fc:	26beb423          	sd	a1,616(t4) # 1268 <.LBB89_4+0x6c>
    4a00:	0005d463          	bgez	a1,4a08 <.LBB89_170>
    4a04:	c0000637          	lui	a2,0xc0000

0000000000004a08 <.LBB89_170>:
    4a08:	000015b7          	lui	a1,0x1
    4a0c:	40b405b3          	sub	a1,s0,a1
    4a10:	26c5b023          	sd	a2,608(a1) # 1260 <.LBB89_4+0x64>
    4a14:	91843583          	ld	a1,-1768(s0)
    4a18:	f2043603          	ld	a2,-224(s0)
    4a1c:	00c585b3          	add	a1,a1,a2
    4a20:	00001637          	lui	a2,0x1
    4a24:	40c40633          	sub	a2,s0,a2
    4a28:	71863603          	ld	a2,1816(a2) # 1718 <.LBB89_4+0x51c>
    4a2c:	40c585bb          	subw	a1,a1,a2
    4a30:	4195063b          	subw	a2,a0,s9
    4a34:	40c585bb          	subw	a1,a1,a2
    4a38:	40000637          	lui	a2,0x40000
    4a3c:	00001eb7          	lui	t4,0x1
    4a40:	41d40eb3          	sub	t4,s0,t4
    4a44:	26bebc23          	sd	a1,632(t4) # 1278 <.LBB89_4+0x7c>
    4a48:	0005d463          	bgez	a1,4a50 <.LBB89_172>
    4a4c:	c0000637          	lui	a2,0xc0000

0000000000004a50 <.LBB89_172>:
    4a50:	000015b7          	lui	a1,0x1
    4a54:	40b405b3          	sub	a1,s0,a1
    4a58:	26c5b823          	sd	a2,624(a1) # 1270 <.LBB89_4+0x74>
    4a5c:	92043583          	ld	a1,-1760(s0)
    4a60:	f2843603          	ld	a2,-216(s0)
    4a64:	00c585b3          	add	a1,a1,a2
    4a68:	00001637          	lui	a2,0x1
    4a6c:	40c40633          	sub	a2,s0,a2
    4a70:	72063603          	ld	a2,1824(a2) # 1720 <.LBB89_4+0x524>
    4a74:	40c585bb          	subw	a1,a1,a2
    4a78:	4195063b          	subw	a2,a0,s9
    4a7c:	40c585bb          	subw	a1,a1,a2
    4a80:	40000637          	lui	a2,0x40000
    4a84:	00001eb7          	lui	t4,0x1
    4a88:	41d40eb3          	sub	t4,s0,t4
    4a8c:	28beb423          	sd	a1,648(t4) # 1288 <.LBB89_4+0x8c>
    4a90:	0005d463          	bgez	a1,4a98 <.LBB89_174>
    4a94:	c0000637          	lui	a2,0xc0000

0000000000004a98 <.LBB89_174>:
    4a98:	000015b7          	lui	a1,0x1
    4a9c:	40b405b3          	sub	a1,s0,a1
    4aa0:	28c5b023          	sd	a2,640(a1) # 1280 <.LBB89_4+0x84>
    4aa4:	92843583          	ld	a1,-1752(s0)
    4aa8:	f3043603          	ld	a2,-208(s0)
    4aac:	00c585b3          	add	a1,a1,a2
    4ab0:	00001637          	lui	a2,0x1
    4ab4:	40c40633          	sub	a2,s0,a2
    4ab8:	72863603          	ld	a2,1832(a2) # 1728 <.LBB89_4+0x52c>
    4abc:	40c585bb          	subw	a1,a1,a2
    4ac0:	4195063b          	subw	a2,a0,s9
    4ac4:	40c585bb          	subw	a1,a1,a2
    4ac8:	40000637          	lui	a2,0x40000
    4acc:	00001eb7          	lui	t4,0x1
    4ad0:	41d40eb3          	sub	t4,s0,t4
    4ad4:	28bebc23          	sd	a1,664(t4) # 1298 <.LBB89_4+0x9c>
    4ad8:	0005d463          	bgez	a1,4ae0 <.LBB89_176>
    4adc:	c0000637          	lui	a2,0xc0000

0000000000004ae0 <.LBB89_176>:
    4ae0:	000015b7          	lui	a1,0x1
    4ae4:	40b405b3          	sub	a1,s0,a1
    4ae8:	28c5b823          	sd	a2,656(a1) # 1290 <.LBB89_4+0x94>
    4aec:	93043583          	ld	a1,-1744(s0)
    4af0:	f3843603          	ld	a2,-200(s0)
    4af4:	00c585b3          	add	a1,a1,a2
    4af8:	00001637          	lui	a2,0x1
    4afc:	40c40633          	sub	a2,s0,a2
    4b00:	73063603          	ld	a2,1840(a2) # 1730 <.LBB89_4+0x534>
    4b04:	40c585bb          	subw	a1,a1,a2
    4b08:	4195063b          	subw	a2,a0,s9
    4b0c:	40c585bb          	subw	a1,a1,a2
    4b10:	40000637          	lui	a2,0x40000
    4b14:	00001eb7          	lui	t4,0x1
    4b18:	41d40eb3          	sub	t4,s0,t4
    4b1c:	2abeb423          	sd	a1,680(t4) # 12a8 <.LBB89_4+0xac>
    4b20:	0005d463          	bgez	a1,4b28 <.LBB89_178>
    4b24:	c0000637          	lui	a2,0xc0000

0000000000004b28 <.LBB89_178>:
    4b28:	000015b7          	lui	a1,0x1
    4b2c:	40b405b3          	sub	a1,s0,a1
    4b30:	2ac5b023          	sd	a2,672(a1) # 12a0 <.LBB89_4+0xa4>
    4b34:	93843583          	ld	a1,-1736(s0)
    4b38:	f4043603          	ld	a2,-192(s0)
    4b3c:	00c585b3          	add	a1,a1,a2
    4b40:	00001637          	lui	a2,0x1
    4b44:	40c40633          	sub	a2,s0,a2
    4b48:	73863603          	ld	a2,1848(a2) # 1738 <.LBB89_4+0x53c>
    4b4c:	40c585bb          	subw	a1,a1,a2
    4b50:	4195063b          	subw	a2,a0,s9
    4b54:	40c585bb          	subw	a1,a1,a2
    4b58:	40000637          	lui	a2,0x40000
    4b5c:	00001eb7          	lui	t4,0x1
    4b60:	41d40eb3          	sub	t4,s0,t4
    4b64:	2abebc23          	sd	a1,696(t4) # 12b8 <.LBB89_4+0xbc>
    4b68:	0005d463          	bgez	a1,4b70 <.LBB89_180>
    4b6c:	c0000637          	lui	a2,0xc0000

0000000000004b70 <.LBB89_180>:
    4b70:	000015b7          	lui	a1,0x1
    4b74:	40b405b3          	sub	a1,s0,a1
    4b78:	2ac5b823          	sd	a2,688(a1) # 12b0 <.LBB89_4+0xb4>
    4b7c:	94043583          	ld	a1,-1728(s0)
    4b80:	f4843603          	ld	a2,-184(s0)
    4b84:	00c585b3          	add	a1,a1,a2
    4b88:	00001637          	lui	a2,0x1
    4b8c:	40c40633          	sub	a2,s0,a2
    4b90:	74063603          	ld	a2,1856(a2) # 1740 <.LBB89_4+0x544>
    4b94:	40c585bb          	subw	a1,a1,a2
    4b98:	4195063b          	subw	a2,a0,s9
    4b9c:	40c585bb          	subw	a1,a1,a2
    4ba0:	40000637          	lui	a2,0x40000
    4ba4:	00001eb7          	lui	t4,0x1
    4ba8:	41d40eb3          	sub	t4,s0,t4
    4bac:	2cbeb423          	sd	a1,712(t4) # 12c8 <.LBB89_4+0xcc>
    4bb0:	0005d463          	bgez	a1,4bb8 <.LBB89_182>
    4bb4:	c0000637          	lui	a2,0xc0000

0000000000004bb8 <.LBB89_182>:
    4bb8:	000015b7          	lui	a1,0x1
    4bbc:	40b405b3          	sub	a1,s0,a1
    4bc0:	2cc5b023          	sd	a2,704(a1) # 12c0 <.LBB89_4+0xc4>
    4bc4:	94843583          	ld	a1,-1720(s0)
    4bc8:	f5043603          	ld	a2,-176(s0)
    4bcc:	00c585b3          	add	a1,a1,a2
    4bd0:	00001637          	lui	a2,0x1
    4bd4:	40c40633          	sub	a2,s0,a2
    4bd8:	74863603          	ld	a2,1864(a2) # 1748 <.LBB89_4+0x54c>
    4bdc:	40c585bb          	subw	a1,a1,a2
    4be0:	4195063b          	subw	a2,a0,s9
    4be4:	40c585bb          	subw	a1,a1,a2
    4be8:	40000637          	lui	a2,0x40000
    4bec:	00001eb7          	lui	t4,0x1
    4bf0:	41d40eb3          	sub	t4,s0,t4
    4bf4:	2cbebc23          	sd	a1,728(t4) # 12d8 <.LBB89_4+0xdc>
    4bf8:	0005d463          	bgez	a1,4c00 <.LBB89_184>
    4bfc:	c0000637          	lui	a2,0xc0000

0000000000004c00 <.LBB89_184>:
    4c00:	000015b7          	lui	a1,0x1
    4c04:	40b405b3          	sub	a1,s0,a1
    4c08:	2cc5b823          	sd	a2,720(a1) # 12d0 <.LBB89_4+0xd4>
    4c0c:	95043583          	ld	a1,-1712(s0)
    4c10:	f5843603          	ld	a2,-168(s0)
    4c14:	00c585b3          	add	a1,a1,a2
    4c18:	00001637          	lui	a2,0x1
    4c1c:	40c40633          	sub	a2,s0,a2
    4c20:	75063603          	ld	a2,1872(a2) # 1750 <.LBB89_4+0x554>
    4c24:	40c585bb          	subw	a1,a1,a2
    4c28:	4195063b          	subw	a2,a0,s9
    4c2c:	40c585bb          	subw	a1,a1,a2
    4c30:	40000637          	lui	a2,0x40000
    4c34:	00001eb7          	lui	t4,0x1
    4c38:	41d40eb3          	sub	t4,s0,t4
    4c3c:	2ebeb423          	sd	a1,744(t4) # 12e8 <.LBB89_4+0xec>
    4c40:	0005d463          	bgez	a1,4c48 <.LBB89_186>
    4c44:	c0000637          	lui	a2,0xc0000

0000000000004c48 <.LBB89_186>:
    4c48:	000015b7          	lui	a1,0x1
    4c4c:	40b405b3          	sub	a1,s0,a1
    4c50:	2ec5b023          	sd	a2,736(a1) # 12e0 <.LBB89_4+0xe4>
    4c54:	95843583          	ld	a1,-1704(s0)
    4c58:	f6043603          	ld	a2,-160(s0)
    4c5c:	00c585b3          	add	a1,a1,a2
    4c60:	00001637          	lui	a2,0x1
    4c64:	40c40633          	sub	a2,s0,a2
    4c68:	75863603          	ld	a2,1880(a2) # 1758 <.LBB89_4+0x55c>
    4c6c:	40c585bb          	subw	a1,a1,a2
    4c70:	4195063b          	subw	a2,a0,s9
    4c74:	40c585bb          	subw	a1,a1,a2
    4c78:	40000637          	lui	a2,0x40000
    4c7c:	00001eb7          	lui	t4,0x1
    4c80:	41d40eb3          	sub	t4,s0,t4
    4c84:	2ebebc23          	sd	a1,760(t4) # 12f8 <.LBB89_4+0xfc>
    4c88:	0005d463          	bgez	a1,4c90 <.LBB89_188>
    4c8c:	c0000637          	lui	a2,0xc0000

0000000000004c90 <.LBB89_188>:
    4c90:	000015b7          	lui	a1,0x1
    4c94:	40b405b3          	sub	a1,s0,a1
    4c98:	2ec5b823          	sd	a2,752(a1) # 12f0 <.LBB89_4+0xf4>
    4c9c:	96043583          	ld	a1,-1696(s0)
    4ca0:	f6843603          	ld	a2,-152(s0)
    4ca4:	00c585b3          	add	a1,a1,a2
    4ca8:	00001637          	lui	a2,0x1
    4cac:	40c40633          	sub	a2,s0,a2
    4cb0:	76063603          	ld	a2,1888(a2) # 1760 <.LBB89_4+0x564>
    4cb4:	40c585bb          	subw	a1,a1,a2
    4cb8:	4195063b          	subw	a2,a0,s9
    4cbc:	40c585bb          	subw	a1,a1,a2
    4cc0:	40000637          	lui	a2,0x40000
    4cc4:	00001eb7          	lui	t4,0x1
    4cc8:	41d40eb3          	sub	t4,s0,t4
    4ccc:	30beb423          	sd	a1,776(t4) # 1308 <.LBB89_4+0x10c>
    4cd0:	0005d463          	bgez	a1,4cd8 <.LBB89_190>
    4cd4:	c0000637          	lui	a2,0xc0000

0000000000004cd8 <.LBB89_190>:
    4cd8:	000015b7          	lui	a1,0x1
    4cdc:	40b405b3          	sub	a1,s0,a1
    4ce0:	30c5b023          	sd	a2,768(a1) # 1300 <.LBB89_4+0x104>
    4ce4:	96843583          	ld	a1,-1688(s0)
    4ce8:	f7043603          	ld	a2,-144(s0)
    4cec:	00c585b3          	add	a1,a1,a2
    4cf0:	00001637          	lui	a2,0x1
    4cf4:	40c40633          	sub	a2,s0,a2
    4cf8:	76863603          	ld	a2,1896(a2) # 1768 <.LBB89_4+0x56c>
    4cfc:	40c585bb          	subw	a1,a1,a2
    4d00:	4195063b          	subw	a2,a0,s9
    4d04:	40c585bb          	subw	a1,a1,a2
    4d08:	40000637          	lui	a2,0x40000
    4d0c:	00001eb7          	lui	t4,0x1
    4d10:	41d40eb3          	sub	t4,s0,t4
    4d14:	30bebc23          	sd	a1,792(t4) # 1318 <.LBB89_4+0x11c>
    4d18:	0005d463          	bgez	a1,4d20 <.LBB89_192>
    4d1c:	c0000637          	lui	a2,0xc0000

0000000000004d20 <.LBB89_192>:
    4d20:	000015b7          	lui	a1,0x1
    4d24:	40b405b3          	sub	a1,s0,a1
    4d28:	30c5b823          	sd	a2,784(a1) # 1310 <.LBB89_4+0x114>
    4d2c:	f7843583          	ld	a1,-136(s0)
    4d30:	97043603          	ld	a2,-1680(s0)
    4d34:	00b605b3          	add	a1,a2,a1
    4d38:	00001637          	lui	a2,0x1
    4d3c:	40c40633          	sub	a2,s0,a2
    4d40:	77063603          	ld	a2,1904(a2) # 1770 <.LBB89_4+0x574>
    4d44:	40c585bb          	subw	a1,a1,a2
    4d48:	4195063b          	subw	a2,a0,s9
    4d4c:	40c585bb          	subw	a1,a1,a2
    4d50:	40000637          	lui	a2,0x40000
    4d54:	00001eb7          	lui	t4,0x1
    4d58:	41d40eb3          	sub	t4,s0,t4
    4d5c:	32beb423          	sd	a1,808(t4) # 1328 <.LBB89_4+0x12c>
    4d60:	0005d463          	bgez	a1,4d68 <.LBB89_194>
    4d64:	c0000637          	lui	a2,0xc0000

0000000000004d68 <.LBB89_194>:
    4d68:	000015b7          	lui	a1,0x1
    4d6c:	40b405b3          	sub	a1,s0,a1
    4d70:	32c5b023          	sd	a2,800(a1) # 1320 <.LBB89_4+0x124>
    4d74:	f8043583          	ld	a1,-128(s0)
    4d78:	97843603          	ld	a2,-1672(s0)
    4d7c:	00b605b3          	add	a1,a2,a1
    4d80:	00001637          	lui	a2,0x1
    4d84:	40c40633          	sub	a2,s0,a2
    4d88:	77863603          	ld	a2,1912(a2) # 1778 <.LBB89_4+0x57c>
    4d8c:	40c585bb          	subw	a1,a1,a2
    4d90:	4195063b          	subw	a2,a0,s9
    4d94:	40c585bb          	subw	a1,a1,a2
    4d98:	40000637          	lui	a2,0x40000
    4d9c:	00001eb7          	lui	t4,0x1
    4da0:	41d40eb3          	sub	t4,s0,t4
    4da4:	32bebc23          	sd	a1,824(t4) # 1338 <.LBB89_4+0x13c>
    4da8:	0005d463          	bgez	a1,4db0 <.LBB89_196>
    4dac:	c0000637          	lui	a2,0xc0000

0000000000004db0 <.LBB89_196>:
    4db0:	000015b7          	lui	a1,0x1
    4db4:	40b405b3          	sub	a1,s0,a1
    4db8:	32c5b823          	sd	a2,816(a1) # 1330 <.LBB89_4+0x134>
    4dbc:	f8843583          	ld	a1,-120(s0)
    4dc0:	98043603          	ld	a2,-1664(s0)
    4dc4:	00b605b3          	add	a1,a2,a1
    4dc8:	00001637          	lui	a2,0x1
    4dcc:	40c40633          	sub	a2,s0,a2
    4dd0:	78063603          	ld	a2,1920(a2) # 1780 <.LBB89_4+0x584>
    4dd4:	40c585bb          	subw	a1,a1,a2
    4dd8:	4195053b          	subw	a0,a0,s9
    4ddc:	40a585bb          	subw	a1,a1,a0
    4de0:	40000537          	lui	a0,0x40000
    4de4:	00001637          	lui	a2,0x1
    4de8:	40c40633          	sub	a2,s0,a2
    4dec:	34b63823          	sd	a1,848(a2) # 1350 <.LBB89_4+0x154>
    4df0:	0005d463          	bgez	a1,4df8 <.LBB89_198>
    4df4:	c0000537          	lui	a0,0xc0000

0000000000004df8 <.LBB89_198>:
    4df8:	000015b7          	lui	a1,0x1
    4dfc:	40b405b3          	sub	a1,s0,a1
    4e00:	34a5b023          	sd	a0,832(a1) # 1340 <.LBB89_4+0x144>
    4e04:	00001537          	lui	a0,0x1
    4e08:	40a40533          	sub	a0,s0,a0
    4e0c:	68053e83          	ld	t4,1664(a0) # 1680 <.LBB89_4+0x484>
    4e10:	003e9513          	slli	a0,t4,0x3
    4e14:	98843583          	ld	a1,-1656(s0)
    4e18:	ea043603          	ld	a2,-352(s0)
    4e1c:	00c585b3          	add	a1,a1,a2
    4e20:	41d5053b          	subw	a0,a0,t4
    4e24:	e9843603          	ld	a2,-360(s0)
    4e28:	40c585bb          	subw	a1,a1,a2
    4e2c:	4195063b          	subw	a2,a0,s9
    4e30:	40c585bb          	subw	a1,a1,a2
    4e34:	40000637          	lui	a2,0x40000
    4e38:	00001eb7          	lui	t4,0x1
    4e3c:	41d40eb3          	sub	t4,s0,t4
    4e40:	34bebc23          	sd	a1,856(t4) # 1358 <.LBB89_4+0x15c>
    4e44:	0005d463          	bgez	a1,4e4c <.LBB89_200>
    4e48:	c0000637          	lui	a2,0xc0000

0000000000004e4c <.LBB89_200>:
    4e4c:	000015b7          	lui	a1,0x1
    4e50:	40b405b3          	sub	a1,s0,a1
    4e54:	34c5b423          	sd	a2,840(a1) # 1348 <.LBB89_4+0x14c>
    4e58:	99043583          	ld	a1,-1648(s0)
    4e5c:	e9043603          	ld	a2,-368(s0)
    4e60:	00c585b3          	add	a1,a1,a2
    4e64:	e8843603          	ld	a2,-376(s0)
    4e68:	40c585bb          	subw	a1,a1,a2
    4e6c:	4195063b          	subw	a2,a0,s9
    4e70:	40c585bb          	subw	a1,a1,a2
    4e74:	40000637          	lui	a2,0x40000
    4e78:	00001eb7          	lui	t4,0x1
    4e7c:	41d40eb3          	sub	t4,s0,t4
    4e80:	36beb423          	sd	a1,872(t4) # 1368 <.LBB89_4+0x16c>
    4e84:	0005d463          	bgez	a1,4e8c <.LBB89_202>
    4e88:	c0000637          	lui	a2,0xc0000

0000000000004e8c <.LBB89_202>:
    4e8c:	000015b7          	lui	a1,0x1
    4e90:	40b405b3          	sub	a1,s0,a1
    4e94:	36c5b023          	sd	a2,864(a1) # 1360 <.LBB89_4+0x164>
    4e98:	99843583          	ld	a1,-1640(s0)
    4e9c:	e8043603          	ld	a2,-384(s0)
    4ea0:	00c585b3          	add	a1,a1,a2
    4ea4:	e7843603          	ld	a2,-392(s0)
    4ea8:	40c585bb          	subw	a1,a1,a2
    4eac:	4195063b          	subw	a2,a0,s9
    4eb0:	40c585bb          	subw	a1,a1,a2
    4eb4:	40000637          	lui	a2,0x40000
    4eb8:	00001eb7          	lui	t4,0x1
    4ebc:	41d40eb3          	sub	t4,s0,t4
    4ec0:	36bebc23          	sd	a1,888(t4) # 1378 <.LBB89_4+0x17c>
    4ec4:	0005d463          	bgez	a1,4ecc <.LBB89_204>
    4ec8:	c0000637          	lui	a2,0xc0000

0000000000004ecc <.LBB89_204>:
    4ecc:	000015b7          	lui	a1,0x1
    4ed0:	40b405b3          	sub	a1,s0,a1
    4ed4:	36c5b823          	sd	a2,880(a1) # 1370 <.LBB89_4+0x174>
    4ed8:	9a043583          	ld	a1,-1632(s0)
    4edc:	e7043603          	ld	a2,-400(s0)
    4ee0:	00c585b3          	add	a1,a1,a2
    4ee4:	e6843603          	ld	a2,-408(s0)
    4ee8:	40c585bb          	subw	a1,a1,a2
    4eec:	4195063b          	subw	a2,a0,s9
    4ef0:	40c585bb          	subw	a1,a1,a2
    4ef4:	40000637          	lui	a2,0x40000
    4ef8:	00001eb7          	lui	t4,0x1
    4efc:	41d40eb3          	sub	t4,s0,t4
    4f00:	38beb423          	sd	a1,904(t4) # 1388 <.LBB89_4+0x18c>
    4f04:	0005d463          	bgez	a1,4f0c <.LBB89_206>
    4f08:	c0000637          	lui	a2,0xc0000

0000000000004f0c <.LBB89_206>:
    4f0c:	000015b7          	lui	a1,0x1
    4f10:	40b405b3          	sub	a1,s0,a1
    4f14:	38c5b023          	sd	a2,896(a1) # 1380 <.LBB89_4+0x184>
    4f18:	9a843583          	ld	a1,-1624(s0)
    4f1c:	e6043603          	ld	a2,-416(s0)
    4f20:	00c585b3          	add	a1,a1,a2
    4f24:	e5843603          	ld	a2,-424(s0)
    4f28:	40c585bb          	subw	a1,a1,a2
    4f2c:	4195063b          	subw	a2,a0,s9
    4f30:	40c585bb          	subw	a1,a1,a2
    4f34:	40000637          	lui	a2,0x40000
    4f38:	00001eb7          	lui	t4,0x1
    4f3c:	41d40eb3          	sub	t4,s0,t4
    4f40:	38bebc23          	sd	a1,920(t4) # 1398 <.LBB89_4+0x19c>
    4f44:	0005d463          	bgez	a1,4f4c <.LBB89_208>
    4f48:	c0000637          	lui	a2,0xc0000

0000000000004f4c <.LBB89_208>:
    4f4c:	000015b7          	lui	a1,0x1
    4f50:	40b405b3          	sub	a1,s0,a1
    4f54:	38c5b823          	sd	a2,912(a1) # 1390 <.LBB89_4+0x194>
    4f58:	9b043583          	ld	a1,-1616(s0)
    4f5c:	e5043603          	ld	a2,-432(s0)
    4f60:	00c585b3          	add	a1,a1,a2
    4f64:	00001637          	lui	a2,0x1
    4f68:	40c40633          	sub	a2,s0,a2
    4f6c:	6b863603          	ld	a2,1720(a2) # 16b8 <.LBB89_4+0x4bc>
    4f70:	40c585bb          	subw	a1,a1,a2
    4f74:	4195063b          	subw	a2,a0,s9
    4f78:	40c585bb          	subw	a1,a1,a2
    4f7c:	40000637          	lui	a2,0x40000
    4f80:	00001eb7          	lui	t4,0x1
    4f84:	41d40eb3          	sub	t4,s0,t4
    4f88:	3abeb423          	sd	a1,936(t4) # 13a8 <.LBB89_4+0x1ac>
    4f8c:	0005d463          	bgez	a1,4f94 <.LBB89_210>
    4f90:	c0000637          	lui	a2,0xc0000

0000000000004f94 <.LBB89_210>:
    4f94:	000015b7          	lui	a1,0x1
    4f98:	40b405b3          	sub	a1,s0,a1
    4f9c:	3ac5b023          	sd	a2,928(a1) # 13a0 <.LBB89_4+0x1a4>
    4fa0:	9b843583          	ld	a1,-1608(s0)
    4fa4:	00001637          	lui	a2,0x1
    4fa8:	40c40633          	sub	a2,s0,a2
    4fac:	6b063603          	ld	a2,1712(a2) # 16b0 <.LBB89_4+0x4b4>
    4fb0:	00c585b3          	add	a1,a1,a2
    4fb4:	00001637          	lui	a2,0x1
    4fb8:	40c40633          	sub	a2,s0,a2
    4fbc:	6c863603          	ld	a2,1736(a2) # 16c8 <.LBB89_4+0x4cc>
    4fc0:	40c585bb          	subw	a1,a1,a2
    4fc4:	4195063b          	subw	a2,a0,s9
    4fc8:	40c585bb          	subw	a1,a1,a2
    4fcc:	40000637          	lui	a2,0x40000
    4fd0:	00001eb7          	lui	t4,0x1
    4fd4:	41d40eb3          	sub	t4,s0,t4
    4fd8:	3abebc23          	sd	a1,952(t4) # 13b8 <.LBB89_4+0x1bc>
    4fdc:	0005d463          	bgez	a1,4fe4 <.LBB89_212>
    4fe0:	c0000637          	lui	a2,0xc0000

0000000000004fe4 <.LBB89_212>:
    4fe4:	000015b7          	lui	a1,0x1
    4fe8:	40b405b3          	sub	a1,s0,a1
    4fec:	3ac5b823          	sd	a2,944(a1) # 13b0 <.LBB89_4+0x1b4>
    4ff0:	9c043583          	ld	a1,-1600(s0)
    4ff4:	00001637          	lui	a2,0x1
    4ff8:	40c40633          	sub	a2,s0,a2
    4ffc:	6a863603          	ld	a2,1704(a2) # 16a8 <.LBB89_4+0x4ac>
    5000:	00c585b3          	add	a1,a1,a2
    5004:	00001637          	lui	a2,0x1
    5008:	40c40633          	sub	a2,s0,a2
    500c:	6c063603          	ld	a2,1728(a2) # 16c0 <.LBB89_4+0x4c4>
    5010:	40c585bb          	subw	a1,a1,a2
    5014:	4195063b          	subw	a2,a0,s9
    5018:	40c585bb          	subw	a1,a1,a2
    501c:	40000637          	lui	a2,0x40000
    5020:	00001eb7          	lui	t4,0x1
    5024:	41d40eb3          	sub	t4,s0,t4
    5028:	3cbeb423          	sd	a1,968(t4) # 13c8 <.LBB89_4+0x1cc>
    502c:	0005d463          	bgez	a1,5034 <.LBB89_214>
    5030:	c0000637          	lui	a2,0xc0000

0000000000005034 <.LBB89_214>:
    5034:	000015b7          	lui	a1,0x1
    5038:	40b405b3          	sub	a1,s0,a1
    503c:	3cc5b023          	sd	a2,960(a1) # 13c0 <.LBB89_4+0x1c4>
    5040:	9c843583          	ld	a1,-1592(s0)
    5044:	00001637          	lui	a2,0x1
    5048:	40c40633          	sub	a2,s0,a2
    504c:	6a063603          	ld	a2,1696(a2) # 16a0 <.LBB89_4+0x4a4>
    5050:	00c585b3          	add	a1,a1,a2
    5054:	00001637          	lui	a2,0x1
    5058:	40c40633          	sub	a2,s0,a2
    505c:	69863603          	ld	a2,1688(a2) # 1698 <.LBB89_4+0x49c>
    5060:	40c585bb          	subw	a1,a1,a2
    5064:	4195063b          	subw	a2,a0,s9
    5068:	40c585bb          	subw	a1,a1,a2
    506c:	40000637          	lui	a2,0x40000
    5070:	00001eb7          	lui	t4,0x1
    5074:	41d40eb3          	sub	t4,s0,t4
    5078:	3cbebc23          	sd	a1,984(t4) # 13d8 <.LBB89_4+0x1dc>
    507c:	0005d463          	bgez	a1,5084 <.LBB89_216>
    5080:	c0000637          	lui	a2,0xc0000

0000000000005084 <.LBB89_216>:
    5084:	000015b7          	lui	a1,0x1
    5088:	40b405b3          	sub	a1,s0,a1
    508c:	3cc5b823          	sd	a2,976(a1) # 13d0 <.LBB89_4+0x1d4>
    5090:	9d043583          	ld	a1,-1584(s0)
    5094:	00001637          	lui	a2,0x1
    5098:	40c40633          	sub	a2,s0,a2
    509c:	69063603          	ld	a2,1680(a2) # 1690 <.LBB89_4+0x494>
    50a0:	00c585b3          	add	a1,a1,a2
    50a4:	00001637          	lui	a2,0x1
    50a8:	40c40633          	sub	a2,s0,a2
    50ac:	6d063603          	ld	a2,1744(a2) # 16d0 <.LBB89_4+0x4d4>
    50b0:	40c585bb          	subw	a1,a1,a2
    50b4:	4195063b          	subw	a2,a0,s9
    50b8:	40c585bb          	subw	a1,a1,a2
    50bc:	40000637          	lui	a2,0x40000
    50c0:	00001eb7          	lui	t4,0x1
    50c4:	41d40eb3          	sub	t4,s0,t4
    50c8:	3ebeb423          	sd	a1,1000(t4) # 13e8 <.LBB89_4+0x1ec>
    50cc:	0005d463          	bgez	a1,50d4 <.LBB89_218>
    50d0:	c0000637          	lui	a2,0xc0000

00000000000050d4 <.LBB89_218>:
    50d4:	000015b7          	lui	a1,0x1
    50d8:	40b405b3          	sub	a1,s0,a1
    50dc:	3ec5b023          	sd	a2,992(a1) # 13e0 <.LBB89_4+0x1e4>
    50e0:	9d843583          	ld	a1,-1576(s0)
    50e4:	ea843603          	ld	a2,-344(s0)
    50e8:	00c585b3          	add	a1,a1,a2
    50ec:	00001637          	lui	a2,0x1
    50f0:	40c40633          	sub	a2,s0,a2
    50f4:	6d863603          	ld	a2,1752(a2) # 16d8 <.LBB89_4+0x4dc>
    50f8:	40c585bb          	subw	a1,a1,a2
    50fc:	4195063b          	subw	a2,a0,s9
    5100:	40c585bb          	subw	a1,a1,a2
    5104:	40000637          	lui	a2,0x40000
    5108:	00001eb7          	lui	t4,0x1
    510c:	41d40eb3          	sub	t4,s0,t4
    5110:	3ebebc23          	sd	a1,1016(t4) # 13f8 <.LBB89_4+0x1fc>
    5114:	0005d463          	bgez	a1,511c <.LBB89_220>
    5118:	c0000637          	lui	a2,0xc0000

000000000000511c <.LBB89_220>:
    511c:	000015b7          	lui	a1,0x1
    5120:	40b405b3          	sub	a1,s0,a1
    5124:	3ec5b823          	sd	a2,1008(a1) # 13f0 <.LBB89_4+0x1f4>
    5128:	9e043583          	ld	a1,-1568(s0)
    512c:	eb043603          	ld	a2,-336(s0)
    5130:	00c585b3          	add	a1,a1,a2
    5134:	00001637          	lui	a2,0x1
    5138:	40c40633          	sub	a2,s0,a2
    513c:	6e063603          	ld	a2,1760(a2) # 16e0 <.LBB89_4+0x4e4>
    5140:	40c585bb          	subw	a1,a1,a2
    5144:	4195063b          	subw	a2,a0,s9
    5148:	40c585bb          	subw	a1,a1,a2
    514c:	40000637          	lui	a2,0x40000
    5150:	00001eb7          	lui	t4,0x1
    5154:	41d40eb3          	sub	t4,s0,t4
    5158:	40beb423          	sd	a1,1032(t4) # 1408 <.LBB89_4+0x20c>
    515c:	0005d463          	bgez	a1,5164 <.LBB89_222>
    5160:	c0000637          	lui	a2,0xc0000

0000000000005164 <.LBB89_222>:
    5164:	000015b7          	lui	a1,0x1
    5168:	40b405b3          	sub	a1,s0,a1
    516c:	40c5b023          	sd	a2,1024(a1) # 1400 <.LBB89_4+0x204>
    5170:	9e843583          	ld	a1,-1560(s0)
    5174:	eb843603          	ld	a2,-328(s0)
    5178:	00c585b3          	add	a1,a1,a2
    517c:	00001637          	lui	a2,0x1
    5180:	40c40633          	sub	a2,s0,a2
    5184:	6e863603          	ld	a2,1768(a2) # 16e8 <.LBB89_4+0x4ec>
    5188:	40c585bb          	subw	a1,a1,a2
    518c:	4195063b          	subw	a2,a0,s9
    5190:	40c585bb          	subw	a1,a1,a2
    5194:	40000637          	lui	a2,0x40000
    5198:	00001eb7          	lui	t4,0x1
    519c:	41d40eb3          	sub	t4,s0,t4
    51a0:	40bebc23          	sd	a1,1048(t4) # 1418 <.LBB89_4+0x21c>
    51a4:	0005d463          	bgez	a1,51ac <.LBB89_224>
    51a8:	c0000637          	lui	a2,0xc0000

00000000000051ac <.LBB89_224>:
    51ac:	000015b7          	lui	a1,0x1
    51b0:	40b405b3          	sub	a1,s0,a1
    51b4:	40c5b823          	sd	a2,1040(a1) # 1410 <.LBB89_4+0x214>
    51b8:	9f043583          	ld	a1,-1552(s0)
    51bc:	ec043603          	ld	a2,-320(s0)
    51c0:	00c585b3          	add	a1,a1,a2
    51c4:	00001637          	lui	a2,0x1
    51c8:	40c40633          	sub	a2,s0,a2
    51cc:	6f063603          	ld	a2,1776(a2) # 16f0 <.LBB89_4+0x4f4>
    51d0:	40c585bb          	subw	a1,a1,a2
    51d4:	4195063b          	subw	a2,a0,s9
    51d8:	40c585bb          	subw	a1,a1,a2
    51dc:	40000637          	lui	a2,0x40000
    51e0:	00001eb7          	lui	t4,0x1
    51e4:	41d40eb3          	sub	t4,s0,t4
    51e8:	42beb423          	sd	a1,1064(t4) # 1428 <.LBB89_4+0x22c>
    51ec:	0005d463          	bgez	a1,51f4 <.LBB89_226>
    51f0:	c0000637          	lui	a2,0xc0000

00000000000051f4 <.LBB89_226>:
    51f4:	000015b7          	lui	a1,0x1
    51f8:	40b405b3          	sub	a1,s0,a1
    51fc:	42c5b023          	sd	a2,1056(a1) # 1420 <.LBB89_4+0x224>
    5200:	9f843583          	ld	a1,-1544(s0)
    5204:	ec843603          	ld	a2,-312(s0)
    5208:	00c585b3          	add	a1,a1,a2
    520c:	00001637          	lui	a2,0x1
    5210:	40c40633          	sub	a2,s0,a2
    5214:	6f863603          	ld	a2,1784(a2) # 16f8 <.LBB89_4+0x4fc>
    5218:	40c585bb          	subw	a1,a1,a2
    521c:	4195063b          	subw	a2,a0,s9
    5220:	40c585bb          	subw	a1,a1,a2
    5224:	40000637          	lui	a2,0x40000
    5228:	00001eb7          	lui	t4,0x1
    522c:	41d40eb3          	sub	t4,s0,t4
    5230:	42bebc23          	sd	a1,1080(t4) # 1438 <.LBB89_4+0x23c>
    5234:	0005d463          	bgez	a1,523c <.LBB89_228>
    5238:	c0000637          	lui	a2,0xc0000

000000000000523c <.LBB89_228>:
    523c:	000015b7          	lui	a1,0x1
    5240:	40b405b3          	sub	a1,s0,a1
    5244:	42c5b823          	sd	a2,1072(a1) # 1430 <.LBB89_4+0x234>
    5248:	a0043583          	ld	a1,-1536(s0)
    524c:	f0843603          	ld	a2,-248(s0)
    5250:	00c585b3          	add	a1,a1,a2
    5254:	40d585bb          	subw	a1,a1,a3
    5258:	4195063b          	subw	a2,a0,s9
    525c:	40c585bb          	subw	a1,a1,a2
    5260:	40000637          	lui	a2,0x40000
    5264:	00001eb7          	lui	t4,0x1
    5268:	41d40eb3          	sub	t4,s0,t4
    526c:	44beb423          	sd	a1,1096(t4) # 1448 <.LBB89_4+0x24c>
    5270:	0005d463          	bgez	a1,5278 <.LBB89_230>
    5274:	c0000637          	lui	a2,0xc0000

0000000000005278 <.LBB89_230>:
    5278:	000015b7          	lui	a1,0x1
    527c:	40b405b3          	sub	a1,s0,a1
    5280:	44c5b023          	sd	a2,1088(a1) # 1440 <.LBB89_4+0x244>
    5284:	a0843583          	ld	a1,-1528(s0)
    5288:	f1043603          	ld	a2,-240(s0)
    528c:	00c585b3          	add	a1,a1,a2
    5290:	41c585bb          	subw	a1,a1,t3
    5294:	4195063b          	subw	a2,a0,s9
    5298:	40c585bb          	subw	a1,a1,a2
    529c:	40000637          	lui	a2,0x40000
    52a0:	00001eb7          	lui	t4,0x1
    52a4:	41d40eb3          	sub	t4,s0,t4
    52a8:	44bebc23          	sd	a1,1112(t4) # 1458 <.LBB89_4+0x25c>
    52ac:	0005d463          	bgez	a1,52b4 <.LBB89_232>
    52b0:	c0000637          	lui	a2,0xc0000

00000000000052b4 <.LBB89_232>:
    52b4:	000015b7          	lui	a1,0x1
    52b8:	40b405b3          	sub	a1,s0,a1
    52bc:	44c5b823          	sd	a2,1104(a1) # 1450 <.LBB89_4+0x254>
    52c0:	a1043583          	ld	a1,-1520(s0)
    52c4:	f1843603          	ld	a2,-232(s0)
    52c8:	00c585b3          	add	a1,a1,a2
    52cc:	41a585bb          	subw	a1,a1,s10
    52d0:	4195063b          	subw	a2,a0,s9
    52d4:	40c585bb          	subw	a1,a1,a2
    52d8:	40000637          	lui	a2,0x40000
    52dc:	00001eb7          	lui	t4,0x1
    52e0:	41d40eb3          	sub	t4,s0,t4
    52e4:	46beb423          	sd	a1,1128(t4) # 1468 <.LBB89_4+0x26c>
    52e8:	0005d463          	bgez	a1,52f0 <.LBB89_234>
    52ec:	c0000637          	lui	a2,0xc0000

00000000000052f0 <.LBB89_234>:
    52f0:	000015b7          	lui	a1,0x1
    52f4:	40b405b3          	sub	a1,s0,a1
    52f8:	46c5b023          	sd	a2,1120(a1) # 1460 <.LBB89_4+0x264>
    52fc:	a1843583          	ld	a1,-1512(s0)
    5300:	f2043603          	ld	a2,-224(s0)
    5304:	00c585b3          	add	a1,a1,a2
    5308:	00001637          	lui	a2,0x1
    530c:	40c40633          	sub	a2,s0,a2
    5310:	71863603          	ld	a2,1816(a2) # 1718 <.LBB89_4+0x51c>
    5314:	40c585bb          	subw	a1,a1,a2
    5318:	4195063b          	subw	a2,a0,s9
    531c:	40c585bb          	subw	a1,a1,a2
    5320:	40000637          	lui	a2,0x40000
    5324:	00001eb7          	lui	t4,0x1
    5328:	41d40eb3          	sub	t4,s0,t4
    532c:	46bebc23          	sd	a1,1144(t4) # 1478 <.LBB89_4+0x27c>
    5330:	0005d463          	bgez	a1,5338 <.LBB89_236>
    5334:	c0000637          	lui	a2,0xc0000

0000000000005338 <.LBB89_236>:
    5338:	000015b7          	lui	a1,0x1
    533c:	40b405b3          	sub	a1,s0,a1
