
code.o:     file format elf64-littleriscv


Disassembly of section .text.main_dispatch_42_matmul_784x32x192_i8xi8xi32:

0000000000000000 <main_dispatch_42_matmul_784x32x192_i8xi8xi32>:
       0:	81010113          	addi	sp,sp,-2032
       4:	7e113423          	sd	ra,2024(sp)
       8:	7e813023          	sd	s0,2016(sp)
       c:	7c913c23          	sd	s1,2008(sp)
      10:	7d213823          	sd	s2,2000(sp)
      14:	7d313423          	sd	s3,1992(sp)
      18:	7d413023          	sd	s4,1984(sp)
      1c:	7b513c23          	sd	s5,1976(sp)
      20:	7b613823          	sd	s6,1968(sp)
      24:	7b713423          	sd	s7,1960(sp)
      28:	7b813023          	sd	s8,1952(sp)
      2c:	79913c23          	sd	s9,1944(sp)
      30:	79a13823          	sd	s10,1936(sp)
      34:	79b13423          	sd	s11,1928(sp)
      38:	7f010413          	addi	s0,sp,2032
      3c:	00002537          	lui	a0,0x2
      40:	8705051b          	addiw	a0,a0,-1936 # 1870 <.LBB41_3+0x334>
      44:	40a10133          	sub	sp,sp,a0
      48:	0205b503          	ld	a0,32(a1)
      4c:	00000593          	li	a1,0
      50:	00853603          	ld	a2,8(a0)
      54:	00053703          	ld	a4,0(a0)
      58:	0002a6b7          	lui	a3,0x2a
      5c:	1806869b          	addiw	a3,a3,384 # 2a180 <.Lfunc_end80+0x17b8>
      60:	00d606b3          	add	a3,a2,a3
      64:	000027b7          	lui	a5,0x2
      68:	40f407b3          	sub	a5,s0,a5
      6c:	fcd7b023          	sd	a3,-64(a5) # 1fc0 <.LBB41_3+0xa84>
      70:	000296b7          	lui	a3,0x29
      74:	9806869b          	addiw	a3,a3,-1664 # 28980 <.LBB80_5386+0x4>
      78:	00d60633          	add	a2,a2,a3
      7c:	000026b7          	lui	a3,0x2
      80:	40d406b3          	sub	a3,s0,a3
      84:	fac6bc23          	sd	a2,-72(a3) # 1fb8 <.LBB41_3+0xa7c>
      88:	7ff70613          	addi	a2,a4,2047
      8c:	01053503          	ld	a0,16(a0)
      90:	44160613          	addi	a2,a2,1089
      94:	000026b7          	lui	a3,0x2
      98:	40d406b3          	sub	a3,s0,a3
      9c:	fac6b823          	sd	a2,-80(a3) # 1fb0 <.LBB41_3+0xa74>
      a0:	0002c637          	lui	a2,0x2c
      a4:	a406061b          	addiw	a2,a2,-1472 # 2ba40 <.Lfunc_end80+0x3078>
      a8:	00c50533          	add	a0,a0,a2
      ac:	00002637          	lui	a2,0x2
      b0:	40c40633          	sub	a2,s0,a2
      b4:	faa63423          	sd	a0,-88(a2) # 1fa8 <.LBB41_3+0xa6c>

00000000000000b8 <.Lpcrel_hi7>:
      b8:	00000517          	auipc	a0,0x0
      bc:	00050513          	mv	a0,a0
      c0:	07c52603          	lw	a2,124(a0) # 134 <.Lpcrel_hi7+0x7c>
      c4:	000026b7          	lui	a3,0x2
      c8:	40d406b3          	sub	a3,s0,a3
      cc:	7ec6bc23          	sd	a2,2040(a3) # 27f8 <.LBB41_3+0x12bc>
      d0:	07852603          	lw	a2,120(a0)
      d4:	000026b7          	lui	a3,0x2
      d8:	40d406b3          	sub	a3,s0,a3
      dc:	7ec6b823          	sd	a2,2032(a3) # 27f0 <.LBB41_3+0x12b4>
      e0:	07452603          	lw	a2,116(a0)
      e4:	000026b7          	lui	a3,0x2
      e8:	40d406b3          	sub	a3,s0,a3
      ec:	7ec6b423          	sd	a2,2024(a3) # 27e8 <.LBB41_3+0x12ac>
      f0:	07052603          	lw	a2,112(a0)
      f4:	000026b7          	lui	a3,0x2
      f8:	40d406b3          	sub	a3,s0,a3
      fc:	7ec6b023          	sd	a2,2016(a3) # 27e0 <.LBB41_3+0x12a4>
     100:	06c52603          	lw	a2,108(a0)
     104:	000026b7          	lui	a3,0x2
     108:	40d406b3          	sub	a3,s0,a3
     10c:	7cc6bc23          	sd	a2,2008(a3) # 27d8 <.LBB41_3+0x129c>
     110:	06852603          	lw	a2,104(a0)
     114:	000016b7          	lui	a3,0x1
     118:	40d406b3          	sub	a3,s0,a3
     11c:	5ac6b823          	sd	a2,1456(a3) # 15b0 <.LBB41_3+0x74>
     120:	06452603          	lw	a2,100(a0)
     124:	000016b7          	lui	a3,0x1
     128:	40d406b3          	sub	a3,s0,a3
     12c:	5ac6b423          	sd	a2,1448(a3) # 15a8 <.LBB41_3+0x6c>
     130:	06052603          	lw	a2,96(a0)
     134:	000016b7          	lui	a3,0x1
     138:	40d406b3          	sub	a3,s0,a3
     13c:	5ac6b023          	sd	a2,1440(a3) # 15a0 <.LBB41_3+0x64>
     140:	05c52603          	lw	a2,92(a0)
     144:	000016b7          	lui	a3,0x1
     148:	40d406b3          	sub	a3,s0,a3
     14c:	58c6bc23          	sd	a2,1432(a3) # 1598 <.LBB41_3+0x5c>
     150:	05852603          	lw	a2,88(a0)
     154:	000016b7          	lui	a3,0x1
     158:	40d406b3          	sub	a3,s0,a3
     15c:	66c6b023          	sd	a2,1632(a3) # 1660 <.LBB41_3+0x124>
     160:	05452603          	lw	a2,84(a0)
     164:	000016b7          	lui	a3,0x1
     168:	40d406b3          	sub	a3,s0,a3
     16c:	64c6bc23          	sd	a2,1624(a3) # 1658 <.LBB41_3+0x11c>
     170:	05052603          	lw	a2,80(a0)
     174:	000016b7          	lui	a3,0x1
     178:	40d406b3          	sub	a3,s0,a3
     17c:	58c6b823          	sd	a2,1424(a3) # 1590 <.LBB41_3+0x54>
     180:	04c52603          	lw	a2,76(a0)
     184:	000016b7          	lui	a3,0x1
     188:	40d406b3          	sub	a3,s0,a3
     18c:	64c6b823          	sd	a2,1616(a3) # 1650 <.LBB41_3+0x114>
     190:	04852603          	lw	a2,72(a0)
     194:	000016b7          	lui	a3,0x1
     198:	40d406b3          	sub	a3,s0,a3
     19c:	64c6b423          	sd	a2,1608(a3) # 1648 <.LBB41_3+0x10c>
     1a0:	04452603          	lw	a2,68(a0)
     1a4:	000016b7          	lui	a3,0x1
     1a8:	40d406b3          	sub	a3,s0,a3
     1ac:	64c6b023          	sd	a2,1600(a3) # 1640 <.LBB41_3+0x104>
     1b0:	04052603          	lw	a2,64(a0)
     1b4:	000016b7          	lui	a3,0x1
     1b8:	40d406b3          	sub	a3,s0,a3
     1bc:	62c6bc23          	sd	a2,1592(a3) # 1638 <.LBB41_3+0xfc>
     1c0:	03c52603          	lw	a2,60(a0)
     1c4:	000016b7          	lui	a3,0x1
     1c8:	40d406b3          	sub	a3,s0,a3
     1cc:	62c6b823          	sd	a2,1584(a3) # 1630 <.LBB41_3+0xf4>
     1d0:	03852603          	lw	a2,56(a0)
     1d4:	000016b7          	lui	a3,0x1
     1d8:	40d406b3          	sub	a3,s0,a3
     1dc:	58c6b423          	sd	a2,1416(a3) # 1588 <.LBB41_3+0x4c>
     1e0:	03452603          	lw	a2,52(a0)
     1e4:	000016b7          	lui	a3,0x1
     1e8:	40d406b3          	sub	a3,s0,a3
     1ec:	62c6b423          	sd	a2,1576(a3) # 1628 <.LBB41_3+0xec>
     1f0:	03052603          	lw	a2,48(a0)
     1f4:	000016b7          	lui	a3,0x1
     1f8:	40d406b3          	sub	a3,s0,a3
     1fc:	62c6b023          	sd	a2,1568(a3) # 1620 <.LBB41_3+0xe4>
     200:	02c52603          	lw	a2,44(a0)
     204:	000016b7          	lui	a3,0x1
     208:	40d406b3          	sub	a3,s0,a3
     20c:	60c6bc23          	sd	a2,1560(a3) # 1618 <.LBB41_3+0xdc>
     210:	02852603          	lw	a2,40(a0)
     214:	000016b7          	lui	a3,0x1
     218:	40d406b3          	sub	a3,s0,a3
     21c:	58c6b023          	sd	a2,1408(a3) # 1580 <.LBB41_3+0x44>
     220:	02452603          	lw	a2,36(a0)
     224:	000016b7          	lui	a3,0x1
     228:	40d406b3          	sub	a3,s0,a3
     22c:	60c6b823          	sd	a2,1552(a3) # 1610 <.LBB41_3+0xd4>
     230:	02052603          	lw	a2,32(a0)
     234:	000016b7          	lui	a3,0x1
     238:	40d406b3          	sub	a3,s0,a3
     23c:	60c6b423          	sd	a2,1544(a3) # 1608 <.LBB41_3+0xcc>
     240:	01c52603          	lw	a2,28(a0)
     244:	000016b7          	lui	a3,0x1
     248:	40d406b3          	sub	a3,s0,a3
     24c:	60c6b023          	sd	a2,1536(a3) # 1600 <.LBB41_3+0xc4>
     250:	01852603          	lw	a2,24(a0)
     254:	000016b7          	lui	a3,0x1
     258:	40d406b3          	sub	a3,s0,a3
     25c:	5ec6bc23          	sd	a2,1528(a3) # 15f8 <.LBB41_3+0xbc>
     260:	01452603          	lw	a2,20(a0)
     264:	000016b7          	lui	a3,0x1
     268:	40d406b3          	sub	a3,s0,a3
     26c:	5ec6b823          	sd	a2,1520(a3) # 15f0 <.LBB41_3+0xb4>
     270:	01052603          	lw	a2,16(a0)
     274:	000016b7          	lui	a3,0x1
     278:	40d406b3          	sub	a3,s0,a3
     27c:	5ec6b423          	sd	a2,1512(a3) # 15e8 <.LBB41_3+0xac>
     280:	00c52603          	lw	a2,12(a0)
     284:	000016b7          	lui	a3,0x1
     288:	40d406b3          	sub	a3,s0,a3
     28c:	5ec6b023          	sd	a2,1504(a3) # 15e0 <.LBB41_3+0xa4>
     290:	00852603          	lw	a2,8(a0)
     294:	000016b7          	lui	a3,0x1
     298:	40d406b3          	sub	a3,s0,a3
     29c:	5cc6bc23          	sd	a2,1496(a3) # 15d8 <.LBB41_3+0x9c>
     2a0:	00452603          	lw	a2,4(a0)
     2a4:	000016b7          	lui	a3,0x1
     2a8:	40d406b3          	sub	a3,s0,a3
     2ac:	5cc6b823          	sd	a2,1488(a3) # 15d0 <.LBB41_3+0x94>
     2b0:	00052503          	lw	a0,0(a0)
     2b4:	00001637          	lui	a2,0x1
     2b8:	40c40633          	sub	a2,s0,a2
     2bc:	5ca63423          	sd	a0,1480(a2) # 15c8 <.LBB41_3+0x8c>
     2c0:	00007537          	lui	a0,0x7
     2c4:	e405051b          	addiw	a0,a0,-448 # 6e40 <.LBB41_338+0x2c>
     2c8:	00002637          	lui	a2,0x2
     2cc:	40c40633          	sub	a2,s0,a2
     2d0:	fce63423          	sd	a4,-56(a2) # 1fc8 <.LBB41_3+0xa8c>
     2d4:	00a70733          	add	a4,a4,a0
     2d8:	407a4537          	lui	a0,0x407a4
     2dc:	4d15051b          	addiw	a0,a0,1233 # 407a44d1 <.Lfunc_end80+0x4077bb09>
     2e0:	00001637          	lui	a2,0x1
     2e4:	40c40633          	sub	a2,s0,a2
     2e8:	66a63423          	sd	a0,1640(a2) # 1668 <.LBB41_3+0x12c>
     2ec:	1ea7c537          	lui	a0,0x1ea7c
     2f0:	9ad5051b          	addiw	a0,a0,-1619 # 1ea7b9ad <.Lfunc_end80+0x1ea52fe5>
     2f4:	01651513          	slli	a0,a0,0x16
     2f8:	00001637          	lui	a2,0x1
     2fc:	40c40633          	sub	a2,s0,a2
     300:	5ca63023          	sd	a0,1472(a2) # 15c0 <.LBB41_3+0x84>
     304:	705a0537          	lui	a0,0x705a0
     308:	aeb5051b          	addiw	a0,a0,-1301 # 7059faeb <.Lfunc_end80+0x70577123>
     30c:	f8a43023          	sd	a0,-128(s0)
     310:	00300513          	li	a0,3
     314:	00b51513          	slli	a0,a0,0xb
     318:	00002637          	lui	a2,0x2
     31c:	40c40633          	sub	a2,s0,a2
     320:	faa63023          	sd	a0,-96(a2) # 1fa0 <.LBB41_3+0xa64>
     324:	4610006f          	j	f84 <.LBB41_2>

0000000000000328 <.LBB41_1>:
     328:	8dc43c23          	sd	t3,-1832(s0)
     32c:	00290593          	addi	a1,s2,2
     330:	00002e37          	lui	t3,0x2
     334:	41c40e33          	sub	t3,s0,t3
     338:	fa8e3903          	ld	s2,-88(t3) # 1fa8 <.LBB41_3+0xa6c>
     33c:	00002e37          	lui	t3,0x2
     340:	41c40e33          	sub	t3,s0,t3
     344:	790e3e03          	ld	t3,1936(t3) # 2790 <.LBB41_3+0x1254>
     348:	01c90e33          	add	t3,s2,t3
     34c:	00be0123          	sb	a1,2(t3)
     350:	e4843583          	ld	a1,-440(s0)
     354:	00258593          	addi	a1,a1,2
     358:	00be00a3          	sb	a1,1(t3)
     35c:	e5843583          	ld	a1,-424(s0)
     360:	00258593          	addi	a1,a1,2
     364:	00be0023          	sb	a1,0(t3)
     368:	e6843583          	ld	a1,-408(s0)
     36c:	00258593          	addi	a1,a1,2
     370:	00be01a3          	sb	a1,3(t3)
     374:	e7843583          	ld	a1,-392(s0)
     378:	00258593          	addi	a1,a1,2
     37c:	00be0223          	sb	a1,4(t3)
     380:	e8843583          	ld	a1,-376(s0)
     384:	00258593          	addi	a1,a1,2
     388:	00be02a3          	sb	a1,5(t3)
     38c:	e9843583          	ld	a1,-360(s0)
     390:	00258593          	addi	a1,a1,2
     394:	00be0323          	sb	a1,6(t3)
     398:	ea843583          	ld	a1,-344(s0)
     39c:	00258593          	addi	a1,a1,2
     3a0:	00be03a3          	sb	a1,7(t3)
     3a4:	eb843583          	ld	a1,-328(s0)
     3a8:	00258593          	addi	a1,a1,2
     3ac:	00be0423          	sb	a1,8(t3)
     3b0:	ec843583          	ld	a1,-312(s0)
     3b4:	00258593          	addi	a1,a1,2
     3b8:	00be04a3          	sb	a1,9(t3)
     3bc:	ed843583          	ld	a1,-296(s0)
     3c0:	00258593          	addi	a1,a1,2
     3c4:	00be0523          	sb	a1,10(t3)
     3c8:	ee043583          	ld	a1,-288(s0)
     3cc:	00258593          	addi	a1,a1,2
     3d0:	00be05a3          	sb	a1,11(t3)
     3d4:	ee843583          	ld	a1,-280(s0)
     3d8:	00258593          	addi	a1,a1,2
     3dc:	00be0623          	sb	a1,12(t3)
     3e0:	ef043583          	ld	a1,-272(s0)
     3e4:	00258593          	addi	a1,a1,2
     3e8:	00be06a3          	sb	a1,13(t3)
     3ec:	ef843583          	ld	a1,-264(s0)
     3f0:	00258593          	addi	a1,a1,2
     3f4:	00be0723          	sb	a1,14(t3)
     3f8:	f0043583          	ld	a1,-256(s0)
     3fc:	00258593          	addi	a1,a1,2
     400:	00be07a3          	sb	a1,15(t3)
     404:	f0843583          	ld	a1,-248(s0)
     408:	00258593          	addi	a1,a1,2
     40c:	00be0823          	sb	a1,16(t3)
     410:	f1043583          	ld	a1,-240(s0)
     414:	00258593          	addi	a1,a1,2
     418:	00be08a3          	sb	a1,17(t3)
     41c:	f1843583          	ld	a1,-232(s0)
     420:	00258593          	addi	a1,a1,2
     424:	00be0923          	sb	a1,18(t3)
     428:	f2043583          	ld	a1,-224(s0)
     42c:	00258593          	addi	a1,a1,2
     430:	00be09a3          	sb	a1,19(t3)
     434:	f2843583          	ld	a1,-216(s0)
     438:	00258593          	addi	a1,a1,2
     43c:	00be0a23          	sb	a1,20(t3)
     440:	f3043583          	ld	a1,-208(s0)
     444:	00258593          	addi	a1,a1,2
     448:	00be0aa3          	sb	a1,21(t3)
     44c:	f3843583          	ld	a1,-200(s0)
     450:	00258593          	addi	a1,a1,2
     454:	00be0b23          	sb	a1,22(t3)
     458:	f4043583          	ld	a1,-192(s0)
     45c:	00258593          	addi	a1,a1,2
     460:	00be0ba3          	sb	a1,23(t3)
     464:	f4843583          	ld	a1,-184(s0)
     468:	00258593          	addi	a1,a1,2
     46c:	00be0c23          	sb	a1,24(t3)
     470:	f5043583          	ld	a1,-176(s0)
     474:	00258593          	addi	a1,a1,2
     478:	00be0ca3          	sb	a1,25(t3)
     47c:	f5843583          	ld	a1,-168(s0)
     480:	00258593          	addi	a1,a1,2
     484:	00be0d23          	sb	a1,26(t3)
     488:	f6043583          	ld	a1,-160(s0)
     48c:	00258593          	addi	a1,a1,2
     490:	00be0da3          	sb	a1,27(t3)
     494:	f6843583          	ld	a1,-152(s0)
     498:	00258593          	addi	a1,a1,2
     49c:	00be0e23          	sb	a1,28(t3)
     4a0:	f7043583          	ld	a1,-144(s0)
     4a4:	00258593          	addi	a1,a1,2
     4a8:	00be0ea3          	sb	a1,29(t3)
     4ac:	f7843583          	ld	a1,-136(s0)
     4b0:	00258593          	addi	a1,a1,2
     4b4:	00be0f23          	sb	a1,30(t3)
     4b8:	f8843583          	ld	a1,-120(s0)
     4bc:	00258593          	addi	a1,a1,2
     4c0:	00be0fa3          	sb	a1,31(t3)
     4c4:	d4043e03          	ld	t3,-704(s0)
     4c8:	002e0e13          	addi	t3,t3,2
     4cc:	000025b7          	lui	a1,0x2
     4d0:	40b405b3          	sub	a1,s0,a1
     4d4:	7985b583          	ld	a1,1944(a1) # 2798 <.LBB41_3+0x125c>
     4d8:	00b905b3          	add	a1,s2,a1
     4dc:	01c58123          	sb	t3,2(a1)
     4e0:	d5043e03          	ld	t3,-688(s0)
     4e4:	002e0e13          	addi	t3,t3,2
     4e8:	01c580a3          	sb	t3,1(a1)
     4ec:	d6043e03          	ld	t3,-672(s0)
     4f0:	002e0e13          	addi	t3,t3,2
     4f4:	01c58023          	sb	t3,0(a1)
     4f8:	d7043e03          	ld	t3,-656(s0)
     4fc:	002e0e13          	addi	t3,t3,2
     500:	01c581a3          	sb	t3,3(a1)
     504:	d8043e03          	ld	t3,-640(s0)
     508:	002e0e13          	addi	t3,t3,2
     50c:	01c58223          	sb	t3,4(a1)
     510:	d9043e03          	ld	t3,-624(s0)
     514:	002e0e13          	addi	t3,t3,2
     518:	01c582a3          	sb	t3,5(a1)
     51c:	da043e03          	ld	t3,-608(s0)
     520:	002e0e13          	addi	t3,t3,2
     524:	01c58323          	sb	t3,6(a1)
     528:	db043e03          	ld	t3,-592(s0)
     52c:	002e0e13          	addi	t3,t3,2
     530:	01c583a3          	sb	t3,7(a1)
     534:	dc043e03          	ld	t3,-576(s0)
     538:	002e0e13          	addi	t3,t3,2
     53c:	01c58423          	sb	t3,8(a1)
     540:	dd043e03          	ld	t3,-560(s0)
     544:	002e0e13          	addi	t3,t3,2
     548:	01c584a3          	sb	t3,9(a1)
     54c:	de043e03          	ld	t3,-544(s0)
     550:	002e0e13          	addi	t3,t3,2
     554:	01c58523          	sb	t3,10(a1)
     558:	de843e03          	ld	t3,-536(s0)
     55c:	002e0e13          	addi	t3,t3,2
     560:	01c585a3          	sb	t3,11(a1)
     564:	df043e03          	ld	t3,-528(s0)
     568:	002e0e13          	addi	t3,t3,2
     56c:	01c58623          	sb	t3,12(a1)
     570:	df843e03          	ld	t3,-520(s0)
     574:	002e0e13          	addi	t3,t3,2
     578:	01c586a3          	sb	t3,13(a1)
     57c:	e0043e03          	ld	t3,-512(s0)
     580:	002e0e13          	addi	t3,t3,2
     584:	01c58723          	sb	t3,14(a1)
     588:	e0843e03          	ld	t3,-504(s0)
     58c:	002e0e13          	addi	t3,t3,2
     590:	01c587a3          	sb	t3,15(a1)
     594:	e1043e03          	ld	t3,-496(s0)
     598:	002e0e13          	addi	t3,t3,2
     59c:	01c58823          	sb	t3,16(a1)
     5a0:	e1843e03          	ld	t3,-488(s0)
     5a4:	002e0e13          	addi	t3,t3,2
     5a8:	01c588a3          	sb	t3,17(a1)
     5ac:	e2043e03          	ld	t3,-480(s0)
     5b0:	002e0e13          	addi	t3,t3,2
     5b4:	01c58923          	sb	t3,18(a1)
     5b8:	e2843e03          	ld	t3,-472(s0)
     5bc:	002e0e13          	addi	t3,t3,2
     5c0:	01c589a3          	sb	t3,19(a1)
     5c4:	e3043e03          	ld	t3,-464(s0)
     5c8:	002e0e13          	addi	t3,t3,2
     5cc:	01c58a23          	sb	t3,20(a1)
     5d0:	e3843e03          	ld	t3,-456(s0)
     5d4:	002e0e13          	addi	t3,t3,2
     5d8:	01c58aa3          	sb	t3,21(a1)
     5dc:	e4043e03          	ld	t3,-448(s0)
     5e0:	002e0e13          	addi	t3,t3,2
     5e4:	01c58b23          	sb	t3,22(a1)
     5e8:	e5043e03          	ld	t3,-432(s0)
     5ec:	002e0e13          	addi	t3,t3,2
     5f0:	01c58ba3          	sb	t3,23(a1)
     5f4:	e6043e03          	ld	t3,-416(s0)
     5f8:	002e0e13          	addi	t3,t3,2
     5fc:	01c58c23          	sb	t3,24(a1)
     600:	e7043e03          	ld	t3,-400(s0)
     604:	002e0e13          	addi	t3,t3,2
     608:	01c58ca3          	sb	t3,25(a1)
     60c:	e8043e03          	ld	t3,-384(s0)
     610:	002e0e13          	addi	t3,t3,2
     614:	01c58d23          	sb	t3,26(a1)
     618:	e9043e03          	ld	t3,-368(s0)
     61c:	002e0e13          	addi	t3,t3,2
     620:	01c58da3          	sb	t3,27(a1)
     624:	ea043e03          	ld	t3,-352(s0)
     628:	002e0e13          	addi	t3,t3,2
     62c:	01c58e23          	sb	t3,28(a1)
     630:	eb043e03          	ld	t3,-336(s0)
     634:	002e0e13          	addi	t3,t3,2
     638:	01c58ea3          	sb	t3,29(a1)
     63c:	ec043e03          	ld	t3,-320(s0)
     640:	002e0e13          	addi	t3,t3,2
     644:	01c58f23          	sb	t3,30(a1)
     648:	ed043e03          	ld	t3,-304(s0)
     64c:	002e0e13          	addi	t3,t3,2
     650:	01c58fa3          	sb	t3,31(a1)
     654:	c4043e03          	ld	t3,-960(s0)
     658:	002e0e13          	addi	t3,t3,2
     65c:	000025b7          	lui	a1,0x2
     660:	40b405b3          	sub	a1,s0,a1
     664:	7a05b583          	ld	a1,1952(a1) # 27a0 <.LBB41_3+0x1264>
     668:	00b905b3          	add	a1,s2,a1
     66c:	01c58123          	sb	t3,2(a1)
     670:	c5043e03          	ld	t3,-944(s0)
     674:	002e0e13          	addi	t3,t3,2
     678:	01c580a3          	sb	t3,1(a1)
     67c:	c6043e03          	ld	t3,-928(s0)
     680:	002e0e13          	addi	t3,t3,2
     684:	01c58023          	sb	t3,0(a1)
     688:	c7043e03          	ld	t3,-912(s0)
     68c:	002e0e13          	addi	t3,t3,2
     690:	01c581a3          	sb	t3,3(a1)
     694:	c8043e03          	ld	t3,-896(s0)
     698:	002e0e13          	addi	t3,t3,2
     69c:	01c58223          	sb	t3,4(a1)
     6a0:	c9043e03          	ld	t3,-880(s0)
     6a4:	002e0e13          	addi	t3,t3,2
     6a8:	01c582a3          	sb	t3,5(a1)
     6ac:	ca043e03          	ld	t3,-864(s0)
     6b0:	002e0e13          	addi	t3,t3,2
     6b4:	01c58323          	sb	t3,6(a1)
     6b8:	cb043e03          	ld	t3,-848(s0)
     6bc:	002e0e13          	addi	t3,t3,2
     6c0:	01c583a3          	sb	t3,7(a1)
     6c4:	cc043e03          	ld	t3,-832(s0)
     6c8:	002e0e13          	addi	t3,t3,2
     6cc:	01c58423          	sb	t3,8(a1)
     6d0:	cd043e03          	ld	t3,-816(s0)
     6d4:	002e0e13          	addi	t3,t3,2
     6d8:	01c584a3          	sb	t3,9(a1)
     6dc:	ce043e03          	ld	t3,-800(s0)
     6e0:	002e0e13          	addi	t3,t3,2
     6e4:	01c58523          	sb	t3,10(a1)
     6e8:	ce843e03          	ld	t3,-792(s0)
     6ec:	002e0e13          	addi	t3,t3,2
     6f0:	01c585a3          	sb	t3,11(a1)
     6f4:	cf043e03          	ld	t3,-784(s0)
     6f8:	002e0e13          	addi	t3,t3,2
     6fc:	01c58623          	sb	t3,12(a1)
     700:	cf843e03          	ld	t3,-776(s0)
     704:	002e0e13          	addi	t3,t3,2
     708:	01c586a3          	sb	t3,13(a1)
     70c:	d0043e03          	ld	t3,-768(s0)
     710:	002e0e13          	addi	t3,t3,2
     714:	01c58723          	sb	t3,14(a1)
     718:	d0843e03          	ld	t3,-760(s0)
     71c:	002e0e13          	addi	t3,t3,2
     720:	01c587a3          	sb	t3,15(a1)
     724:	d1043e03          	ld	t3,-752(s0)
     728:	002e0e13          	addi	t3,t3,2
     72c:	01c58823          	sb	t3,16(a1)
     730:	d1843e03          	ld	t3,-744(s0)
     734:	002e0e13          	addi	t3,t3,2
     738:	01c588a3          	sb	t3,17(a1)
     73c:	d2043e03          	ld	t3,-736(s0)
     740:	002e0e13          	addi	t3,t3,2
     744:	01c58923          	sb	t3,18(a1)
     748:	d2843e03          	ld	t3,-728(s0)
     74c:	002e0e13          	addi	t3,t3,2
     750:	01c589a3          	sb	t3,19(a1)
     754:	d3043e03          	ld	t3,-720(s0)
     758:	002e0e13          	addi	t3,t3,2
     75c:	01c58a23          	sb	t3,20(a1)
     760:	d3843e03          	ld	t3,-712(s0)
     764:	002e0e13          	addi	t3,t3,2
     768:	01c58aa3          	sb	t3,21(a1)
     76c:	d4843e03          	ld	t3,-696(s0)
     770:	002e0e13          	addi	t3,t3,2
     774:	01c58b23          	sb	t3,22(a1)
     778:	d5843e03          	ld	t3,-680(s0)
     77c:	002e0e13          	addi	t3,t3,2
     780:	01c58ba3          	sb	t3,23(a1)
     784:	d6843e03          	ld	t3,-664(s0)
     788:	002e0e13          	addi	t3,t3,2
     78c:	01c58c23          	sb	t3,24(a1)
     790:	d7843e03          	ld	t3,-648(s0)
     794:	002e0e13          	addi	t3,t3,2
     798:	01c58ca3          	sb	t3,25(a1)
     79c:	d8843e03          	ld	t3,-632(s0)
     7a0:	002e0e13          	addi	t3,t3,2
     7a4:	01c58d23          	sb	t3,26(a1)
     7a8:	d9843e03          	ld	t3,-616(s0)
     7ac:	002e0e13          	addi	t3,t3,2
     7b0:	01c58da3          	sb	t3,27(a1)
     7b4:	da843e03          	ld	t3,-600(s0)
     7b8:	002e0e13          	addi	t3,t3,2
     7bc:	01c58e23          	sb	t3,28(a1)
     7c0:	db843e03          	ld	t3,-584(s0)
     7c4:	002e0e13          	addi	t3,t3,2
     7c8:	01c58ea3          	sb	t3,29(a1)
     7cc:	dc843e03          	ld	t3,-568(s0)
     7d0:	002e0e13          	addi	t3,t3,2
     7d4:	01c58f23          	sb	t3,30(a1)
     7d8:	dd843e03          	ld	t3,-552(s0)
     7dc:	002e0e13          	addi	t3,t3,2
     7e0:	01c58fa3          	sb	t3,31(a1)
     7e4:	b4043e03          	ld	t3,-1216(s0)
     7e8:	002e0e13          	addi	t3,t3,2
     7ec:	000025b7          	lui	a1,0x2
     7f0:	40b405b3          	sub	a1,s0,a1
     7f4:	7a85b583          	ld	a1,1960(a1) # 27a8 <.LBB41_3+0x126c>
     7f8:	00b905b3          	add	a1,s2,a1
     7fc:	01c58123          	sb	t3,2(a1)
     800:	b5043e03          	ld	t3,-1200(s0)
     804:	002e0e13          	addi	t3,t3,2
     808:	01c580a3          	sb	t3,1(a1)
     80c:	b6043e03          	ld	t3,-1184(s0)
     810:	002e0e13          	addi	t3,t3,2
     814:	01c58023          	sb	t3,0(a1)
     818:	b7043e03          	ld	t3,-1168(s0)
     81c:	002e0e13          	addi	t3,t3,2
     820:	01c581a3          	sb	t3,3(a1)
     824:	b8043e03          	ld	t3,-1152(s0)
     828:	002e0e13          	addi	t3,t3,2
     82c:	01c58223          	sb	t3,4(a1)
     830:	b9043e03          	ld	t3,-1136(s0)
     834:	002e0e13          	addi	t3,t3,2
     838:	01c582a3          	sb	t3,5(a1)
     83c:	ba043e03          	ld	t3,-1120(s0)
     840:	002e0e13          	addi	t3,t3,2
     844:	01c58323          	sb	t3,6(a1)
     848:	bb043e03          	ld	t3,-1104(s0)
     84c:	002e0e13          	addi	t3,t3,2
     850:	01c583a3          	sb	t3,7(a1)
     854:	bc043e03          	ld	t3,-1088(s0)
     858:	002e0e13          	addi	t3,t3,2
     85c:	01c58423          	sb	t3,8(a1)
     860:	bd043e03          	ld	t3,-1072(s0)
     864:	002e0e13          	addi	t3,t3,2
     868:	01c584a3          	sb	t3,9(a1)
     86c:	be043e03          	ld	t3,-1056(s0)
     870:	002e0e13          	addi	t3,t3,2
     874:	01c58523          	sb	t3,10(a1)
     878:	be843e03          	ld	t3,-1048(s0)
     87c:	002e0e13          	addi	t3,t3,2
     880:	01c585a3          	sb	t3,11(a1)
     884:	bf043e03          	ld	t3,-1040(s0)
     888:	002e0e13          	addi	t3,t3,2
     88c:	01c58623          	sb	t3,12(a1)
     890:	bf843e03          	ld	t3,-1032(s0)
     894:	002e0e13          	addi	t3,t3,2
     898:	01c586a3          	sb	t3,13(a1)
     89c:	c0043e03          	ld	t3,-1024(s0)
     8a0:	002e0e13          	addi	t3,t3,2
     8a4:	01c58723          	sb	t3,14(a1)
     8a8:	c0843e03          	ld	t3,-1016(s0)
     8ac:	002e0e13          	addi	t3,t3,2
     8b0:	01c587a3          	sb	t3,15(a1)
     8b4:	c1043e03          	ld	t3,-1008(s0)
     8b8:	002e0e13          	addi	t3,t3,2
     8bc:	01c58823          	sb	t3,16(a1)
     8c0:	c1843e03          	ld	t3,-1000(s0)
     8c4:	002e0e13          	addi	t3,t3,2
     8c8:	01c588a3          	sb	t3,17(a1)
     8cc:	c2043e03          	ld	t3,-992(s0)
     8d0:	002e0e13          	addi	t3,t3,2
     8d4:	01c58923          	sb	t3,18(a1)
     8d8:	c2843e03          	ld	t3,-984(s0)
     8dc:	002e0e13          	addi	t3,t3,2
     8e0:	01c589a3          	sb	t3,19(a1)
     8e4:	c3043e03          	ld	t3,-976(s0)
     8e8:	002e0e13          	addi	t3,t3,2
     8ec:	01c58a23          	sb	t3,20(a1)
     8f0:	c3843e03          	ld	t3,-968(s0)
     8f4:	002e0e13          	addi	t3,t3,2
     8f8:	01c58aa3          	sb	t3,21(a1)
     8fc:	c4843e03          	ld	t3,-952(s0)
     900:	002e0e13          	addi	t3,t3,2
     904:	01c58b23          	sb	t3,22(a1)
     908:	c5843e03          	ld	t3,-936(s0)
     90c:	002e0e13          	addi	t3,t3,2
     910:	01c58ba3          	sb	t3,23(a1)
     914:	c6843e03          	ld	t3,-920(s0)
     918:	002e0e13          	addi	t3,t3,2
     91c:	01c58c23          	sb	t3,24(a1)
     920:	c7843e03          	ld	t3,-904(s0)
     924:	002e0e13          	addi	t3,t3,2
     928:	01c58ca3          	sb	t3,25(a1)
     92c:	c8843e03          	ld	t3,-888(s0)
     930:	002e0e13          	addi	t3,t3,2
     934:	01c58d23          	sb	t3,26(a1)
     938:	c9843e03          	ld	t3,-872(s0)
     93c:	002e0e13          	addi	t3,t3,2
     940:	01c58da3          	sb	t3,27(a1)
     944:	ca843e03          	ld	t3,-856(s0)
     948:	002e0e13          	addi	t3,t3,2
     94c:	01c58e23          	sb	t3,28(a1)
     950:	cb843e03          	ld	t3,-840(s0)
     954:	002e0e13          	addi	t3,t3,2
     958:	01c58ea3          	sb	t3,29(a1)
     95c:	cc843e03          	ld	t3,-824(s0)
     960:	002e0e13          	addi	t3,t3,2
     964:	01c58f23          	sb	t3,30(a1)
     968:	cd843e03          	ld	t3,-808(s0)
     96c:	002e0e13          	addi	t3,t3,2
     970:	01c58fa3          	sb	t3,31(a1)
     974:	a4043e03          	ld	t3,-1472(s0)
     978:	002e0e13          	addi	t3,t3,2
     97c:	000025b7          	lui	a1,0x2
     980:	40b405b3          	sub	a1,s0,a1
     984:	7b05b583          	ld	a1,1968(a1) # 27b0 <.LBB41_3+0x1274>
     988:	00b905b3          	add	a1,s2,a1
     98c:	01c58123          	sb	t3,2(a1)
     990:	a5043e03          	ld	t3,-1456(s0)
     994:	002e0e13          	addi	t3,t3,2
     998:	01c580a3          	sb	t3,1(a1)
     99c:	a6043e03          	ld	t3,-1440(s0)
     9a0:	002e0e13          	addi	t3,t3,2
     9a4:	01c58023          	sb	t3,0(a1)
     9a8:	a7043e03          	ld	t3,-1424(s0)
     9ac:	002e0e13          	addi	t3,t3,2
     9b0:	01c581a3          	sb	t3,3(a1)
     9b4:	a8043e03          	ld	t3,-1408(s0)
     9b8:	002e0e13          	addi	t3,t3,2
     9bc:	01c58223          	sb	t3,4(a1)
     9c0:	a9043e03          	ld	t3,-1392(s0)
     9c4:	002e0e13          	addi	t3,t3,2
     9c8:	01c582a3          	sb	t3,5(a1)
     9cc:	aa043e03          	ld	t3,-1376(s0)
     9d0:	002e0e13          	addi	t3,t3,2
     9d4:	01c58323          	sb	t3,6(a1)
     9d8:	ab043e03          	ld	t3,-1360(s0)
     9dc:	002e0e13          	addi	t3,t3,2
     9e0:	01c583a3          	sb	t3,7(a1)
     9e4:	ac043e03          	ld	t3,-1344(s0)
     9e8:	002e0e13          	addi	t3,t3,2
     9ec:	01c58423          	sb	t3,8(a1)
     9f0:	ad043e03          	ld	t3,-1328(s0)
     9f4:	002e0e13          	addi	t3,t3,2
     9f8:	01c584a3          	sb	t3,9(a1)
     9fc:	ae043e03          	ld	t3,-1312(s0)
     a00:	002e0e13          	addi	t3,t3,2
     a04:	01c58523          	sb	t3,10(a1)
     a08:	ae843e03          	ld	t3,-1304(s0)
     a0c:	002e0e13          	addi	t3,t3,2
     a10:	01c585a3          	sb	t3,11(a1)
     a14:	af043e03          	ld	t3,-1296(s0)
     a18:	002e0e13          	addi	t3,t3,2
     a1c:	01c58623          	sb	t3,12(a1)
     a20:	af843e03          	ld	t3,-1288(s0)
     a24:	002e0e13          	addi	t3,t3,2
     a28:	01c586a3          	sb	t3,13(a1)
     a2c:	b0043e03          	ld	t3,-1280(s0)
     a30:	002e0e13          	addi	t3,t3,2
     a34:	01c58723          	sb	t3,14(a1)
     a38:	b0843e03          	ld	t3,-1272(s0)
     a3c:	002e0e13          	addi	t3,t3,2
     a40:	01c587a3          	sb	t3,15(a1)
     a44:	b1043e03          	ld	t3,-1264(s0)
     a48:	002e0e13          	addi	t3,t3,2
     a4c:	01c58823          	sb	t3,16(a1)
     a50:	b1843e03          	ld	t3,-1256(s0)
     a54:	002e0e13          	addi	t3,t3,2
     a58:	01c588a3          	sb	t3,17(a1)
     a5c:	b2043e03          	ld	t3,-1248(s0)
     a60:	002e0e13          	addi	t3,t3,2
     a64:	01c58923          	sb	t3,18(a1)
     a68:	b2843e03          	ld	t3,-1240(s0)
     a6c:	002e0e13          	addi	t3,t3,2
     a70:	01c589a3          	sb	t3,19(a1)
     a74:	b3043e03          	ld	t3,-1232(s0)
     a78:	002e0e13          	addi	t3,t3,2
     a7c:	01c58a23          	sb	t3,20(a1)
     a80:	b3843e03          	ld	t3,-1224(s0)
     a84:	002e0e13          	addi	t3,t3,2
     a88:	01c58aa3          	sb	t3,21(a1)
     a8c:	b4843e03          	ld	t3,-1208(s0)
     a90:	002e0e13          	addi	t3,t3,2
     a94:	01c58b23          	sb	t3,22(a1)
     a98:	b5843e03          	ld	t3,-1192(s0)
     a9c:	002e0e13          	addi	t3,t3,2
     aa0:	01c58ba3          	sb	t3,23(a1)
     aa4:	b6843e03          	ld	t3,-1176(s0)
     aa8:	002e0e13          	addi	t3,t3,2
     aac:	01c58c23          	sb	t3,24(a1)
     ab0:	b7843e03          	ld	t3,-1160(s0)
     ab4:	002e0e13          	addi	t3,t3,2
     ab8:	01c58ca3          	sb	t3,25(a1)
     abc:	b8843e03          	ld	t3,-1144(s0)
     ac0:	002e0e13          	addi	t3,t3,2
     ac4:	01c58d23          	sb	t3,26(a1)
     ac8:	b9843e03          	ld	t3,-1128(s0)
     acc:	002e0e13          	addi	t3,t3,2
     ad0:	01c58da3          	sb	t3,27(a1)
     ad4:	ba843e03          	ld	t3,-1112(s0)
     ad8:	002e0e13          	addi	t3,t3,2
     adc:	01c58e23          	sb	t3,28(a1)
     ae0:	bb843e03          	ld	t3,-1096(s0)
     ae4:	002e0e13          	addi	t3,t3,2
     ae8:	01c58ea3          	sb	t3,29(a1)
     aec:	bc843e03          	ld	t3,-1080(s0)
     af0:	002e0e13          	addi	t3,t3,2
     af4:	01c58f23          	sb	t3,30(a1)
     af8:	bd843e03          	ld	t3,-1064(s0)
     afc:	002e0e13          	addi	t3,t3,2
     b00:	01c58fa3          	sb	t3,31(a1)
     b04:	94043e03          	ld	t3,-1728(s0)
     b08:	002e0e13          	addi	t3,t3,2
     b0c:	000025b7          	lui	a1,0x2
     b10:	40b405b3          	sub	a1,s0,a1
     b14:	7b85b583          	ld	a1,1976(a1) # 27b8 <.LBB41_3+0x127c>
     b18:	00b905b3          	add	a1,s2,a1
     b1c:	01c58123          	sb	t3,2(a1)
     b20:	95043e03          	ld	t3,-1712(s0)
     b24:	002e0e13          	addi	t3,t3,2
     b28:	01c580a3          	sb	t3,1(a1)
     b2c:	96043e03          	ld	t3,-1696(s0)
     b30:	002e0e13          	addi	t3,t3,2
     b34:	01c58023          	sb	t3,0(a1)
     b38:	97043e03          	ld	t3,-1680(s0)
     b3c:	002e0e13          	addi	t3,t3,2
     b40:	01c581a3          	sb	t3,3(a1)
     b44:	98043e03          	ld	t3,-1664(s0)
     b48:	002e0e13          	addi	t3,t3,2
     b4c:	01c58223          	sb	t3,4(a1)
     b50:	99043e03          	ld	t3,-1648(s0)
     b54:	002e0e13          	addi	t3,t3,2
     b58:	01c582a3          	sb	t3,5(a1)
     b5c:	9a043e03          	ld	t3,-1632(s0)
     b60:	002e0e13          	addi	t3,t3,2
     b64:	01c58323          	sb	t3,6(a1)
     b68:	9b043e03          	ld	t3,-1616(s0)
     b6c:	002e0e13          	addi	t3,t3,2
     b70:	01c583a3          	sb	t3,7(a1)
     b74:	9c043e03          	ld	t3,-1600(s0)
     b78:	002e0e13          	addi	t3,t3,2
     b7c:	01c58423          	sb	t3,8(a1)
     b80:	9d043e03          	ld	t3,-1584(s0)
     b84:	002e0e13          	addi	t3,t3,2
     b88:	01c584a3          	sb	t3,9(a1)
     b8c:	9e043e03          	ld	t3,-1568(s0)
     b90:	002e0e13          	addi	t3,t3,2
     b94:	01c58523          	sb	t3,10(a1)
     b98:	9e843e03          	ld	t3,-1560(s0)
     b9c:	002e0e13          	addi	t3,t3,2
     ba0:	01c585a3          	sb	t3,11(a1)
     ba4:	9f043e03          	ld	t3,-1552(s0)
     ba8:	002e0e13          	addi	t3,t3,2
     bac:	01c58623          	sb	t3,12(a1)
     bb0:	9f843e03          	ld	t3,-1544(s0)
     bb4:	002e0e13          	addi	t3,t3,2
     bb8:	01c586a3          	sb	t3,13(a1)
     bbc:	a0043e03          	ld	t3,-1536(s0)
     bc0:	002e0e13          	addi	t3,t3,2
     bc4:	01c58723          	sb	t3,14(a1)
     bc8:	a0843e03          	ld	t3,-1528(s0)
     bcc:	002e0e13          	addi	t3,t3,2
     bd0:	01c587a3          	sb	t3,15(a1)
     bd4:	a1043e03          	ld	t3,-1520(s0)
     bd8:	002e0e13          	addi	t3,t3,2
     bdc:	01c58823          	sb	t3,16(a1)
     be0:	a1843e03          	ld	t3,-1512(s0)
     be4:	002e0e13          	addi	t3,t3,2
     be8:	01c588a3          	sb	t3,17(a1)
     bec:	a2043e03          	ld	t3,-1504(s0)
     bf0:	002e0e13          	addi	t3,t3,2
     bf4:	01c58923          	sb	t3,18(a1)
     bf8:	a2843e03          	ld	t3,-1496(s0)
     bfc:	002e0e13          	addi	t3,t3,2
     c00:	01c589a3          	sb	t3,19(a1)
     c04:	a3043e03          	ld	t3,-1488(s0)
     c08:	002e0e13          	addi	t3,t3,2
     c0c:	01c58a23          	sb	t3,20(a1)
     c10:	a3843e03          	ld	t3,-1480(s0)
     c14:	002e0e13          	addi	t3,t3,2
     c18:	01c58aa3          	sb	t3,21(a1)
     c1c:	a4843e03          	ld	t3,-1464(s0)
     c20:	002e0e13          	addi	t3,t3,2
     c24:	01c58b23          	sb	t3,22(a1)
     c28:	a5843e03          	ld	t3,-1448(s0)
     c2c:	002e0e13          	addi	t3,t3,2
     c30:	01c58ba3          	sb	t3,23(a1)
     c34:	a6843e03          	ld	t3,-1432(s0)
     c38:	002e0e13          	addi	t3,t3,2
     c3c:	01c58c23          	sb	t3,24(a1)
     c40:	a7843e03          	ld	t3,-1416(s0)
     c44:	002e0e13          	addi	t3,t3,2
     c48:	01c58ca3          	sb	t3,25(a1)
     c4c:	a8843e03          	ld	t3,-1400(s0)
     c50:	002e0e13          	addi	t3,t3,2
     c54:	01c58d23          	sb	t3,26(a1)
     c58:	a9843e03          	ld	t3,-1384(s0)
     c5c:	002e0e13          	addi	t3,t3,2
     c60:	01c58da3          	sb	t3,27(a1)
     c64:	aa843e03          	ld	t3,-1368(s0)
     c68:	002e0e13          	addi	t3,t3,2
     c6c:	01c58e23          	sb	t3,28(a1)
     c70:	ab843e03          	ld	t3,-1352(s0)
     c74:	002e0e13          	addi	t3,t3,2
     c78:	01c58ea3          	sb	t3,29(a1)
     c7c:	ac843e03          	ld	t3,-1336(s0)
     c80:	002e0e13          	addi	t3,t3,2
     c84:	01c58f23          	sb	t3,30(a1)
     c88:	ad843e03          	ld	t3,-1320(s0)
     c8c:	002e0e13          	addi	t3,t3,2
     c90:	01c58fa3          	sb	t3,31(a1)
     c94:	002f0f13          	addi	t5,t5,2
     c98:	000025b7          	lui	a1,0x2
     c9c:	40b405b3          	sub	a1,s0,a1
     ca0:	7c05b583          	ld	a1,1984(a1) # 27c0 <.LBB41_3+0x1284>
     ca4:	00b905b3          	add	a1,s2,a1
     ca8:	01e58123          	sb	t5,2(a1)
     cac:	85043e03          	ld	t3,-1968(s0)
     cb0:	002e0e13          	addi	t3,t3,2
     cb4:	01c580a3          	sb	t3,1(a1)
     cb8:	86043e03          	ld	t3,-1952(s0)
     cbc:	002e0e13          	addi	t3,t3,2
     cc0:	01c58023          	sb	t3,0(a1)
     cc4:	87043e03          	ld	t3,-1936(s0)
     cc8:	002e0e13          	addi	t3,t3,2
     ccc:	01c581a3          	sb	t3,3(a1)
     cd0:	88043e03          	ld	t3,-1920(s0)
     cd4:	002e0e13          	addi	t3,t3,2
     cd8:	01c58223          	sb	t3,4(a1)
     cdc:	89043e03          	ld	t3,-1904(s0)
     ce0:	002e0e13          	addi	t3,t3,2
     ce4:	01c582a3          	sb	t3,5(a1)
     ce8:	8a043e03          	ld	t3,-1888(s0)
     cec:	002e0e13          	addi	t3,t3,2
     cf0:	01c58323          	sb	t3,6(a1)
     cf4:	8b043e03          	ld	t3,-1872(s0)
     cf8:	002e0e13          	addi	t3,t3,2
     cfc:	01c583a3          	sb	t3,7(a1)
     d00:	8c043e03          	ld	t3,-1856(s0)
     d04:	002e0e13          	addi	t3,t3,2
     d08:	01c58423          	sb	t3,8(a1)
     d0c:	8d043e03          	ld	t3,-1840(s0)
     d10:	002e0e13          	addi	t3,t3,2
     d14:	01c584a3          	sb	t3,9(a1)
     d18:	8e043e03          	ld	t3,-1824(s0)
     d1c:	002e0e13          	addi	t3,t3,2
     d20:	01c58523          	sb	t3,10(a1)
     d24:	8e843e03          	ld	t3,-1816(s0)
     d28:	002e0e13          	addi	t3,t3,2
     d2c:	01c585a3          	sb	t3,11(a1)
     d30:	8f043e03          	ld	t3,-1808(s0)
     d34:	002e0e13          	addi	t3,t3,2
     d38:	01c58623          	sb	t3,12(a1)
     d3c:	8f843e03          	ld	t3,-1800(s0)
     d40:	002e0e13          	addi	t3,t3,2
     d44:	01c586a3          	sb	t3,13(a1)
     d48:	90043e03          	ld	t3,-1792(s0)
     d4c:	002e0e13          	addi	t3,t3,2
     d50:	01c58723          	sb	t3,14(a1)
     d54:	90843e03          	ld	t3,-1784(s0)
     d58:	002e0e13          	addi	t3,t3,2
     d5c:	01c587a3          	sb	t3,15(a1)
     d60:	91043e03          	ld	t3,-1776(s0)
     d64:	002e0e13          	addi	t3,t3,2
     d68:	01c58823          	sb	t3,16(a1)
     d6c:	91843e03          	ld	t3,-1768(s0)
     d70:	002e0e13          	addi	t3,t3,2
     d74:	01c588a3          	sb	t3,17(a1)
     d78:	92043e03          	ld	t3,-1760(s0)
     d7c:	002e0e13          	addi	t3,t3,2
     d80:	01c58923          	sb	t3,18(a1)
     d84:	92843e03          	ld	t3,-1752(s0)
     d88:	002e0e13          	addi	t3,t3,2
     d8c:	01c589a3          	sb	t3,19(a1)
     d90:	93043e03          	ld	t3,-1744(s0)
     d94:	002e0e13          	addi	t3,t3,2
     d98:	01c58a23          	sb	t3,20(a1)
     d9c:	93843e03          	ld	t3,-1736(s0)
     da0:	002e0e13          	addi	t3,t3,2
     da4:	01c58aa3          	sb	t3,21(a1)
     da8:	94843e03          	ld	t3,-1720(s0)
     dac:	002e0e13          	addi	t3,t3,2
     db0:	01c58b23          	sb	t3,22(a1)
     db4:	95843e03          	ld	t3,-1704(s0)
     db8:	002e0e13          	addi	t3,t3,2
     dbc:	01c58ba3          	sb	t3,23(a1)
     dc0:	96843e03          	ld	t3,-1688(s0)
     dc4:	002e0e13          	addi	t3,t3,2
     dc8:	01c58c23          	sb	t3,24(a1)
     dcc:	97843e03          	ld	t3,-1672(s0)
     dd0:	002e0e13          	addi	t3,t3,2
     dd4:	01c58ca3          	sb	t3,25(a1)
     dd8:	98843e03          	ld	t3,-1656(s0)
     ddc:	002e0e13          	addi	t3,t3,2
     de0:	01c58d23          	sb	t3,26(a1)
     de4:	99843e03          	ld	t3,-1640(s0)
     de8:	002e0e13          	addi	t3,t3,2
     dec:	01c58da3          	sb	t3,27(a1)
     df0:	9a843e03          	ld	t3,-1624(s0)
     df4:	002e0e13          	addi	t3,t3,2
     df8:	01c58e23          	sb	t3,28(a1)
     dfc:	9b843e03          	ld	t3,-1608(s0)
     e00:	002e0e13          	addi	t3,t3,2
     e04:	01c58ea3          	sb	t3,29(a1)
     e08:	9c843e03          	ld	t3,-1592(s0)
     e0c:	002e0e13          	addi	t3,t3,2
     e10:	01c58f23          	sb	t3,30(a1)
     e14:	9d843e03          	ld	t3,-1576(s0)
     e18:	002e0e13          	addi	t3,t3,2
     e1c:	01c58fa3          	sb	t3,31(a1)
     e20:	00208093          	addi	ra,ra,2
     e24:	000025b7          	lui	a1,0x2
     e28:	40b405b3          	sub	a1,s0,a1
     e2c:	7c85b583          	ld	a1,1992(a1) # 27c8 <.LBB41_3+0x128c>
     e30:	00b905b3          	add	a1,s2,a1
     e34:	00158123          	sb	ra,2(a1)
     e38:	00248493          	addi	s1,s1,2
     e3c:	009580a3          	sb	s1,1(a1)
     e40:	002f8f93          	addi	t6,t6,2
     e44:	01f58023          	sb	t6,0(a1)
     e48:	00280813          	addi	a6,a6,2
     e4c:	010581a3          	sb	a6,3(a1)
     e50:	00288893          	addi	a7,a7,2
     e54:	01158223          	sb	a7,4(a1)
     e58:	002d8d93          	addi	s11,s11,2
     e5c:	01b582a3          	sb	s11,5(a1)
     e60:	002d0d13          	addi	s10,s10,2
     e64:	01a58323          	sb	s10,6(a1)
     e68:	002c8c93          	addi	s9,s9,2
     e6c:	019583a3          	sb	s9,7(a1)
     e70:	002c0c13          	addi	s8,s8,2
     e74:	01858423          	sb	s8,8(a1)
     e78:	002b8b93          	addi	s7,s7,2
     e7c:	017584a3          	sb	s7,9(a1)
     e80:	002b0b13          	addi	s6,s6,2
     e84:	01658523          	sb	s6,10(a1)
     e88:	002a8a93          	addi	s5,s5,2
     e8c:	015585a3          	sb	s5,11(a1)
     e90:	002a0a13          	addi	s4,s4,2
     e94:	01458623          	sb	s4,12(a1)
     e98:	00298993          	addi	s3,s3,2
     e9c:	013586a3          	sb	s3,13(a1)
     ea0:	00238393          	addi	t2,t2,2
     ea4:	00758723          	sb	t2,14(a1)
     ea8:	00230313          	addi	t1,t1,2
     eac:	006587a3          	sb	t1,15(a1)
     eb0:	00228293          	addi	t0,t0,2
     eb4:	00558823          	sb	t0,16(a1)
     eb8:	00278793          	addi	a5,a5,2
     ebc:	00f588a3          	sb	a5,17(a1)
     ec0:	00270713          	addi	a4,a4,2
     ec4:	00e58923          	sb	a4,18(a1)
     ec8:	00268693          	addi	a3,a3,2
     ecc:	00d589a3          	sb	a3,19(a1)
     ed0:	00260613          	addi	a2,a2,2
     ed4:	00c58a23          	sb	a2,20(a1)
     ed8:	00250513          	addi	a0,a0,2
     edc:	00a58aa3          	sb	a0,21(a1)
     ee0:	84843e83          	ld	t4,-1976(s0)
     ee4:	002e8e93          	addi	t4,t4,2
     ee8:	01d58b23          	sb	t4,22(a1)
     eec:	85843503          	ld	a0,-1960(s0)
     ef0:	00250513          	addi	a0,a0,2
     ef4:	00a58ba3          	sb	a0,23(a1)
     ef8:	86843503          	ld	a0,-1944(s0)
     efc:	00250513          	addi	a0,a0,2
     f00:	00a58c23          	sb	a0,24(a1)
     f04:	87843503          	ld	a0,-1928(s0)
     f08:	00250513          	addi	a0,a0,2
     f0c:	00a58ca3          	sb	a0,25(a1)
     f10:	88843503          	ld	a0,-1912(s0)
     f14:	00250513          	addi	a0,a0,2
     f18:	00a58d23          	sb	a0,26(a1)
     f1c:	89843503          	ld	a0,-1896(s0)
     f20:	00250513          	addi	a0,a0,2
     f24:	00a58da3          	sb	a0,27(a1)
     f28:	8a843503          	ld	a0,-1880(s0)
     f2c:	00250513          	addi	a0,a0,2
     f30:	00a58e23          	sb	a0,28(a1)
     f34:	8b843503          	ld	a0,-1864(s0)
     f38:	00250513          	addi	a0,a0,2
     f3c:	00a58ea3          	sb	a0,29(a1)
     f40:	8c843503          	ld	a0,-1848(s0)
     f44:	00250513          	addi	a0,a0,2
     f48:	00a58f23          	sb	a0,30(a1)
     f4c:	8d843503          	ld	a0,-1832(s0)
     f50:	00250513          	addi	a0,a0,2
     f54:	00a58fa3          	sb	a0,31(a1)
     f58:	00001537          	lui	a0,0x1
     f5c:	40a40533          	sub	a0,s0,a0
     f60:	5b853603          	ld	a2,1464(a0) # 15b8 <.LBB41_3+0x7c>
     f64:	00860593          	addi	a1,a2,8
     f68:	00002537          	lui	a0,0x2
     f6c:	40a40533          	sub	a0,s0,a0
     f70:	7d053703          	ld	a4,2000(a0) # 27d0 <.LBB41_3+0x1294>
     f74:	60070713          	addi	a4,a4,1536
     f78:	30800513          	li	a0,776
     f7c:	00a66463          	bltu	a2,a0,f84 <.LBB41_2>
     f80:	6f81b06f          	j	1c678 <.LBB41_3588>

0000000000000f84 <.LBB41_2>:
     f84:	00001537          	lui	a0,0x1
     f88:	40a40533          	sub	a0,s0,a0
     f8c:	5ab53c23          	sd	a1,1464(a0) # 15b8 <.LBB41_3+0x7c>
     f90:	00002537          	lui	a0,0x2
     f94:	40a40533          	sub	a0,s0,a0
     f98:	7ce53823          	sd	a4,2000(a0) # 27d0 <.LBB41_3+0x1294>
     f9c:	00070093          	mv	ra,a4
     fa0:	00002537          	lui	a0,0x2
     fa4:	40a40533          	sub	a0,s0,a0
     fa8:	fa053503          	ld	a0,-96(a0) # 1fa0 <.LBB41_3+0xa64>
     fac:	000015b7          	lui	a1,0x1
     fb0:	40b405b3          	sub	a1,s0,a1
     fb4:	68a5b023          	sd	a0,1664(a1) # 1680 <.LBB41_3+0x144>
     fb8:	00002537          	lui	a0,0x2
     fbc:	40a40533          	sub	a0,s0,a0
     fc0:	fb853f83          	ld	t6,-72(a0) # 1fb8 <.LBB41_3+0xa7c>
     fc4:	00001537          	lui	a0,0x1
     fc8:	40a40533          	sub	a0,s0,a0
     fcc:	78053423          	sd	zero,1928(a0) # 1788 <.LBB41_3+0x24c>
     fd0:	00001537          	lui	a0,0x1
     fd4:	40a40533          	sub	a0,s0,a0
     fd8:	78053c23          	sd	zero,1944(a0) # 1798 <.LBB41_3+0x25c>
     fdc:	00001537          	lui	a0,0x1
     fe0:	40a40533          	sub	a0,s0,a0
     fe4:	7a053423          	sd	zero,1960(a0) # 17a8 <.LBB41_3+0x26c>
     fe8:	00001537          	lui	a0,0x1
     fec:	40a40533          	sub	a0,s0,a0
     ff0:	76053c23          	sd	zero,1912(a0) # 1778 <.LBB41_3+0x23c>
     ff4:	00001537          	lui	a0,0x1
     ff8:	40a40533          	sub	a0,s0,a0
     ffc:	76053423          	sd	zero,1896(a0) # 1768 <.LBB41_3+0x22c>
    1000:	00001537          	lui	a0,0x1
    1004:	40a40533          	sub	a0,s0,a0
    1008:	74053c23          	sd	zero,1880(a0) # 1758 <.LBB41_3+0x21c>
    100c:	00001537          	lui	a0,0x1
    1010:	40a40533          	sub	a0,s0,a0
    1014:	74053823          	sd	zero,1872(a0) # 1750 <.LBB41_3+0x214>
    1018:	00001537          	lui	a0,0x1
    101c:	40a40533          	sub	a0,s0,a0
    1020:	74053423          	sd	zero,1864(a0) # 1748 <.LBB41_3+0x20c>
    1024:	00001537          	lui	a0,0x1
    1028:	40a40533          	sub	a0,s0,a0
    102c:	74053023          	sd	zero,1856(a0) # 1740 <.LBB41_3+0x204>
    1030:	00001537          	lui	a0,0x1
    1034:	40a40533          	sub	a0,s0,a0
    1038:	72053c23          	sd	zero,1848(a0) # 1738 <.LBB41_3+0x1fc>
    103c:	00001537          	lui	a0,0x1
    1040:	40a40533          	sub	a0,s0,a0
    1044:	72053823          	sd	zero,1840(a0) # 1730 <.LBB41_3+0x1f4>
    1048:	00001537          	lui	a0,0x1
    104c:	40a40533          	sub	a0,s0,a0
    1050:	72053423          	sd	zero,1832(a0) # 1728 <.LBB41_3+0x1ec>
    1054:	00001537          	lui	a0,0x1
    1058:	40a40533          	sub	a0,s0,a0
    105c:	72053023          	sd	zero,1824(a0) # 1720 <.LBB41_3+0x1e4>
    1060:	00001537          	lui	a0,0x1
    1064:	40a40533          	sub	a0,s0,a0
    1068:	70053c23          	sd	zero,1816(a0) # 1718 <.LBB41_3+0x1dc>
    106c:	00001537          	lui	a0,0x1
    1070:	40a40533          	sub	a0,s0,a0
    1074:	70053823          	sd	zero,1808(a0) # 1710 <.LBB41_3+0x1d4>
    1078:	00001537          	lui	a0,0x1
    107c:	40a40533          	sub	a0,s0,a0
    1080:	70053423          	sd	zero,1800(a0) # 1708 <.LBB41_3+0x1cc>
    1084:	00001537          	lui	a0,0x1
    1088:	40a40533          	sub	a0,s0,a0
    108c:	70053023          	sd	zero,1792(a0) # 1700 <.LBB41_3+0x1c4>
    1090:	00001537          	lui	a0,0x1
    1094:	40a40533          	sub	a0,s0,a0
    1098:	6e053c23          	sd	zero,1784(a0) # 16f8 <.LBB41_3+0x1bc>
    109c:	00001537          	lui	a0,0x1
    10a0:	40a40533          	sub	a0,s0,a0
    10a4:	6e053823          	sd	zero,1776(a0) # 16f0 <.LBB41_3+0x1b4>
    10a8:	00001537          	lui	a0,0x1
    10ac:	40a40533          	sub	a0,s0,a0
    10b0:	6e053423          	sd	zero,1768(a0) # 16e8 <.LBB41_3+0x1ac>
    10b4:	00001537          	lui	a0,0x1
    10b8:	40a40533          	sub	a0,s0,a0
    10bc:	6e053023          	sd	zero,1760(a0) # 16e0 <.LBB41_3+0x1a4>
    10c0:	00001537          	lui	a0,0x1
    10c4:	40a40533          	sub	a0,s0,a0
    10c8:	6c053c23          	sd	zero,1752(a0) # 16d8 <.LBB41_3+0x19c>
    10cc:	00001537          	lui	a0,0x1
    10d0:	40a40533          	sub	a0,s0,a0
    10d4:	6c053823          	sd	zero,1744(a0) # 16d0 <.LBB41_3+0x194>
    10d8:	00001537          	lui	a0,0x1
    10dc:	40a40533          	sub	a0,s0,a0
    10e0:	6c053423          	sd	zero,1736(a0) # 16c8 <.LBB41_3+0x18c>
    10e4:	00001537          	lui	a0,0x1
    10e8:	40a40533          	sub	a0,s0,a0
    10ec:	6c053023          	sd	zero,1728(a0) # 16c0 <.LBB41_3+0x184>
    10f0:	00001537          	lui	a0,0x1
    10f4:	40a40533          	sub	a0,s0,a0
    10f8:	6a053823          	sd	zero,1712(a0) # 16b0 <.LBB41_3+0x174>
    10fc:	00001537          	lui	a0,0x1
    1100:	40a40533          	sub	a0,s0,a0
    1104:	6a053423          	sd	zero,1704(a0) # 16a8 <.LBB41_3+0x16c>
    1108:	00001537          	lui	a0,0x1
    110c:	40a40533          	sub	a0,s0,a0
    1110:	6a053023          	sd	zero,1696(a0) # 16a0 <.LBB41_3+0x164>
    1114:	00001537          	lui	a0,0x1
    1118:	40a40533          	sub	a0,s0,a0
    111c:	68053c23          	sd	zero,1688(a0) # 1698 <.LBB41_3+0x15c>
    1120:	00001537          	lui	a0,0x1
    1124:	40a40533          	sub	a0,s0,a0
    1128:	68053823          	sd	zero,1680(a0) # 1690 <.LBB41_3+0x154>
    112c:	00001537          	lui	a0,0x1
    1130:	40a40533          	sub	a0,s0,a0
    1134:	68053423          	sd	zero,1672(a0) # 1688 <.LBB41_3+0x14c>
    1138:	00001537          	lui	a0,0x1
    113c:	40a40533          	sub	a0,s0,a0
    1140:	6a053c23          	sd	zero,1720(a0) # 16b8 <.LBB41_3+0x17c>
    1144:	88043423          	sd	zero,-1912(s0)
    1148:	88043c23          	sd	zero,-1896(s0)
    114c:	8a043423          	sd	zero,-1880(s0)
    1150:	86043c23          	sd	zero,-1928(s0)
    1154:	86043423          	sd	zero,-1944(s0)
    1158:	84043c23          	sd	zero,-1960(s0)
    115c:	84043823          	sd	zero,-1968(s0)
    1160:	84043423          	sd	zero,-1976(s0)
    1164:	84043023          	sd	zero,-1984(s0)
    1168:	82043c23          	sd	zero,-1992(s0)
    116c:	82043823          	sd	zero,-2000(s0)
    1170:	82043423          	sd	zero,-2008(s0)
    1174:	82043023          	sd	zero,-2016(s0)
    1178:	80043c23          	sd	zero,-2024(s0)
    117c:	80043823          	sd	zero,-2032(s0)
    1180:	80043423          	sd	zero,-2040(s0)
    1184:	80043023          	sd	zero,-2048(s0)
    1188:	00001537          	lui	a0,0x1
    118c:	40a40533          	sub	a0,s0,a0
    1190:	7e053c23          	sd	zero,2040(a0) # 17f8 <.LBB41_3+0x2bc>
    1194:	00001537          	lui	a0,0x1
    1198:	40a40533          	sub	a0,s0,a0
    119c:	7e053823          	sd	zero,2032(a0) # 17f0 <.LBB41_3+0x2b4>
    11a0:	00001537          	lui	a0,0x1
    11a4:	40a40533          	sub	a0,s0,a0
    11a8:	7e053423          	sd	zero,2024(a0) # 17e8 <.LBB41_3+0x2ac>
    11ac:	00001537          	lui	a0,0x1
    11b0:	40a40533          	sub	a0,s0,a0
    11b4:	7e053023          	sd	zero,2016(a0) # 17e0 <.LBB41_3+0x2a4>
    11b8:	00001537          	lui	a0,0x1
    11bc:	40a40533          	sub	a0,s0,a0
    11c0:	7c053c23          	sd	zero,2008(a0) # 17d8 <.LBB41_3+0x29c>
    11c4:	00001537          	lui	a0,0x1
    11c8:	40a40533          	sub	a0,s0,a0
    11cc:	7c053823          	sd	zero,2000(a0) # 17d0 <.LBB41_3+0x294>
    11d0:	00001537          	lui	a0,0x1
    11d4:	40a40533          	sub	a0,s0,a0
    11d8:	7c053423          	sd	zero,1992(a0) # 17c8 <.LBB41_3+0x28c>
    11dc:	00001537          	lui	a0,0x1
    11e0:	40a40533          	sub	a0,s0,a0
    11e4:	7c053023          	sd	zero,1984(a0) # 17c0 <.LBB41_3+0x284>
    11e8:	00001537          	lui	a0,0x1
    11ec:	40a40533          	sub	a0,s0,a0
    11f0:	7a053c23          	sd	zero,1976(a0) # 17b8 <.LBB41_3+0x27c>
    11f4:	00001537          	lui	a0,0x1
    11f8:	40a40533          	sub	a0,s0,a0
    11fc:	7a053823          	sd	zero,1968(a0) # 17b0 <.LBB41_3+0x274>
    1200:	00001537          	lui	a0,0x1
    1204:	40a40533          	sub	a0,s0,a0
    1208:	7a053023          	sd	zero,1952(a0) # 17a0 <.LBB41_3+0x264>
    120c:	00001537          	lui	a0,0x1
    1210:	40a40533          	sub	a0,s0,a0
    1214:	78053823          	sd	zero,1936(a0) # 1790 <.LBB41_3+0x254>
    1218:	00001537          	lui	a0,0x1
    121c:	40a40533          	sub	a0,s0,a0
    1220:	78053023          	sd	zero,1920(a0) # 1780 <.LBB41_3+0x244>
    1224:	00001537          	lui	a0,0x1
    1228:	40a40533          	sub	a0,s0,a0
    122c:	76053823          	sd	zero,1904(a0) # 1770 <.LBB41_3+0x234>
    1230:	00001537          	lui	a0,0x1
    1234:	40a40533          	sub	a0,s0,a0
    1238:	76053023          	sd	zero,1888(a0) # 1760 <.LBB41_3+0x224>
    123c:	98043423          	sd	zero,-1656(s0)
    1240:	98043c23          	sd	zero,-1640(s0)
    1244:	9a043423          	sd	zero,-1624(s0)
    1248:	96043c23          	sd	zero,-1672(s0)
    124c:	96043423          	sd	zero,-1688(s0)
    1250:	94043c23          	sd	zero,-1704(s0)
    1254:	94043823          	sd	zero,-1712(s0)
    1258:	94043423          	sd	zero,-1720(s0)
    125c:	94043023          	sd	zero,-1728(s0)
    1260:	92043c23          	sd	zero,-1736(s0)
    1264:	92043823          	sd	zero,-1744(s0)
    1268:	92043423          	sd	zero,-1752(s0)
    126c:	92043023          	sd	zero,-1760(s0)
    1270:	90043c23          	sd	zero,-1768(s0)
    1274:	90043823          	sd	zero,-1776(s0)
    1278:	90043423          	sd	zero,-1784(s0)
    127c:	90043023          	sd	zero,-1792(s0)
    1280:	8e043c23          	sd	zero,-1800(s0)
    1284:	8e043823          	sd	zero,-1808(s0)
    1288:	8e043423          	sd	zero,-1816(s0)
    128c:	8e043023          	sd	zero,-1824(s0)
    1290:	8c043c23          	sd	zero,-1832(s0)
    1294:	8c043823          	sd	zero,-1840(s0)
    1298:	8c043423          	sd	zero,-1848(s0)
    129c:	8c043023          	sd	zero,-1856(s0)
    12a0:	8a043c23          	sd	zero,-1864(s0)
    12a4:	8a043823          	sd	zero,-1872(s0)
    12a8:	8a043023          	sd	zero,-1888(s0)
    12ac:	88043823          	sd	zero,-1904(s0)
    12b0:	88043023          	sd	zero,-1920(s0)
    12b4:	86043823          	sd	zero,-1936(s0)
    12b8:	86043023          	sd	zero,-1952(s0)
    12bc:	a8043423          	sd	zero,-1400(s0)
    12c0:	a8043c23          	sd	zero,-1384(s0)
    12c4:	aa043423          	sd	zero,-1368(s0)
    12c8:	a6043c23          	sd	zero,-1416(s0)
    12cc:	a6043423          	sd	zero,-1432(s0)
    12d0:	a4043c23          	sd	zero,-1448(s0)
    12d4:	a4043823          	sd	zero,-1456(s0)
    12d8:	a4043423          	sd	zero,-1464(s0)
    12dc:	a4043023          	sd	zero,-1472(s0)
    12e0:	a2043c23          	sd	zero,-1480(s0)
    12e4:	a2043823          	sd	zero,-1488(s0)
    12e8:	a2043423          	sd	zero,-1496(s0)
    12ec:	a2043023          	sd	zero,-1504(s0)
    12f0:	a0043c23          	sd	zero,-1512(s0)
    12f4:	a0043823          	sd	zero,-1520(s0)
    12f8:	a0043423          	sd	zero,-1528(s0)
    12fc:	a0043023          	sd	zero,-1536(s0)
    1300:	9e043c23          	sd	zero,-1544(s0)
    1304:	9e043823          	sd	zero,-1552(s0)
    1308:	9e043423          	sd	zero,-1560(s0)
    130c:	9e043023          	sd	zero,-1568(s0)
    1310:	9c043c23          	sd	zero,-1576(s0)
    1314:	9c043823          	sd	zero,-1584(s0)
    1318:	9c043423          	sd	zero,-1592(s0)
    131c:	9c043023          	sd	zero,-1600(s0)
    1320:	9a043c23          	sd	zero,-1608(s0)
    1324:	9a043823          	sd	zero,-1616(s0)
    1328:	9a043023          	sd	zero,-1632(s0)
    132c:	98043823          	sd	zero,-1648(s0)
    1330:	98043023          	sd	zero,-1664(s0)
    1334:	96043823          	sd	zero,-1680(s0)
    1338:	96043023          	sd	zero,-1696(s0)
    133c:	b8043423          	sd	zero,-1144(s0)
    1340:	b8043c23          	sd	zero,-1128(s0)
    1344:	ba043423          	sd	zero,-1112(s0)
    1348:	b6043c23          	sd	zero,-1160(s0)
    134c:	b6043423          	sd	zero,-1176(s0)
    1350:	b4043c23          	sd	zero,-1192(s0)
    1354:	b4043823          	sd	zero,-1200(s0)
    1358:	b4043423          	sd	zero,-1208(s0)
    135c:	b4043023          	sd	zero,-1216(s0)
    1360:	b2043c23          	sd	zero,-1224(s0)
    1364:	b2043823          	sd	zero,-1232(s0)
    1368:	b2043423          	sd	zero,-1240(s0)
    136c:	b2043023          	sd	zero,-1248(s0)
    1370:	b0043c23          	sd	zero,-1256(s0)
    1374:	b0043823          	sd	zero,-1264(s0)
    1378:	b0043423          	sd	zero,-1272(s0)
    137c:	b0043023          	sd	zero,-1280(s0)
    1380:	ae043c23          	sd	zero,-1288(s0)
    1384:	ae043823          	sd	zero,-1296(s0)
    1388:	ae043423          	sd	zero,-1304(s0)
    138c:	ae043023          	sd	zero,-1312(s0)
    1390:	ac043c23          	sd	zero,-1320(s0)
    1394:	ac043823          	sd	zero,-1328(s0)
    1398:	ac043423          	sd	zero,-1336(s0)
    139c:	ac043023          	sd	zero,-1344(s0)
    13a0:	aa043c23          	sd	zero,-1352(s0)
    13a4:	aa043823          	sd	zero,-1360(s0)
    13a8:	aa043023          	sd	zero,-1376(s0)
    13ac:	a8043823          	sd	zero,-1392(s0)
    13b0:	a8043023          	sd	zero,-1408(s0)
    13b4:	a6043823          	sd	zero,-1424(s0)
    13b8:	a6043023          	sd	zero,-1440(s0)
    13bc:	c8043423          	sd	zero,-888(s0)
    13c0:	c8043c23          	sd	zero,-872(s0)
    13c4:	ca043423          	sd	zero,-856(s0)
    13c8:	c6043c23          	sd	zero,-904(s0)
    13cc:	c6043423          	sd	zero,-920(s0)
    13d0:	c4043c23          	sd	zero,-936(s0)
    13d4:	c4043823          	sd	zero,-944(s0)
    13d8:	c4043423          	sd	zero,-952(s0)
    13dc:	c4043023          	sd	zero,-960(s0)
    13e0:	c2043c23          	sd	zero,-968(s0)
    13e4:	c2043823          	sd	zero,-976(s0)
    13e8:	c2043423          	sd	zero,-984(s0)
    13ec:	c2043023          	sd	zero,-992(s0)
    13f0:	c0043c23          	sd	zero,-1000(s0)
    13f4:	c0043823          	sd	zero,-1008(s0)
    13f8:	c0043423          	sd	zero,-1016(s0)
    13fc:	c0043023          	sd	zero,-1024(s0)
    1400:	be043c23          	sd	zero,-1032(s0)
    1404:	be043823          	sd	zero,-1040(s0)
    1408:	be043423          	sd	zero,-1048(s0)
    140c:	be043023          	sd	zero,-1056(s0)
    1410:	bc043c23          	sd	zero,-1064(s0)
    1414:	bc043823          	sd	zero,-1072(s0)
    1418:	bc043423          	sd	zero,-1080(s0)
    141c:	bc043023          	sd	zero,-1088(s0)
    1420:	ba043c23          	sd	zero,-1096(s0)
    1424:	ba043823          	sd	zero,-1104(s0)
    1428:	ba043023          	sd	zero,-1120(s0)
    142c:	b8043823          	sd	zero,-1136(s0)
    1430:	b8043023          	sd	zero,-1152(s0)
    1434:	b6043823          	sd	zero,-1168(s0)
    1438:	b6043023          	sd	zero,-1184(s0)
    143c:	d8043423          	sd	zero,-632(s0)
    1440:	d8043c23          	sd	zero,-616(s0)
    1444:	da043423          	sd	zero,-600(s0)
    1448:	d6043c23          	sd	zero,-648(s0)
    144c:	d6043423          	sd	zero,-664(s0)
    1450:	d4043c23          	sd	zero,-680(s0)
    1454:	d4043823          	sd	zero,-688(s0)
    1458:	d4043423          	sd	zero,-696(s0)
    145c:	d4043023          	sd	zero,-704(s0)
    1460:	d2043c23          	sd	zero,-712(s0)
    1464:	d2043823          	sd	zero,-720(s0)
    1468:	d2043423          	sd	zero,-728(s0)
    146c:	d2043023          	sd	zero,-736(s0)
    1470:	d0043c23          	sd	zero,-744(s0)
    1474:	d0043823          	sd	zero,-752(s0)
    1478:	d0043423          	sd	zero,-760(s0)
    147c:	d0043023          	sd	zero,-768(s0)
    1480:	ce043c23          	sd	zero,-776(s0)
    1484:	ce043823          	sd	zero,-784(s0)
    1488:	ce043423          	sd	zero,-792(s0)
    148c:	ce043023          	sd	zero,-800(s0)
    1490:	cc043c23          	sd	zero,-808(s0)
    1494:	cc043823          	sd	zero,-816(s0)
    1498:	cc043423          	sd	zero,-824(s0)
    149c:	cc043023          	sd	zero,-832(s0)
    14a0:	ca043c23          	sd	zero,-840(s0)
    14a4:	ca043823          	sd	zero,-848(s0)
    14a8:	ca043023          	sd	zero,-864(s0)
    14ac:	c8043823          	sd	zero,-880(s0)
    14b0:	c8043023          	sd	zero,-896(s0)
    14b4:	c6043823          	sd	zero,-912(s0)
    14b8:	c6043023          	sd	zero,-928(s0)
    14bc:	de043023          	sd	zero,-544(s0)
    14c0:	de043423          	sd	zero,-536(s0)
    14c4:	de043823          	sd	zero,-528(s0)
    14c8:	00000793          	li	a5,0
    14cc:	00000513          	li	a0,0
    14d0:	00000593          	li	a1,0
    14d4:	00000a13          	li	s4,0
    14d8:	dc043423          	sd	zero,-568(s0)
    14dc:	00000713          	li	a4,0
    14e0:	00000c93          	li	s9,0
    14e4:	00000c13          	li	s8,0
    14e8:	00000913          	li	s2,0
    14ec:	dc043023          	sd	zero,-576(s0)
    14f0:	00000613          	li	a2,0
    14f4:	00000393          	li	t2,0
    14f8:	00000e93          	li	t4,0
    14fc:	00000d13          	li	s10,0
    1500:	00000893          	li	a7,0
    1504:	00000293          	li	t0,0
    1508:	00000813          	li	a6,0
    150c:	00000313          	li	t1,0
    1510:	00000e13          	li	t3,0
    1514:	00000493          	li	s1,0
    1518:	00000993          	li	s3,0
    151c:	00000f13          	li	t5,0
    1520:	00000693          	li	a3,0
    1524:	00000a93          	li	s5,0
    1528:	00000b93          	li	s7,0
    152c:	00000d93          	li	s11,0
    1530:	d8043023          	sd	zero,-640(s0)
    1534:	d6043823          	sd	zero,-656(s0)
    1538:	d6043023          	sd	zero,-672(s0)

000000000000153c <.LBB41_3>:
    153c:	f8143423          	sd	ra,-120(s0)
    1540:	d9b43823          	sd	s11,-624(s0)
    1544:	db743023          	sd	s7,-608(s0)
    1548:	db543823          	sd	s5,-592(s0)
    154c:	e8d43c23          	sd	a3,-360(s0)
    1550:	ebe43023          	sd	t5,-352(s0)
    1554:	eb343423          	sd	s3,-344(s0)
    1558:	ea943823          	sd	s1,-336(s0)
    155c:	ebc43c23          	sd	t3,-328(s0)
    1560:	ec643023          	sd	t1,-320(s0)
    1564:	ed043423          	sd	a6,-312(s0)
    1568:	ec543823          	sd	t0,-304(s0)
    156c:	ed143c23          	sd	a7,-296(s0)
    1570:	dba43c23          	sd	s10,-584(s0)
    1574:	efd43023          	sd	t4,-288(s0)
    1578:	ee743423          	sd	t2,-280(s0)
    157c:	eec43823          	sd	a2,-272(s0)
    1580:	ef243c23          	sd	s2,-264(s0)
    1584:	f1843023          	sd	s8,-256(s0)
    1588:	f1943423          	sd	s9,-248(s0)
    158c:	f0e43823          	sd	a4,-240(s0)
    1590:	f1443c23          	sd	s4,-232(s0)
    1594:	dcb43823          	sd	a1,-560(s0)
    1598:	f2a43023          	sd	a0,-224(s0)
    159c:	dcf43c23          	sd	a5,-552(s0)
    15a0:	00008503          	lb	a0,0(ra)
    15a4:	002f8583          	lb	a1,2(t6)
    15a8:	f2b43423          	sd	a1,-216(s0)
    15ac:	001f8683          	lb	a3,1(t6)
    15b0:	e4d43823          	sd	a3,-432(s0)
    15b4:	000f8703          	lb	a4,0(t6)
    15b8:	003f8783          	lb	a5,3(t6)
    15bc:	004f8883          	lb	a7,4(t6)
    15c0:	f7143423          	sd	a7,-152(s0)
    15c4:	005f8983          	lb	s3,5(t6)
    15c8:	f7343023          	sd	s3,-160(s0)
    15cc:	006f8b03          	lb	s6,6(t6)
    15d0:	007f8c03          	lb	s8,7(t6)
    15d4:	f7843c23          	sd	s8,-136(s0)
    15d8:	008f8d83          	lb	s11,8(t6)
    15dc:	e9b43823          	sd	s11,-368(s0)
    15e0:	009f8283          	lb	t0,9(t6)
    15e4:	f4543823          	sd	t0,-176(s0)
    15e8:	00af8c83          	lb	s9,10(t6)
    15ec:	00bf8903          	lb	s2,11(t6)
    15f0:	00cf8483          	lb	s1,12(t6)
    15f4:	00df8383          	lb	t2,13(t6)
    15f8:	00ef8e03          	lb	t3,14(t6)
    15fc:	00ff8e83          	lb	t4,15(t6)
    1600:	010f8d03          	lb	s10,16(t6)
    1604:	011f8603          	lb	a2,17(t6)
    1608:	e2c43c23          	sd	a2,-456(s0)
    160c:	012f8803          	lb	a6,18(t6)
    1610:	e5043023          	sd	a6,-448(s0)
    1614:	013f8b83          	lb	s7,19(t6)
    1618:	f5743c23          	sd	s7,-168(s0)
    161c:	014f8303          	lb	t1,20(t6)
    1620:	f4643023          	sd	t1,-192(s0)
    1624:	015f8a03          	lb	s4,21(t6)
    1628:	e5443423          	sd	s4,-440(s0)
    162c:	016f8a83          	lb	s5,22(t6)
    1630:	f7543823          	sd	s5,-144(s0)
    1634:	017f8f03          	lb	t5,23(t6)
    1638:	f3e43c23          	sd	t5,-200(s0)
    163c:	018f8083          	lb	ra,24(t6)
    1640:	e6143823          	sd	ra,-400(s0)
    1644:	02b505b3          	mul	a1,a0,a1
    1648:	00001637          	lui	a2,0x1
    164c:	40c40633          	sub	a2,s0,a2
    1650:	7a863603          	ld	a2,1960(a2) # 17a8 <.LBB41_3+0x26c>
    1654:	00c58633          	add	a2,a1,a2
    1658:	000015b7          	lui	a1,0x1
    165c:	40b405b3          	sub	a1,s0,a1
    1660:	7ac5b423          	sd	a2,1960(a1) # 17a8 <.LBB41_3+0x26c>
    1664:	02d505b3          	mul	a1,a0,a3
    1668:	00001637          	lui	a2,0x1
    166c:	40c40633          	sub	a2,s0,a2
    1670:	79863603          	ld	a2,1944(a2) # 1798 <.LBB41_3+0x25c>
    1674:	00c58633          	add	a2,a1,a2
    1678:	000015b7          	lui	a1,0x1
    167c:	40b405b3          	sub	a1,s0,a1
    1680:	78c5bc23          	sd	a2,1944(a1) # 1798 <.LBB41_3+0x25c>
    1684:	02e505b3          	mul	a1,a0,a4
    1688:	00070693          	mv	a3,a4
    168c:	00001637          	lui	a2,0x1
    1690:	40c40633          	sub	a2,s0,a2
    1694:	78863603          	ld	a2,1928(a2) # 1788 <.LBB41_3+0x24c>
    1698:	00c58633          	add	a2,a1,a2
    169c:	000015b7          	lui	a1,0x1
    16a0:	40b405b3          	sub	a1,s0,a1
    16a4:	78c5b423          	sd	a2,1928(a1) # 1788 <.LBB41_3+0x24c>
    16a8:	02f505b3          	mul	a1,a0,a5
    16ac:	00001637          	lui	a2,0x1
    16b0:	40c40633          	sub	a2,s0,a2
    16b4:	77863603          	ld	a2,1912(a2) # 1778 <.LBB41_3+0x23c>
    16b8:	00c58633          	add	a2,a1,a2
    16bc:	000015b7          	lui	a1,0x1
    16c0:	40b405b3          	sub	a1,s0,a1
    16c4:	76c5bc23          	sd	a2,1912(a1) # 1778 <.LBB41_3+0x23c>
    16c8:	031505b3          	mul	a1,a0,a7
    16cc:	00001637          	lui	a2,0x1
    16d0:	40c40633          	sub	a2,s0,a2
    16d4:	76863603          	ld	a2,1896(a2) # 1768 <.LBB41_3+0x22c>
    16d8:	00c58633          	add	a2,a1,a2
    16dc:	000015b7          	lui	a1,0x1
    16e0:	40b405b3          	sub	a1,s0,a1
    16e4:	76c5b423          	sd	a2,1896(a1) # 1768 <.LBB41_3+0x22c>
    16e8:	033505b3          	mul	a1,a0,s3
    16ec:	00001637          	lui	a2,0x1
    16f0:	40c40633          	sub	a2,s0,a2
    16f4:	75863603          	ld	a2,1880(a2) # 1758 <.LBB41_3+0x21c>
    16f8:	00c58633          	add	a2,a1,a2
    16fc:	000015b7          	lui	a1,0x1
    1700:	40b405b3          	sub	a1,s0,a1
    1704:	74c5bc23          	sd	a2,1880(a1) # 1758 <.LBB41_3+0x21c>
    1708:	036505b3          	mul	a1,a0,s6
    170c:	000b0993          	mv	s3,s6
    1710:	f3643823          	sd	s6,-208(s0)
    1714:	00001637          	lui	a2,0x1
    1718:	40c40633          	sub	a2,s0,a2
    171c:	75063603          	ld	a2,1872(a2) # 1750 <.LBB41_3+0x214>
    1720:	00c58633          	add	a2,a1,a2
    1724:	000015b7          	lui	a1,0x1
    1728:	40b405b3          	sub	a1,s0,a1
    172c:	74c5b823          	sd	a2,1872(a1) # 1750 <.LBB41_3+0x214>
    1730:	038505b3          	mul	a1,a0,s8
    1734:	00001637          	lui	a2,0x1
    1738:	40c40633          	sub	a2,s0,a2
    173c:	74863603          	ld	a2,1864(a2) # 1748 <.LBB41_3+0x20c>
    1740:	00c58633          	add	a2,a1,a2
    1744:	000015b7          	lui	a1,0x1
    1748:	40b405b3          	sub	a1,s0,a1
    174c:	74c5b423          	sd	a2,1864(a1) # 1748 <.LBB41_3+0x20c>
    1750:	03b505b3          	mul	a1,a0,s11
    1754:	00001637          	lui	a2,0x1
    1758:	40c40633          	sub	a2,s0,a2
    175c:	74063603          	ld	a2,1856(a2) # 1740 <.LBB41_3+0x204>
    1760:	00c58633          	add	a2,a1,a2
    1764:	000015b7          	lui	a1,0x1
    1768:	40b405b3          	sub	a1,s0,a1
    176c:	74c5b023          	sd	a2,1856(a1) # 1740 <.LBB41_3+0x204>
    1770:	025505b3          	mul	a1,a0,t0
    1774:	00001637          	lui	a2,0x1
    1778:	40c40633          	sub	a2,s0,a2
    177c:	73863603          	ld	a2,1848(a2) # 1738 <.LBB41_3+0x1fc>
    1780:	00c58633          	add	a2,a1,a2
    1784:	000015b7          	lui	a1,0x1
    1788:	40b405b3          	sub	a1,s0,a1
    178c:	72c5bc23          	sd	a2,1848(a1) # 1738 <.LBB41_3+0x1fc>
    1790:	f5943423          	sd	s9,-184(s0)
    1794:	039505b3          	mul	a1,a0,s9
    1798:	00001637          	lui	a2,0x1
    179c:	40c40633          	sub	a2,s0,a2
    17a0:	73063603          	ld	a2,1840(a2) # 1730 <.LBB41_3+0x1f4>
    17a4:	00c58633          	add	a2,a1,a2
    17a8:	000015b7          	lui	a1,0x1
    17ac:	40b405b3          	sub	a1,s0,a1
    17b0:	72c5b823          	sd	a2,1840(a1) # 1730 <.LBB41_3+0x1f4>
    17b4:	e3243823          	sd	s2,-464(s0)
    17b8:	032505b3          	mul	a1,a0,s2
    17bc:	00001637          	lui	a2,0x1
    17c0:	40c40633          	sub	a2,s0,a2
    17c4:	72863603          	ld	a2,1832(a2) # 1728 <.LBB41_3+0x1ec>
    17c8:	00c58633          	add	a2,a1,a2
    17cc:	000015b7          	lui	a1,0x1
    17d0:	40b405b3          	sub	a1,s0,a1
    17d4:	72c5b423          	sd	a2,1832(a1) # 1728 <.LBB41_3+0x1ec>
    17d8:	e8943423          	sd	s1,-376(s0)
    17dc:	029505b3          	mul	a1,a0,s1
    17e0:	00001637          	lui	a2,0x1
    17e4:	40c40633          	sub	a2,s0,a2
    17e8:	72063603          	ld	a2,1824(a2) # 1720 <.LBB41_3+0x1e4>
    17ec:	00c58633          	add	a2,a1,a2
    17f0:	000015b7          	lui	a1,0x1
    17f4:	40b405b3          	sub	a1,s0,a1
    17f8:	72c5b023          	sd	a2,1824(a1) # 1720 <.LBB41_3+0x1e4>
    17fc:	00038713          	mv	a4,t2
    1800:	de743c23          	sd	t2,-520(s0)
    1804:	027505b3          	mul	a1,a0,t2
    1808:	00001637          	lui	a2,0x1
    180c:	40c40633          	sub	a2,s0,a2
    1810:	71863603          	ld	a2,1816(a2) # 1718 <.LBB41_3+0x1dc>
    1814:	00c58633          	add	a2,a1,a2
    1818:	000015b7          	lui	a1,0x1
    181c:	40b405b3          	sub	a1,s0,a1
    1820:	70c5bc23          	sd	a2,1816(a1) # 1718 <.LBB41_3+0x1dc>
    1824:	000e0393          	mv	t2,t3
    1828:	e9c43023          	sd	t3,-384(s0)
    182c:	03c505b3          	mul	a1,a0,t3
    1830:	00001637          	lui	a2,0x1
    1834:	40c40633          	sub	a2,s0,a2
    1838:	71063603          	ld	a2,1808(a2) # 1710 <.LBB41_3+0x1d4>
    183c:	00c58633          	add	a2,a1,a2
    1840:	000015b7          	lui	a1,0x1
    1844:	40b405b3          	sub	a1,s0,a1
    1848:	70c5b823          	sd	a2,1808(a1) # 1710 <.LBB41_3+0x1d4>
    184c:	e7d43c23          	sd	t4,-392(s0)
    1850:	03d505b3          	mul	a1,a0,t4
    1854:	00001637          	lui	a2,0x1
    1858:	40c40633          	sub	a2,s0,a2
    185c:	70863603          	ld	a2,1800(a2) # 1708 <.LBB41_3+0x1cc>
    1860:	00c58633          	add	a2,a1,a2
    1864:	000015b7          	lui	a1,0x1
    1868:	40b405b3          	sub	a1,s0,a1
    186c:	70c5b423          	sd	a2,1800(a1) # 1708 <.LBB41_3+0x1cc>
    1870:	03a505b3          	mul	a1,a0,s10
    1874:	00001637          	lui	a2,0x1
    1878:	40c40633          	sub	a2,s0,a2
    187c:	70063603          	ld	a2,1792(a2) # 1700 <.LBB41_3+0x1c4>
    1880:	00c58633          	add	a2,a1,a2
    1884:	000015b7          	lui	a1,0x1
    1888:	40b405b3          	sub	a1,s0,a1
    188c:	70c5b023          	sd	a2,1792(a1) # 1700 <.LBB41_3+0x1c4>
    1890:	e3843283          	ld	t0,-456(s0)
    1894:	025505b3          	mul	a1,a0,t0
    1898:	00001637          	lui	a2,0x1
    189c:	40c40633          	sub	a2,s0,a2
    18a0:	6f863603          	ld	a2,1784(a2) # 16f8 <.LBB41_3+0x1bc>
    18a4:	00c58633          	add	a2,a1,a2
    18a8:	000015b7          	lui	a1,0x1
    18ac:	40b405b3          	sub	a1,s0,a1
    18b0:	6ec5bc23          	sd	a2,1784(a1) # 16f8 <.LBB41_3+0x1bc>
    18b4:	030505b3          	mul	a1,a0,a6
    18b8:	00001637          	lui	a2,0x1
    18bc:	40c40633          	sub	a2,s0,a2
    18c0:	6f063603          	ld	a2,1776(a2) # 16f0 <.LBB41_3+0x1b4>
    18c4:	00c58633          	add	a2,a1,a2
    18c8:	000015b7          	lui	a1,0x1
    18cc:	40b405b3          	sub	a1,s0,a1
    18d0:	6ec5b823          	sd	a2,1776(a1) # 16f0 <.LBB41_3+0x1b4>
    18d4:	037505b3          	mul	a1,a0,s7
    18d8:	00001637          	lui	a2,0x1
    18dc:	40c40633          	sub	a2,s0,a2
    18e0:	6e863603          	ld	a2,1768(a2) # 16e8 <.LBB41_3+0x1ac>
    18e4:	00c58633          	add	a2,a1,a2
    18e8:	000015b7          	lui	a1,0x1
    18ec:	40b405b3          	sub	a1,s0,a1
    18f0:	6ec5b423          	sd	a2,1768(a1) # 16e8 <.LBB41_3+0x1ac>
    18f4:	026505b3          	mul	a1,a0,t1
    18f8:	00001637          	lui	a2,0x1
    18fc:	40c40633          	sub	a2,s0,a2
    1900:	6e063603          	ld	a2,1760(a2) # 16e0 <.LBB41_3+0x1a4>
    1904:	00c58633          	add	a2,a1,a2
    1908:	000015b7          	lui	a1,0x1
    190c:	40b405b3          	sub	a1,s0,a1
    1910:	6ec5b023          	sd	a2,1760(a1) # 16e0 <.LBB41_3+0x1a4>
    1914:	034505b3          	mul	a1,a0,s4
    1918:	00001637          	lui	a2,0x1
    191c:	40c40633          	sub	a2,s0,a2
    1920:	6d863603          	ld	a2,1752(a2) # 16d8 <.LBB41_3+0x19c>
    1924:	00c58633          	add	a2,a1,a2
    1928:	000015b7          	lui	a1,0x1
    192c:	40b405b3          	sub	a1,s0,a1
    1930:	6cc5bc23          	sd	a2,1752(a1) # 16d8 <.LBB41_3+0x19c>
    1934:	035505b3          	mul	a1,a0,s5
    1938:	00001637          	lui	a2,0x1
    193c:	40c40633          	sub	a2,s0,a2
    1940:	6d063603          	ld	a2,1744(a2) # 16d0 <.LBB41_3+0x194>
    1944:	00c58633          	add	a2,a1,a2
    1948:	000015b7          	lui	a1,0x1
    194c:	40b405b3          	sub	a1,s0,a1
    1950:	6cc5b823          	sd	a2,1744(a1) # 16d0 <.LBB41_3+0x194>
    1954:	03e505b3          	mul	a1,a0,t5
    1958:	00001637          	lui	a2,0x1
    195c:	40c40633          	sub	a2,s0,a2
    1960:	6c863603          	ld	a2,1736(a2) # 16c8 <.LBB41_3+0x18c>
    1964:	00c58633          	add	a2,a1,a2
    1968:	000015b7          	lui	a1,0x1
    196c:	40b405b3          	sub	a1,s0,a1
    1970:	6cc5b423          	sd	a2,1736(a1) # 16c8 <.LBB41_3+0x18c>
    1974:	019f8883          	lb	a7,25(t6)
    1978:	021505b3          	mul	a1,a0,ra
    197c:	00001637          	lui	a2,0x1
    1980:	40c40633          	sub	a2,s0,a2
    1984:	6c063603          	ld	a2,1728(a2) # 16c0 <.LBB41_3+0x184>
    1988:	00c58633          	add	a2,a1,a2
    198c:	000015b7          	lui	a1,0x1
    1990:	40b405b3          	sub	a1,s0,a1
    1994:	6cc5b023          	sd	a2,1728(a1) # 16c0 <.LBB41_3+0x184>
    1998:	01af8a03          	lb	s4,26(t6)
    199c:	031505b3          	mul	a1,a0,a7
    19a0:	00001637          	lui	a2,0x1
    19a4:	40c40633          	sub	a2,s0,a2
    19a8:	6b063603          	ld	a2,1712(a2) # 16b0 <.LBB41_3+0x174>
    19ac:	00c58633          	add	a2,a1,a2
    19b0:	000015b7          	lui	a1,0x1
    19b4:	40b405b3          	sub	a1,s0,a1
    19b8:	6ac5b823          	sd	a2,1712(a1) # 16b0 <.LBB41_3+0x174>
    19bc:	01bf8a83          	lb	s5,27(t6)
    19c0:	034505b3          	mul	a1,a0,s4
    19c4:	00001637          	lui	a2,0x1
    19c8:	40c40633          	sub	a2,s0,a2
    19cc:	6a863603          	ld	a2,1704(a2) # 16a8 <.LBB41_3+0x16c>
    19d0:	00c58633          	add	a2,a1,a2
    19d4:	000015b7          	lui	a1,0x1
    19d8:	40b405b3          	sub	a1,s0,a1
    19dc:	6ac5b423          	sd	a2,1704(a1) # 16a8 <.LBB41_3+0x16c>
    19e0:	01cf8803          	lb	a6,28(t6)
    19e4:	e1043823          	sd	a6,-496(s0)
    19e8:	035505b3          	mul	a1,a0,s5
    19ec:	00001637          	lui	a2,0x1
    19f0:	40c40633          	sub	a2,s0,a2
    19f4:	6a063603          	ld	a2,1696(a2) # 16a0 <.LBB41_3+0x164>
    19f8:	00c58633          	add	a2,a1,a2
    19fc:	000015b7          	lui	a1,0x1
    1a00:	40b405b3          	sub	a1,s0,a1
    1a04:	6ac5b023          	sd	a2,1696(a1) # 16a0 <.LBB41_3+0x164>
    1a08:	01df8c03          	lb	s8,29(t6)
    1a0c:	030505b3          	mul	a1,a0,a6
    1a10:	00001637          	lui	a2,0x1
    1a14:	40c40633          	sub	a2,s0,a2
    1a18:	69863603          	ld	a2,1688(a2) # 1698 <.LBB41_3+0x15c>
    1a1c:	00c58633          	add	a2,a1,a2
    1a20:	000015b7          	lui	a1,0x1
    1a24:	40b405b3          	sub	a1,s0,a1
    1a28:	68c5bc23          	sd	a2,1688(a1) # 1698 <.LBB41_3+0x15c>
    1a2c:	01ef8803          	lb	a6,30(t6)
    1a30:	e3043423          	sd	a6,-472(s0)
    1a34:	038505b3          	mul	a1,a0,s8
    1a38:	00001637          	lui	a2,0x1
    1a3c:	40c40633          	sub	a2,s0,a2
    1a40:	69063603          	ld	a2,1680(a2) # 1690 <.LBB41_3+0x154>
    1a44:	00c58633          	add	a2,a1,a2
    1a48:	000015b7          	lui	a1,0x1
    1a4c:	40b405b3          	sub	a1,s0,a1
    1a50:	68c5b823          	sd	a2,1680(a1) # 1690 <.LBB41_3+0x154>
    1a54:	01ff8083          	lb	ra,31(t6)
    1a58:	f8843603          	ld	a2,-120(s0)
    1a5c:	0c060b03          	lb	s6,192(a2)
    1a60:	03050db3          	mul	s11,a0,a6
    1a64:	000015b7          	lui	a1,0x1
    1a68:	40b405b3          	sub	a1,s0,a1
    1a6c:	6885b603          	ld	a2,1672(a1) # 1688 <.LBB41_3+0x14c>
    1a70:	00cd8633          	add	a2,s11,a2
    1a74:	000015b7          	lui	a1,0x1
    1a78:	40b405b3          	sub	a1,s0,a1
    1a7c:	68c5b423          	sd	a2,1672(a1) # 1688 <.LBB41_3+0x14c>
    1a80:	02150533          	mul	a0,a0,ra
    1a84:	000015b7          	lui	a1,0x1
    1a88:	40b405b3          	sub	a1,s0,a1
    1a8c:	6b85b603          	ld	a2,1720(a1) # 16b8 <.LBB41_3+0x17c>
    1a90:	00c50633          	add	a2,a0,a2
    1a94:	00001537          	lui	a0,0x1
    1a98:	40a40533          	sub	a0,s0,a0
    1a9c:	6ac53c23          	sd	a2,1720(a0) # 16b8 <.LBB41_3+0x17c>
    1aa0:	00068f13          	mv	t5,a3
    1aa4:	e0d43423          	sd	a3,-504(s0)
    1aa8:	02db0533          	mul	a0,s6,a3
    1aac:	88843603          	ld	a2,-1912(s0)
    1ab0:	00c50633          	add	a2,a0,a2
    1ab4:	88c43423          	sd	a2,-1912(s0)
    1ab8:	e5043683          	ld	a3,-432(s0)
    1abc:	02db0533          	mul	a0,s6,a3
    1ac0:	89843603          	ld	a2,-1896(s0)
    1ac4:	00c50633          	add	a2,a0,a2
    1ac8:	88c43c23          	sd	a2,-1896(s0)
    1acc:	f2843583          	ld	a1,-216(s0)
    1ad0:	02bb0533          	mul	a0,s6,a1
    1ad4:	8a843603          	ld	a2,-1880(s0)
    1ad8:	00c50633          	add	a2,a0,a2
    1adc:	8ac43423          	sd	a2,-1880(s0)
    1ae0:	02fb0533          	mul	a0,s6,a5
    1ae4:	87843603          	ld	a2,-1928(s0)
    1ae8:	00c50633          	add	a2,a0,a2
    1aec:	86c43c23          	sd	a2,-1928(s0)
    1af0:	f6843503          	ld	a0,-152(s0)
    1af4:	02ab0533          	mul	a0,s6,a0
    1af8:	86843603          	ld	a2,-1944(s0)
    1afc:	00c50633          	add	a2,a0,a2
    1b00:	86c43423          	sd	a2,-1944(s0)
    1b04:	f6043503          	ld	a0,-160(s0)
    1b08:	02ab0533          	mul	a0,s6,a0
    1b0c:	85843603          	ld	a2,-1960(s0)
    1b10:	00c50633          	add	a2,a0,a2
    1b14:	84c43c23          	sd	a2,-1960(s0)
    1b18:	033b0533          	mul	a0,s6,s3
    1b1c:	85043603          	ld	a2,-1968(s0)
    1b20:	00c50633          	add	a2,a0,a2
    1b24:	84c43823          	sd	a2,-1968(s0)
    1b28:	f7843503          	ld	a0,-136(s0)
    1b2c:	02ab0533          	mul	a0,s6,a0
    1b30:	84843603          	ld	a2,-1976(s0)
    1b34:	00c50633          	add	a2,a0,a2
    1b38:	84c43423          	sd	a2,-1976(s0)
    1b3c:	e9043503          	ld	a0,-368(s0)
    1b40:	02ab0533          	mul	a0,s6,a0
    1b44:	84043603          	ld	a2,-1984(s0)
    1b48:	00c50633          	add	a2,a0,a2
    1b4c:	84c43023          	sd	a2,-1984(s0)
    1b50:	f5043503          	ld	a0,-176(s0)
    1b54:	02ab0533          	mul	a0,s6,a0
    1b58:	83843603          	ld	a2,-1992(s0)
    1b5c:	00c50633          	add	a2,a0,a2
    1b60:	82c43c23          	sd	a2,-1992(s0)
    1b64:	039b0533          	mul	a0,s6,s9
    1b68:	83043603          	ld	a2,-2000(s0)
    1b6c:	00c50633          	add	a2,a0,a2
    1b70:	82c43823          	sd	a2,-2000(s0)
    1b74:	032b0533          	mul	a0,s6,s2
    1b78:	82843603          	ld	a2,-2008(s0)
    1b7c:	00c50633          	add	a2,a0,a2
    1b80:	82c43423          	sd	a2,-2008(s0)
    1b84:	029b0533          	mul	a0,s6,s1
    1b88:	82043603          	ld	a2,-2016(s0)
    1b8c:	00c50633          	add	a2,a0,a2
    1b90:	82c43023          	sd	a2,-2016(s0)
    1b94:	02eb0533          	mul	a0,s6,a4
    1b98:	81843603          	ld	a2,-2024(s0)
    1b9c:	00c50633          	add	a2,a0,a2
    1ba0:	80c43c23          	sd	a2,-2024(s0)
    1ba4:	03cb0533          	mul	a0,s6,t3
    1ba8:	81043603          	ld	a2,-2032(s0)
    1bac:	00c50633          	add	a2,a0,a2
    1bb0:	80c43823          	sd	a2,-2032(s0)
    1bb4:	03db0533          	mul	a0,s6,t4
    1bb8:	80843603          	ld	a2,-2040(s0)
    1bbc:	00c50633          	add	a2,a0,a2
    1bc0:	80c43423          	sd	a2,-2040(s0)
    1bc4:	03ab0533          	mul	a0,s6,s10
    1bc8:	000d0b93          	mv	s7,s10
    1bcc:	e3a43023          	sd	s10,-480(s0)
    1bd0:	80043603          	ld	a2,-2048(s0)
    1bd4:	00c50633          	add	a2,a0,a2
    1bd8:	80c43023          	sd	a2,-2048(s0)
    1bdc:	025b0533          	mul	a0,s6,t0
    1be0:	00028313          	mv	t1,t0
    1be4:	00001637          	lui	a2,0x1
    1be8:	40c40633          	sub	a2,s0,a2
    1bec:	7f863603          	ld	a2,2040(a2) # 17f8 <.LBB41_3+0x2bc>
    1bf0:	00c50633          	add	a2,a0,a2
    1bf4:	00001537          	lui	a0,0x1
    1bf8:	40a40533          	sub	a0,s0,a0
    1bfc:	7ec53c23          	sd	a2,2040(a0) # 17f8 <.LBB41_3+0x2bc>
    1c00:	e4043803          	ld	a6,-448(s0)
    1c04:	030b0533          	mul	a0,s6,a6
    1c08:	00001637          	lui	a2,0x1
    1c0c:	40c40633          	sub	a2,s0,a2
    1c10:	7f063603          	ld	a2,2032(a2) # 17f0 <.LBB41_3+0x2b4>
    1c14:	00c50633          	add	a2,a0,a2
    1c18:	00001537          	lui	a0,0x1
    1c1c:	40a40533          	sub	a0,s0,a0
    1c20:	7ec53823          	sd	a2,2032(a0) # 17f0 <.LBB41_3+0x2b4>
    1c24:	f5843503          	ld	a0,-168(s0)
    1c28:	02ab0533          	mul	a0,s6,a0
    1c2c:	00001637          	lui	a2,0x1
    1c30:	40c40633          	sub	a2,s0,a2
    1c34:	7e863603          	ld	a2,2024(a2) # 17e8 <.LBB41_3+0x2ac>
    1c38:	00c50633          	add	a2,a0,a2
    1c3c:	00001537          	lui	a0,0x1
    1c40:	40a40533          	sub	a0,s0,a0
    1c44:	7ec53423          	sd	a2,2024(a0) # 17e8 <.LBB41_3+0x2ac>
    1c48:	f4043903          	ld	s2,-192(s0)
    1c4c:	032b0533          	mul	a0,s6,s2
    1c50:	00001637          	lui	a2,0x1
    1c54:	40c40633          	sub	a2,s0,a2
    1c58:	7e063603          	ld	a2,2016(a2) # 17e0 <.LBB41_3+0x2a4>
    1c5c:	00c50633          	add	a2,a0,a2
    1c60:	00001537          	lui	a0,0x1
    1c64:	40a40533          	sub	a0,s0,a0
    1c68:	7ec53023          	sd	a2,2016(a0) # 17e0 <.LBB41_3+0x2a4>
    1c6c:	e4843e83          	ld	t4,-440(s0)
    1c70:	03db0533          	mul	a0,s6,t4
    1c74:	00001637          	lui	a2,0x1
    1c78:	40c40633          	sub	a2,s0,a2
    1c7c:	7d863603          	ld	a2,2008(a2) # 17d8 <.LBB41_3+0x29c>
    1c80:	00c50633          	add	a2,a0,a2
    1c84:	00001537          	lui	a0,0x1
    1c88:	40a40533          	sub	a0,s0,a0
    1c8c:	7cc53c23          	sd	a2,2008(a0) # 17d8 <.LBB41_3+0x29c>
    1c90:	f7043503          	ld	a0,-144(s0)
    1c94:	02ab0533          	mul	a0,s6,a0
    1c98:	00001637          	lui	a2,0x1
    1c9c:	40c40633          	sub	a2,s0,a2
    1ca0:	7d063603          	ld	a2,2000(a2) # 17d0 <.LBB41_3+0x294>
    1ca4:	00c50633          	add	a2,a0,a2
    1ca8:	00001537          	lui	a0,0x1
    1cac:	40a40533          	sub	a0,s0,a0
    1cb0:	7cc53823          	sd	a2,2000(a0) # 17d0 <.LBB41_3+0x294>
    1cb4:	f3843483          	ld	s1,-200(s0)
    1cb8:	029b0533          	mul	a0,s6,s1
    1cbc:	00001637          	lui	a2,0x1
    1cc0:	40c40633          	sub	a2,s0,a2
    1cc4:	7c863603          	ld	a2,1992(a2) # 17c8 <.LBB41_3+0x28c>
    1cc8:	00c50633          	add	a2,a0,a2
    1ccc:	00001537          	lui	a0,0x1
    1cd0:	40a40533          	sub	a0,s0,a0
    1cd4:	7cc53423          	sd	a2,1992(a0) # 17c8 <.LBB41_3+0x28c>
    1cd8:	e7043983          	ld	s3,-400(s0)
    1cdc:	033b0533          	mul	a0,s6,s3
    1ce0:	00001637          	lui	a2,0x1
    1ce4:	40c40633          	sub	a2,s0,a2
    1ce8:	7c063603          	ld	a2,1984(a2) # 17c0 <.LBB41_3+0x284>
    1cec:	00c50633          	add	a2,a0,a2
    1cf0:	00001537          	lui	a0,0x1
    1cf4:	40a40533          	sub	a0,s0,a0
    1cf8:	7cc53023          	sd	a2,1984(a0) # 17c0 <.LBB41_3+0x284>
    1cfc:	e1143c23          	sd	a7,-488(s0)
    1d00:	031b0533          	mul	a0,s6,a7
    1d04:	00001637          	lui	a2,0x1
    1d08:	40c40633          	sub	a2,s0,a2
    1d0c:	7b863603          	ld	a2,1976(a2) # 17b8 <.LBB41_3+0x27c>
    1d10:	00c50633          	add	a2,a0,a2
    1d14:	00001537          	lui	a0,0x1
    1d18:	40a40533          	sub	a0,s0,a0
    1d1c:	7ac53c23          	sd	a2,1976(a0) # 17b8 <.LBB41_3+0x27c>
    1d20:	e7443023          	sd	s4,-416(s0)
    1d24:	034b0533          	mul	a0,s6,s4
    1d28:	00001637          	lui	a2,0x1
    1d2c:	40c40633          	sub	a2,s0,a2
    1d30:	7b063603          	ld	a2,1968(a2) # 17b0 <.LBB41_3+0x274>
    1d34:	00c50633          	add	a2,a0,a2
    1d38:	00001537          	lui	a0,0x1
    1d3c:	40a40533          	sub	a0,s0,a0
    1d40:	7ac53823          	sd	a2,1968(a0) # 17b0 <.LBB41_3+0x274>
    1d44:	035b0533          	mul	a0,s6,s5
    1d48:	00001637          	lui	a2,0x1
    1d4c:	40c40633          	sub	a2,s0,a2
    1d50:	7a063603          	ld	a2,1952(a2) # 17a0 <.LBB41_3+0x264>
    1d54:	00c50633          	add	a2,a0,a2
    1d58:	00001537          	lui	a0,0x1
    1d5c:	40a40533          	sub	a0,s0,a0
    1d60:	7ac53023          	sd	a2,1952(a0) # 17a0 <.LBB41_3+0x264>
    1d64:	e1043703          	ld	a4,-496(s0)
    1d68:	02eb0533          	mul	a0,s6,a4
    1d6c:	00001637          	lui	a2,0x1
    1d70:	40c40633          	sub	a2,s0,a2
    1d74:	79063603          	ld	a2,1936(a2) # 1790 <.LBB41_3+0x254>
    1d78:	00c50633          	add	a2,a0,a2
    1d7c:	00001537          	lui	a0,0x1
    1d80:	40a40533          	sub	a0,s0,a0
    1d84:	78c53823          	sd	a2,1936(a0) # 1790 <.LBB41_3+0x254>
    1d88:	038b0533          	mul	a0,s6,s8
    1d8c:	000c0d13          	mv	s10,s8
    1d90:	e5843c23          	sd	s8,-424(s0)
    1d94:	00001637          	lui	a2,0x1
    1d98:	40c40633          	sub	a2,s0,a2
    1d9c:	78063603          	ld	a2,1920(a2) # 1780 <.LBB41_3+0x244>
    1da0:	00c50633          	add	a2,a0,a2
    1da4:	00001537          	lui	a0,0x1
    1da8:	40a40533          	sub	a0,s0,a0
    1dac:	78c53023          	sd	a2,1920(a0) # 1780 <.LBB41_3+0x244>
    1db0:	f8843503          	ld	a0,-120(s0)
    1db4:	18050503          	lb	a0,384(a0)
    1db8:	e2843c83          	ld	s9,-472(s0)
    1dbc:	039b0db3          	mul	s11,s6,s9
    1dc0:	00001637          	lui	a2,0x1
    1dc4:	40c40633          	sub	a2,s0,a2
    1dc8:	77063603          	ld	a2,1904(a2) # 1770 <.LBB41_3+0x234>
    1dcc:	00cd8633          	add	a2,s11,a2
    1dd0:	000012b7          	lui	t0,0x1
    1dd4:	405402b3          	sub	t0,s0,t0
    1dd8:	76c2b823          	sd	a2,1904(t0) # 1770 <.LBB41_3+0x234>
    1ddc:	021b0b33          	mul	s6,s6,ra
    1de0:	00001637          	lui	a2,0x1
    1de4:	40c40633          	sub	a2,s0,a2
    1de8:	76063603          	ld	a2,1888(a2) # 1760 <.LBB41_3+0x224>
    1dec:	00cb0633          	add	a2,s6,a2
    1df0:	000012b7          	lui	t0,0x1
    1df4:	405402b3          	sub	t0,s0,t0
    1df8:	76c2b023          	sd	a2,1888(t0) # 1760 <.LBB41_3+0x224>
    1dfc:	03e50b33          	mul	s6,a0,t5
    1e00:	98843603          	ld	a2,-1656(s0)
    1e04:	00cb0633          	add	a2,s6,a2
    1e08:	98c43423          	sd	a2,-1656(s0)
    1e0c:	02d50b33          	mul	s6,a0,a3
    1e10:	00068f13          	mv	t5,a3
    1e14:	99843603          	ld	a2,-1640(s0)
    1e18:	00cb0633          	add	a2,s6,a2
    1e1c:	98c43c23          	sd	a2,-1640(s0)
    1e20:	02b50b33          	mul	s6,a0,a1
    1e24:	9a843603          	ld	a2,-1624(s0)
    1e28:	00cb0633          	add	a2,s6,a2
    1e2c:	9ac43423          	sd	a2,-1624(s0)
    1e30:	00078c13          	mv	s8,a5
    1e34:	e6f43423          	sd	a5,-408(s0)
    1e38:	02f50b33          	mul	s6,a0,a5
    1e3c:	97843603          	ld	a2,-1672(s0)
    1e40:	00cb0633          	add	a2,s6,a2
    1e44:	96c43c23          	sd	a2,-1672(s0)
    1e48:	f6843583          	ld	a1,-152(s0)
    1e4c:	02b50b33          	mul	s6,a0,a1
    1e50:	96843603          	ld	a2,-1688(s0)
    1e54:	00cb0633          	add	a2,s6,a2
    1e58:	96c43423          	sd	a2,-1688(s0)
    1e5c:	f6043783          	ld	a5,-160(s0)
    1e60:	02f50b33          	mul	s6,a0,a5
    1e64:	95843603          	ld	a2,-1704(s0)
    1e68:	00cb0633          	add	a2,s6,a2
    1e6c:	94c43c23          	sd	a2,-1704(s0)
    1e70:	f3043583          	ld	a1,-208(s0)
    1e74:	02b50b33          	mul	s6,a0,a1
    1e78:	95043603          	ld	a2,-1712(s0)
    1e7c:	00cb0633          	add	a2,s6,a2
    1e80:	94c43823          	sd	a2,-1712(s0)
    1e84:	f7843683          	ld	a3,-136(s0)
    1e88:	02d50b33          	mul	s6,a0,a3
    1e8c:	94843603          	ld	a2,-1720(s0)
    1e90:	00cb0633          	add	a2,s6,a2
    1e94:	94c43423          	sd	a2,-1720(s0)
    1e98:	e9043283          	ld	t0,-368(s0)
    1e9c:	02550b33          	mul	s6,a0,t0
    1ea0:	94043603          	ld	a2,-1728(s0)
    1ea4:	00cb0633          	add	a2,s6,a2
    1ea8:	94c43023          	sd	a2,-1728(s0)
    1eac:	f5043603          	ld	a2,-176(s0)
    1eb0:	02c50b33          	mul	s6,a0,a2
    1eb4:	93843603          	ld	a2,-1736(s0)
    1eb8:	00cb0633          	add	a2,s6,a2
    1ebc:	92c43c23          	sd	a2,-1736(s0)
    1ec0:	f4843603          	ld	a2,-184(s0)
    1ec4:	02c50b33          	mul	s6,a0,a2
    1ec8:	93043603          	ld	a2,-1744(s0)
    1ecc:	00cb0633          	add	a2,s6,a2
    1ed0:	92c43823          	sd	a2,-1744(s0)
    1ed4:	e3043e03          	ld	t3,-464(s0)
    1ed8:	03c50b33          	mul	s6,a0,t3
    1edc:	92843603          	ld	a2,-1752(s0)
    1ee0:	00cb0633          	add	a2,s6,a2
    1ee4:	92c43423          	sd	a2,-1752(s0)
    1ee8:	e8843603          	ld	a2,-376(s0)
    1eec:	02c50b33          	mul	s6,a0,a2
    1ef0:	92043603          	ld	a2,-1760(s0)
    1ef4:	00cb0633          	add	a2,s6,a2
    1ef8:	92c43023          	sd	a2,-1760(s0)
    1efc:	df843383          	ld	t2,-520(s0)
    1f00:	02750b33          	mul	s6,a0,t2
    1f04:	91843603          	ld	a2,-1768(s0)
    1f08:	00cb0633          	add	a2,s6,a2
    1f0c:	90c43c23          	sd	a2,-1768(s0)
    1f10:	e8043603          	ld	a2,-384(s0)
    1f14:	02c50b33          	mul	s6,a0,a2
    1f18:	91043603          	ld	a2,-1776(s0)
    1f1c:	00cb0633          	add	a2,s6,a2
    1f20:	90c43823          	sd	a2,-1776(s0)
    1f24:	e7843603          	ld	a2,-392(s0)
    1f28:	02c50b33          	mul	s6,a0,a2
    1f2c:	90843603          	ld	a2,-1784(s0)
    1f30:	00cb0633          	add	a2,s6,a2
    1f34:	90c43423          	sd	a2,-1784(s0)
    1f38:	03750b33          	mul	s6,a0,s7
    1f3c:	90043603          	ld	a2,-1792(s0)
    1f40:	00cb0633          	add	a2,s6,a2
    1f44:	90c43023          	sd	a2,-1792(s0)
    1f48:	02650b33          	mul	s6,a0,t1
    1f4c:	8f843603          	ld	a2,-1800(s0)
    1f50:	00cb0633          	add	a2,s6,a2
    1f54:	8ec43c23          	sd	a2,-1800(s0)
    1f58:	03050b33          	mul	s6,a0,a6
    1f5c:	8f043603          	ld	a2,-1808(s0)
    1f60:	00cb0633          	add	a2,s6,a2
    1f64:	8ec43823          	sd	a2,-1808(s0)
    1f68:	f5843303          	ld	t1,-168(s0)
    1f6c:	02650b33          	mul	s6,a0,t1
    1f70:	8e843603          	ld	a2,-1816(s0)
    1f74:	00cb0633          	add	a2,s6,a2
    1f78:	8ec43423          	sd	a2,-1816(s0)
    1f7c:	03250b33          	mul	s6,a0,s2
    1f80:	8e043603          	ld	a2,-1824(s0)
    1f84:	00cb0633          	add	a2,s6,a2
    1f88:	8ec43023          	sd	a2,-1824(s0)
    1f8c:	03d50b33          	mul	s6,a0,t4
    1f90:	000e8813          	mv	a6,t4
    1f94:	8d843603          	ld	a2,-1832(s0)
    1f98:	00cb0633          	add	a2,s6,a2
    1f9c:	8cc43c23          	sd	a2,-1832(s0)
    1fa0:	f7043b83          	ld	s7,-144(s0)
    1fa4:	03750b33          	mul	s6,a0,s7
    1fa8:	8d043603          	ld	a2,-1840(s0)
    1fac:	00cb0633          	add	a2,s6,a2
    1fb0:	8cc43823          	sd	a2,-1840(s0)
    1fb4:	02950b33          	mul	s6,a0,s1
    1fb8:	8c843603          	ld	a2,-1848(s0)
    1fbc:	00cb0633          	add	a2,s6,a2
    1fc0:	8cc43423          	sd	a2,-1848(s0)
    1fc4:	03350b33          	mul	s6,a0,s3
    1fc8:	8c043603          	ld	a2,-1856(s0)
    1fcc:	00cb0633          	add	a2,s6,a2
    1fd0:	8cc43023          	sd	a2,-1856(s0)
    1fd4:	03150b33          	mul	s6,a0,a7
    1fd8:	8b843603          	ld	a2,-1864(s0)
    1fdc:	00cb0633          	add	a2,s6,a2
    1fe0:	8ac43c23          	sd	a2,-1864(s0)
    1fe4:	03450b33          	mul	s6,a0,s4
    1fe8:	8b043603          	ld	a2,-1872(s0)
    1fec:	00cb0633          	add	a2,s6,a2
    1ff0:	8ac43823          	sd	a2,-1872(s0)
    1ff4:	03550b33          	mul	s6,a0,s5
    1ff8:	e1543023          	sd	s5,-512(s0)
    1ffc:	8a043603          	ld	a2,-1888(s0)
    2000:	00cb0633          	add	a2,s6,a2
    2004:	8ac43023          	sd	a2,-1888(s0)
    2008:	02e50b33          	mul	s6,a0,a4
    200c:	00070913          	mv	s2,a4
    2010:	89043603          	ld	a2,-1904(s0)
    2014:	00cb0633          	add	a2,s6,a2
    2018:	88c43823          	sd	a2,-1904(s0)
    201c:	03a50b33          	mul	s6,a0,s10
    2020:	88043603          	ld	a2,-1920(s0)
    2024:	00cb0633          	add	a2,s6,a2
    2028:	88c43023          	sd	a2,-1920(s0)
    202c:	f8843603          	ld	a2,-120(s0)
    2030:	24060b03          	lb	s6,576(a2)
    2034:	03950db3          	mul	s11,a0,s9
    2038:	000c8a13          	mv	s4,s9
    203c:	87043603          	ld	a2,-1936(s0)
    2040:	00cd8633          	add	a2,s11,a2
    2044:	86c43823          	sd	a2,-1936(s0)
    2048:	02150533          	mul	a0,a0,ra
    204c:	00001637          	lui	a2,0x1
    2050:	40c40633          	sub	a2,s0,a2
    2054:	66163c23          	sd	ra,1656(a2) # 1678 <.LBB41_3+0x13c>
    2058:	86043603          	ld	a2,-1952(s0)
    205c:	00c50633          	add	a2,a0,a2
    2060:	86c43023          	sd	a2,-1952(s0)
    2064:	e0843e83          	ld	t4,-504(s0)
    2068:	03db0533          	mul	a0,s6,t4
    206c:	a8843603          	ld	a2,-1400(s0)
    2070:	00c50633          	add	a2,a0,a2
    2074:	a8c43423          	sd	a2,-1400(s0)
    2078:	03eb0533          	mul	a0,s6,t5
    207c:	a9843603          	ld	a2,-1384(s0)
    2080:	00c50633          	add	a2,a0,a2
    2084:	a8c43c23          	sd	a2,-1384(s0)
    2088:	f2843703          	ld	a4,-216(s0)
    208c:	02eb0533          	mul	a0,s6,a4
    2090:	aa843603          	ld	a2,-1368(s0)
    2094:	00c50633          	add	a2,a0,a2
    2098:	aac43423          	sd	a2,-1368(s0)
    209c:	038b0533          	mul	a0,s6,s8
    20a0:	a7843603          	ld	a2,-1416(s0)
    20a4:	00c50633          	add	a2,a0,a2
    20a8:	a6c43c23          	sd	a2,-1416(s0)
    20ac:	f6843c03          	ld	s8,-152(s0)
    20b0:	038b0533          	mul	a0,s6,s8
    20b4:	a6843603          	ld	a2,-1432(s0)
    20b8:	00c50633          	add	a2,a0,a2
    20bc:	a6c43423          	sd	a2,-1432(s0)
    20c0:	02fb0533          	mul	a0,s6,a5
    20c4:	a5843603          	ld	a2,-1448(s0)
    20c8:	00c50633          	add	a2,a0,a2
    20cc:	a4c43c23          	sd	a2,-1448(s0)
    20d0:	02bb0533          	mul	a0,s6,a1
    20d4:	a5043603          	ld	a2,-1456(s0)
    20d8:	00c50633          	add	a2,a0,a2
    20dc:	a4c43823          	sd	a2,-1456(s0)
    20e0:	02db0533          	mul	a0,s6,a3
    20e4:	a4843603          	ld	a2,-1464(s0)
    20e8:	00c50633          	add	a2,a0,a2
    20ec:	a4c43423          	sd	a2,-1464(s0)
    20f0:	025b0533          	mul	a0,s6,t0
    20f4:	a4043603          	ld	a2,-1472(s0)
    20f8:	00c50633          	add	a2,a0,a2
    20fc:	a4c43023          	sd	a2,-1472(s0)
    2100:	f5043c83          	ld	s9,-176(s0)
    2104:	039b0533          	mul	a0,s6,s9
    2108:	a3843603          	ld	a2,-1480(s0)
    210c:	00c50633          	add	a2,a0,a2
    2110:	a2c43c23          	sd	a2,-1480(s0)
    2114:	f4843583          	ld	a1,-184(s0)
    2118:	02bb0533          	mul	a0,s6,a1
    211c:	a3043603          	ld	a2,-1488(s0)
    2120:	00c50633          	add	a2,a0,a2
    2124:	a2c43823          	sd	a2,-1488(s0)
    2128:	03cb0533          	mul	a0,s6,t3
    212c:	a2843603          	ld	a2,-1496(s0)
    2130:	00c50633          	add	a2,a0,a2
    2134:	a2c43423          	sd	a2,-1496(s0)
    2138:	e8843483          	ld	s1,-376(s0)
    213c:	029b0533          	mul	a0,s6,s1
    2140:	a2043603          	ld	a2,-1504(s0)
    2144:	00c50633          	add	a2,a0,a2
    2148:	a2c43023          	sd	a2,-1504(s0)
    214c:	027b0533          	mul	a0,s6,t2
    2150:	a1843603          	ld	a2,-1512(s0)
    2154:	00c50633          	add	a2,a0,a2
    2158:	a0c43c23          	sd	a2,-1512(s0)
    215c:	e8043383          	ld	t2,-384(s0)
    2160:	027b0533          	mul	a0,s6,t2
    2164:	a1043603          	ld	a2,-1520(s0)
    2168:	00c50633          	add	a2,a0,a2
    216c:	a0c43823          	sd	a2,-1520(s0)
    2170:	e7843e03          	ld	t3,-392(s0)
    2174:	03cb0533          	mul	a0,s6,t3
    2178:	a0843603          	ld	a2,-1528(s0)
    217c:	00c50633          	add	a2,a0,a2
    2180:	a0c43423          	sd	a2,-1528(s0)
    2184:	e2043503          	ld	a0,-480(s0)
    2188:	02ab0533          	mul	a0,s6,a0
    218c:	a0043603          	ld	a2,-1536(s0)
    2190:	00c50633          	add	a2,a0,a2
    2194:	a0c43023          	sd	a2,-1536(s0)
    2198:	e3843883          	ld	a7,-456(s0)
    219c:	031b0533          	mul	a0,s6,a7
    21a0:	9f843603          	ld	a2,-1544(s0)
    21a4:	00c50633          	add	a2,a0,a2
    21a8:	9ec43c23          	sd	a2,-1544(s0)
    21ac:	e4043d03          	ld	s10,-448(s0)
    21b0:	03ab0533          	mul	a0,s6,s10
    21b4:	9f043603          	ld	a2,-1552(s0)
    21b8:	00c50633          	add	a2,a0,a2
    21bc:	9ec43823          	sd	a2,-1552(s0)
    21c0:	026b0533          	mul	a0,s6,t1
    21c4:	9e843603          	ld	a2,-1560(s0)
    21c8:	00c50633          	add	a2,a0,a2
    21cc:	9ec43423          	sd	a2,-1560(s0)
    21d0:	f4043983          	ld	s3,-192(s0)
    21d4:	033b0533          	mul	a0,s6,s3
    21d8:	9e043603          	ld	a2,-1568(s0)
    21dc:	00c50633          	add	a2,a0,a2
    21e0:	9ec43023          	sd	a2,-1568(s0)
    21e4:	030b0533          	mul	a0,s6,a6
    21e8:	9d843603          	ld	a2,-1576(s0)
    21ec:	00c50633          	add	a2,a0,a2
    21f0:	9cc43c23          	sd	a2,-1576(s0)
    21f4:	037b0533          	mul	a0,s6,s7
    21f8:	9d043603          	ld	a2,-1584(s0)
    21fc:	00c50633          	add	a2,a0,a2
    2200:	9cc43823          	sd	a2,-1584(s0)
    2204:	f3843b83          	ld	s7,-200(s0)
    2208:	037b0533          	mul	a0,s6,s7
    220c:	9c843603          	ld	a2,-1592(s0)
    2210:	00c50633          	add	a2,a0,a2
    2214:	9cc43423          	sd	a2,-1592(s0)
    2218:	e7043503          	ld	a0,-400(s0)
    221c:	02ab0533          	mul	a0,s6,a0
    2220:	9c043603          	ld	a2,-1600(s0)
    2224:	00c50633          	add	a2,a0,a2
    2228:	9cc43023          	sd	a2,-1600(s0)
    222c:	e1843503          	ld	a0,-488(s0)
    2230:	02ab0533          	mul	a0,s6,a0
    2234:	9b843603          	ld	a2,-1608(s0)
    2238:	00c50633          	add	a2,a0,a2
    223c:	9ac43c23          	sd	a2,-1608(s0)
    2240:	e6043803          	ld	a6,-416(s0)
    2244:	030b0533          	mul	a0,s6,a6
    2248:	9b043603          	ld	a2,-1616(s0)
    224c:	00c50633          	add	a2,a0,a2
    2250:	9ac43823          	sd	a2,-1616(s0)
    2254:	035b0533          	mul	a0,s6,s5
    2258:	9a043603          	ld	a2,-1632(s0)
    225c:	00c50633          	add	a2,a0,a2
    2260:	9ac43023          	sd	a2,-1632(s0)
    2264:	032b0533          	mul	a0,s6,s2
    2268:	99043603          	ld	a2,-1648(s0)
    226c:	00c50633          	add	a2,a0,a2
    2270:	98c43823          	sd	a2,-1648(s0)
    2274:	e5843283          	ld	t0,-424(s0)
    2278:	025b0533          	mul	a0,s6,t0
    227c:	98043603          	ld	a2,-1664(s0)
    2280:	00c50633          	add	a2,a0,a2
    2284:	98c43023          	sd	a2,-1664(s0)
    2288:	f8843503          	ld	a0,-120(s0)
    228c:	30050503          	lb	a0,768(a0)
    2290:	034b0db3          	mul	s11,s6,s4
    2294:	97043603          	ld	a2,-1680(s0)
    2298:	00cd8633          	add	a2,s11,a2
    229c:	96c43823          	sd	a2,-1680(s0)
    22a0:	021b0b33          	mul	s6,s6,ra
    22a4:	96043603          	ld	a2,-1696(s0)
    22a8:	00cb0633          	add	a2,s6,a2
    22ac:	96c43023          	sd	a2,-1696(s0)
    22b0:	03d50b33          	mul	s6,a0,t4
    22b4:	b8843603          	ld	a2,-1144(s0)
    22b8:	00cb0633          	add	a2,s6,a2
    22bc:	b8c43423          	sd	a2,-1144(s0)
    22c0:	03e50b33          	mul	s6,a0,t5
    22c4:	b9843603          	ld	a2,-1128(s0)
    22c8:	00cb0633          	add	a2,s6,a2
    22cc:	b8c43c23          	sd	a2,-1128(s0)
    22d0:	02e50b33          	mul	s6,a0,a4
    22d4:	ba843603          	ld	a2,-1112(s0)
    22d8:	00cb0633          	add	a2,s6,a2
    22dc:	bac43423          	sd	a2,-1112(s0)
    22e0:	e6843783          	ld	a5,-408(s0)
    22e4:	02f50b33          	mul	s6,a0,a5
    22e8:	b7843603          	ld	a2,-1160(s0)
    22ec:	00cb0633          	add	a2,s6,a2
    22f0:	b6c43c23          	sd	a2,-1160(s0)
    22f4:	000c0693          	mv	a3,s8
    22f8:	03850b33          	mul	s6,a0,s8
    22fc:	b6843603          	ld	a2,-1176(s0)
    2300:	00cb0633          	add	a2,s6,a2
    2304:	b6c43423          	sd	a2,-1176(s0)
    2308:	f6043a03          	ld	s4,-160(s0)
    230c:	03450b33          	mul	s6,a0,s4
    2310:	b5843603          	ld	a2,-1192(s0)
    2314:	00cb0633          	add	a2,s6,a2
    2318:	b4c43c23          	sd	a2,-1192(s0)
    231c:	f3043083          	ld	ra,-208(s0)
    2320:	02150b33          	mul	s6,a0,ra
    2324:	b5043603          	ld	a2,-1200(s0)
    2328:	00cb0633          	add	a2,s6,a2
    232c:	b4c43823          	sd	a2,-1200(s0)
    2330:	f7843a83          	ld	s5,-136(s0)
    2334:	03550b33          	mul	s6,a0,s5
    2338:	b4843603          	ld	a2,-1208(s0)
    233c:	00cb0633          	add	a2,s6,a2
    2340:	b4c43423          	sd	a2,-1208(s0)
    2344:	e9043703          	ld	a4,-368(s0)
    2348:	02e50b33          	mul	s6,a0,a4
    234c:	b4043603          	ld	a2,-1216(s0)
    2350:	00cb0633          	add	a2,s6,a2
    2354:	b4c43023          	sd	a2,-1216(s0)
    2358:	03950b33          	mul	s6,a0,s9
    235c:	b3843603          	ld	a2,-1224(s0)
    2360:	00cb0633          	add	a2,s6,a2
    2364:	b2c43c23          	sd	a2,-1224(s0)
    2368:	02b50b33          	mul	s6,a0,a1
    236c:	b3043603          	ld	a2,-1232(s0)
    2370:	00cb0633          	add	a2,s6,a2
    2374:	b2c43823          	sd	a2,-1232(s0)
    2378:	e3043903          	ld	s2,-464(s0)
    237c:	03250b33          	mul	s6,a0,s2
    2380:	b2843603          	ld	a2,-1240(s0)
    2384:	00cb0633          	add	a2,s6,a2
    2388:	b2c43423          	sd	a2,-1240(s0)
    238c:	02950b33          	mul	s6,a0,s1
    2390:	b2043603          	ld	a2,-1248(s0)
    2394:	00cb0633          	add	a2,s6,a2
    2398:	b2c43023          	sd	a2,-1248(s0)
    239c:	df843f03          	ld	t5,-520(s0)
    23a0:	03e50b33          	mul	s6,a0,t5
    23a4:	b1843603          	ld	a2,-1256(s0)
    23a8:	00cb0633          	add	a2,s6,a2
    23ac:	b0c43c23          	sd	a2,-1256(s0)
    23b0:	02750b33          	mul	s6,a0,t2
    23b4:	b1043603          	ld	a2,-1264(s0)
    23b8:	00cb0633          	add	a2,s6,a2
    23bc:	b0c43823          	sd	a2,-1264(s0)
    23c0:	000e0593          	mv	a1,t3
    23c4:	03c50b33          	mul	s6,a0,t3
    23c8:	b0843603          	ld	a2,-1272(s0)
    23cc:	00cb0633          	add	a2,s6,a2
    23d0:	b0c43423          	sd	a2,-1272(s0)
    23d4:	e2043c03          	ld	s8,-480(s0)
    23d8:	03850b33          	mul	s6,a0,s8
    23dc:	b0043603          	ld	a2,-1280(s0)
    23e0:	00cb0633          	add	a2,s6,a2
    23e4:	b0c43023          	sd	a2,-1280(s0)
    23e8:	03150b33          	mul	s6,a0,a7
    23ec:	af843603          	ld	a2,-1288(s0)
    23f0:	00cb0633          	add	a2,s6,a2
    23f4:	aec43c23          	sd	a2,-1288(s0)
    23f8:	03a50b33          	mul	s6,a0,s10
    23fc:	af043603          	ld	a2,-1296(s0)
    2400:	00cb0633          	add	a2,s6,a2
    2404:	aec43823          	sd	a2,-1296(s0)
    2408:	02650b33          	mul	s6,a0,t1
    240c:	ae843603          	ld	a2,-1304(s0)
    2410:	00cb0633          	add	a2,s6,a2
    2414:	aec43423          	sd	a2,-1304(s0)
    2418:	03350b33          	mul	s6,a0,s3
    241c:	ae043603          	ld	a2,-1312(s0)
    2420:	00cb0633          	add	a2,s6,a2
    2424:	aec43023          	sd	a2,-1312(s0)
    2428:	e4843983          	ld	s3,-440(s0)
    242c:	03350b33          	mul	s6,a0,s3
    2430:	ad843603          	ld	a2,-1320(s0)
    2434:	00cb0633          	add	a2,s6,a2
    2438:	acc43c23          	sd	a2,-1320(s0)
    243c:	f7043603          	ld	a2,-144(s0)
    2440:	02c50b33          	mul	s6,a0,a2
    2444:	ad043603          	ld	a2,-1328(s0)
    2448:	00cb0633          	add	a2,s6,a2
    244c:	acc43823          	sd	a2,-1328(s0)
    2450:	03750b33          	mul	s6,a0,s7
    2454:	ac843603          	ld	a2,-1336(s0)
    2458:	00cb0633          	add	a2,s6,a2
    245c:	acc43423          	sd	a2,-1336(s0)
    2460:	e7043b83          	ld	s7,-400(s0)
    2464:	03750b33          	mul	s6,a0,s7
    2468:	ac043603          	ld	a2,-1344(s0)
    246c:	00cb0633          	add	a2,s6,a2
    2470:	acc43023          	sd	a2,-1344(s0)
    2474:	e1843c83          	ld	s9,-488(s0)
    2478:	03950b33          	mul	s6,a0,s9
    247c:	ab843603          	ld	a2,-1352(s0)
    2480:	00cb0633          	add	a2,s6,a2
    2484:	aac43c23          	sd	a2,-1352(s0)
    2488:	03050b33          	mul	s6,a0,a6
    248c:	ab043603          	ld	a2,-1360(s0)
    2490:	00cb0633          	add	a2,s6,a2
    2494:	aac43823          	sd	a2,-1360(s0)
    2498:	e0043803          	ld	a6,-512(s0)
    249c:	03050b33          	mul	s6,a0,a6
    24a0:	aa043603          	ld	a2,-1376(s0)
    24a4:	00cb0633          	add	a2,s6,a2
    24a8:	aac43023          	sd	a2,-1376(s0)
    24ac:	e1043303          	ld	t1,-496(s0)
    24b0:	02650b33          	mul	s6,a0,t1
    24b4:	a9043603          	ld	a2,-1392(s0)
    24b8:	00cb0633          	add	a2,s6,a2
    24bc:	a8c43823          	sd	a2,-1392(s0)
    24c0:	02550b33          	mul	s6,a0,t0
    24c4:	a8043603          	ld	a2,-1408(s0)
    24c8:	00cb0633          	add	a2,s6,a2
    24cc:	a8c43023          	sd	a2,-1408(s0)
    24d0:	f8843603          	ld	a2,-120(s0)
    24d4:	3c060b03          	lb	s6,960(a2)
    24d8:	e2843283          	ld	t0,-472(s0)
    24dc:	02550db3          	mul	s11,a0,t0
    24e0:	a7043603          	ld	a2,-1424(s0)
    24e4:	00cd8633          	add	a2,s11,a2
    24e8:	a6c43823          	sd	a2,-1424(s0)
    24ec:	00001637          	lui	a2,0x1
    24f0:	40c40633          	sub	a2,s0,a2
    24f4:	67863d03          	ld	s10,1656(a2) # 1678 <.LBB41_3+0x13c>
    24f8:	03a50533          	mul	a0,a0,s10
    24fc:	a6043603          	ld	a2,-1440(s0)
    2500:	00c50633          	add	a2,a0,a2
    2504:	a6c43023          	sd	a2,-1440(s0)
    2508:	000e8893          	mv	a7,t4
    250c:	03db0533          	mul	a0,s6,t4
    2510:	c8843603          	ld	a2,-888(s0)
    2514:	00c50633          	add	a2,a0,a2
    2518:	c8c43423          	sd	a2,-888(s0)
    251c:	e5043e03          	ld	t3,-432(s0)
    2520:	03cb0533          	mul	a0,s6,t3
    2524:	c9843603          	ld	a2,-872(s0)
    2528:	00c50633          	add	a2,a0,a2
    252c:	c8c43c23          	sd	a2,-872(s0)
    2530:	f2843e83          	ld	t4,-216(s0)
    2534:	03db0533          	mul	a0,s6,t4
    2538:	ca843603          	ld	a2,-856(s0)
    253c:	00c50633          	add	a2,a0,a2
    2540:	cac43423          	sd	a2,-856(s0)
    2544:	02fb0533          	mul	a0,s6,a5
    2548:	c7843603          	ld	a2,-904(s0)
    254c:	00c50633          	add	a2,a0,a2
    2550:	c6c43c23          	sd	a2,-904(s0)
    2554:	02db0533          	mul	a0,s6,a3
    2558:	c6843603          	ld	a2,-920(s0)
    255c:	00c50633          	add	a2,a0,a2
    2560:	c6c43423          	sd	a2,-920(s0)
    2564:	034b0533          	mul	a0,s6,s4
    2568:	c5843603          	ld	a2,-936(s0)
    256c:	00c50633          	add	a2,a0,a2
    2570:	c4c43c23          	sd	a2,-936(s0)
    2574:	021b0533          	mul	a0,s6,ra
    2578:	c5043603          	ld	a2,-944(s0)
    257c:	00c50633          	add	a2,a0,a2
    2580:	c4c43823          	sd	a2,-944(s0)
    2584:	035b0533          	mul	a0,s6,s5
    2588:	c4843603          	ld	a2,-952(s0)
    258c:	00c50633          	add	a2,a0,a2
    2590:	c4c43423          	sd	a2,-952(s0)
    2594:	02eb0533          	mul	a0,s6,a4
    2598:	00070093          	mv	ra,a4
    259c:	c4043603          	ld	a2,-960(s0)
    25a0:	00c50633          	add	a2,a0,a2
    25a4:	c4c43023          	sd	a2,-960(s0)
    25a8:	f5043a83          	ld	s5,-176(s0)
    25ac:	035b0533          	mul	a0,s6,s5
    25b0:	c3843603          	ld	a2,-968(s0)
    25b4:	00c50633          	add	a2,a0,a2
    25b8:	c2c43c23          	sd	a2,-968(s0)
    25bc:	f4843503          	ld	a0,-184(s0)
    25c0:	02ab0533          	mul	a0,s6,a0
    25c4:	c3043603          	ld	a2,-976(s0)
    25c8:	00c50633          	add	a2,a0,a2
    25cc:	c2c43823          	sd	a2,-976(s0)
    25d0:	032b0533          	mul	a0,s6,s2
    25d4:	c2843603          	ld	a2,-984(s0)
    25d8:	00c50633          	add	a2,a0,a2
    25dc:	c2c43423          	sd	a2,-984(s0)
    25e0:	029b0533          	mul	a0,s6,s1
    25e4:	c2043603          	ld	a2,-992(s0)
    25e8:	00c50633          	add	a2,a0,a2
    25ec:	c2c43023          	sd	a2,-992(s0)
    25f0:	03eb0533          	mul	a0,s6,t5
    25f4:	000f0a13          	mv	s4,t5
    25f8:	c1843603          	ld	a2,-1000(s0)
    25fc:	00c50633          	add	a2,a0,a2
    2600:	c0c43c23          	sd	a2,-1000(s0)
    2604:	027b0533          	mul	a0,s6,t2
    2608:	c1043603          	ld	a2,-1008(s0)
    260c:	00c50633          	add	a2,a0,a2
    2610:	c0c43823          	sd	a2,-1008(s0)
    2614:	02bb0533          	mul	a0,s6,a1
    2618:	c0843603          	ld	a2,-1016(s0)
    261c:	00c50633          	add	a2,a0,a2
    2620:	c0c43423          	sd	a2,-1016(s0)
    2624:	038b0533          	mul	a0,s6,s8
    2628:	c0043603          	ld	a2,-1024(s0)
    262c:	00c50633          	add	a2,a0,a2
    2630:	c0c43023          	sd	a2,-1024(s0)
    2634:	e3843f03          	ld	t5,-456(s0)
    2638:	03eb0533          	mul	a0,s6,t5
    263c:	bf843603          	ld	a2,-1032(s0)
    2640:	00c50633          	add	a2,a0,a2
    2644:	bec43c23          	sd	a2,-1032(s0)
    2648:	e4043383          	ld	t2,-448(s0)
    264c:	027b0533          	mul	a0,s6,t2
    2650:	bf043603          	ld	a2,-1040(s0)
    2654:	00c50633          	add	a2,a0,a2
    2658:	bec43823          	sd	a2,-1040(s0)
    265c:	f5843503          	ld	a0,-168(s0)
    2660:	02ab0533          	mul	a0,s6,a0
    2664:	be843603          	ld	a2,-1048(s0)
    2668:	00c50633          	add	a2,a0,a2
    266c:	bec43423          	sd	a2,-1048(s0)
    2670:	f4043503          	ld	a0,-192(s0)
    2674:	02ab0533          	mul	a0,s6,a0
    2678:	be043603          	ld	a2,-1056(s0)
    267c:	00c50633          	add	a2,a0,a2
    2680:	bec43023          	sd	a2,-1056(s0)
    2684:	033b0533          	mul	a0,s6,s3
    2688:	bd843603          	ld	a2,-1064(s0)
    268c:	00c50633          	add	a2,a0,a2
    2690:	bcc43c23          	sd	a2,-1064(s0)
    2694:	f7043503          	ld	a0,-144(s0)
    2698:	02ab0533          	mul	a0,s6,a0
    269c:	bd043603          	ld	a2,-1072(s0)
    26a0:	00c50633          	add	a2,a0,a2
    26a4:	bcc43823          	sd	a2,-1072(s0)
    26a8:	f3843503          	ld	a0,-200(s0)
    26ac:	02ab0533          	mul	a0,s6,a0
    26b0:	bc843603          	ld	a2,-1080(s0)
    26b4:	00c50633          	add	a2,a0,a2
    26b8:	bcc43423          	sd	a2,-1080(s0)
    26bc:	000b8793          	mv	a5,s7
    26c0:	037b0533          	mul	a0,s6,s7
    26c4:	bc043603          	ld	a2,-1088(s0)
    26c8:	00c50633          	add	a2,a0,a2
    26cc:	bcc43023          	sd	a2,-1088(s0)
    26d0:	000c8713          	mv	a4,s9
    26d4:	039b0533          	mul	a0,s6,s9
    26d8:	bb843603          	ld	a2,-1096(s0)
    26dc:	00c50633          	add	a2,a0,a2
    26e0:	bac43c23          	sd	a2,-1096(s0)
    26e4:	e6043503          	ld	a0,-416(s0)
    26e8:	02ab0533          	mul	a0,s6,a0
    26ec:	bb043603          	ld	a2,-1104(s0)
    26f0:	00c50633          	add	a2,a0,a2
    26f4:	bac43823          	sd	a2,-1104(s0)
    26f8:	030b0533          	mul	a0,s6,a6
    26fc:	ba043603          	ld	a2,-1120(s0)
    2700:	00c50633          	add	a2,a0,a2
    2704:	bac43023          	sd	a2,-1120(s0)
    2708:	00030693          	mv	a3,t1
    270c:	026b0533          	mul	a0,s6,t1
    2710:	b9043603          	ld	a2,-1136(s0)
    2714:	00c50633          	add	a2,a0,a2
    2718:	b8c43823          	sd	a2,-1136(s0)
    271c:	e5843503          	ld	a0,-424(s0)
    2720:	02ab0533          	mul	a0,s6,a0
    2724:	b8043603          	ld	a2,-1152(s0)
    2728:	00c50633          	add	a2,a0,a2
    272c:	b8c43023          	sd	a2,-1152(s0)
    2730:	f8843503          	ld	a0,-120(s0)
    2734:	48050503          	lb	a0,1152(a0)
    2738:	025b0db3          	mul	s11,s6,t0
    273c:	b7043603          	ld	a2,-1168(s0)
    2740:	00cd8633          	add	a2,s11,a2
    2744:	b6c43823          	sd	a2,-1168(s0)
    2748:	000d0293          	mv	t0,s10
    274c:	03ab0b33          	mul	s6,s6,s10
    2750:	b6043603          	ld	a2,-1184(s0)
    2754:	00cb0633          	add	a2,s6,a2
    2758:	b6c43023          	sd	a2,-1184(s0)
    275c:	03150b33          	mul	s6,a0,a7
    2760:	d8843603          	ld	a2,-632(s0)
    2764:	00cb0633          	add	a2,s6,a2
    2768:	d8c43423          	sd	a2,-632(s0)
    276c:	03c50b33          	mul	s6,a0,t3
    2770:	d9843603          	ld	a2,-616(s0)
    2774:	00cb0633          	add	a2,s6,a2
    2778:	d8c43c23          	sd	a2,-616(s0)
    277c:	03d50b33          	mul	s6,a0,t4
    2780:	da843603          	ld	a2,-600(s0)
    2784:	00cb0633          	add	a2,s6,a2
    2788:	dac43423          	sd	a2,-600(s0)
    278c:	e6843603          	ld	a2,-408(s0)
    2790:	02c50b33          	mul	s6,a0,a2
    2794:	d7843603          	ld	a2,-648(s0)
    2798:	00cb0633          	add	a2,s6,a2
    279c:	d6c43c23          	sd	a2,-648(s0)
    27a0:	f6843603          	ld	a2,-152(s0)
    27a4:	02c50b33          	mul	s6,a0,a2
    27a8:	d6843603          	ld	a2,-664(s0)
    27ac:	00cb0633          	add	a2,s6,a2
    27b0:	d6c43423          	sd	a2,-664(s0)
    27b4:	f6043603          	ld	a2,-160(s0)
    27b8:	02c50b33          	mul	s6,a0,a2
    27bc:	d5843603          	ld	a2,-680(s0)
    27c0:	00cb0633          	add	a2,s6,a2
    27c4:	d4c43c23          	sd	a2,-680(s0)
    27c8:	f3043603          	ld	a2,-208(s0)
    27cc:	02c50b33          	mul	s6,a0,a2
    27d0:	d5043603          	ld	a2,-688(s0)
    27d4:	00cb0633          	add	a2,s6,a2
    27d8:	d4c43823          	sd	a2,-688(s0)
    27dc:	f7843603          	ld	a2,-136(s0)
    27e0:	02c50b33          	mul	s6,a0,a2
    27e4:	d4843603          	ld	a2,-696(s0)
    27e8:	00cb0633          	add	a2,s6,a2
    27ec:	d4c43423          	sd	a2,-696(s0)
    27f0:	02150b33          	mul	s6,a0,ra
    27f4:	d4043603          	ld	a2,-704(s0)
    27f8:	00cb0633          	add	a2,s6,a2
    27fc:	d4c43023          	sd	a2,-704(s0)
    2800:	000a8c93          	mv	s9,s5
    2804:	03550b33          	mul	s6,a0,s5
    2808:	d3843603          	ld	a2,-712(s0)
    280c:	00cb0633          	add	a2,s6,a2
    2810:	d2c43c23          	sd	a2,-712(s0)
    2814:	f4843d03          	ld	s10,-184(s0)
    2818:	03a50b33          	mul	s6,a0,s10
    281c:	d3043603          	ld	a2,-720(s0)
    2820:	00cb0633          	add	a2,s6,a2
    2824:	d2c43823          	sd	a2,-720(s0)
    2828:	03250b33          	mul	s6,a0,s2
    282c:	d2843603          	ld	a2,-728(s0)
    2830:	00cb0633          	add	a2,s6,a2
    2834:	d2c43423          	sd	a2,-728(s0)
    2838:	02950b33          	mul	s6,a0,s1
    283c:	d2043603          	ld	a2,-736(s0)
    2840:	00cb0633          	add	a2,s6,a2
    2844:	d2c43023          	sd	a2,-736(s0)
    2848:	03450b33          	mul	s6,a0,s4
    284c:	d1843603          	ld	a2,-744(s0)
    2850:	00cb0633          	add	a2,s6,a2
    2854:	d0c43c23          	sd	a2,-744(s0)
    2858:	e8043983          	ld	s3,-384(s0)
    285c:	03350b33          	mul	s6,a0,s3
    2860:	d1043603          	ld	a2,-752(s0)
    2864:	00cb0633          	add	a2,s6,a2
    2868:	d0c43823          	sd	a2,-752(s0)
    286c:	e7843903          	ld	s2,-392(s0)
    2870:	03250b33          	mul	s6,a0,s2
    2874:	d0843603          	ld	a2,-760(s0)
    2878:	00cb0633          	add	a2,s6,a2
    287c:	d0c43423          	sd	a2,-760(s0)
    2880:	03850b33          	mul	s6,a0,s8
    2884:	d0043603          	ld	a2,-768(s0)
    2888:	00cb0633          	add	a2,s6,a2
    288c:	d0c43023          	sd	a2,-768(s0)
    2890:	000f0493          	mv	s1,t5
    2894:	03e50b33          	mul	s6,a0,t5
    2898:	cf843603          	ld	a2,-776(s0)
    289c:	00cb0633          	add	a2,s6,a2
    28a0:	cec43c23          	sd	a2,-776(s0)
    28a4:	00038f13          	mv	t5,t2
    28a8:	02750b33          	mul	s6,a0,t2
    28ac:	cf043603          	ld	a2,-784(s0)
    28b0:	00cb0633          	add	a2,s6,a2
    28b4:	cec43823          	sd	a2,-784(s0)
    28b8:	f5843e03          	ld	t3,-168(s0)
    28bc:	03c50b33          	mul	s6,a0,t3
    28c0:	ce843603          	ld	a2,-792(s0)
    28c4:	00cb0633          	add	a2,s6,a2
    28c8:	cec43423          	sd	a2,-792(s0)
    28cc:	f4043383          	ld	t2,-192(s0)
    28d0:	02750b33          	mul	s6,a0,t2
    28d4:	ce043603          	ld	a2,-800(s0)
    28d8:	00cb0633          	add	a2,s6,a2
    28dc:	cec43023          	sd	a2,-800(s0)
    28e0:	e4843303          	ld	t1,-440(s0)
    28e4:	02650b33          	mul	s6,a0,t1
    28e8:	cd843603          	ld	a2,-808(s0)
    28ec:	00cb0633          	add	a2,s6,a2
    28f0:	ccc43c23          	sd	a2,-808(s0)
    28f4:	f7043883          	ld	a7,-144(s0)
    28f8:	03150b33          	mul	s6,a0,a7
    28fc:	cd043603          	ld	a2,-816(s0)
    2900:	00cb0633          	add	a2,s6,a2
    2904:	ccc43823          	sd	a2,-816(s0)
    2908:	f3843b83          	ld	s7,-200(s0)
    290c:	03750b33          	mul	s6,a0,s7
    2910:	cc843603          	ld	a2,-824(s0)
    2914:	00cb0633          	add	a2,s6,a2
    2918:	ccc43423          	sd	a2,-824(s0)
    291c:	00078813          	mv	a6,a5
    2920:	02f50b33          	mul	s6,a0,a5
    2924:	cc043603          	ld	a2,-832(s0)
    2928:	00cb0633          	add	a2,s6,a2
    292c:	ccc43023          	sd	a2,-832(s0)
    2930:	00070793          	mv	a5,a4
    2934:	02e50b33          	mul	s6,a0,a4
    2938:	cb843603          	ld	a2,-840(s0)
    293c:	00cb0633          	add	a2,s6,a2
    2940:	cac43c23          	sd	a2,-840(s0)
    2944:	e6043703          	ld	a4,-416(s0)
    2948:	02e50b33          	mul	s6,a0,a4
    294c:	cb043603          	ld	a2,-848(s0)
    2950:	00cb0633          	add	a2,s6,a2
    2954:	cac43823          	sd	a2,-848(s0)
    2958:	e0043a83          	ld	s5,-512(s0)
    295c:	03550b33          	mul	s6,a0,s5
    2960:	ca043603          	ld	a2,-864(s0)
    2964:	00cb0633          	add	a2,s6,a2
    2968:	cac43023          	sd	a2,-864(s0)
    296c:	02d50b33          	mul	s6,a0,a3
    2970:	c9043603          	ld	a2,-880(s0)
    2974:	00cb0633          	add	a2,s6,a2
    2978:	c8c43823          	sd	a2,-880(s0)
    297c:	e5843e83          	ld	t4,-424(s0)
    2980:	03d50b33          	mul	s6,a0,t4
    2984:	c8043603          	ld	a2,-896(s0)
    2988:	00cb0633          	add	a2,s6,a2
    298c:	c8c43023          	sd	a2,-896(s0)
    2990:	f8843603          	ld	a2,-120(s0)
    2994:	54060b03          	lb	s6,1344(a2)
    2998:	e2843583          	ld	a1,-472(s0)
    299c:	02b50db3          	mul	s11,a0,a1
    29a0:	c7043603          	ld	a2,-912(s0)
    29a4:	00cd8633          	add	a2,s11,a2
    29a8:	c6c43823          	sd	a2,-912(s0)
    29ac:	02550533          	mul	a0,a0,t0
    29b0:	c6043603          	ld	a2,-928(s0)
    29b4:	00c50633          	add	a2,a0,a2
    29b8:	c6c43023          	sd	a2,-928(s0)
    29bc:	025b0533          	mul	a0,s6,t0
    29c0:	00001637          	lui	a2,0x1
    29c4:	40c40633          	sub	a2,s0,a2
    29c8:	66a63c23          	sd	a0,1656(a2) # 1678 <.LBB41_3+0x13c>
    29cc:	02bb0533          	mul	a0,s6,a1
    29d0:	e2a43423          	sd	a0,-472(s0)
    29d4:	03db0533          	mul	a0,s6,t4
    29d8:	e4a43c23          	sd	a0,-424(s0)
    29dc:	02db0533          	mul	a0,s6,a3
    29e0:	e0a43823          	sd	a0,-496(s0)
    29e4:	035b0533          	mul	a0,s6,s5
    29e8:	e0a43023          	sd	a0,-512(s0)
    29ec:	02eb0533          	mul	a0,s6,a4
    29f0:	000015b7          	lui	a1,0x1
    29f4:	40b405b3          	sub	a1,s0,a1
    29f8:	66a5b823          	sd	a0,1648(a1) # 1670 <.LBB41_3+0x134>
    29fc:	02fb0533          	mul	a0,s6,a5
    2a00:	e6a43023          	sd	a0,-416(s0)
    2a04:	030b0533          	mul	a0,s6,a6
    2a08:	e6a43823          	sd	a0,-400(s0)
    2a0c:	037b0533          	mul	a0,s6,s7
    2a10:	f2a43c23          	sd	a0,-200(s0)
    2a14:	031b0533          	mul	a0,s6,a7
    2a18:	f6a43823          	sd	a0,-144(s0)
    2a1c:	026b0bb3          	mul	s7,s6,t1
    2a20:	027b0ab3          	mul	s5,s6,t2
    2a24:	03cb0833          	mul	a6,s6,t3
    2a28:	03eb02b3          	mul	t0,s6,t5
    2a2c:	029b08b3          	mul	a7,s6,s1
    2a30:	038b0e33          	mul	t3,s6,s8
    2a34:	032b0eb3          	mul	t4,s6,s2
    2a38:	033b0333          	mul	t1,s6,s3
    2a3c:	034b03b3          	mul	t2,s6,s4
    2a40:	e8843503          	ld	a0,-376(s0)
    2a44:	02ab04b3          	mul	s1,s6,a0
    2a48:	e3043503          	ld	a0,-464(s0)
    2a4c:	02ab0933          	mul	s2,s6,a0
    2a50:	03ab0c33          	mul	s8,s6,s10
    2a54:	039b0cb3          	mul	s9,s6,s9
    2a58:	021b0d33          	mul	s10,s6,ra
    2a5c:	f7843503          	ld	a0,-136(s0)
    2a60:	02ab0db3          	mul	s11,s6,a0
    2a64:	f3043503          	ld	a0,-208(s0)
    2a68:	02ab0733          	mul	a4,s6,a0
    2a6c:	f6043503          	ld	a0,-160(s0)
    2a70:	02ab00b3          	mul	ra,s6,a0
    2a74:	f6843503          	ld	a0,-152(s0)
    2a78:	02ab06b3          	mul	a3,s6,a0
    2a7c:	e6843503          	ld	a0,-408(s0)
    2a80:	02ab0633          	mul	a2,s6,a0
    2a84:	f2843503          	ld	a0,-216(s0)
    2a88:	02ab05b3          	mul	a1,s6,a0
    2a8c:	e5043503          	ld	a0,-432(s0)
    2a90:	02ab0533          	mul	a0,s6,a0
    2a94:	e0843783          	ld	a5,-504(s0)
    2a98:	02fb0b33          	mul	s6,s6,a5
    2a9c:	de043783          	ld	a5,-544(s0)
    2aa0:	00fb07b3          	add	a5,s6,a5
    2aa4:	def43023          	sd	a5,-544(s0)
    2aa8:	dd843783          	ld	a5,-552(s0)
    2aac:	de843b03          	ld	s6,-536(s0)
    2ab0:	01650b33          	add	s6,a0,s6
    2ab4:	df643423          	sd	s6,-536(s0)
    2ab8:	df043503          	ld	a0,-528(s0)
    2abc:	00a58533          	add	a0,a1,a0
    2ac0:	dea43823          	sd	a0,-528(s0)
    2ac4:	00f607b3          	add	a5,a2,a5
    2ac8:	f2043503          	ld	a0,-224(s0)
    2acc:	00a68533          	add	a0,a3,a0
    2ad0:	dd043583          	ld	a1,-560(s0)
    2ad4:	f2a43023          	sd	a0,-224(s0)
    2ad8:	00b085b3          	add	a1,ra,a1
    2adc:	f8843083          	ld	ra,-120(s0)
    2ae0:	f1843603          	ld	a2,-232(s0)
    2ae4:	00c70633          	add	a2,a4,a2
    2ae8:	f0c43c23          	sd	a2,-232(s0)
    2aec:	f1843a03          	ld	s4,-232(s0)
    2af0:	dc843683          	ld	a3,-568(s0)
    2af4:	00dd86b3          	add	a3,s11,a3
    2af8:	d9043d83          	ld	s11,-624(s0)
    2afc:	dcd43423          	sd	a3,-568(s0)
    2b00:	f1043703          	ld	a4,-240(s0)
    2b04:	00ed0733          	add	a4,s10,a4
    2b08:	f0e43823          	sd	a4,-240(s0)
    2b0c:	f1043703          	ld	a4,-240(s0)
    2b10:	f0843d03          	ld	s10,-248(s0)
    2b14:	01ac8d33          	add	s10,s9,s10
    2b18:	f1a43423          	sd	s10,-248(s0)
    2b1c:	f0843c83          	ld	s9,-248(s0)
    2b20:	f0043d03          	ld	s10,-256(s0)
    2b24:	01ac0d33          	add	s10,s8,s10
    2b28:	f1a43023          	sd	s10,-256(s0)
    2b2c:	f0043c03          	ld	s8,-256(s0)
    2b30:	ef843d03          	ld	s10,-264(s0)
    2b34:	01a90d33          	add	s10,s2,s10
    2b38:	efa43c23          	sd	s10,-264(s0)
    2b3c:	db843d03          	ld	s10,-584(s0)
    2b40:	ef843903          	ld	s2,-264(s0)
    2b44:	dc043683          	ld	a3,-576(s0)
    2b48:	00d486b3          	add	a3,s1,a3
    2b4c:	dcd43023          	sd	a3,-576(s0)
    2b50:	ef043483          	ld	s1,-272(s0)
    2b54:	009384b3          	add	s1,t2,s1
    2b58:	ee943823          	sd	s1,-272(s0)
    2b5c:	ef043603          	ld	a2,-272(s0)
    2b60:	ee843483          	ld	s1,-280(s0)
    2b64:	009304b3          	add	s1,t1,s1
    2b68:	ee943423          	sd	s1,-280(s0)
    2b6c:	ee843383          	ld	t2,-280(s0)
    2b70:	ee043483          	ld	s1,-288(s0)
    2b74:	009e84b3          	add	s1,t4,s1
    2b78:	ee943023          	sd	s1,-288(s0)
    2b7c:	ee043e83          	ld	t4,-288(s0)
    2b80:	01ae0d33          	add	s10,t3,s10
    2b84:	ed843e03          	ld	t3,-296(s0)
    2b88:	01c88e33          	add	t3,a7,t3
    2b8c:	edc43c23          	sd	t3,-296(s0)
    2b90:	ed843883          	ld	a7,-296(s0)
    2b94:	ed043e03          	ld	t3,-304(s0)
    2b98:	01c28e33          	add	t3,t0,t3
    2b9c:	edc43823          	sd	t3,-304(s0)
    2ba0:	ed043283          	ld	t0,-304(s0)
    2ba4:	ec843e03          	ld	t3,-312(s0)
    2ba8:	01c80e33          	add	t3,a6,t3
    2bac:	edc43423          	sd	t3,-312(s0)
    2bb0:	ec843803          	ld	a6,-312(s0)
    2bb4:	ec043e03          	ld	t3,-320(s0)
    2bb8:	01ca8e33          	add	t3,s5,t3
    2bbc:	edc43023          	sd	t3,-320(s0)
    2bc0:	ec043303          	ld	t1,-320(s0)
    2bc4:	eb843e03          	ld	t3,-328(s0)
    2bc8:	01cb8e33          	add	t3,s7,t3
    2bcc:	ebc43c23          	sd	t3,-328(s0)
    2bd0:	eb843e03          	ld	t3,-328(s0)
    2bd4:	eb043483          	ld	s1,-336(s0)
    2bd8:	f7043503          	ld	a0,-144(s0)
    2bdc:	009504b3          	add	s1,a0,s1
    2be0:	da043b83          	ld	s7,-608(s0)
    2be4:	ea943823          	sd	s1,-336(s0)
    2be8:	eb043483          	ld	s1,-336(s0)
    2bec:	ea843983          	ld	s3,-344(s0)
    2bf0:	f3843683          	ld	a3,-200(s0)
    2bf4:	013689b3          	add	s3,a3,s3
    2bf8:	eb343423          	sd	s3,-344(s0)
    2bfc:	ea843983          	ld	s3,-344(s0)
    2c00:	ea043a83          	ld	s5,-352(s0)
    2c04:	e7043683          	ld	a3,-400(s0)
    2c08:	01568ab3          	add	s5,a3,s5
    2c0c:	eb543023          	sd	s5,-352(s0)
    2c10:	ea043f03          	ld	t5,-352(s0)
    2c14:	e9843a83          	ld	s5,-360(s0)
    2c18:	e6043683          	ld	a3,-416(s0)
    2c1c:	01568ab3          	add	s5,a3,s5
    2c20:	e9543c23          	sd	s5,-360(s0)
    2c24:	db043a83          	ld	s5,-592(s0)
    2c28:	e9843683          	ld	a3,-360(s0)
    2c2c:	f8b43823          	sd	a1,-112(s0)
    2c30:	00001537          	lui	a0,0x1
    2c34:	40a40533          	sub	a0,s0,a0
    2c38:	67053503          	ld	a0,1648(a0) # 1670 <.LBB41_3+0x134>
    2c3c:	01550ab3          	add	s5,a0,s5
    2c40:	e0043503          	ld	a0,-512(s0)
    2c44:	01750bb3          	add	s7,a0,s7
    2c48:	e1043503          	ld	a0,-496(s0)
    2c4c:	01b50db3          	add	s11,a0,s11
    2c50:	d8043b03          	ld	s6,-640(s0)
    2c54:	e5843503          	ld	a0,-424(s0)
    2c58:	01650b33          	add	s6,a0,s6
    2c5c:	d9643023          	sd	s6,-640(s0)
    2c60:	d7043b03          	ld	s6,-656(s0)
    2c64:	e2843503          	ld	a0,-472(s0)
    2c68:	01650b33          	add	s6,a0,s6
    2c6c:	d7643823          	sd	s6,-656(s0)
    2c70:	d6043b03          	ld	s6,-672(s0)
    2c74:	00001537          	lui	a0,0x1
    2c78:	40a40533          	sub	a0,s0,a0
    2c7c:	67853503          	ld	a0,1656(a0) # 1678 <.LBB41_3+0x13c>
    2c80:	01650b33          	add	s6,a0,s6
    2c84:	f2043503          	ld	a0,-224(s0)
    2c88:	d7643023          	sd	s6,-672(s0)
    2c8c:	000015b7          	lui	a1,0x1
    2c90:	40b405b3          	sub	a1,s0,a1
    2c94:	6805bb03          	ld	s6,1664(a1) # 1680 <.LBB41_3+0x144>
    2c98:	fe0b0b13          	addi	s6,s6,-32
    2c9c:	020f8f93          	addi	t6,t6,32
    2ca0:	00108093          	addi	ra,ra,1
    2ca4:	000015b7          	lui	a1,0x1
    2ca8:	40b405b3          	sub	a1,s0,a1
    2cac:	6965b023          	sd	s6,1664(a1) # 1680 <.LBB41_3+0x144>
    2cb0:	f9043583          	ld	a1,-112(s0)
    2cb4:	000b0463          	beqz	s6,2cbc <.LBB41_4>
    2cb8:	885fe06f          	j	153c <.LBB41_3>

0000000000002cbc <.LBB41_4>:
    2cbc:	00001537          	lui	a0,0x1
    2cc0:	40a40533          	sub	a0,s0,a0
    2cc4:	68853683          	ld	a3,1672(a0) # 1688 <.LBB41_3+0x14c>
    2cc8:	00001537          	lui	a0,0x1
    2ccc:	40a40533          	sub	a0,s0,a0
    2cd0:	69053f83          	ld	t6,1680(a0) # 1690 <.LBB41_3+0x154>
    2cd4:	00001537          	lui	a0,0x1
    2cd8:	40a40533          	sub	a0,s0,a0
    2cdc:	69853f03          	ld	t5,1688(a0) # 1698 <.LBB41_3+0x15c>
    2ce0:	00001537          	lui	a0,0x1
    2ce4:	40a40533          	sub	a0,s0,a0
    2ce8:	6a053e83          	ld	t4,1696(a0) # 16a0 <.LBB41_3+0x164>
    2cec:	00001537          	lui	a0,0x1
    2cf0:	40a40533          	sub	a0,s0,a0
    2cf4:	6a853383          	ld	t2,1704(a0) # 16a8 <.LBB41_3+0x16c>
    2cf8:	00001537          	lui	a0,0x1
    2cfc:	40a40533          	sub	a0,s0,a0
    2d00:	6b053303          	ld	t1,1712(a0) # 16b0 <.LBB41_3+0x174>
    2d04:	00001537          	lui	a0,0x1
    2d08:	40a40533          	sub	a0,s0,a0
    2d0c:	6c053283          	ld	t0,1728(a0) # 16c0 <.LBB41_3+0x184>
    2d10:	00001537          	lui	a0,0x1
    2d14:	40a40533          	sub	a0,s0,a0
    2d18:	6c853883          	ld	a7,1736(a0) # 16c8 <.LBB41_3+0x18c>
    2d1c:	00001537          	lui	a0,0x1
    2d20:	40a40533          	sub	a0,s0,a0
    2d24:	6d053803          	ld	a6,1744(a0) # 16d0 <.LBB41_3+0x194>
    2d28:	dcb43823          	sd	a1,-560(s0)
    2d2c:	00001537          	lui	a0,0x1
    2d30:	40a40533          	sub	a0,s0,a0
    2d34:	5b853e03          	ld	t3,1464(a0) # 15b8 <.LBB41_3+0x7c>
    2d38:	002e1e13          	slli	t3,t3,0x2
    2d3c:	00002537          	lui	a0,0x2
    2d40:	40a40533          	sub	a0,s0,a0
    2d44:	fc853503          	ld	a0,-56(a0) # 1fc8 <.LBB41_3+0xa8c>
    2d48:	01c50e33          	add	t3,a0,t3
    2d4c:	000e2503          	lw	a0,0(t3)
    2d50:	000025b7          	lui	a1,0x2
    2d54:	40b405b3          	sub	a1,s0,a1
    2d58:	fc05b083          	ld	ra,-64(a1) # 1fc0 <.LBB41_3+0xa84>
    2d5c:	07c0a583          	lw	a1,124(ra)
    2d60:	01200613          	li	a2,18
    2d64:	02c50533          	mul	a0,a0,a2
    2d68:	00759613          	slli	a2,a1,0x7
    2d6c:	000025b7          	lui	a1,0x2
    2d70:	40b405b3          	sub	a1,s0,a1
    2d74:	7f85b583          	ld	a1,2040(a1) # 27f8 <.LBB41_3+0x12bc>
    2d78:	00001737          	lui	a4,0x1
    2d7c:	40e40733          	sub	a4,s0,a4
    2d80:	6b873703          	ld	a4,1720(a4) # 16b8 <.LBB41_3+0x17c>
    2d84:	00b705b3          	add	a1,a4,a1
    2d88:	f8c43423          	sd	a2,-120(s0)
    2d8c:	00c585b3          	add	a1,a1,a2
    2d90:	fff944b7          	lui	s1,0xfff94
    2d94:	4095063b          	subw	a2,a0,s1
    2d98:	40c5863b          	subw	a2,a1,a2
    2d9c:	400005b7          	lui	a1,0x40000
    2da0:	00001737          	lui	a4,0x1
    2da4:	40e40733          	sub	a4,s0,a4
    2da8:	deb73423          	sd	a1,-536(a4) # de8 <.LBB41_1+0xac0>
    2dac:	e0c43023          	sd	a2,-512(s0)
    2db0:	00065463          	bgez	a2,2db8 <.LBB41_6>
    2db4:	c00005b7          	lui	a1,0xc0000

0000000000002db8 <.LBB41_6>:
    2db8:	deb43c23          	sd	a1,-520(s0)
    2dbc:	dcf43c23          	sd	a5,-552(s0)
    2dc0:	0780a583          	lw	a1,120(ra)
    2dc4:	00759613          	slli	a2,a1,0x7
    2dc8:	000025b7          	lui	a1,0x2
    2dcc:	40b405b3          	sub	a1,s0,a1
    2dd0:	7f05b583          	ld	a1,2032(a1) # 27f0 <.LBB41_3+0x12b4>
    2dd4:	00b685b3          	add	a1,a3,a1
    2dd8:	f6c43c23          	sd	a2,-136(s0)
    2ddc:	00c585b3          	add	a1,a1,a2
    2de0:	4095063b          	subw	a2,a0,s1
    2de4:	40c585bb          	subw	a1,a1,a2
    2de8:	40000737          	lui	a4,0x40000
    2dec:	00002637          	lui	a2,0x2
    2df0:	40c40633          	sub	a2,s0,a2
    2df4:	7e863603          	ld	a2,2024(a2) # 27e8 <.LBB41_3+0x12ac>
    2df8:	000026b7          	lui	a3,0x2
    2dfc:	40d406b3          	sub	a3,s0,a3
    2e00:	7e06b683          	ld	a3,2016(a3) # 27e0 <.LBB41_3+0x12a4>
    2e04:	000017b7          	lui	a5,0x1
    2e08:	40f407b3          	sub	a5,s0,a5
    2e0c:	deb7b023          	sd	a1,-544(a5) # de0 <.LBB41_1+0xab8>
    2e10:	00080913          	mv	s2,a6
    2e14:	00088993          	mv	s3,a7
    2e18:	0005d463          	bgez	a1,2e20 <.LBB41_8>
    2e1c:	c0000737          	lui	a4,0xc0000

0000000000002e20 <.LBB41_8>:
    2e20:	000015b7          	lui	a1,0x1
    2e24:	40b405b3          	sub	a1,s0,a1
    2e28:	dce5bc23          	sd	a4,-552(a1) # dd8 <.LBB41_1+0xab0>
    2e2c:	0740a583          	lw	a1,116(ra)
    2e30:	00759713          	slli	a4,a1,0x7
    2e34:	00cf85b3          	add	a1,t6,a2
    2e38:	f6e43823          	sd	a4,-144(s0)
    2e3c:	00e585b3          	add	a1,a1,a4
    2e40:	4095063b          	subw	a2,a0,s1
    2e44:	40c585bb          	subw	a1,a1,a2
    2e48:	40000637          	lui	a2,0x40000
    2e4c:	00002737          	lui	a4,0x2
    2e50:	40e40733          	sub	a4,s0,a4
    2e54:	7d873703          	ld	a4,2008(a4) # 27d8 <.LBB41_3+0x129c>
    2e58:	000017b7          	lui	a5,0x1
    2e5c:	40f407b3          	sub	a5,s0,a5
    2e60:	5b07b783          	ld	a5,1456(a5) # 15b0 <.LBB41_3+0x74>
    2e64:	00001837          	lui	a6,0x1
    2e68:	41040833          	sub	a6,s0,a6
    2e6c:	dcb83823          	sd	a1,-560(a6) # dd0 <.LBB41_1+0xaa8>
    2e70:	0005d463          	bgez	a1,2e78 <.LBB41_10>
    2e74:	c0000637          	lui	a2,0xc0000

0000000000002e78 <.LBB41_10>:
    2e78:	000015b7          	lui	a1,0x1
    2e7c:	40b405b3          	sub	a1,s0,a1
    2e80:	dcc5b423          	sd	a2,-568(a1) # dc8 <.LBB41_1+0xaa0>
    2e84:	0700a583          	lw	a1,112(ra)
    2e88:	00759613          	slli	a2,a1,0x7
    2e8c:	00df05b3          	add	a1,t5,a3
    2e90:	f6c43423          	sd	a2,-152(s0)
    2e94:	00c585b3          	add	a1,a1,a2
    2e98:	4095063b          	subw	a2,a0,s1
    2e9c:	40c585bb          	subw	a1,a1,a2
    2ea0:	40000637          	lui	a2,0x40000
    2ea4:	000016b7          	lui	a3,0x1
    2ea8:	40d406b3          	sub	a3,s0,a3
    2eac:	5a86b683          	ld	a3,1448(a3) # 15a8 <.LBB41_3+0x6c>
    2eb0:	00001837          	lui	a6,0x1
    2eb4:	41040833          	sub	a6,s0,a6
    2eb8:	5a083803          	ld	a6,1440(a6) # 15a0 <.LBB41_3+0x64>
    2ebc:	000018b7          	lui	a7,0x1
    2ec0:	411408b3          	sub	a7,s0,a7
    2ec4:	5988bf83          	ld	t6,1432(a7) # 1598 <.LBB41_3+0x5c>
    2ec8:	000018b7          	lui	a7,0x1
    2ecc:	411408b3          	sub	a7,s0,a7
    2ed0:	dcb8b023          	sd	a1,-576(a7) # dc0 <.LBB41_1+0xa98>
    2ed4:	0005d463          	bgez	a1,2edc <.LBB41_12>
    2ed8:	c0000637          	lui	a2,0xc0000

0000000000002edc <.LBB41_12>:
    2edc:	000015b7          	lui	a1,0x1
    2ee0:	40b405b3          	sub	a1,s0,a1
    2ee4:	dac5bc23          	sd	a2,-584(a1) # db8 <.LBB41_1+0xa90>
    2ee8:	06c0a583          	lw	a1,108(ra)
    2eec:	00759613          	slli	a2,a1,0x7
    2ef0:	00ee85b3          	add	a1,t4,a4
    2ef4:	f6c43023          	sd	a2,-160(s0)
    2ef8:	00c585b3          	add	a1,a1,a2
    2efc:	4095063b          	subw	a2,a0,s1
    2f00:	40c585bb          	subw	a1,a1,a2
    2f04:	40000637          	lui	a2,0x40000
    2f08:	00001737          	lui	a4,0x1
    2f0c:	40e40733          	sub	a4,s0,a4
    2f10:	dab73823          	sd	a1,-592(a4) # db0 <.LBB41_1+0xa88>
    2f14:	0005d463          	bgez	a1,2f1c <.LBB41_14>
    2f18:	c0000637          	lui	a2,0xc0000

0000000000002f1c <.LBB41_14>:
    2f1c:	000015b7          	lui	a1,0x1
    2f20:	40b405b3          	sub	a1,s0,a1
    2f24:	dac5b423          	sd	a2,-600(a1) # da8 <.LBB41_1+0xa80>
    2f28:	0680a583          	lw	a1,104(ra)
    2f2c:	00759613          	slli	a2,a1,0x7
    2f30:	00f385b3          	add	a1,t2,a5
    2f34:	f4c43c23          	sd	a2,-168(s0)
    2f38:	00c585b3          	add	a1,a1,a2
    2f3c:	4095063b          	subw	a2,a0,s1
    2f40:	40c585bb          	subw	a1,a1,a2
    2f44:	40000637          	lui	a2,0x40000
    2f48:	00001737          	lui	a4,0x1
    2f4c:	40e40733          	sub	a4,s0,a4
    2f50:	dab73023          	sd	a1,-608(a4) # da0 <.LBB41_1+0xa78>
    2f54:	0005d463          	bgez	a1,2f5c <.LBB41_16>
    2f58:	c0000637          	lui	a2,0xc0000

0000000000002f5c <.LBB41_16>:
    2f5c:	000015b7          	lui	a1,0x1
    2f60:	40b405b3          	sub	a1,s0,a1
    2f64:	d8c5bc23          	sd	a2,-616(a1) # d98 <.LBB41_1+0xa70>
    2f68:	0640a583          	lw	a1,100(ra)
    2f6c:	00759613          	slli	a2,a1,0x7
    2f70:	00d305b3          	add	a1,t1,a3
    2f74:	f4c43823          	sd	a2,-176(s0)
    2f78:	00c585b3          	add	a1,a1,a2
    2f7c:	4095063b          	subw	a2,a0,s1
    2f80:	40c585bb          	subw	a1,a1,a2
    2f84:	40000637          	lui	a2,0x40000
    2f88:	000016b7          	lui	a3,0x1
    2f8c:	40d406b3          	sub	a3,s0,a3
    2f90:	d8b6b823          	sd	a1,-624(a3) # d90 <.LBB41_1+0xa68>
    2f94:	0005d463          	bgez	a1,2f9c <.LBB41_18>
    2f98:	c0000637          	lui	a2,0xc0000

0000000000002f9c <.LBB41_18>:
    2f9c:	000015b7          	lui	a1,0x1
    2fa0:	40b405b3          	sub	a1,s0,a1
    2fa4:	d8c5b423          	sd	a2,-632(a1) # d88 <.LBB41_1+0xa60>
    2fa8:	0600a583          	lw	a1,96(ra)
    2fac:	00759613          	slli	a2,a1,0x7
    2fb0:	010285b3          	add	a1,t0,a6
    2fb4:	f4c43423          	sd	a2,-184(s0)
    2fb8:	00c585b3          	add	a1,a1,a2
    2fbc:	4095063b          	subw	a2,a0,s1
    2fc0:	40c585bb          	subw	a1,a1,a2
    2fc4:	40000637          	lui	a2,0x40000
    2fc8:	000016b7          	lui	a3,0x1
    2fcc:	40d406b3          	sub	a3,s0,a3
    2fd0:	d8b6b023          	sd	a1,-640(a3) # d80 <.LBB41_1+0xa58>
    2fd4:	0005d463          	bgez	a1,2fdc <.LBB41_20>
    2fd8:	c0000637          	lui	a2,0xc0000

0000000000002fdc <.LBB41_20>:
    2fdc:	000015b7          	lui	a1,0x1
    2fe0:	40b405b3          	sub	a1,s0,a1
    2fe4:	d6c5bc23          	sd	a2,-648(a1) # d78 <.LBB41_1+0xa50>
    2fe8:	d9b43823          	sd	s11,-624(s0)
    2fec:	db743023          	sd	s7,-608(s0)
    2ff0:	db543823          	sd	s5,-592(s0)
    2ff4:	dba43c23          	sd	s10,-584(s0)
    2ff8:	0580a583          	lw	a1,88(ra)
    2ffc:	05c0a703          	lw	a4,92(ra)
    3000:	00001637          	lui	a2,0x1
    3004:	40c40633          	sub	a2,s0,a2
    3008:	5b863603          	ld	a2,1464(a2) # 15b8 <.LBB41_3+0x7c>
    300c:	00561793          	slli	a5,a2,0x5
    3010:	00002637          	lui	a2,0x2
    3014:	40c40633          	sub	a2,s0,a2
    3018:	fb063603          	ld	a2,-80(a2) # 1fb0 <.LBB41_3+0xa74>
    301c:	00f60f33          	add	t5,a2,a5
    3020:	02078e93          	addi	t4,a5,32
    3024:	000026b7          	lui	a3,0x2
    3028:	40d406b3          	sub	a3,s0,a3
    302c:	79d6bc23          	sd	t4,1944(a3) # 2798 <.LBB41_3+0x125c>
    3030:	01d60eb3          	add	t4,a2,t4
    3034:	04078393          	addi	t2,a5,64
    3038:	000026b7          	lui	a3,0x2
    303c:	40d406b3          	sub	a3,s0,a3
    3040:	7a76b023          	sd	t2,1952(a3) # 27a0 <.LBB41_3+0x1264>
    3044:	007603b3          	add	t2,a2,t2
    3048:	06078313          	addi	t1,a5,96
    304c:	000026b7          	lui	a3,0x2
    3050:	40d406b3          	sub	a3,s0,a3
    3054:	7a66b423          	sd	t1,1960(a3) # 27a8 <.LBB41_3+0x126c>
    3058:	00660333          	add	t1,a2,t1
    305c:	08078293          	addi	t0,a5,128
    3060:	000026b7          	lui	a3,0x2
    3064:	40d406b3          	sub	a3,s0,a3
    3068:	7a56b823          	sd	t0,1968(a3) # 27b0 <.LBB41_3+0x1274>
    306c:	005602b3          	add	t0,a2,t0
    3070:	0a078893          	addi	a7,a5,160
    3074:	000026b7          	lui	a3,0x2
    3078:	40d406b3          	sub	a3,s0,a3
    307c:	7b16bc23          	sd	a7,1976(a3) # 27b8 <.LBB41_3+0x127c>
    3080:	011608b3          	add	a7,a2,a7
    3084:	0c078693          	addi	a3,a5,192
    3088:	00002837          	lui	a6,0x2
    308c:	41040833          	sub	a6,s0,a6
    3090:	7cd83023          	sd	a3,1984(a6) # 27c0 <.LBB41_3+0x1284>
    3094:	00d606b3          	add	a3,a2,a3
    3098:	00002837          	lui	a6,0x2
    309c:	41040833          	sub	a6,s0,a6
    30a0:	78f83823          	sd	a5,1936(a6) # 2790 <.LBB41_3+0x1254>
    30a4:	0e078793          	addi	a5,a5,224
    30a8:	00002837          	lui	a6,0x2
    30ac:	41040833          	sub	a6,s0,a6
    30b0:	7cf83423          	sd	a5,1992(a6) # 27c8 <.LBB41_3+0x128c>
    30b4:	00f60633          	add	a2,a2,a5
    30b8:	00771813          	slli	a6,a4,0x7
    30bc:	00759793          	slli	a5,a1,0x7
    30c0:	01f985b3          	add	a1,s3,t6
    30c4:	00001737          	lui	a4,0x1
    30c8:	40e40733          	sub	a4,s0,a4
    30cc:	66073703          	ld	a4,1632(a4) # 1660 <.LBB41_3+0x124>
    30d0:	00e90733          	add	a4,s2,a4
    30d4:	f4f43023          	sd	a5,-192(s0)
    30d8:	00f70733          	add	a4,a4,a5
    30dc:	f3043c23          	sd	a6,-200(s0)
    30e0:	010585b3          	add	a1,a1,a6
    30e4:	409507bb          	subw	a5,a0,s1
    30e8:	40f587bb          	subw	a5,a1,a5
    30ec:	fff94837          	lui	a6,0xfff94
    30f0:	409505bb          	subw	a1,a0,s1
    30f4:	40b7073b          	subw	a4,a4,a1
    30f8:	e0e43823          	sd	a4,-496(s0)
    30fc:	400005b7          	lui	a1,0x40000
    3100:	00001737          	lui	a4,0x1
    3104:	40e40733          	sub	a4,s0,a4
    3108:	d6f73823          	sd	a5,-656(a4) # d70 <.LBB41_1+0xa48>
    310c:	0007d463          	bgez	a5,3114 <.LBB41_22>
    3110:	c00005b7          	lui	a1,0xc0000

0000000000003114 <.LBB41_22>:
    3114:	00001737          	lui	a4,0x1
    3118:	40e40733          	sub	a4,s0,a4
    311c:	d6b73423          	sd	a1,-664(a4) # d68 <.LBB41_1+0xa40>
    3120:	004e2583          	lw	a1,4(t3)
    3124:	008e2703          	lw	a4,8(t3)
    3128:	000017b7          	lui	a5,0x1
    312c:	40f407b3          	sub	a5,s0,a5
    3130:	d4e7b823          	sd	a4,-688(a5) # d50 <.LBB41_1+0xa28>
    3134:	00ce2703          	lw	a4,12(t3)
    3138:	000017b7          	lui	a5,0x1
    313c:	40f407b3          	sub	a5,s0,a5
    3140:	d4e7bc23          	sd	a4,-680(a5) # d58 <.LBB41_1+0xa30>
    3144:	010e2703          	lw	a4,16(t3)
    3148:	000017b7          	lui	a5,0x1
    314c:	40f407b3          	sub	a5,s0,a5
    3150:	d4e7b423          	sd	a4,-696(a5) # d48 <.LBB41_1+0xa20>
    3154:	014e2703          	lw	a4,20(t3)
    3158:	000017b7          	lui	a5,0x1
    315c:	40f407b3          	sub	a5,s0,a5
    3160:	d2e7bc23          	sd	a4,-712(a5) # d38 <.LBB41_1+0xa10>
    3164:	018e2783          	lw	a5,24(t3)
    3168:	00001737          	lui	a4,0x1
    316c:	40e40733          	sub	a4,s0,a4
    3170:	d2f73423          	sd	a5,-728(a4) # d28 <.LBB41_1+0xa00>
    3174:	01ce2783          	lw	a5,28(t3)
    3178:	00001737          	lui	a4,0x1
    317c:	40e40733          	sub	a4,s0,a4
    3180:	d0f73c23          	sd	a5,-744(a4) # d18 <.LBB41_1+0x9f0>
    3184:	002f0783          	lb	a5,2(t5)
    3188:	00002737          	lui	a4,0x2
    318c:	40e40733          	sub	a4,s0,a4
    3190:	78f73423          	sd	a5,1928(a4) # 2788 <.LBB41_3+0x124c>
    3194:	001f0783          	lb	a5,1(t5)
    3198:	00001737          	lui	a4,0x1
    319c:	40e40733          	sub	a4,s0,a4
    31a0:	def73823          	sd	a5,-528(a4) # df0 <.LBB41_1+0xac8>
    31a4:	000f0783          	lb	a5,0(t5)
    31a8:	00001737          	lui	a4,0x1
    31ac:	40e40733          	sub	a4,s0,a4
    31b0:	def73c23          	sd	a5,-520(a4) # df8 <.LBB41_1+0xad0>
    31b4:	003f0783          	lb	a5,3(t5)
    31b8:	00001737          	lui	a4,0x1
    31bc:	40e40733          	sub	a4,s0,a4
    31c0:	e0f73023          	sd	a5,-512(a4) # e00 <.LBB41_1+0xad8>
    31c4:	004f0783          	lb	a5,4(t5)
    31c8:	00001737          	lui	a4,0x1
    31cc:	40e40733          	sub	a4,s0,a4
    31d0:	e0f73423          	sd	a5,-504(a4) # e08 <.LBB41_1+0xae0>
    31d4:	005f0783          	lb	a5,5(t5)
    31d8:	00001737          	lui	a4,0x1
    31dc:	40e40733          	sub	a4,s0,a4
    31e0:	e0f73823          	sd	a5,-496(a4) # e10 <.LBB41_1+0xae8>
    31e4:	006f0783          	lb	a5,6(t5)
    31e8:	00001737          	lui	a4,0x1
    31ec:	40e40733          	sub	a4,s0,a4
    31f0:	e0f73c23          	sd	a5,-488(a4) # e18 <.LBB41_1+0xaf0>
    31f4:	007f0783          	lb	a5,7(t5)
    31f8:	00001737          	lui	a4,0x1
    31fc:	40e40733          	sub	a4,s0,a4
    3200:	e2f73023          	sd	a5,-480(a4) # e20 <.LBB41_1+0xaf8>
    3204:	008f0783          	lb	a5,8(t5)
    3208:	00001737          	lui	a4,0x1
    320c:	40e40733          	sub	a4,s0,a4
    3210:	e2f73423          	sd	a5,-472(a4) # e28 <.LBB41_1+0xb00>
    3214:	009f0783          	lb	a5,9(t5)
    3218:	00001737          	lui	a4,0x1
    321c:	40e40733          	sub	a4,s0,a4
    3220:	e2f73823          	sd	a5,-464(a4) # e30 <.LBB41_1+0xb08>
    3224:	00af0783          	lb	a5,10(t5)
    3228:	00001737          	lui	a4,0x1
    322c:	40e40733          	sub	a4,s0,a4
    3230:	e2f73c23          	sd	a5,-456(a4) # e38 <.LBB41_1+0xb10>
    3234:	00bf0783          	lb	a5,11(t5)
    3238:	00001737          	lui	a4,0x1
    323c:	40e40733          	sub	a4,s0,a4
    3240:	e4f73023          	sd	a5,-448(a4) # e40 <.LBB41_1+0xb18>
    3244:	00cf0783          	lb	a5,12(t5)
    3248:	00001737          	lui	a4,0x1
    324c:	40e40733          	sub	a4,s0,a4
    3250:	e4f73423          	sd	a5,-440(a4) # e48 <.LBB41_1+0xb20>
    3254:	00df0783          	lb	a5,13(t5)
    3258:	00001737          	lui	a4,0x1
    325c:	40e40733          	sub	a4,s0,a4
    3260:	e4f73823          	sd	a5,-432(a4) # e50 <.LBB41_1+0xb28>
    3264:	00ef0783          	lb	a5,14(t5)
    3268:	00001737          	lui	a4,0x1
    326c:	40e40733          	sub	a4,s0,a4
    3270:	e4f73c23          	sd	a5,-424(a4) # e58 <.LBB41_1+0xb30>
    3274:	00ff0783          	lb	a5,15(t5)
    3278:	00001737          	lui	a4,0x1
    327c:	40e40733          	sub	a4,s0,a4
    3280:	e6f73023          	sd	a5,-416(a4) # e60 <.LBB41_1+0xb38>
    3284:	010f0783          	lb	a5,16(t5)
    3288:	00001737          	lui	a4,0x1
    328c:	40e40733          	sub	a4,s0,a4
    3290:	e6f73423          	sd	a5,-408(a4) # e68 <.LBB41_1+0xb40>
    3294:	011f0783          	lb	a5,17(t5)
    3298:	00001737          	lui	a4,0x1
    329c:	40e40733          	sub	a4,s0,a4
    32a0:	e6f73823          	sd	a5,-400(a4) # e70 <.LBB41_1+0xb48>
    32a4:	012f0783          	lb	a5,18(t5)
    32a8:	00001737          	lui	a4,0x1
    32ac:	40e40733          	sub	a4,s0,a4
    32b0:	e6f73c23          	sd	a5,-392(a4) # e78 <.LBB41_1+0xb50>
    32b4:	013f0783          	lb	a5,19(t5)
    32b8:	00001737          	lui	a4,0x1
    32bc:	40e40733          	sub	a4,s0,a4
    32c0:	e8f73023          	sd	a5,-384(a4) # e80 <.LBB41_1+0xb58>
    32c4:	014f0783          	lb	a5,20(t5)
    32c8:	00001737          	lui	a4,0x1
    32cc:	40e40733          	sub	a4,s0,a4
    32d0:	e8f73423          	sd	a5,-376(a4) # e88 <.LBB41_1+0xb60>
    32d4:	015f0783          	lb	a5,21(t5)
    32d8:	00001737          	lui	a4,0x1
    32dc:	40e40733          	sub	a4,s0,a4
    32e0:	e8f73823          	sd	a5,-368(a4) # e90 <.LBB41_1+0xb68>
    32e4:	016f0783          	lb	a5,22(t5)
    32e8:	00001737          	lui	a4,0x1
    32ec:	40e40733          	sub	a4,s0,a4
    32f0:	e8f73c23          	sd	a5,-360(a4) # e98 <.LBB41_1+0xb70>
    32f4:	017f0783          	lb	a5,23(t5)
    32f8:	00001737          	lui	a4,0x1
    32fc:	40e40733          	sub	a4,s0,a4
    3300:	eaf73023          	sd	a5,-352(a4) # ea0 <.LBB41_1+0xb78>
    3304:	018f0783          	lb	a5,24(t5)
    3308:	00001737          	lui	a4,0x1
    330c:	40e40733          	sub	a4,s0,a4
    3310:	eaf73423          	sd	a5,-344(a4) # ea8 <.LBB41_1+0xb80>
    3314:	019f0783          	lb	a5,25(t5)
    3318:	00001737          	lui	a4,0x1
    331c:	40e40733          	sub	a4,s0,a4
    3320:	eaf73823          	sd	a5,-336(a4) # eb0 <.LBB41_1+0xb88>
    3324:	01af0783          	lb	a5,26(t5)
    3328:	00001737          	lui	a4,0x1
    332c:	40e40733          	sub	a4,s0,a4
    3330:	eaf73c23          	sd	a5,-328(a4) # eb8 <.LBB41_1+0xb90>
    3334:	01bf0783          	lb	a5,27(t5)
    3338:	00001737          	lui	a4,0x1
    333c:	40e40733          	sub	a4,s0,a4
    3340:	ecf73023          	sd	a5,-320(a4) # ec0 <.LBB41_1+0xb98>
    3344:	01cf0783          	lb	a5,28(t5)
    3348:	00001737          	lui	a4,0x1
    334c:	40e40733          	sub	a4,s0,a4
    3350:	ecf73423          	sd	a5,-312(a4) # ec8 <.LBB41_1+0xba0>
    3354:	01df0783          	lb	a5,29(t5)
    3358:	00001737          	lui	a4,0x1
    335c:	40e40733          	sub	a4,s0,a4
    3360:	ecf73823          	sd	a5,-304(a4) # ed0 <.LBB41_1+0xba8>
    3364:	01ef0783          	lb	a5,30(t5)
    3368:	00001737          	lui	a4,0x1
    336c:	40e40733          	sub	a4,s0,a4
    3370:	ecf73c23          	sd	a5,-296(a4) # ed8 <.LBB41_1+0xbb0>
    3374:	01ff0783          	lb	a5,31(t5)
    3378:	00001737          	lui	a4,0x1
    337c:	40e40733          	sub	a4,s0,a4
    3380:	eef73023          	sd	a5,-288(a4) # ee0 <.LBB41_1+0xbb8>
    3384:	002e8783          	lb	a5,2(t4)
    3388:	00001737          	lui	a4,0x1
    338c:	40e40733          	sub	a4,s0,a4
    3390:	eef73423          	sd	a5,-280(a4) # ee8 <.LBB41_1+0xbc0>
    3394:	001e8783          	lb	a5,1(t4)
    3398:	00001737          	lui	a4,0x1
    339c:	40e40733          	sub	a4,s0,a4
    33a0:	eef73823          	sd	a5,-272(a4) # ef0 <.LBB41_1+0xbc8>
    33a4:	000e8783          	lb	a5,0(t4)
    33a8:	00001737          	lui	a4,0x1
    33ac:	40e40733          	sub	a4,s0,a4
    33b0:	eef73c23          	sd	a5,-264(a4) # ef8 <.LBB41_1+0xbd0>
    33b4:	003e8783          	lb	a5,3(t4)
    33b8:	00001737          	lui	a4,0x1
    33bc:	40e40733          	sub	a4,s0,a4
    33c0:	f0f73023          	sd	a5,-256(a4) # f00 <.LBB41_1+0xbd8>
    33c4:	004e8783          	lb	a5,4(t4)
    33c8:	00001737          	lui	a4,0x1
    33cc:	40e40733          	sub	a4,s0,a4
    33d0:	f0f73423          	sd	a5,-248(a4) # f08 <.LBB41_1+0xbe0>
    33d4:	005e8783          	lb	a5,5(t4)
    33d8:	00001737          	lui	a4,0x1
    33dc:	40e40733          	sub	a4,s0,a4
    33e0:	f0f73823          	sd	a5,-240(a4) # f10 <.LBB41_1+0xbe8>
    33e4:	006e8783          	lb	a5,6(t4)
    33e8:	00001737          	lui	a4,0x1
    33ec:	40e40733          	sub	a4,s0,a4
    33f0:	f0f73c23          	sd	a5,-232(a4) # f18 <.LBB41_1+0xbf0>
    33f4:	007e8783          	lb	a5,7(t4)
    33f8:	00001737          	lui	a4,0x1
    33fc:	40e40733          	sub	a4,s0,a4
    3400:	f2f73023          	sd	a5,-224(a4) # f20 <.LBB41_1+0xbf8>
    3404:	008e8783          	lb	a5,8(t4)
    3408:	00001737          	lui	a4,0x1
    340c:	40e40733          	sub	a4,s0,a4
    3410:	f2f73423          	sd	a5,-216(a4) # f28 <.LBB41_1+0xc00>
    3414:	009e8783          	lb	a5,9(t4)
    3418:	00001737          	lui	a4,0x1
    341c:	40e40733          	sub	a4,s0,a4
    3420:	f2f73823          	sd	a5,-208(a4) # f30 <.LBB41_1+0xc08>
    3424:	00ae8783          	lb	a5,10(t4)
    3428:	00001737          	lui	a4,0x1
    342c:	40e40733          	sub	a4,s0,a4
    3430:	f2f73c23          	sd	a5,-200(a4) # f38 <.LBB41_1+0xc10>
    3434:	00be8783          	lb	a5,11(t4)
    3438:	00001737          	lui	a4,0x1
    343c:	40e40733          	sub	a4,s0,a4
    3440:	f4f73023          	sd	a5,-192(a4) # f40 <.LBB41_1+0xc18>
    3444:	00ce8783          	lb	a5,12(t4)
    3448:	00001737          	lui	a4,0x1
    344c:	40e40733          	sub	a4,s0,a4
    3450:	f4f73423          	sd	a5,-184(a4) # f48 <.LBB41_1+0xc20>
    3454:	00de8783          	lb	a5,13(t4)
    3458:	00001737          	lui	a4,0x1
    345c:	40e40733          	sub	a4,s0,a4
    3460:	f4f73823          	sd	a5,-176(a4) # f50 <.LBB41_1+0xc28>
    3464:	00ee8783          	lb	a5,14(t4)
    3468:	00001737          	lui	a4,0x1
    346c:	40e40733          	sub	a4,s0,a4
    3470:	f4f73c23          	sd	a5,-168(a4) # f58 <.LBB41_1+0xc30>
    3474:	00fe8783          	lb	a5,15(t4)
    3478:	00001737          	lui	a4,0x1
    347c:	40e40733          	sub	a4,s0,a4
    3480:	f6f73023          	sd	a5,-160(a4) # f60 <.LBB41_1+0xc38>
    3484:	010e8783          	lb	a5,16(t4)
    3488:	00001737          	lui	a4,0x1
    348c:	40e40733          	sub	a4,s0,a4
    3490:	f6f73423          	sd	a5,-152(a4) # f68 <.LBB41_1+0xc40>
    3494:	011e8783          	lb	a5,17(t4)
    3498:	00001737          	lui	a4,0x1
    349c:	40e40733          	sub	a4,s0,a4
    34a0:	f6f73823          	sd	a5,-144(a4) # f70 <.LBB41_1+0xc48>
    34a4:	012e8783          	lb	a5,18(t4)
    34a8:	00001737          	lui	a4,0x1
    34ac:	40e40733          	sub	a4,s0,a4
    34b0:	f6f73c23          	sd	a5,-136(a4) # f78 <.LBB41_1+0xc50>
    34b4:	013e8783          	lb	a5,19(t4)
    34b8:	00001737          	lui	a4,0x1
    34bc:	40e40733          	sub	a4,s0,a4
    34c0:	f8f73023          	sd	a5,-128(a4) # f80 <.LBB41_1+0xc58>
    34c4:	014e8783          	lb	a5,20(t4)
    34c8:	00001737          	lui	a4,0x1
    34cc:	40e40733          	sub	a4,s0,a4
    34d0:	f8f73423          	sd	a5,-120(a4) # f88 <.LBB41_2+0x4>
    34d4:	015e8783          	lb	a5,21(t4)
    34d8:	00001737          	lui	a4,0x1
    34dc:	40e40733          	sub	a4,s0,a4
    34e0:	f8f73823          	sd	a5,-112(a4) # f90 <.LBB41_2+0xc>
    34e4:	016e8783          	lb	a5,22(t4)
    34e8:	00001737          	lui	a4,0x1
    34ec:	40e40733          	sub	a4,s0,a4
    34f0:	f8f73c23          	sd	a5,-104(a4) # f98 <.LBB41_2+0x14>
    34f4:	017e8783          	lb	a5,23(t4)
    34f8:	00001737          	lui	a4,0x1
    34fc:	40e40733          	sub	a4,s0,a4
    3500:	faf73023          	sd	a5,-96(a4) # fa0 <.LBB41_2+0x1c>
    3504:	018e8783          	lb	a5,24(t4)
    3508:	00001737          	lui	a4,0x1
    350c:	40e40733          	sub	a4,s0,a4
    3510:	faf73423          	sd	a5,-88(a4) # fa8 <.LBB41_2+0x24>
    3514:	019e8783          	lb	a5,25(t4)
    3518:	00001737          	lui	a4,0x1
    351c:	40e40733          	sub	a4,s0,a4
    3520:	faf73823          	sd	a5,-80(a4) # fb0 <.LBB41_2+0x2c>
    3524:	01ae8783          	lb	a5,26(t4)
    3528:	00001737          	lui	a4,0x1
    352c:	40e40733          	sub	a4,s0,a4
    3530:	faf73c23          	sd	a5,-72(a4) # fb8 <.LBB41_2+0x34>
    3534:	01be8783          	lb	a5,27(t4)
    3538:	00001737          	lui	a4,0x1
    353c:	40e40733          	sub	a4,s0,a4
    3540:	fcf73023          	sd	a5,-64(a4) # fc0 <.LBB41_2+0x3c>
    3544:	01ce8783          	lb	a5,28(t4)
    3548:	00001737          	lui	a4,0x1
    354c:	40e40733          	sub	a4,s0,a4
    3550:	fcf73423          	sd	a5,-56(a4) # fc8 <.LBB41_2+0x44>
    3554:	01de8783          	lb	a5,29(t4)
    3558:	00001737          	lui	a4,0x1
    355c:	40e40733          	sub	a4,s0,a4
    3560:	fcf73823          	sd	a5,-48(a4) # fd0 <.LBB41_2+0x4c>
    3564:	01ee8783          	lb	a5,30(t4)
    3568:	00001737          	lui	a4,0x1
    356c:	40e40733          	sub	a4,s0,a4
    3570:	fcf73c23          	sd	a5,-40(a4) # fd8 <.LBB41_2+0x54>
    3574:	01fe8783          	lb	a5,31(t4)
    3578:	00001737          	lui	a4,0x1
    357c:	40e40733          	sub	a4,s0,a4
    3580:	fef73023          	sd	a5,-32(a4) # fe0 <.LBB41_2+0x5c>
    3584:	00238783          	lb	a5,2(t2)
    3588:	00001737          	lui	a4,0x1
    358c:	40e40733          	sub	a4,s0,a4
    3590:	fef73423          	sd	a5,-24(a4) # fe8 <.LBB41_2+0x64>
    3594:	00138783          	lb	a5,1(t2)
    3598:	00001737          	lui	a4,0x1
    359c:	40e40733          	sub	a4,s0,a4
    35a0:	fef73823          	sd	a5,-16(a4) # ff0 <.LBB41_2+0x6c>
    35a4:	00038783          	lb	a5,0(t2)
    35a8:	00001737          	lui	a4,0x1
    35ac:	40e40733          	sub	a4,s0,a4
    35b0:	fef73c23          	sd	a5,-8(a4) # ff8 <.LBB41_2+0x74>
    35b4:	00338783          	lb	a5,3(t2)
    35b8:	00001737          	lui	a4,0x1
    35bc:	40e40733          	sub	a4,s0,a4
    35c0:	00f73023          	sd	a5,0(a4) # 1000 <.LBB41_2+0x7c>
    35c4:	00438783          	lb	a5,4(t2)
    35c8:	00001737          	lui	a4,0x1
    35cc:	40e40733          	sub	a4,s0,a4
    35d0:	00f73423          	sd	a5,8(a4) # 1008 <.LBB41_2+0x84>
    35d4:	00538783          	lb	a5,5(t2)
    35d8:	00001737          	lui	a4,0x1
    35dc:	40e40733          	sub	a4,s0,a4
    35e0:	00f73823          	sd	a5,16(a4) # 1010 <.LBB41_2+0x8c>
    35e4:	00638783          	lb	a5,6(t2)
    35e8:	00001737          	lui	a4,0x1
    35ec:	40e40733          	sub	a4,s0,a4
    35f0:	00f73c23          	sd	a5,24(a4) # 1018 <.LBB41_2+0x94>
    35f4:	00738783          	lb	a5,7(t2)
    35f8:	00001737          	lui	a4,0x1
    35fc:	40e40733          	sub	a4,s0,a4
    3600:	02f73023          	sd	a5,32(a4) # 1020 <.LBB41_2+0x9c>
    3604:	00838783          	lb	a5,8(t2)
    3608:	00001737          	lui	a4,0x1
    360c:	40e40733          	sub	a4,s0,a4
    3610:	02f73423          	sd	a5,40(a4) # 1028 <.LBB41_2+0xa4>
    3614:	00938783          	lb	a5,9(t2)
    3618:	00001737          	lui	a4,0x1
    361c:	40e40733          	sub	a4,s0,a4
    3620:	02f73823          	sd	a5,48(a4) # 1030 <.LBB41_2+0xac>
    3624:	00a38783          	lb	a5,10(t2)
    3628:	00001737          	lui	a4,0x1
    362c:	40e40733          	sub	a4,s0,a4
    3630:	02f73c23          	sd	a5,56(a4) # 1038 <.LBB41_2+0xb4>
    3634:	00b38783          	lb	a5,11(t2)
    3638:	00001737          	lui	a4,0x1
    363c:	40e40733          	sub	a4,s0,a4
    3640:	04f73023          	sd	a5,64(a4) # 1040 <.LBB41_2+0xbc>
    3644:	00c38783          	lb	a5,12(t2)
    3648:	00001737          	lui	a4,0x1
    364c:	40e40733          	sub	a4,s0,a4
    3650:	04f73423          	sd	a5,72(a4) # 1048 <.LBB41_2+0xc4>
    3654:	00d38783          	lb	a5,13(t2)
    3658:	00001737          	lui	a4,0x1
    365c:	40e40733          	sub	a4,s0,a4
    3660:	04f73823          	sd	a5,80(a4) # 1050 <.LBB41_2+0xcc>
    3664:	00e38783          	lb	a5,14(t2)
    3668:	00001737          	lui	a4,0x1
    366c:	40e40733          	sub	a4,s0,a4
    3670:	04f73c23          	sd	a5,88(a4) # 1058 <.LBB41_2+0xd4>
    3674:	00f38783          	lb	a5,15(t2)
    3678:	00001737          	lui	a4,0x1
    367c:	40e40733          	sub	a4,s0,a4
    3680:	06f73023          	sd	a5,96(a4) # 1060 <.LBB41_2+0xdc>
    3684:	01038783          	lb	a5,16(t2)
    3688:	00001737          	lui	a4,0x1
    368c:	40e40733          	sub	a4,s0,a4
    3690:	06f73423          	sd	a5,104(a4) # 1068 <.LBB41_2+0xe4>
    3694:	01138783          	lb	a5,17(t2)
    3698:	00001737          	lui	a4,0x1
    369c:	40e40733          	sub	a4,s0,a4
    36a0:	06f73823          	sd	a5,112(a4) # 1070 <.LBB41_2+0xec>
    36a4:	01238783          	lb	a5,18(t2)
    36a8:	00001737          	lui	a4,0x1
    36ac:	40e40733          	sub	a4,s0,a4
    36b0:	06f73c23          	sd	a5,120(a4) # 1078 <.LBB41_2+0xf4>
    36b4:	01338783          	lb	a5,19(t2)
    36b8:	00001737          	lui	a4,0x1
    36bc:	40e40733          	sub	a4,s0,a4
    36c0:	08f73023          	sd	a5,128(a4) # 1080 <.LBB41_2+0xfc>
    36c4:	01438783          	lb	a5,20(t2)
    36c8:	00001737          	lui	a4,0x1
    36cc:	40e40733          	sub	a4,s0,a4
    36d0:	08f73423          	sd	a5,136(a4) # 1088 <.LBB41_2+0x104>
    36d4:	01538783          	lb	a5,21(t2)
    36d8:	00001737          	lui	a4,0x1
    36dc:	40e40733          	sub	a4,s0,a4
    36e0:	08f73823          	sd	a5,144(a4) # 1090 <.LBB41_2+0x10c>
    36e4:	01638783          	lb	a5,22(t2)
    36e8:	00001737          	lui	a4,0x1
    36ec:	40e40733          	sub	a4,s0,a4
    36f0:	08f73c23          	sd	a5,152(a4) # 1098 <.LBB41_2+0x114>
    36f4:	01738783          	lb	a5,23(t2)
    36f8:	00001737          	lui	a4,0x1
    36fc:	40e40733          	sub	a4,s0,a4
    3700:	0af73023          	sd	a5,160(a4) # 10a0 <.LBB41_2+0x11c>
    3704:	01838783          	lb	a5,24(t2)
    3708:	00001737          	lui	a4,0x1
    370c:	40e40733          	sub	a4,s0,a4
    3710:	0af73423          	sd	a5,168(a4) # 10a8 <.LBB41_2+0x124>
    3714:	01938783          	lb	a5,25(t2)
    3718:	00001737          	lui	a4,0x1
    371c:	40e40733          	sub	a4,s0,a4
    3720:	0af73823          	sd	a5,176(a4) # 10b0 <.LBB41_2+0x12c>
    3724:	01a38783          	lb	a5,26(t2)
    3728:	00001737          	lui	a4,0x1
    372c:	40e40733          	sub	a4,s0,a4
    3730:	0af73c23          	sd	a5,184(a4) # 10b8 <.LBB41_2+0x134>
    3734:	01b38783          	lb	a5,27(t2)
    3738:	00001737          	lui	a4,0x1
    373c:	40e40733          	sub	a4,s0,a4
    3740:	0cf73023          	sd	a5,192(a4) # 10c0 <.LBB41_2+0x13c>
    3744:	01c38783          	lb	a5,28(t2)
    3748:	00001737          	lui	a4,0x1
    374c:	40e40733          	sub	a4,s0,a4
    3750:	0cf73423          	sd	a5,200(a4) # 10c8 <.LBB41_2+0x144>
    3754:	01d38783          	lb	a5,29(t2)
    3758:	00001737          	lui	a4,0x1
    375c:	40e40733          	sub	a4,s0,a4
    3760:	0cf73823          	sd	a5,208(a4) # 10d0 <.LBB41_2+0x14c>
    3764:	01e38783          	lb	a5,30(t2)
    3768:	00001737          	lui	a4,0x1
    376c:	40e40733          	sub	a4,s0,a4
    3770:	0cf73c23          	sd	a5,216(a4) # 10d8 <.LBB41_2+0x154>
    3774:	01f38783          	lb	a5,31(t2)
    3778:	00001737          	lui	a4,0x1
    377c:	40e40733          	sub	a4,s0,a4
    3780:	0ef73023          	sd	a5,224(a4) # 10e0 <.LBB41_2+0x15c>
    3784:	00230783          	lb	a5,2(t1)
    3788:	00001737          	lui	a4,0x1
    378c:	40e40733          	sub	a4,s0,a4
    3790:	0ef73423          	sd	a5,232(a4) # 10e8 <.LBB41_2+0x164>
    3794:	00130783          	lb	a5,1(t1)
    3798:	00001737          	lui	a4,0x1
    379c:	40e40733          	sub	a4,s0,a4
    37a0:	0ef73823          	sd	a5,240(a4) # 10f0 <.LBB41_2+0x16c>
    37a4:	00030783          	lb	a5,0(t1)
    37a8:	00001737          	lui	a4,0x1
    37ac:	40e40733          	sub	a4,s0,a4
    37b0:	0ef73c23          	sd	a5,248(a4) # 10f8 <.LBB41_2+0x174>
    37b4:	00330783          	lb	a5,3(t1)
    37b8:	00001737          	lui	a4,0x1
    37bc:	40e40733          	sub	a4,s0,a4
    37c0:	10f73023          	sd	a5,256(a4) # 1100 <.LBB41_2+0x17c>
    37c4:	00430783          	lb	a5,4(t1)
    37c8:	00001737          	lui	a4,0x1
    37cc:	40e40733          	sub	a4,s0,a4
    37d0:	10f73423          	sd	a5,264(a4) # 1108 <.LBB41_2+0x184>
    37d4:	00530783          	lb	a5,5(t1)
    37d8:	00001737          	lui	a4,0x1
    37dc:	40e40733          	sub	a4,s0,a4
    37e0:	10f73823          	sd	a5,272(a4) # 1110 <.LBB41_2+0x18c>
    37e4:	00630783          	lb	a5,6(t1)
    37e8:	00001737          	lui	a4,0x1
    37ec:	40e40733          	sub	a4,s0,a4
    37f0:	10f73c23          	sd	a5,280(a4) # 1118 <.LBB41_2+0x194>
    37f4:	00730783          	lb	a5,7(t1)
    37f8:	00001737          	lui	a4,0x1
    37fc:	40e40733          	sub	a4,s0,a4
    3800:	12f73023          	sd	a5,288(a4) # 1120 <.LBB41_2+0x19c>
    3804:	00830783          	lb	a5,8(t1)
    3808:	00001737          	lui	a4,0x1
    380c:	40e40733          	sub	a4,s0,a4
    3810:	12f73423          	sd	a5,296(a4) # 1128 <.LBB41_2+0x1a4>
    3814:	00930783          	lb	a5,9(t1)
    3818:	00001737          	lui	a4,0x1
    381c:	40e40733          	sub	a4,s0,a4
    3820:	12f73823          	sd	a5,304(a4) # 1130 <.LBB41_2+0x1ac>
    3824:	00a30783          	lb	a5,10(t1)
    3828:	00001737          	lui	a4,0x1
    382c:	40e40733          	sub	a4,s0,a4
    3830:	12f73c23          	sd	a5,312(a4) # 1138 <.LBB41_2+0x1b4>
    3834:	00b30783          	lb	a5,11(t1)
    3838:	00001737          	lui	a4,0x1
    383c:	40e40733          	sub	a4,s0,a4
    3840:	14f73023          	sd	a5,320(a4) # 1140 <.LBB41_2+0x1bc>
    3844:	00c30783          	lb	a5,12(t1)
    3848:	00001737          	lui	a4,0x1
    384c:	40e40733          	sub	a4,s0,a4
    3850:	14f73423          	sd	a5,328(a4) # 1148 <.LBB41_2+0x1c4>
    3854:	00d30783          	lb	a5,13(t1)
    3858:	00001737          	lui	a4,0x1
    385c:	40e40733          	sub	a4,s0,a4
    3860:	14f73823          	sd	a5,336(a4) # 1150 <.LBB41_2+0x1cc>
    3864:	00e30783          	lb	a5,14(t1)
    3868:	00001737          	lui	a4,0x1
    386c:	40e40733          	sub	a4,s0,a4
    3870:	14f73c23          	sd	a5,344(a4) # 1158 <.LBB41_2+0x1d4>
    3874:	00f30783          	lb	a5,15(t1)
    3878:	00001737          	lui	a4,0x1
    387c:	40e40733          	sub	a4,s0,a4
    3880:	16f73023          	sd	a5,352(a4) # 1160 <.LBB41_2+0x1dc>
    3884:	01030783          	lb	a5,16(t1)
    3888:	00001737          	lui	a4,0x1
    388c:	40e40733          	sub	a4,s0,a4
    3890:	16f73423          	sd	a5,360(a4) # 1168 <.LBB41_2+0x1e4>
    3894:	01130783          	lb	a5,17(t1)
    3898:	00001737          	lui	a4,0x1
    389c:	40e40733          	sub	a4,s0,a4
    38a0:	16f73823          	sd	a5,368(a4) # 1170 <.LBB41_2+0x1ec>
    38a4:	01230783          	lb	a5,18(t1)
    38a8:	00001737          	lui	a4,0x1
    38ac:	40e40733          	sub	a4,s0,a4
    38b0:	16f73c23          	sd	a5,376(a4) # 1178 <.LBB41_2+0x1f4>
    38b4:	01330783          	lb	a5,19(t1)
    38b8:	00001737          	lui	a4,0x1
    38bc:	40e40733          	sub	a4,s0,a4
    38c0:	18f73023          	sd	a5,384(a4) # 1180 <.LBB41_2+0x1fc>
    38c4:	01430783          	lb	a5,20(t1)
    38c8:	00001737          	lui	a4,0x1
    38cc:	40e40733          	sub	a4,s0,a4
    38d0:	18f73423          	sd	a5,392(a4) # 1188 <.LBB41_2+0x204>
    38d4:	01530783          	lb	a5,21(t1)
    38d8:	00001737          	lui	a4,0x1
    38dc:	40e40733          	sub	a4,s0,a4
    38e0:	18f73823          	sd	a5,400(a4) # 1190 <.LBB41_2+0x20c>
    38e4:	01630783          	lb	a5,22(t1)
    38e8:	00001737          	lui	a4,0x1
    38ec:	40e40733          	sub	a4,s0,a4
    38f0:	18f73c23          	sd	a5,408(a4) # 1198 <.LBB41_2+0x214>
    38f4:	01730783          	lb	a5,23(t1)
    38f8:	00001737          	lui	a4,0x1
    38fc:	40e40733          	sub	a4,s0,a4
    3900:	1af73023          	sd	a5,416(a4) # 11a0 <.LBB41_2+0x21c>
    3904:	01830783          	lb	a5,24(t1)
    3908:	00001737          	lui	a4,0x1
    390c:	40e40733          	sub	a4,s0,a4
    3910:	1af73423          	sd	a5,424(a4) # 11a8 <.LBB41_2+0x224>
    3914:	01930783          	lb	a5,25(t1)
    3918:	00001737          	lui	a4,0x1
    391c:	40e40733          	sub	a4,s0,a4
    3920:	1af73823          	sd	a5,432(a4) # 11b0 <.LBB41_2+0x22c>
    3924:	01a30783          	lb	a5,26(t1)
    3928:	00001737          	lui	a4,0x1
    392c:	40e40733          	sub	a4,s0,a4
    3930:	1af73c23          	sd	a5,440(a4) # 11b8 <.LBB41_2+0x234>
    3934:	01b30783          	lb	a5,27(t1)
    3938:	00001737          	lui	a4,0x1
    393c:	40e40733          	sub	a4,s0,a4
    3940:	1cf73023          	sd	a5,448(a4) # 11c0 <.LBB41_2+0x23c>
    3944:	01c30783          	lb	a5,28(t1)
    3948:	00001737          	lui	a4,0x1
    394c:	40e40733          	sub	a4,s0,a4
    3950:	1cf73423          	sd	a5,456(a4) # 11c8 <.LBB41_2+0x244>
    3954:	01d30783          	lb	a5,29(t1)
    3958:	00001737          	lui	a4,0x1
    395c:	40e40733          	sub	a4,s0,a4
    3960:	1cf73823          	sd	a5,464(a4) # 11d0 <.LBB41_2+0x24c>
    3964:	01e30783          	lb	a5,30(t1)
    3968:	00001737          	lui	a4,0x1
    396c:	40e40733          	sub	a4,s0,a4
    3970:	1cf73c23          	sd	a5,472(a4) # 11d8 <.LBB41_2+0x254>
    3974:	01f30783          	lb	a5,31(t1)
    3978:	00001737          	lui	a4,0x1
    397c:	40e40733          	sub	a4,s0,a4
    3980:	1ef73023          	sd	a5,480(a4) # 11e0 <.LBB41_2+0x25c>
    3984:	00228783          	lb	a5,2(t0)
    3988:	00001737          	lui	a4,0x1
    398c:	40e40733          	sub	a4,s0,a4
    3990:	1ef73423          	sd	a5,488(a4) # 11e8 <.LBB41_2+0x264>
    3994:	00128783          	lb	a5,1(t0)
    3998:	00001737          	lui	a4,0x1
    399c:	40e40733          	sub	a4,s0,a4
    39a0:	1ef73823          	sd	a5,496(a4) # 11f0 <.LBB41_2+0x26c>
    39a4:	00028783          	lb	a5,0(t0)
    39a8:	00001737          	lui	a4,0x1
    39ac:	40e40733          	sub	a4,s0,a4
    39b0:	1ef73c23          	sd	a5,504(a4) # 11f8 <.LBB41_2+0x274>
    39b4:	00328783          	lb	a5,3(t0)
    39b8:	00001737          	lui	a4,0x1
    39bc:	40e40733          	sub	a4,s0,a4
    39c0:	20f73023          	sd	a5,512(a4) # 1200 <.LBB41_2+0x27c>
    39c4:	00428783          	lb	a5,4(t0)
    39c8:	00001737          	lui	a4,0x1
    39cc:	40e40733          	sub	a4,s0,a4
    39d0:	20f73423          	sd	a5,520(a4) # 1208 <.LBB41_2+0x284>
    39d4:	00528783          	lb	a5,5(t0)
    39d8:	00001737          	lui	a4,0x1
    39dc:	40e40733          	sub	a4,s0,a4
    39e0:	20f73823          	sd	a5,528(a4) # 1210 <.LBB41_2+0x28c>
    39e4:	00628783          	lb	a5,6(t0)
    39e8:	00001737          	lui	a4,0x1
    39ec:	40e40733          	sub	a4,s0,a4
    39f0:	20f73c23          	sd	a5,536(a4) # 1218 <.LBB41_2+0x294>
    39f4:	00728783          	lb	a5,7(t0)
    39f8:	00001737          	lui	a4,0x1
    39fc:	40e40733          	sub	a4,s0,a4
    3a00:	22f73023          	sd	a5,544(a4) # 1220 <.LBB41_2+0x29c>
    3a04:	00828783          	lb	a5,8(t0)
    3a08:	00001737          	lui	a4,0x1
    3a0c:	40e40733          	sub	a4,s0,a4
    3a10:	22f73423          	sd	a5,552(a4) # 1228 <.LBB41_2+0x2a4>
    3a14:	00928783          	lb	a5,9(t0)
    3a18:	00001737          	lui	a4,0x1
    3a1c:	40e40733          	sub	a4,s0,a4
    3a20:	22f73823          	sd	a5,560(a4) # 1230 <.LBB41_2+0x2ac>
    3a24:	00a28783          	lb	a5,10(t0)
    3a28:	00001737          	lui	a4,0x1
    3a2c:	40e40733          	sub	a4,s0,a4
    3a30:	22f73c23          	sd	a5,568(a4) # 1238 <.LBB41_2+0x2b4>
    3a34:	00b28783          	lb	a5,11(t0)
    3a38:	00001737          	lui	a4,0x1
    3a3c:	40e40733          	sub	a4,s0,a4
    3a40:	24f73023          	sd	a5,576(a4) # 1240 <.LBB41_2+0x2bc>
    3a44:	00c28783          	lb	a5,12(t0)
    3a48:	00001737          	lui	a4,0x1
    3a4c:	40e40733          	sub	a4,s0,a4
    3a50:	24f73423          	sd	a5,584(a4) # 1248 <.LBB41_2+0x2c4>
    3a54:	00d28783          	lb	a5,13(t0)
    3a58:	00001737          	lui	a4,0x1
    3a5c:	40e40733          	sub	a4,s0,a4
    3a60:	24f73823          	sd	a5,592(a4) # 1250 <.LBB41_2+0x2cc>
    3a64:	00e28783          	lb	a5,14(t0)
    3a68:	00001737          	lui	a4,0x1
    3a6c:	40e40733          	sub	a4,s0,a4
    3a70:	24f73c23          	sd	a5,600(a4) # 1258 <.LBB41_2+0x2d4>
    3a74:	00f28783          	lb	a5,15(t0)
    3a78:	00001737          	lui	a4,0x1
    3a7c:	40e40733          	sub	a4,s0,a4
    3a80:	26f73023          	sd	a5,608(a4) # 1260 <.LBB41_2+0x2dc>
    3a84:	01028783          	lb	a5,16(t0)
    3a88:	00001737          	lui	a4,0x1
    3a8c:	40e40733          	sub	a4,s0,a4
    3a90:	26f73423          	sd	a5,616(a4) # 1268 <.LBB41_2+0x2e4>
    3a94:	01128783          	lb	a5,17(t0)
    3a98:	00001737          	lui	a4,0x1
    3a9c:	40e40733          	sub	a4,s0,a4
    3aa0:	26f73823          	sd	a5,624(a4) # 1270 <.LBB41_2+0x2ec>
    3aa4:	01228783          	lb	a5,18(t0)
    3aa8:	00001737          	lui	a4,0x1
    3aac:	40e40733          	sub	a4,s0,a4
    3ab0:	26f73c23          	sd	a5,632(a4) # 1278 <.LBB41_2+0x2f4>
    3ab4:	01328783          	lb	a5,19(t0)
    3ab8:	00001737          	lui	a4,0x1
    3abc:	40e40733          	sub	a4,s0,a4
    3ac0:	28f73023          	sd	a5,640(a4) # 1280 <.LBB41_2+0x2fc>
    3ac4:	01428783          	lb	a5,20(t0)
    3ac8:	00001737          	lui	a4,0x1
    3acc:	40e40733          	sub	a4,s0,a4
    3ad0:	28f73423          	sd	a5,648(a4) # 1288 <.LBB41_2+0x304>
    3ad4:	01528783          	lb	a5,21(t0)
    3ad8:	00001737          	lui	a4,0x1
    3adc:	40e40733          	sub	a4,s0,a4
    3ae0:	28f73823          	sd	a5,656(a4) # 1290 <.LBB41_2+0x30c>
    3ae4:	01628783          	lb	a5,22(t0)
    3ae8:	00001737          	lui	a4,0x1
    3aec:	40e40733          	sub	a4,s0,a4
    3af0:	28f73c23          	sd	a5,664(a4) # 1298 <.LBB41_2+0x314>
    3af4:	01728783          	lb	a5,23(t0)
    3af8:	00001737          	lui	a4,0x1
    3afc:	40e40733          	sub	a4,s0,a4
    3b00:	2af73023          	sd	a5,672(a4) # 12a0 <.LBB41_2+0x31c>
    3b04:	01828783          	lb	a5,24(t0)
    3b08:	00001737          	lui	a4,0x1
    3b0c:	40e40733          	sub	a4,s0,a4
    3b10:	2af73423          	sd	a5,680(a4) # 12a8 <.LBB41_2+0x324>
    3b14:	01928783          	lb	a5,25(t0)
    3b18:	00001737          	lui	a4,0x1
    3b1c:	40e40733          	sub	a4,s0,a4
    3b20:	2af73823          	sd	a5,688(a4) # 12b0 <.LBB41_2+0x32c>
    3b24:	01a28783          	lb	a5,26(t0)
    3b28:	00001737          	lui	a4,0x1
    3b2c:	40e40733          	sub	a4,s0,a4
    3b30:	2af73c23          	sd	a5,696(a4) # 12b8 <.LBB41_2+0x334>
    3b34:	01b28783          	lb	a5,27(t0)
    3b38:	00001737          	lui	a4,0x1
    3b3c:	40e40733          	sub	a4,s0,a4
    3b40:	2cf73023          	sd	a5,704(a4) # 12c0 <.LBB41_2+0x33c>
    3b44:	01c28783          	lb	a5,28(t0)
    3b48:	00001737          	lui	a4,0x1
    3b4c:	40e40733          	sub	a4,s0,a4
    3b50:	2cf73423          	sd	a5,712(a4) # 12c8 <.LBB41_2+0x344>
    3b54:	01d28783          	lb	a5,29(t0)
    3b58:	00001737          	lui	a4,0x1
    3b5c:	40e40733          	sub	a4,s0,a4
    3b60:	2cf73823          	sd	a5,720(a4) # 12d0 <.LBB41_2+0x34c>
    3b64:	01e28783          	lb	a5,30(t0)
    3b68:	00001737          	lui	a4,0x1
    3b6c:	40e40733          	sub	a4,s0,a4
    3b70:	2cf73c23          	sd	a5,728(a4) # 12d8 <.LBB41_2+0x354>
    3b74:	01f28783          	lb	a5,31(t0)
    3b78:	00001737          	lui	a4,0x1
    3b7c:	40e40733          	sub	a4,s0,a4
    3b80:	2ef73023          	sd	a5,736(a4) # 12e0 <.LBB41_2+0x35c>
    3b84:	00288783          	lb	a5,2(a7)
    3b88:	00001737          	lui	a4,0x1
    3b8c:	40e40733          	sub	a4,s0,a4
    3b90:	2ef73423          	sd	a5,744(a4) # 12e8 <.LBB41_2+0x364>
    3b94:	00188783          	lb	a5,1(a7)
    3b98:	00001737          	lui	a4,0x1
    3b9c:	40e40733          	sub	a4,s0,a4
    3ba0:	2ef73823          	sd	a5,752(a4) # 12f0 <.LBB41_2+0x36c>
    3ba4:	00088783          	lb	a5,0(a7)
    3ba8:	00001737          	lui	a4,0x1
    3bac:	40e40733          	sub	a4,s0,a4
    3bb0:	2ef73c23          	sd	a5,760(a4) # 12f8 <.LBB41_2+0x374>
    3bb4:	00388783          	lb	a5,3(a7)
    3bb8:	00001737          	lui	a4,0x1
    3bbc:	40e40733          	sub	a4,s0,a4
    3bc0:	30f73023          	sd	a5,768(a4) # 1300 <.LBB41_2+0x37c>
    3bc4:	00488783          	lb	a5,4(a7)
    3bc8:	00001737          	lui	a4,0x1
    3bcc:	40e40733          	sub	a4,s0,a4
    3bd0:	30f73423          	sd	a5,776(a4) # 1308 <.LBB41_2+0x384>
    3bd4:	00588783          	lb	a5,5(a7)
    3bd8:	00001737          	lui	a4,0x1
    3bdc:	40e40733          	sub	a4,s0,a4
    3be0:	30f73823          	sd	a5,784(a4) # 1310 <.LBB41_2+0x38c>
    3be4:	00688783          	lb	a5,6(a7)
    3be8:	00001737          	lui	a4,0x1
    3bec:	40e40733          	sub	a4,s0,a4
    3bf0:	30f73c23          	sd	a5,792(a4) # 1318 <.LBB41_2+0x394>
    3bf4:	00788783          	lb	a5,7(a7)
    3bf8:	00001737          	lui	a4,0x1
    3bfc:	40e40733          	sub	a4,s0,a4
    3c00:	32f73023          	sd	a5,800(a4) # 1320 <.LBB41_2+0x39c>
    3c04:	00888783          	lb	a5,8(a7)
    3c08:	00001737          	lui	a4,0x1
    3c0c:	40e40733          	sub	a4,s0,a4
    3c10:	32f73423          	sd	a5,808(a4) # 1328 <.LBB41_2+0x3a4>
    3c14:	00988783          	lb	a5,9(a7)
    3c18:	00001737          	lui	a4,0x1
    3c1c:	40e40733          	sub	a4,s0,a4
    3c20:	32f73823          	sd	a5,816(a4) # 1330 <.LBB41_2+0x3ac>
    3c24:	00a88783          	lb	a5,10(a7)
    3c28:	00001737          	lui	a4,0x1
    3c2c:	40e40733          	sub	a4,s0,a4
    3c30:	32f73c23          	sd	a5,824(a4) # 1338 <.LBB41_2+0x3b4>
    3c34:	00b88783          	lb	a5,11(a7)
    3c38:	00001737          	lui	a4,0x1
    3c3c:	40e40733          	sub	a4,s0,a4
    3c40:	34f73023          	sd	a5,832(a4) # 1340 <.LBB41_2+0x3bc>
    3c44:	00c88783          	lb	a5,12(a7)
    3c48:	00001737          	lui	a4,0x1
    3c4c:	40e40733          	sub	a4,s0,a4
    3c50:	34f73423          	sd	a5,840(a4) # 1348 <.LBB41_2+0x3c4>
    3c54:	00d88783          	lb	a5,13(a7)
    3c58:	00001737          	lui	a4,0x1
    3c5c:	40e40733          	sub	a4,s0,a4
    3c60:	34f73823          	sd	a5,848(a4) # 1350 <.LBB41_2+0x3cc>
    3c64:	00e88783          	lb	a5,14(a7)
    3c68:	00001737          	lui	a4,0x1
    3c6c:	40e40733          	sub	a4,s0,a4
    3c70:	34f73c23          	sd	a5,856(a4) # 1358 <.LBB41_2+0x3d4>
    3c74:	00f88783          	lb	a5,15(a7)
    3c78:	00001737          	lui	a4,0x1
    3c7c:	40e40733          	sub	a4,s0,a4
    3c80:	36f73023          	sd	a5,864(a4) # 1360 <.LBB41_2+0x3dc>
    3c84:	01088783          	lb	a5,16(a7)
    3c88:	00001737          	lui	a4,0x1
    3c8c:	40e40733          	sub	a4,s0,a4
    3c90:	36f73423          	sd	a5,872(a4) # 1368 <.LBB41_2+0x3e4>
    3c94:	01188783          	lb	a5,17(a7)
    3c98:	00001737          	lui	a4,0x1
    3c9c:	40e40733          	sub	a4,s0,a4
    3ca0:	36f73823          	sd	a5,880(a4) # 1370 <.LBB41_2+0x3ec>
    3ca4:	01288783          	lb	a5,18(a7)
    3ca8:	00001737          	lui	a4,0x1
    3cac:	40e40733          	sub	a4,s0,a4
    3cb0:	36f73c23          	sd	a5,888(a4) # 1378 <.LBB41_2+0x3f4>
    3cb4:	01388783          	lb	a5,19(a7)
    3cb8:	00001737          	lui	a4,0x1
    3cbc:	40e40733          	sub	a4,s0,a4
    3cc0:	38f73023          	sd	a5,896(a4) # 1380 <.LBB41_2+0x3fc>
    3cc4:	01488783          	lb	a5,20(a7)
    3cc8:	00001737          	lui	a4,0x1
    3ccc:	40e40733          	sub	a4,s0,a4
    3cd0:	38f73423          	sd	a5,904(a4) # 1388 <.LBB41_2+0x404>
    3cd4:	01588783          	lb	a5,21(a7)
    3cd8:	00001737          	lui	a4,0x1
    3cdc:	40e40733          	sub	a4,s0,a4
    3ce0:	38f73823          	sd	a5,912(a4) # 1390 <.LBB41_2+0x40c>
    3ce4:	01688783          	lb	a5,22(a7)
    3ce8:	00001737          	lui	a4,0x1
    3cec:	40e40733          	sub	a4,s0,a4
    3cf0:	38f73c23          	sd	a5,920(a4) # 1398 <.LBB41_2+0x414>
    3cf4:	01788783          	lb	a5,23(a7)
    3cf8:	00001737          	lui	a4,0x1
    3cfc:	40e40733          	sub	a4,s0,a4
    3d00:	3af73023          	sd	a5,928(a4) # 13a0 <.LBB41_2+0x41c>
    3d04:	01888783          	lb	a5,24(a7)
    3d08:	00001737          	lui	a4,0x1
    3d0c:	40e40733          	sub	a4,s0,a4
    3d10:	3af73423          	sd	a5,936(a4) # 13a8 <.LBB41_2+0x424>
    3d14:	01988783          	lb	a5,25(a7)
    3d18:	00001737          	lui	a4,0x1
    3d1c:	40e40733          	sub	a4,s0,a4
    3d20:	3af73823          	sd	a5,944(a4) # 13b0 <.LBB41_2+0x42c>
    3d24:	01a88783          	lb	a5,26(a7)
    3d28:	00001737          	lui	a4,0x1
    3d2c:	40e40733          	sub	a4,s0,a4
    3d30:	3af73c23          	sd	a5,952(a4) # 13b8 <.LBB41_2+0x434>
    3d34:	01b88783          	lb	a5,27(a7)
    3d38:	00001737          	lui	a4,0x1
    3d3c:	40e40733          	sub	a4,s0,a4
    3d40:	3cf73023          	sd	a5,960(a4) # 13c0 <.LBB41_2+0x43c>
    3d44:	01c88783          	lb	a5,28(a7)
    3d48:	00001737          	lui	a4,0x1
    3d4c:	40e40733          	sub	a4,s0,a4
    3d50:	3cf73423          	sd	a5,968(a4) # 13c8 <.LBB41_2+0x444>
    3d54:	01d88783          	lb	a5,29(a7)
    3d58:	00001737          	lui	a4,0x1
    3d5c:	40e40733          	sub	a4,s0,a4
    3d60:	3cf73823          	sd	a5,976(a4) # 13d0 <.LBB41_2+0x44c>
    3d64:	01e88783          	lb	a5,30(a7)
    3d68:	00001737          	lui	a4,0x1
    3d6c:	40e40733          	sub	a4,s0,a4
    3d70:	3cf73c23          	sd	a5,984(a4) # 13d8 <.LBB41_2+0x454>
    3d74:	01f88783          	lb	a5,31(a7)
    3d78:	00001737          	lui	a4,0x1
    3d7c:	40e40733          	sub	a4,s0,a4
    3d80:	3ef73023          	sd	a5,992(a4) # 13e0 <.LBB41_2+0x45c>
    3d84:	00268783          	lb	a5,2(a3)
    3d88:	00001737          	lui	a4,0x1
    3d8c:	40e40733          	sub	a4,s0,a4
    3d90:	3ef73423          	sd	a5,1000(a4) # 13e8 <.LBB41_2+0x464>
    3d94:	00168783          	lb	a5,1(a3)
    3d98:	00001737          	lui	a4,0x1
    3d9c:	40e40733          	sub	a4,s0,a4
    3da0:	3ef73823          	sd	a5,1008(a4) # 13f0 <.LBB41_2+0x46c>
    3da4:	00068783          	lb	a5,0(a3)
    3da8:	00001737          	lui	a4,0x1
    3dac:	40e40733          	sub	a4,s0,a4
    3db0:	3ef73c23          	sd	a5,1016(a4) # 13f8 <.LBB41_2+0x474>
    3db4:	00368783          	lb	a5,3(a3)
    3db8:	00001737          	lui	a4,0x1
    3dbc:	40e40733          	sub	a4,s0,a4
    3dc0:	40f73023          	sd	a5,1024(a4) # 1400 <.LBB41_2+0x47c>
    3dc4:	00468783          	lb	a5,4(a3)
    3dc8:	00001737          	lui	a4,0x1
    3dcc:	40e40733          	sub	a4,s0,a4
    3dd0:	40f73423          	sd	a5,1032(a4) # 1408 <.LBB41_2+0x484>
    3dd4:	00568783          	lb	a5,5(a3)
    3dd8:	00001737          	lui	a4,0x1
    3ddc:	40e40733          	sub	a4,s0,a4
    3de0:	40f73823          	sd	a5,1040(a4) # 1410 <.LBB41_2+0x48c>
    3de4:	00668783          	lb	a5,6(a3)
    3de8:	00001737          	lui	a4,0x1
    3dec:	40e40733          	sub	a4,s0,a4
    3df0:	40f73c23          	sd	a5,1048(a4) # 1418 <.LBB41_2+0x494>
    3df4:	00768783          	lb	a5,7(a3)
    3df8:	00001737          	lui	a4,0x1
    3dfc:	40e40733          	sub	a4,s0,a4
    3e00:	42f73023          	sd	a5,1056(a4) # 1420 <.LBB41_2+0x49c>
    3e04:	00868783          	lb	a5,8(a3)
    3e08:	00001737          	lui	a4,0x1
    3e0c:	40e40733          	sub	a4,s0,a4
    3e10:	42f73423          	sd	a5,1064(a4) # 1428 <.LBB41_2+0x4a4>
    3e14:	00968783          	lb	a5,9(a3)
    3e18:	00001737          	lui	a4,0x1
    3e1c:	40e40733          	sub	a4,s0,a4
    3e20:	42f73823          	sd	a5,1072(a4) # 1430 <.LBB41_2+0x4ac>
    3e24:	00a68783          	lb	a5,10(a3)
    3e28:	00001737          	lui	a4,0x1
    3e2c:	40e40733          	sub	a4,s0,a4
    3e30:	42f73c23          	sd	a5,1080(a4) # 1438 <.LBB41_2+0x4b4>
    3e34:	00b68783          	lb	a5,11(a3)
    3e38:	00001737          	lui	a4,0x1
    3e3c:	40e40733          	sub	a4,s0,a4
    3e40:	44f73023          	sd	a5,1088(a4) # 1440 <.LBB41_2+0x4bc>
    3e44:	00c68783          	lb	a5,12(a3)
    3e48:	00001737          	lui	a4,0x1
    3e4c:	40e40733          	sub	a4,s0,a4
    3e50:	44f73423          	sd	a5,1096(a4) # 1448 <.LBB41_2+0x4c4>
    3e54:	00d68783          	lb	a5,13(a3)
    3e58:	00001737          	lui	a4,0x1
    3e5c:	40e40733          	sub	a4,s0,a4
    3e60:	44f73823          	sd	a5,1104(a4) # 1450 <.LBB41_2+0x4cc>
    3e64:	00e68783          	lb	a5,14(a3)
    3e68:	00001737          	lui	a4,0x1
    3e6c:	40e40733          	sub	a4,s0,a4
    3e70:	44f73c23          	sd	a5,1112(a4) # 1458 <.LBB41_2+0x4d4>
    3e74:	00f68783          	lb	a5,15(a3)
    3e78:	00001737          	lui	a4,0x1
    3e7c:	40e40733          	sub	a4,s0,a4
    3e80:	46f73023          	sd	a5,1120(a4) # 1460 <.LBB41_2+0x4dc>
    3e84:	01068783          	lb	a5,16(a3)
    3e88:	00001737          	lui	a4,0x1
    3e8c:	40e40733          	sub	a4,s0,a4
    3e90:	46f73423          	sd	a5,1128(a4) # 1468 <.LBB41_2+0x4e4>
    3e94:	01168783          	lb	a5,17(a3)
    3e98:	00001737          	lui	a4,0x1
    3e9c:	40e40733          	sub	a4,s0,a4
    3ea0:	46f73823          	sd	a5,1136(a4) # 1470 <.LBB41_2+0x4ec>
    3ea4:	01268783          	lb	a5,18(a3)
    3ea8:	00001737          	lui	a4,0x1
    3eac:	40e40733          	sub	a4,s0,a4
    3eb0:	46f73c23          	sd	a5,1144(a4) # 1478 <.LBB41_2+0x4f4>
    3eb4:	01368783          	lb	a5,19(a3)
    3eb8:	00001737          	lui	a4,0x1
    3ebc:	40e40733          	sub	a4,s0,a4
    3ec0:	48f73023          	sd	a5,1152(a4) # 1480 <.LBB41_2+0x4fc>
    3ec4:	01468783          	lb	a5,20(a3)
    3ec8:	00001737          	lui	a4,0x1
    3ecc:	40e40733          	sub	a4,s0,a4
    3ed0:	48f73423          	sd	a5,1160(a4) # 1488 <.LBB41_2+0x504>
    3ed4:	01568783          	lb	a5,21(a3)
    3ed8:	00001737          	lui	a4,0x1
    3edc:	40e40733          	sub	a4,s0,a4
    3ee0:	48f73823          	sd	a5,1168(a4) # 1490 <.LBB41_2+0x50c>
    3ee4:	01668783          	lb	a5,22(a3)
    3ee8:	00001737          	lui	a4,0x1
    3eec:	40e40733          	sub	a4,s0,a4
    3ef0:	48f73c23          	sd	a5,1176(a4) # 1498 <.LBB41_2+0x514>
    3ef4:	01768783          	lb	a5,23(a3)
    3ef8:	00001737          	lui	a4,0x1
    3efc:	40e40733          	sub	a4,s0,a4
    3f00:	4af73023          	sd	a5,1184(a4) # 14a0 <.LBB41_2+0x51c>
    3f04:	01868783          	lb	a5,24(a3)
    3f08:	00001737          	lui	a4,0x1
    3f0c:	40e40733          	sub	a4,s0,a4
    3f10:	4af73423          	sd	a5,1192(a4) # 14a8 <.LBB41_2+0x524>
    3f14:	01968783          	lb	a5,25(a3)
    3f18:	00001737          	lui	a4,0x1
    3f1c:	40e40733          	sub	a4,s0,a4
    3f20:	4af73823          	sd	a5,1200(a4) # 14b0 <.LBB41_2+0x52c>
    3f24:	01a68783          	lb	a5,26(a3)
    3f28:	00001737          	lui	a4,0x1
    3f2c:	40e40733          	sub	a4,s0,a4
    3f30:	4af73c23          	sd	a5,1208(a4) # 14b8 <.LBB41_2+0x534>
    3f34:	01b68783          	lb	a5,27(a3)
    3f38:	00001737          	lui	a4,0x1
    3f3c:	40e40733          	sub	a4,s0,a4
    3f40:	4cf73023          	sd	a5,1216(a4) # 14c0 <.LBB41_2+0x53c>
    3f44:	01c68783          	lb	a5,28(a3)
    3f48:	00001737          	lui	a4,0x1
    3f4c:	40e40733          	sub	a4,s0,a4
    3f50:	4cf73423          	sd	a5,1224(a4) # 14c8 <.LBB41_2+0x544>
    3f54:	01d68783          	lb	a5,29(a3)
    3f58:	00001737          	lui	a4,0x1
    3f5c:	40e40733          	sub	a4,s0,a4
    3f60:	4cf73823          	sd	a5,1232(a4) # 14d0 <.LBB41_2+0x54c>
    3f64:	01e68783          	lb	a5,30(a3)
    3f68:	00001737          	lui	a4,0x1
    3f6c:	40e40733          	sub	a4,s0,a4
    3f70:	4cf73c23          	sd	a5,1240(a4) # 14d8 <.LBB41_2+0x554>
    3f74:	01f68683          	lb	a3,31(a3)
    3f78:	00001737          	lui	a4,0x1
    3f7c:	40e40733          	sub	a4,s0,a4
    3f80:	4ed73023          	sd	a3,1248(a4) # 14e0 <.LBB41_2+0x55c>
    3f84:	00260683          	lb	a3,2(a2)
    3f88:	00001737          	lui	a4,0x1
    3f8c:	40e40733          	sub	a4,s0,a4
    3f90:	4ed73423          	sd	a3,1256(a4) # 14e8 <.LBB41_2+0x564>
    3f94:	00160683          	lb	a3,1(a2)
    3f98:	00001737          	lui	a4,0x1
    3f9c:	40e40733          	sub	a4,s0,a4
    3fa0:	4ed73823          	sd	a3,1264(a4) # 14f0 <.LBB41_2+0x56c>
    3fa4:	00060683          	lb	a3,0(a2)
    3fa8:	00001737          	lui	a4,0x1
    3fac:	40e40733          	sub	a4,s0,a4
    3fb0:	4ed73c23          	sd	a3,1272(a4) # 14f8 <.LBB41_2+0x574>
    3fb4:	00360683          	lb	a3,3(a2)
    3fb8:	00001737          	lui	a4,0x1
    3fbc:	40e40733          	sub	a4,s0,a4
    3fc0:	50d73023          	sd	a3,1280(a4) # 1500 <.LBB41_2+0x57c>
    3fc4:	00460683          	lb	a3,4(a2)
    3fc8:	00001737          	lui	a4,0x1
    3fcc:	40e40733          	sub	a4,s0,a4
    3fd0:	50d73423          	sd	a3,1288(a4) # 1508 <.LBB41_2+0x584>
    3fd4:	00560683          	lb	a3,5(a2)
    3fd8:	00001737          	lui	a4,0x1
    3fdc:	40e40733          	sub	a4,s0,a4
    3fe0:	50d73823          	sd	a3,1296(a4) # 1510 <.LBB41_2+0x58c>
    3fe4:	00660683          	lb	a3,6(a2)
    3fe8:	00001737          	lui	a4,0x1
    3fec:	40e40733          	sub	a4,s0,a4
    3ff0:	50d73c23          	sd	a3,1304(a4) # 1518 <.LBB41_2+0x594>
    3ff4:	00760683          	lb	a3,7(a2)
    3ff8:	00001737          	lui	a4,0x1
    3ffc:	40e40733          	sub	a4,s0,a4
    4000:	52d73023          	sd	a3,1312(a4) # 1520 <.LBB41_2+0x59c>
    4004:	00860683          	lb	a3,8(a2)
    4008:	00001737          	lui	a4,0x1
    400c:	40e40733          	sub	a4,s0,a4
    4010:	52d73423          	sd	a3,1320(a4) # 1528 <.LBB41_2+0x5a4>
    4014:	00960683          	lb	a3,9(a2)
    4018:	00001737          	lui	a4,0x1
    401c:	40e40733          	sub	a4,s0,a4
    4020:	52d73823          	sd	a3,1328(a4) # 1530 <.LBB41_2+0x5ac>
    4024:	00a60683          	lb	a3,10(a2)
    4028:	00001737          	lui	a4,0x1
    402c:	40e40733          	sub	a4,s0,a4
    4030:	52d73c23          	sd	a3,1336(a4) # 1538 <.LBB41_2+0x5b4>
    4034:	00b60683          	lb	a3,11(a2)
    4038:	00001737          	lui	a4,0x1
    403c:	40e40733          	sub	a4,s0,a4
    4040:	54d73023          	sd	a3,1344(a4) # 1540 <.LBB41_3+0x4>
    4044:	00c60683          	lb	a3,12(a2)
    4048:	00001737          	lui	a4,0x1
    404c:	40e40733          	sub	a4,s0,a4
    4050:	54d73423          	sd	a3,1352(a4) # 1548 <.LBB41_3+0xc>
    4054:	00d60683          	lb	a3,13(a2)
    4058:	00001737          	lui	a4,0x1
    405c:	40e40733          	sub	a4,s0,a4
    4060:	54d73823          	sd	a3,1360(a4) # 1550 <.LBB41_3+0x14>
    4064:	00e60683          	lb	a3,14(a2)
    4068:	00001737          	lui	a4,0x1
    406c:	40e40733          	sub	a4,s0,a4
    4070:	54d73c23          	sd	a3,1368(a4) # 1558 <.LBB41_3+0x1c>
    4074:	00f60683          	lb	a3,15(a2)
    4078:	00001737          	lui	a4,0x1
    407c:	40e40733          	sub	a4,s0,a4
    4080:	56d73023          	sd	a3,1376(a4) # 1560 <.LBB41_3+0x24>
    4084:	01060683          	lb	a3,16(a2)
    4088:	00001737          	lui	a4,0x1
    408c:	40e40733          	sub	a4,s0,a4
    4090:	56d73423          	sd	a3,1384(a4) # 1568 <.LBB41_3+0x2c>
    4094:	01160683          	lb	a3,17(a2)
    4098:	00001737          	lui	a4,0x1
    409c:	40e40733          	sub	a4,s0,a4
    40a0:	56d73823          	sd	a3,1392(a4) # 1570 <.LBB41_3+0x34>
    40a4:	01260683          	lb	a3,18(a2)
    40a8:	00001737          	lui	a4,0x1
    40ac:	40e40733          	sub	a4,s0,a4
    40b0:	56d73c23          	sd	a3,1400(a4) # 1578 <.LBB41_3+0x3c>
    40b4:	01360683          	lb	a3,19(a2)
    40b8:	00001737          	lui	a4,0x1
    40bc:	40e40733          	sub	a4,s0,a4
    40c0:	66d73823          	sd	a3,1648(a4) # 1670 <.LBB41_3+0x134>
    40c4:	01460683          	lb	a3,20(a2)
    40c8:	00001737          	lui	a4,0x1
    40cc:	40e40733          	sub	a4,s0,a4
    40d0:	66d73c23          	sd	a3,1656(a4) # 1678 <.LBB41_3+0x13c>
    40d4:	01560683          	lb	a3,21(a2)
    40d8:	00001737          	lui	a4,0x1
    40dc:	40e40733          	sub	a4,s0,a4
    40e0:	68d73023          	sd	a3,1664(a4) # 1680 <.LBB41_3+0x144>
    40e4:	01660683          	lb	a3,22(a2)
    40e8:	00001737          	lui	a4,0x1
    40ec:	40e40733          	sub	a4,s0,a4
    40f0:	68d73423          	sd	a3,1672(a4) # 1688 <.LBB41_3+0x14c>
    40f4:	01760683          	lb	a3,23(a2)
    40f8:	00001737          	lui	a4,0x1
    40fc:	40e40733          	sub	a4,s0,a4
    4100:	68d73823          	sd	a3,1680(a4) # 1690 <.LBB41_3+0x154>
    4104:	01e60683          	lb	a3,30(a2)
    4108:	00001737          	lui	a4,0x1
    410c:	40e40733          	sub	a4,s0,a4
    4110:	6cd73423          	sd	a3,1736(a4) # 16c8 <.LBB41_3+0x18c>
    4114:	01d60683          	lb	a3,29(a2)
    4118:	00001737          	lui	a4,0x1
    411c:	40e40733          	sub	a4,s0,a4
    4120:	6cd73023          	sd	a3,1728(a4) # 16c0 <.LBB41_3+0x184>
    4124:	01c60683          	lb	a3,28(a2)
    4128:	00001737          	lui	a4,0x1
    412c:	40e40733          	sub	a4,s0,a4
    4130:	6ad73c23          	sd	a3,1720(a4) # 16b8 <.LBB41_3+0x17c>
    4134:	01b60683          	lb	a3,27(a2)
    4138:	00001737          	lui	a4,0x1
    413c:	40e40733          	sub	a4,s0,a4
    4140:	6ad73823          	sd	a3,1712(a4) # 16b0 <.LBB41_3+0x174>
    4144:	01a60683          	lb	a3,26(a2)
    4148:	00001737          	lui	a4,0x1
    414c:	40e40733          	sub	a4,s0,a4
    4150:	6ad73423          	sd	a3,1704(a4) # 16a8 <.LBB41_3+0x16c>
    4154:	01960683          	lb	a3,25(a2)
    4158:	00001737          	lui	a4,0x1
    415c:	40e40733          	sub	a4,s0,a4
    4160:	6ad73023          	sd	a3,1696(a4) # 16a0 <.LBB41_3+0x164>
    4164:	01860683          	lb	a3,24(a2)
    4168:	00001737          	lui	a4,0x1
    416c:	40e40733          	sub	a4,s0,a4
    4170:	68d73c23          	sd	a3,1688(a4) # 1698 <.LBB41_3+0x15c>
    4174:	01f60603          	lb	a2,31(a2)
    4178:	000016b7          	lui	a3,0x1
    417c:	40d406b3          	sub	a3,s0,a3
    4180:	6cc6b823          	sd	a2,1744(a3) # 16d0 <.LBB41_3+0x194>
    4184:	0540ad83          	lw	s11,84(ra)
    4188:	0080a603          	lw	a2,8(ra)
    418c:	0040a683          	lw	a3,4(ra)
    4190:	0000a883          	lw	a7,0(ra)
    4194:	00c0a283          	lw	t0,12(ra)
    4198:	0100a303          	lw	t1,16(ra)
    419c:	0140a383          	lw	t2,20(ra)
    41a0:	0180ae03          	lw	t3,24(ra)
    41a4:	01c0ae83          	lw	t4,28(ra)
    41a8:	0200af03          	lw	t5,32(ra)
    41ac:	0240af83          	lw	t6,36(ra)
    41b0:	0280a483          	lw	s1,40(ra)
    41b4:	02c0a903          	lw	s2,44(ra)
    41b8:	0300a983          	lw	s3,48(ra)
    41bc:	0340aa03          	lw	s4,52(ra)
    41c0:	0380aa83          	lw	s5,56(ra)
    41c4:	03c0ab03          	lw	s6,60(ra)
    41c8:	0400ab83          	lw	s7,64(ra)
    41cc:	0440ac03          	lw	s8,68(ra)
    41d0:	0480ac83          	lw	s9,72(ra)
    41d4:	04c0ad03          	lw	s10,76(ra)
    41d8:	0500a083          	lw	ra,80(ra)
    41dc:	400007b7          	lui	a5,0x40000
    41e0:	e0f43423          	sd	a5,-504(s0)
    41e4:	e1043783          	ld	a5,-496(s0)
    41e8:	0007d663          	bgez	a5,41f4 <.LBB41_24>
    41ec:	c00007b7          	lui	a5,0xc0000
    41f0:	e0f43423          	sd	a5,-504(s0)

00000000000041f4 <.LBB41_24>:
    41f4:	007d9793          	slli	a5,s11,0x7
    41f8:	00001737          	lui	a4,0x1
    41fc:	40e40733          	sub	a4,s0,a4
    4200:	65873d83          	ld	s11,1624(a4) # 1658 <.LBB41_3+0x11c>
    4204:	00001737          	lui	a4,0x1
    4208:	40e40733          	sub	a4,s0,a4
    420c:	6d873703          	ld	a4,1752(a4) # 16d8 <.LBB41_3+0x19c>
    4210:	01b70db3          	add	s11,a4,s11
    4214:	f2f43823          	sd	a5,-208(s0)
    4218:	00fd8db3          	add	s11,s11,a5
    421c:	410507bb          	subw	a5,a0,a6
    4220:	40fd87bb          	subw	a5,s11,a5
    4224:	40000db7          	lui	s11,0x40000
    4228:	00001737          	lui	a4,0x1
    422c:	40e40733          	sub	a4,s0,a4
    4230:	acf73823          	sd	a5,-1328(a4) # ad0 <.LBB41_1+0x7a8>
    4234:	0007d463          	bgez	a5,423c <.LBB41_26>
    4238:	c0000db7          	lui	s11,0xc0000

000000000000423c <.LBB41_26>:
    423c:	00001737          	lui	a4,0x1
    4240:	40e40733          	sub	a4,s0,a4
    4244:	adb73423          	sd	s11,-1336(a4) # ac8 <.LBB41_1+0x7a0>
    4248:	00709d93          	slli	s11,ra,0x7
    424c:	00001737          	lui	a4,0x1
    4250:	40e40733          	sub	a4,s0,a4
    4254:	59073083          	ld	ra,1424(a4) # 1590 <.LBB41_3+0x54>
    4258:	00001737          	lui	a4,0x1
    425c:	40e40733          	sub	a4,s0,a4
    4260:	6e073783          	ld	a5,1760(a4) # 16e0 <.LBB41_3+0x1a4>
    4264:	001787b3          	add	a5,a5,ra
    4268:	f3b43423          	sd	s11,-216(s0)
    426c:	01b787b3          	add	a5,a5,s11
    4270:	41050dbb          	subw	s11,a0,a6
    4274:	41b787bb          	subw	a5,a5,s11
    4278:	40000db7          	lui	s11,0x40000
    427c:	00001737          	lui	a4,0x1
    4280:	40e40733          	sub	a4,s0,a4
    4284:	a4f73823          	sd	a5,-1456(a4) # a50 <.LBB41_1+0x728>
    4288:	0007d463          	bgez	a5,4290 <.LBB41_28>
    428c:	c0000db7          	lui	s11,0xc0000

0000000000004290 <.LBB41_28>:
    4290:	00001737          	lui	a4,0x1
    4294:	40e40733          	sub	a4,s0,a4
    4298:	a5b73023          	sd	s11,-1472(a4) # a40 <.LBB41_1+0x718>
    429c:	007d1d13          	slli	s10,s10,0x7
    42a0:	00001737          	lui	a4,0x1
    42a4:	40e40733          	sub	a4,s0,a4
    42a8:	65073783          	ld	a5,1616(a4) # 1650 <.LBB41_3+0x114>
    42ac:	00001737          	lui	a4,0x1
    42b0:	40e40733          	sub	a4,s0,a4
    42b4:	6e873d83          	ld	s11,1768(a4) # 16e8 <.LBB41_3+0x1ac>
    42b8:	00fd87b3          	add	a5,s11,a5
    42bc:	000d0d93          	mv	s11,s10
    42c0:	01a787b3          	add	a5,a5,s10
    42c4:	41050d3b          	subw	s10,a0,a6
    42c8:	41a787bb          	subw	a5,a5,s10
    42cc:	40000d37          	lui	s10,0x40000
    42d0:	00001737          	lui	a4,0x1
    42d4:	40e40733          	sub	a4,s0,a4
    42d8:	9cf73823          	sd	a5,-1584(a4) # 9d0 <.LBB41_1+0x6a8>
    42dc:	0007d463          	bgez	a5,42e4 <.LBB41_30>
    42e0:	c0000d37          	lui	s10,0xc0000

00000000000042e4 <.LBB41_30>:
    42e4:	00001737          	lui	a4,0x1
    42e8:	40e40733          	sub	a4,s0,a4
    42ec:	9ba73c23          	sd	s10,-1608(a4) # 9b8 <.LBB41_1+0x690>
    42f0:	007c9c93          	slli	s9,s9,0x7
    42f4:	00001737          	lui	a4,0x1
    42f8:	40e40733          	sub	a4,s0,a4
    42fc:	64873783          	ld	a5,1608(a4) # 1648 <.LBB41_3+0x10c>
    4300:	00001737          	lui	a4,0x1
    4304:	40e40733          	sub	a4,s0,a4
    4308:	6f073d03          	ld	s10,1776(a4) # 16f0 <.LBB41_3+0x1b4>
    430c:	00fd07b3          	add	a5,s10,a5
    4310:	e9943823          	sd	s9,-368(s0)
    4314:	019787b3          	add	a5,a5,s9
    4318:	41050cbb          	subw	s9,a0,a6
    431c:	419787bb          	subw	a5,a5,s9
    4320:	40000cb7          	lui	s9,0x40000
    4324:	00002737          	lui	a4,0x2
    4328:	40e40733          	sub	a4,s0,a4
    432c:	7d873d03          	ld	s10,2008(a4) # 27d8 <.LBB41_3+0x129c>
    4330:	00001737          	lui	a4,0x1
    4334:	40e40733          	sub	a4,s0,a4
    4338:	94f73423          	sd	a5,-1720(a4) # 948 <.LBB41_1+0x620>
    433c:	0007d463          	bgez	a5,4344 <.LBB41_32>
    4340:	c0000cb7          	lui	s9,0xc0000

0000000000004344 <.LBB41_32>:
    4344:	00001737          	lui	a4,0x1
    4348:	40e40733          	sub	a4,s0,a4
    434c:	93973423          	sd	s9,-1752(a4) # 928 <.LBB41_1+0x600>
    4350:	007c1c13          	slli	s8,s8,0x7
    4354:	00001737          	lui	a4,0x1
    4358:	40e40733          	sub	a4,s0,a4
    435c:	64073783          	ld	a5,1600(a4) # 1640 <.LBB41_3+0x104>
    4360:	00001737          	lui	a4,0x1
    4364:	40e40733          	sub	a4,s0,a4
    4368:	6f873c83          	ld	s9,1784(a4) # 16f8 <.LBB41_3+0x1bc>
    436c:	00fc87b3          	add	a5,s9,a5
    4370:	000c0c93          	mv	s9,s8
    4374:	018787b3          	add	a5,a5,s8
    4378:	41050c3b          	subw	s8,a0,a6
    437c:	418787bb          	subw	a5,a5,s8
    4380:	40000c37          	lui	s8,0x40000
    4384:	00001737          	lui	a4,0x1
    4388:	40e40733          	sub	a4,s0,a4
    438c:	8af73c23          	sd	a5,-1864(a4) # 8b8 <.LBB41_1+0x590>
    4390:	0007d463          	bgez	a5,4398 <.LBB41_34>
    4394:	c0000c37          	lui	s8,0xc0000

0000000000004398 <.LBB41_34>:
    4398:	00001737          	lui	a4,0x1
    439c:	40e40733          	sub	a4,s0,a4
    43a0:	89873c23          	sd	s8,-1896(a4) # 898 <.LBB41_1+0x570>
    43a4:	007b9b93          	slli	s7,s7,0x7
    43a8:	00001737          	lui	a4,0x1
    43ac:	40e40733          	sub	a4,s0,a4
    43b0:	63873783          	ld	a5,1592(a4) # 1638 <.LBB41_3+0xfc>
    43b4:	00001737          	lui	a4,0x1
    43b8:	40e40733          	sub	a4,s0,a4
    43bc:	70073c03          	ld	s8,1792(a4) # 1700 <.LBB41_3+0x1c4>
    43c0:	00fc07b3          	add	a5,s8,a5
    43c4:	000b8c13          	mv	s8,s7
    43c8:	017787b3          	add	a5,a5,s7
    43cc:	41050bbb          	subw	s7,a0,a6
    43d0:	417787bb          	subw	a5,a5,s7
    43d4:	40000bb7          	lui	s7,0x40000
    43d8:	00001737          	lui	a4,0x1
    43dc:	40e40733          	sub	a4,s0,a4
    43e0:	82f73423          	sd	a5,-2008(a4) # 828 <.LBB41_1+0x500>
    43e4:	0007d463          	bgez	a5,43ec <.LBB41_36>
    43e8:	c0000bb7          	lui	s7,0xc0000

00000000000043ec <.LBB41_36>:
    43ec:	00001737          	lui	a4,0x1
    43f0:	40e40733          	sub	a4,s0,a4
    43f4:	81773423          	sd	s7,-2040(a4) # 808 <.LBB41_1+0x4e0>
    43f8:	007b1b13          	slli	s6,s6,0x7
    43fc:	00001737          	lui	a4,0x1
    4400:	40e40733          	sub	a4,s0,a4
    4404:	63073783          	ld	a5,1584(a4) # 1630 <.LBB41_3+0xf4>
    4408:	00001737          	lui	a4,0x1
    440c:	40e40733          	sub	a4,s0,a4
    4410:	70873b83          	ld	s7,1800(a4) # 1708 <.LBB41_3+0x1cc>
    4414:	00fb87b3          	add	a5,s7,a5
    4418:	e9643423          	sd	s6,-376(s0)
    441c:	016787b3          	add	a5,a5,s6
    4420:	41050b3b          	subw	s6,a0,a6
    4424:	416787bb          	subw	a5,a5,s6
    4428:	40000b37          	lui	s6,0x40000
    442c:	00001737          	lui	a4,0x1
    4430:	40e40733          	sub	a4,s0,a4
    4434:	59873b83          	ld	s7,1432(a4) # 1598 <.LBB41_3+0x5c>
    4438:	00002737          	lui	a4,0x2
    443c:	40e40733          	sub	a4,s0,a4
    4440:	72f73023          	sd	a5,1824(a4) # 2720 <.LBB41_3+0x11e4>
    4444:	0007d463          	bgez	a5,444c <.LBB41_38>
    4448:	c0000b37          	lui	s6,0xc0000

000000000000444c <.LBB41_38>:
    444c:	00002737          	lui	a4,0x2
    4450:	40e40733          	sub	a4,s0,a4
    4454:	71673023          	sd	s6,1792(a4) # 2700 <.LBB41_3+0x11c4>
    4458:	007a9a93          	slli	s5,s5,0x7
    445c:	00001737          	lui	a4,0x1
    4460:	40e40733          	sub	a4,s0,a4
    4464:	58873b03          	ld	s6,1416(a4) # 1588 <.LBB41_3+0x4c>
    4468:	00001737          	lui	a4,0x1
    446c:	40e40733          	sub	a4,s0,a4
    4470:	71073783          	ld	a5,1808(a4) # 1710 <.LBB41_3+0x1d4>
    4474:	016787b3          	add	a5,a5,s6
    4478:	e9543023          	sd	s5,-384(s0)
    447c:	015787b3          	add	a5,a5,s5
    4480:	41050abb          	subw	s5,a0,a6
    4484:	415787bb          	subw	a5,a5,s5
    4488:	40000ab7          	lui	s5,0x40000
    448c:	00002737          	lui	a4,0x2
    4490:	40e40733          	sub	a4,s0,a4
    4494:	68f73823          	sd	a5,1680(a4) # 2690 <.LBB41_3+0x1154>
    4498:	0007d463          	bgez	a5,44a0 <.LBB41_40>
    449c:	c0000ab7          	lui	s5,0xc0000

00000000000044a0 <.LBB41_40>:
    44a0:	00002737          	lui	a4,0x2
    44a4:	40e40733          	sub	a4,s0,a4
    44a8:	67573823          	sd	s5,1648(a4) # 2670 <.LBB41_3+0x1134>
    44ac:	007a1a13          	slli	s4,s4,0x7
    44b0:	00001737          	lui	a4,0x1
    44b4:	40e40733          	sub	a4,s0,a4
    44b8:	62873783          	ld	a5,1576(a4) # 1628 <.LBB41_3+0xec>
    44bc:	00001737          	lui	a4,0x1
    44c0:	40e40733          	sub	a4,s0,a4
    44c4:	71873a83          	ld	s5,1816(a4) # 1718 <.LBB41_3+0x1dc>
    44c8:	00fa87b3          	add	a5,s5,a5
    44cc:	e7443c23          	sd	s4,-392(s0)
    44d0:	014787b3          	add	a5,a5,s4
    44d4:	41050a3b          	subw	s4,a0,a6
    44d8:	414787bb          	subw	a5,a5,s4
    44dc:	40000a37          	lui	s4,0x40000
    44e0:	00002737          	lui	a4,0x2
    44e4:	40e40733          	sub	a4,s0,a4
    44e8:	60f73023          	sd	a5,1536(a4) # 2600 <.LBB41_3+0x10c4>
    44ec:	0007d463          	bgez	a5,44f4 <.LBB41_42>
    44f0:	c0000a37          	lui	s4,0xc0000

00000000000044f4 <.LBB41_42>:
    44f4:	00002737          	lui	a4,0x2
    44f8:	40e40733          	sub	a4,s0,a4
    44fc:	5f473423          	sd	s4,1512(a4) # 25e8 <.LBB41_3+0x10ac>
    4500:	00799993          	slli	s3,s3,0x7
    4504:	00001737          	lui	a4,0x1
    4508:	40e40733          	sub	a4,s0,a4
    450c:	62073783          	ld	a5,1568(a4) # 1620 <.LBB41_3+0xe4>
    4510:	00001737          	lui	a4,0x1
    4514:	40e40733          	sub	a4,s0,a4
    4518:	72073a03          	ld	s4,1824(a4) # 1720 <.LBB41_3+0x1e4>
    451c:	00fa07b3          	add	a5,s4,a5
    4520:	00098a13          	mv	s4,s3
    4524:	013787b3          	add	a5,a5,s3
    4528:	410509bb          	subw	s3,a0,a6
    452c:	413787bb          	subw	a5,a5,s3
    4530:	40000837          	lui	a6,0x40000
    4534:	98843a83          	ld	s5,-1656(s0)
    4538:	00002737          	lui	a4,0x2
    453c:	40e40733          	sub	a4,s0,a4
    4540:	56f73823          	sd	a5,1392(a4) # 2570 <.LBB41_3+0x1034>
    4544:	0007d463          	bgez	a5,454c <.LBB41_44>
    4548:	c0000837          	lui	a6,0xc0000

000000000000454c <.LBB41_44>:
    454c:	00002737          	lui	a4,0x2
    4550:	40e40733          	sub	a4,s0,a4
    4554:	57073023          	sd	a6,1376(a4) # 2560 <.LBB41_3+0x1024>
    4558:	00791913          	slli	s2,s2,0x7
    455c:	00001737          	lui	a4,0x1
    4560:	40e40733          	sub	a4,s0,a4
    4564:	61873783          	ld	a5,1560(a4) # 1618 <.LBB41_3+0xdc>
    4568:	00001737          	lui	a4,0x1
    456c:	40e40733          	sub	a4,s0,a4
    4570:	72873803          	ld	a6,1832(a4) # 1728 <.LBB41_3+0x1ec>
    4574:	00f807b3          	add	a5,a6,a5
    4578:	e7243823          	sd	s2,-400(s0)
    457c:	012787b3          	add	a5,a5,s2
    4580:	fff949b7          	lui	s3,0xfff94
    4584:	4135093b          	subw	s2,a0,s3
    4588:	412787bb          	subw	a5,a5,s2
    458c:	40000937          	lui	s2,0x40000
    4590:	aa843803          	ld	a6,-1368(s0)
    4594:	00002737          	lui	a4,0x2
    4598:	40e40733          	sub	a4,s0,a4
    459c:	4ef73423          	sd	a5,1256(a4) # 24e8 <.LBB41_3+0xfac>
    45a0:	0007d463          	bgez	a5,45a8 <.LBB41_46>
    45a4:	c0000937          	lui	s2,0xc0000

00000000000045a8 <.LBB41_46>:
    45a8:	00002737          	lui	a4,0x2
    45ac:	40e40733          	sub	a4,s0,a4
    45b0:	4f273023          	sd	s2,1248(a4) # 24e0 <.LBB41_3+0xfa4>
    45b4:	00749493          	slli	s1,s1,0x7
    45b8:	00001737          	lui	a4,0x1
    45bc:	40e40733          	sub	a4,s0,a4
    45c0:	58073903          	ld	s2,1408(a4) # 1580 <.LBB41_3+0x44>
    45c4:	00001737          	lui	a4,0x1
    45c8:	40e40733          	sub	a4,s0,a4
    45cc:	73073783          	ld	a5,1840(a4) # 1730 <.LBB41_3+0x1f4>
    45d0:	012787b3          	add	a5,a5,s2
    45d4:	e6943423          	sd	s1,-408(s0)
    45d8:	009787b3          	add	a5,a5,s1
    45dc:	413504bb          	subw	s1,a0,s3
    45e0:	409787bb          	subw	a5,a5,s1
    45e4:	400004b7          	lui	s1,0x40000
    45e8:	00002737          	lui	a4,0x2
    45ec:	40e40733          	sub	a4,s0,a4
    45f0:	46f73423          	sd	a5,1128(a4) # 2468 <.LBB41_3+0xf2c>
    45f4:	0007d463          	bgez	a5,45fc <.LBB41_48>
    45f8:	c00004b7          	lui	s1,0xc0000

00000000000045fc <.LBB41_48>:
    45fc:	00002737          	lui	a4,0x2
    4600:	40e40733          	sub	a4,s0,a4
    4604:	46973023          	sd	s1,1120(a4) # 2460 <.LBB41_3+0xf24>
    4608:	007f9f93          	slli	t6,t6,0x7
    460c:	00001737          	lui	a4,0x1
    4610:	40e40733          	sub	a4,s0,a4
    4614:	61073783          	ld	a5,1552(a4) # 1610 <.LBB41_3+0xd4>
    4618:	00001737          	lui	a4,0x1
    461c:	40e40733          	sub	a4,s0,a4
    4620:	73873483          	ld	s1,1848(a4) # 1738 <.LBB41_3+0x1fc>
    4624:	00f487b3          	add	a5,s1,a5
    4628:	e7f43023          	sd	t6,-416(s0)
    462c:	01f787b3          	add	a5,a5,t6
    4630:	41350fbb          	subw	t6,a0,s3
    4634:	41f787bb          	subw	a5,a5,t6
    4638:	40000fb7          	lui	t6,0x40000
    463c:	00001737          	lui	a4,0x1
    4640:	40e40733          	sub	a4,s0,a4
    4644:	5a073483          	ld	s1,1440(a4) # 15a0 <.LBB41_3+0x64>
    4648:	00002737          	lui	a4,0x2
    464c:	40e40733          	sub	a4,s0,a4
    4650:	3ef73823          	sd	a5,1008(a4) # 23f0 <.LBB41_3+0xeb4>
    4654:	0007d463          	bgez	a5,465c <.LBB41_50>
    4658:	c0000fb7          	lui	t6,0xc0000

000000000000465c <.LBB41_50>:
    465c:	00002737          	lui	a4,0x2
    4660:	40e40733          	sub	a4,s0,a4
    4664:	3ff73423          	sd	t6,1000(a4) # 23e8 <.LBB41_3+0xeac>
    4668:	007f1f13          	slli	t5,t5,0x7
    466c:	00001737          	lui	a4,0x1
    4670:	40e40733          	sub	a4,s0,a4
    4674:	60873783          	ld	a5,1544(a4) # 1608 <.LBB41_3+0xcc>
    4678:	00001737          	lui	a4,0x1
    467c:	40e40733          	sub	a4,s0,a4
    4680:	74073f83          	ld	t6,1856(a4) # 1740 <.LBB41_3+0x204>
    4684:	00ff87b3          	add	a5,t6,a5
    4688:	e5e43c23          	sd	t5,-424(s0)
    468c:	01e787b3          	add	a5,a5,t5
    4690:	41350f3b          	subw	t5,a0,s3
    4694:	41e787bb          	subw	a5,a5,t5
    4698:	40000f37          	lui	t5,0x40000
    469c:	00002737          	lui	a4,0x2
    46a0:	40e40733          	sub	a4,s0,a4
    46a4:	7e073f83          	ld	t6,2016(a4) # 27e0 <.LBB41_3+0x12a4>
    46a8:	00002737          	lui	a4,0x2
    46ac:	40e40733          	sub	a4,s0,a4
    46b0:	36f73c23          	sd	a5,888(a4) # 2378 <.LBB41_3+0xe3c>
    46b4:	0007d463          	bgez	a5,46bc <.LBB41_52>
    46b8:	c0000f37          	lui	t5,0xc0000

00000000000046bc <.LBB41_52>:
    46bc:	00002737          	lui	a4,0x2
    46c0:	40e40733          	sub	a4,s0,a4
    46c4:	37e73823          	sd	t5,880(a4) # 2370 <.LBB41_3+0xe34>
    46c8:	007e9e93          	slli	t4,t4,0x7
    46cc:	00001737          	lui	a4,0x1
    46d0:	40e40733          	sub	a4,s0,a4
    46d4:	60073783          	ld	a5,1536(a4) # 1600 <.LBB41_3+0xc4>
    46d8:	00001737          	lui	a4,0x1
    46dc:	40e40733          	sub	a4,s0,a4
    46e0:	74873f03          	ld	t5,1864(a4) # 1748 <.LBB41_3+0x20c>
    46e4:	00ff07b3          	add	a5,t5,a5
    46e8:	e5d43823          	sd	t4,-432(s0)
    46ec:	01d787b3          	add	a5,a5,t4
    46f0:	41350ebb          	subw	t4,a0,s3
    46f4:	41d787bb          	subw	a5,a5,t4
    46f8:	40000eb7          	lui	t4,0x40000
    46fc:	00001737          	lui	a4,0x1
    4700:	40e40733          	sub	a4,s0,a4
    4704:	5a873f03          	ld	t5,1448(a4) # 15a8 <.LBB41_3+0x6c>
    4708:	00002737          	lui	a4,0x2
    470c:	40e40733          	sub	a4,s0,a4
    4710:	30f73023          	sd	a5,768(a4) # 2300 <.LBB41_3+0xdc4>
    4714:	0007d463          	bgez	a5,471c <.LBB41_54>
    4718:	c0000eb7          	lui	t4,0xc0000

000000000000471c <.LBB41_54>:
    471c:	00002737          	lui	a4,0x2
    4720:	40e40733          	sub	a4,s0,a4
    4724:	2fd73c23          	sd	t4,760(a4) # 22f8 <.LBB41_3+0xdbc>
    4728:	007e1e13          	slli	t3,t3,0x7
    472c:	00001737          	lui	a4,0x1
    4730:	40e40733          	sub	a4,s0,a4
    4734:	5f873783          	ld	a5,1528(a4) # 15f8 <.LBB41_3+0xbc>
    4738:	00001737          	lui	a4,0x1
    473c:	40e40733          	sub	a4,s0,a4
    4740:	75073e83          	ld	t4,1872(a4) # 1750 <.LBB41_3+0x214>
    4744:	00fe87b3          	add	a5,t4,a5
    4748:	e5c43423          	sd	t3,-440(s0)
    474c:	01c787b3          	add	a5,a5,t3
    4750:	41350e3b          	subw	t3,a0,s3
    4754:	41c787bb          	subw	a5,a5,t3
    4758:	40000e37          	lui	t3,0x40000
    475c:	00002737          	lui	a4,0x2
    4760:	40e40733          	sub	a4,s0,a4
    4764:	7e873e83          	ld	t4,2024(a4) # 27e8 <.LBB41_3+0x12ac>
    4768:	00002737          	lui	a4,0x2
    476c:	40e40733          	sub	a4,s0,a4
    4770:	28f73423          	sd	a5,648(a4) # 2288 <.LBB41_3+0xd4c>
    4774:	0007d463          	bgez	a5,477c <.LBB41_56>
    4778:	c0000e37          	lui	t3,0xc0000

000000000000477c <.LBB41_56>:
    477c:	00002737          	lui	a4,0x2
    4780:	40e40733          	sub	a4,s0,a4
    4784:	29c73023          	sd	t3,640(a4) # 2280 <.LBB41_3+0xd44>
    4788:	00739393          	slli	t2,t2,0x7
    478c:	00001737          	lui	a4,0x1
    4790:	40e40733          	sub	a4,s0,a4
    4794:	5f073783          	ld	a5,1520(a4) # 15f0 <.LBB41_3+0xb4>
    4798:	00001737          	lui	a4,0x1
    479c:	40e40733          	sub	a4,s0,a4
    47a0:	75873e03          	ld	t3,1880(a4) # 1758 <.LBB41_3+0x21c>
    47a4:	00fe07b3          	add	a5,t3,a5
    47a8:	e4743023          	sd	t2,-448(s0)
    47ac:	007787b3          	add	a5,a5,t2
    47b0:	413503bb          	subw	t2,a0,s3
    47b4:	407787bb          	subw	a5,a5,t2
    47b8:	400003b7          	lui	t2,0x40000
    47bc:	00002737          	lui	a4,0x2
    47c0:	40e40733          	sub	a4,s0,a4
    47c4:	7f073e03          	ld	t3,2032(a4) # 27f0 <.LBB41_3+0x12b4>
    47c8:	00002737          	lui	a4,0x2
    47cc:	40e40733          	sub	a4,s0,a4
    47d0:	20f73823          	sd	a5,528(a4) # 2210 <.LBB41_3+0xcd4>
    47d4:	0007d463          	bgez	a5,47dc <.LBB41_58>
    47d8:	c00003b7          	lui	t2,0xc0000

00000000000047dc <.LBB41_58>:
    47dc:	00002737          	lui	a4,0x2
    47e0:	40e40733          	sub	a4,s0,a4
    47e4:	20773423          	sd	t2,520(a4) # 2208 <.LBB41_3+0xccc>
    47e8:	00731313          	slli	t1,t1,0x7
    47ec:	00001737          	lui	a4,0x1
    47f0:	40e40733          	sub	a4,s0,a4
    47f4:	5e873783          	ld	a5,1512(a4) # 15e8 <.LBB41_3+0xac>
    47f8:	00001737          	lui	a4,0x1
    47fc:	40e40733          	sub	a4,s0,a4
    4800:	76873383          	ld	t2,1896(a4) # 1768 <.LBB41_3+0x22c>
    4804:	00f387b3          	add	a5,t2,a5
    4808:	e2643c23          	sd	t1,-456(s0)
    480c:	006787b3          	add	a5,a5,t1
    4810:	4135033b          	subw	t1,a0,s3
    4814:	406787bb          	subw	a5,a5,t1
    4818:	40000337          	lui	t1,0x40000
    481c:	00002737          	lui	a4,0x2
    4820:	40e40733          	sub	a4,s0,a4
    4824:	7f873383          	ld	t2,2040(a4) # 27f8 <.LBB41_3+0x12bc>
    4828:	00002737          	lui	a4,0x2
    482c:	40e40733          	sub	a4,s0,a4
    4830:	18f73c23          	sd	a5,408(a4) # 2198 <.LBB41_3+0xc5c>
    4834:	0007d463          	bgez	a5,483c <.LBB41_60>
    4838:	c0000337          	lui	t1,0xc0000

000000000000483c <.LBB41_60>:
    483c:	00002737          	lui	a4,0x2
    4840:	40e40733          	sub	a4,s0,a4
    4844:	18673823          	sd	t1,400(a4) # 2190 <.LBB41_3+0xc54>
    4848:	00729293          	slli	t0,t0,0x7
    484c:	00001737          	lui	a4,0x1
    4850:	40e40733          	sub	a4,s0,a4
    4854:	5e073783          	ld	a5,1504(a4) # 15e0 <.LBB41_3+0xa4>
    4858:	00001737          	lui	a4,0x1
    485c:	40e40733          	sub	a4,s0,a4
    4860:	77873303          	ld	t1,1912(a4) # 1778 <.LBB41_3+0x23c>
    4864:	00f307b3          	add	a5,t1,a5
    4868:	e2543823          	sd	t0,-464(s0)
    486c:	005787b3          	add	a5,a5,t0
    4870:	413502bb          	subw	t0,a0,s3
    4874:	405787bb          	subw	a5,a5,t0
    4878:	400002b7          	lui	t0,0x40000
    487c:	00001737          	lui	a4,0x1
    4880:	40e40733          	sub	a4,s0,a4
    4884:	5b073303          	ld	t1,1456(a4) # 15b0 <.LBB41_3+0x74>
    4888:	00002737          	lui	a4,0x2
    488c:	40e40733          	sub	a4,s0,a4
    4890:	12f73023          	sd	a5,288(a4) # 2120 <.LBB41_3+0xbe4>
    4894:	0007d463          	bgez	a5,489c <.LBB41_62>
    4898:	c00002b7          	lui	t0,0xc0000

000000000000489c <.LBB41_62>:
    489c:	00002737          	lui	a4,0x2
    48a0:	40e40733          	sub	a4,s0,a4
    48a4:	10573c23          	sd	t0,280(a4) # 2118 <.LBB41_3+0xbdc>
    48a8:	00789893          	slli	a7,a7,0x7
    48ac:	00001737          	lui	a4,0x1
    48b0:	40e40733          	sub	a4,s0,a4
    48b4:	5c873783          	ld	a5,1480(a4) # 15c8 <.LBB41_3+0x8c>
    48b8:	00001737          	lui	a4,0x1
    48bc:	40e40733          	sub	a4,s0,a4
    48c0:	78873283          	ld	t0,1928(a4) # 1788 <.LBB41_3+0x24c>
    48c4:	00f287b3          	add	a5,t0,a5
    48c8:	e3143423          	sd	a7,-472(s0)
    48cc:	011787b3          	add	a5,a5,a7
    48d0:	413508bb          	subw	a7,a0,s3
    48d4:	411787bb          	subw	a5,a5,a7
    48d8:	400008b7          	lui	a7,0x40000
    48dc:	b9843283          	ld	t0,-1128(s0)
    48e0:	00002737          	lui	a4,0x2
    48e4:	40e40733          	sub	a4,s0,a4
    48e8:	0af73c23          	sd	a5,184(a4) # 20b8 <.LBB41_3+0xb7c>
    48ec:	0007d463          	bgez	a5,48f4 <.LBB41_64>
    48f0:	c00008b7          	lui	a7,0xc0000

00000000000048f4 <.LBB41_64>:
    48f4:	00002737          	lui	a4,0x2
    48f8:	40e40733          	sub	a4,s0,a4
    48fc:	0b173823          	sd	a7,176(a4) # 20b0 <.LBB41_3+0xb74>
    4900:	00769793          	slli	a5,a3,0x7
    4904:	000016b7          	lui	a3,0x1
    4908:	40d406b3          	sub	a3,s0,a3
    490c:	5d06b683          	ld	a3,1488(a3) # 15d0 <.LBB41_3+0x94>
    4910:	00001737          	lui	a4,0x1
    4914:	40e40733          	sub	a4,s0,a4
    4918:	79873883          	ld	a7,1944(a4) # 1798 <.LBB41_3+0x25c>
    491c:	00d886b3          	add	a3,a7,a3
    4920:	e2f43023          	sd	a5,-480(s0)
    4924:	00f686b3          	add	a3,a3,a5
    4928:	413507bb          	subw	a5,a0,s3
    492c:	40f686bb          	subw	a3,a3,a5
    4930:	400007b7          	lui	a5,0x40000
    4934:	ba843883          	ld	a7,-1112(s0)
    4938:	00002737          	lui	a4,0x2
    493c:	40e40733          	sub	a4,s0,a4
    4940:	06d73423          	sd	a3,104(a4) # 2068 <.LBB41_3+0xb2c>
    4944:	0006d463          	bgez	a3,494c <.LBB41_66>
    4948:	c00007b7          	lui	a5,0xc0000

000000000000494c <.LBB41_66>:
    494c:	000026b7          	lui	a3,0x2
    4950:	40d406b3          	sub	a3,s0,a3
    4954:	06f6b023          	sd	a5,96(a3) # 2060 <.LBB41_3+0xb24>
    4958:	00761793          	slli	a5,a2,0x7
    495c:	00001637          	lui	a2,0x1
    4960:	40c40633          	sub	a2,s0,a2
    4964:	5d863603          	ld	a2,1496(a2) # 15d8 <.LBB41_3+0x9c>
    4968:	000016b7          	lui	a3,0x1
    496c:	40d406b3          	sub	a3,s0,a3
    4970:	7a86b683          	ld	a3,1960(a3) # 17a8 <.LBB41_3+0x26c>
    4974:	00c68633          	add	a2,a3,a2
    4978:	e0f43c23          	sd	a5,-488(s0)
    497c:	00f60633          	add	a2,a2,a5
    4980:	4135053b          	subw	a0,a0,s3
    4984:	40a6063b          	subw	a2,a2,a0
    4988:	40000537          	lui	a0,0x40000
    498c:	99843783          	ld	a5,-1640(s0)
    4990:	000026b7          	lui	a3,0x2
    4994:	40d406b3          	sub	a3,s0,a3
    4998:	00c6b823          	sd	a2,16(a3) # 2010 <.LBB41_3+0xad4>
    499c:	00065463          	bgez	a2,49a4 <.LBB41_68>
    49a0:	c0000537          	lui	a0,0xc0000

00000000000049a4 <.LBB41_68>:
    49a4:	00002637          	lui	a2,0x2
    49a8:	40c40633          	sub	a2,s0,a2
    49ac:	00a63023          	sd	a0,0(a2) # 2000 <.LBB41_3+0xac4>
    49b0:	01200513          	li	a0,18
    49b4:	02a58533          	mul	a0,a1,a0
    49b8:	000015b7          	lui	a1,0x1
    49bc:	40b405b3          	sub	a1,s0,a1
    49c0:	7605b583          	ld	a1,1888(a1) # 1760 <.LBB41_3+0x224>
    49c4:	007585b3          	add	a1,a1,t2
    49c8:	f8843603          	ld	a2,-120(s0)
    49cc:	00c585b3          	add	a1,a1,a2
    49d0:	4135063b          	subw	a2,a0,s3
    49d4:	40c585bb          	subw	a1,a1,a2
    49d8:	400006b7          	lui	a3,0x40000
    49dc:	00001637          	lui	a2,0x1
    49e0:	40c40633          	sub	a2,s0,a2
    49e4:	7ab63423          	sd	a1,1960(a2) # 17a8 <.LBB41_3+0x26c>
    49e8:	0005d463          	bgez	a1,49f0 <.LBB41_70>
    49ec:	c00006b7          	lui	a3,0xc0000

00000000000049f0 <.LBB41_70>:
    49f0:	000015b7          	lui	a1,0x1
    49f4:	40b405b3          	sub	a1,s0,a1
    49f8:	7705b583          	ld	a1,1904(a1) # 1770 <.LBB41_3+0x234>
    49fc:	01c585b3          	add	a1,a1,t3
    4a00:	f7843603          	ld	a2,-136(s0)
    4a04:	00c585b3          	add	a1,a1,a2
    4a08:	4135063b          	subw	a2,a0,s3
    4a0c:	40c585bb          	subw	a1,a1,a2
    4a10:	40000637          	lui	a2,0x40000
    4a14:	00001737          	lui	a4,0x1
    4a18:	40e40733          	sub	a4,s0,a4
    4a1c:	78b73c23          	sd	a1,1944(a4) # 1798 <.LBB41_3+0x25c>
    4a20:	0005d463          	bgez	a1,4a28 <.LBB41_72>
    4a24:	c0000637          	lui	a2,0xc0000

0000000000004a28 <.LBB41_72>:
    4a28:	000015b7          	lui	a1,0x1
    4a2c:	40b405b3          	sub	a1,s0,a1
    4a30:	78c5b423          	sd	a2,1928(a1) # 1788 <.LBB41_3+0x24c>
    4a34:	000015b7          	lui	a1,0x1
    4a38:	40b405b3          	sub	a1,s0,a1
    4a3c:	7805b583          	ld	a1,1920(a1) # 1780 <.LBB41_3+0x244>
    4a40:	01d585b3          	add	a1,a1,t4
    4a44:	f7043603          	ld	a2,-144(s0)
    4a48:	00c585b3          	add	a1,a1,a2
    4a4c:	4135063b          	subw	a2,a0,s3
    4a50:	40c585bb          	subw	a1,a1,a2
    4a54:	40000637          	lui	a2,0x40000
    4a58:	00001737          	lui	a4,0x1
    4a5c:	40e40733          	sub	a4,s0,a4
    4a60:	74b73823          	sd	a1,1872(a4) # 1750 <.LBB41_3+0x214>
    4a64:	0005d463          	bgez	a1,4a6c <.LBB41_74>
    4a68:	c0000637          	lui	a2,0xc0000

0000000000004a6c <.LBB41_74>:
    4a6c:	000015b7          	lui	a1,0x1
    4a70:	40b405b3          	sub	a1,s0,a1
    4a74:	74c5b023          	sd	a2,1856(a1) # 1740 <.LBB41_3+0x204>
    4a78:	000015b7          	lui	a1,0x1
    4a7c:	40b405b3          	sub	a1,s0,a1
    4a80:	7905b583          	ld	a1,1936(a1) # 1790 <.LBB41_3+0x254>
    4a84:	01f585b3          	add	a1,a1,t6
    4a88:	f6843603          	ld	a2,-152(s0)
    4a8c:	00c585b3          	add	a1,a1,a2
    4a90:	4135063b          	subw	a2,a0,s3
    4a94:	40c585bb          	subw	a1,a1,a2
    4a98:	40000637          	lui	a2,0x40000
    4a9c:	00001737          	lui	a4,0x1
    4aa0:	40e40733          	sub	a4,s0,a4
    4aa4:	6eb73023          	sd	a1,1760(a4) # 16e0 <.LBB41_3+0x1a4>
    4aa8:	0005d463          	bgez	a1,4ab0 <.LBB41_76>
    4aac:	c0000637          	lui	a2,0xc0000

0000000000004ab0 <.LBB41_76>:
    4ab0:	000015b7          	lui	a1,0x1
    4ab4:	40b405b3          	sub	a1,s0,a1
    4ab8:	d6c5b023          	sd	a2,-672(a1) # d60 <.LBB41_1+0xa38>
    4abc:	000015b7          	lui	a1,0x1
    4ac0:	40b405b3          	sub	a1,s0,a1
    4ac4:	7a05b583          	ld	a1,1952(a1) # 17a0 <.LBB41_3+0x264>
    4ac8:	01a585b3          	add	a1,a1,s10
    4acc:	f6043603          	ld	a2,-160(s0)
    4ad0:	00c585b3          	add	a1,a1,a2
    4ad4:	4135063b          	subw	a2,a0,s3
    4ad8:	40c585bb          	subw	a1,a1,a2
    4adc:	40000637          	lui	a2,0x40000
    4ae0:	00001737          	lui	a4,0x1
    4ae4:	40e40733          	sub	a4,s0,a4
    4ae8:	d0b73023          	sd	a1,-768(a4) # d00 <.LBB41_1+0x9d8>
    4aec:	0005d463          	bgez	a1,4af4 <.LBB41_78>
    4af0:	c0000637          	lui	a2,0xc0000

0000000000004af4 <.LBB41_78>:
    4af4:	000015b7          	lui	a1,0x1
    4af8:	40b405b3          	sub	a1,s0,a1
    4afc:	cec5b823          	sd	a2,-784(a1) # cf0 <.LBB41_1+0x9c8>
    4b00:	000015b7          	lui	a1,0x1
    4b04:	40b405b3          	sub	a1,s0,a1
    4b08:	7b05b583          	ld	a1,1968(a1) # 17b0 <.LBB41_3+0x274>
    4b0c:	006585b3          	add	a1,a1,t1
    4b10:	f5843603          	ld	a2,-168(s0)
    4b14:	00c585b3          	add	a1,a1,a2
    4b18:	4135063b          	subw	a2,a0,s3
    4b1c:	40c585bb          	subw	a1,a1,a2
    4b20:	40000637          	lui	a2,0x40000
    4b24:	00001737          	lui	a4,0x1
    4b28:	40e40733          	sub	a4,s0,a4
    4b2c:	c8b73823          	sd	a1,-880(a4) # c90 <.LBB41_1+0x968>
    4b30:	0005d463          	bgez	a1,4b38 <.LBB41_80>
    4b34:	c0000637          	lui	a2,0xc0000

0000000000004b38 <.LBB41_80>:
    4b38:	000015b7          	lui	a1,0x1
    4b3c:	40b405b3          	sub	a1,s0,a1
    4b40:	c8c5b023          	sd	a2,-896(a1) # c80 <.LBB41_1+0x958>
    4b44:	000015b7          	lui	a1,0x1
    4b48:	40b405b3          	sub	a1,s0,a1
    4b4c:	7b85b583          	ld	a1,1976(a1) # 17b8 <.LBB41_3+0x27c>
    4b50:	01e585b3          	add	a1,a1,t5
    4b54:	f5043603          	ld	a2,-176(s0)
    4b58:	00c585b3          	add	a1,a1,a2
    4b5c:	4135063b          	subw	a2,a0,s3
    4b60:	40c585bb          	subw	a1,a1,a2
    4b64:	40000637          	lui	a2,0x40000
    4b68:	00001737          	lui	a4,0x1
    4b6c:	40e40733          	sub	a4,s0,a4
    4b70:	c2b73023          	sd	a1,-992(a4) # c20 <.LBB41_1+0x8f8>
    4b74:	0005d463          	bgez	a1,4b7c <.LBB41_82>
    4b78:	c0000637          	lui	a2,0xc0000

0000000000004b7c <.LBB41_82>:
    4b7c:	000015b7          	lui	a1,0x1
    4b80:	40b405b3          	sub	a1,s0,a1
    4b84:	c0c5b823          	sd	a2,-1008(a1) # c10 <.LBB41_1+0x8e8>
    4b88:	000015b7          	lui	a1,0x1
    4b8c:	40b405b3          	sub	a1,s0,a1
    4b90:	7c05b583          	ld	a1,1984(a1) # 17c0 <.LBB41_3+0x284>
    4b94:	009585b3          	add	a1,a1,s1
    4b98:	f4843603          	ld	a2,-184(s0)
    4b9c:	00c585b3          	add	a1,a1,a2
    4ba0:	4135063b          	subw	a2,a0,s3
    4ba4:	40c585bb          	subw	a1,a1,a2
    4ba8:	40000637          	lui	a2,0x40000
    4bac:	00001737          	lui	a4,0x1
    4bb0:	40e40733          	sub	a4,s0,a4
    4bb4:	bab73823          	sd	a1,-1104(a4) # bb0 <.LBB41_1+0x888>
    4bb8:	0005d463          	bgez	a1,4bc0 <.LBB41_84>
    4bbc:	c0000637          	lui	a2,0xc0000

0000000000004bc0 <.LBB41_84>:
    4bc0:	000015b7          	lui	a1,0x1
    4bc4:	40b405b3          	sub	a1,s0,a1
    4bc8:	bac5b023          	sd	a2,-1120(a1) # ba0 <.LBB41_1+0x878>
    4bcc:	000015b7          	lui	a1,0x1
    4bd0:	40b405b3          	sub	a1,s0,a1
    4bd4:	7c85b583          	ld	a1,1992(a1) # 17c8 <.LBB41_3+0x28c>
    4bd8:	017585b3          	add	a1,a1,s7
    4bdc:	f3843603          	ld	a2,-200(s0)
    4be0:	00c585b3          	add	a1,a1,a2
    4be4:	4135063b          	subw	a2,a0,s3
    4be8:	40c585bb          	subw	a1,a1,a2
    4bec:	40000637          	lui	a2,0x40000
    4bf0:	00001737          	lui	a4,0x1
    4bf4:	40e40733          	sub	a4,s0,a4
    4bf8:	b4b73023          	sd	a1,-1216(a4) # b40 <.LBB41_1+0x818>
    4bfc:	0005d463          	bgez	a1,4c04 <.LBB41_86>
    4c00:	c0000637          	lui	a2,0xc0000

0000000000004c04 <.LBB41_86>:
    4c04:	000015b7          	lui	a1,0x1
    4c08:	40b405b3          	sub	a1,s0,a1
    4c0c:	b2c5b823          	sd	a2,-1232(a1) # b30 <.LBB41_1+0x808>
    4c10:	000015b7          	lui	a1,0x1
    4c14:	40b405b3          	sub	a1,s0,a1
    4c18:	6605b583          	ld	a1,1632(a1) # 1660 <.LBB41_3+0x124>
    4c1c:	00001637          	lui	a2,0x1
    4c20:	40c40633          	sub	a2,s0,a2
    4c24:	7d063603          	ld	a2,2000(a2) # 17d0 <.LBB41_3+0x294>
    4c28:	00b605b3          	add	a1,a2,a1
    4c2c:	f4043603          	ld	a2,-192(s0)
    4c30:	00c585b3          	add	a1,a1,a2
    4c34:	4135063b          	subw	a2,a0,s3
    4c38:	40c585bb          	subw	a1,a1,a2
    4c3c:	40000637          	lui	a2,0x40000
    4c40:	00001737          	lui	a4,0x1
    4c44:	40e40733          	sub	a4,s0,a4
    4c48:	acb73023          	sd	a1,-1344(a4) # ac0 <.LBB41_1+0x798>
    4c4c:	0005d463          	bgez	a1,4c54 <.LBB41_88>
    4c50:	c0000637          	lui	a2,0xc0000

0000000000004c54 <.LBB41_88>:
    4c54:	000015b7          	lui	a1,0x1
    4c58:	40b405b3          	sub	a1,s0,a1
    4c5c:	aac5b823          	sd	a2,-1360(a1) # ab0 <.LBB41_1+0x788>
    4c60:	000015b7          	lui	a1,0x1
    4c64:	40b405b3          	sub	a1,s0,a1
    4c68:	6585b583          	ld	a1,1624(a1) # 1658 <.LBB41_3+0x11c>
    4c6c:	00001637          	lui	a2,0x1
    4c70:	40c40633          	sub	a2,s0,a2
    4c74:	7d863603          	ld	a2,2008(a2) # 17d8 <.LBB41_3+0x29c>
    4c78:	00b605b3          	add	a1,a2,a1
    4c7c:	f3043603          	ld	a2,-208(s0)
    4c80:	00c585b3          	add	a1,a1,a2
    4c84:	4135063b          	subw	a2,a0,s3
    4c88:	40c585bb          	subw	a1,a1,a2
    4c8c:	40000637          	lui	a2,0x40000
    4c90:	00001737          	lui	a4,0x1
    4c94:	40e40733          	sub	a4,s0,a4
    4c98:	a4b73423          	sd	a1,-1464(a4) # a48 <.LBB41_1+0x720>
    4c9c:	0005d463          	bgez	a1,4ca4 <.LBB41_90>
    4ca0:	c0000637          	lui	a2,0xc0000

0000000000004ca4 <.LBB41_90>:
    4ca4:	000015b7          	lui	a1,0x1
    4ca8:	40b405b3          	sub	a1,s0,a1
    4cac:	a2c5b823          	sd	a2,-1488(a1) # a30 <.LBB41_1+0x708>
    4cb0:	000015b7          	lui	a1,0x1
    4cb4:	40b405b3          	sub	a1,s0,a1
    4cb8:	7e05b583          	ld	a1,2016(a1) # 17e0 <.LBB41_3+0x2a4>
    4cbc:	001585b3          	add	a1,a1,ra
    4cc0:	f2843603          	ld	a2,-216(s0)
    4cc4:	00c585b3          	add	a1,a1,a2
    4cc8:	4135063b          	subw	a2,a0,s3
    4ccc:	40c585bb          	subw	a1,a1,a2
    4cd0:	40000637          	lui	a2,0x40000
    4cd4:	00001737          	lui	a4,0x1
    4cd8:	40e40733          	sub	a4,s0,a4
    4cdc:	9cb73423          	sd	a1,-1592(a4) # 9c8 <.LBB41_1+0x6a0>
    4ce0:	0005d463          	bgez	a1,4ce8 <.LBB41_92>
    4ce4:	c0000637          	lui	a2,0xc0000

0000000000004ce8 <.LBB41_92>:
    4ce8:	000015b7          	lui	a1,0x1
    4cec:	40b405b3          	sub	a1,s0,a1
    4cf0:	9ac5b823          	sd	a2,-1616(a1) # 9b0 <.LBB41_1+0x688>
    4cf4:	000015b7          	lui	a1,0x1
    4cf8:	40b405b3          	sub	a1,s0,a1
    4cfc:	6505b583          	ld	a1,1616(a1) # 1650 <.LBB41_3+0x114>
    4d00:	00001637          	lui	a2,0x1
    4d04:	40c40633          	sub	a2,s0,a2
    4d08:	7e863603          	ld	a2,2024(a2) # 17e8 <.LBB41_3+0x2ac>
    4d0c:	00b605b3          	add	a1,a2,a1
    4d10:	01b585b3          	add	a1,a1,s11
    4d14:	4135063b          	subw	a2,a0,s3
    4d18:	40c585bb          	subw	a1,a1,a2
    4d1c:	40000637          	lui	a2,0x40000
    4d20:	00001737          	lui	a4,0x1
    4d24:	40e40733          	sub	a4,s0,a4
    4d28:	94b73823          	sd	a1,-1712(a4) # 950 <.LBB41_1+0x628>
    4d2c:	0005d463          	bgez	a1,4d34 <.LBB41_94>
    4d30:	c0000637          	lui	a2,0xc0000

0000000000004d34 <.LBB41_94>:
    4d34:	000015b7          	lui	a1,0x1
    4d38:	40b405b3          	sub	a1,s0,a1
    4d3c:	92c5bc23          	sd	a2,-1736(a1) # 938 <.LBB41_1+0x610>
    4d40:	000015b7          	lui	a1,0x1
    4d44:	40b405b3          	sub	a1,s0,a1
    4d48:	6485b583          	ld	a1,1608(a1) # 1648 <.LBB41_3+0x10c>
    4d4c:	00001637          	lui	a2,0x1
    4d50:	40c40633          	sub	a2,s0,a2
    4d54:	7f063603          	ld	a2,2032(a2) # 17f0 <.LBB41_3+0x2b4>
    4d58:	00b605b3          	add	a1,a2,a1
    4d5c:	e9043603          	ld	a2,-368(s0)
    4d60:	00c585b3          	add	a1,a1,a2
    4d64:	4135063b          	subw	a2,a0,s3
    4d68:	40c585bb          	subw	a1,a1,a2
    4d6c:	40000637          	lui	a2,0x40000
    4d70:	00001737          	lui	a4,0x1
    4d74:	40e40733          	sub	a4,s0,a4
    4d78:	8cb73823          	sd	a1,-1840(a4) # 8d0 <.LBB41_1+0x5a8>
    4d7c:	0005d463          	bgez	a1,4d84 <.LBB41_96>
    4d80:	c0000637          	lui	a2,0xc0000

0000000000004d84 <.LBB41_96>:
    4d84:	000015b7          	lui	a1,0x1
    4d88:	40b405b3          	sub	a1,s0,a1
    4d8c:	8cc5b023          	sd	a2,-1856(a1) # 8c0 <.LBB41_1+0x598>
    4d90:	000015b7          	lui	a1,0x1
    4d94:	40b405b3          	sub	a1,s0,a1
    4d98:	6405b583          	ld	a1,1600(a1) # 1640 <.LBB41_3+0x104>
    4d9c:	00001637          	lui	a2,0x1
    4da0:	40c40633          	sub	a2,s0,a2
    4da4:	7f863603          	ld	a2,2040(a2) # 17f8 <.LBB41_3+0x2bc>
    4da8:	00b605b3          	add	a1,a2,a1
    4dac:	019585b3          	add	a1,a1,s9
    4db0:	4135063b          	subw	a2,a0,s3
    4db4:	40c585bb          	subw	a1,a1,a2
    4db8:	40000637          	lui	a2,0x40000
    4dbc:	00001737          	lui	a4,0x1
    4dc0:	40e40733          	sub	a4,s0,a4
    4dc4:	84b73823          	sd	a1,-1968(a4) # 850 <.LBB41_1+0x528>
    4dc8:	0005d463          	bgez	a1,4dd0 <.LBB41_98>
    4dcc:	c0000637          	lui	a2,0xc0000

0000000000004dd0 <.LBB41_98>:
    4dd0:	000015b7          	lui	a1,0x1
    4dd4:	40b405b3          	sub	a1,s0,a1
    4dd8:	84c5b023          	sd	a2,-1984(a1) # 840 <.LBB41_1+0x518>
    4ddc:	000015b7          	lui	a1,0x1
    4de0:	40b405b3          	sub	a1,s0,a1
    4de4:	6385b583          	ld	a1,1592(a1) # 1638 <.LBB41_3+0xfc>
    4de8:	80043603          	ld	a2,-2048(s0)
    4dec:	00b605b3          	add	a1,a2,a1
    4df0:	018585b3          	add	a1,a1,s8
    4df4:	4135063b          	subw	a2,a0,s3
    4df8:	40c585bb          	subw	a1,a1,a2
    4dfc:	40000637          	lui	a2,0x40000
    4e00:	00002737          	lui	a4,0x2
    4e04:	40e40733          	sub	a4,s0,a4
    4e08:	74b73c23          	sd	a1,1880(a4) # 2758 <.LBB41_3+0x121c>
    4e0c:	0005d463          	bgez	a1,4e14 <.LBB41_100>
    4e10:	c0000637          	lui	a2,0xc0000

0000000000004e14 <.LBB41_100>:
    4e14:	000025b7          	lui	a1,0x2
    4e18:	40b405b3          	sub	a1,s0,a1
    4e1c:	74c5b423          	sd	a2,1864(a1) # 2748 <.LBB41_3+0x120c>
    4e20:	000015b7          	lui	a1,0x1
    4e24:	40b405b3          	sub	a1,s0,a1
    4e28:	6305b583          	ld	a1,1584(a1) # 1630 <.LBB41_3+0xf4>
    4e2c:	80843603          	ld	a2,-2040(s0)
    4e30:	00b605b3          	add	a1,a2,a1
    4e34:	e8843603          	ld	a2,-376(s0)
    4e38:	00c585b3          	add	a1,a1,a2
    4e3c:	4135063b          	subw	a2,a0,s3
    4e40:	40c585bb          	subw	a1,a1,a2
    4e44:	40000637          	lui	a2,0x40000
    4e48:	00002737          	lui	a4,0x2
    4e4c:	40e40733          	sub	a4,s0,a4
    4e50:	6cb73c23          	sd	a1,1752(a4) # 26d8 <.LBB41_3+0x119c>
    4e54:	0005d463          	bgez	a1,4e5c <.LBB41_102>
    4e58:	c0000637          	lui	a2,0xc0000

0000000000004e5c <.LBB41_102>:
    4e5c:	000025b7          	lui	a1,0x2
    4e60:	40b405b3          	sub	a1,s0,a1
    4e64:	6cc5b423          	sd	a2,1736(a1) # 26c8 <.LBB41_3+0x118c>
    4e68:	81043583          	ld	a1,-2032(s0)
    4e6c:	016585b3          	add	a1,a1,s6
    4e70:	e8043603          	ld	a2,-384(s0)
    4e74:	00c585b3          	add	a1,a1,a2
    4e78:	4135063b          	subw	a2,a0,s3
    4e7c:	40c585bb          	subw	a1,a1,a2
    4e80:	40000637          	lui	a2,0x40000
    4e84:	00002737          	lui	a4,0x2
    4e88:	40e40733          	sub	a4,s0,a4
    4e8c:	64b73c23          	sd	a1,1624(a4) # 2658 <.LBB41_3+0x111c>
    4e90:	0005d463          	bgez	a1,4e98 <.LBB41_104>
    4e94:	c0000637          	lui	a2,0xc0000

0000000000004e98 <.LBB41_104>:
    4e98:	000025b7          	lui	a1,0x2
    4e9c:	40b405b3          	sub	a1,s0,a1
    4ea0:	64c5b423          	sd	a2,1608(a1) # 2648 <.LBB41_3+0x110c>
    4ea4:	000015b7          	lui	a1,0x1
    4ea8:	40b405b3          	sub	a1,s0,a1
    4eac:	6285b583          	ld	a1,1576(a1) # 1628 <.LBB41_3+0xec>
    4eb0:	81843603          	ld	a2,-2024(s0)
    4eb4:	00b605b3          	add	a1,a2,a1
    4eb8:	e7843603          	ld	a2,-392(s0)
    4ebc:	00c585b3          	add	a1,a1,a2
    4ec0:	4135063b          	subw	a2,a0,s3
    4ec4:	40c585bb          	subw	a1,a1,a2
    4ec8:	40000637          	lui	a2,0x40000
    4ecc:	00002737          	lui	a4,0x2
    4ed0:	40e40733          	sub	a4,s0,a4
    4ed4:	5cb73c23          	sd	a1,1496(a4) # 25d8 <.LBB41_3+0x109c>
    4ed8:	0005d463          	bgez	a1,4ee0 <.LBB41_106>
    4edc:	c0000637          	lui	a2,0xc0000

0000000000004ee0 <.LBB41_106>:
    4ee0:	000025b7          	lui	a1,0x2
    4ee4:	40b405b3          	sub	a1,s0,a1
    4ee8:	5cc5b423          	sd	a2,1480(a1) # 25c8 <.LBB41_3+0x108c>
    4eec:	000015b7          	lui	a1,0x1
    4ef0:	40b405b3          	sub	a1,s0,a1
    4ef4:	6205b583          	ld	a1,1568(a1) # 1620 <.LBB41_3+0xe4>
    4ef8:	82043603          	ld	a2,-2016(s0)
    4efc:	00b605b3          	add	a1,a2,a1
    4f00:	014585b3          	add	a1,a1,s4
    4f04:	4135063b          	subw	a2,a0,s3
    4f08:	40c585bb          	subw	a1,a1,a2
    4f0c:	40000637          	lui	a2,0x40000
    4f10:	00002737          	lui	a4,0x2
    4f14:	40e40733          	sub	a4,s0,a4
    4f18:	54b73c23          	sd	a1,1368(a4) # 2558 <.LBB41_3+0x101c>
    4f1c:	0005d463          	bgez	a1,4f24 <.LBB41_108>
    4f20:	c0000637          	lui	a2,0xc0000

0000000000004f24 <.LBB41_108>:
    4f24:	000025b7          	lui	a1,0x2
    4f28:	40b405b3          	sub	a1,s0,a1
    4f2c:	54c5b423          	sd	a2,1352(a1) # 2548 <.LBB41_3+0x100c>
    4f30:	000015b7          	lui	a1,0x1
    4f34:	40b405b3          	sub	a1,s0,a1
    4f38:	6185b583          	ld	a1,1560(a1) # 1618 <.LBB41_3+0xdc>
    4f3c:	82843603          	ld	a2,-2008(s0)
    4f40:	00b605b3          	add	a1,a2,a1
    4f44:	e7043603          	ld	a2,-400(s0)
    4f48:	00c585b3          	add	a1,a1,a2
    4f4c:	4135063b          	subw	a2,a0,s3
    4f50:	40c585bb          	subw	a1,a1,a2
    4f54:	40000637          	lui	a2,0x40000
    4f58:	00002737          	lui	a4,0x2
    4f5c:	40e40733          	sub	a4,s0,a4
    4f60:	4cb73c23          	sd	a1,1240(a4) # 24d8 <.LBB41_3+0xf9c>
    4f64:	0005d463          	bgez	a1,4f6c <.LBB41_110>
    4f68:	c0000637          	lui	a2,0xc0000

0000000000004f6c <.LBB41_110>:
    4f6c:	000025b7          	lui	a1,0x2
    4f70:	40b405b3          	sub	a1,s0,a1
    4f74:	4cc5b423          	sd	a2,1224(a1) # 24c8 <.LBB41_3+0xf8c>
    4f78:	83043583          	ld	a1,-2000(s0)
    4f7c:	012585b3          	add	a1,a1,s2
    4f80:	e6843603          	ld	a2,-408(s0)
    4f84:	00c585b3          	add	a1,a1,a2
    4f88:	4135063b          	subw	a2,a0,s3
    4f8c:	40c585bb          	subw	a1,a1,a2
    4f90:	40000637          	lui	a2,0x40000
    4f94:	00002737          	lui	a4,0x2
    4f98:	40e40733          	sub	a4,s0,a4
    4f9c:	44b73c23          	sd	a1,1112(a4) # 2458 <.LBB41_3+0xf1c>
    4fa0:	0005d463          	bgez	a1,4fa8 <.LBB41_112>
    4fa4:	c0000637          	lui	a2,0xc0000

0000000000004fa8 <.LBB41_112>:
    4fa8:	000025b7          	lui	a1,0x2
    4fac:	40b405b3          	sub	a1,s0,a1
    4fb0:	44c5b423          	sd	a2,1096(a1) # 2448 <.LBB41_3+0xf0c>
    4fb4:	000015b7          	lui	a1,0x1
    4fb8:	40b405b3          	sub	a1,s0,a1
    4fbc:	6105b583          	ld	a1,1552(a1) # 1610 <.LBB41_3+0xd4>
    4fc0:	83843603          	ld	a2,-1992(s0)
    4fc4:	00b605b3          	add	a1,a2,a1
    4fc8:	e6043603          	ld	a2,-416(s0)
    4fcc:	00c585b3          	add	a1,a1,a2
    4fd0:	4135063b          	subw	a2,a0,s3
    4fd4:	40c585bb          	subw	a1,a1,a2
    4fd8:	40000637          	lui	a2,0x40000
    4fdc:	00002737          	lui	a4,0x2
    4fe0:	40e40733          	sub	a4,s0,a4
    4fe4:	3eb73023          	sd	a1,992(a4) # 23e0 <.LBB41_3+0xea4>
    4fe8:	0005d463          	bgez	a1,4ff0 <.LBB41_114>
    4fec:	c0000637          	lui	a2,0xc0000

0000000000004ff0 <.LBB41_114>:
    4ff0:	000025b7          	lui	a1,0x2
    4ff4:	40b405b3          	sub	a1,s0,a1
    4ff8:	3cc5b823          	sd	a2,976(a1) # 23d0 <.LBB41_3+0xe94>
    4ffc:	000015b7          	lui	a1,0x1
    5000:	40b405b3          	sub	a1,s0,a1
    5004:	6085b583          	ld	a1,1544(a1) # 1608 <.LBB41_3+0xcc>
    5008:	84043603          	ld	a2,-1984(s0)
    500c:	00b605b3          	add	a1,a2,a1
    5010:	e5843603          	ld	a2,-424(s0)
    5014:	00c585b3          	add	a1,a1,a2
    5018:	4135063b          	subw	a2,a0,s3
    501c:	40c585bb          	subw	a1,a1,a2
    5020:	40000637          	lui	a2,0x40000
    5024:	00002737          	lui	a4,0x2
    5028:	40e40733          	sub	a4,s0,a4
    502c:	36b73423          	sd	a1,872(a4) # 2368 <.LBB41_3+0xe2c>
    5030:	0005d463          	bgez	a1,5038 <.LBB41_116>
    5034:	c0000637          	lui	a2,0xc0000

0000000000005038 <.LBB41_116>:
    5038:	000025b7          	lui	a1,0x2
    503c:	40b405b3          	sub	a1,s0,a1
    5040:	34c5bc23          	sd	a2,856(a1) # 2358 <.LBB41_3+0xe1c>
    5044:	000015b7          	lui	a1,0x1
    5048:	40b405b3          	sub	a1,s0,a1
    504c:	6005b583          	ld	a1,1536(a1) # 1600 <.LBB41_3+0xc4>
    5050:	84843603          	ld	a2,-1976(s0)
    5054:	00b605b3          	add	a1,a2,a1
    5058:	e5043603          	ld	a2,-432(s0)
    505c:	00c585b3          	add	a1,a1,a2
    5060:	4135063b          	subw	a2,a0,s3
    5064:	40c585bb          	subw	a1,a1,a2
    5068:	40000637          	lui	a2,0x40000
    506c:	00002737          	lui	a4,0x2
    5070:	40e40733          	sub	a4,s0,a4
    5074:	2eb73823          	sd	a1,752(a4) # 22f0 <.LBB41_3+0xdb4>
    5078:	0005d463          	bgez	a1,5080 <.LBB41_118>
    507c:	c0000637          	lui	a2,0xc0000

0000000000005080 <.LBB41_118>:
    5080:	000025b7          	lui	a1,0x2
    5084:	40b405b3          	sub	a1,s0,a1
    5088:	2ec5b023          	sd	a2,736(a1) # 22e0 <.LBB41_3+0xda4>
    508c:	000015b7          	lui	a1,0x1
    5090:	40b405b3          	sub	a1,s0,a1
    5094:	5f85b583          	ld	a1,1528(a1) # 15f8 <.LBB41_3+0xbc>
    5098:	85043603          	ld	a2,-1968(s0)
    509c:	00b605b3          	add	a1,a2,a1
    50a0:	e4843603          	ld	a2,-440(s0)
    50a4:	00c585b3          	add	a1,a1,a2
    50a8:	4135063b          	subw	a2,a0,s3
    50ac:	40c585bb          	subw	a1,a1,a2
    50b0:	40000637          	lui	a2,0x40000
    50b4:	00002737          	lui	a4,0x2
    50b8:	40e40733          	sub	a4,s0,a4
    50bc:	26b73c23          	sd	a1,632(a4) # 2278 <.LBB41_3+0xd3c>
    50c0:	0005d463          	bgez	a1,50c8 <.LBB41_120>
    50c4:	c0000637          	lui	a2,0xc0000

00000000000050c8 <.LBB41_120>:
    50c8:	000025b7          	lui	a1,0x2
    50cc:	40b405b3          	sub	a1,s0,a1
    50d0:	26c5b423          	sd	a2,616(a1) # 2268 <.LBB41_3+0xd2c>
    50d4:	000015b7          	lui	a1,0x1
    50d8:	40b405b3          	sub	a1,s0,a1
    50dc:	5f05b583          	ld	a1,1520(a1) # 15f0 <.LBB41_3+0xb4>
    50e0:	85843603          	ld	a2,-1960(s0)
    50e4:	00b605b3          	add	a1,a2,a1
    50e8:	e4043603          	ld	a2,-448(s0)
    50ec:	00c585b3          	add	a1,a1,a2
    50f0:	4135063b          	subw	a2,a0,s3
    50f4:	40c585bb          	subw	a1,a1,a2
    50f8:	40000637          	lui	a2,0x40000
    50fc:	00002737          	lui	a4,0x2
    5100:	40e40733          	sub	a4,s0,a4
    5104:	20b73023          	sd	a1,512(a4) # 2200 <.LBB41_3+0xcc4>
    5108:	0005d463          	bgez	a1,5110 <.LBB41_122>
    510c:	c0000637          	lui	a2,0xc0000

0000000000005110 <.LBB41_122>:
    5110:	000025b7          	lui	a1,0x2
    5114:	40b405b3          	sub	a1,s0,a1
    5118:	1ec5b823          	sd	a2,496(a1) # 21f0 <.LBB41_3+0xcb4>
    511c:	000015b7          	lui	a1,0x1
    5120:	40b405b3          	sub	a1,s0,a1
    5124:	5e85b583          	ld	a1,1512(a1) # 15e8 <.LBB41_3+0xac>
    5128:	86843603          	ld	a2,-1944(s0)
    512c:	00b605b3          	add	a1,a2,a1
    5130:	e3843603          	ld	a2,-456(s0)
    5134:	00c585b3          	add	a1,a1,a2
    5138:	4135063b          	subw	a2,a0,s3
    513c:	40c585bb          	subw	a1,a1,a2
    5140:	40000637          	lui	a2,0x40000
    5144:	00002737          	lui	a4,0x2
    5148:	40e40733          	sub	a4,s0,a4
    514c:	18b73423          	sd	a1,392(a4) # 2188 <.LBB41_3+0xc4c>
    5150:	0005d463          	bgez	a1,5158 <.LBB41_124>
    5154:	c0000637          	lui	a2,0xc0000

0000000000005158 <.LBB41_124>:
    5158:	000025b7          	lui	a1,0x2
    515c:	40b405b3          	sub	a1,s0,a1
    5160:	16c5bc23          	sd	a2,376(a1) # 2178 <.LBB41_3+0xc3c>
    5164:	000015b7          	lui	a1,0x1
    5168:	40b405b3          	sub	a1,s0,a1
    516c:	5e05b583          	ld	a1,1504(a1) # 15e0 <.LBB41_3+0xa4>
    5170:	87843603          	ld	a2,-1928(s0)
    5174:	00b605b3          	add	a1,a2,a1
    5178:	e3043603          	ld	a2,-464(s0)
    517c:	00c585b3          	add	a1,a1,a2
    5180:	4135063b          	subw	a2,a0,s3
    5184:	40c585bb          	subw	a1,a1,a2
    5188:	40000637          	lui	a2,0x40000
    518c:	00002737          	lui	a4,0x2
    5190:	40e40733          	sub	a4,s0,a4
    5194:	10b73823          	sd	a1,272(a4) # 2110 <.LBB41_3+0xbd4>
    5198:	0005d463          	bgez	a1,51a0 <.LBB41_126>
    519c:	c0000637          	lui	a2,0xc0000

00000000000051a0 <.LBB41_126>:
    51a0:	000025b7          	lui	a1,0x2
    51a4:	40b405b3          	sub	a1,s0,a1
    51a8:	10c5b023          	sd	a2,256(a1) # 2100 <.LBB41_3+0xbc4>
    51ac:	82d43023          	sd	a3,-2016(s0)
    51b0:	000015b7          	lui	a1,0x1
    51b4:	40b405b3          	sub	a1,s0,a1
    51b8:	5c85b583          	ld	a1,1480(a1) # 15c8 <.LBB41_3+0x8c>
    51bc:	88843603          	ld	a2,-1912(s0)
    51c0:	00b605b3          	add	a1,a2,a1
    51c4:	e2843603          	ld	a2,-472(s0)
    51c8:	00c585b3          	add	a1,a1,a2
    51cc:	4135063b          	subw	a2,a0,s3
    51d0:	40c585bb          	subw	a1,a1,a2
    51d4:	40000637          	lui	a2,0x40000
    51d8:	000026b7          	lui	a3,0x2
    51dc:	40d406b3          	sub	a3,s0,a3
    51e0:	0ab6b423          	sd	a1,168(a3) # 20a8 <.LBB41_3+0xb6c>
    51e4:	0005d463          	bgez	a1,51ec <.LBB41_128>
    51e8:	c0000637          	lui	a2,0xc0000

00000000000051ec <.LBB41_128>:
    51ec:	000025b7          	lui	a1,0x2
    51f0:	40b405b3          	sub	a1,s0,a1
    51f4:	08c5bc23          	sd	a2,152(a1) # 2098 <.LBB41_3+0xb5c>
    51f8:	000015b7          	lui	a1,0x1
    51fc:	40b405b3          	sub	a1,s0,a1
    5200:	5d05b583          	ld	a1,1488(a1) # 15d0 <.LBB41_3+0x94>
    5204:	89843603          	ld	a2,-1896(s0)
    5208:	00b605b3          	add	a1,a2,a1
    520c:	e2043603          	ld	a2,-480(s0)
    5210:	00c585b3          	add	a1,a1,a2
    5214:	4135063b          	subw	a2,a0,s3
    5218:	40c586bb          	subw	a3,a1,a2
    521c:	400005b7          	lui	a1,0x40000
    5220:	0006d463          	bgez	a3,5228 <.LBB41_130>
    5224:	c00005b7          	lui	a1,0xc0000

0000000000005228 <.LBB41_130>:
    5228:	00002637          	lui	a2,0x2
    522c:	40c40633          	sub	a2,s0,a2
    5230:	04b63c23          	sd	a1,88(a2) # 2058 <.LBB41_3+0xb1c>
    5234:	000015b7          	lui	a1,0x1
    5238:	40b405b3          	sub	a1,s0,a1
    523c:	5d85b583          	ld	a1,1496(a1) # 15d8 <.LBB41_3+0x9c>
    5240:	8a843603          	ld	a2,-1880(s0)
    5244:	00b605b3          	add	a1,a2,a1
    5248:	e1843603          	ld	a2,-488(s0)
    524c:	00c585b3          	add	a1,a1,a2
    5250:	4135053b          	subw	a0,a0,s3
    5254:	40a5863b          	subw	a2,a1,a0
    5258:	40000537          	lui	a0,0x40000
    525c:	00065463          	bgez	a2,5264 <.LBB41_132>
    5260:	c0000537          	lui	a0,0xc0000

0000000000005264 <.LBB41_132>:
    5264:	000025b7          	lui	a1,0x2
    5268:	40b405b3          	sub	a1,s0,a1
    526c:	fea5bc23          	sd	a0,-8(a1) # 1ff8 <.LBB41_3+0xabc>
    5270:	01200513          	li	a0,18
    5274:	000015b7          	lui	a1,0x1
    5278:	40b405b3          	sub	a1,s0,a1
    527c:	d505b583          	ld	a1,-688(a1) # d50 <.LBB41_1+0xa28>
    5280:	02a58533          	mul	a0,a1,a0
    5284:	86043583          	ld	a1,-1952(s0)
    5288:	007585b3          	add	a1,a1,t2
    528c:	f8843703          	ld	a4,-120(s0)
    5290:	00e585b3          	add	a1,a1,a4
    5294:	4135073b          	subw	a4,a0,s3
    5298:	40e585bb          	subw	a1,a1,a4
    529c:	40000737          	lui	a4,0x40000
    52a0:	82b43423          	sd	a1,-2008(s0)
    52a4:	0005d463          	bgez	a1,52ac <.LBB41_134>
    52a8:	c0000737          	lui	a4,0xc0000

00000000000052ac <.LBB41_134>:
    52ac:	80e43823          	sd	a4,-2032(s0)
    52b0:	87043583          	ld	a1,-1936(s0)
    52b4:	01c585b3          	add	a1,a1,t3
    52b8:	f7843703          	ld	a4,-136(s0)
    52bc:	00e585b3          	add	a1,a1,a4
    52c0:	4135073b          	subw	a4,a0,s3
    52c4:	40e585bb          	subw	a1,a1,a4
    52c8:	40000737          	lui	a4,0x40000
    52cc:	f8c43823          	sd	a2,-112(s0)
    52d0:	00001637          	lui	a2,0x1
    52d4:	40c40633          	sub	a2,s0,a2
    52d8:	7cb63423          	sd	a1,1992(a2) # 17c8 <.LBB41_3+0x28c>
    52dc:	f9043603          	ld	a2,-112(s0)
    52e0:	0005d463          	bgez	a1,52e8 <.LBB41_136>
    52e4:	c0000737          	lui	a4,0xc0000

00000000000052e8 <.LBB41_136>:
    52e8:	f8c43823          	sd	a2,-112(s0)
    52ec:	000015b7          	lui	a1,0x1
    52f0:	40b405b3          	sub	a1,s0,a1
    52f4:	7ae5bc23          	sd	a4,1976(a1) # 17b8 <.LBB41_3+0x27c>
    52f8:	88043583          	ld	a1,-1920(s0)
    52fc:	01d585b3          	add	a1,a1,t4
    5300:	f7043703          	ld	a4,-144(s0)
    5304:	00e585b3          	add	a1,a1,a4
    5308:	4135073b          	subw	a4,a0,s3
    530c:	40e585bb          	subw	a1,a1,a4
    5310:	40000737          	lui	a4,0x40000
    5314:	00001637          	lui	a2,0x1
    5318:	40c40633          	sub	a2,s0,a2
    531c:	74b63423          	sd	a1,1864(a2) # 1748 <.LBB41_3+0x20c>
    5320:	f9043603          	ld	a2,-112(s0)
    5324:	0005d463          	bgez	a1,532c <.LBB41_138>
    5328:	c0000737          	lui	a4,0xc0000

000000000000532c <.LBB41_138>:
    532c:	f8c43823          	sd	a2,-112(s0)
    5330:	000015b7          	lui	a1,0x1
    5334:	40b405b3          	sub	a1,s0,a1
    5338:	72e5b823          	sd	a4,1840(a1) # 1730 <.LBB41_3+0x1f4>
    533c:	89043583          	ld	a1,-1904(s0)
    5340:	01f585b3          	add	a1,a1,t6
    5344:	f6843703          	ld	a4,-152(s0)
    5348:	00e585b3          	add	a1,a1,a4
    534c:	4135073b          	subw	a4,a0,s3
    5350:	40e585bb          	subw	a1,a1,a4
    5354:	40000737          	lui	a4,0x40000
    5358:	00001637          	lui	a2,0x1
    535c:	40c40633          	sub	a2,s0,a2
    5360:	6cb63c23          	sd	a1,1752(a2) # 16d8 <.LBB41_3+0x19c>
    5364:	f9043603          	ld	a2,-112(s0)
    5368:	0005d463          	bgez	a1,5370 <.LBB41_140>
    536c:	c0000737          	lui	a4,0xc0000

0000000000005370 <.LBB41_140>:
    5370:	f8c43823          	sd	a2,-112(s0)
    5374:	000015b7          	lui	a1,0x1
    5378:	40b405b3          	sub	a1,s0,a1
    537c:	d4e5b823          	sd	a4,-688(a1) # d50 <.LBB41_1+0xa28>
    5380:	8a043583          	ld	a1,-1888(s0)
    5384:	01a585b3          	add	a1,a1,s10
    5388:	f6043703          	ld	a4,-160(s0)
    538c:	00e585b3          	add	a1,a1,a4
    5390:	4135073b          	subw	a4,a0,s3
    5394:	40e585bb          	subw	a1,a1,a4
    5398:	40000737          	lui	a4,0x40000
    539c:	00001637          	lui	a2,0x1
    53a0:	40c40633          	sub	a2,s0,a2
    53a4:	ceb63c23          	sd	a1,-776(a2) # cf8 <.LBB41_1+0x9d0>
    53a8:	f9043603          	ld	a2,-112(s0)
    53ac:	0005d463          	bgez	a1,53b4 <.LBB41_142>
    53b0:	c0000737          	lui	a4,0xc0000

00000000000053b4 <.LBB41_142>:
    53b4:	f8c43823          	sd	a2,-112(s0)
    53b8:	000015b7          	lui	a1,0x1
    53bc:	40b405b3          	sub	a1,s0,a1
    53c0:	cee5b023          	sd	a4,-800(a1) # ce0 <.LBB41_1+0x9b8>
    53c4:	8b043583          	ld	a1,-1872(s0)
    53c8:	006585b3          	add	a1,a1,t1
    53cc:	f5843703          	ld	a4,-168(s0)
    53d0:	00e585b3          	add	a1,a1,a4
    53d4:	4135073b          	subw	a4,a0,s3
    53d8:	40e585bb          	subw	a1,a1,a4
    53dc:	40000737          	lui	a4,0x40000
    53e0:	00001637          	lui	a2,0x1
    53e4:	40c40633          	sub	a2,s0,a2
    53e8:	c8b63423          	sd	a1,-888(a2) # c88 <.LBB41_1+0x960>
    53ec:	f9043603          	ld	a2,-112(s0)
    53f0:	0005d463          	bgez	a1,53f8 <.LBB41_144>
    53f4:	c0000737          	lui	a4,0xc0000

00000000000053f8 <.LBB41_144>:
    53f8:	f8c43823          	sd	a2,-112(s0)
    53fc:	000015b7          	lui	a1,0x1
