
code.o:     file format elf64-littleriscv


Disassembly of section .text.main_dispatch_2_conv_2d_nhwc_hwcf_1x112x112x32x3x3x3_i8xi8xi32:

0000000000000000 <main_dispatch_2_conv_2d_nhwc_hwcf_1x112x112x32x3x3x3_i8xi8xi32>:
   0:	d5010113          	addi	sp,sp,-688
   4:	2a113423          	sd	ra,680(sp)
   8:	2a813023          	sd	s0,672(sp)
   c:	28913c23          	sd	s1,664(sp)
  10:	29213823          	sd	s2,656(sp)
  14:	29313423          	sd	s3,648(sp)
  18:	29413023          	sd	s4,640(sp)
  1c:	27513c23          	sd	s5,632(sp)
  20:	27613823          	sd	s6,624(sp)
  24:	27713423          	sd	s7,616(sp)
  28:	27813023          	sd	s8,608(sp)
  2c:	25913c23          	sd	s9,600(sp)
  30:	25a13823          	sd	s10,592(sp)
  34:	25b13423          	sd	s11,584(sp)
  38:	2b010413          	addi	s0,sp,688
  3c:	0205b503          	ld	a0,32(a1)
  40:	00000713          	li	a4,0
  44:	00053583          	ld	a1,0(a0)
  48:	01053603          	ld	a2,16(a0)
  4c:	00853503          	ld	a0,8(a0)
  50:	0004a6b7          	lui	a3,0x4a
  54:	d806869b          	addiw	a3,a3,-640 # 49d80 <.Lfunc_end80+0x213b8>
  58:	00d60633          	add	a2,a2,a3
  5c:	d4c43823          	sd	a2,-688(s0)
  60:	00025637          	lui	a2,0x25
  64:	c0c6061b          	addiw	a2,a2,-1012 # 24c0c <.LBB66_4707>
  68:	00c586b3          	add	a3,a1,a2
  6c:	000215b7          	lui	a1,0x21
  70:	e805859b          	addiw	a1,a1,-384 # 20e80 <.LBB63_4214+0x4>
  74:	00b50533          	add	a0,a0,a1
  78:	d6a43423          	sd	a0,-664(s0)

000000000000007c <.LBB2_1>:
  7c:	00000593          	li	a1,0
  80:	00b71513          	slli	a0,a4,0xb
  84:	d6e43023          	sd	a4,-672(s0)
  88:	00e71613          	slli	a2,a4,0xe
  8c:	40a60633          	sub	a2,a2,a0
  90:	d5043503          	ld	a0,-688(s0)
  94:	00c50533          	add	a0,a0,a2
  98:	d6a43823          	sd	a0,-656(s0)
  9c:	d4d43c23          	sd	a3,-680(s0)
  a0:	dad43023          	sd	a3,-608(s0)

00000000000000a4 <.LBB2_2>:
  a4:	00000513          	li	a0,0
  a8:	d6b43c23          	sd	a1,-648(s0)
  ac:	00759593          	slli	a1,a1,0x7
  b0:	d7043603          	ld	a2,-656(s0)
  b4:	00b605b3          	add	a1,a2,a1
  b8:	08058613          	addi	a2,a1,128
  bc:	d8c43823          	sd	a2,-624(s0)
  c0:	10058613          	addi	a2,a1,256
  c4:	d8c43423          	sd	a2,-632(s0)
  c8:	d8b43c23          	sd	a1,-616(s0)
  cc:	18058593          	addi	a1,a1,384
  d0:	d8b43023          	sd	a1,-640(s0)
  d4:	d6843083          	ld	ra,-664(s0)

00000000000000d8 <.LBB2_3>:
  d8:	ec043423          	sd	zero,-312(s0)
  dc:	ec043823          	sd	zero,-304(s0)
  e0:	00000693          	li	a3,0
  e4:	00000613          	li	a2,0
  e8:	00000d13          	li	s10,0
  ec:	ec043023          	sd	zero,-320(s0)
  f0:	ea043c23          	sd	zero,-328(s0)
  f4:	ea043823          	sd	zero,-336(s0)
  f8:	e8043023          	sd	zero,-384(s0)
  fc:	00000293          	li	t0,0
 100:	00000913          	li	s2,0
 104:	00000993          	li	s3,0
 108:	00000b13          	li	s6,0
 10c:	00000c13          	li	s8,0
 110:	e8043823          	sd	zero,-368(s0)
 114:	e8043c23          	sd	zero,-360(s0)
 118:	00000393          	li	t2,0
 11c:	00000e93          	li	t4,0
 120:	00000f93          	li	t6,0
 124:	00000493          	li	s1,0
 128:	00000a93          	li	s5,0
 12c:	00000793          	li	a5,0
 130:	ea043423          	sd	zero,-344(s0)
 134:	ea043023          	sd	zero,-352(s0)
 138:	00000313          	li	t1,0
 13c:	00000893          	li	a7,0
 140:	00000813          	li	a6,0
 144:	e8043423          	sd	zero,-376(s0)
 148:	00000713          	li	a4,0
 14c:	00000b93          	li	s7,0
 150:	00000a13          	li	s4,0
 154:	00000e13          	li	t3,0
 158:	00000593          	li	a1,0
 15c:	daa43423          	sd	a0,-600(s0)
 160:	da143823          	sd	ra,-592(s0)
 164:	00008c93          	mv	s9,ra
 168:	da043083          	ld	ra,-608(s0)

000000000000016c <.LBB2_4>:
 16c:	ec543c23          	sd	t0,-296(s0)
 170:	ef843023          	sd	s8,-288(s0)
 174:	eef43423          	sd	a5,-280(s0)
 178:	ef643823          	sd	s6,-272(s0)
 17c:	ef543c23          	sd	s5,-264(s0)
 180:	f1343023          	sd	s3,-256(s0)
 184:	f0943423          	sd	s1,-248(s0)
 188:	f1243823          	sd	s2,-240(s0)
 18c:	f1f43c23          	sd	t6,-232(s0)
 190:	f3d43023          	sd	t4,-224(s0)
 194:	f2743423          	sd	t2,-216(s0)
 198:	dcb43423          	sd	a1,-568(s0)
 19c:	ffd00513          	li	a0,-3
 1a0:	dd943023          	sd	s9,-576(s0)
 1a4:	da143c23          	sd	ra,-584(s0)
 1a8:	ed043983          	ld	s3,-304(s0)
 1ac:	ec843e83          	ld	t4,-312(s0)
 1b0:	ec043f03          	ld	t5,-320(s0)
 1b4:	eb843f83          	ld	t6,-328(s0)
 1b8:	eb043903          	ld	s2,-336(s0)

00000000000001bc <.LBB2_5>:
 1bc:	e3143423          	sd	a7,-472(s0)
 1c0:	e3743823          	sd	s7,-464(s0)
 1c4:	e3c43c23          	sd	t3,-456(s0)
 1c8:	e5043823          	sd	a6,-432(s0)
 1cc:	e7443023          	sd	s4,-416(s0)
 1d0:	e6643423          	sd	t1,-408(s0)
 1d4:	e6e43823          	sd	a4,-400(s0)
 1d8:	e6a43c23          	sd	a0,-392(s0)
 1dc:	ff40c503          	lbu	a0,-12(ra)
 1e0:	fc4c8583          	lb	a1,-60(s9)
 1e4:	f4b43423          	sd	a1,-184(s0)
 1e8:	03851513          	slli	a0,a0,0x38
 1ec:	43855513          	srai	a0,a0,0x38
 1f0:	fc3c8783          	lb	a5,-61(s9)
 1f4:	f4f43023          	sd	a5,-192(s0)
 1f8:	02b505b3          	mul	a1,a0,a1
 1fc:	01a58733          	add	a4,a1,s10
 200:	fc2c8d83          	lb	s11,-62(s9)
 204:	02f505b3          	mul	a1,a0,a5
 208:	00c58333          	add	t1,a1,a2
 20c:	fc1c8283          	lb	t0,-63(s9)
 210:	03b505b3          	mul	a1,a0,s11
 214:	00d584b3          	add	s1,a1,a3
 218:	fc0c8783          	lb	a5,-64(s9)
 21c:	025505b3          	mul	a1,a0,t0
 220:	013589b3          	add	s3,a1,s3
 224:	fc5c8583          	lb	a1,-59(s9)
 228:	f2b43c23          	sd	a1,-200(s0)
 22c:	02f50a33          	mul	s4,a0,a5
 230:	01da0a33          	add	s4,s4,t4
 234:	fc6c8603          	lb	a2,-58(s9)
 238:	e0c43423          	sd	a2,-504(s0)
 23c:	02b50b33          	mul	s6,a0,a1
 240:	01eb0b33          	add	s6,s6,t5
 244:	fc7c8683          	lb	a3,-57(s9)
 248:	e0d43823          	sd	a3,-496(s0)
 24c:	ff50c803          	lbu	a6,-11(ra)
 250:	02c505b3          	mul	a1,a0,a2
 254:	01f585b3          	add	a1,a1,t6
 258:	02d50c33          	mul	s8,a0,a3
 25c:	012c0c33          	add	s8,s8,s2
 260:	03881813          	slli	a6,a6,0x38
 264:	43885d13          	srai	s10,a6,0x38
 268:	ff608503          	lb	a0,-10(ra)
 26c:	fe4c8803          	lb	a6,-28(s9)
 270:	e3043023          	sd	a6,-480(s0)
 274:	004c8603          	lb	a2,4(s9)
 278:	f8c43823          	sd	a2,-112(s0)
 27c:	fe3c8883          	lb	a7,-29(s9)
 280:	f9143423          	sd	a7,-120(s0)
 284:	003c8683          	lb	a3,3(s9)
 288:	e0d43c23          	sd	a3,-488(s0)
 28c:	030d0e33          	mul	t3,s10,a6
 290:	02c50f33          	mul	t5,a0,a2
 294:	01ee0e33          	add	t3,t3,t5
 298:	01c70733          	add	a4,a4,t3
 29c:	e4e43423          	sd	a4,-440(s0)
 2a0:	031d0733          	mul	a4,s10,a7
 2a4:	02d50e33          	mul	t3,a0,a3
 2a8:	01c70733          	add	a4,a4,t3
 2ac:	00e30733          	add	a4,t1,a4
 2b0:	e4e43c23          	sd	a4,-424(s0)
 2b4:	fe2c8703          	lb	a4,-30(s9)
 2b8:	f8e43023          	sd	a4,-128(s0)
 2bc:	002c8603          	lb	a2,2(s9)
 2c0:	f2c43823          	sd	a2,-208(s0)
 2c4:	fe1c8803          	lb	a6,-31(s9)
 2c8:	df043823          	sd	a6,-528(s0)
 2cc:	001c8683          	lb	a3,1(s9)
 2d0:	02ed0733          	mul	a4,s10,a4
 2d4:	02c50333          	mul	t1,a0,a2
 2d8:	00670733          	add	a4,a4,t1
 2dc:	00e48733          	add	a4,s1,a4
 2e0:	e4e43023          	sd	a4,-448(s0)
 2e4:	030d0733          	mul	a4,s10,a6
 2e8:	02d50333          	mul	t1,a0,a3
 2ec:	00068913          	mv	s2,a3
 2f0:	f4d43c23          	sd	a3,-168(s0)
 2f4:	00670733          	add	a4,a4,t1
 2f8:	00e98733          	add	a4,s3,a4
 2fc:	ece43823          	sd	a4,-304(s0)
 300:	fe0c8803          	lb	a6,-32(s9)
 304:	000c8983          	lb	s3,0(s9)
 308:	fe5c8703          	lb	a4,-27(s9)
 30c:	f6e43c23          	sd	a4,-136(s0)
 310:	005c8683          	lb	a3,5(s9)
 314:	f6d43823          	sd	a3,-144(s0)
 318:	030d0ab3          	mul	s5,s10,a6
 31c:	00080493          	mv	s1,a6
 320:	f5043823          	sd	a6,-176(s0)
 324:	03350bb3          	mul	s7,a0,s3
 328:	017a8ab3          	add	s5,s5,s7
 32c:	015a0a33          	add	s4,s4,s5
 330:	ed443423          	sd	s4,-312(s0)
 334:	02ed0a33          	mul	s4,s10,a4
 338:	02d50ab3          	mul	s5,a0,a3
 33c:	015a0bb3          	add	s7,s4,s5
 340:	fe6c8683          	lb	a3,-26(s9)
 344:	e0d43023          	sd	a3,-512(s0)
 348:	006c8603          	lb	a2,6(s9)
 34c:	f6c43423          	sd	a2,-152(s0)
 350:	017b0b33          	add	s6,s6,s7
 354:	ed643023          	sd	s6,-320(s0)
 358:	fe7c8703          	lb	a4,-25(s9)
 35c:	f6e43023          	sd	a4,-160(s0)
 360:	02dd0bb3          	mul	s7,s10,a3
 364:	02c508b3          	mul	a7,a0,a2
 368:	011b88b3          	add	a7,s7,a7
 36c:	007c8603          	lb	a2,7(s9)
 370:	011585b3          	add	a1,a1,a7
 374:	eab43c23          	sd	a1,-328(s0)
 378:	02ed05b3          	mul	a1,s10,a4
 37c:	ffa0c883          	lbu	a7,-6(ra)
 380:	02c50533          	mul	a0,a0,a2
 384:	00060b93          	mv	s7,a2
 388:	dec43423          	sd	a2,-536(s0)
 38c:	00a58533          	add	a0,a1,a0
 390:	00ac0533          	add	a0,s8,a0
 394:	eaa43823          	sd	a0,-336(s0)
 398:	03889893          	slli	a7,a7,0x38
 39c:	4388d513          	srai	a0,a7,0x38
 3a0:	00078e93          	mv	t4,a5
 3a4:	def43c23          	sd	a5,-520(s0)
 3a8:	02f505b3          	mul	a1,a0,a5
 3ac:	e8043703          	ld	a4,-384(s0)
 3b0:	00e58733          	add	a4,a1,a4
 3b4:	00028e13          	mv	t3,t0
 3b8:	de543023          	sd	t0,-544(s0)
 3bc:	025508b3          	mul	a7,a0,t0
 3c0:	ed843583          	ld	a1,-296(s0)
 3c4:	00b88ab3          	add	s5,a7,a1
 3c8:	000d8313          	mv	t1,s11
 3cc:	ddb43c23          	sd	s11,-552(s0)
 3d0:	03b50c33          	mul	s8,a0,s11
 3d4:	f1043583          	ld	a1,-240(s0)
 3d8:	00bc0c33          	add	s8,s8,a1
 3dc:	f4043283          	ld	t0,-192(s0)
 3e0:	02550d33          	mul	s10,a0,t0
 3e4:	f0043583          	ld	a1,-256(s0)
 3e8:	00bd0d33          	add	s10,s10,a1
 3ec:	f4843883          	ld	a7,-184(s0)
 3f0:	03150db3          	mul	s11,a0,a7
 3f4:	ef043583          	ld	a1,-272(s0)
 3f8:	00bd8b33          	add	s6,s11,a1
 3fc:	f3843f03          	ld	t5,-200(s0)
 400:	03e50633          	mul	a2,a0,t5
 404:	ee043783          	ld	a5,-288(s0)
 408:	00f607b3          	add	a5,a2,a5
 40c:	e0843f83          	ld	t6,-504(s0)
 410:	03f506b3          	mul	a3,a0,t6
 414:	e9043583          	ld	a1,-368(s0)
 418:	00b686b3          	add	a3,a3,a1
 41c:	ffb0c583          	lbu	a1,-5(ra)
 420:	e1043d83          	ld	s11,-496(s0)
 424:	03b50533          	mul	a0,a0,s11
 428:	e9843803          	ld	a6,-360(s0)
 42c:	01050833          	add	a6,a0,a6
 430:	ffc08503          	lb	a0,-4(ra)
 434:	03859593          	slli	a1,a1,0x38
 438:	4385d593          	srai	a1,a1,0x38
 43c:	02958633          	mul	a2,a1,s1
 440:	dd343823          	sd	s3,-560(s0)
 444:	033503b3          	mul	t2,a0,s3
 448:	00760633          	add	a2,a2,t2
 44c:	00c70633          	add	a2,a4,a2
 450:	e8c43023          	sd	a2,-384(s0)
 454:	df043483          	ld	s1,-528(s0)
 458:	02958633          	mul	a2,a1,s1
 45c:	03250733          	mul	a4,a0,s2
 460:	00e60633          	add	a2,a2,a4
 464:	00ca8633          	add	a2,s5,a2
 468:	ecc43c23          	sd	a2,-296(s0)
 46c:	f8043603          	ld	a2,-128(s0)
 470:	02c58633          	mul	a2,a1,a2
 474:	f3043903          	ld	s2,-208(s0)
 478:	03250733          	mul	a4,a0,s2
 47c:	00e60633          	add	a2,a2,a4
 480:	00cc0633          	add	a2,s8,a2
 484:	f0c43823          	sd	a2,-240(s0)
 488:	f8843603          	ld	a2,-120(s0)
 48c:	02c58633          	mul	a2,a1,a2
 490:	e1843a83          	ld	s5,-488(s0)
 494:	03550733          	mul	a4,a0,s5
 498:	00e60633          	add	a2,a2,a4
 49c:	00cd0633          	add	a2,s10,a2
 4a0:	f0c43023          	sd	a2,-256(s0)
 4a4:	e2043a03          	ld	s4,-480(s0)
 4a8:	03458633          	mul	a2,a1,s4
 4ac:	f9043703          	ld	a4,-112(s0)
 4b0:	02e50733          	mul	a4,a0,a4
 4b4:	00e60633          	add	a2,a2,a4
 4b8:	00cb0633          	add	a2,s6,a2
 4bc:	eec43823          	sd	a2,-272(s0)
 4c0:	f7843603          	ld	a2,-136(s0)
 4c4:	02c58633          	mul	a2,a1,a2
 4c8:	f7043703          	ld	a4,-144(s0)
 4cc:	02e50733          	mul	a4,a0,a4
 4d0:	00e60633          	add	a2,a2,a4
 4d4:	00c78633          	add	a2,a5,a2
 4d8:	eec43023          	sd	a2,-288(s0)
 4dc:	e0043b03          	ld	s6,-512(s0)
 4e0:	03658633          	mul	a2,a1,s6
 4e4:	f6843703          	ld	a4,-152(s0)
 4e8:	02e50733          	mul	a4,a0,a4
 4ec:	00e60633          	add	a2,a2,a4
 4f0:	00c68633          	add	a2,a3,a2
 4f4:	e8c43823          	sd	a2,-368(s0)
 4f8:	f6043603          	ld	a2,-160(s0)
 4fc:	02c585b3          	mul	a1,a1,a2
 500:	0000c603          	lbu	a2,0(ra)
 504:	03750533          	mul	a0,a0,s7
 508:	00a58533          	add	a0,a1,a0
 50c:	00a80533          	add	a0,a6,a0
 510:	e8a43c23          	sd	a0,-360(s0)
 514:	03861613          	slli	a2,a2,0x38
 518:	43865613          	srai	a2,a2,0x38
 51c:	03d60533          	mul	a0,a2,t4
 520:	f2843583          	ld	a1,-216(s0)
 524:	00b50533          	add	a0,a0,a1
 528:	03c605b3          	mul	a1,a2,t3
 52c:	f2043683          	ld	a3,-224(s0)
 530:	00d585b3          	add	a1,a1,a3
 534:	026606b3          	mul	a3,a2,t1
 538:	f1843703          	ld	a4,-232(s0)
 53c:	00e686b3          	add	a3,a3,a4
 540:	02560733          	mul	a4,a2,t0
 544:	f0843783          	ld	a5,-248(s0)
 548:	00f70733          	add	a4,a4,a5
 54c:	031607b3          	mul	a5,a2,a7
 550:	ef843803          	ld	a6,-264(s0)
 554:	010787b3          	add	a5,a5,a6
 558:	03e60833          	mul	a6,a2,t5
 55c:	ee843883          	ld	a7,-280(s0)
 560:	01180833          	add	a6,a6,a7
 564:	03f608b3          	mul	a7,a2,t6
 568:	000f8e93          	mv	t4,t6
 56c:	ea843383          	ld	t2,-344(s0)
 570:	007888b3          	add	a7,a7,t2
 574:	0010c383          	lbu	t2,1(ra)
 578:	03b60633          	mul	a2,a2,s11
 57c:	000d8293          	mv	t0,s11
 580:	ea043c03          	ld	s8,-352(s0)
 584:	01860633          	add	a2,a2,s8
 588:	00208c03          	lb	s8,2(ra)
 58c:	03839393          	slli	t2,t2,0x38
 590:	4383d393          	srai	t2,t2,0x38
 594:	f5043303          	ld	t1,-176(s0)
 598:	02638d33          	mul	s10,t2,t1
 59c:	033c0db3          	mul	s11,s8,s3
 5a0:	01bd0d33          	add	s10,s10,s11
 5a4:	01a50533          	add	a0,a0,s10
 5a8:	f2a43423          	sd	a0,-216(s0)
 5ac:	02938533          	mul	a0,t2,s1
 5b0:	f5843303          	ld	t1,-168(s0)
 5b4:	026c0d33          	mul	s10,s8,t1
 5b8:	01a50533          	add	a0,a0,s10
 5bc:	00a58533          	add	a0,a1,a0
 5c0:	f2a43023          	sd	a0,-224(s0)
 5c4:	f8043d03          	ld	s10,-128(s0)
 5c8:	03a38533          	mul	a0,t2,s10
 5cc:	032c05b3          	mul	a1,s8,s2
 5d0:	00b50533          	add	a0,a0,a1
 5d4:	00a68533          	add	a0,a3,a0
 5d8:	f0a43c23          	sd	a0,-232(s0)
 5dc:	f8843983          	ld	s3,-120(s0)
 5e0:	03338533          	mul	a0,t2,s3
 5e4:	035c05b3          	mul	a1,s8,s5
 5e8:	000a8d93          	mv	s11,s5
 5ec:	00b50533          	add	a0,a0,a1
 5f0:	00a70533          	add	a0,a4,a0
 5f4:	f0a43423          	sd	a0,-248(s0)
 5f8:	000a0f13          	mv	t5,s4
 5fc:	03438533          	mul	a0,t2,s4
 600:	f9043b83          	ld	s7,-112(s0)
 604:	037c05b3          	mul	a1,s8,s7
 608:	00b50533          	add	a0,a0,a1
 60c:	00a78533          	add	a0,a5,a0
 610:	eea43c23          	sd	a0,-264(s0)
 614:	f7843a83          	ld	s5,-136(s0)
 618:	03538533          	mul	a0,t2,s5
 61c:	f7043f83          	ld	t6,-144(s0)
 620:	03fc05b3          	mul	a1,s8,t6
 624:	00b50533          	add	a0,a0,a1
 628:	00a80533          	add	a0,a6,a0
 62c:	eea43423          	sd	a0,-280(s0)
 630:	03638533          	mul	a0,t2,s6
 634:	f6843a03          	ld	s4,-152(s0)
 638:	034c05b3          	mul	a1,s8,s4
 63c:	00b50533          	add	a0,a0,a1
 640:	00a88533          	add	a0,a7,a0
 644:	eaa43423          	sd	a0,-344(s0)
 648:	f6043e03          	ld	t3,-160(s0)
 64c:	03c38533          	mul	a0,t2,t3
 650:	0060c583          	lbu	a1,6(ra)
 654:	de843303          	ld	t1,-536(s0)
 658:	026c06b3          	mul	a3,s8,t1
 65c:	00d50533          	add	a0,a0,a3
 660:	00a60533          	add	a0,a2,a0
 664:	eaa43023          	sd	a0,-352(s0)
 668:	03859593          	slli	a1,a1,0x38
 66c:	4385d593          	srai	a1,a1,0x38
 670:	02558533          	mul	a0,a1,t0
 674:	03d58633          	mul	a2,a1,t4
 678:	f3843683          	ld	a3,-200(s0)
 67c:	02d586b3          	mul	a3,a1,a3
 680:	f4843703          	ld	a4,-184(s0)
 684:	02e58733          	mul	a4,a1,a4
 688:	f4043783          	ld	a5,-192(s0)
 68c:	02f587b3          	mul	a5,a1,a5
 690:	dd843803          	ld	a6,-552(s0)
 694:	03058833          	mul	a6,a1,a6
 698:	de043883          	ld	a7,-544(s0)
 69c:	031588b3          	mul	a7,a1,a7
 6a0:	df843283          	ld	t0,-520(s0)
 6a4:	025585b3          	mul	a1,a1,t0
 6a8:	e6843383          	ld	t2,-408(s0)
 6ac:	007585b3          	add	a1,a1,t2
 6b0:	e2843283          	ld	t0,-472(s0)
 6b4:	005888b3          	add	a7,a7,t0
 6b8:	e5043283          	ld	t0,-432(s0)
 6bc:	00580833          	add	a6,a6,t0
 6c0:	e8843283          	ld	t0,-376(s0)
 6c4:	005787b3          	add	a5,a5,t0
 6c8:	e7043383          	ld	t2,-400(s0)
 6cc:	00770733          	add	a4,a4,t2
 6d0:	0070c383          	lbu	t2,7(ra)
 6d4:	e3043283          	ld	t0,-464(s0)
 6d8:	005686b3          	add	a3,a3,t0
 6dc:	e6043e83          	ld	t4,-416(s0)
 6e0:	01d60633          	add	a2,a2,t4
 6e4:	e3843283          	ld	t0,-456(s0)
 6e8:	00550533          	add	a0,a0,t0
 6ec:	f4a43423          	sd	a0,-184(s0)
 6f0:	03839393          	slli	t2,t2,0x38
 6f4:	4383d393          	srai	t2,t2,0x38
 6f8:	f5043283          	ld	t0,-176(s0)
 6fc:	02538eb3          	mul	t4,t2,t0
 700:	02938933          	mul	s2,t2,s1
 704:	03a38533          	mul	a0,t2,s10
 708:	033389b3          	mul	s3,t2,s3
 70c:	03e38c33          	mul	s8,t2,t5
 710:	00808d03          	lb	s10,8(ra)
 714:	035382b3          	mul	t0,t2,s5
 718:	03638ab3          	mul	s5,t2,s6
 71c:	03c383b3          	mul	t2,t2,t3
 720:	026d0b33          	mul	s6,s10,t1
 724:	034d0a33          	mul	s4,s10,s4
 728:	03fd04b3          	mul	s1,s10,t6
 72c:	037d0bb3          	mul	s7,s10,s7
 730:	03bd0db3          	mul	s11,s10,s11
 734:	f3043303          	ld	t1,-208(s0)
 738:	026d0f33          	mul	t5,s10,t1
 73c:	f5843303          	ld	t1,-168(s0)
 740:	026d0fb3          	mul	t6,s10,t1
 744:	dd043303          	ld	t1,-560(s0)
 748:	026d0333          	mul	t1,s10,t1
 74c:	e4843d03          	ld	s10,-440(s0)
 750:	006e8333          	add	t1,t4,t1
 754:	00658333          	add	t1,a1,t1
 758:	01f90fb3          	add	t6,s2,t6
 75c:	eb043903          	ld	s2,-336(s0)
 760:	01f888b3          	add	a7,a7,t6
 764:	eb843f83          	ld	t6,-328(s0)
 768:	01e50e33          	add	t3,a0,t5
 76c:	01c80833          	add	a6,a6,t3
 770:	01b989b3          	add	s3,s3,s11
 774:	013787b3          	add	a5,a5,s3
 778:	e8f43423          	sd	a5,-376(s0)
 77c:	ed043983          	ld	s3,-304(s0)
 780:	017c0bb3          	add	s7,s8,s7
 784:	01770733          	add	a4,a4,s7
 788:	ec043f03          	ld	t5,-320(s0)
 78c:	009282b3          	add	t0,t0,s1
 790:	00568bb3          	add	s7,a3,t0
 794:	e4043683          	ld	a3,-448(s0)
 798:	014a8a33          	add	s4,s5,s4
 79c:	ec843e83          	ld	t4,-312(s0)
 7a0:	01460a33          	add	s4,a2,s4
 7a4:	e5843603          	ld	a2,-424(s0)
 7a8:	016383b3          	add	t2,t2,s6
 7ac:	f4843e03          	ld	t3,-184(s0)
 7b0:	007e0e33          	add	t3,t3,t2
 7b4:	e7843503          	ld	a0,-392(s0)
 7b8:	00308093          	addi	ra,ra,3
 7bc:	00150513          	addi	a0,a0,1
 7c0:	060c8c93          	addi	s9,s9,96
 7c4:	9e051ce3          	bnez	a0,1bc <.LBB2_5>
 7c8:	ee043c03          	ld	s8,-288(s0)
 7cc:	ee843783          	ld	a5,-280(s0)
 7d0:	ef043b03          	ld	s6,-272(s0)
 7d4:	ef843a83          	ld	s5,-264(s0)
 7d8:	f0043983          	ld	s3,-256(s0)
 7dc:	f1043903          	ld	s2,-240(s0)
 7e0:	f0843483          	ld	s1,-248(s0)
 7e4:	f1843f83          	ld	t6,-232(s0)
 7e8:	ed843283          	ld	t0,-296(s0)
 7ec:	f2043e83          	ld	t4,-224(s0)
 7f0:	f2843383          	ld	t2,-216(s0)
 7f4:	dc843583          	ld	a1,-568(s0)
 7f8:	00158593          	addi	a1,a1,1
 7fc:	db843083          	ld	ra,-584(s0)
 800:	2a308093          	addi	ra,ra,675
 804:	dc043c83          	ld	s9,-576(s0)
 808:	120c8c93          	addi	s9,s9,288
 80c:	00300513          	li	a0,3
 810:	94a59ee3          	bne	a1,a0,16c <.LBB2_4>
 814:	da843c83          	ld	s9,-600(s0)
 818:	002c9513          	slli	a0,s9,0x2
 81c:	d9843583          	ld	a1,-616(s0)
 820:	00a585b3          	add	a1,a1,a0
 824:	00d5a423          	sw	a3,8(a1)
 828:	ed043083          	ld	ra,-304(s0)
 82c:	0015a223          	sw	ra,4(a1)
 830:	ec843683          	ld	a3,-312(s0)
 834:	00d5a023          	sw	a3,0(a1)
 838:	00c5a623          	sw	a2,12(a1)
 83c:	01a5a823          	sw	s10,16(a1)
 840:	ec043603          	ld	a2,-320(s0)
 844:	00c5aa23          	sw	a2,20(a1)
 848:	eb843603          	ld	a2,-328(s0)
 84c:	00c5ac23          	sw	a2,24(a1)
 850:	eb043603          	ld	a2,-336(s0)
 854:	00c5ae23          	sw	a2,28(a1)
 858:	d9043583          	ld	a1,-624(s0)
 85c:	00a585b3          	add	a1,a1,a0
 860:	0125a423          	sw	s2,8(a1)
 864:	0055a223          	sw	t0,4(a1)
 868:	e8043603          	ld	a2,-384(s0)
 86c:	00c5a023          	sw	a2,0(a1)
 870:	0135a623          	sw	s3,12(a1)
 874:	0165a823          	sw	s6,16(a1)
 878:	0185aa23          	sw	s8,20(a1)
 87c:	e9043603          	ld	a2,-368(s0)
 880:	00c5ac23          	sw	a2,24(a1)
 884:	e9843603          	ld	a2,-360(s0)
 888:	00c5ae23          	sw	a2,28(a1)
 88c:	d8843583          	ld	a1,-632(s0)
 890:	00a585b3          	add	a1,a1,a0
 894:	01f5a423          	sw	t6,8(a1)
 898:	01d5a223          	sw	t4,4(a1)
 89c:	0075a023          	sw	t2,0(a1)
 8a0:	0095a623          	sw	s1,12(a1)
 8a4:	0155a823          	sw	s5,16(a1)
 8a8:	00f5aa23          	sw	a5,20(a1)
 8ac:	ea843603          	ld	a2,-344(s0)
 8b0:	00c5ac23          	sw	a2,24(a1)
 8b4:	ea043603          	ld	a2,-352(s0)
 8b8:	00c5ae23          	sw	a2,28(a1)
 8bc:	d8043583          	ld	a1,-640(s0)
 8c0:	00a58533          	add	a0,a1,a0
 8c4:	01052423          	sw	a6,8(a0)
 8c8:	01152223          	sw	a7,4(a0)
 8cc:	00652023          	sw	t1,0(a0)
 8d0:	e8843583          	ld	a1,-376(s0)
 8d4:	00b52623          	sw	a1,12(a0)
 8d8:	00e52823          	sw	a4,16(a0)
 8dc:	01752a23          	sw	s7,20(a0)
 8e0:	01452c23          	sw	s4,24(a0)
 8e4:	01c52e23          	sw	t3,28(a0)
 8e8:	008c8513          	addi	a0,s9,8
 8ec:	db043083          	ld	ra,-592(s0)
 8f0:	00808093          	addi	ra,ra,8
 8f4:	01800593          	li	a1,24
 8f8:	febce063          	bltu	s9,a1,d8 <.LBB2_3>
 8fc:	d7843603          	ld	a2,-648(s0)
 900:	00460593          	addi	a1,a2,4
 904:	da043503          	ld	a0,-608(s0)
 908:	01850513          	addi	a0,a0,24
 90c:	daa43023          	sd	a0,-608(s0)
 910:	06c00513          	li	a0,108
 914:	f8a66863          	bltu	a2,a0,a4 <.LBB2_2>
 918:	d6043703          	ld	a4,-672(s0)
 91c:	00170713          	addi	a4,a4,1
 920:	d5843683          	ld	a3,-680(s0)
 924:	54668693          	addi	a3,a3,1350
 928:	07000513          	li	a0,112
 92c:	f4a71863          	bne	a4,a0,7c <.LBB2_1>
 930:	00000513          	li	a0,0
 934:	2a813083          	ld	ra,680(sp)
 938:	2a013403          	ld	s0,672(sp)
 93c:	29813483          	ld	s1,664(sp)
 940:	29013903          	ld	s2,656(sp)
 944:	28813983          	ld	s3,648(sp)
 948:	28013a03          	ld	s4,640(sp)
 94c:	27813a83          	ld	s5,632(sp)
 950:	27013b03          	ld	s6,624(sp)
 954:	26813b83          	ld	s7,616(sp)
 958:	26013c03          	ld	s8,608(sp)
 95c:	25813c83          	ld	s9,600(sp)
 960:	25013d03          	ld	s10,592(sp)
 964:	24813d83          	ld	s11,584(sp)
 968:	2b010113          	addi	sp,sp,688
 96c:	00008067          	ret
