
code.o:     file format elf64-littleriscv


Disassembly of section .text.main_dispatch_109_depthwise_conv_2d_nhwc_hwc_1x7x7x576x3x3_i8xi8xi32:

0000000000000000 <main_dispatch_109_depthwise_conv_2d_nhwc_hwc_1x7x7x576x3x3_i8xi8xi32>:
   0:	cd010113          	addi	sp,sp,-816
   4:	32113423          	sd	ra,808(sp)
   8:	32813023          	sd	s0,800(sp)
   c:	30913c23          	sd	s1,792(sp)
  10:	31213823          	sd	s2,784(sp)
  14:	31313423          	sd	s3,776(sp)
  18:	31413023          	sd	s4,768(sp)
  1c:	2f513c23          	sd	s5,760(sp)
  20:	2f613823          	sd	s6,752(sp)
  24:	2f713423          	sd	s7,744(sp)
  28:	2f813023          	sd	s8,736(sp)
  2c:	2d913c23          	sd	s9,728(sp)
  30:	2da13823          	sd	s10,720(sp)
  34:	2db13423          	sd	s11,712(sp)
  38:	33010413          	addi	s0,sp,816
  3c:	0205b503          	ld	a0,32(a1)
  40:	00000b13          	li	s6,0
  44:	00000793          	li	a5,0
  48:	00053583          	ld	a1,0(a0)
  4c:	00025637          	lui	a2,0x25
  50:	f406061b          	addiw	a2,a2,-192 # 24f40 <.LBB60_4691+0x14>
  54:	00853683          	ld	a3,8(a0)
  58:	00c58833          	add	a6,a1,a2
  5c:	00006637          	lui	a2,0x6
  60:	5406061b          	addiw	a2,a2,1344 # 6540 <.LBB11_613>
  64:	00c68633          	add	a2,a3,a2
  68:	d0c43423          	sd	a2,-760(s0)
  6c:	01053503          	ld	a0,16(a0)
  70:	d0a43023          	sd	a0,-768(s0)
  74:	00026537          	lui	a0,0x26
  78:	f005061b          	addiw	a2,a0,-256 # 25f00 <.LBB63_4981+0x8>
  7c:	00c58333          	add	t1,a1,a2
  80:	00027637          	lui	a2,0x27
  84:	ec06061b          	addiw	a2,a2,-320 # 26ec0 <.LBB60_5134+0x4>
  88:	00c58e33          	add	t3,a1,a2
  8c:	8405061b          	addiw	a2,a0,-1984
  90:	00c584b3          	add	s1,a1,a2
  94:	a805061b          	addiw	a2,a0,-1408
  98:	00c58633          	add	a2,a1,a2
  9c:	d6c43c23          	sd	a2,-648(s0)
  a0:	cc05051b          	addiw	a0,a0,-832
  a4:	00a58533          	add	a0,a1,a0
  a8:	d6a43823          	sd	a0,-656(s0)
  ac:	00900513          	li	a0,9
  b0:	00951593          	slli	a1,a0,0x9
  b4:	ceb43c23          	sd	a1,-776(s0)
  b8:	01b00593          	li	a1,27
  bc:	00859613          	slli	a2,a1,0x8
  c0:	cec43823          	sd	a2,-784(s0)
  c4:	00a51513          	slli	a0,a0,0xa
  c8:	cea43423          	sd	a0,-792(s0)
  cc:	00003537          	lui	a0,0x3
  d0:	d005051b          	addiw	a0,a0,-768 # 2d00 <.LBB87_10>
  d4:	cea43023          	sd	a0,-800(s0)
  d8:	00959593          	slli	a1,a1,0x9
  dc:	ccb43c23          	sd	a1,-808(s0)
  e0:	00002537          	lui	a0,0x2
  e4:	1c05089b          	addiw	a7,a0,448 # 21c0 <.LBB28_4+0x4ac>
  e8:	00004537          	lui	a0,0x4
  ec:	3805051b          	addiw	a0,a0,896 # 4380 <.LBB101_150+0x4>
  f0:	cca43823          	sd	a0,-816(s0)
  f4:	db043023          	sd	a6,-608(s0)
  f8:	d8643c23          	sd	t1,-616(s0)
  fc:	d9c43823          	sd	t3,-624(s0)
 100:	d8943423          	sd	s1,-632(s0)
 104:	d9143023          	sd	a7,-640(s0)

0000000000000108 <.LBB83_1>:
 108:	00000513          	li	a0,0
 10c:	00879593          	slli	a1,a5,0x8
 110:	d0f43823          	sd	a5,-752(s0)
 114:	00e79613          	slli	a2,a5,0xe
 118:	40b60633          	sub	a2,a2,a1
 11c:	d0043583          	ld	a1,-768(s0)
 120:	00c58633          	add	a2,a1,a2
 124:	7ff60593          	addi	a1,a2,2047
 128:	10158593          	addi	a1,a1,257
 12c:	d4b43423          	sd	a1,-696(s0)
 130:	cf843583          	ld	a1,-776(s0)
 134:	00b605b3          	add	a1,a2,a1
 138:	d4b43023          	sd	a1,-704(s0)
 13c:	cf043583          	ld	a1,-784(s0)
 140:	00b605b3          	add	a1,a2,a1
 144:	d2b43c23          	sd	a1,-712(s0)
 148:	ce843583          	ld	a1,-792(s0)
 14c:	00b605b3          	add	a1,a2,a1
 150:	d2b43823          	sd	a1,-720(s0)
 154:	ce043583          	ld	a1,-800(s0)
 158:	00b605b3          	add	a1,a2,a1
 15c:	d2b43423          	sd	a1,-728(s0)
 160:	cd843583          	ld	a1,-808(s0)
 164:	d4c43823          	sd	a2,-688(s0)
 168:	00b605b3          	add	a1,a2,a1
 16c:	d2b43023          	sd	a1,-736(s0)
 170:	d0843083          	ld	ra,-760(s0)
 174:	d1643c23          	sd	s6,-744(s0)

0000000000000178 <.LBB83_2>:
 178:	f6043423          	sd	zero,-152(s0)
 17c:	f4043823          	sd	zero,-176(s0)
 180:	f2043c23          	sd	zero,-200(s0)
 184:	f4043423          	sd	zero,-184(s0)
 188:	00000c93          	li	s9,0
 18c:	f4043c23          	sd	zero,-168(s0)
 190:	f4043023          	sd	zero,-192(s0)
 194:	f6043023          	sd	zero,-160(s0)
 198:	00000293          	li	t0,0
 19c:	f6043c23          	sd	zero,-136(s0)
 1a0:	00000613          	li	a2,0
 1a4:	f8043023          	sd	zero,-128(s0)
 1a8:	f8043823          	sd	zero,-112(s0)
 1ac:	00000693          	li	a3,0
 1b0:	f6043823          	sd	zero,-144(s0)
 1b4:	00000793          	li	a5,0
 1b8:	00000d93          	li	s11,0
 1bc:	00000d13          	li	s10,0
 1c0:	f8043423          	sd	zero,-120(s0)
 1c4:	00000993          	li	s3,0
 1c8:	00000f13          	li	t5,0
 1cc:	00000a13          	li	s4,0
 1d0:	00000393          	li	t2,0
 1d4:	00000f93          	li	t6,0
 1d8:	00000913          	li	s2,0
 1dc:	00000e93          	li	t4,0
 1e0:	00000b93          	li	s7,0
 1e4:	00000a93          	li	s5,0
 1e8:	d4a43c23          	sd	a0,-680(s0)
 1ec:	ffd00513          	li	a0,-3
 1f0:	d6143423          	sd	ra,-664(s0)
 1f4:	d7643023          	sd	s6,-672(s0)

00000000000001f8 <.LBB83_3>:
 1f8:	eb543823          	sd	s5,-336(s0)
 1fc:	f2a43823          	sd	a0,-208(s0)
 200:	01680533          	add	a0,a6,s6
 204:	00350583          	lb	a1,3(a0)
 208:	00068c13          	mv	s8,a3
 20c:	000e8a93          	mv	s5,t4
 210:	00098e93          	mv	t4,s3
 214:	000d0993          	mv	s3,s10
 218:	00308d03          	lb	s10,3(ra)
 21c:	00250703          	lb	a4,2(a0)
 220:	000f8e13          	mv	t3,t6
 224:	00208f83          	lb	t6,2(ra)
 228:	02bd05b3          	mul	a1,s10,a1
 22c:	f4843683          	ld	a3,-184(s0)
 230:	00d585b3          	add	a1,a1,a3
 234:	f4b43423          	sd	a1,-184(s0)
 238:	02ef85b3          	mul	a1,t6,a4
 23c:	00150803          	lb	a6,1(a0)
 240:	00108883          	lb	a7,1(ra)
 244:	f3843683          	ld	a3,-200(s0)
 248:	00d585b3          	add	a1,a1,a3
 24c:	f2b43c23          	sd	a1,-200(s0)
 250:	00050583          	lb	a1,0(a0)
 254:	00008703          	lb	a4,0(ra)
 258:	03088833          	mul	a6,a7,a6
 25c:	f5043683          	ld	a3,-176(s0)
 260:	00d806b3          	add	a3,a6,a3
 264:	f4d43823          	sd	a3,-176(s0)
 268:	48050803          	lb	a6,1152(a0)
 26c:	eb043423          	sd	a6,-344(s0)
 270:	02b705b3          	mul	a1,a4,a1
 274:	f6843683          	ld	a3,-152(s0)
 278:	00d585b3          	add	a1,a1,a3
 27c:	f6b43423          	sd	a1,-152(s0)
 280:	48150683          	lb	a3,1153(a0)
 284:	ead43023          	sd	a3,-352(s0)
 288:	030705b3          	mul	a1,a4,a6
 28c:	019585b3          	add	a1,a1,s9
 290:	f2b43423          	sd	a1,-216(s0)
 294:	48250803          	lb	a6,1154(a0)
 298:	e1043023          	sd	a6,-512(s0)
 29c:	02d885b3          	mul	a1,a7,a3
 2a0:	f5843683          	ld	a3,-168(s0)
 2a4:	00d585b3          	add	a1,a1,a3
 2a8:	f4b43c23          	sd	a1,-168(s0)
 2ac:	00090c93          	mv	s9,s2
 2b0:	48350903          	lb	s2,1155(a0)
 2b4:	030f85b3          	mul	a1,t6,a6
 2b8:	f4043683          	ld	a3,-192(s0)
 2bc:	00d585b3          	add	a1,a1,a3
 2c0:	f4b43023          	sd	a1,-192(s0)
 2c4:	016485b3          	add	a1,s1,s6
 2c8:	00058483          	lb	s1,0(a1)
 2cc:	e8943823          	sd	s1,-368(s0)
 2d0:	032d0833          	mul	a6,s10,s2
 2d4:	f6043683          	ld	a3,-160(s0)
 2d8:	00d806b3          	add	a3,a6,a3
 2dc:	f6d43023          	sd	a3,-160(s0)
 2e0:	00158683          	lb	a3,1(a1)
 2e4:	e8d43c23          	sd	a3,-360(s0)
 2e8:	02970833          	mul	a6,a4,s1
 2ec:	00580833          	add	a6,a6,t0
 2f0:	f3043023          	sd	a6,-224(s0)
 2f4:	00258283          	lb	t0,2(a1)
 2f8:	e8543423          	sd	t0,-376(s0)
 2fc:	02d88833          	mul	a6,a7,a3
 300:	f7843683          	ld	a3,-136(s0)
 304:	00d806b3          	add	a3,a6,a3
 308:	f6d43c23          	sd	a3,-136(s0)
 30c:	00358683          	lb	a3,3(a1)
 310:	e6d43c23          	sd	a3,-392(s0)
 314:	025f85b3          	mul	a1,t6,t0
 318:	00c585b3          	add	a1,a1,a2
 31c:	f0b43c23          	sd	a1,-232(s0)
 320:	d7043583          	ld	a1,-656(s0)
 324:	016585b3          	add	a1,a1,s6
 328:	00058283          	lb	t0,0(a1)
 32c:	e8543023          	sd	t0,-384(s0)
 330:	02dd0633          	mul	a2,s10,a3
 334:	f8043683          	ld	a3,-128(s0)
 338:	00d60633          	add	a2,a2,a3
 33c:	f8c43023          	sd	a2,-128(s0)
 340:	00158803          	lb	a6,1(a1)
 344:	e7043423          	sd	a6,-408(s0)
 348:	02570633          	mul	a2,a4,t0
 34c:	f9043683          	ld	a3,-112(s0)
 350:	00d60633          	add	a2,a2,a3
 354:	f8c43823          	sd	a2,-112(s0)
 358:	00258683          	lb	a3,2(a1)
 35c:	e6d43823          	sd	a3,-400(s0)
 360:	03088633          	mul	a2,a7,a6
 364:	01860633          	add	a2,a2,s8
 368:	f0c43023          	sd	a2,-256(s0)
 36c:	00358803          	lb	a6,3(a1)
 370:	e3043c23          	sd	a6,-456(s0)
 374:	02df85b3          	mul	a1,t6,a3
 378:	f7043603          	ld	a2,-144(s0)
 37c:	00c585b3          	add	a1,a1,a2
 380:	f6b43823          	sd	a1,-144(s0)
 384:	016305b3          	add	a1,t1,s6
 388:	24058283          	lb	t0,576(a1)
 38c:	e4543c23          	sd	t0,-424(s0)
 390:	030d0633          	mul	a2,s10,a6
 394:	00f60633          	add	a2,a2,a5
 398:	eec43c23          	sd	a2,-264(s0)
 39c:	24158683          	lb	a3,577(a1)
 3a0:	e4d43823          	sd	a3,-432(s0)
 3a4:	02570633          	mul	a2,a4,t0
 3a8:	01b60633          	add	a2,a2,s11
 3ac:	eec43823          	sd	a2,-272(s0)
 3b0:	24258783          	lb	a5,578(a1)
 3b4:	e6f43023          	sd	a5,-416(s0)
 3b8:	02d88633          	mul	a2,a7,a3
 3bc:	01360633          	add	a2,a2,s3
 3c0:	eec43423          	sd	a2,-280(s0)
 3c4:	24358803          	lb	a6,579(a1)
 3c8:	e3043823          	sd	a6,-464(s0)
 3cc:	02ff8633          	mul	a2,t6,a5
 3d0:	f8843683          	ld	a3,-120(s0)
 3d4:	00d60633          	add	a2,a2,a3
 3d8:	f8c43423          	sd	a2,-120(s0)
 3dc:	6c058683          	lb	a3,1728(a1)
 3e0:	e4d43423          	sd	a3,-440(s0)
 3e4:	030d0633          	mul	a2,s10,a6
 3e8:	01d60633          	add	a2,a2,t4
 3ec:	eec43023          	sd	a2,-288(s0)
 3f0:	6c158783          	lb	a5,1729(a1)
 3f4:	e4f43023          	sd	a5,-448(s0)
 3f8:	02d70633          	mul	a2,a4,a3
 3fc:	01e60633          	add	a2,a2,t5
 400:	ecc43c23          	sd	a2,-296(s0)
 404:	6c258683          	lb	a3,1730(a1)
 408:	e2d43423          	sd	a3,-472(s0)
 40c:	02f88633          	mul	a2,a7,a5
 410:	01460633          	add	a2,a2,s4
 414:	ecc43823          	sd	a2,-304(s0)
 418:	6c358783          	lb	a5,1731(a1)
 41c:	e0f43423          	sd	a5,-504(s0)
 420:	02df8633          	mul	a2,t6,a3
 424:	00760633          	add	a2,a2,t2
 428:	ecc43423          	sd	a2,-312(s0)
 42c:	d9043a03          	ld	s4,-624(s0)
 430:	016a0a33          	add	s4,s4,s6
 434:	b80a0803          	lb	a6,-1152(s4)
 438:	e1043c23          	sd	a6,-488(s0)
 43c:	02fd0633          	mul	a2,s10,a5
 440:	01c60633          	add	a2,a2,t3
 444:	ecc43023          	sd	a2,-320(s0)
 448:	b81a0683          	lb	a3,-1151(s4)
 44c:	e0d43823          	sd	a3,-496(s0)
 450:	03070633          	mul	a2,a4,a6
 454:	b82a0703          	lb	a4,-1150(s4)
 458:	e2e43023          	sd	a4,-480(s0)
 45c:	01960633          	add	a2,a2,s9
 460:	f0c43823          	sd	a2,-240(s0)
 464:	02d88633          	mul	a2,a7,a3
 468:	01560633          	add	a2,a2,s5
 46c:	f0c43423          	sd	a2,-248(s0)
 470:	02ef8633          	mul	a2,t6,a4
 474:	b83a0483          	lb	s1,-1149(s4)
 478:	24050683          	lb	a3,576(a0)
 47c:	24008703          	lb	a4,576(ra)
 480:	01760633          	add	a2,a2,s7
 484:	eac43c23          	sd	a2,-328(s0)
 488:	029d0633          	mul	a2,s10,s1
 48c:	eb043783          	ld	a5,-336(s0)
 490:	00f60633          	add	a2,a2,a5
 494:	eac43823          	sd	a2,-336(s0)
 498:	02d70fb3          	mul	t6,a4,a3
 49c:	6c050603          	lb	a2,1728(a0)
 4a0:	d7843803          	ld	a6,-648(s0)
 4a4:	01680833          	add	a6,a6,s6
 4a8:	00080683          	lb	a3,0(a6)
 4ac:	00058783          	lb	a5,0(a1)
 4b0:	48058883          	lb	a7,1152(a1)
 4b4:	02c70633          	mul	a2,a4,a2
 4b8:	dac43423          	sd	a2,-600(s0)
 4bc:	02d70633          	mul	a2,a4,a3
 4c0:	dac43c23          	sd	a2,-584(s0)
 4c4:	02f70633          	mul	a2,a4,a5
 4c8:	dcc43423          	sd	a2,-568(s0)
 4cc:	03170633          	mul	a2,a4,a7
 4d0:	dec43023          	sd	a2,-544(s0)
 4d4:	24150603          	lb	a2,577(a0)
 4d8:	940a0683          	lb	a3,-1728(s4)
 4dc:	dc0a0783          	lb	a5,-576(s4)
 4e0:	24108883          	lb	a7,577(ra)
 4e4:	6c150303          	lb	t1,1729(a0)
 4e8:	02d706b3          	mul	a3,a4,a3
 4ec:	ded43423          	sd	a3,-536(s0)
 4f0:	02f706b3          	mul	a3,a4,a5
 4f4:	ded43c23          	sd	a3,-520(s0)
 4f8:	02c887b3          	mul	a5,a7,a2
 4fc:	026882b3          	mul	t0,a7,t1
 500:	00180703          	lb	a4,1(a6)
 504:	00158303          	lb	t1,1(a1)
 508:	48158e03          	lb	t3,1153(a1)
 50c:	941a0e83          	lb	t4,-1727(s4)
 510:	02e883b3          	mul	t2,a7,a4
 514:	02688d33          	mul	s10,a7,t1
 518:	03c88633          	mul	a2,a7,t3
 51c:	dcc43023          	sd	a2,-576(s0)
 520:	03d88633          	mul	a2,a7,t4
 524:	dcc43823          	sd	a2,-560(s0)
 528:	24250703          	lb	a4,578(a0)
 52c:	dc1a0e03          	lb	t3,-575(s4)
 530:	24208e83          	lb	t4,578(ra)
 534:	6c250983          	lb	s3,1730(a0)
 538:	00280a83          	lb	s5,2(a6)
 53c:	03c88633          	mul	a2,a7,t3
 540:	dec43823          	sd	a2,-528(s0)
 544:	02ee8633          	mul	a2,t4,a4
 548:	033e86b3          	mul	a3,t4,s3
 54c:	035e8333          	mul	t1,t4,s5
 550:	00258883          	lb	a7,2(a1)
 554:	48258e03          	lb	t3,1154(a1)
 558:	942a0a83          	lb	s5,-1726(s4)
 55c:	dc2a0c83          	lb	s9,-574(s4)
 560:	031e89b3          	mul	s3,t4,a7
 564:	03ce8733          	mul	a4,t4,t3
 568:	dae43823          	sd	a4,-592(s0)
 56c:	035e8ab3          	mul	s5,t4,s5
 570:	039e8733          	mul	a4,t4,s9
 574:	dce43c23          	sd	a4,-552(s0)
 578:	24350883          	lb	a7,579(a0)
 57c:	6c350503          	lb	a0,1731(a0)
 580:	24308c83          	lb	s9,579(ra)
 584:	00380803          	lb	a6,3(a6)
 588:	00358e83          	lb	t4,3(a1)
 58c:	48358583          	lb	a1,1155(a1)
 590:	031c8db3          	mul	s11,s9,a7
 594:	02ac8533          	mul	a0,s9,a0
 598:	030c8733          	mul	a4,s9,a6
 59c:	03dc8833          	mul	a6,s9,t4
 5a0:	943a0883          	lb	a7,-1725(s4)
 5a4:	dc3a0c03          	lb	s8,-573(s4)
 5a8:	02bc8e33          	mul	t3,s9,a1
 5ac:	48308583          	lb	a1,1155(ra)
 5b0:	031c8eb3          	mul	t4,s9,a7
 5b4:	038c8c33          	mul	s8,s9,s8
 5b8:	48208883          	lb	a7,1154(ra)
 5bc:	03258933          	mul	s2,a1,s2
 5c0:	012d8933          	add	s2,s11,s2
 5c4:	f4843f03          	ld	t5,-184(s0)
 5c8:	012f0933          	add	s2,t5,s2
 5cc:	f5243423          	sd	s2,-184(s0)
 5d0:	e0043f03          	ld	t5,-512(s0)
 5d4:	03e88bb3          	mul	s7,a7,t5
 5d8:	48108903          	lb	s2,1153(ra)
 5dc:	01760633          	add	a2,a2,s7
 5e0:	f3843f03          	ld	t5,-200(s0)
 5e4:	00cf0633          	add	a2,t5,a2
 5e8:	f2c43c23          	sd	a2,-200(s0)
 5ec:	48008b83          	lb	s7,1152(ra)
 5f0:	ea043603          	ld	a2,-352(s0)
 5f4:	02c90633          	mul	a2,s2,a2
 5f8:	00c78633          	add	a2,a5,a2
 5fc:	f5043783          	ld	a5,-176(s0)
 600:	00c78633          	add	a2,a5,a2
 604:	f4c43823          	sd	a2,-176(s0)
 608:	ea843603          	ld	a2,-344(s0)
 60c:	02cb8633          	mul	a2,s7,a2
 610:	00cf8633          	add	a2,t6,a2
 614:	f6843783          	ld	a5,-152(s0)
 618:	00c78633          	add	a2,a5,a2
 61c:	f6c43423          	sd	a2,-152(s0)
 620:	e9043603          	ld	a2,-368(s0)
 624:	02cb8633          	mul	a2,s7,a2
 628:	da843783          	ld	a5,-600(s0)
 62c:	00c78633          	add	a2,a5,a2
 630:	f2843c83          	ld	s9,-216(s0)
 634:	00cc8cb3          	add	s9,s9,a2
 638:	e9843603          	ld	a2,-360(s0)
 63c:	02c90633          	mul	a2,s2,a2
 640:	00c28633          	add	a2,t0,a2
 644:	f5843783          	ld	a5,-168(s0)
 648:	00c78633          	add	a2,a5,a2
 64c:	f4c43c23          	sd	a2,-168(s0)
 650:	e8843603          	ld	a2,-376(s0)
 654:	02c88633          	mul	a2,a7,a2
 658:	00c68633          	add	a2,a3,a2
 65c:	f4043683          	ld	a3,-192(s0)
 660:	00c68633          	add	a2,a3,a2
 664:	f4c43023          	sd	a2,-192(s0)
 668:	e7843603          	ld	a2,-392(s0)
 66c:	02c58633          	mul	a2,a1,a2
 670:	00c50533          	add	a0,a0,a2
 674:	f6043603          	ld	a2,-160(s0)
 678:	00a60533          	add	a0,a2,a0
 67c:	f6a43023          	sd	a0,-160(s0)
 680:	e8043503          	ld	a0,-384(s0)
 684:	02ab8533          	mul	a0,s7,a0
 688:	db843603          	ld	a2,-584(s0)
 68c:	00a60533          	add	a0,a2,a0
 690:	f2043283          	ld	t0,-224(s0)
 694:	00a282b3          	add	t0,t0,a0
 698:	e6843503          	ld	a0,-408(s0)
 69c:	02a90533          	mul	a0,s2,a0
 6a0:	00a38533          	add	a0,t2,a0
 6a4:	f7843603          	ld	a2,-136(s0)
 6a8:	00a60533          	add	a0,a2,a0
 6ac:	f6a43c23          	sd	a0,-136(s0)
 6b0:	e7043503          	ld	a0,-400(s0)
 6b4:	02a88533          	mul	a0,a7,a0
 6b8:	00a30533          	add	a0,t1,a0
 6bc:	f1843603          	ld	a2,-232(s0)
 6c0:	00a60633          	add	a2,a2,a0
 6c4:	e3843503          	ld	a0,-456(s0)
 6c8:	02a58533          	mul	a0,a1,a0
 6cc:	00a70533          	add	a0,a4,a0
 6d0:	f8043683          	ld	a3,-128(s0)
 6d4:	00a68533          	add	a0,a3,a0
 6d8:	f8a43023          	sd	a0,-128(s0)
 6dc:	e5843503          	ld	a0,-424(s0)
 6e0:	02ab8533          	mul	a0,s7,a0
 6e4:	dc843683          	ld	a3,-568(s0)
 6e8:	00a68533          	add	a0,a3,a0
 6ec:	f9043683          	ld	a3,-112(s0)
 6f0:	00a68533          	add	a0,a3,a0
 6f4:	f8a43823          	sd	a0,-112(s0)
 6f8:	e5043503          	ld	a0,-432(s0)
 6fc:	02a90533          	mul	a0,s2,a0
 700:	00ad0533          	add	a0,s10,a0
 704:	f0043683          	ld	a3,-256(s0)
 708:	00a686b3          	add	a3,a3,a0
 70c:	e6043503          	ld	a0,-416(s0)
 710:	02a88533          	mul	a0,a7,a0
 714:	00a98533          	add	a0,s3,a0
 718:	f7043703          	ld	a4,-144(s0)
 71c:	00a70533          	add	a0,a4,a0
 720:	f6a43823          	sd	a0,-144(s0)
 724:	e3043503          	ld	a0,-464(s0)
 728:	02a58533          	mul	a0,a1,a0
 72c:	00a80533          	add	a0,a6,a0
 730:	ef843783          	ld	a5,-264(s0)
 734:	00a787b3          	add	a5,a5,a0
 738:	e4843503          	ld	a0,-440(s0)
 73c:	02ab8533          	mul	a0,s7,a0
 740:	de043703          	ld	a4,-544(s0)
 744:	00a70533          	add	a0,a4,a0
 748:	ef043d83          	ld	s11,-272(s0)
 74c:	00ad8db3          	add	s11,s11,a0
 750:	e4043503          	ld	a0,-448(s0)
 754:	02a90533          	mul	a0,s2,a0
 758:	dc043703          	ld	a4,-576(s0)
 75c:	00a70533          	add	a0,a4,a0
 760:	ee843d03          	ld	s10,-280(s0)
 764:	00ad0d33          	add	s10,s10,a0
 768:	e2843503          	ld	a0,-472(s0)
 76c:	02a88533          	mul	a0,a7,a0
 770:	db043703          	ld	a4,-592(s0)
 774:	00a70533          	add	a0,a4,a0
 778:	f8843703          	ld	a4,-120(s0)
 77c:	00a70533          	add	a0,a4,a0
 780:	f8a43423          	sd	a0,-120(s0)
 784:	e0843503          	ld	a0,-504(s0)
 788:	02a58533          	mul	a0,a1,a0
 78c:	00ae0533          	add	a0,t3,a0
 790:	ee043983          	ld	s3,-288(s0)
 794:	00a989b3          	add	s3,s3,a0
 798:	e1843503          	ld	a0,-488(s0)
 79c:	02ab8533          	mul	a0,s7,a0
 7a0:	de843703          	ld	a4,-536(s0)
 7a4:	00a70533          	add	a0,a4,a0
 7a8:	ed843f03          	ld	t5,-296(s0)
 7ac:	00af0f33          	add	t5,t5,a0
 7b0:	e1043503          	ld	a0,-496(s0)
 7b4:	02a90533          	mul	a0,s2,a0
 7b8:	dd043703          	ld	a4,-560(s0)
 7bc:	00a70533          	add	a0,a4,a0
 7c0:	ed043e03          	ld	t3,-304(s0)
 7c4:	00ae0e33          	add	t3,t3,a0
 7c8:	e2043503          	ld	a0,-480(s0)
 7cc:	02a88533          	mul	a0,a7,a0
 7d0:	00aa8533          	add	a0,s5,a0
 7d4:	ec843383          	ld	t2,-312(s0)
 7d8:	00a383b3          	add	t2,t2,a0
 7dc:	02958533          	mul	a0,a1,s1
 7e0:	00ae8533          	add	a0,t4,a0
 7e4:	d8843483          	ld	s1,-632(s0)
 7e8:	ec043f83          	ld	t6,-320(s0)
 7ec:	00af8fb3          	add	t6,t6,a0
 7f0:	003a0503          	lb	a0,3(s4)
 7f4:	002a0703          	lb	a4,2(s4)
 7f8:	001a0803          	lb	a6,1(s4)
 7fc:	000a0303          	lb	t1,0(s4)
 800:	000e0a13          	mv	s4,t3
 804:	02a58533          	mul	a0,a1,a0
 808:	02e885b3          	mul	a1,a7,a4
 80c:	d8043883          	ld	a7,-640(s0)
 810:	03090733          	mul	a4,s2,a6
 814:	026b8833          	mul	a6,s7,t1
 818:	d9843303          	ld	t1,-616(s0)
 81c:	df843e83          	ld	t4,-520(s0)
 820:	010e8833          	add	a6,t4,a6
 824:	f1043903          	ld	s2,-240(s0)
 828:	01090933          	add	s2,s2,a6
 82c:	da043803          	ld	a6,-608(s0)
 830:	df043e83          	ld	t4,-528(s0)
 834:	00ee8733          	add	a4,t4,a4
 838:	f0843e83          	ld	t4,-248(s0)
 83c:	00ee8eb3          	add	t4,t4,a4
 840:	dd843703          	ld	a4,-552(s0)
 844:	00b705b3          	add	a1,a4,a1
 848:	eb843b83          	ld	s7,-328(s0)
 84c:	00bb8bb3          	add	s7,s7,a1
 850:	00ac0533          	add	a0,s8,a0
 854:	eb043a83          	ld	s5,-336(s0)
 858:	00aa8ab3          	add	s5,s5,a0
 85c:	f3043503          	ld	a0,-208(s0)
 860:	011b0b33          	add	s6,s6,a7
 864:	00150513          	addi	a0,a0,1
 868:	6c008093          	addi	ra,ra,1728
 86c:	980516e3          	bnez	a0,1f8 <.LBB83_3>
 870:	d5843703          	ld	a4,-680(s0)
 874:	00271513          	slli	a0,a4,0x2
 878:	d5043583          	ld	a1,-688(s0)
 87c:	00a585b3          	add	a1,a1,a0
 880:	f3843b03          	ld	s6,-200(s0)
 884:	0165a423          	sw	s6,8(a1)
 888:	f5043b03          	ld	s6,-176(s0)
 88c:	0165a223          	sw	s6,4(a1)
 890:	f6843b03          	ld	s6,-152(s0)
 894:	0165a023          	sw	s6,0(a1)
 898:	f4843b03          	ld	s6,-184(s0)
 89c:	0165a623          	sw	s6,12(a1)
 8a0:	d4843583          	ld	a1,-696(s0)
 8a4:	00a585b3          	add	a1,a1,a0
 8a8:	f4043b03          	ld	s6,-192(s0)
 8ac:	0165a423          	sw	s6,8(a1)
 8b0:	f5843b03          	ld	s6,-168(s0)
 8b4:	0165a223          	sw	s6,4(a1)
 8b8:	0195a023          	sw	s9,0(a1)
 8bc:	f6043b03          	ld	s6,-160(s0)
 8c0:	0165a623          	sw	s6,12(a1)
 8c4:	d4043583          	ld	a1,-704(s0)
 8c8:	00a585b3          	add	a1,a1,a0
 8cc:	00c5a423          	sw	a2,8(a1)
 8d0:	f7843603          	ld	a2,-136(s0)
 8d4:	00c5a223          	sw	a2,4(a1)
 8d8:	0055a023          	sw	t0,0(a1)
 8dc:	f8043603          	ld	a2,-128(s0)
 8e0:	00c5a623          	sw	a2,12(a1)
 8e4:	d3843583          	ld	a1,-712(s0)
 8e8:	00a585b3          	add	a1,a1,a0
 8ec:	f7043603          	ld	a2,-144(s0)
 8f0:	00c5a423          	sw	a2,8(a1)
 8f4:	00d5a223          	sw	a3,4(a1)
 8f8:	f9043603          	ld	a2,-112(s0)
 8fc:	00c5a023          	sw	a2,0(a1)
 900:	00f5a623          	sw	a5,12(a1)
 904:	d3043583          	ld	a1,-720(s0)
 908:	00a585b3          	add	a1,a1,a0
 90c:	f8843603          	ld	a2,-120(s0)
 910:	00c5a423          	sw	a2,8(a1)
 914:	01a5a223          	sw	s10,4(a1)
 918:	01b5a023          	sw	s11,0(a1)
 91c:	0135a623          	sw	s3,12(a1)
 920:	d2843583          	ld	a1,-728(s0)
 924:	00a585b3          	add	a1,a1,a0
 928:	0075a423          	sw	t2,8(a1)
 92c:	0145a223          	sw	s4,4(a1)
 930:	01e5a023          	sw	t5,0(a1)
 934:	01f5a623          	sw	t6,12(a1)
 938:	d2043583          	ld	a1,-736(s0)
 93c:	00a58533          	add	a0,a1,a0
 940:	01752423          	sw	s7,8(a0)
 944:	01d52223          	sw	t4,4(a0)
 948:	01252023          	sw	s2,0(a0)
 94c:	01552623          	sw	s5,12(a0)
 950:	00470513          	addi	a0,a4,4
 954:	d6043b03          	ld	s6,-672(s0)
 958:	004b0b13          	addi	s6,s6,4
 95c:	d6843083          	ld	ra,-664(s0)
 960:	00408093          	addi	ra,ra,4
 964:	23c00593          	li	a1,572
 968:	80b768e3          	bltu	a4,a1,178 <.LBB83_2>
 96c:	d1043783          	ld	a5,-752(s0)
 970:	00178793          	addi	a5,a5,1
 974:	d1843b03          	ld	s6,-744(s0)
 978:	cd043503          	ld	a0,-816(s0)
 97c:	00ab0b33          	add	s6,s6,a0
 980:	00700513          	li	a0,7
 984:	f8a79263          	bne	a5,a0,108 <.LBB83_1>
 988:	00000513          	li	a0,0
 98c:	32813083          	ld	ra,808(sp)
 990:	32013403          	ld	s0,800(sp)
 994:	31813483          	ld	s1,792(sp)
 998:	31013903          	ld	s2,784(sp)
 99c:	30813983          	ld	s3,776(sp)
 9a0:	30013a03          	ld	s4,768(sp)
 9a4:	2f813a83          	ld	s5,760(sp)
 9a8:	2f013b03          	ld	s6,752(sp)
 9ac:	2e813b83          	ld	s7,744(sp)
 9b0:	2e013c03          	ld	s8,736(sp)
 9b4:	2d813c83          	ld	s9,728(sp)
 9b8:	2d013d03          	ld	s10,720(sp)
 9bc:	2c813d83          	ld	s11,712(sp)
 9c0:	33010113          	addi	sp,sp,816
 9c4:	00008067          	ret
