
code.o:     file format elf64-littleriscv


Disassembly of section .text.main_dispatch_137_matmul_49x320x960_i8xi8xi32:

0000000000000000 <main_dispatch_137_matmul_49x320x960_i8xi8xi32>:
       0:	f1501173          	csrrw	sp,0xf15,zero

0000000000000004 <.Lfunc_begin101>:
       4:	81010113          	addi	sp,sp,-2032
       8:	7e113423          	sd	ra,2024(sp)
       c:	7e813023          	sd	s0,2016(sp)
      10:	7c913c23          	sd	s1,2008(sp)
      14:	7d213823          	sd	s2,2000(sp)
      18:	7d313423          	sd	s3,1992(sp)
      1c:	7d413023          	sd	s4,1984(sp)
      20:	7b513c23          	sd	s5,1976(sp)
      24:	7b613823          	sd	s6,1968(sp)
      28:	7b713423          	sd	s7,1960(sp)
      2c:	7b813023          	sd	s8,1952(sp)
      30:	79913c23          	sd	s9,1944(sp)
      34:	79a13823          	sd	s10,1936(sp)
      38:	79b13423          	sd	s11,1928(sp)
      3c:	7f010413          	addi	s0,sp,2032
      40:	80010113          	addi	sp,sp,-2048
      44:	b1010113          	addi	sp,sp,-1264
      48:	0205b583          	ld	a1,32(a1)
      4c:	00000513          	li	a0,0
      50:	0085b603          	ld	a2,8(a1)
      54:	0005b703          	ld	a4,0(a1)
      58:	001886b7          	lui	a3,0x188
      5c:	e806869b          	addiw	a3,a3,-384 # 187e80 <.Lfunc_end80+0x15f4b4>
      60:	00d60333          	add	t1,a2,a3
      64:	000116b7          	lui	a3,0x11
      68:	f806869b          	addiw	a3,a3,-128 # 10f80 <.LBB45_1952+0x10>
      6c:	00d606b3          	add	a3,a2,a3
      70:	000017b7          	lui	a5,0x1
      74:	40f407b3          	sub	a5,s0,a5
      78:	bad7b023          	sd	a3,-1120(a5) # ba0 <.LBB101_3+0x948>
      7c:	0000b6b7          	lui	a3,0xb
      80:	7c06869b          	addiw	a3,a3,1984 # b7c0 <.LBB101_1410+0x4>
      84:	00d706b3          	add	a3,a4,a3
      88:	000017b7          	lui	a5,0x1
      8c:	40f407b3          	sub	a5,s0,a5
      90:	b2d7bc23          	sd	a3,-1224(a5) # b38 <.LBB101_3+0x8e0>
      94:	001d36b7          	lui	a3,0x1d3
      98:	e806869b          	addiw	a3,a3,-384 # 1d2e80 <.Lfunc_end80+0x1aa4b4>
      9c:	0105b583          	ld	a1,16(a1)
      a0:	00d60633          	add	a2,a2,a3
      a4:	000016b7          	lui	a3,0x1
      a8:	40d406b3          	sub	a3,s0,a3
      ac:	b8c6bc23          	sd	a2,-1128(a3) # b98 <.LBB101_3+0x940>
      b0:	0000c637          	lui	a2,0xc
      b4:	8c06061b          	addiw	a2,a2,-1856 # b8c0 <.LBB101_1426+0x4>
      b8:	00c585b3          	add	a1,a1,a2
      bc:	00001637          	lui	a2,0x1
      c0:	40c40633          	sub	a2,s0,a2
      c4:	b4b63423          	sd	a1,-1208(a2) # b48 <.LBB101_3+0x8f0>
      c8:	000015b7          	lui	a1,0x1
      cc:	6805859b          	addiw	a1,a1,1664 # 1680 <.LBB101_5+0x22c>
      d0:	00001637          	lui	a2,0x1
      d4:	40c40633          	sub	a2,s0,a2
      d8:	66b63023          	sd	a1,1632(a2) # 1660 <.LBB101_5+0x20c>
      dc:	699b05b7          	lui	a1,0x699b0
      e0:	b425859b          	addiw	a1,a1,-1214 # 699afb42 <.Lfunc_end80+0x69987176>
      e4:	00001637          	lui	a2,0x1
      e8:	40c40633          	sub	a2,s0,a2
      ec:	66b63423          	sd	a1,1640(a2) # 1668 <.LBB101_5+0x214>
      f0:	00100593          	li	a1,1
      f4:	02759593          	slli	a1,a1,0x27
      f8:	e6b43023          	sd	a1,-416(s0)
      fc:	00f00593          	li	a1,15
     100:	00959593          	slli	a1,a1,0x9
     104:	00001637          	lui	a2,0x1
     108:	40c40633          	sub	a2,s0,a2
     10c:	b2b63823          	sd	a1,-1232(a2) # b30 <.LBB101_3+0x8d8>
     110:	000015b7          	lui	a1,0x1
     114:	40b405b3          	sub	a1,s0,a1
     118:	b2e5b423          	sd	a4,-1240(a1) # b28 <.LBB101_3+0x8d0>
     11c:	000015b7          	lui	a1,0x1
     120:	40b405b3          	sub	a1,s0,a1
     124:	bae5b423          	sd	a4,-1112(a1) # ba8 <.LBB101_3+0x950>
     128:	000015b7          	lui	a1,0x1
     12c:	40b405b3          	sub	a1,s0,a1
     130:	b465b823          	sd	t1,-1200(a1) # b50 <.LBB101_3+0x8f8>
     134:	0540006f          	j	188 <.LBB101_2>

0000000000000138 <.LBB101_1>:
     138:	00001537          	lui	a0,0x1
     13c:	40a40533          	sub	a0,s0,a0
     140:	b4053683          	ld	a3,-1216(a0) # b40 <.LBB101_3+0x8e8>
     144:	00868513          	addi	a0,a3,8
     148:	000015b7          	lui	a1,0x1
     14c:	40b405b3          	sub	a1,s0,a1
     150:	b305b583          	ld	a1,-1232(a1) # b30 <.LBB101_3+0x8d8>
     154:	00001637          	lui	a2,0x1
     158:	40c40633          	sub	a2,s0,a2
     15c:	ba863603          	ld	a2,-1112(a2) # ba8 <.LBB101_3+0x950>
     160:	00b60633          	add	a2,a2,a1
     164:	000015b7          	lui	a1,0x1
     168:	40b405b3          	sub	a1,s0,a1
     16c:	bac5b423          	sd	a2,-1112(a1) # ba8 <.LBB101_3+0x950>
     170:	000015b7          	lui	a1,0x1
     174:	40b405b3          	sub	a1,s0,a1
     178:	b505b303          	ld	t1,-1200(a1) # b50 <.LBB101_3+0x8f8>
     17c:	02800593          	li	a1,40
     180:	00b6e463          	bltu	a3,a1,188 <.LBB101_2>
     184:	5bd0b06f          	j	bf40 <.LBB101_1542>

0000000000000188 <.LBB101_2>:
     188:	00000593          	li	a1,0
     18c:	00050693          	mv	a3,a0
     190:	00251513          	slli	a0,a0,0x2
     194:	00001637          	lui	a2,0x1
     198:	40c40633          	sub	a2,s0,a2
     19c:	b3863603          	ld	a2,-1224(a2) # b38 <.LBB101_3+0x8e0>
     1a0:	00a60533          	add	a0,a2,a0
     1a4:	00001637          	lui	a2,0x1
     1a8:	40c40633          	sub	a2,s0,a2
     1ac:	64a63823          	sd	a0,1616(a2) # 1650 <.LBB101_5+0x1fc>
     1b0:	14000513          	li	a0,320
     1b4:	00001637          	lui	a2,0x1
     1b8:	40c40633          	sub	a2,s0,a2
     1bc:	b4d63023          	sd	a3,-1216(a2) # b40 <.LBB101_3+0x8e8>
     1c0:	02a68533          	mul	a0,a3,a0
     1c4:	00001637          	lui	a2,0x1
     1c8:	40c40633          	sub	a2,s0,a2
     1cc:	b4863603          	ld	a2,-1208(a2) # b48 <.LBB101_3+0x8f0>
     1d0:	00a60533          	add	a0,a2,a0
     1d4:	14050613          	addi	a2,a0,320
     1d8:	000016b7          	lui	a3,0x1
     1dc:	40d406b3          	sub	a3,s0,a3
     1e0:	b8c6b423          	sd	a2,-1144(a3) # b88 <.LBB101_3+0x930>
     1e4:	28050613          	addi	a2,a0,640
     1e8:	000016b7          	lui	a3,0x1
     1ec:	40d406b3          	sub	a3,s0,a3
     1f0:	b8c6b023          	sd	a2,-1152(a3) # b80 <.LBB101_3+0x928>
     1f4:	3c050613          	addi	a2,a0,960
     1f8:	000016b7          	lui	a3,0x1
     1fc:	40d406b3          	sub	a3,s0,a3
     200:	b6c6bc23          	sd	a2,-1160(a3) # b78 <.LBB101_3+0x920>
     204:	50050613          	addi	a2,a0,1280
     208:	000016b7          	lui	a3,0x1
     20c:	40d406b3          	sub	a3,s0,a3
     210:	b6c6b823          	sd	a2,-1168(a3) # b70 <.LBB101_3+0x918>
     214:	64050613          	addi	a2,a0,1600
     218:	000016b7          	lui	a3,0x1
     21c:	40d406b3          	sub	a3,s0,a3
     220:	b6c6b423          	sd	a2,-1176(a3) # b68 <.LBB101_3+0x910>
     224:	78050613          	addi	a2,a0,1920
     228:	000016b7          	lui	a3,0x1
     22c:	40d406b3          	sub	a3,s0,a3
     230:	b6c6b023          	sd	a2,-1184(a3) # b60 <.LBB101_3+0x908>
     234:	00001637          	lui	a2,0x1
     238:	40c40633          	sub	a2,s0,a2
     23c:	b8a63823          	sd	a0,-1136(a2) # b90 <.LBB101_3+0x938>
     240:	7ff50513          	addi	a0,a0,2047
     244:	0c150513          	addi	a0,a0,193
     248:	00001637          	lui	a2,0x1
     24c:	40c40633          	sub	a2,s0,a2
     250:	b4a63c23          	sd	a0,-1192(a2) # b58 <.LBB101_3+0x900>
     254:	45d0006f          	j	eb0 <.LBB101_4>

0000000000000258 <.LBB101_3>:
     258:	94143823          	sd	ra,-1712(s0)
     25c:	d6043903          	ld	s2,-672(s0)
     260:	00290913          	addi	s2,s2,2
     264:	00001eb7          	lui	t4,0x1
     268:	41d40eb3          	sub	t4,s0,t4
     26c:	b90eb083          	ld	ra,-1136(t4) # b90 <.LBB101_3+0x938>
     270:	00001eb7          	lui	t4,0x1
     274:	41d40eb3          	sub	t4,s0,t4
     278:	658ebe83          	ld	t4,1624(t4) # 1658 <.LBB101_5+0x204>
     27c:	01d080b3          	add	ra,ra,t4
     280:	012081a3          	sb	s2,3(ra)
     284:	e4843903          	ld	s2,-440(s0)
     288:	00290913          	addi	s2,s2,2
     28c:	01208123          	sb	s2,2(ra)
     290:	e5843903          	ld	s2,-424(s0)
     294:	00290913          	addi	s2,s2,2
     298:	012080a3          	sb	s2,1(ra)
     29c:	e7043903          	ld	s2,-400(s0)
     2a0:	00290913          	addi	s2,s2,2
     2a4:	01208023          	sb	s2,0(ra)
     2a8:	e8043903          	ld	s2,-384(s0)
     2ac:	00290913          	addi	s2,s2,2
     2b0:	01208223          	sb	s2,4(ra)
     2b4:	e9043903          	ld	s2,-368(s0)
     2b8:	00290913          	addi	s2,s2,2
     2bc:	012082a3          	sb	s2,5(ra)
     2c0:	ea043903          	ld	s2,-352(s0)
     2c4:	00290913          	addi	s2,s2,2
     2c8:	01208323          	sb	s2,6(ra)
     2cc:	eb043903          	ld	s2,-336(s0)
     2d0:	00290913          	addi	s2,s2,2
     2d4:	012083a3          	sb	s2,7(ra)
     2d8:	ec043903          	ld	s2,-320(s0)
     2dc:	00290913          	addi	s2,s2,2
     2e0:	01208423          	sb	s2,8(ra)
     2e4:	ed043903          	ld	s2,-304(s0)
     2e8:	00290913          	addi	s2,s2,2
     2ec:	012084a3          	sb	s2,9(ra)
     2f0:	ee043903          	ld	s2,-288(s0)
     2f4:	00290913          	addi	s2,s2,2
     2f8:	01208523          	sb	s2,10(ra)
     2fc:	ee843903          	ld	s2,-280(s0)
     300:	00290913          	addi	s2,s2,2
     304:	012085a3          	sb	s2,11(ra)
     308:	ef043903          	ld	s2,-272(s0)
     30c:	00290913          	addi	s2,s2,2
     310:	01208623          	sb	s2,12(ra)
     314:	ef843903          	ld	s2,-264(s0)
     318:	00290913          	addi	s2,s2,2
     31c:	012086a3          	sb	s2,13(ra)
     320:	f0043903          	ld	s2,-256(s0)
     324:	00290913          	addi	s2,s2,2
     328:	01208723          	sb	s2,14(ra)
     32c:	f0843903          	ld	s2,-248(s0)
     330:	00290913          	addi	s2,s2,2
     334:	012087a3          	sb	s2,15(ra)
     338:	f1043903          	ld	s2,-240(s0)
     33c:	00290913          	addi	s2,s2,2
     340:	01208823          	sb	s2,16(ra)
     344:	f1843903          	ld	s2,-232(s0)
     348:	00290913          	addi	s2,s2,2
     34c:	012088a3          	sb	s2,17(ra)
     350:	f2043903          	ld	s2,-224(s0)
     354:	00290913          	addi	s2,s2,2
     358:	01208923          	sb	s2,18(ra)
     35c:	f2843903          	ld	s2,-216(s0)
     360:	00290913          	addi	s2,s2,2
     364:	012089a3          	sb	s2,19(ra)
     368:	f3043903          	ld	s2,-208(s0)
     36c:	00290913          	addi	s2,s2,2
     370:	01208a23          	sb	s2,20(ra)
     374:	f3843903          	ld	s2,-200(s0)
     378:	00290913          	addi	s2,s2,2
     37c:	01208aa3          	sb	s2,21(ra)
     380:	f4043903          	ld	s2,-192(s0)
     384:	00290913          	addi	s2,s2,2
     388:	01208b23          	sb	s2,22(ra)
     38c:	f4843903          	ld	s2,-184(s0)
     390:	00290913          	addi	s2,s2,2
     394:	01208ba3          	sb	s2,23(ra)
     398:	f5043903          	ld	s2,-176(s0)
     39c:	00290913          	addi	s2,s2,2
     3a0:	01208c23          	sb	s2,24(ra)
     3a4:	f5843903          	ld	s2,-168(s0)
     3a8:	00290913          	addi	s2,s2,2
     3ac:	01208ca3          	sb	s2,25(ra)
     3b0:	f6043903          	ld	s2,-160(s0)
     3b4:	00290913          	addi	s2,s2,2
     3b8:	01208d23          	sb	s2,26(ra)
     3bc:	f6843903          	ld	s2,-152(s0)
     3c0:	00290913          	addi	s2,s2,2
     3c4:	01208da3          	sb	s2,27(ra)
     3c8:	f7043903          	ld	s2,-144(s0)
     3cc:	00290913          	addi	s2,s2,2
     3d0:	01208e23          	sb	s2,28(ra)
     3d4:	f7843903          	ld	s2,-136(s0)
     3d8:	00290913          	addi	s2,s2,2
     3dc:	01208ea3          	sb	s2,29(ra)
     3e0:	f8043903          	ld	s2,-128(s0)
     3e4:	00290913          	addi	s2,s2,2
     3e8:	01208f23          	sb	s2,30(ra)
     3ec:	f8843903          	ld	s2,-120(s0)
     3f0:	00290913          	addi	s2,s2,2
     3f4:	01208fa3          	sb	s2,31(ra)
     3f8:	d3843083          	ld	ra,-712(s0)
     3fc:	00208093          	addi	ra,ra,2
     400:	00001937          	lui	s2,0x1
     404:	41240933          	sub	s2,s0,s2
     408:	b8893903          	ld	s2,-1144(s2) # b88 <.LBB101_3+0x930>
     40c:	01d90933          	add	s2,s2,t4
     410:	001901a3          	sb	ra,3(s2)
     414:	d4843083          	ld	ra,-696(s0)
     418:	00208093          	addi	ra,ra,2
     41c:	00190123          	sb	ra,2(s2)
     420:	d5843083          	ld	ra,-680(s0)
     424:	00208093          	addi	ra,ra,2
     428:	001900a3          	sb	ra,1(s2)
     42c:	d7043083          	ld	ra,-656(s0)
     430:	00208093          	addi	ra,ra,2
     434:	00190023          	sb	ra,0(s2)
     438:	d8043083          	ld	ra,-640(s0)
     43c:	00208093          	addi	ra,ra,2
     440:	00190223          	sb	ra,4(s2)
     444:	d9043083          	ld	ra,-624(s0)
     448:	00208093          	addi	ra,ra,2
     44c:	001902a3          	sb	ra,5(s2)
     450:	da043083          	ld	ra,-608(s0)
     454:	00208093          	addi	ra,ra,2
     458:	00190323          	sb	ra,6(s2)
     45c:	db043083          	ld	ra,-592(s0)
     460:	00208093          	addi	ra,ra,2
     464:	001903a3          	sb	ra,7(s2)
     468:	dc043083          	ld	ra,-576(s0)
     46c:	00208093          	addi	ra,ra,2
     470:	00190423          	sb	ra,8(s2)
     474:	dd043083          	ld	ra,-560(s0)
     478:	00208093          	addi	ra,ra,2
     47c:	001904a3          	sb	ra,9(s2)
     480:	de043083          	ld	ra,-544(s0)
     484:	00208093          	addi	ra,ra,2
     488:	00190523          	sb	ra,10(s2)
     48c:	de843083          	ld	ra,-536(s0)
     490:	00208093          	addi	ra,ra,2
     494:	001905a3          	sb	ra,11(s2)
     498:	df043083          	ld	ra,-528(s0)
     49c:	00208093          	addi	ra,ra,2
     4a0:	00190623          	sb	ra,12(s2)
     4a4:	df843083          	ld	ra,-520(s0)
     4a8:	00208093          	addi	ra,ra,2
     4ac:	001906a3          	sb	ra,13(s2)
     4b0:	e0043083          	ld	ra,-512(s0)
     4b4:	00208093          	addi	ra,ra,2
     4b8:	00190723          	sb	ra,14(s2)
     4bc:	e0843083          	ld	ra,-504(s0)
     4c0:	00208093          	addi	ra,ra,2
     4c4:	001907a3          	sb	ra,15(s2)
     4c8:	e1043083          	ld	ra,-496(s0)
     4cc:	00208093          	addi	ra,ra,2
     4d0:	00190823          	sb	ra,16(s2)
     4d4:	e1843083          	ld	ra,-488(s0)
     4d8:	00208093          	addi	ra,ra,2
     4dc:	001908a3          	sb	ra,17(s2)
     4e0:	e2043083          	ld	ra,-480(s0)
     4e4:	00208093          	addi	ra,ra,2
     4e8:	00190923          	sb	ra,18(s2)
     4ec:	e2843083          	ld	ra,-472(s0)
     4f0:	00208093          	addi	ra,ra,2
     4f4:	001909a3          	sb	ra,19(s2)
     4f8:	e3043083          	ld	ra,-464(s0)
     4fc:	00208093          	addi	ra,ra,2
     500:	00190a23          	sb	ra,20(s2)
     504:	e3843083          	ld	ra,-456(s0)
     508:	00208093          	addi	ra,ra,2
     50c:	00190aa3          	sb	ra,21(s2)
     510:	e4043083          	ld	ra,-448(s0)
     514:	00208093          	addi	ra,ra,2
     518:	00190b23          	sb	ra,22(s2)
     51c:	e5043083          	ld	ra,-432(s0)
     520:	00208093          	addi	ra,ra,2
     524:	00190ba3          	sb	ra,23(s2)
     528:	e6843083          	ld	ra,-408(s0)
     52c:	00208093          	addi	ra,ra,2
     530:	00190c23          	sb	ra,24(s2)
     534:	e7843083          	ld	ra,-392(s0)
     538:	00208093          	addi	ra,ra,2
     53c:	00190ca3          	sb	ra,25(s2)
     540:	e8843083          	ld	ra,-376(s0)
     544:	00208093          	addi	ra,ra,2
     548:	00190d23          	sb	ra,26(s2)
     54c:	e9843083          	ld	ra,-360(s0)
     550:	00208093          	addi	ra,ra,2
     554:	00190da3          	sb	ra,27(s2)
     558:	ea843083          	ld	ra,-344(s0)
     55c:	00208093          	addi	ra,ra,2
     560:	00190e23          	sb	ra,28(s2)
     564:	eb843083          	ld	ra,-328(s0)
     568:	00208093          	addi	ra,ra,2
     56c:	00190ea3          	sb	ra,29(s2)
     570:	ec843083          	ld	ra,-312(s0)
     574:	00208093          	addi	ra,ra,2
     578:	00190f23          	sb	ra,30(s2)
     57c:	ed843083          	ld	ra,-296(s0)
     580:	00208093          	addi	ra,ra,2
     584:	00190fa3          	sb	ra,31(s2)
     588:	c3843083          	ld	ra,-968(s0)
     58c:	00208093          	addi	ra,ra,2
     590:	00001937          	lui	s2,0x1
     594:	41240933          	sub	s2,s0,s2
     598:	b8093903          	ld	s2,-1152(s2) # b80 <.LBB101_3+0x928>
     59c:	01d90933          	add	s2,s2,t4
     5a0:	001901a3          	sb	ra,3(s2)
     5a4:	c4843083          	ld	ra,-952(s0)
     5a8:	00208093          	addi	ra,ra,2
     5ac:	00190123          	sb	ra,2(s2)
     5b0:	c5843083          	ld	ra,-936(s0)
     5b4:	00208093          	addi	ra,ra,2
     5b8:	001900a3          	sb	ra,1(s2)
     5bc:	c6843083          	ld	ra,-920(s0)
     5c0:	00208093          	addi	ra,ra,2
     5c4:	00190023          	sb	ra,0(s2)
     5c8:	c7843083          	ld	ra,-904(s0)
     5cc:	00208093          	addi	ra,ra,2
     5d0:	00190223          	sb	ra,4(s2)
     5d4:	c8843083          	ld	ra,-888(s0)
     5d8:	00208093          	addi	ra,ra,2
     5dc:	001902a3          	sb	ra,5(s2)
     5e0:	c9843083          	ld	ra,-872(s0)
     5e4:	00208093          	addi	ra,ra,2
     5e8:	00190323          	sb	ra,6(s2)
     5ec:	ca843083          	ld	ra,-856(s0)
     5f0:	00208093          	addi	ra,ra,2
     5f4:	001903a3          	sb	ra,7(s2)
     5f8:	cb843083          	ld	ra,-840(s0)
     5fc:	00208093          	addi	ra,ra,2
     600:	00190423          	sb	ra,8(s2)
     604:	cc843083          	ld	ra,-824(s0)
     608:	00208093          	addi	ra,ra,2
     60c:	001904a3          	sb	ra,9(s2)
     610:	cd843083          	ld	ra,-808(s0)
     614:	00208093          	addi	ra,ra,2
     618:	00190523          	sb	ra,10(s2)
     61c:	ce043083          	ld	ra,-800(s0)
     620:	00208093          	addi	ra,ra,2
     624:	001905a3          	sb	ra,11(s2)
     628:	ce843083          	ld	ra,-792(s0)
     62c:	00208093          	addi	ra,ra,2
     630:	00190623          	sb	ra,12(s2)
     634:	cf043083          	ld	ra,-784(s0)
     638:	00208093          	addi	ra,ra,2
     63c:	001906a3          	sb	ra,13(s2)
     640:	cf843083          	ld	ra,-776(s0)
     644:	00208093          	addi	ra,ra,2
     648:	00190723          	sb	ra,14(s2)
     64c:	d0043083          	ld	ra,-768(s0)
     650:	00208093          	addi	ra,ra,2
     654:	001907a3          	sb	ra,15(s2)
     658:	d0843083          	ld	ra,-760(s0)
     65c:	00208093          	addi	ra,ra,2
     660:	00190823          	sb	ra,16(s2)
     664:	d1043083          	ld	ra,-752(s0)
     668:	00208093          	addi	ra,ra,2
     66c:	001908a3          	sb	ra,17(s2)
     670:	d1843083          	ld	ra,-744(s0)
     674:	00208093          	addi	ra,ra,2
     678:	00190923          	sb	ra,18(s2)
     67c:	d2043083          	ld	ra,-736(s0)
     680:	00208093          	addi	ra,ra,2
     684:	001909a3          	sb	ra,19(s2)
     688:	d2843083          	ld	ra,-728(s0)
     68c:	00208093          	addi	ra,ra,2
     690:	00190a23          	sb	ra,20(s2)
     694:	d3043083          	ld	ra,-720(s0)
     698:	00208093          	addi	ra,ra,2
     69c:	00190aa3          	sb	ra,21(s2)
     6a0:	d4043083          	ld	ra,-704(s0)
     6a4:	00208093          	addi	ra,ra,2
     6a8:	00190b23          	sb	ra,22(s2)
     6ac:	d5043083          	ld	ra,-688(s0)
     6b0:	00208093          	addi	ra,ra,2
     6b4:	00190ba3          	sb	ra,23(s2)
     6b8:	d6843083          	ld	ra,-664(s0)
     6bc:	00208093          	addi	ra,ra,2
     6c0:	00190c23          	sb	ra,24(s2)
     6c4:	d7843083          	ld	ra,-648(s0)
     6c8:	00208093          	addi	ra,ra,2
     6cc:	00190ca3          	sb	ra,25(s2)
     6d0:	d8843083          	ld	ra,-632(s0)
     6d4:	00208093          	addi	ra,ra,2
     6d8:	00190d23          	sb	ra,26(s2)
     6dc:	d9843083          	ld	ra,-616(s0)
     6e0:	00208093          	addi	ra,ra,2
     6e4:	00190da3          	sb	ra,27(s2)
     6e8:	da843083          	ld	ra,-600(s0)
     6ec:	00208093          	addi	ra,ra,2
     6f0:	00190e23          	sb	ra,28(s2)
     6f4:	db843083          	ld	ra,-584(s0)
     6f8:	00208093          	addi	ra,ra,2
     6fc:	00190ea3          	sb	ra,29(s2)
     700:	dc843083          	ld	ra,-568(s0)
     704:	00208093          	addi	ra,ra,2
     708:	00190f23          	sb	ra,30(s2)
     70c:	dd843083          	ld	ra,-552(s0)
     710:	00208093          	addi	ra,ra,2
     714:	00190fa3          	sb	ra,31(s2)
     718:	b3843083          	ld	ra,-1224(s0)
     71c:	00208093          	addi	ra,ra,2
     720:	00001937          	lui	s2,0x1
     724:	41240933          	sub	s2,s0,s2
     728:	b7893903          	ld	s2,-1160(s2) # b78 <.LBB101_3+0x920>
     72c:	01d90933          	add	s2,s2,t4
     730:	001901a3          	sb	ra,3(s2)
     734:	b4843083          	ld	ra,-1208(s0)
     738:	00208093          	addi	ra,ra,2
     73c:	00190123          	sb	ra,2(s2)
     740:	b5843083          	ld	ra,-1192(s0)
     744:	00208093          	addi	ra,ra,2
     748:	001900a3          	sb	ra,1(s2)
     74c:	b6843083          	ld	ra,-1176(s0)
     750:	00208093          	addi	ra,ra,2
     754:	00190023          	sb	ra,0(s2)
     758:	b7843083          	ld	ra,-1160(s0)
     75c:	00208093          	addi	ra,ra,2
     760:	00190223          	sb	ra,4(s2)
     764:	b8843083          	ld	ra,-1144(s0)
     768:	00208093          	addi	ra,ra,2
     76c:	001902a3          	sb	ra,5(s2)
     770:	b9843083          	ld	ra,-1128(s0)
     774:	00208093          	addi	ra,ra,2
     778:	00190323          	sb	ra,6(s2)
     77c:	ba843083          	ld	ra,-1112(s0)
     780:	00208093          	addi	ra,ra,2
     784:	001903a3          	sb	ra,7(s2)
     788:	bb843083          	ld	ra,-1096(s0)
     78c:	00208093          	addi	ra,ra,2
     790:	00190423          	sb	ra,8(s2)
     794:	bc843083          	ld	ra,-1080(s0)
     798:	00208093          	addi	ra,ra,2
     79c:	001904a3          	sb	ra,9(s2)
     7a0:	bd843083          	ld	ra,-1064(s0)
     7a4:	00208093          	addi	ra,ra,2
     7a8:	00190523          	sb	ra,10(s2)
     7ac:	be043083          	ld	ra,-1056(s0)
     7b0:	00208093          	addi	ra,ra,2
     7b4:	001905a3          	sb	ra,11(s2)
     7b8:	be843083          	ld	ra,-1048(s0)
     7bc:	00208093          	addi	ra,ra,2
     7c0:	00190623          	sb	ra,12(s2)
     7c4:	bf043083          	ld	ra,-1040(s0)
     7c8:	00208093          	addi	ra,ra,2
     7cc:	001906a3          	sb	ra,13(s2)
     7d0:	bf843083          	ld	ra,-1032(s0)
     7d4:	00208093          	addi	ra,ra,2
     7d8:	00190723          	sb	ra,14(s2)
     7dc:	c0043083          	ld	ra,-1024(s0)
     7e0:	00208093          	addi	ra,ra,2
     7e4:	001907a3          	sb	ra,15(s2)
     7e8:	c0843083          	ld	ra,-1016(s0)
     7ec:	00208093          	addi	ra,ra,2
     7f0:	00190823          	sb	ra,16(s2)
     7f4:	c1043083          	ld	ra,-1008(s0)
     7f8:	00208093          	addi	ra,ra,2
     7fc:	001908a3          	sb	ra,17(s2)
     800:	c1843083          	ld	ra,-1000(s0)
     804:	00208093          	addi	ra,ra,2
     808:	00190923          	sb	ra,18(s2)
     80c:	c2043083          	ld	ra,-992(s0)
     810:	00208093          	addi	ra,ra,2
     814:	001909a3          	sb	ra,19(s2)
     818:	c2843083          	ld	ra,-984(s0)
     81c:	00208093          	addi	ra,ra,2
     820:	00190a23          	sb	ra,20(s2)
     824:	c3043083          	ld	ra,-976(s0)
     828:	00208093          	addi	ra,ra,2
     82c:	00190aa3          	sb	ra,21(s2)
     830:	c4043083          	ld	ra,-960(s0)
     834:	00208093          	addi	ra,ra,2
     838:	00190b23          	sb	ra,22(s2)
     83c:	c5043083          	ld	ra,-944(s0)
     840:	00208093          	addi	ra,ra,2
     844:	00190ba3          	sb	ra,23(s2)
     848:	c6043083          	ld	ra,-928(s0)
     84c:	00208093          	addi	ra,ra,2
     850:	00190c23          	sb	ra,24(s2)
     854:	c7043083          	ld	ra,-912(s0)
     858:	00208093          	addi	ra,ra,2
     85c:	00190ca3          	sb	ra,25(s2)
     860:	c8043083          	ld	ra,-896(s0)
     864:	00208093          	addi	ra,ra,2
     868:	00190d23          	sb	ra,26(s2)
     86c:	c9043083          	ld	ra,-880(s0)
     870:	00208093          	addi	ra,ra,2
     874:	00190da3          	sb	ra,27(s2)
     878:	ca043083          	ld	ra,-864(s0)
     87c:	00208093          	addi	ra,ra,2
     880:	00190e23          	sb	ra,28(s2)
     884:	cb043083          	ld	ra,-848(s0)
     888:	00208093          	addi	ra,ra,2
     88c:	00190ea3          	sb	ra,29(s2)
     890:	cc043083          	ld	ra,-832(s0)
     894:	00208093          	addi	ra,ra,2
     898:	00190f23          	sb	ra,30(s2)
     89c:	cd043083          	ld	ra,-816(s0)
     8a0:	00208093          	addi	ra,ra,2
     8a4:	00190fa3          	sb	ra,31(s2)
     8a8:	a3843083          	ld	ra,-1480(s0)
     8ac:	00208093          	addi	ra,ra,2
     8b0:	00001937          	lui	s2,0x1
     8b4:	41240933          	sub	s2,s0,s2
     8b8:	b7093903          	ld	s2,-1168(s2) # b70 <.LBB101_3+0x918>
     8bc:	01d90933          	add	s2,s2,t4
     8c0:	001901a3          	sb	ra,3(s2)
     8c4:	a4843083          	ld	ra,-1464(s0)
     8c8:	00208093          	addi	ra,ra,2
     8cc:	00190123          	sb	ra,2(s2)
     8d0:	a5843083          	ld	ra,-1448(s0)
     8d4:	00208093          	addi	ra,ra,2
     8d8:	001900a3          	sb	ra,1(s2)
     8dc:	a6843083          	ld	ra,-1432(s0)
     8e0:	00208093          	addi	ra,ra,2
     8e4:	00190023          	sb	ra,0(s2)
     8e8:	a7843083          	ld	ra,-1416(s0)
     8ec:	00208093          	addi	ra,ra,2
     8f0:	00190223          	sb	ra,4(s2)
     8f4:	a8843083          	ld	ra,-1400(s0)
     8f8:	00208093          	addi	ra,ra,2
     8fc:	001902a3          	sb	ra,5(s2)
     900:	a9843083          	ld	ra,-1384(s0)
     904:	00208093          	addi	ra,ra,2
     908:	00190323          	sb	ra,6(s2)
     90c:	aa843083          	ld	ra,-1368(s0)
     910:	00208093          	addi	ra,ra,2
     914:	001903a3          	sb	ra,7(s2)
     918:	ab843083          	ld	ra,-1352(s0)
     91c:	00208093          	addi	ra,ra,2
     920:	00190423          	sb	ra,8(s2)
     924:	ac843083          	ld	ra,-1336(s0)
     928:	00208093          	addi	ra,ra,2
     92c:	001904a3          	sb	ra,9(s2)
     930:	ad843083          	ld	ra,-1320(s0)
     934:	00208093          	addi	ra,ra,2
     938:	00190523          	sb	ra,10(s2)
     93c:	ae043083          	ld	ra,-1312(s0)
     940:	00208093          	addi	ra,ra,2
     944:	001905a3          	sb	ra,11(s2)
     948:	ae843083          	ld	ra,-1304(s0)
     94c:	00208093          	addi	ra,ra,2
     950:	00190623          	sb	ra,12(s2)
     954:	af043083          	ld	ra,-1296(s0)
     958:	00208093          	addi	ra,ra,2
     95c:	001906a3          	sb	ra,13(s2)
     960:	af843083          	ld	ra,-1288(s0)
     964:	00208093          	addi	ra,ra,2
     968:	00190723          	sb	ra,14(s2)
     96c:	b0043083          	ld	ra,-1280(s0)
     970:	00208093          	addi	ra,ra,2
     974:	001907a3          	sb	ra,15(s2)
     978:	b0843083          	ld	ra,-1272(s0)
     97c:	00208093          	addi	ra,ra,2
     980:	00190823          	sb	ra,16(s2)
     984:	b1043083          	ld	ra,-1264(s0)
     988:	00208093          	addi	ra,ra,2
     98c:	001908a3          	sb	ra,17(s2)
     990:	b1843083          	ld	ra,-1256(s0)
     994:	00208093          	addi	ra,ra,2
     998:	00190923          	sb	ra,18(s2)
     99c:	b2043083          	ld	ra,-1248(s0)
     9a0:	00208093          	addi	ra,ra,2
     9a4:	001909a3          	sb	ra,19(s2)
     9a8:	b2843083          	ld	ra,-1240(s0)
     9ac:	00208093          	addi	ra,ra,2
     9b0:	00190a23          	sb	ra,20(s2)
     9b4:	b3043083          	ld	ra,-1232(s0)
     9b8:	00208093          	addi	ra,ra,2
     9bc:	00190aa3          	sb	ra,21(s2)
     9c0:	b4043083          	ld	ra,-1216(s0)
     9c4:	00208093          	addi	ra,ra,2
     9c8:	00190b23          	sb	ra,22(s2)
     9cc:	b5043083          	ld	ra,-1200(s0)
     9d0:	00208093          	addi	ra,ra,2
     9d4:	00190ba3          	sb	ra,23(s2)
     9d8:	b6043083          	ld	ra,-1184(s0)
     9dc:	00208093          	addi	ra,ra,2
     9e0:	00190c23          	sb	ra,24(s2)
     9e4:	b7043083          	ld	ra,-1168(s0)
     9e8:	00208093          	addi	ra,ra,2
     9ec:	00190ca3          	sb	ra,25(s2)
     9f0:	b8043083          	ld	ra,-1152(s0)
     9f4:	00208093          	addi	ra,ra,2
     9f8:	00190d23          	sb	ra,26(s2)
     9fc:	b9043083          	ld	ra,-1136(s0)
     a00:	00208093          	addi	ra,ra,2
     a04:	00190da3          	sb	ra,27(s2)
     a08:	ba043083          	ld	ra,-1120(s0)
     a0c:	00208093          	addi	ra,ra,2
     a10:	00190e23          	sb	ra,28(s2)
     a14:	bb043083          	ld	ra,-1104(s0)
     a18:	00208093          	addi	ra,ra,2
     a1c:	00190ea3          	sb	ra,29(s2)
     a20:	bc043083          	ld	ra,-1088(s0)
     a24:	00208093          	addi	ra,ra,2
     a28:	00190f23          	sb	ra,30(s2)
     a2c:	bd043083          	ld	ra,-1072(s0)
     a30:	00208093          	addi	ra,ra,2
     a34:	00190fa3          	sb	ra,31(s2)
     a38:	9b843083          	ld	ra,-1608(s0)
     a3c:	00208093          	addi	ra,ra,2
     a40:	00001937          	lui	s2,0x1
     a44:	41240933          	sub	s2,s0,s2
     a48:	b6893903          	ld	s2,-1176(s2) # b68 <.LBB101_3+0x910>
     a4c:	01d90933          	add	s2,s2,t4
     a50:	001901a3          	sb	ra,3(s2)
     a54:	00298093          	addi	ra,s3,2
     a58:	00190123          	sb	ra,2(s2)
     a5c:	002d0093          	addi	ra,s10,2
     a60:	001900a3          	sb	ra,1(s2)
     a64:	002c0093          	addi	ra,s8,2
     a68:	00190023          	sb	ra,0(s2)
     a6c:	002a0093          	addi	ra,s4,2
     a70:	00190223          	sb	ra,4(s2)
     a74:	00248093          	addi	ra,s1,2
     a78:	001902a3          	sb	ra,5(s2)
     a7c:	00268093          	addi	ra,a3,2
     a80:	00190323          	sb	ra,6(s2)
     a84:	00228093          	addi	ra,t0,2
     a88:	001903a3          	sb	ra,7(s2)
     a8c:	00250093          	addi	ra,a0,2
     a90:	00190423          	sb	ra,8(s2)
     a94:	9c843083          	ld	ra,-1592(s0)
     a98:	00208093          	addi	ra,ra,2
     a9c:	001904a3          	sb	ra,9(s2)
     aa0:	9d843083          	ld	ra,-1576(s0)
     aa4:	00208093          	addi	ra,ra,2
     aa8:	00190523          	sb	ra,10(s2)
     aac:	9e043083          	ld	ra,-1568(s0)
     ab0:	00208093          	addi	ra,ra,2
     ab4:	001905a3          	sb	ra,11(s2)
     ab8:	9e843083          	ld	ra,-1560(s0)
     abc:	00208093          	addi	ra,ra,2
     ac0:	00190623          	sb	ra,12(s2)
     ac4:	9f043083          	ld	ra,-1552(s0)
     ac8:	00208093          	addi	ra,ra,2
     acc:	001906a3          	sb	ra,13(s2)
     ad0:	9f843083          	ld	ra,-1544(s0)
     ad4:	00208093          	addi	ra,ra,2
     ad8:	00190723          	sb	ra,14(s2)
     adc:	a0043083          	ld	ra,-1536(s0)
     ae0:	00208093          	addi	ra,ra,2
     ae4:	001907a3          	sb	ra,15(s2)
     ae8:	a0843083          	ld	ra,-1528(s0)
     aec:	00208093          	addi	ra,ra,2
     af0:	00190823          	sb	ra,16(s2)
     af4:	a1043083          	ld	ra,-1520(s0)
     af8:	00208093          	addi	ra,ra,2
     afc:	001908a3          	sb	ra,17(s2)
     b00:	a1843083          	ld	ra,-1512(s0)
     b04:	00208093          	addi	ra,ra,2
     b08:	00190923          	sb	ra,18(s2)
     b0c:	a2043083          	ld	ra,-1504(s0)
     b10:	00208093          	addi	ra,ra,2
     b14:	001909a3          	sb	ra,19(s2)
     b18:	a2843083          	ld	ra,-1496(s0)
     b1c:	00208093          	addi	ra,ra,2
     b20:	00190a23          	sb	ra,20(s2)
     b24:	a3043083          	ld	ra,-1488(s0)
     b28:	00208093          	addi	ra,ra,2
     b2c:	00190aa3          	sb	ra,21(s2)
     b30:	a4043083          	ld	ra,-1472(s0)
     b34:	00208093          	addi	ra,ra,2
     b38:	00190b23          	sb	ra,22(s2)
     b3c:	a5043083          	ld	ra,-1456(s0)
     b40:	00208093          	addi	ra,ra,2
     b44:	00190ba3          	sb	ra,23(s2)
     b48:	a6043083          	ld	ra,-1440(s0)
     b4c:	00208093          	addi	ra,ra,2
     b50:	00190c23          	sb	ra,24(s2)
     b54:	a7043083          	ld	ra,-1424(s0)
     b58:	00208093          	addi	ra,ra,2
     b5c:	00190ca3          	sb	ra,25(s2)
     b60:	a8043083          	ld	ra,-1408(s0)
     b64:	00208093          	addi	ra,ra,2
     b68:	00190d23          	sb	ra,26(s2)
     b6c:	a9043083          	ld	ra,-1392(s0)
     b70:	00208093          	addi	ra,ra,2
     b74:	00190da3          	sb	ra,27(s2)
     b78:	aa043083          	ld	ra,-1376(s0)
     b7c:	00208093          	addi	ra,ra,2
     b80:	00190e23          	sb	ra,28(s2)
     b84:	ab043083          	ld	ra,-1360(s0)
     b88:	00208093          	addi	ra,ra,2
     b8c:	00190ea3          	sb	ra,29(s2)
     b90:	ac043083          	ld	ra,-1344(s0)
     b94:	00208093          	addi	ra,ra,2
     b98:	00190f23          	sb	ra,30(s2)
     b9c:	ad043083          	ld	ra,-1328(s0)
     ba0:	00208093          	addi	ra,ra,2
     ba4:	00190fa3          	sb	ra,31(s2)
     ba8:	8b843903          	ld	s2,-1864(s0)
     bac:	00290913          	addi	s2,s2,2
     bb0:	00001537          	lui	a0,0x1
     bb4:	40a40533          	sub	a0,s0,a0
     bb8:	b6053283          	ld	t0,-1184(a0) # b60 <.LBB101_3+0x908>
     bbc:	000e8513          	mv	a0,t4
     bc0:	01d282b3          	add	t0,t0,t4
     bc4:	012281a3          	sb	s2,3(t0)
     bc8:	8c843e83          	ld	t4,-1848(s0)
     bcc:	002e8e93          	addi	t4,t4,2
     bd0:	01d28123          	sb	t4,2(t0)
     bd4:	8d843e83          	ld	t4,-1832(s0)
     bd8:	002e8e93          	addi	t4,t4,2
     bdc:	01d280a3          	sb	t4,1(t0)
     be0:	8e843e83          	ld	t4,-1816(s0)
     be4:	002e8e93          	addi	t4,t4,2
     be8:	01d28023          	sb	t4,0(t0)
     bec:	8f843e83          	ld	t4,-1800(s0)
     bf0:	002e8e93          	addi	t4,t4,2
     bf4:	01d28223          	sb	t4,4(t0)
     bf8:	90843e83          	ld	t4,-1784(s0)
     bfc:	002e8e93          	addi	t4,t4,2
     c00:	01d282a3          	sb	t4,5(t0)
     c04:	91843e83          	ld	t4,-1768(s0)
     c08:	002e8e93          	addi	t4,t4,2
     c0c:	01d28323          	sb	t4,6(t0)
     c10:	92843e83          	ld	t4,-1752(s0)
     c14:	002e8e93          	addi	t4,t4,2
     c18:	01d283a3          	sb	t4,7(t0)
     c1c:	93843e83          	ld	t4,-1736(s0)
     c20:	002e8e93          	addi	t4,t4,2
     c24:	01d28423          	sb	t4,8(t0)
     c28:	94843e83          	ld	t4,-1720(s0)
     c2c:	002e8e93          	addi	t4,t4,2
     c30:	01d284a3          	sb	t4,9(t0)
     c34:	95843e83          	ld	t4,-1704(s0)
     c38:	002e8e93          	addi	t4,t4,2
     c3c:	01d28523          	sb	t4,10(t0)
     c40:	96043e83          	ld	t4,-1696(s0)
     c44:	002e8e93          	addi	t4,t4,2
     c48:	01d285a3          	sb	t4,11(t0)
     c4c:	96843e83          	ld	t4,-1688(s0)
     c50:	002e8e93          	addi	t4,t4,2
     c54:	01d28623          	sb	t4,12(t0)
     c58:	97043e83          	ld	t4,-1680(s0)
     c5c:	002e8e93          	addi	t4,t4,2
     c60:	01d286a3          	sb	t4,13(t0)
     c64:	97843e83          	ld	t4,-1672(s0)
     c68:	002e8e93          	addi	t4,t4,2
     c6c:	01d28723          	sb	t4,14(t0)
     c70:	98043e83          	ld	t4,-1664(s0)
     c74:	002e8e93          	addi	t4,t4,2
     c78:	01d287a3          	sb	t4,15(t0)
     c7c:	98843e83          	ld	t4,-1656(s0)
     c80:	002e8e93          	addi	t4,t4,2
     c84:	01d28823          	sb	t4,16(t0)
     c88:	99043e83          	ld	t4,-1648(s0)
     c8c:	002e8e93          	addi	t4,t4,2
     c90:	01d288a3          	sb	t4,17(t0)
     c94:	99843e83          	ld	t4,-1640(s0)
     c98:	002e8e93          	addi	t4,t4,2
     c9c:	01d28923          	sb	t4,18(t0)
     ca0:	9a043e83          	ld	t4,-1632(s0)
     ca4:	002e8e93          	addi	t4,t4,2
     ca8:	01d289a3          	sb	t4,19(t0)
     cac:	9a843e83          	ld	t4,-1624(s0)
     cb0:	002e8e93          	addi	t4,t4,2
     cb4:	01d28a23          	sb	t4,20(t0)
     cb8:	9b043e83          	ld	t4,-1616(s0)
     cbc:	002e8e93          	addi	t4,t4,2
     cc0:	01d28aa3          	sb	t4,21(t0)
     cc4:	002d8e93          	addi	t4,s11,2
     cc8:	01d28b23          	sb	t4,22(t0)
     ccc:	002f8e93          	addi	t4,t6,2
     cd0:	01d28ba3          	sb	t4,23(t0)
     cd4:	00288e93          	addi	t4,a7,2
     cd8:	01d28c23          	sb	t4,24(t0)
     cdc:	002b8e93          	addi	t4,s7,2
     ce0:	01d28ca3          	sb	t4,25(t0)
     ce4:	002e0e93          	addi	t4,t3,2
     ce8:	01d28d23          	sb	t4,26(t0)
     cec:	00238e93          	addi	t4,t2,2
     cf0:	01d28da3          	sb	t4,27(t0)
     cf4:	00230e93          	addi	t4,t1,2
     cf8:	01d28e23          	sb	t4,28(t0)
     cfc:	84843e83          	ld	t4,-1976(s0)
     d00:	002e8e93          	addi	t4,t4,2
     d04:	01d28ea3          	sb	t4,29(t0)
     d08:	9c043e83          	ld	t4,-1600(s0)
     d0c:	002e8e93          	addi	t4,t4,2
     d10:	01d28f23          	sb	t4,30(t0)
     d14:	9d043e83          	ld	t4,-1584(s0)
     d18:	002e8e93          	addi	t4,t4,2
     d1c:	01d28fa3          	sb	t4,31(t0)
     d20:	00278293          	addi	t0,a5,2
     d24:	000016b7          	lui	a3,0x1
     d28:	40d406b3          	sub	a3,s0,a3
     d2c:	b586b783          	ld	a5,-1192(a3) # b58 <.LBB101_3+0x900>
     d30:	00a787b3          	add	a5,a5,a0
     d34:	00050e93          	mv	t4,a0
     d38:	005781a3          	sb	t0,3(a5)
     d3c:	002f0f13          	addi	t5,t5,2
     d40:	01e78123          	sb	t5,2(a5)
     d44:	00280813          	addi	a6,a6,2
     d48:	010780a3          	sb	a6,1(a5)
     d4c:	00260d93          	addi	s11,a2,2
     d50:	01b78023          	sb	s11,0(a5)
     d54:	00270713          	addi	a4,a4,2
     d58:	00e78223          	sb	a4,4(a5)
     d5c:	00258993          	addi	s3,a1,2
     d60:	013782a3          	sb	s3,5(a5)
     d64:	002b0f93          	addi	t6,s6,2
     d68:	01f78323          	sb	t6,6(a5)
     d6c:	002a8d13          	addi	s10,s5,2
     d70:	01a783a3          	sb	s10,7(a5)
     d74:	002c8c93          	addi	s9,s9,2
     d78:	01978423          	sb	s9,8(a5)
     d7c:	85043c03          	ld	s8,-1968(s0)
     d80:	002c0c13          	addi	s8,s8,2
     d84:	018784a3          	sb	s8,9(a5)
     d88:	85843b83          	ld	s7,-1960(s0)
     d8c:	002b8b93          	addi	s7,s7,2
     d90:	01778523          	sb	s7,10(a5)
     d94:	86043b03          	ld	s6,-1952(s0)
     d98:	002b0b13          	addi	s6,s6,2
     d9c:	016785a3          	sb	s6,11(a5)
     da0:	86843a83          	ld	s5,-1944(s0)
     da4:	002a8a93          	addi	s5,s5,2
     da8:	01578623          	sb	s5,12(a5)
     dac:	87043a03          	ld	s4,-1936(s0)
     db0:	002a0a13          	addi	s4,s4,2
     db4:	014786a3          	sb	s4,13(a5)
     db8:	87843603          	ld	a2,-1928(s0)
     dbc:	00260613          	addi	a2,a2,2
     dc0:	00c78723          	sb	a2,14(a5)
     dc4:	88043583          	ld	a1,-1920(s0)
     dc8:	00258593          	addi	a1,a1,2
     dcc:	00b787a3          	sb	a1,15(a5)
     dd0:	88843e03          	ld	t3,-1912(s0)
     dd4:	002e0e13          	addi	t3,t3,2
     dd8:	01c78823          	sb	t3,16(a5)
     ddc:	89043503          	ld	a0,-1904(s0)
     de0:	00250513          	addi	a0,a0,2
     de4:	00a788a3          	sb	a0,17(a5)
     de8:	89843483          	ld	s1,-1896(s0)
     dec:	00248493          	addi	s1,s1,2
     df0:	00978923          	sb	s1,18(a5)
     df4:	8a043383          	ld	t2,-1888(s0)
     df8:	00238393          	addi	t2,t2,2
     dfc:	007789a3          	sb	t2,19(a5)
     e00:	8a843683          	ld	a3,-1880(s0)
     e04:	00268693          	addi	a3,a3,2
     e08:	00d78a23          	sb	a3,20(a5)
     e0c:	8b043303          	ld	t1,-1872(s0)
     e10:	00230313          	addi	t1,t1,2
     e14:	00678aa3          	sb	t1,21(a5)
     e18:	8c043883          	ld	a7,-1856(s0)
     e1c:	00288893          	addi	a7,a7,2
     e20:	01178b23          	sb	a7,22(a5)
     e24:	8d043503          	ld	a0,-1840(s0)
     e28:	00250513          	addi	a0,a0,2
     e2c:	00a78ba3          	sb	a0,23(a5)
     e30:	8e043503          	ld	a0,-1824(s0)
     e34:	00250513          	addi	a0,a0,2
     e38:	00a78c23          	sb	a0,24(a5)
     e3c:	8f043503          	ld	a0,-1808(s0)
     e40:	00250513          	addi	a0,a0,2
     e44:	00a78ca3          	sb	a0,25(a5)
     e48:	90043503          	ld	a0,-1792(s0)
     e4c:	00250513          	addi	a0,a0,2
     e50:	00a78d23          	sb	a0,26(a5)
     e54:	91043503          	ld	a0,-1776(s0)
     e58:	00250513          	addi	a0,a0,2
     e5c:	00a78da3          	sb	a0,27(a5)
     e60:	92043503          	ld	a0,-1760(s0)
     e64:	00250513          	addi	a0,a0,2
     e68:	00a78e23          	sb	a0,28(a5)
     e6c:	93043503          	ld	a0,-1744(s0)
     e70:	00250513          	addi	a0,a0,2
     e74:	00a78ea3          	sb	a0,29(a5)
     e78:	94043503          	ld	a0,-1728(s0)
     e7c:	00250513          	addi	a0,a0,2
     e80:	00a78f23          	sb	a0,30(a5)
     e84:	95043503          	ld	a0,-1712(s0)
     e88:	00250513          	addi	a0,a0,2
     e8c:	00a78fa3          	sb	a0,31(a5)
     e90:	000e8613          	mv	a2,t4
     e94:	020e8593          	addi	a1,t4,32
     e98:	00001537          	lui	a0,0x1
     e9c:	40a40533          	sub	a0,s0,a0
     ea0:	64853303          	ld	t1,1608(a0) # 1648 <.LBB101_5+0x1f4>
     ea4:	02030313          	addi	t1,t1,32
     ea8:	12000513          	li	a0,288
     eac:	a8aef663          	bgeu	t4,a0,138 <.LBB101_1>

0000000000000eb0 <.LBB101_4>:
     eb0:	00001537          	lui	a0,0x1
     eb4:	40a40533          	sub	a0,s0,a0
     eb8:	64b53c23          	sd	a1,1624(a0) # 1658 <.LBB101_5+0x204>
     ebc:	0004b837          	lui	a6,0x4b
     ec0:	00001537          	lui	a0,0x1
     ec4:	40a40533          	sub	a0,s0,a0
     ec8:	ba853e83          	ld	t4,-1112(a0) # ba8 <.LBB101_3+0x950>
     ecc:	00001537          	lui	a0,0x1
     ed0:	40a40533          	sub	a0,s0,a0
     ed4:	64653423          	sd	t1,1608(a0) # 1648 <.LBB101_5+0x1f4>
     ed8:	00030f13          	mv	t5,t1
     edc:	00001537          	lui	a0,0x1
     ee0:	40a40533          	sub	a0,s0,a0
     ee4:	6c053023          	sd	zero,1728(a0) # 16c0 <.LBB101_5+0x26c>
     ee8:	00001537          	lui	a0,0x1
     eec:	40a40533          	sub	a0,s0,a0
     ef0:	6a053c23          	sd	zero,1720(a0) # 16b8 <.LBB101_5+0x264>
     ef4:	00001537          	lui	a0,0x1
     ef8:	40a40533          	sub	a0,s0,a0
     efc:	6a053023          	sd	zero,1696(a0) # 16a0 <.LBB101_5+0x24c>
     f00:	00001537          	lui	a0,0x1
     f04:	40a40533          	sub	a0,s0,a0
     f08:	6a053423          	sd	zero,1704(a0) # 16a8 <.LBB101_5+0x254>
     f0c:	00001537          	lui	a0,0x1
     f10:	40a40533          	sub	a0,s0,a0
     f14:	6c053423          	sd	zero,1736(a0) # 16c8 <.LBB101_5+0x274>
     f18:	00001537          	lui	a0,0x1
     f1c:	40a40533          	sub	a0,s0,a0
     f20:	6a053823          	sd	zero,1712(a0) # 16b0 <.LBB101_5+0x25c>
     f24:	00001537          	lui	a0,0x1
     f28:	40a40533          	sub	a0,s0,a0
     f2c:	68053c23          	sd	zero,1688(a0) # 1698 <.LBB101_5+0x244>
     f30:	00001537          	lui	a0,0x1
     f34:	40a40533          	sub	a0,s0,a0
     f38:	68053823          	sd	zero,1680(a0) # 1690 <.LBB101_5+0x23c>
     f3c:	00001537          	lui	a0,0x1
     f40:	40a40533          	sub	a0,s0,a0
     f44:	68053423          	sd	zero,1672(a0) # 1688 <.LBB101_5+0x234>
     f48:	00001537          	lui	a0,0x1
     f4c:	40a40533          	sub	a0,s0,a0
     f50:	6c053823          	sd	zero,1744(a0) # 16d0 <.LBB101_5+0x27c>
     f54:	00001537          	lui	a0,0x1
     f58:	40a40533          	sub	a0,s0,a0
     f5c:	6c053c23          	sd	zero,1752(a0) # 16d8 <.LBB101_5+0x284>
     f60:	00001537          	lui	a0,0x1
     f64:	40a40533          	sub	a0,s0,a0
     f68:	6e053023          	sd	zero,1760(a0) # 16e0 <.LBB101_5+0x28c>
     f6c:	00001537          	lui	a0,0x1
     f70:	40a40533          	sub	a0,s0,a0
     f74:	6e053423          	sd	zero,1768(a0) # 16e8 <.LBB101_5+0x294>
     f78:	00001537          	lui	a0,0x1
     f7c:	40a40533          	sub	a0,s0,a0
     f80:	6e053823          	sd	zero,1776(a0) # 16f0 <.LBB101_5+0x29c>
     f84:	00001537          	lui	a0,0x1
     f88:	40a40533          	sub	a0,s0,a0
     f8c:	6e053c23          	sd	zero,1784(a0) # 16f8 <.LBB101_5+0x2a4>
     f90:	00001537          	lui	a0,0x1
     f94:	40a40533          	sub	a0,s0,a0
     f98:	70053023          	sd	zero,1792(a0) # 1700 <.LBB101_5+0x2ac>
     f9c:	00001537          	lui	a0,0x1
     fa0:	40a40533          	sub	a0,s0,a0
     fa4:	70053423          	sd	zero,1800(a0) # 1708 <.LBB101_5+0x2b4>
     fa8:	00001537          	lui	a0,0x1
     fac:	40a40533          	sub	a0,s0,a0
     fb0:	70053823          	sd	zero,1808(a0) # 1710 <.LBB101_5+0x2bc>
     fb4:	00001537          	lui	a0,0x1
     fb8:	40a40533          	sub	a0,s0,a0
     fbc:	70053c23          	sd	zero,1816(a0) # 1718 <.LBB101_5+0x2c4>
     fc0:	00001537          	lui	a0,0x1
     fc4:	40a40533          	sub	a0,s0,a0
     fc8:	72053023          	sd	zero,1824(a0) # 1720 <.LBB101_5+0x2cc>
     fcc:	00001537          	lui	a0,0x1
     fd0:	40a40533          	sub	a0,s0,a0
     fd4:	72053423          	sd	zero,1832(a0) # 1728 <.LBB101_5+0x2d4>
     fd8:	00001537          	lui	a0,0x1
     fdc:	40a40533          	sub	a0,s0,a0
     fe0:	72053823          	sd	zero,1840(a0) # 1730 <.LBB101_5+0x2dc>
     fe4:	00001537          	lui	a0,0x1
     fe8:	40a40533          	sub	a0,s0,a0
     fec:	72053c23          	sd	zero,1848(a0) # 1738 <.LBB101_5+0x2e4>
     ff0:	00001537          	lui	a0,0x1
     ff4:	40a40533          	sub	a0,s0,a0
     ff8:	74053023          	sd	zero,1856(a0) # 1740 <.LBB101_5+0x2ec>
     ffc:	00001537          	lui	a0,0x1
    1000:	40a40533          	sub	a0,s0,a0
    1004:	74053423          	sd	zero,1864(a0) # 1748 <.LBB101_5+0x2f4>
    1008:	00001537          	lui	a0,0x1
    100c:	40a40533          	sub	a0,s0,a0
    1010:	74053823          	sd	zero,1872(a0) # 1750 <.LBB101_5+0x2fc>
    1014:	00001537          	lui	a0,0x1
    1018:	40a40533          	sub	a0,s0,a0
    101c:	74053c23          	sd	zero,1880(a0) # 1758 <.LBB101_5+0x304>
    1020:	00001537          	lui	a0,0x1
    1024:	40a40533          	sub	a0,s0,a0
    1028:	76053023          	sd	zero,1888(a0) # 1760 <.LBB101_5+0x30c>
    102c:	00001537          	lui	a0,0x1
    1030:	40a40533          	sub	a0,s0,a0
    1034:	76053423          	sd	zero,1896(a0) # 1768 <.LBB101_5+0x314>
    1038:	00001537          	lui	a0,0x1
    103c:	40a40533          	sub	a0,s0,a0
    1040:	76053823          	sd	zero,1904(a0) # 1770 <.LBB101_5+0x31c>
    1044:	00001537          	lui	a0,0x1
    1048:	40a40533          	sub	a0,s0,a0
    104c:	76053c23          	sd	zero,1912(a0) # 1778 <.LBB101_5+0x324>
    1050:	00001537          	lui	a0,0x1
    1054:	40a40533          	sub	a0,s0,a0
    1058:	78053023          	sd	zero,1920(a0) # 1780 <.LBB101_5+0x32c>
    105c:	00001537          	lui	a0,0x1
    1060:	40a40533          	sub	a0,s0,a0
    1064:	7a053023          	sd	zero,1952(a0) # 17a0 <.LBB101_5+0x34c>
    1068:	00001537          	lui	a0,0x1
    106c:	40a40533          	sub	a0,s0,a0
    1070:	78053c23          	sd	zero,1944(a0) # 1798 <.LBB101_5+0x344>
    1074:	00001537          	lui	a0,0x1
    1078:	40a40533          	sub	a0,s0,a0
    107c:	78053823          	sd	zero,1936(a0) # 1790 <.LBB101_5+0x33c>
    1080:	00001537          	lui	a0,0x1
    1084:	40a40533          	sub	a0,s0,a0
    1088:	78053423          	sd	zero,1928(a0) # 1788 <.LBB101_5+0x334>
    108c:	00001537          	lui	a0,0x1
    1090:	40a40533          	sub	a0,s0,a0
    1094:	7a053423          	sd	zero,1960(a0) # 17a8 <.LBB101_5+0x354>
    1098:	00001537          	lui	a0,0x1
    109c:	40a40533          	sub	a0,s0,a0
    10a0:	7a053823          	sd	zero,1968(a0) # 17b0 <.LBB101_5+0x35c>
    10a4:	00001537          	lui	a0,0x1
    10a8:	40a40533          	sub	a0,s0,a0
    10ac:	7a053c23          	sd	zero,1976(a0) # 17b8 <.LBB101_5+0x364>
    10b0:	00001537          	lui	a0,0x1
    10b4:	40a40533          	sub	a0,s0,a0
    10b8:	7c053023          	sd	zero,1984(a0) # 17c0 <.LBB101_5+0x36c>
    10bc:	00001537          	lui	a0,0x1
    10c0:	40a40533          	sub	a0,s0,a0
    10c4:	7c053423          	sd	zero,1992(a0) # 17c8 <.LBB101_5+0x374>
    10c8:	00001537          	lui	a0,0x1
    10cc:	40a40533          	sub	a0,s0,a0
    10d0:	7c053823          	sd	zero,2000(a0) # 17d0 <.LBB101_5+0x37c>
    10d4:	00001537          	lui	a0,0x1
    10d8:	40a40533          	sub	a0,s0,a0
    10dc:	7c053c23          	sd	zero,2008(a0) # 17d8 <.LBB101_5+0x384>
    10e0:	00001537          	lui	a0,0x1
    10e4:	40a40533          	sub	a0,s0,a0
    10e8:	7e053023          	sd	zero,2016(a0) # 17e0 <.LBB101_5+0x38c>
    10ec:	00001537          	lui	a0,0x1
    10f0:	40a40533          	sub	a0,s0,a0
    10f4:	7e053423          	sd	zero,2024(a0) # 17e8 <.LBB101_5+0x394>
    10f8:	00001537          	lui	a0,0x1
    10fc:	40a40533          	sub	a0,s0,a0
    1100:	7e053823          	sd	zero,2032(a0) # 17f0 <.LBB101_5+0x39c>
    1104:	00001537          	lui	a0,0x1
    1108:	40a40533          	sub	a0,s0,a0
    110c:	7e053c23          	sd	zero,2040(a0) # 17f8 <.LBB101_5+0x3a4>
    1110:	80043023          	sd	zero,-2048(s0)
    1114:	80043423          	sd	zero,-2040(s0)
    1118:	80043823          	sd	zero,-2032(s0)
    111c:	80043c23          	sd	zero,-2024(s0)
    1120:	82043023          	sd	zero,-2016(s0)
    1124:	82043423          	sd	zero,-2008(s0)
    1128:	82043823          	sd	zero,-2000(s0)
    112c:	82043c23          	sd	zero,-1992(s0)
    1130:	84043023          	sd	zero,-1984(s0)
    1134:	84043423          	sd	zero,-1976(s0)
    1138:	84043823          	sd	zero,-1968(s0)
    113c:	84043c23          	sd	zero,-1960(s0)
    1140:	86043023          	sd	zero,-1952(s0)
    1144:	86043423          	sd	zero,-1944(s0)
    1148:	86043823          	sd	zero,-1936(s0)
    114c:	86043c23          	sd	zero,-1928(s0)
    1150:	88043023          	sd	zero,-1920(s0)
    1154:	8a043023          	sd	zero,-1888(s0)
    1158:	88043c23          	sd	zero,-1896(s0)
    115c:	88043823          	sd	zero,-1904(s0)
    1160:	88043423          	sd	zero,-1912(s0)
    1164:	8a043423          	sd	zero,-1880(s0)
    1168:	8a043823          	sd	zero,-1872(s0)
    116c:	8a043c23          	sd	zero,-1864(s0)
    1170:	8c043023          	sd	zero,-1856(s0)
    1174:	8c043423          	sd	zero,-1848(s0)
    1178:	8c043823          	sd	zero,-1840(s0)
    117c:	8c043c23          	sd	zero,-1832(s0)
    1180:	8e043023          	sd	zero,-1824(s0)
    1184:	8e043423          	sd	zero,-1816(s0)
    1188:	8e043823          	sd	zero,-1808(s0)
    118c:	8e043c23          	sd	zero,-1800(s0)
    1190:	90043023          	sd	zero,-1792(s0)
    1194:	90043423          	sd	zero,-1784(s0)
    1198:	90043823          	sd	zero,-1776(s0)
    119c:	90043c23          	sd	zero,-1768(s0)
    11a0:	92043023          	sd	zero,-1760(s0)
    11a4:	92043423          	sd	zero,-1752(s0)
    11a8:	92043823          	sd	zero,-1744(s0)
    11ac:	92043c23          	sd	zero,-1736(s0)
    11b0:	94043023          	sd	zero,-1728(s0)
    11b4:	94043423          	sd	zero,-1720(s0)
    11b8:	94043823          	sd	zero,-1712(s0)
    11bc:	94043c23          	sd	zero,-1704(s0)
    11c0:	96043023          	sd	zero,-1696(s0)
    11c4:	96043423          	sd	zero,-1688(s0)
    11c8:	96043823          	sd	zero,-1680(s0)
    11cc:	96043c23          	sd	zero,-1672(s0)
    11d0:	98043023          	sd	zero,-1664(s0)
    11d4:	9a043023          	sd	zero,-1632(s0)
    11d8:	98043c23          	sd	zero,-1640(s0)
    11dc:	98043823          	sd	zero,-1648(s0)
    11e0:	98043423          	sd	zero,-1656(s0)
    11e4:	9a043423          	sd	zero,-1624(s0)
    11e8:	9a043823          	sd	zero,-1616(s0)
    11ec:	9a043c23          	sd	zero,-1608(s0)
    11f0:	9c043023          	sd	zero,-1600(s0)
    11f4:	9c043423          	sd	zero,-1592(s0)
    11f8:	9c043823          	sd	zero,-1584(s0)
    11fc:	9c043c23          	sd	zero,-1576(s0)
    1200:	9e043023          	sd	zero,-1568(s0)
    1204:	9e043423          	sd	zero,-1560(s0)
    1208:	9e043823          	sd	zero,-1552(s0)
    120c:	9e043c23          	sd	zero,-1544(s0)
    1210:	a0043023          	sd	zero,-1536(s0)
    1214:	a0043423          	sd	zero,-1528(s0)
    1218:	a0043823          	sd	zero,-1520(s0)
    121c:	a0043c23          	sd	zero,-1512(s0)
    1220:	a2043023          	sd	zero,-1504(s0)
    1224:	a2043423          	sd	zero,-1496(s0)
    1228:	a2043823          	sd	zero,-1488(s0)
    122c:	a2043c23          	sd	zero,-1480(s0)
    1230:	a4043023          	sd	zero,-1472(s0)
    1234:	a4043423          	sd	zero,-1464(s0)
    1238:	a4043823          	sd	zero,-1456(s0)
    123c:	a4043c23          	sd	zero,-1448(s0)
    1240:	a6043023          	sd	zero,-1440(s0)
    1244:	a6043423          	sd	zero,-1432(s0)
    1248:	a6043823          	sd	zero,-1424(s0)
    124c:	a6043c23          	sd	zero,-1416(s0)
    1250:	a8043023          	sd	zero,-1408(s0)
    1254:	aa043023          	sd	zero,-1376(s0)
    1258:	a8043c23          	sd	zero,-1384(s0)
    125c:	a8043823          	sd	zero,-1392(s0)
    1260:	a8043423          	sd	zero,-1400(s0)
    1264:	aa043423          	sd	zero,-1368(s0)
    1268:	aa043823          	sd	zero,-1360(s0)
    126c:	aa043c23          	sd	zero,-1352(s0)
    1270:	ac043023          	sd	zero,-1344(s0)
    1274:	ac043423          	sd	zero,-1336(s0)
    1278:	ac043823          	sd	zero,-1328(s0)
    127c:	ac043c23          	sd	zero,-1320(s0)
    1280:	ae043023          	sd	zero,-1312(s0)
    1284:	ae043423          	sd	zero,-1304(s0)
    1288:	ae043823          	sd	zero,-1296(s0)
    128c:	ae043c23          	sd	zero,-1288(s0)
    1290:	b0043023          	sd	zero,-1280(s0)
    1294:	b0043423          	sd	zero,-1272(s0)
    1298:	b0043823          	sd	zero,-1264(s0)
    129c:	b0043c23          	sd	zero,-1256(s0)
    12a0:	b2043023          	sd	zero,-1248(s0)
    12a4:	b2043423          	sd	zero,-1240(s0)
    12a8:	b2043823          	sd	zero,-1232(s0)
    12ac:	b2043c23          	sd	zero,-1224(s0)
    12b0:	b4043023          	sd	zero,-1216(s0)
    12b4:	b4043423          	sd	zero,-1208(s0)
    12b8:	b4043823          	sd	zero,-1200(s0)
    12bc:	b4043c23          	sd	zero,-1192(s0)
    12c0:	b6043023          	sd	zero,-1184(s0)
    12c4:	b6043423          	sd	zero,-1176(s0)
    12c8:	b6043823          	sd	zero,-1168(s0)
    12cc:	b6043c23          	sd	zero,-1160(s0)
    12d0:	b8043023          	sd	zero,-1152(s0)
    12d4:	ba043023          	sd	zero,-1120(s0)
    12d8:	b8043c23          	sd	zero,-1128(s0)
    12dc:	b8043823          	sd	zero,-1136(s0)
    12e0:	b8043423          	sd	zero,-1144(s0)
    12e4:	ba043423          	sd	zero,-1112(s0)
    12e8:	ba043823          	sd	zero,-1104(s0)
    12ec:	ba043c23          	sd	zero,-1096(s0)
    12f0:	bc043023          	sd	zero,-1088(s0)
    12f4:	bc043423          	sd	zero,-1080(s0)
    12f8:	bc043823          	sd	zero,-1072(s0)
    12fc:	bc043c23          	sd	zero,-1064(s0)
    1300:	be043023          	sd	zero,-1056(s0)
    1304:	be043423          	sd	zero,-1048(s0)
    1308:	be043823          	sd	zero,-1040(s0)
    130c:	be043c23          	sd	zero,-1032(s0)
    1310:	c0043023          	sd	zero,-1024(s0)
    1314:	c0043423          	sd	zero,-1016(s0)
    1318:	c0043823          	sd	zero,-1008(s0)
    131c:	c0043c23          	sd	zero,-1000(s0)
    1320:	c2043023          	sd	zero,-992(s0)
    1324:	c2043423          	sd	zero,-984(s0)
    1328:	c2043823          	sd	zero,-976(s0)
    132c:	c2043c23          	sd	zero,-968(s0)
    1330:	c4043023          	sd	zero,-960(s0)
    1334:	c4043423          	sd	zero,-952(s0)
    1338:	c4043823          	sd	zero,-944(s0)
    133c:	c4043c23          	sd	zero,-936(s0)
    1340:	c6043023          	sd	zero,-928(s0)
    1344:	c6043423          	sd	zero,-920(s0)
    1348:	c6043823          	sd	zero,-912(s0)
    134c:	c6043c23          	sd	zero,-904(s0)
    1350:	c8043023          	sd	zero,-896(s0)
    1354:	ca043023          	sd	zero,-864(s0)
    1358:	c8043c23          	sd	zero,-872(s0)
    135c:	c8043823          	sd	zero,-880(s0)
    1360:	c8043423          	sd	zero,-888(s0)
    1364:	ca043423          	sd	zero,-856(s0)
    1368:	ca043823          	sd	zero,-848(s0)
    136c:	ca043c23          	sd	zero,-840(s0)
    1370:	cc043023          	sd	zero,-832(s0)
    1374:	cc043423          	sd	zero,-824(s0)
    1378:	cc043823          	sd	zero,-816(s0)
    137c:	cc043c23          	sd	zero,-808(s0)
    1380:	ce043023          	sd	zero,-800(s0)
    1384:	ce043423          	sd	zero,-792(s0)
    1388:	ce043823          	sd	zero,-784(s0)
    138c:	ce043c23          	sd	zero,-776(s0)
    1390:	d0043023          	sd	zero,-768(s0)
    1394:	d0043423          	sd	zero,-760(s0)
    1398:	d0043823          	sd	zero,-752(s0)
    139c:	d0043c23          	sd	zero,-744(s0)
    13a0:	d2043023          	sd	zero,-736(s0)
    13a4:	d2043423          	sd	zero,-728(s0)
    13a8:	d2043823          	sd	zero,-720(s0)
    13ac:	d2043c23          	sd	zero,-712(s0)
    13b0:	d4043023          	sd	zero,-704(s0)
    13b4:	d4043423          	sd	zero,-696(s0)
    13b8:	d4043823          	sd	zero,-688(s0)
    13bc:	d4043c23          	sd	zero,-680(s0)
    13c0:	d6043023          	sd	zero,-672(s0)
    13c4:	d6043423          	sd	zero,-664(s0)
    13c8:	d6043823          	sd	zero,-656(s0)
    13cc:	d6043c23          	sd	zero,-648(s0)
    13d0:	d8043023          	sd	zero,-640(s0)
    13d4:	da043023          	sd	zero,-608(s0)
    13d8:	d8043c23          	sd	zero,-616(s0)
    13dc:	d8043823          	sd	zero,-624(s0)
    13e0:	d8043423          	sd	zero,-632(s0)
    13e4:	da043423          	sd	zero,-600(s0)
    13e8:	da043823          	sd	zero,-592(s0)
    13ec:	da043c23          	sd	zero,-584(s0)
    13f0:	dc043023          	sd	zero,-576(s0)
    13f4:	dc043423          	sd	zero,-568(s0)
    13f8:	dc043823          	sd	zero,-560(s0)
    13fc:	00000093          	li	ra,0
    1400:	de043023          	sd	zero,-544(s0)
    1404:	00000d13          	li	s10,0
    1408:	00000c93          	li	s9,0
    140c:	00000c13          	li	s8,0
    1410:	00000b93          	li	s7,0
    1414:	00000b13          	li	s6,0
    1418:	00000a13          	li	s4,0
    141c:	00000993          	li	s3,0
    1420:	00000713          	li	a4,0
    1424:	00000693          	li	a3,0
    1428:	00000613          	li	a2,0
    142c:	00000593          	li	a1,0
    1430:	00000513          	li	a0,0
    1434:	00000e13          	li	t3,0
    1438:	00000393          	li	t2,0
    143c:	00000313          	li	t1,0
    1440:	00000293          	li	t0,0
    1444:	00000793          	li	a5,0
    1448:	00000893          	li	a7,0
    144c:	00000d93          	li	s11,0
    1450:	00000a93          	li	s5,0

0000000000001454 <.LBB101_5>:
    1454:	f9e43423          	sd	t5,-120(s0)
    1458:	f9d43023          	sd	t4,-128(s0)
    145c:	00001fb7          	lui	t6,0x1
    1460:	41f40fb3          	sub	t6,s0,t6
    1464:	690fb023          	sd	a6,1664(t6) # 1680 <.LBB101_5+0x22c>
    1468:	dc143c23          	sd	ra,-552(s0)
    146c:	dfa43423          	sd	s10,-536(s0)
    1470:	df943823          	sd	s9,-528(s0)
    1474:	df843c23          	sd	s8,-520(s0)
    1478:	e1743023          	sd	s7,-512(s0)
    147c:	e1643423          	sd	s6,-504(s0)
    1480:	e1443823          	sd	s4,-496(s0)
    1484:	e1343c23          	sd	s3,-488(s0)
    1488:	f0e43823          	sd	a4,-240(s0)
    148c:	f0d43c23          	sd	a3,-232(s0)
    1490:	f2c43023          	sd	a2,-224(s0)
    1494:	f2b43423          	sd	a1,-216(s0)
    1498:	f2a43823          	sd	a0,-208(s0)
    149c:	e3c43023          	sd	t3,-480(s0)
    14a0:	e2743423          	sd	t2,-472(s0)
    14a4:	e2643823          	sd	t1,-464(s0)
    14a8:	e2543c23          	sd	t0,-456(s0)
    14ac:	e4f43023          	sd	a5,-448(s0)
    14b0:	e5143423          	sd	a7,-440(s0)
    14b4:	e5b43823          	sd	s11,-432(s0)
    14b8:	e5543c23          	sd	s5,-424(s0)
    14bc:	000e8503          	lb	a0,0(t4)
    14c0:	002f0603          	lb	a2,2(t5)
    14c4:	f2c43c23          	sd	a2,-200(s0)
    14c8:	001f0683          	lb	a3,1(t5)
    14cc:	ead43423          	sd	a3,-344(s0)
    14d0:	000f0703          	lb	a4,0(t5)
    14d4:	003f0783          	lb	a5,3(t5)
    14d8:	eaf43023          	sd	a5,-352(s0)
    14dc:	004f0803          	lb	a6,4(t5)
    14e0:	005f0883          	lb	a7,5(t5)
    14e4:	f5143423          	sd	a7,-184(s0)
    14e8:	006f0083          	lb	ra,6(t5)
    14ec:	007f0283          	lb	t0,7(t5)
    14f0:	f6543023          	sd	t0,-160(s0)
    14f4:	008f0303          	lb	t1,8(t5)
    14f8:	f6643423          	sd	t1,-152(s0)
    14fc:	009f0d03          	lb	s10,9(t5)
    1500:	eba43c23          	sd	s10,-328(s0)
    1504:	00af0483          	lb	s1,10(t5)
    1508:	f4943023          	sd	s1,-192(s0)
    150c:	00bf0a03          	lb	s4,11(t5)
    1510:	e9443423          	sd	s4,-376(s0)
    1514:	00cf0c03          	lb	s8,12(t5)
    1518:	eb843823          	sd	s8,-336(s0)
    151c:	00df0383          	lb	t2,13(t5)
    1520:	f0743423          	sd	t2,-248(s0)
    1524:	00ef0b83          	lb	s7,14(t5)
    1528:	00ff0b03          	lb	s6,15(t5)
    152c:	010f0e83          	lb	t4,16(t5)
    1530:	011f0a83          	lb	s5,17(t5)
    1534:	ef543423          	sd	s5,-280(s0)
    1538:	012f0e03          	lb	t3,18(t5)
    153c:	013f0983          	lb	s3,19(t5)
    1540:	f8843583          	ld	a1,-120(s0)
    1544:	01458c83          	lb	s9,20(a1)
    1548:	f8843583          	ld	a1,-120(s0)
    154c:	01558903          	lb	s2,21(a1)
    1550:	ed243423          	sd	s2,-312(s0)
    1554:	f8843583          	ld	a1,-120(s0)
    1558:	01658f83          	lb	t6,22(a1)
    155c:	edf43823          	sd	t6,-304(s0)
    1560:	f8843583          	ld	a1,-120(s0)
    1564:	01758d83          	lb	s11,23(a1)
    1568:	efb43c23          	sd	s11,-264(s0)
    156c:	f8843583          	ld	a1,-120(s0)
    1570:	01858f03          	lb	t5,24(a1)
    1574:	f7e43823          	sd	t5,-144(s0)
    1578:	02c505b3          	mul	a1,a0,a2
    157c:	00001637          	lui	a2,0x1
    1580:	40c40633          	sub	a2,s0,a2
    1584:	6a063603          	ld	a2,1696(a2) # 16a0 <.LBB101_5+0x24c>
    1588:	00c58633          	add	a2,a1,a2
    158c:	000015b7          	lui	a1,0x1
    1590:	40b405b3          	sub	a1,s0,a1
    1594:	6ac5b023          	sd	a2,1696(a1) # 16a0 <.LBB101_5+0x24c>
    1598:	02d505b3          	mul	a1,a0,a3
    159c:	00001637          	lui	a2,0x1
    15a0:	40c40633          	sub	a2,s0,a2
    15a4:	6b863603          	ld	a2,1720(a2) # 16b8 <.LBB101_5+0x264>
    15a8:	00c58633          	add	a2,a1,a2
    15ac:	000015b7          	lui	a1,0x1
    15b0:	40b405b3          	sub	a1,s0,a1
    15b4:	6ac5bc23          	sd	a2,1720(a1) # 16b8 <.LBB101_5+0x264>
    15b8:	02e505b3          	mul	a1,a0,a4
    15bc:	eee43023          	sd	a4,-288(s0)
    15c0:	00001637          	lui	a2,0x1
    15c4:	40c40633          	sub	a2,s0,a2
    15c8:	6c063603          	ld	a2,1728(a2) # 16c0 <.LBB101_5+0x26c>
    15cc:	00c58633          	add	a2,a1,a2
    15d0:	000015b7          	lui	a1,0x1
    15d4:	40b405b3          	sub	a1,s0,a1
    15d8:	6cc5b023          	sd	a2,1728(a1) # 16c0 <.LBB101_5+0x26c>
    15dc:	02f505b3          	mul	a1,a0,a5
    15e0:	00001637          	lui	a2,0x1
    15e4:	40c40633          	sub	a2,s0,a2
    15e8:	6a863603          	ld	a2,1704(a2) # 16a8 <.LBB101_5+0x254>
    15ec:	00c58633          	add	a2,a1,a2
    15f0:	000015b7          	lui	a1,0x1
    15f4:	40b405b3          	sub	a1,s0,a1
    15f8:	6ac5b423          	sd	a2,1704(a1) # 16a8 <.LBB101_5+0x254>
    15fc:	030505b3          	mul	a1,a0,a6
    1600:	00080793          	mv	a5,a6
    1604:	00001637          	lui	a2,0x1
    1608:	40c40633          	sub	a2,s0,a2
    160c:	6c863603          	ld	a2,1736(a2) # 16c8 <.LBB101_5+0x274>
    1610:	00c58633          	add	a2,a1,a2
    1614:	000015b7          	lui	a1,0x1
    1618:	40b405b3          	sub	a1,s0,a1
    161c:	6cc5b423          	sd	a2,1736(a1) # 16c8 <.LBB101_5+0x274>
    1620:	031505b3          	mul	a1,a0,a7
    1624:	00001637          	lui	a2,0x1
    1628:	40c40633          	sub	a2,s0,a2
    162c:	6b063603          	ld	a2,1712(a2) # 16b0 <.LBB101_5+0x25c>
    1630:	00c58633          	add	a2,a1,a2
    1634:	000015b7          	lui	a1,0x1
    1638:	40b405b3          	sub	a1,s0,a1
    163c:	6ac5b823          	sd	a2,1712(a1) # 16b0 <.LBB101_5+0x25c>
    1640:	021505b3          	mul	a1,a0,ra
    1644:	00001637          	lui	a2,0x1
    1648:	40c40633          	sub	a2,s0,a2
    164c:	69863603          	ld	a2,1688(a2) # 1698 <.LBB101_5+0x244>
    1650:	00c58633          	add	a2,a1,a2
    1654:	000015b7          	lui	a1,0x1
    1658:	40b405b3          	sub	a1,s0,a1
    165c:	68c5bc23          	sd	a2,1688(a1) # 1698 <.LBB101_5+0x244>
    1660:	025505b3          	mul	a1,a0,t0
    1664:	00001637          	lui	a2,0x1
    1668:	40c40633          	sub	a2,s0,a2
    166c:	69063603          	ld	a2,1680(a2) # 1690 <.LBB101_5+0x23c>
    1670:	00c58633          	add	a2,a1,a2
    1674:	000015b7          	lui	a1,0x1
    1678:	40b405b3          	sub	a1,s0,a1
    167c:	68c5b823          	sd	a2,1680(a1) # 1690 <.LBB101_5+0x23c>
    1680:	026505b3          	mul	a1,a0,t1
    1684:	00001637          	lui	a2,0x1
    1688:	40c40633          	sub	a2,s0,a2
    168c:	68863603          	ld	a2,1672(a2) # 1688 <.LBB101_5+0x234>
    1690:	00c58633          	add	a2,a1,a2
    1694:	000015b7          	lui	a1,0x1
    1698:	40b405b3          	sub	a1,s0,a1
    169c:	68c5b423          	sd	a2,1672(a1) # 1688 <.LBB101_5+0x234>
    16a0:	03a505b3          	mul	a1,a0,s10
    16a4:	00001637          	lui	a2,0x1
    16a8:	40c40633          	sub	a2,s0,a2
    16ac:	6d063603          	ld	a2,1744(a2) # 16d0 <.LBB101_5+0x27c>
    16b0:	00c58633          	add	a2,a1,a2
    16b4:	000015b7          	lui	a1,0x1
    16b8:	40b405b3          	sub	a1,s0,a1
    16bc:	6cc5b823          	sd	a2,1744(a1) # 16d0 <.LBB101_5+0x27c>
    16c0:	029505b3          	mul	a1,a0,s1
    16c4:	00001637          	lui	a2,0x1
    16c8:	40c40633          	sub	a2,s0,a2
    16cc:	6d863603          	ld	a2,1752(a2) # 16d8 <.LBB101_5+0x284>
    16d0:	00c58633          	add	a2,a1,a2
    16d4:	000015b7          	lui	a1,0x1
    16d8:	40b405b3          	sub	a1,s0,a1
    16dc:	6cc5bc23          	sd	a2,1752(a1) # 16d8 <.LBB101_5+0x284>
    16e0:	034505b3          	mul	a1,a0,s4
    16e4:	00001637          	lui	a2,0x1
    16e8:	40c40633          	sub	a2,s0,a2
    16ec:	6e063603          	ld	a2,1760(a2) # 16e0 <.LBB101_5+0x28c>
    16f0:	00c58633          	add	a2,a1,a2
    16f4:	000015b7          	lui	a1,0x1
    16f8:	40b405b3          	sub	a1,s0,a1
    16fc:	6ec5b023          	sd	a2,1760(a1) # 16e0 <.LBB101_5+0x28c>
    1700:	038505b3          	mul	a1,a0,s8
    1704:	00001637          	lui	a2,0x1
    1708:	40c40633          	sub	a2,s0,a2
    170c:	6e863603          	ld	a2,1768(a2) # 16e8 <.LBB101_5+0x294>
    1710:	00c58633          	add	a2,a1,a2
    1714:	000015b7          	lui	a1,0x1
    1718:	40b405b3          	sub	a1,s0,a1
    171c:	6ec5b423          	sd	a2,1768(a1) # 16e8 <.LBB101_5+0x294>
    1720:	027505b3          	mul	a1,a0,t2
    1724:	00001637          	lui	a2,0x1
    1728:	40c40633          	sub	a2,s0,a2
    172c:	6f063603          	ld	a2,1776(a2) # 16f0 <.LBB101_5+0x29c>
    1730:	00c58633          	add	a2,a1,a2
    1734:	000015b7          	lui	a1,0x1
    1738:	40b405b3          	sub	a1,s0,a1
    173c:	6ec5b823          	sd	a2,1776(a1) # 16f0 <.LBB101_5+0x29c>
    1740:	037505b3          	mul	a1,a0,s7
    1744:	000b8d13          	mv	s10,s7
    1748:	e9743823          	sd	s7,-368(s0)
    174c:	00001637          	lui	a2,0x1
    1750:	40c40633          	sub	a2,s0,a2
    1754:	6f863603          	ld	a2,1784(a2) # 16f8 <.LBB101_5+0x2a4>
    1758:	00c58633          	add	a2,a1,a2
    175c:	000015b7          	lui	a1,0x1
    1760:	40b405b3          	sub	a1,s0,a1
    1764:	6ec5bc23          	sd	a2,1784(a1) # 16f8 <.LBB101_5+0x2a4>
    1768:	036505b3          	mul	a1,a0,s6
    176c:	000b0a13          	mv	s4,s6
    1770:	ef643823          	sd	s6,-272(s0)
    1774:	00001637          	lui	a2,0x1
    1778:	40c40633          	sub	a2,s0,a2
    177c:	70063603          	ld	a2,1792(a2) # 1700 <.LBB101_5+0x2ac>
    1780:	00c58633          	add	a2,a1,a2
    1784:	000015b7          	lui	a1,0x1
    1788:	40b405b3          	sub	a1,s0,a1
    178c:	70c5b023          	sd	a2,1792(a1) # 1700 <.LBB101_5+0x2ac>
    1790:	03d505b3          	mul	a1,a0,t4
    1794:	000e8b93          	mv	s7,t4
    1798:	00001637          	lui	a2,0x1
    179c:	40c40633          	sub	a2,s0,a2
    17a0:	70863603          	ld	a2,1800(a2) # 1708 <.LBB101_5+0x2b4>
    17a4:	00c58633          	add	a2,a1,a2
    17a8:	000015b7          	lui	a1,0x1
    17ac:	40b405b3          	sub	a1,s0,a1
    17b0:	70c5b423          	sd	a2,1800(a1) # 1708 <.LBB101_5+0x2b4>
    17b4:	035505b3          	mul	a1,a0,s5
    17b8:	00001637          	lui	a2,0x1
    17bc:	40c40633          	sub	a2,s0,a2
    17c0:	71063603          	ld	a2,1808(a2) # 1710 <.LBB101_5+0x2bc>
    17c4:	00c58633          	add	a2,a1,a2
    17c8:	000015b7          	lui	a1,0x1
    17cc:	40b405b3          	sub	a1,s0,a1
    17d0:	70c5b823          	sd	a2,1808(a1) # 1710 <.LBB101_5+0x2bc>
    17d4:	03c505b3          	mul	a1,a0,t3
    17d8:	000e0493          	mv	s1,t3
    17dc:	e9c43c23          	sd	t3,-360(s0)
    17e0:	00001637          	lui	a2,0x1
    17e4:	40c40633          	sub	a2,s0,a2
    17e8:	71863603          	ld	a2,1816(a2) # 1718 <.LBB101_5+0x2c4>
    17ec:	00c58633          	add	a2,a1,a2
    17f0:	000015b7          	lui	a1,0x1
    17f4:	40b405b3          	sub	a1,s0,a1
    17f8:	70c5bc23          	sd	a2,1816(a1) # 1718 <.LBB101_5+0x2c4>
    17fc:	033505b3          	mul	a1,a0,s3
    1800:	00001637          	lui	a2,0x1
    1804:	40c40633          	sub	a2,s0,a2
    1808:	72063603          	ld	a2,1824(a2) # 1720 <.LBB101_5+0x2cc>
    180c:	00c58633          	add	a2,a1,a2
    1810:	000015b7          	lui	a1,0x1
    1814:	40b405b3          	sub	a1,s0,a1
    1818:	72c5b023          	sd	a2,1824(a1) # 1720 <.LBB101_5+0x2cc>
    181c:	000c8293          	mv	t0,s9
    1820:	f1943023          	sd	s9,-256(s0)
    1824:	039505b3          	mul	a1,a0,s9
    1828:	00001637          	lui	a2,0x1
    182c:	40c40633          	sub	a2,s0,a2
    1830:	72863603          	ld	a2,1832(a2) # 1728 <.LBB101_5+0x2d4>
    1834:	00c58633          	add	a2,a1,a2
    1838:	000015b7          	lui	a1,0x1
    183c:	40b405b3          	sub	a1,s0,a1
    1840:	72c5b423          	sd	a2,1832(a1) # 1728 <.LBB101_5+0x2d4>
    1844:	032505b3          	mul	a1,a0,s2
    1848:	00001637          	lui	a2,0x1
    184c:	40c40633          	sub	a2,s0,a2
    1850:	73063603          	ld	a2,1840(a2) # 1730 <.LBB101_5+0x2dc>
    1854:	00c58633          	add	a2,a1,a2
    1858:	000015b7          	lui	a1,0x1
    185c:	40b405b3          	sub	a1,s0,a1
    1860:	72c5b823          	sd	a2,1840(a1) # 1730 <.LBB101_5+0x2dc>
    1864:	03f505b3          	mul	a1,a0,t6
    1868:	00001637          	lui	a2,0x1
    186c:	40c40633          	sub	a2,s0,a2
    1870:	73863603          	ld	a2,1848(a2) # 1738 <.LBB101_5+0x2e4>
    1874:	00c58633          	add	a2,a1,a2
    1878:	000015b7          	lui	a1,0x1
    187c:	40b405b3          	sub	a1,s0,a1
    1880:	72c5bc23          	sd	a2,1848(a1) # 1738 <.LBB101_5+0x2e4>
    1884:	03b505b3          	mul	a1,a0,s11
    1888:	00001637          	lui	a2,0x1
    188c:	40c40633          	sub	a2,s0,a2
    1890:	74063603          	ld	a2,1856(a2) # 1740 <.LBB101_5+0x2ec>
    1894:	00c58633          	add	a2,a1,a2
    1898:	000015b7          	lui	a1,0x1
    189c:	40b405b3          	sub	a1,s0,a1
    18a0:	74c5b023          	sd	a2,1856(a1) # 1740 <.LBB101_5+0x2ec>
    18a4:	f8843583          	ld	a1,-120(s0)
    18a8:	01958683          	lb	a3,25(a1)
    18ac:	f6d43c23          	sd	a3,-136(s0)
    18b0:	03e505b3          	mul	a1,a0,t5
    18b4:	00001637          	lui	a2,0x1
    18b8:	40c40633          	sub	a2,s0,a2
    18bc:	74863603          	ld	a2,1864(a2) # 1748 <.LBB101_5+0x2f4>
    18c0:	00c58633          	add	a2,a1,a2
    18c4:	000015b7          	lui	a1,0x1
    18c8:	40b405b3          	sub	a1,s0,a1
    18cc:	74c5b423          	sd	a2,1864(a1) # 1748 <.LBB101_5+0x2f4>
    18d0:	f8843583          	ld	a1,-120(s0)
    18d4:	01a58d83          	lb	s11,26(a1)
    18d8:	02d505b3          	mul	a1,a0,a3
    18dc:	00001637          	lui	a2,0x1
    18e0:	40c40633          	sub	a2,s0,a2
    18e4:	75063603          	ld	a2,1872(a2) # 1750 <.LBB101_5+0x2fc>
    18e8:	00c58633          	add	a2,a1,a2
    18ec:	000015b7          	lui	a1,0x1
    18f0:	40b405b3          	sub	a1,s0,a1
    18f4:	74c5b823          	sd	a2,1872(a1) # 1750 <.LBB101_5+0x2fc>
    18f8:	f8843583          	ld	a1,-120(s0)
    18fc:	01b58683          	lb	a3,27(a1)
    1900:	000015b7          	lui	a1,0x1
    1904:	40b405b3          	sub	a1,s0,a1
    1908:	66d5bc23          	sd	a3,1656(a1) # 1678 <.LBB101_5+0x224>
    190c:	03b505b3          	mul	a1,a0,s11
    1910:	edb43023          	sd	s11,-320(s0)
    1914:	00001637          	lui	a2,0x1
    1918:	40c40633          	sub	a2,s0,a2
    191c:	75863603          	ld	a2,1880(a2) # 1758 <.LBB101_5+0x304>
    1920:	00c58633          	add	a2,a1,a2
    1924:	000015b7          	lui	a1,0x1
    1928:	40b405b3          	sub	a1,s0,a1
    192c:	74c5bc23          	sd	a2,1880(a1) # 1758 <.LBB101_5+0x304>
    1930:	f8843583          	ld	a1,-120(s0)
    1934:	01c58903          	lb	s2,28(a1)
    1938:	02d505b3          	mul	a1,a0,a3
    193c:	00001637          	lui	a2,0x1
    1940:	40c40633          	sub	a2,s0,a2
    1944:	76063603          	ld	a2,1888(a2) # 1760 <.LBB101_5+0x30c>
    1948:	00c58633          	add	a2,a1,a2
    194c:	000015b7          	lui	a1,0x1
    1950:	40b405b3          	sub	a1,s0,a1
    1954:	76c5b023          	sd	a2,1888(a1) # 1760 <.LBB101_5+0x30c>
    1958:	f8843583          	ld	a1,-120(s0)
    195c:	01d58683          	lb	a3,29(a1)
    1960:	032505b3          	mul	a1,a0,s2
    1964:	00001637          	lui	a2,0x1
    1968:	40c40633          	sub	a2,s0,a2
    196c:	76863603          	ld	a2,1896(a2) # 1768 <.LBB101_5+0x314>
    1970:	00c58633          	add	a2,a1,a2
    1974:	000015b7          	lui	a1,0x1
    1978:	40b405b3          	sub	a1,s0,a1
    197c:	76c5b423          	sd	a2,1896(a1) # 1768 <.LBB101_5+0x314>
    1980:	f8843583          	ld	a1,-120(s0)
    1984:	01e58383          	lb	t2,30(a1)
    1988:	02d505b3          	mul	a1,a0,a3
    198c:	00068e93          	mv	t4,a3
    1990:	e8d43023          	sd	a3,-384(s0)
    1994:	00001637          	lui	a2,0x1
    1998:	40c40633          	sub	a2,s0,a2
    199c:	77063603          	ld	a2,1904(a2) # 1770 <.LBB101_5+0x31c>
    19a0:	00c58633          	add	a2,a1,a2
    19a4:	000015b7          	lui	a1,0x1
    19a8:	40b405b3          	sub	a1,s0,a1
    19ac:	76c5b823          	sd	a2,1904(a1) # 1770 <.LBB101_5+0x31c>
    19b0:	f8843583          	ld	a1,-120(s0)
    19b4:	01f58683          	lb	a3,31(a1)
    19b8:	f8043583          	ld	a1,-128(s0)
    19bc:	3c058583          	lb	a1,960(a1)
    19c0:	02750ab3          	mul	s5,a0,t2
    19c4:	00001637          	lui	a2,0x1
    19c8:	40c40633          	sub	a2,s0,a2
    19cc:	77863603          	ld	a2,1912(a2) # 1778 <.LBB101_5+0x324>
    19d0:	00ca8633          	add	a2,s5,a2
    19d4:	00001837          	lui	a6,0x1
    19d8:	41040833          	sub	a6,s0,a6
    19dc:	76c83c23          	sd	a2,1912(a6) # 1778 <.LBB101_5+0x324>
    19e0:	02d50533          	mul	a0,a0,a3
    19e4:	00068b13          	mv	s6,a3
    19e8:	00001637          	lui	a2,0x1
    19ec:	40c40633          	sub	a2,s0,a2
    19f0:	78063603          	ld	a2,1920(a2) # 1780 <.LBB101_5+0x32c>
    19f4:	00c50633          	add	a2,a0,a2
    19f8:	00001537          	lui	a0,0x1
    19fc:	40a40533          	sub	a0,s0,a0
    1a00:	78c53023          	sd	a2,1920(a0) # 1780 <.LBB101_5+0x32c>
    1a04:	02e58533          	mul	a0,a1,a4
    1a08:	00001637          	lui	a2,0x1
    1a0c:	40c40633          	sub	a2,s0,a2
    1a10:	7a063603          	ld	a2,1952(a2) # 17a0 <.LBB101_5+0x34c>
    1a14:	00c50633          	add	a2,a0,a2
    1a18:	00001537          	lui	a0,0x1
    1a1c:	40a40533          	sub	a0,s0,a0
    1a20:	7ac53023          	sd	a2,1952(a0) # 17a0 <.LBB101_5+0x34c>
    1a24:	ea843303          	ld	t1,-344(s0)
    1a28:	02658533          	mul	a0,a1,t1
    1a2c:	00001637          	lui	a2,0x1
    1a30:	40c40633          	sub	a2,s0,a2
    1a34:	79863603          	ld	a2,1944(a2) # 1798 <.LBB101_5+0x344>
    1a38:	00c50633          	add	a2,a0,a2
    1a3c:	00001537          	lui	a0,0x1
    1a40:	40a40533          	sub	a0,s0,a0
    1a44:	78c53c23          	sd	a2,1944(a0) # 1798 <.LBB101_5+0x344>
    1a48:	f3843803          	ld	a6,-200(s0)
    1a4c:	03058533          	mul	a0,a1,a6
    1a50:	00001637          	lui	a2,0x1
    1a54:	40c40633          	sub	a2,s0,a2
    1a58:	79063603          	ld	a2,1936(a2) # 1790 <.LBB101_5+0x33c>
    1a5c:	00c50633          	add	a2,a0,a2
    1a60:	00001537          	lui	a0,0x1
    1a64:	40a40533          	sub	a0,s0,a0
    1a68:	78c53823          	sd	a2,1936(a0) # 1790 <.LBB101_5+0x33c>
    1a6c:	ea043883          	ld	a7,-352(s0)
    1a70:	03158533          	mul	a0,a1,a7
    1a74:	00001637          	lui	a2,0x1
    1a78:	40c40633          	sub	a2,s0,a2
    1a7c:	78863603          	ld	a2,1928(a2) # 1788 <.LBB101_5+0x334>
    1a80:	00c50633          	add	a2,a0,a2
    1a84:	00001537          	lui	a0,0x1
    1a88:	40a40533          	sub	a0,s0,a0
    1a8c:	78c53423          	sd	a2,1928(a0) # 1788 <.LBB101_5+0x334>
    1a90:	f4f43823          	sd	a5,-176(s0)
    1a94:	02f58533          	mul	a0,a1,a5
    1a98:	00001637          	lui	a2,0x1
    1a9c:	40c40633          	sub	a2,s0,a2
    1aa0:	7a863603          	ld	a2,1960(a2) # 17a8 <.LBB101_5+0x354>
    1aa4:	00c50633          	add	a2,a0,a2
    1aa8:	00001537          	lui	a0,0x1
    1aac:	40a40533          	sub	a0,s0,a0
    1ab0:	7ac53423          	sd	a2,1960(a0) # 17a8 <.LBB101_5+0x354>
    1ab4:	f4843683          	ld	a3,-184(s0)
    1ab8:	02d58533          	mul	a0,a1,a3
    1abc:	00001637          	lui	a2,0x1
    1ac0:	40c40633          	sub	a2,s0,a2
    1ac4:	7b063603          	ld	a2,1968(a2) # 17b0 <.LBB101_5+0x35c>
    1ac8:	00c50633          	add	a2,a0,a2
    1acc:	00001537          	lui	a0,0x1
    1ad0:	40a40533          	sub	a0,s0,a0
    1ad4:	7ac53823          	sd	a2,1968(a0) # 17b0 <.LBB101_5+0x35c>
    1ad8:	00008c13          	mv	s8,ra
    1adc:	f4143c23          	sd	ra,-168(s0)
    1ae0:	02158533          	mul	a0,a1,ra
    1ae4:	00001637          	lui	a2,0x1
    1ae8:	40c40633          	sub	a2,s0,a2
    1aec:	7b863603          	ld	a2,1976(a2) # 17b8 <.LBB101_5+0x364>
    1af0:	00c50633          	add	a2,a0,a2
    1af4:	00001537          	lui	a0,0x1
    1af8:	40a40533          	sub	a0,s0,a0
    1afc:	7ac53c23          	sd	a2,1976(a0) # 17b8 <.LBB101_5+0x364>
    1b00:	f6043083          	ld	ra,-160(s0)
    1b04:	02158533          	mul	a0,a1,ra
    1b08:	00001637          	lui	a2,0x1
    1b0c:	40c40633          	sub	a2,s0,a2
    1b10:	7c063603          	ld	a2,1984(a2) # 17c0 <.LBB101_5+0x36c>
    1b14:	00c50633          	add	a2,a0,a2
    1b18:	00001537          	lui	a0,0x1
    1b1c:	40a40533          	sub	a0,s0,a0
    1b20:	7cc53023          	sd	a2,1984(a0) # 17c0 <.LBB101_5+0x36c>
    1b24:	f6843f83          	ld	t6,-152(s0)
    1b28:	03f58533          	mul	a0,a1,t6
    1b2c:	00001637          	lui	a2,0x1
    1b30:	40c40633          	sub	a2,s0,a2
    1b34:	7c863603          	ld	a2,1992(a2) # 17c8 <.LBB101_5+0x374>
    1b38:	00c50633          	add	a2,a0,a2
    1b3c:	00001537          	lui	a0,0x1
    1b40:	40a40533          	sub	a0,s0,a0
    1b44:	7cc53423          	sd	a2,1992(a0) # 17c8 <.LBB101_5+0x374>
    1b48:	eb843c83          	ld	s9,-328(s0)
    1b4c:	03958533          	mul	a0,a1,s9
    1b50:	00001637          	lui	a2,0x1
    1b54:	40c40633          	sub	a2,s0,a2
    1b58:	7d063603          	ld	a2,2000(a2) # 17d0 <.LBB101_5+0x37c>
    1b5c:	00c50633          	add	a2,a0,a2
    1b60:	00001537          	lui	a0,0x1
    1b64:	40a40533          	sub	a0,s0,a0
    1b68:	7cc53823          	sd	a2,2000(a0) # 17d0 <.LBB101_5+0x37c>
    1b6c:	f4043503          	ld	a0,-192(s0)
    1b70:	02a58533          	mul	a0,a1,a0
    1b74:	00001637          	lui	a2,0x1
    1b78:	40c40633          	sub	a2,s0,a2
    1b7c:	7d863603          	ld	a2,2008(a2) # 17d8 <.LBB101_5+0x384>
    1b80:	00c50633          	add	a2,a0,a2
    1b84:	00001537          	lui	a0,0x1
    1b88:	40a40533          	sub	a0,s0,a0
    1b8c:	7cc53c23          	sd	a2,2008(a0) # 17d8 <.LBB101_5+0x384>
    1b90:	e8843e03          	ld	t3,-376(s0)
    1b94:	03c58533          	mul	a0,a1,t3
    1b98:	00001637          	lui	a2,0x1
    1b9c:	40c40633          	sub	a2,s0,a2
    1ba0:	7e063603          	ld	a2,2016(a2) # 17e0 <.LBB101_5+0x38c>
    1ba4:	00c50633          	add	a2,a0,a2
    1ba8:	00001537          	lui	a0,0x1
    1bac:	40a40533          	sub	a0,s0,a0
    1bb0:	7ec53023          	sd	a2,2016(a0) # 17e0 <.LBB101_5+0x38c>
    1bb4:	eb043f03          	ld	t5,-336(s0)
    1bb8:	03e58533          	mul	a0,a1,t5
    1bbc:	00001637          	lui	a2,0x1
    1bc0:	40c40633          	sub	a2,s0,a2
    1bc4:	7e863603          	ld	a2,2024(a2) # 17e8 <.LBB101_5+0x394>
    1bc8:	00c50633          	add	a2,a0,a2
    1bcc:	00001537          	lui	a0,0x1
    1bd0:	40a40533          	sub	a0,s0,a0
    1bd4:	7ec53423          	sd	a2,2024(a0) # 17e8 <.LBB101_5+0x394>
    1bd8:	f0843503          	ld	a0,-248(s0)
    1bdc:	02a58533          	mul	a0,a1,a0
    1be0:	00001637          	lui	a2,0x1
    1be4:	40c40633          	sub	a2,s0,a2
    1be8:	7f063603          	ld	a2,2032(a2) # 17f0 <.LBB101_5+0x39c>
    1bec:	00c50633          	add	a2,a0,a2
    1bf0:	00001537          	lui	a0,0x1
    1bf4:	40a40533          	sub	a0,s0,a0
    1bf8:	7ec53823          	sd	a2,2032(a0) # 17f0 <.LBB101_5+0x39c>
    1bfc:	03a58533          	mul	a0,a1,s10
    1c00:	00001637          	lui	a2,0x1
    1c04:	40c40633          	sub	a2,s0,a2
    1c08:	7f863603          	ld	a2,2040(a2) # 17f8 <.LBB101_5+0x3a4>
    1c0c:	00c50633          	add	a2,a0,a2
    1c10:	00001537          	lui	a0,0x1
    1c14:	40a40533          	sub	a0,s0,a0
    1c18:	7ec53c23          	sd	a2,2040(a0) # 17f8 <.LBB101_5+0x3a4>
    1c1c:	03458533          	mul	a0,a1,s4
    1c20:	80043603          	ld	a2,-2048(s0)
    1c24:	00c50633          	add	a2,a0,a2
    1c28:	80c43023          	sd	a2,-2048(s0)
    1c2c:	03758533          	mul	a0,a1,s7
    1c30:	e7743823          	sd	s7,-400(s0)
    1c34:	80843603          	ld	a2,-2040(s0)
    1c38:	00c50633          	add	a2,a0,a2
    1c3c:	80c43423          	sd	a2,-2040(s0)
    1c40:	ee843703          	ld	a4,-280(s0)
    1c44:	02e58533          	mul	a0,a1,a4
    1c48:	81043603          	ld	a2,-2032(s0)
    1c4c:	00c50633          	add	a2,a0,a2
    1c50:	80c43823          	sd	a2,-2032(s0)
    1c54:	02958533          	mul	a0,a1,s1
    1c58:	81843603          	ld	a2,-2024(s0)
    1c5c:	00c50633          	add	a2,a0,a2
    1c60:	80c43c23          	sd	a2,-2024(s0)
    1c64:	03358533          	mul	a0,a1,s3
    1c68:	82043603          	ld	a2,-2016(s0)
    1c6c:	00c50633          	add	a2,a0,a2
    1c70:	82c43023          	sd	a2,-2016(s0)
    1c74:	02558533          	mul	a0,a1,t0
    1c78:	82843603          	ld	a2,-2008(s0)
    1c7c:	00c50633          	add	a2,a0,a2
    1c80:	82c43423          	sd	a2,-2008(s0)
    1c84:	ec843d03          	ld	s10,-312(s0)
    1c88:	03a58533          	mul	a0,a1,s10
    1c8c:	83043603          	ld	a2,-2000(s0)
    1c90:	00c50633          	add	a2,a0,a2
    1c94:	82c43823          	sd	a2,-2000(s0)
    1c98:	ed043483          	ld	s1,-304(s0)
    1c9c:	02958533          	mul	a0,a1,s1
    1ca0:	83843603          	ld	a2,-1992(s0)
    1ca4:	00c50633          	add	a2,a0,a2
    1ca8:	82c43c23          	sd	a2,-1992(s0)
    1cac:	ef843a03          	ld	s4,-264(s0)
    1cb0:	03458533          	mul	a0,a1,s4
    1cb4:	84043603          	ld	a2,-1984(s0)
    1cb8:	00c50633          	add	a2,a0,a2
    1cbc:	84c43023          	sd	a2,-1984(s0)
    1cc0:	f7043503          	ld	a0,-144(s0)
    1cc4:	02a58533          	mul	a0,a1,a0
    1cc8:	84843603          	ld	a2,-1976(s0)
    1ccc:	00c50633          	add	a2,a0,a2
    1cd0:	84c43423          	sd	a2,-1976(s0)
    1cd4:	f7843503          	ld	a0,-136(s0)
    1cd8:	02a58533          	mul	a0,a1,a0
    1cdc:	85043603          	ld	a2,-1968(s0)
    1ce0:	00c50633          	add	a2,a0,a2
    1ce4:	84c43823          	sd	a2,-1968(s0)
    1ce8:	03b58533          	mul	a0,a1,s11
    1cec:	85843603          	ld	a2,-1960(s0)
    1cf0:	00c50633          	add	a2,a0,a2
    1cf4:	84c43c23          	sd	a2,-1960(s0)
    1cf8:	00001537          	lui	a0,0x1
    1cfc:	40a40533          	sub	a0,s0,a0
    1d00:	67853283          	ld	t0,1656(a0) # 1678 <.LBB101_5+0x224>
    1d04:	02558533          	mul	a0,a1,t0
    1d08:	86043603          	ld	a2,-1952(s0)
    1d0c:	00c50633          	add	a2,a0,a2
    1d10:	86c43023          	sd	a2,-1952(s0)
    1d14:	03258533          	mul	a0,a1,s2
    1d18:	00090d93          	mv	s11,s2
    1d1c:	ed243c23          	sd	s2,-296(s0)
    1d20:	86843603          	ld	a2,-1944(s0)
    1d24:	00c50633          	add	a2,a0,a2
    1d28:	86c43423          	sd	a2,-1944(s0)
    1d2c:	03d58533          	mul	a0,a1,t4
    1d30:	87043603          	ld	a2,-1936(s0)
    1d34:	00c50633          	add	a2,a0,a2
    1d38:	86c43823          	sd	a2,-1936(s0)
    1d3c:	f8043503          	ld	a0,-128(s0)
    1d40:	78050503          	lb	a0,1920(a0)
    1d44:	02758ab3          	mul	s5,a1,t2
    1d48:	00038e93          	mv	t4,t2
    1d4c:	e6743c23          	sd	t2,-392(s0)
    1d50:	87843603          	ld	a2,-1928(s0)
    1d54:	00ca8633          	add	a2,s5,a2
    1d58:	86c43c23          	sd	a2,-1928(s0)
    1d5c:	036585b3          	mul	a1,a1,s6
    1d60:	88043603          	ld	a2,-1920(s0)
    1d64:	00c58633          	add	a2,a1,a2
    1d68:	88c43023          	sd	a2,-1920(s0)
    1d6c:	ee043583          	ld	a1,-288(s0)
    1d70:	02b505b3          	mul	a1,a0,a1
    1d74:	8a043603          	ld	a2,-1888(s0)
    1d78:	00c58633          	add	a2,a1,a2
    1d7c:	8ac43023          	sd	a2,-1888(s0)
    1d80:	026505b3          	mul	a1,a0,t1
    1d84:	89843603          	ld	a2,-1896(s0)
    1d88:	00c58633          	add	a2,a1,a2
    1d8c:	88c43c23          	sd	a2,-1896(s0)
    1d90:	030505b3          	mul	a1,a0,a6
    1d94:	89043603          	ld	a2,-1904(s0)
    1d98:	00c58633          	add	a2,a1,a2
    1d9c:	88c43823          	sd	a2,-1904(s0)
    1da0:	031505b3          	mul	a1,a0,a7
    1da4:	88843603          	ld	a2,-1912(s0)
    1da8:	00c58633          	add	a2,a1,a2
    1dac:	88c43423          	sd	a2,-1912(s0)
    1db0:	02f505b3          	mul	a1,a0,a5
    1db4:	8a843603          	ld	a2,-1880(s0)
    1db8:	00c58633          	add	a2,a1,a2
    1dbc:	8ac43423          	sd	a2,-1880(s0)
    1dc0:	02d505b3          	mul	a1,a0,a3
    1dc4:	8b043603          	ld	a2,-1872(s0)
    1dc8:	00c58633          	add	a2,a1,a2
    1dcc:	8ac43823          	sd	a2,-1872(s0)
    1dd0:	038505b3          	mul	a1,a0,s8
    1dd4:	8b843603          	ld	a2,-1864(s0)
    1dd8:	00c58633          	add	a2,a1,a2
    1ddc:	8ac43c23          	sd	a2,-1864(s0)
    1de0:	021505b3          	mul	a1,a0,ra
    1de4:	8c043603          	ld	a2,-1856(s0)
    1de8:	00c58633          	add	a2,a1,a2
    1dec:	8cc43023          	sd	a2,-1856(s0)
    1df0:	03f505b3          	mul	a1,a0,t6
    1df4:	8c843603          	ld	a2,-1848(s0)
    1df8:	00c58633          	add	a2,a1,a2
    1dfc:	8cc43423          	sd	a2,-1848(s0)
    1e00:	039505b3          	mul	a1,a0,s9
    1e04:	8d043603          	ld	a2,-1840(s0)
    1e08:	00c58633          	add	a2,a1,a2
    1e0c:	8cc43823          	sd	a2,-1840(s0)
    1e10:	f4043903          	ld	s2,-192(s0)
    1e14:	032505b3          	mul	a1,a0,s2
    1e18:	8d843603          	ld	a2,-1832(s0)
    1e1c:	00c58633          	add	a2,a1,a2
    1e20:	8cc43c23          	sd	a2,-1832(s0)
    1e24:	03c505b3          	mul	a1,a0,t3
    1e28:	000e0a93          	mv	s5,t3
    1e2c:	8e043603          	ld	a2,-1824(s0)
    1e30:	00c58633          	add	a2,a1,a2
    1e34:	8ec43023          	sd	a2,-1824(s0)
    1e38:	03e505b3          	mul	a1,a0,t5
    1e3c:	8e843603          	ld	a2,-1816(s0)
    1e40:	00c58633          	add	a2,a1,a2
    1e44:	8ec43423          	sd	a2,-1816(s0)
    1e48:	f0843383          	ld	t2,-248(s0)
    1e4c:	027505b3          	mul	a1,a0,t2
    1e50:	8f043603          	ld	a2,-1808(s0)
    1e54:	00c58633          	add	a2,a1,a2
    1e58:	8ec43823          	sd	a2,-1808(s0)
    1e5c:	e9043803          	ld	a6,-368(s0)
    1e60:	030505b3          	mul	a1,a0,a6
    1e64:	8f843603          	ld	a2,-1800(s0)
    1e68:	00c58633          	add	a2,a1,a2
    1e6c:	8ec43c23          	sd	a2,-1800(s0)
    1e70:	ef043783          	ld	a5,-272(s0)
    1e74:	02f505b3          	mul	a1,a0,a5
    1e78:	90043603          	ld	a2,-1792(s0)
    1e7c:	00c58633          	add	a2,a1,a2
    1e80:	90c43023          	sd	a2,-1792(s0)
    1e84:	037505b3          	mul	a1,a0,s7
    1e88:	90843603          	ld	a2,-1784(s0)
    1e8c:	00c58633          	add	a2,a1,a2
    1e90:	90c43423          	sd	a2,-1784(s0)
    1e94:	02e505b3          	mul	a1,a0,a4
    1e98:	00070093          	mv	ra,a4
    1e9c:	91043603          	ld	a2,-1776(s0)
    1ea0:	00c58633          	add	a2,a1,a2
    1ea4:	90c43823          	sd	a2,-1776(s0)
    1ea8:	e9843583          	ld	a1,-360(s0)
    1eac:	02b505b3          	mul	a1,a0,a1
    1eb0:	91843603          	ld	a2,-1768(s0)
    1eb4:	00c58633          	add	a2,a1,a2
    1eb8:	90c43c23          	sd	a2,-1768(s0)
    1ebc:	033505b3          	mul	a1,a0,s3
    1ec0:	00098f93          	mv	t6,s3
    1ec4:	00001637          	lui	a2,0x1
    1ec8:	40c40633          	sub	a2,s0,a2
    1ecc:	67363823          	sd	s3,1648(a2) # 1670 <.LBB101_5+0x21c>
    1ed0:	92043603          	ld	a2,-1760(s0)
    1ed4:	00c58633          	add	a2,a1,a2
    1ed8:	92c43023          	sd	a2,-1760(s0)
    1edc:	f0043583          	ld	a1,-256(s0)
    1ee0:	02b505b3          	mul	a1,a0,a1
    1ee4:	92843603          	ld	a2,-1752(s0)
    1ee8:	00c58633          	add	a2,a1,a2
    1eec:	92c43423          	sd	a2,-1752(s0)
    1ef0:	03a505b3          	mul	a1,a0,s10
    1ef4:	93043603          	ld	a2,-1744(s0)
    1ef8:	00c58633          	add	a2,a1,a2
    1efc:	92c43823          	sd	a2,-1744(s0)
    1f00:	029505b3          	mul	a1,a0,s1
    1f04:	00048b93          	mv	s7,s1
    1f08:	93843603          	ld	a2,-1736(s0)
    1f0c:	00c58633          	add	a2,a1,a2
    1f10:	92c43c23          	sd	a2,-1736(s0)
    1f14:	034505b3          	mul	a1,a0,s4
    1f18:	94043603          	ld	a2,-1728(s0)
    1f1c:	00c58633          	add	a2,a1,a2
    1f20:	94c43023          	sd	a2,-1728(s0)
    1f24:	f7043683          	ld	a3,-144(s0)
    1f28:	02d505b3          	mul	a1,a0,a3
    1f2c:	94843603          	ld	a2,-1720(s0)
    1f30:	00c58633          	add	a2,a1,a2
    1f34:	94c43423          	sd	a2,-1720(s0)
    1f38:	f7843a03          	ld	s4,-136(s0)
    1f3c:	034505b3          	mul	a1,a0,s4
    1f40:	95043603          	ld	a2,-1712(s0)
    1f44:	00c58633          	add	a2,a1,a2
    1f48:	94c43823          	sd	a2,-1712(s0)
    1f4c:	ec043f03          	ld	t5,-320(s0)
    1f50:	03e505b3          	mul	a1,a0,t5
    1f54:	95843603          	ld	a2,-1704(s0)
    1f58:	00c58633          	add	a2,a1,a2
    1f5c:	94c43c23          	sd	a2,-1704(s0)
    1f60:	00028893          	mv	a7,t0
    1f64:	025505b3          	mul	a1,a0,t0
    1f68:	96043603          	ld	a2,-1696(s0)
    1f6c:	00c58633          	add	a2,a1,a2
    1f70:	96c43023          	sd	a2,-1696(s0)
    1f74:	03b505b3          	mul	a1,a0,s11
    1f78:	96843603          	ld	a2,-1688(s0)
    1f7c:	00c58633          	add	a2,a1,a2
    1f80:	96c43423          	sd	a2,-1688(s0)
    1f84:	e8043703          	ld	a4,-384(s0)
    1f88:	02e505b3          	mul	a1,a0,a4
    1f8c:	97043603          	ld	a2,-1680(s0)
    1f90:	00c58633          	add	a2,a1,a2
    1f94:	96c43823          	sd	a2,-1680(s0)
    1f98:	f8043583          	ld	a1,-128(s0)
    1f9c:	7ff58c13          	addi	s8,a1,2047
    1fa0:	341c0583          	lb	a1,833(s8)
    1fa4:	03d50db3          	mul	s11,a0,t4
    1fa8:	97843603          	ld	a2,-1672(s0)
    1fac:	00cd8633          	add	a2,s11,a2
    1fb0:	96c43c23          	sd	a2,-1672(s0)
    1fb4:	03650533          	mul	a0,a0,s6
    1fb8:	e7643423          	sd	s6,-408(s0)
    1fbc:	98043603          	ld	a2,-1664(s0)
    1fc0:	00c50633          	add	a2,a0,a2
    1fc4:	98c43023          	sd	a2,-1664(s0)
    1fc8:	ee043e03          	ld	t3,-288(s0)
    1fcc:	03c58533          	mul	a0,a1,t3
    1fd0:	9a043603          	ld	a2,-1632(s0)
    1fd4:	00c50633          	add	a2,a0,a2
    1fd8:	9ac43023          	sd	a2,-1632(s0)
    1fdc:	02658533          	mul	a0,a1,t1
    1fe0:	99843603          	ld	a2,-1640(s0)
    1fe4:	00c50633          	add	a2,a0,a2
    1fe8:	98c43c23          	sd	a2,-1640(s0)
    1fec:	f3843d03          	ld	s10,-200(s0)
    1ff0:	03a58533          	mul	a0,a1,s10
    1ff4:	99043603          	ld	a2,-1648(s0)
    1ff8:	00c50633          	add	a2,a0,a2
    1ffc:	98c43823          	sd	a2,-1648(s0)
    2000:	ea043983          	ld	s3,-352(s0)
    2004:	03358533          	mul	a0,a1,s3
    2008:	98843603          	ld	a2,-1656(s0)
    200c:	00c50633          	add	a2,a0,a2
    2010:	98c43423          	sd	a2,-1656(s0)
    2014:	f5043503          	ld	a0,-176(s0)
    2018:	02a58533          	mul	a0,a1,a0
    201c:	9a843603          	ld	a2,-1624(s0)
    2020:	00c50633          	add	a2,a0,a2
    2024:	9ac43423          	sd	a2,-1624(s0)
    2028:	f4843503          	ld	a0,-184(s0)
    202c:	02a58533          	mul	a0,a1,a0
    2030:	9b043603          	ld	a2,-1616(s0)
    2034:	00c50633          	add	a2,a0,a2
    2038:	9ac43823          	sd	a2,-1616(s0)
    203c:	f5843503          	ld	a0,-168(s0)
    2040:	02a58533          	mul	a0,a1,a0
    2044:	9b843603          	ld	a2,-1608(s0)
    2048:	00c50633          	add	a2,a0,a2
    204c:	9ac43c23          	sd	a2,-1608(s0)
    2050:	f6043503          	ld	a0,-160(s0)
    2054:	02a58533          	mul	a0,a1,a0
    2058:	9c043603          	ld	a2,-1600(s0)
    205c:	00c50633          	add	a2,a0,a2
    2060:	9cc43023          	sd	a2,-1600(s0)
    2064:	f6843503          	ld	a0,-152(s0)
    2068:	02a58533          	mul	a0,a1,a0
    206c:	9c843603          	ld	a2,-1592(s0)
    2070:	00c50633          	add	a2,a0,a2
    2074:	9cc43423          	sd	a2,-1592(s0)
    2078:	03958533          	mul	a0,a1,s9
    207c:	9d043603          	ld	a2,-1584(s0)
    2080:	00c50633          	add	a2,a0,a2
    2084:	9cc43823          	sd	a2,-1584(s0)
    2088:	03258533          	mul	a0,a1,s2
    208c:	9d843603          	ld	a2,-1576(s0)
    2090:	00c50633          	add	a2,a0,a2
    2094:	9cc43c23          	sd	a2,-1576(s0)
    2098:	03558533          	mul	a0,a1,s5
    209c:	9e043603          	ld	a2,-1568(s0)
    20a0:	00c50633          	add	a2,a0,a2
    20a4:	9ec43023          	sd	a2,-1568(s0)
    20a8:	eb043c83          	ld	s9,-336(s0)
    20ac:	03958533          	mul	a0,a1,s9
    20b0:	9e843603          	ld	a2,-1560(s0)
    20b4:	00c50633          	add	a2,a0,a2
    20b8:	9ec43423          	sd	a2,-1560(s0)
    20bc:	00038493          	mv	s1,t2
    20c0:	02758533          	mul	a0,a1,t2
    20c4:	9f043603          	ld	a2,-1552(s0)
    20c8:	00c50633          	add	a2,a0,a2
    20cc:	9ec43823          	sd	a2,-1552(s0)
    20d0:	00080293          	mv	t0,a6
    20d4:	03058533          	mul	a0,a1,a6
    20d8:	9f843603          	ld	a2,-1544(s0)
    20dc:	00c50633          	add	a2,a0,a2
    20e0:	9ec43c23          	sd	a2,-1544(s0)
    20e4:	02f58533          	mul	a0,a1,a5
    20e8:	a0043603          	ld	a2,-1536(s0)
    20ec:	00c50633          	add	a2,a0,a2
    20f0:	a0c43023          	sd	a2,-1536(s0)
    20f4:	e7043903          	ld	s2,-400(s0)
    20f8:	03258533          	mul	a0,a1,s2
    20fc:	a0843603          	ld	a2,-1528(s0)
    2100:	00c50633          	add	a2,a0,a2
    2104:	a0c43423          	sd	a2,-1528(s0)
    2108:	02158533          	mul	a0,a1,ra
    210c:	a1043603          	ld	a2,-1520(s0)
    2110:	00c50633          	add	a2,a0,a2
    2114:	a0c43823          	sd	a2,-1520(s0)
    2118:	e9843083          	ld	ra,-360(s0)
    211c:	02158533          	mul	a0,a1,ra
    2120:	a1843603          	ld	a2,-1512(s0)
    2124:	00c50633          	add	a2,a0,a2
    2128:	a0c43c23          	sd	a2,-1512(s0)
    212c:	03f58533          	mul	a0,a1,t6
    2130:	a2043603          	ld	a2,-1504(s0)
    2134:	00c50633          	add	a2,a0,a2
    2138:	a2c43023          	sd	a2,-1504(s0)
    213c:	f0043503          	ld	a0,-256(s0)
    2140:	02a58533          	mul	a0,a1,a0
    2144:	a2843603          	ld	a2,-1496(s0)
    2148:	00c50633          	add	a2,a0,a2
    214c:	a2c43423          	sd	a2,-1496(s0)
    2150:	ec843e83          	ld	t4,-312(s0)
    2154:	03d58533          	mul	a0,a1,t4
    2158:	a3043603          	ld	a2,-1488(s0)
    215c:	00c50633          	add	a2,a0,a2
    2160:	a2c43823          	sd	a2,-1488(s0)
    2164:	03758533          	mul	a0,a1,s7
    2168:	a3843603          	ld	a2,-1480(s0)
    216c:	00c50633          	add	a2,a0,a2
    2170:	a2c43c23          	sd	a2,-1480(s0)
    2174:	ef843503          	ld	a0,-264(s0)
    2178:	02a58533          	mul	a0,a1,a0
    217c:	a4043603          	ld	a2,-1472(s0)
    2180:	00c50633          	add	a2,a0,a2
    2184:	a4c43023          	sd	a2,-1472(s0)
    2188:	02d58533          	mul	a0,a1,a3
    218c:	a4843603          	ld	a2,-1464(s0)
    2190:	00c50633          	add	a2,a0,a2
    2194:	a4c43423          	sd	a2,-1464(s0)
    2198:	03458533          	mul	a0,a1,s4
    219c:	a5043603          	ld	a2,-1456(s0)
    21a0:	00c50633          	add	a2,a0,a2
    21a4:	a4c43823          	sd	a2,-1456(s0)
    21a8:	03e58533          	mul	a0,a1,t5
    21ac:	a5843603          	ld	a2,-1448(s0)
    21b0:	00c50633          	add	a2,a0,a2
    21b4:	a4c43c23          	sd	a2,-1448(s0)
    21b8:	03158533          	mul	a0,a1,a7
    21bc:	00088393          	mv	t2,a7
    21c0:	a6043603          	ld	a2,-1440(s0)
    21c4:	00c50633          	add	a2,a0,a2
    21c8:	a6c43023          	sd	a2,-1440(s0)
    21cc:	ed843883          	ld	a7,-296(s0)
    21d0:	03158533          	mul	a0,a1,a7
    21d4:	a6843603          	ld	a2,-1432(s0)
    21d8:	00c50633          	add	a2,a0,a2
    21dc:	a6c43423          	sd	a2,-1432(s0)
    21e0:	02e58533          	mul	a0,a1,a4
    21e4:	a7043603          	ld	a2,-1424(s0)
    21e8:	00c50633          	add	a2,a0,a2
    21ec:	a6c43823          	sd	a2,-1424(s0)
    21f0:	341c0513          	addi	a0,s8,833
    21f4:	3c050a83          	lb	s5,960(a0)
    21f8:	e7843803          	ld	a6,-392(s0)
    21fc:	03058db3          	mul	s11,a1,a6
    2200:	a7843603          	ld	a2,-1416(s0)
    2204:	00cd8633          	add	a2,s11,a2
    2208:	a6c43c23          	sd	a2,-1416(s0)
    220c:	036585b3          	mul	a1,a1,s6
    2210:	a8043603          	ld	a2,-1408(s0)
    2214:	00c58633          	add	a2,a1,a2
    2218:	a8c43023          	sd	a2,-1408(s0)
    221c:	03ca85b3          	mul	a1,s5,t3
    2220:	000e0b13          	mv	s6,t3
    2224:	aa043603          	ld	a2,-1376(s0)
    2228:	00c58633          	add	a2,a1,a2
    222c:	aac43023          	sd	a2,-1376(s0)
    2230:	026a85b3          	mul	a1,s5,t1
    2234:	a9843603          	ld	a2,-1384(s0)
    2238:	00c58633          	add	a2,a1,a2
    223c:	a8c43c23          	sd	a2,-1384(s0)
    2240:	03aa85b3          	mul	a1,s5,s10
    2244:	a9043603          	ld	a2,-1392(s0)
    2248:	00c58633          	add	a2,a1,a2
    224c:	a8c43823          	sd	a2,-1392(s0)
    2250:	00098793          	mv	a5,s3
    2254:	033a85b3          	mul	a1,s5,s3
    2258:	a8843603          	ld	a2,-1400(s0)
    225c:	00c58633          	add	a2,a1,a2
    2260:	a8c43423          	sd	a2,-1400(s0)
    2264:	f5043703          	ld	a4,-176(s0)
    2268:	02ea85b3          	mul	a1,s5,a4
    226c:	aa843603          	ld	a2,-1368(s0)
    2270:	00c58633          	add	a2,a1,a2
    2274:	aac43423          	sd	a2,-1368(s0)
    2278:	f4843a03          	ld	s4,-184(s0)
    227c:	034a85b3          	mul	a1,s5,s4
    2280:	ab043603          	ld	a2,-1360(s0)
    2284:	00c58633          	add	a2,a1,a2
    2288:	aac43823          	sd	a2,-1360(s0)
    228c:	f5843303          	ld	t1,-168(s0)
    2290:	026a85b3          	mul	a1,s5,t1
    2294:	ab843603          	ld	a2,-1352(s0)
    2298:	00c58633          	add	a2,a1,a2
    229c:	aac43c23          	sd	a2,-1352(s0)
    22a0:	f6043e03          	ld	t3,-160(s0)
    22a4:	03ca85b3          	mul	a1,s5,t3
    22a8:	ac043603          	ld	a2,-1344(s0)
    22ac:	00c58633          	add	a2,a1,a2
    22b0:	acc43023          	sd	a2,-1344(s0)
    22b4:	f6843f83          	ld	t6,-152(s0)
    22b8:	03fa85b3          	mul	a1,s5,t6
    22bc:	ac843603          	ld	a2,-1336(s0)
    22c0:	00c58633          	add	a2,a1,a2
    22c4:	acc43423          	sd	a2,-1336(s0)
    22c8:	eb843683          	ld	a3,-328(s0)
    22cc:	02da85b3          	mul	a1,s5,a3
    22d0:	ad043603          	ld	a2,-1328(s0)
    22d4:	00c58633          	add	a2,a1,a2
    22d8:	acc43823          	sd	a2,-1328(s0)
    22dc:	f4043583          	ld	a1,-192(s0)
    22e0:	02ba85b3          	mul	a1,s5,a1
    22e4:	ad843603          	ld	a2,-1320(s0)
    22e8:	00c58633          	add	a2,a1,a2
    22ec:	acc43c23          	sd	a2,-1320(s0)
    22f0:	e8843c03          	ld	s8,-376(s0)
    22f4:	038a85b3          	mul	a1,s5,s8
    22f8:	ae043603          	ld	a2,-1312(s0)
    22fc:	00c58633          	add	a2,a1,a2
    2300:	aec43023          	sd	a2,-1312(s0)
    2304:	039a85b3          	mul	a1,s5,s9
    2308:	ae843603          	ld	a2,-1304(s0)
    230c:	00c58633          	add	a2,a1,a2
    2310:	aec43423          	sd	a2,-1304(s0)
    2314:	00048d93          	mv	s11,s1
    2318:	029a85b3          	mul	a1,s5,s1
    231c:	af043603          	ld	a2,-1296(s0)
    2320:	00c58633          	add	a2,a1,a2
    2324:	aec43823          	sd	a2,-1296(s0)
    2328:	025a85b3          	mul	a1,s5,t0
    232c:	af843603          	ld	a2,-1288(s0)
    2330:	00c58633          	add	a2,a1,a2
    2334:	aec43c23          	sd	a2,-1288(s0)
    2338:	ef043583          	ld	a1,-272(s0)
    233c:	02ba85b3          	mul	a1,s5,a1
    2340:	b0043603          	ld	a2,-1280(s0)
    2344:	00c58633          	add	a2,a1,a2
    2348:	b0c43023          	sd	a2,-1280(s0)
    234c:	032a85b3          	mul	a1,s5,s2
    2350:	b0843603          	ld	a2,-1272(s0)
    2354:	00c58633          	add	a2,a1,a2
    2358:	b0c43423          	sd	a2,-1272(s0)
    235c:	ee843583          	ld	a1,-280(s0)
    2360:	02ba85b3          	mul	a1,s5,a1
    2364:	b1043603          	ld	a2,-1264(s0)
    2368:	00c58633          	add	a2,a1,a2
    236c:	b0c43823          	sd	a2,-1264(s0)
    2370:	00008993          	mv	s3,ra
    2374:	021a85b3          	mul	a1,s5,ra
    2378:	b1843603          	ld	a2,-1256(s0)
    237c:	00c58633          	add	a2,a1,a2
    2380:	b0c43c23          	sd	a2,-1256(s0)
    2384:	000015b7          	lui	a1,0x1
    2388:	40b405b3          	sub	a1,s0,a1
    238c:	6705b483          	ld	s1,1648(a1) # 1670 <.LBB101_5+0x21c>
    2390:	029a85b3          	mul	a1,s5,s1
    2394:	b2043603          	ld	a2,-1248(s0)
    2398:	00c58633          	add	a2,a1,a2
    239c:	b2c43023          	sd	a2,-1248(s0)
    23a0:	f0043b83          	ld	s7,-256(s0)
    23a4:	037a85b3          	mul	a1,s5,s7
    23a8:	b2843603          	ld	a2,-1240(s0)
    23ac:	00c58633          	add	a2,a1,a2
    23b0:	b2c43423          	sd	a2,-1240(s0)
    23b4:	03da85b3          	mul	a1,s5,t4
    23b8:	000e8d13          	mv	s10,t4
    23bc:	b3043603          	ld	a2,-1232(s0)
    23c0:	00c58633          	add	a2,a1,a2
    23c4:	b2c43823          	sd	a2,-1232(s0)
    23c8:	ed043e83          	ld	t4,-304(s0)
    23cc:	03da85b3          	mul	a1,s5,t4
    23d0:	b3843603          	ld	a2,-1224(s0)
    23d4:	00c58633          	add	a2,a1,a2
    23d8:	b2c43c23          	sd	a2,-1224(s0)
    23dc:	ef843903          	ld	s2,-264(s0)
    23e0:	032a85b3          	mul	a1,s5,s2
    23e4:	b4043603          	ld	a2,-1216(s0)
    23e8:	00c58633          	add	a2,a1,a2
    23ec:	b4c43023          	sd	a2,-1216(s0)
    23f0:	f7043083          	ld	ra,-144(s0)
    23f4:	021a85b3          	mul	a1,s5,ra
    23f8:	b4843603          	ld	a2,-1208(s0)
    23fc:	00c58633          	add	a2,a1,a2
    2400:	b4c43423          	sd	a2,-1208(s0)
    2404:	f7843583          	ld	a1,-136(s0)
    2408:	02ba85b3          	mul	a1,s5,a1
    240c:	b5043603          	ld	a2,-1200(s0)
    2410:	00c58633          	add	a2,a1,a2
    2414:	b4c43823          	sd	a2,-1200(s0)
    2418:	03ea85b3          	mul	a1,s5,t5
    241c:	b5843603          	ld	a2,-1192(s0)
    2420:	00c58633          	add	a2,a1,a2
    2424:	b4c43c23          	sd	a2,-1192(s0)
    2428:	00038293          	mv	t0,t2
    242c:	027a85b3          	mul	a1,s5,t2
    2430:	b6043603          	ld	a2,-1184(s0)
    2434:	00c58633          	add	a2,a1,a2
    2438:	b6c43023          	sd	a2,-1184(s0)
    243c:	031a85b3          	mul	a1,s5,a7
    2440:	b6843603          	ld	a2,-1176(s0)
    2444:	00c58633          	add	a2,a1,a2
    2448:	b6c43423          	sd	a2,-1176(s0)
    244c:	e8043383          	ld	t2,-384(s0)
    2450:	027a85b3          	mul	a1,s5,t2
    2454:	b7043603          	ld	a2,-1168(s0)
    2458:	00c58633          	add	a2,a1,a2
    245c:	b6c43823          	sd	a2,-1168(s0)
    2460:	78050503          	lb	a0,1920(a0)
    2464:	030a85b3          	mul	a1,s5,a6
    2468:	b7843603          	ld	a2,-1160(s0)
    246c:	00c58633          	add	a2,a1,a2
    2470:	b6c43c23          	sd	a2,-1160(s0)
    2474:	e6843803          	ld	a6,-408(s0)
    2478:	030a85b3          	mul	a1,s5,a6
    247c:	b8043603          	ld	a2,-1152(s0)
    2480:	00c58633          	add	a2,a1,a2
    2484:	b8c43023          	sd	a2,-1152(s0)
    2488:	036505b3          	mul	a1,a0,s6
    248c:	ba043603          	ld	a2,-1120(s0)
    2490:	00c58633          	add	a2,a1,a2
    2494:	bac43023          	sd	a2,-1120(s0)
    2498:	ea843883          	ld	a7,-344(s0)
    249c:	031505b3          	mul	a1,a0,a7
    24a0:	b9843603          	ld	a2,-1128(s0)
    24a4:	00c58633          	add	a2,a1,a2
    24a8:	b8c43c23          	sd	a2,-1128(s0)
    24ac:	f3843f03          	ld	t5,-200(s0)
    24b0:	03e505b3          	mul	a1,a0,t5
    24b4:	b9043603          	ld	a2,-1136(s0)
    24b8:	00c58633          	add	a2,a1,a2
    24bc:	b8c43823          	sd	a2,-1136(s0)
    24c0:	02f505b3          	mul	a1,a0,a5
    24c4:	b8843603          	ld	a2,-1144(s0)
    24c8:	00c58633          	add	a2,a1,a2
    24cc:	b8c43423          	sd	a2,-1144(s0)
    24d0:	02e505b3          	mul	a1,a0,a4
    24d4:	ba843603          	ld	a2,-1112(s0)
    24d8:	00c58633          	add	a2,a1,a2
    24dc:	bac43423          	sd	a2,-1112(s0)
    24e0:	034505b3          	mul	a1,a0,s4
    24e4:	bb043603          	ld	a2,-1104(s0)
    24e8:	00c58633          	add	a2,a1,a2
    24ec:	bac43823          	sd	a2,-1104(s0)
    24f0:	026505b3          	mul	a1,a0,t1
    24f4:	bb843603          	ld	a2,-1096(s0)
    24f8:	00c58633          	add	a2,a1,a2
    24fc:	bac43c23          	sd	a2,-1096(s0)
    2500:	03c505b3          	mul	a1,a0,t3
    2504:	bc043603          	ld	a2,-1088(s0)
    2508:	00c58633          	add	a2,a1,a2
    250c:	bcc43023          	sd	a2,-1088(s0)
    2510:	03f505b3          	mul	a1,a0,t6
    2514:	bc843603          	ld	a2,-1080(s0)
    2518:	00c58633          	add	a2,a1,a2
    251c:	bcc43423          	sd	a2,-1080(s0)
    2520:	02d505b3          	mul	a1,a0,a3
    2524:	bd043603          	ld	a2,-1072(s0)
    2528:	00c58633          	add	a2,a1,a2
    252c:	bcc43823          	sd	a2,-1072(s0)
    2530:	f4043703          	ld	a4,-192(s0)
    2534:	02e505b3          	mul	a1,a0,a4
    2538:	bd843603          	ld	a2,-1064(s0)
    253c:	00c58633          	add	a2,a1,a2
    2540:	bcc43c23          	sd	a2,-1064(s0)
    2544:	038505b3          	mul	a1,a0,s8
    2548:	be043603          	ld	a2,-1056(s0)
    254c:	00c58633          	add	a2,a1,a2
    2550:	bec43023          	sd	a2,-1056(s0)
    2554:	039505b3          	mul	a1,a0,s9
    2558:	be843603          	ld	a2,-1048(s0)
    255c:	00c58633          	add	a2,a1,a2
    2560:	bec43423          	sd	a2,-1048(s0)
    2564:	03b505b3          	mul	a1,a0,s11
    2568:	bf043603          	ld	a2,-1040(s0)
    256c:	00c58633          	add	a2,a1,a2
    2570:	bec43823          	sd	a2,-1040(s0)
    2574:	e9043303          	ld	t1,-368(s0)
    2578:	026505b3          	mul	a1,a0,t1
    257c:	bf843603          	ld	a2,-1032(s0)
    2580:	00c58633          	add	a2,a1,a2
    2584:	bec43c23          	sd	a2,-1032(s0)
    2588:	ef043e03          	ld	t3,-272(s0)
    258c:	03c505b3          	mul	a1,a0,t3
    2590:	c0043603          	ld	a2,-1024(s0)
    2594:	00c58633          	add	a2,a1,a2
    2598:	c0c43023          	sd	a2,-1024(s0)
    259c:	e7043683          	ld	a3,-400(s0)
    25a0:	02d505b3          	mul	a1,a0,a3
    25a4:	c0843603          	ld	a2,-1016(s0)
    25a8:	00c58633          	add	a2,a1,a2
    25ac:	c0c43423          	sd	a2,-1016(s0)
    25b0:	ee843f83          	ld	t6,-280(s0)
    25b4:	03f505b3          	mul	a1,a0,t6
    25b8:	c1043603          	ld	a2,-1008(s0)
    25bc:	00c58633          	add	a2,a1,a2
    25c0:	c0c43823          	sd	a2,-1008(s0)
    25c4:	033505b3          	mul	a1,a0,s3
    25c8:	c1843603          	ld	a2,-1000(s0)
    25cc:	00c58633          	add	a2,a1,a2
    25d0:	c0c43c23          	sd	a2,-1000(s0)
    25d4:	029505b3          	mul	a1,a0,s1
    25d8:	c2043603          	ld	a2,-992(s0)
    25dc:	00c58633          	add	a2,a1,a2
    25e0:	c2c43023          	sd	a2,-992(s0)
    25e4:	037505b3          	mul	a1,a0,s7
    25e8:	c2843603          	ld	a2,-984(s0)
    25ec:	00c58633          	add	a2,a1,a2
    25f0:	c2c43423          	sd	a2,-984(s0)
    25f4:	03a505b3          	mul	a1,a0,s10
    25f8:	c3043603          	ld	a2,-976(s0)
    25fc:	00c58633          	add	a2,a1,a2
    2600:	c2c43823          	sd	a2,-976(s0)
    2604:	03d505b3          	mul	a1,a0,t4
    2608:	c3843603          	ld	a2,-968(s0)
    260c:	00c58633          	add	a2,a1,a2
    2610:	c2c43c23          	sd	a2,-968(s0)
    2614:	032505b3          	mul	a1,a0,s2
    2618:	c4043603          	ld	a2,-960(s0)
    261c:	00c58633          	add	a2,a1,a2
    2620:	c4c43023          	sd	a2,-960(s0)
    2624:	021505b3          	mul	a1,a0,ra
    2628:	c4843603          	ld	a2,-952(s0)
    262c:	00c58633          	add	a2,a1,a2
    2630:	c4c43423          	sd	a2,-952(s0)
    2634:	f7843583          	ld	a1,-136(s0)
    2638:	02b505b3          	mul	a1,a0,a1
    263c:	c5043603          	ld	a2,-944(s0)
    2640:	00c58633          	add	a2,a1,a2
    2644:	c4c43823          	sd	a2,-944(s0)
    2648:	ec043583          	ld	a1,-320(s0)
    264c:	02b505b3          	mul	a1,a0,a1
    2650:	c5843603          	ld	a2,-936(s0)
    2654:	00c58633          	add	a2,a1,a2
    2658:	c4c43c23          	sd	a2,-936(s0)
    265c:	025505b3          	mul	a1,a0,t0
    2660:	c6043603          	ld	a2,-928(s0)
    2664:	00c58633          	add	a2,a1,a2
    2668:	c6c43023          	sd	a2,-928(s0)
    266c:	ed843583          	ld	a1,-296(s0)
    2670:	02b505b3          	mul	a1,a0,a1
    2674:	c6843603          	ld	a2,-920(s0)
    2678:	00c58633          	add	a2,a1,a2
    267c:	c6c43423          	sd	a2,-920(s0)
    2680:	027505b3          	mul	a1,a0,t2
    2684:	c7043603          	ld	a2,-912(s0)
    2688:	00c58633          	add	a2,a1,a2
    268c:	c6c43823          	sd	a2,-912(s0)
    2690:	f8043a83          	ld	s5,-128(s0)
    2694:	000015b7          	lui	a1,0x1
    2698:	40b405b3          	sub	a1,s0,a1
    269c:	6605b583          	ld	a1,1632(a1) # 1660 <.LBB101_5+0x20c>
    26a0:	00ba8ab3          	add	s5,s5,a1
    26a4:	000a8583          	lb	a1,0(s5)
    26a8:	e7843e83          	ld	t4,-392(s0)
    26ac:	03d50db3          	mul	s11,a0,t4
    26b0:	c7843603          	ld	a2,-904(s0)
    26b4:	00cd8633          	add	a2,s11,a2
    26b8:	c6c43c23          	sd	a2,-904(s0)
    26bc:	03050533          	mul	a0,a0,a6
    26c0:	c8043603          	ld	a2,-896(s0)
    26c4:	00c50633          	add	a2,a0,a2
    26c8:	c8c43023          	sd	a2,-896(s0)
    26cc:	03658533          	mul	a0,a1,s6
    26d0:	ca043603          	ld	a2,-864(s0)
    26d4:	00c50633          	add	a2,a0,a2
    26d8:	cac43023          	sd	a2,-864(s0)
    26dc:	03158533          	mul	a0,a1,a7
    26e0:	c9843603          	ld	a2,-872(s0)
    26e4:	00c50633          	add	a2,a0,a2
    26e8:	c8c43c23          	sd	a2,-872(s0)
    26ec:	03e58533          	mul	a0,a1,t5
    26f0:	c9043603          	ld	a2,-880(s0)
    26f4:	00c50633          	add	a2,a0,a2
    26f8:	c8c43823          	sd	a2,-880(s0)
    26fc:	02f58533          	mul	a0,a1,a5
    2700:	c8843603          	ld	a2,-888(s0)
    2704:	00c50633          	add	a2,a0,a2
    2708:	c8c43423          	sd	a2,-888(s0)
    270c:	f5043503          	ld	a0,-176(s0)
    2710:	02a58533          	mul	a0,a1,a0
    2714:	ca843603          	ld	a2,-856(s0)
    2718:	00c50633          	add	a2,a0,a2
    271c:	cac43423          	sd	a2,-856(s0)
    2720:	03458533          	mul	a0,a1,s4
    2724:	cb043603          	ld	a2,-848(s0)
    2728:	00c50633          	add	a2,a0,a2
    272c:	cac43823          	sd	a2,-848(s0)
    2730:	f5843503          	ld	a0,-168(s0)
    2734:	02a58533          	mul	a0,a1,a0
    2738:	cb843603          	ld	a2,-840(s0)
    273c:	00c50633          	add	a2,a0,a2
    2740:	cac43c23          	sd	a2,-840(s0)
    2744:	f6043083          	ld	ra,-160(s0)
    2748:	02158533          	mul	a0,a1,ra
    274c:	cc043603          	ld	a2,-832(s0)
    2750:	00c50633          	add	a2,a0,a2
    2754:	ccc43023          	sd	a2,-832(s0)
    2758:	f6843d03          	ld	s10,-152(s0)
    275c:	03a58533          	mul	a0,a1,s10
    2760:	cc843603          	ld	a2,-824(s0)
    2764:	00c50633          	add	a2,a0,a2
    2768:	ccc43423          	sd	a2,-824(s0)
    276c:	eb843c83          	ld	s9,-328(s0)
    2770:	03958533          	mul	a0,a1,s9
    2774:	cd043603          	ld	a2,-816(s0)
    2778:	00c50633          	add	a2,a0,a2
    277c:	ccc43823          	sd	a2,-816(s0)
    2780:	00070d93          	mv	s11,a4
    2784:	02e58533          	mul	a0,a1,a4
    2788:	cd843603          	ld	a2,-808(s0)
    278c:	00c50633          	add	a2,a0,a2
    2790:	ccc43c23          	sd	a2,-808(s0)
    2794:	03858533          	mul	a0,a1,s8
    2798:	ce043603          	ld	a2,-800(s0)
    279c:	00c50633          	add	a2,a0,a2
    27a0:	cec43023          	sd	a2,-800(s0)
    27a4:	eb043b03          	ld	s6,-336(s0)
    27a8:	03658533          	mul	a0,a1,s6
    27ac:	ce843603          	ld	a2,-792(s0)
    27b0:	00c50633          	add	a2,a0,a2
    27b4:	cec43423          	sd	a2,-792(s0)
    27b8:	f0843783          	ld	a5,-248(s0)
    27bc:	02f58533          	mul	a0,a1,a5
    27c0:	cf043603          	ld	a2,-784(s0)
    27c4:	00c50633          	add	a2,a0,a2
    27c8:	cec43823          	sd	a2,-784(s0)
    27cc:	02658533          	mul	a0,a1,t1
    27d0:	cf843603          	ld	a2,-776(s0)
    27d4:	00c50633          	add	a2,a0,a2
    27d8:	cec43c23          	sd	a2,-776(s0)
    27dc:	03c58533          	mul	a0,a1,t3
    27e0:	000e0a13          	mv	s4,t3
    27e4:	d0043603          	ld	a2,-768(s0)
    27e8:	00c50633          	add	a2,a0,a2
    27ec:	d0c43023          	sd	a2,-768(s0)
    27f0:	00068313          	mv	t1,a3
    27f4:	02d58533          	mul	a0,a1,a3
    27f8:	d0843603          	ld	a2,-760(s0)
    27fc:	00c50633          	add	a2,a0,a2
    2800:	d0c43423          	sd	a2,-760(s0)
    2804:	03f58533          	mul	a0,a1,t6
    2808:	000f8993          	mv	s3,t6
    280c:	d1043603          	ld	a2,-752(s0)
    2810:	00c50633          	add	a2,a0,a2
    2814:	d0c43823          	sd	a2,-752(s0)
    2818:	e9843e03          	ld	t3,-360(s0)
    281c:	03c58533          	mul	a0,a1,t3
    2820:	d1843603          	ld	a2,-744(s0)
    2824:	00c50633          	add	a2,a0,a2
    2828:	d0c43c23          	sd	a2,-744(s0)
    282c:	00048713          	mv	a4,s1
    2830:	02958533          	mul	a0,a1,s1
    2834:	d2043603          	ld	a2,-736(s0)
    2838:	00c50633          	add	a2,a0,a2
    283c:	d2c43023          	sd	a2,-736(s0)
    2840:	03758533          	mul	a0,a1,s7
    2844:	d2843603          	ld	a2,-728(s0)
    2848:	00c50633          	add	a2,a0,a2
    284c:	d2c43423          	sd	a2,-728(s0)
    2850:	ec843f83          	ld	t6,-312(s0)
    2854:	03f58533          	mul	a0,a1,t6
    2858:	d3043603          	ld	a2,-720(s0)
    285c:	00c50633          	add	a2,a0,a2
    2860:	d2c43823          	sd	a2,-720(s0)
    2864:	ed043683          	ld	a3,-304(s0)
    2868:	02d58533          	mul	a0,a1,a3
    286c:	d3843603          	ld	a2,-712(s0)
    2870:	00c50633          	add	a2,a0,a2
    2874:	d2c43c23          	sd	a2,-712(s0)
    2878:	03258533          	mul	a0,a1,s2
    287c:	d4043603          	ld	a2,-704(s0)
    2880:	00c50633          	add	a2,a0,a2
    2884:	d4c43023          	sd	a2,-704(s0)
    2888:	f7043483          	ld	s1,-144(s0)
    288c:	02958533          	mul	a0,a1,s1
    2890:	d4843603          	ld	a2,-696(s0)
    2894:	00c50633          	add	a2,a0,a2
    2898:	d4c43423          	sd	a2,-696(s0)
    289c:	f7843803          	ld	a6,-136(s0)
    28a0:	03058533          	mul	a0,a1,a6
    28a4:	d5043603          	ld	a2,-688(s0)
    28a8:	00c50633          	add	a2,a0,a2
    28ac:	d4c43823          	sd	a2,-688(s0)
    28b0:	ec043f03          	ld	t5,-320(s0)
    28b4:	03e58533          	mul	a0,a1,t5
    28b8:	d5843603          	ld	a2,-680(s0)
    28bc:	00c50633          	add	a2,a0,a2
    28c0:	d4c43c23          	sd	a2,-680(s0)
    28c4:	02558533          	mul	a0,a1,t0
    28c8:	d6043603          	ld	a2,-672(s0)
    28cc:	00c50633          	add	a2,a0,a2
    28d0:	d6c43023          	sd	a2,-672(s0)
    28d4:	ed843883          	ld	a7,-296(s0)
    28d8:	03158533          	mul	a0,a1,a7
    28dc:	d6843603          	ld	a2,-664(s0)
    28e0:	00c50633          	add	a2,a0,a2
    28e4:	d6c43423          	sd	a2,-664(s0)
    28e8:	02758533          	mul	a0,a1,t2
    28ec:	d7043603          	ld	a2,-656(s0)
    28f0:	00c50633          	add	a2,a0,a2
    28f4:	d6c43823          	sd	a2,-656(s0)
    28f8:	3c0a8a83          	lb	s5,960(s5)
    28fc:	03d58533          	mul	a0,a1,t4
    2900:	d7843603          	ld	a2,-648(s0)
    2904:	00c50633          	add	a2,a0,a2
    2908:	d6c43c23          	sd	a2,-648(s0)
    290c:	e6843603          	ld	a2,-408(s0)
    2910:	02c58533          	mul	a0,a1,a2
    2914:	d8043583          	ld	a1,-640(s0)
    2918:	00b505b3          	add	a1,a0,a1
    291c:	d8b43023          	sd	a1,-640(s0)
    2920:	02ca8533          	mul	a0,s5,a2
    2924:	e6a43423          	sd	a0,-408(s0)
    2928:	03da8533          	mul	a0,s5,t4
    292c:	e6a43c23          	sd	a0,-392(s0)
    2930:	027a8533          	mul	a0,s5,t2
    2934:	e8a43023          	sd	a0,-384(s0)
    2938:	031a8533          	mul	a0,s5,a7
    293c:	eca43c23          	sd	a0,-296(s0)
    2940:	025a8533          	mul	a0,s5,t0
    2944:	000015b7          	lui	a1,0x1
    2948:	40b405b3          	sub	a1,s0,a1
    294c:	66a5bc23          	sd	a0,1656(a1) # 1678 <.LBB101_5+0x224>
    2950:	03ea8533          	mul	a0,s5,t5
    2954:	eca43023          	sd	a0,-320(s0)
    2958:	030a8833          	mul	a6,s5,a6
    295c:	029a88b3          	mul	a7,s5,s1
    2960:	032a8933          	mul	s2,s5,s2
    2964:	02da84b3          	mul	s1,s5,a3
    2968:	03fa8fb3          	mul	t6,s5,t6
    296c:	037a8f33          	mul	t5,s5,s7
    2970:	02ea8eb3          	mul	t4,s5,a4
    2974:	03ca8e33          	mul	t3,s5,t3
    2978:	033a82b3          	mul	t0,s5,s3
    297c:	026a8333          	mul	t1,s5,t1
    2980:	034a83b3          	mul	t2,s5,s4
    2984:	e9043503          	ld	a0,-368(s0)
    2988:	02aa89b3          	mul	s3,s5,a0
    298c:	02fa8a33          	mul	s4,s5,a5
    2990:	036a8b33          	mul	s6,s5,s6
    2994:	038a8bb3          	mul	s7,s5,s8
    2998:	03ba8c33          	mul	s8,s5,s11
    299c:	039a8cb3          	mul	s9,s5,s9
    29a0:	03aa8d33          	mul	s10,s5,s10
    29a4:	021a8db3          	mul	s11,s5,ra
    29a8:	f5843503          	ld	a0,-168(s0)
    29ac:	02aa8733          	mul	a4,s5,a0
    29b0:	f4843503          	ld	a0,-184(s0)
    29b4:	02aa80b3          	mul	ra,s5,a0
    29b8:	f5043503          	ld	a0,-176(s0)
    29bc:	02aa86b3          	mul	a3,s5,a0
    29c0:	ea043503          	ld	a0,-352(s0)
    29c4:	02aa8633          	mul	a2,s5,a0
    29c8:	f3843503          	ld	a0,-200(s0)
    29cc:	02aa85b3          	mul	a1,s5,a0
    29d0:	ea843503          	ld	a0,-344(s0)
    29d4:	02aa8533          	mul	a0,s5,a0
    29d8:	ee043783          	ld	a5,-288(s0)
    29dc:	02fa8ab3          	mul	s5,s5,a5
    29e0:	da043783          	ld	a5,-608(s0)
    29e4:	00fa87b3          	add	a5,s5,a5
    29e8:	daf43023          	sd	a5,-608(s0)
    29ec:	d9843783          	ld	a5,-616(s0)
    29f0:	00f507b3          	add	a5,a0,a5
    29f4:	d8f43c23          	sd	a5,-616(s0)
    29f8:	d9043503          	ld	a0,-624(s0)
    29fc:	00a58533          	add	a0,a1,a0
    2a00:	d8a43823          	sd	a0,-624(s0)
    2a04:	d8843503          	ld	a0,-632(s0)
    2a08:	00a60533          	add	a0,a2,a0
    2a0c:	d8a43423          	sd	a0,-632(s0)
    2a10:	da843503          	ld	a0,-600(s0)
    2a14:	00a68533          	add	a0,a3,a0
    2a18:	daa43423          	sd	a0,-600(s0)
    2a1c:	db043503          	ld	a0,-592(s0)
    2a20:	00a08533          	add	a0,ra,a0
    2a24:	daa43823          	sd	a0,-592(s0)
    2a28:	dd843083          	ld	ra,-552(s0)
    2a2c:	db843503          	ld	a0,-584(s0)
    2a30:	00a70533          	add	a0,a4,a0
    2a34:	daa43c23          	sd	a0,-584(s0)
    2a38:	dc043503          	ld	a0,-576(s0)
    2a3c:	00ad8533          	add	a0,s11,a0
    2a40:	dca43023          	sd	a0,-576(s0)
    2a44:	e5043d83          	ld	s11,-432(s0)
    2a48:	e5843a83          	ld	s5,-424(s0)
    2a4c:	dc843503          	ld	a0,-568(s0)
    2a50:	00ad0533          	add	a0,s10,a0
    2a54:	dca43423          	sd	a0,-568(s0)
    2a58:	de843d03          	ld	s10,-536(s0)
    2a5c:	dd043503          	ld	a0,-560(s0)
    2a60:	00ac8533          	add	a0,s9,a0
    2a64:	dca43823          	sd	a0,-560(s0)
    2a68:	df043c83          	ld	s9,-528(s0)
    2a6c:	001c00b3          	add	ra,s8,ra
    2a70:	df843c03          	ld	s8,-520(s0)
    2a74:	de043503          	ld	a0,-544(s0)
    2a78:	00ab8533          	add	a0,s7,a0
    2a7c:	dea43023          	sd	a0,-544(s0)
    2a80:	e0043b83          	ld	s7,-512(s0)
    2a84:	01ab0d33          	add	s10,s6,s10
    2a88:	e0843b03          	ld	s6,-504(s0)
    2a8c:	019a0cb3          	add	s9,s4,s9
    2a90:	e1043a03          	ld	s4,-496(s0)
    2a94:	01898c33          	add	s8,s3,s8
    2a98:	e1843983          	ld	s3,-488(s0)
    2a9c:	01738bb3          	add	s7,t2,s7
    2aa0:	e2843383          	ld	t2,-472(s0)
    2aa4:	01630b33          	add	s6,t1,s6
    2aa8:	e3043303          	ld	t1,-464(s0)
    2aac:	01428a33          	add	s4,t0,s4
    2ab0:	e3843283          	ld	t0,-456(s0)
    2ab4:	013e09b3          	add	s3,t3,s3
    2ab8:	e2043e03          	ld	t3,-480(s0)
    2abc:	f1043503          	ld	a0,-240(s0)
    2ac0:	00ae8533          	add	a0,t4,a0
    2ac4:	f8043e83          	ld	t4,-128(s0)
    2ac8:	f0a43823          	sd	a0,-240(s0)
    2acc:	f1043703          	ld	a4,-240(s0)
    2ad0:	f1843503          	ld	a0,-232(s0)
    2ad4:	00af0533          	add	a0,t5,a0
    2ad8:	f8843f03          	ld	t5,-120(s0)
    2adc:	f0a43c23          	sd	a0,-232(s0)
    2ae0:	f1843683          	ld	a3,-232(s0)
    2ae4:	f2043503          	ld	a0,-224(s0)
    2ae8:	00af8533          	add	a0,t6,a0
    2aec:	f2a43023          	sd	a0,-224(s0)
    2af0:	f2043603          	ld	a2,-224(s0)
    2af4:	f2843503          	ld	a0,-216(s0)
    2af8:	00a48533          	add	a0,s1,a0
    2afc:	f2a43423          	sd	a0,-216(s0)
    2b00:	f2843583          	ld	a1,-216(s0)
    2b04:	f3043503          	ld	a0,-208(s0)
    2b08:	00a90533          	add	a0,s2,a0
    2b0c:	f2a43823          	sd	a0,-208(s0)
    2b10:	f3043503          	ld	a0,-208(s0)
    2b14:	01c88e33          	add	t3,a7,t3
    2b18:	e4843883          	ld	a7,-440(s0)
    2b1c:	007803b3          	add	t2,a6,t2
    2b20:	000017b7          	lui	a5,0x1
    2b24:	40f407b3          	sub	a5,s0,a5
    2b28:	6807b803          	ld	a6,1664(a5) # 1680 <.LBB101_5+0x22c>
    2b2c:	ec043783          	ld	a5,-320(s0)
    2b30:	00678333          	add	t1,a5,t1
    2b34:	e4043783          	ld	a5,-448(s0)
    2b38:	00001fb7          	lui	t6,0x1
    2b3c:	41f40fb3          	sub	t6,s0,t6
    2b40:	678fbf83          	ld	t6,1656(t6) # 1678 <.LBB101_5+0x224>
    2b44:	005f82b3          	add	t0,t6,t0
    2b48:	ed843f83          	ld	t6,-296(s0)
    2b4c:	00ff87b3          	add	a5,t6,a5
    2b50:	e8043f83          	ld	t6,-384(s0)
    2b54:	011f88b3          	add	a7,t6,a7
    2b58:	e7843f83          	ld	t6,-392(s0)
    2b5c:	01bf8db3          	add	s11,t6,s11
    2b60:	e6843f83          	ld	t6,-408(s0)
    2b64:	015f8ab3          	add	s5,t6,s5
    2b68:	ec080813          	addi	a6,a6,-320
    2b6c:	140f0f13          	addi	t5,t5,320
    2b70:	001e8e93          	addi	t4,t4,1
    2b74:	00080463          	beqz	a6,2b7c <.LBB101_6>
    2b78:	8ddfe06f          	j	1454 <.LBB101_5>

0000000000002b7c <.LBB101_6>:
    2b7c:	00001537          	lui	a0,0x1
    2b80:	40a40533          	sub	a0,s0,a0
    2b84:	6a053903          	ld	s2,1696(a0) # 16a0 <.LBB101_5+0x24c>
    2b88:	00001537          	lui	a0,0x1
    2b8c:	40a40533          	sub	a0,s0,a0
    2b90:	69853483          	ld	s1,1688(a0) # 1698 <.LBB101_5+0x244>
    2b94:	00001537          	lui	a0,0x1
    2b98:	40a40533          	sub	a0,s0,a0
    2b9c:	69053f83          	ld	t6,1680(a0) # 1690 <.LBB101_5+0x23c>
    2ba0:	00001537          	lui	a0,0x1
    2ba4:	40a40533          	sub	a0,s0,a0
    2ba8:	68853f03          	ld	t5,1672(a0) # 1688 <.LBB101_5+0x234>
    2bac:	00001537          	lui	a0,0x1
    2bb0:	40a40533          	sub	a0,s0,a0
    2bb4:	65853503          	ld	a0,1624(a0) # 1658 <.LBB101_5+0x204>
    2bb8:	00251513          	slli	a0,a0,0x2
    2bbc:	000015b7          	lui	a1,0x1
    2bc0:	40b405b3          	sub	a1,s0,a1
    2bc4:	ba05b603          	ld	a2,-1120(a1) # ba0 <.LBB101_3+0x948>
    2bc8:	00a60633          	add	a2,a2,a0
    2bcc:	000015b7          	lui	a1,0x1
    2bd0:	40b405b3          	sub	a1,s0,a1
    2bd4:	6505b583          	ld	a1,1616(a1) # 1650 <.LBB101_5+0x1fc>
    2bd8:	0005a583          	lw	a1,0(a1)
    2bdc:	000016b7          	lui	a3,0x1
    2be0:	40d406b3          	sub	a3,s0,a3
    2be4:	b986b683          	ld	a3,-1128(a3) # b98 <.LBB101_3+0x940>
    2be8:	00a68533          	add	a0,a3,a0
    2bec:	00c52683          	lw	a3,12(a0)
    2bf0:	00c62e83          	lw	t4,12(a2)
    2bf4:	00459713          	slli	a4,a1,0x4
    2bf8:	00b70833          	add	a6,a4,a1
    2bfc:	00769593          	slli	a1,a3,0x7
    2c00:	ebd43823          	sd	t4,-336(s0)
    2c04:	000016b7          	lui	a3,0x1
    2c08:	40d406b3          	sub	a3,s0,a3
    2c0c:	6a86b683          	ld	a3,1704(a3) # 16a8 <.LBB101_5+0x254>
    2c10:	01d686b3          	add	a3,a3,t4
    2c14:	eab43423          	sd	a1,-344(s0)
    2c18:	00b686b3          	add	a3,a3,a1
    2c1c:	001fe5b7          	lui	a1,0x1fe
    2c20:	00b80733          	add	a4,a6,a1
    2c24:	00e6873b          	addw	a4,a3,a4
    2c28:	400006b7          	lui	a3,0x40000
    2c2c:	00001eb7          	lui	t4,0x1
    2c30:	41d40eb3          	sub	t4,s0,t4
    2c34:	68deb023          	sd	a3,1664(t4) # 1680 <.LBB101_5+0x22c>
    2c38:	00001eb7          	lui	t4,0x1
    2c3c:	41d40eb3          	sub	t4,s0,t4
    2c40:	66eebc23          	sd	a4,1656(t4) # 1678 <.LBB101_5+0x224>
    2c44:	00075463          	bgez	a4,2c4c <.LBB101_8>
    2c48:	c00006b7          	lui	a3,0xc0000

0000000000002c4c <.LBB101_8>:
    2c4c:	00001737          	lui	a4,0x1
    2c50:	40e40733          	sub	a4,s0,a4
    2c54:	66d73823          	sd	a3,1648(a4) # 1670 <.LBB101_5+0x21c>
    2c58:	00852683          	lw	a3,8(a0)
    2c5c:	00862703          	lw	a4,8(a2)
    2c60:	00769e93          	slli	t4,a3,0x7
    2c64:	eae43023          	sd	a4,-352(s0)
    2c68:	00e906b3          	add	a3,s2,a4
    2c6c:	e9d43c23          	sd	t4,-360(s0)
    2c70:	01d686b3          	add	a3,a3,t4
    2c74:	00b80733          	add	a4,a6,a1
    2c78:	00e686bb          	addw	a3,a3,a4
    2c7c:	40000737          	lui	a4,0x40000
    2c80:	00001eb7          	lui	t4,0x1
    2c84:	41d40eb3          	sub	t4,s0,t4
    2c88:	64deb023          	sd	a3,1600(t4) # 1640 <.LBB101_5+0x1ec>
    2c8c:	00001eb7          	lui	t4,0x1
    2c90:	41d40eb3          	sub	t4,s0,t4
    2c94:	6b0eb903          	ld	s2,1712(t4) # 16b0 <.LBB101_5+0x25c>
    2c98:	0006d463          	bgez	a3,2ca0 <.LBB101_10>
    2c9c:	c0000737          	lui	a4,0xc0000

0000000000002ca0 <.LBB101_10>:
    2ca0:	000016b7          	lui	a3,0x1
    2ca4:	40d406b3          	sub	a3,s0,a3
    2ca8:	62e6bc23          	sd	a4,1592(a3) # 1638 <.LBB101_5+0x1e4>
    2cac:	00452683          	lw	a3,4(a0)
    2cb0:	00462703          	lw	a4,4(a2)
    2cb4:	00769e93          	slli	t4,a3,0x7
    2cb8:	e8e43823          	sd	a4,-368(s0)
    2cbc:	000016b7          	lui	a3,0x1
    2cc0:	40d406b3          	sub	a3,s0,a3
    2cc4:	6b86b683          	ld	a3,1720(a3) # 16b8 <.LBB101_5+0x264>
    2cc8:	00e686b3          	add	a3,a3,a4
    2ccc:	e9d43423          	sd	t4,-376(s0)
    2cd0:	01d686b3          	add	a3,a3,t4
    2cd4:	00b80733          	add	a4,a6,a1
    2cd8:	00e686bb          	addw	a3,a3,a4
    2cdc:	40000737          	lui	a4,0x40000
    2ce0:	00001eb7          	lui	t4,0x1
    2ce4:	41d40eb3          	sub	t4,s0,t4
    2ce8:	62deb823          	sd	a3,1584(t4) # 1630 <.LBB101_5+0x1dc>
    2cec:	0006d463          	bgez	a3,2cf4 <.LBB101_12>
    2cf0:	c0000737          	lui	a4,0xc0000

0000000000002cf4 <.LBB101_12>:
    2cf4:	000016b7          	lui	a3,0x1
    2cf8:	40d406b3          	sub	a3,s0,a3
    2cfc:	62e6b423          	sd	a4,1576(a3) # 1628 <.LBB101_5+0x1d4>
    2d00:	00052683          	lw	a3,0(a0)
    2d04:	00062703          	lw	a4,0(a2)
    2d08:	00769e93          	slli	t4,a3,0x7
    2d0c:	e8e43023          	sd	a4,-384(s0)
    2d10:	000016b7          	lui	a3,0x1
    2d14:	40d406b3          	sub	a3,s0,a3
    2d18:	6c06b683          	ld	a3,1728(a3) # 16c0 <.LBB101_5+0x26c>
    2d1c:	00e686b3          	add	a3,a3,a4
    2d20:	e7d43c23          	sd	t4,-392(s0)
    2d24:	01d686b3          	add	a3,a3,t4
    2d28:	00b80733          	add	a4,a6,a1
    2d2c:	00e686bb          	addw	a3,a3,a4
    2d30:	40000737          	lui	a4,0x40000
    2d34:	00001eb7          	lui	t4,0x1
    2d38:	41d40eb3          	sub	t4,s0,t4
    2d3c:	62deb023          	sd	a3,1568(t4) # 1620 <.LBB101_5+0x1cc>
    2d40:	0006d463          	bgez	a3,2d48 <.LBB101_14>
    2d44:	c0000737          	lui	a4,0xc0000

0000000000002d48 <.LBB101_14>:
    2d48:	000016b7          	lui	a3,0x1
    2d4c:	40d406b3          	sub	a3,s0,a3
    2d50:	60e6bc23          	sd	a4,1560(a3) # 1618 <.LBB101_5+0x1c4>
    2d54:	01052683          	lw	a3,16(a0)
    2d58:	01062703          	lw	a4,16(a2)
    2d5c:	00769e93          	slli	t4,a3,0x7
    2d60:	e6e43823          	sd	a4,-400(s0)
    2d64:	000016b7          	lui	a3,0x1
    2d68:	40d406b3          	sub	a3,s0,a3
    2d6c:	6c86b683          	ld	a3,1736(a3) # 16c8 <.LBB101_5+0x274>
    2d70:	00e686b3          	add	a3,a3,a4
    2d74:	e7d43423          	sd	t4,-408(s0)
    2d78:	01d686b3          	add	a3,a3,t4
    2d7c:	00b80733          	add	a4,a6,a1
    2d80:	00e686bb          	addw	a3,a3,a4
    2d84:	40000737          	lui	a4,0x40000
    2d88:	00001eb7          	lui	t4,0x1
    2d8c:	41d40eb3          	sub	t4,s0,t4
    2d90:	60deb823          	sd	a3,1552(t4) # 1610 <.LBB101_5+0x1bc>
    2d94:	0006d463          	bgez	a3,2d9c <.LBB101_16>
    2d98:	c0000737          	lui	a4,0xc0000

0000000000002d9c <.LBB101_16>:
    2d9c:	000016b7          	lui	a3,0x1
    2da0:	40d406b3          	sub	a3,s0,a3
    2da4:	60e6b423          	sd	a4,1544(a3) # 1608 <.LBB101_5+0x1b4>
    2da8:	01452683          	lw	a3,20(a0)
    2dac:	01462703          	lw	a4,20(a2)
    2db0:	00769e93          	slli	t4,a3,0x7
    2db4:	000016b7          	lui	a3,0x1
    2db8:	40d406b3          	sub	a3,s0,a3
    2dbc:	6ce6b423          	sd	a4,1736(a3) # 16c8 <.LBB101_5+0x274>
    2dc0:	00e906b3          	add	a3,s2,a4
    2dc4:	00001737          	lui	a4,0x1
    2dc8:	40e40733          	sub	a4,s0,a4
    2dcc:	6dd73023          	sd	t4,1728(a4) # 16c0 <.LBB101_5+0x26c>
    2dd0:	01d686b3          	add	a3,a3,t4
    2dd4:	00b80733          	add	a4,a6,a1
    2dd8:	00e686bb          	addw	a3,a3,a4
    2ddc:	40000737          	lui	a4,0x40000
    2de0:	00001eb7          	lui	t4,0x1
    2de4:	41d40eb3          	sub	t4,s0,t4
    2de8:	60deb023          	sd	a3,1536(t4) # 1600 <.LBB101_5+0x1ac>
    2dec:	0006d463          	bgez	a3,2df4 <.LBB101_18>
    2df0:	c0000737          	lui	a4,0xc0000

0000000000002df4 <.LBB101_18>:
    2df4:	000016b7          	lui	a3,0x1
    2df8:	40d406b3          	sub	a3,s0,a3
    2dfc:	5ee6bc23          	sd	a4,1528(a3) # 15f8 <.LBB101_5+0x1a4>
    2e00:	01852683          	lw	a3,24(a0)
    2e04:	01862703          	lw	a4,24(a2)
    2e08:	00769e93          	slli	t4,a3,0x7
    2e0c:	000016b7          	lui	a3,0x1
    2e10:	40d406b3          	sub	a3,s0,a3
    2e14:	6ae6bc23          	sd	a4,1720(a3) # 16b8 <.LBB101_5+0x264>
    2e18:	00e486b3          	add	a3,s1,a4
    2e1c:	00001737          	lui	a4,0x1
    2e20:	40e40733          	sub	a4,s0,a4
    2e24:	6bd73823          	sd	t4,1712(a4) # 16b0 <.LBB101_5+0x25c>
    2e28:	01d686b3          	add	a3,a3,t4
    2e2c:	00b80733          	add	a4,a6,a1
    2e30:	00e686bb          	addw	a3,a3,a4
    2e34:	40000737          	lui	a4,0x40000
    2e38:	00001eb7          	lui	t4,0x1
    2e3c:	41d40eb3          	sub	t4,s0,t4
    2e40:	5edeb823          	sd	a3,1520(t4) # 15f0 <.LBB101_5+0x19c>
    2e44:	0006d463          	bgez	a3,2e4c <.LBB101_20>
    2e48:	c0000737          	lui	a4,0xc0000

0000000000002e4c <.LBB101_20>:
    2e4c:	000016b7          	lui	a3,0x1
    2e50:	40d406b3          	sub	a3,s0,a3
    2e54:	5ee6b423          	sd	a4,1512(a3) # 15e8 <.LBB101_5+0x194>
    2e58:	e4f43023          	sd	a5,-448(s0)
    2e5c:	01c52683          	lw	a3,28(a0)
    2e60:	01c62703          	lw	a4,28(a2)
    2e64:	00769793          	slli	a5,a3,0x7
    2e68:	000016b7          	lui	a3,0x1
    2e6c:	40d406b3          	sub	a3,s0,a3
    2e70:	6ae6b423          	sd	a4,1704(a3) # 16a8 <.LBB101_5+0x254>
    2e74:	00ef86b3          	add	a3,t6,a4
    2e78:	00001737          	lui	a4,0x1
    2e7c:	40e40733          	sub	a4,s0,a4
    2e80:	6af73023          	sd	a5,1696(a4) # 16a0 <.LBB101_5+0x24c>
    2e84:	00f686b3          	add	a3,a3,a5
    2e88:	00b80733          	add	a4,a6,a1
    2e8c:	00e686bb          	addw	a3,a3,a4
    2e90:	40000737          	lui	a4,0x40000
    2e94:	000017b7          	lui	a5,0x1
    2e98:	40f407b3          	sub	a5,s0,a5
    2e9c:	5ed7b023          	sd	a3,1504(a5) # 15e0 <.LBB101_5+0x18c>
    2ea0:	0006d463          	bgez	a3,2ea8 <.LBB101_22>
    2ea4:	c0000737          	lui	a4,0xc0000

0000000000002ea8 <.LBB101_22>:
    2ea8:	000016b7          	lui	a3,0x1
    2eac:	40d406b3          	sub	a3,s0,a3
    2eb0:	5ce6bc23          	sd	a4,1496(a3) # 15d8 <.LBB101_5+0x184>
    2eb4:	dc143c23          	sd	ra,-552(s0)
    2eb8:	dfa43423          	sd	s10,-536(s0)
    2ebc:	df943823          	sd	s9,-528(s0)
    2ec0:	df843c23          	sd	s8,-520(s0)
    2ec4:	000b8e93          	mv	t4,s7
    2ec8:	e1643423          	sd	s6,-504(s0)
    2ecc:	e1443823          	sd	s4,-496(s0)
    2ed0:	e1343c23          	sd	s3,-488(s0)
    2ed4:	e3c43023          	sd	t3,-480(s0)
    2ed8:	e2743423          	sd	t2,-472(s0)
    2edc:	e2643823          	sd	t1,-464(s0)
    2ee0:	e2543c23          	sd	t0,-456(s0)
    2ee4:	e5143423          	sd	a7,-440(s0)
    2ee8:	e5b43823          	sd	s11,-432(s0)
    2eec:	e5543c23          	sd	s5,-424(s0)
    2ef0:	02052683          	lw	a3,32(a0)
    2ef4:	02062703          	lw	a4,32(a2)
    2ef8:	00769793          	slli	a5,a3,0x7
    2efc:	000016b7          	lui	a3,0x1
    2f00:	40d406b3          	sub	a3,s0,a3
    2f04:	68e6bc23          	sd	a4,1688(a3) # 1698 <.LBB101_5+0x244>
    2f08:	00ef06b3          	add	a3,t5,a4
    2f0c:	00001737          	lui	a4,0x1
    2f10:	40e40733          	sub	a4,s0,a4
    2f14:	68f73823          	sd	a5,1680(a4) # 1690 <.LBB101_5+0x23c>
    2f18:	00f686b3          	add	a3,a3,a5
    2f1c:	001fe7b7          	lui	a5,0x1fe
    2f20:	00b80733          	add	a4,a6,a1
    2f24:	00e686bb          	addw	a3,a3,a4
    2f28:	400005b7          	lui	a1,0x40000
    2f2c:	00001737          	lui	a4,0x1
    2f30:	40e40733          	sub	a4,s0,a4
    2f34:	5cd73823          	sd	a3,1488(a4) # 15d0 <.LBB101_5+0x17c>
    2f38:	0006d463          	bgez	a3,2f40 <.LBB101_24>
    2f3c:	c00005b7          	lui	a1,0xc0000

0000000000002f40 <.LBB101_24>:
    2f40:	000016b7          	lui	a3,0x1
    2f44:	40d406b3          	sub	a3,s0,a3
    2f48:	5cb6b423          	sd	a1,1480(a3) # 15c8 <.LBB101_5+0x174>
    2f4c:	07c62583          	lw	a1,124(a2)
    2f50:	f8b43423          	sd	a1,-120(s0)
    2f54:	07862583          	lw	a1,120(a2)
    2f58:	f8b43023          	sd	a1,-128(s0)
    2f5c:	07462583          	lw	a1,116(a2)
    2f60:	f6b43c23          	sd	a1,-136(s0)
    2f64:	07062583          	lw	a1,112(a2)
    2f68:	f6b43823          	sd	a1,-144(s0)
    2f6c:	06c62583          	lw	a1,108(a2)
    2f70:	f6b43423          	sd	a1,-152(s0)
    2f74:	06862583          	lw	a1,104(a2)
    2f78:	f6b43023          	sd	a1,-160(s0)
    2f7c:	06462583          	lw	a1,100(a2)
    2f80:	f4b43c23          	sd	a1,-168(s0)
    2f84:	06062583          	lw	a1,96(a2)
    2f88:	f4b43823          	sd	a1,-176(s0)
    2f8c:	05c62583          	lw	a1,92(a2)
    2f90:	f4b43423          	sd	a1,-184(s0)
    2f94:	05862583          	lw	a1,88(a2)
    2f98:	f4b43023          	sd	a1,-192(s0)
    2f9c:	05462583          	lw	a1,84(a2)
    2fa0:	f2b43c23          	sd	a1,-200(s0)
    2fa4:	05062583          	lw	a1,80(a2)
    2fa8:	f0b43423          	sd	a1,-248(s0)
    2fac:	04c62583          	lw	a1,76(a2)
    2fb0:	f0b43023          	sd	a1,-256(s0)
    2fb4:	04862583          	lw	a1,72(a2)
    2fb8:	eeb43c23          	sd	a1,-264(s0)
    2fbc:	04462583          	lw	a1,68(a2)
    2fc0:	eeb43823          	sd	a1,-272(s0)
    2fc4:	04062583          	lw	a1,64(a2)
    2fc8:	eeb43423          	sd	a1,-280(s0)
    2fcc:	03c62583          	lw	a1,60(a2)
    2fd0:	eeb43023          	sd	a1,-288(s0)
    2fd4:	03862583          	lw	a1,56(a2)
    2fd8:	ecb43c23          	sd	a1,-296(s0)
    2fdc:	03462583          	lw	a1,52(a2)
    2fe0:	ecb43823          	sd	a1,-304(s0)
    2fe4:	03062583          	lw	a1,48(a2)
    2fe8:	ecb43423          	sd	a1,-312(s0)
    2fec:	02c62583          	lw	a1,44(a2)
    2ff0:	ecb43023          	sd	a1,-320(s0)
    2ff4:	02862583          	lw	a1,40(a2)
    2ff8:	eab43c23          	sd	a1,-328(s0)
    2ffc:	02462583          	lw	a1,36(a2)
    3000:	07c52603          	lw	a2,124(a0)
    3004:	f8f43823          	sd	a5,-112(s0)
    3008:	000016b7          	lui	a3,0x1
    300c:	40d406b3          	sub	a3,s0,a3
    3010:	5cc6b023          	sd	a2,1472(a3) # 15c0 <.LBB101_5+0x16c>
    3014:	07852603          	lw	a2,120(a0)
    3018:	000016b7          	lui	a3,0x1
    301c:	40d406b3          	sub	a3,s0,a3
    3020:	5ac6bc23          	sd	a2,1464(a3) # 15b8 <.LBB101_5+0x164>
    3024:	07452883          	lw	a7,116(a0)
    3028:	07052283          	lw	t0,112(a0)
    302c:	06c52303          	lw	t1,108(a0)
    3030:	06852383          	lw	t2,104(a0)
    3034:	06452603          	lw	a2,100(a0)
    3038:	06052f03          	lw	t5,96(a0)
    303c:	05c52f83          	lw	t6,92(a0)
    3040:	05852483          	lw	s1,88(a0)
    3044:	05452903          	lw	s2,84(a0)
    3048:	05052983          	lw	s3,80(a0)
    304c:	04c52a03          	lw	s4,76(a0)
    3050:	04852a83          	lw	s5,72(a0)
    3054:	04452b03          	lw	s6,68(a0)
    3058:	04052b83          	lw	s7,64(a0)
    305c:	03c52c03          	lw	s8,60(a0)
    3060:	03852c83          	lw	s9,56(a0)
    3064:	03452d03          	lw	s10,52(a0)
    3068:	02452703          	lw	a4,36(a0)
    306c:	03052d83          	lw	s11,48(a0)
    3070:	02c52083          	lw	ra,44(a0)
    3074:	02852e03          	lw	t3,40(a0)
    3078:	00771713          	slli	a4,a4,0x7
    307c:	00001537          	lui	a0,0x1
    3080:	40a40533          	sub	a0,s0,a0
    3084:	68b53423          	sd	a1,1672(a0) # 1688 <.LBB101_5+0x234>
    3088:	00001537          	lui	a0,0x1
    308c:	40a40533          	sub	a0,s0,a0
    3090:	6d053503          	ld	a0,1744(a0) # 16d0 <.LBB101_5+0x27c>
    3094:	00b50533          	add	a0,a0,a1
    3098:	000015b7          	lui	a1,0x1
    309c:	40b405b3          	sub	a1,s0,a1
    30a0:	6ce5b823          	sd	a4,1744(a1) # 16d0 <.LBB101_5+0x27c>
    30a4:	00e50533          	add	a0,a0,a4
    30a8:	000015b7          	lui	a1,0x1
    30ac:	40b405b3          	sub	a1,s0,a1
    30b0:	6505b583          	ld	a1,1616(a1) # 1650 <.LBB101_5+0x1fc>
    30b4:	0045a703          	lw	a4,4(a1)
    30b8:	0085a683          	lw	a3,8(a1)
    30bc:	000017b7          	lui	a5,0x1
    30c0:	40f407b3          	sub	a5,s0,a5
    30c4:	5ad7b823          	sd	a3,1456(a5) # 15b0 <.LBB101_5+0x15c>
    30c8:	00c5a683          	lw	a3,12(a1)
    30cc:	000017b7          	lui	a5,0x1
    30d0:	40f407b3          	sub	a5,s0,a5
    30d4:	5ad7b023          	sd	a3,1440(a5) # 15a0 <.LBB101_5+0x14c>
    30d8:	0105a683          	lw	a3,16(a1)
    30dc:	000017b7          	lui	a5,0x1
    30e0:	40f407b3          	sub	a5,s0,a5
    30e4:	58d7b423          	sd	a3,1416(a5) # 1588 <.LBB101_5+0x134>
    30e8:	0145a683          	lw	a3,20(a1)
    30ec:	000017b7          	lui	a5,0x1
    30f0:	40f407b3          	sub	a5,s0,a5
    30f4:	58d7b823          	sd	a3,1424(a5) # 1590 <.LBB101_5+0x13c>
    30f8:	0185a683          	lw	a3,24(a1)
    30fc:	000017b7          	lui	a5,0x1
    3100:	40f407b3          	sub	a5,s0,a5
    3104:	58d7b023          	sd	a3,1408(a5) # 1580 <.LBB101_5+0x12c>
    3108:	f9043783          	ld	a5,-112(s0)
    310c:	01c5a583          	lw	a1,28(a1)
    3110:	000016b7          	lui	a3,0x1
    3114:	40d406b3          	sub	a3,s0,a3
    3118:	3ab6b823          	sd	a1,944(a3) # 13b0 <.LBB101_4+0x500>
    311c:	00f805b3          	add	a1,a6,a5
    3120:	00b5053b          	addw	a0,a0,a1
    3124:	400005b7          	lui	a1,0x40000
    3128:	000016b7          	lui	a3,0x1
    312c:	40d406b3          	sub	a3,s0,a3
    3130:	56a6b823          	sd	a0,1392(a3) # 1570 <.LBB101_5+0x11c>
    3134:	00055463          	bgez	a0,313c <.LBB101_26>
    3138:	c00005b7          	lui	a1,0xc0000

000000000000313c <.LBB101_26>:
    313c:	00001537          	lui	a0,0x1
    3140:	40a40533          	sub	a0,s0,a0
    3144:	56b53423          	sd	a1,1384(a0) # 1568 <.LBB101_5+0x114>
    3148:	007e1e13          	slli	t3,t3,0x7
    314c:	eb843503          	ld	a0,-328(s0)
    3150:	000015b7          	lui	a1,0x1
    3154:	40b405b3          	sub	a1,s0,a1
    3158:	6d85b583          	ld	a1,1752(a1) # 16d8 <.LBB101_5+0x284>
    315c:	00a58533          	add	a0,a1,a0
    3160:	000015b7          	lui	a1,0x1
    3164:	40b405b3          	sub	a1,s0,a1
    3168:	6dc5bc23          	sd	t3,1752(a1) # 16d8 <.LBB101_5+0x284>
    316c:	01c50533          	add	a0,a0,t3
    3170:	00f805b3          	add	a1,a6,a5
    3174:	00b5053b          	addw	a0,a0,a1
    3178:	400005b7          	lui	a1,0x40000
    317c:	000016b7          	lui	a3,0x1
    3180:	40d406b3          	sub	a3,s0,a3
    3184:	50a6bc23          	sd	a0,1304(a3) # 1518 <.LBB101_5+0xc4>
    3188:	000016b7          	lui	a3,0x1
    318c:	40d406b3          	sub	a3,s0,a3
    3190:	7206b683          	ld	a3,1824(a3) # 1720 <.LBB101_5+0x2cc>
    3194:	00055463          	bgez	a0,319c <.LBB101_28>
    3198:	c00005b7          	lui	a1,0xc0000

000000000000319c <.LBB101_28>:
    319c:	00001537          	lui	a0,0x1
    31a0:	40a40533          	sub	a0,s0,a0
    31a4:	50b53823          	sd	a1,1296(a0) # 1510 <.LBB101_5+0xbc>
    31a8:	00709093          	slli	ra,ra,0x7
    31ac:	ec043503          	ld	a0,-320(s0)
    31b0:	000015b7          	lui	a1,0x1
    31b4:	40b405b3          	sub	a1,s0,a1
    31b8:	6e05b583          	ld	a1,1760(a1) # 16e0 <.LBB101_5+0x28c>
    31bc:	00a58533          	add	a0,a1,a0
    31c0:	000015b7          	lui	a1,0x1
    31c4:	40b405b3          	sub	a1,s0,a1
    31c8:	6e15b023          	sd	ra,1760(a1) # 16e0 <.LBB101_5+0x28c>
    31cc:	00150533          	add	a0,a0,ra
    31d0:	001fe0b7          	lui	ra,0x1fe
    31d4:	001805b3          	add	a1,a6,ra
    31d8:	00b5053b          	addw	a0,a0,a1
    31dc:	400005b7          	lui	a1,0x40000
    31e0:	a8843783          	ld	a5,-1400(s0)
    31e4:	00001e37          	lui	t3,0x1
    31e8:	41c40e33          	sub	t3,s0,t3
    31ec:	4aae3c23          	sd	a0,1208(t3) # 14b8 <.LBB101_5+0x64>
    31f0:	00001e37          	lui	t3,0x1
    31f4:	41c40e33          	sub	t3,s0,t3
    31f8:	6f8e3e03          	ld	t3,1784(t3) # 16f8 <.LBB101_5+0x2a4>
    31fc:	00055463          	bgez	a0,3204 <.LBB101_30>
    3200:	c00005b7          	lui	a1,0xc0000

0000000000003204 <.LBB101_30>:
    3204:	f8c43823          	sd	a2,-112(s0)
    3208:	00001537          	lui	a0,0x1
    320c:	40a40533          	sub	a0,s0,a0
    3210:	4ab53823          	sd	a1,1200(a0) # 14b0 <.LBB101_5+0x5c>
    3214:	007d9593          	slli	a1,s11,0x7
    3218:	ec843503          	ld	a0,-312(s0)
    321c:	00001637          	lui	a2,0x1
    3220:	40c40633          	sub	a2,s0,a2
    3224:	6e863d83          	ld	s11,1768(a2) # 16e8 <.LBB101_5+0x294>
    3228:	00ad8533          	add	a0,s11,a0
    322c:	00058d93          	mv	s11,a1
    3230:	00b50533          	add	a0,a0,a1
    3234:	001805b3          	add	a1,a6,ra
    3238:	00b5053b          	addw	a0,a0,a1
    323c:	400005b7          	lui	a1,0x40000
    3240:	00001637          	lui	a2,0x1
    3244:	40c40633          	sub	a2,s0,a2
    3248:	46a63023          	sd	a0,1120(a2) # 1460 <.LBB101_5+0xc>
    324c:	f9043603          	ld	a2,-112(s0)
    3250:	00055463          	bgez	a0,3258 <.LBB101_32>
    3254:	c00005b7          	lui	a1,0xc0000

0000000000003258 <.LBB101_32>:
    3258:	f8c43823          	sd	a2,-112(s0)
    325c:	00001537          	lui	a0,0x1
    3260:	40a40533          	sub	a0,s0,a0
    3264:	44b53823          	sd	a1,1104(a0) # 1450 <.LBB101_4+0x5a0>
    3268:	007d1593          	slli	a1,s10,0x7
    326c:	ed043503          	ld	a0,-304(s0)
    3270:	00001637          	lui	a2,0x1
    3274:	40c40633          	sub	a2,s0,a2
    3278:	6f063d03          	ld	s10,1776(a2) # 16f0 <.LBB101_5+0x29c>
    327c:	00ad0533          	add	a0,s10,a0
    3280:	00058d13          	mv	s10,a1
    3284:	00b50533          	add	a0,a0,a1
    3288:	001805b3          	add	a1,a6,ra
    328c:	00b5053b          	addw	a0,a0,a1
    3290:	400005b7          	lui	a1,0x40000
    3294:	00001637          	lui	a2,0x1
    3298:	40c40633          	sub	a2,s0,a2
    329c:	40a63423          	sd	a0,1032(a2) # 1408 <.LBB101_4+0x558>
    32a0:	f9043603          	ld	a2,-112(s0)
    32a4:	00055463          	bgez	a0,32ac <.LBB101_34>
    32a8:	c00005b7          	lui	a1,0xc0000

00000000000032ac <.LBB101_34>:
    32ac:	f8c43823          	sd	a2,-112(s0)
    32b0:	00001537          	lui	a0,0x1
    32b4:	40a40533          	sub	a0,s0,a0
    32b8:	3eb53c23          	sd	a1,1016(a0) # 13f8 <.LBB101_4+0x548>
    32bc:	007c9593          	slli	a1,s9,0x7
    32c0:	ed843503          	ld	a0,-296(s0)
    32c4:	00ae0533          	add	a0,t3,a0
    32c8:	00058c93          	mv	s9,a1
    32cc:	00b50533          	add	a0,a0,a1
    32d0:	001805b3          	add	a1,a6,ra
    32d4:	00b5053b          	addw	a0,a0,a1
    32d8:	400005b7          	lui	a1,0x40000
    32dc:	b7843e03          	ld	t3,-1160(s0)
    32e0:	00001637          	lui	a2,0x1
    32e4:	40c40633          	sub	a2,s0,a2
    32e8:	3aa63023          	sd	a0,928(a2) # 13a0 <.LBB101_4+0x4f0>
    32ec:	f9043603          	ld	a2,-112(s0)
    32f0:	00055463          	bgez	a0,32f8 <.LBB101_36>
    32f4:	c00005b7          	lui	a1,0xc0000

00000000000032f8 <.LBB101_36>:
    32f8:	00001537          	lui	a0,0x1
    32fc:	40a40533          	sub	a0,s0,a0
    3300:	38b53423          	sd	a1,904(a0) # 1388 <.LBB101_4+0x4d8>
    3304:	007c1c13          	slli	s8,s8,0x7
    3308:	ee043503          	ld	a0,-288(s0)
    330c:	000015b7          	lui	a1,0x1
    3310:	40b405b3          	sub	a1,s0,a1
    3314:	7005b583          	ld	a1,1792(a1) # 1700 <.LBB101_5+0x2ac>
    3318:	00a58533          	add	a0,a1,a0
    331c:	000015b7          	lui	a1,0x1
    3320:	40b405b3          	sub	a1,s0,a1
    3324:	7185b023          	sd	s8,1792(a1) # 1700 <.LBB101_5+0x2ac>
    3328:	01850533          	add	a0,a0,s8
    332c:	001805b3          	add	a1,a6,ra
    3330:	00b5053b          	addw	a0,a0,a1
    3334:	400005b7          	lui	a1,0x40000
    3338:	00001c37          	lui	s8,0x1
    333c:	41840c33          	sub	s8,s0,s8
    3340:	32ac3823          	sd	a0,816(s8) # 1330 <.LBB101_4+0x480>
    3344:	00055463          	bgez	a0,334c <.LBB101_38>
    3348:	c00005b7          	lui	a1,0xc0000

000000000000334c <.LBB101_38>:
    334c:	f8c43823          	sd	a2,-112(s0)
    3350:	00001537          	lui	a0,0x1
    3354:	40a40533          	sub	a0,s0,a0
    3358:	32b53023          	sd	a1,800(a0) # 1320 <.LBB101_4+0x470>
    335c:	007b9593          	slli	a1,s7,0x7
    3360:	ee843503          	ld	a0,-280(s0)
    3364:	00001637          	lui	a2,0x1
    3368:	40c40633          	sub	a2,s0,a2
    336c:	70863b83          	ld	s7,1800(a2) # 1708 <.LBB101_5+0x2b4>
    3370:	00ab8533          	add	a0,s7,a0
    3374:	00058b93          	mv	s7,a1
    3378:	00b50533          	add	a0,a0,a1
    337c:	001805b3          	add	a1,a6,ra
    3380:	00b5053b          	addw	a0,a0,a1
    3384:	400005b7          	lui	a1,0x40000
    3388:	a7843c03          	ld	s8,-1416(s0)
    338c:	00001637          	lui	a2,0x1
    3390:	40c40633          	sub	a2,s0,a2
    3394:	2ca63023          	sd	a0,704(a2) # 12c0 <.LBB101_4+0x410>
    3398:	f9043603          	ld	a2,-112(s0)
    339c:	00055463          	bgez	a0,33a4 <.LBB101_40>
    33a0:	c00005b7          	lui	a1,0xc0000

00000000000033a4 <.LBB101_40>:
    33a4:	00001537          	lui	a0,0x1
    33a8:	40a40533          	sub	a0,s0,a0
    33ac:	2ab53823          	sd	a1,688(a0) # 12b0 <.LBB101_4+0x400>
    33b0:	007b1593          	slli	a1,s6,0x7
    33b4:	ef043503          	ld	a0,-272(s0)
    33b8:	00001b37          	lui	s6,0x1
    33bc:	41640b33          	sub	s6,s0,s6
    33c0:	710b3b03          	ld	s6,1808(s6) # 1710 <.LBB101_5+0x2bc>
    33c4:	00ab0533          	add	a0,s6,a0
    33c8:	00058b13          	mv	s6,a1
    33cc:	00b50533          	add	a0,a0,a1
    33d0:	001805b3          	add	a1,a6,ra
    33d4:	00b5053b          	addw	a0,a0,a1
    33d8:	400005b7          	lui	a1,0x40000
    33dc:	e1d43023          	sd	t4,-512(s0)
    33e0:	00001eb7          	lui	t4,0x1
    33e4:	41d40eb3          	sub	t4,s0,t4
    33e8:	24aebc23          	sd	a0,600(t4) # 1258 <.LBB101_4+0x3a8>
    33ec:	00055463          	bgez	a0,33f4 <.LBB101_42>
    33f0:	c00005b7          	lui	a1,0xc0000

00000000000033f4 <.LBB101_42>:
    33f4:	00001537          	lui	a0,0x1
    33f8:	40a40533          	sub	a0,s0,a0
    33fc:	24b53823          	sd	a1,592(a0) # 1250 <.LBB101_4+0x3a0>
    3400:	007a9a93          	slli	s5,s5,0x7
    3404:	ef843503          	ld	a0,-264(s0)
    3408:	000015b7          	lui	a1,0x1
    340c:	40b405b3          	sub	a1,s0,a1
    3410:	7185b583          	ld	a1,1816(a1) # 1718 <.LBB101_5+0x2c4>
    3414:	00a58533          	add	a0,a1,a0
    3418:	000015b7          	lui	a1,0x1
    341c:	40b405b3          	sub	a1,s0,a1
    3420:	7155bc23          	sd	s5,1816(a1) # 1718 <.LBB101_5+0x2c4>
    3424:	01550533          	add	a0,a0,s5
    3428:	001805b3          	add	a1,a6,ra
    342c:	00b5053b          	addw	a0,a0,a1
    3430:	400005b7          	lui	a1,0x40000
    3434:	00001eb7          	lui	t4,0x1
    3438:	41d40eb3          	sub	t4,s0,t4
    343c:	1eaeb023          	sd	a0,480(t4) # 11e0 <.LBB101_4+0x330>
    3440:	00001eb7          	lui	t4,0x1
    3444:	41d40eb3          	sub	t4,s0,t4
    3448:	760ebe83          	ld	t4,1888(t4) # 1760 <.LBB101_5+0x30c>
    344c:	00055463          	bgez	a0,3454 <.LBB101_44>
    3450:	c00005b7          	lui	a1,0xc0000

0000000000003454 <.LBB101_44>:
    3454:	00001537          	lui	a0,0x1
    3458:	40a40533          	sub	a0,s0,a0
    345c:	1cb53823          	sd	a1,464(a0) # 11d0 <.LBB101_4+0x320>
    3460:	007a1593          	slli	a1,s4,0x7
    3464:	f0043503          	ld	a0,-256(s0)
    3468:	00a68533          	add	a0,a3,a0
    346c:	000016b7          	lui	a3,0x1
    3470:	40d406b3          	sub	a3,s0,a3
    3474:	72b6b023          	sd	a1,1824(a3) # 1720 <.LBB101_5+0x2cc>
    3478:	00b50533          	add	a0,a0,a1
    347c:	001805b3          	add	a1,a6,ra
    3480:	00b5053b          	addw	a0,a0,a1
    3484:	400005b7          	lui	a1,0x40000
    3488:	000016b7          	lui	a3,0x1
    348c:	40d406b3          	sub	a3,s0,a3
    3490:	16a6b023          	sd	a0,352(a3) # 1160 <.LBB101_4+0x2b0>
    3494:	000016b7          	lui	a3,0x1
    3498:	40d406b3          	sub	a3,s0,a3
    349c:	7286ba03          	ld	s4,1832(a3) # 1728 <.LBB101_5+0x2d4>
    34a0:	00055463          	bgez	a0,34a8 <.LBB101_46>
    34a4:	c00005b7          	lui	a1,0xc0000

00000000000034a8 <.LBB101_46>:
    34a8:	00001537          	lui	a0,0x1
    34ac:	40a40533          	sub	a0,s0,a0
    34b0:	14b53c23          	sd	a1,344(a0) # 1158 <.LBB101_4+0x2a8>
    34b4:	00799593          	slli	a1,s3,0x7
    34b8:	f0843503          	ld	a0,-248(s0)
    34bc:	00aa0533          	add	a0,s4,a0
    34c0:	000016b7          	lui	a3,0x1
    34c4:	40d406b3          	sub	a3,s0,a3
    34c8:	72b6b423          	sd	a1,1832(a3) # 1728 <.LBB101_5+0x2d4>
    34cc:	00b50533          	add	a0,a0,a1
    34d0:	001805b3          	add	a1,a6,ra
    34d4:	00b5053b          	addw	a0,a0,a1
    34d8:	400005b7          	lui	a1,0x40000
    34dc:	97043a83          	ld	s5,-1680(s0)
    34e0:	000016b7          	lui	a3,0x1
    34e4:	40d406b3          	sub	a3,s0,a3
    34e8:	0ea6b823          	sd	a0,240(a3) # 10f0 <.LBB101_4+0x240>
    34ec:	000016b7          	lui	a3,0x1
    34f0:	40d406b3          	sub	a3,s0,a3
    34f4:	7806ba03          	ld	s4,1920(a3) # 1780 <.LBB101_5+0x32c>
    34f8:	00055463          	bgez	a0,3500 <.LBB101_48>
    34fc:	c00005b7          	lui	a1,0xc0000

0000000000003500 <.LBB101_48>:
    3500:	00001537          	lui	a0,0x1
    3504:	40a40533          	sub	a0,s0,a0
    3508:	0cb53c23          	sd	a1,216(a0) # 10d8 <.LBB101_4+0x228>
    350c:	00791913          	slli	s2,s2,0x7
    3510:	f3843503          	ld	a0,-200(s0)
    3514:	000015b7          	lui	a1,0x1
    3518:	40b405b3          	sub	a1,s0,a1
    351c:	7305b583          	ld	a1,1840(a1) # 1730 <.LBB101_5+0x2dc>
    3520:	00a58533          	add	a0,a1,a0
    3524:	000015b7          	lui	a1,0x1
    3528:	40b405b3          	sub	a1,s0,a1
    352c:	7325b823          	sd	s2,1840(a1) # 1730 <.LBB101_5+0x2dc>
    3530:	01250533          	add	a0,a0,s2
    3534:	001805b3          	add	a1,a6,ra
    3538:	00b5053b          	addw	a0,a0,a1
    353c:	400005b7          	lui	a1,0x40000
    3540:	000016b7          	lui	a3,0x1
    3544:	40d406b3          	sub	a3,s0,a3
    3548:	06a6bc23          	sd	a0,120(a3) # 1078 <.LBB101_4+0x1c8>
    354c:	000016b7          	lui	a3,0x1
    3550:	40d406b3          	sub	a3,s0,a3
    3554:	7586b983          	ld	s3,1880(a3) # 1758 <.LBB101_5+0x304>
    3558:	00055463          	bgez	a0,3560 <.LBB101_50>
    355c:	c00005b7          	lui	a1,0xc0000

0000000000003560 <.LBB101_50>:
    3560:	00001537          	lui	a0,0x1
    3564:	40a40533          	sub	a0,s0,a0
    3568:	06b53423          	sd	a1,104(a0) # 1068 <.LBB101_4+0x1b8>
    356c:	00749493          	slli	s1,s1,0x7
    3570:	f4043503          	ld	a0,-192(s0)
    3574:	000015b7          	lui	a1,0x1
    3578:	40b405b3          	sub	a1,s0,a1
    357c:	7385b583          	ld	a1,1848(a1) # 1738 <.LBB101_5+0x2e4>
    3580:	00a58533          	add	a0,a1,a0
    3584:	000015b7          	lui	a1,0x1
    3588:	40b405b3          	sub	a1,s0,a1
    358c:	7295bc23          	sd	s1,1848(a1) # 1738 <.LBB101_5+0x2e4>
    3590:	00950533          	add	a0,a0,s1
    3594:	001805b3          	add	a1,a6,ra
    3598:	00b5053b          	addw	a0,a0,a1
    359c:	400005b7          	lui	a1,0x40000
    35a0:	000016b7          	lui	a3,0x1
    35a4:	40d406b3          	sub	a3,s0,a3
    35a8:	00a6b023          	sd	a0,0(a3) # 1000 <.LBB101_4+0x150>
    35ac:	00055463          	bgez	a0,35b4 <.LBB101_52>
    35b0:	c00005b7          	lui	a1,0xc0000

00000000000035b4 <.LBB101_52>:
    35b4:	00001537          	lui	a0,0x1
    35b8:	40a40533          	sub	a0,s0,a0
    35bc:	feb53423          	sd	a1,-24(a0) # fe8 <.LBB101_4+0x138>
    35c0:	007f9593          	slli	a1,t6,0x7
    35c4:	f4843503          	ld	a0,-184(s0)
    35c8:	000016b7          	lui	a3,0x1
    35cc:	40d406b3          	sub	a3,s0,a3
    35d0:	7406bf83          	ld	t6,1856(a3) # 1740 <.LBB101_5+0x2ec>
    35d4:	00af8533          	add	a0,t6,a0
    35d8:	000016b7          	lui	a3,0x1
    35dc:	40d406b3          	sub	a3,s0,a3
    35e0:	74b6b023          	sd	a1,1856(a3) # 1740 <.LBB101_5+0x2ec>
    35e4:	00b50533          	add	a0,a0,a1
    35e8:	001805b3          	add	a1,a6,ra
    35ec:	00b5053b          	addw	a0,a0,a1
    35f0:	400005b7          	lui	a1,0x40000
    35f4:	b0043483          	ld	s1,-1280(s0)
    35f8:	000016b7          	lui	a3,0x1
    35fc:	40d406b3          	sub	a3,s0,a3
    3600:	f8a6b023          	sd	a0,-128(a3) # f80 <.LBB101_4+0xd0>
    3604:	00055463          	bgez	a0,360c <.LBB101_54>
    3608:	c00005b7          	lui	a1,0xc0000

000000000000360c <.LBB101_54>:
    360c:	00001537          	lui	a0,0x1
    3610:	40a40533          	sub	a0,s0,a0
    3614:	f6b53823          	sd	a1,-144(a0) # f70 <.LBB101_4+0xc0>
    3618:	007f1f13          	slli	t5,t5,0x7
    361c:	f5043503          	ld	a0,-176(s0)
    3620:	000015b7          	lui	a1,0x1
    3624:	40b405b3          	sub	a1,s0,a1
    3628:	7485b583          	ld	a1,1864(a1) # 1748 <.LBB101_5+0x2f4>
    362c:	00a58533          	add	a0,a1,a0
    3630:	000015b7          	lui	a1,0x1
    3634:	40b405b3          	sub	a1,s0,a1
    3638:	75e5b423          	sd	t5,1864(a1) # 1748 <.LBB101_5+0x2f4>
    363c:	01e50533          	add	a0,a0,t5
    3640:	001805b3          	add	a1,a6,ra
    3644:	00b5053b          	addw	a0,a0,a1
    3648:	400005b7          	lui	a1,0x40000
    364c:	b6843f03          	ld	t5,-1176(s0)
    3650:	000016b7          	lui	a3,0x1
    3654:	40d406b3          	sub	a3,s0,a3
    3658:	f0a6b423          	sd	a0,-248(a3) # f08 <.LBB101_4+0x58>
    365c:	000016b7          	lui	a3,0x1
    3660:	40d406b3          	sub	a3,s0,a3
    3664:	7686bf83          	ld	t6,1896(a3) # 1768 <.LBB101_5+0x314>
    3668:	00055463          	bgez	a0,3670 <.LBB101_56>
    366c:	c00005b7          	lui	a1,0xc0000

0000000000003670 <.LBB101_56>:
    3670:	00001537          	lui	a0,0x1
    3674:	40a40533          	sub	a0,s0,a0
    3678:	eeb53c23          	sd	a1,-264(a0) # ef8 <.LBB101_4+0x48>
    367c:	00761613          	slli	a2,a2,0x7
    3680:	f5843503          	ld	a0,-168(s0)
    3684:	000015b7          	lui	a1,0x1
    3688:	40b405b3          	sub	a1,s0,a1
    368c:	7505b583          	ld	a1,1872(a1) # 1750 <.LBB101_5+0x2fc>
    3690:	00a58533          	add	a0,a1,a0
    3694:	000015b7          	lui	a1,0x1
    3698:	40b405b3          	sub	a1,s0,a1
    369c:	74c5b823          	sd	a2,1872(a1) # 1750 <.LBB101_5+0x2fc>
    36a0:	00c50533          	add	a0,a0,a2
    36a4:	001805b3          	add	a1,a6,ra
    36a8:	00b5053b          	addw	a0,a0,a1
    36ac:	400005b7          	lui	a1,0x40000
    36b0:	00001637          	lui	a2,0x1
    36b4:	40c40633          	sub	a2,s0,a2
    36b8:	e8a63423          	sd	a0,-376(a2) # e88 <.LBB101_3+0xc30>
    36bc:	00055463          	bgez	a0,36c4 <.LBB101_58>
    36c0:	c00005b7          	lui	a1,0xc0000

00000000000036c4 <.LBB101_58>:
    36c4:	00001537          	lui	a0,0x1
    36c8:	40a40533          	sub	a0,s0,a0
    36cc:	e8b53023          	sd	a1,-384(a0) # e80 <.LBB101_3+0xc28>
    36d0:	00739593          	slli	a1,t2,0x7
    36d4:	f6043503          	ld	a0,-160(s0)
    36d8:	00a98533          	add	a0,s3,a0
    36dc:	00001637          	lui	a2,0x1
    36e0:	40c40633          	sub	a2,s0,a2
    36e4:	74b63c23          	sd	a1,1880(a2) # 1758 <.LBB101_5+0x304>
    36e8:	00b50533          	add	a0,a0,a1
    36ec:	001805b3          	add	a1,a6,ra
    36f0:	00b5053b          	addw	a0,a0,a1
    36f4:	400005b7          	lui	a1,0x40000
    36f8:	00001637          	lui	a2,0x1
    36fc:	40c40633          	sub	a2,s0,a2
    3700:	e0a63c23          	sd	a0,-488(a2) # e18 <.LBB101_3+0xbc0>
    3704:	00001637          	lui	a2,0x1
    3708:	40c40633          	sub	a2,s0,a2
    370c:	78863603          	ld	a2,1928(a2) # 1788 <.LBB101_5+0x334>
    3710:	00055463          	bgez	a0,3718 <.LBB101_60>
    3714:	c00005b7          	lui	a1,0xc0000

0000000000003718 <.LBB101_60>:
    3718:	00001537          	lui	a0,0x1
    371c:	40a40533          	sub	a0,s0,a0
    3720:	e0b53423          	sd	a1,-504(a0) # e08 <.LBB101_3+0xbb0>
    3724:	00731313          	slli	t1,t1,0x7
    3728:	f6843503          	ld	a0,-152(s0)
    372c:	00ae8533          	add	a0,t4,a0
    3730:	00030993          	mv	s3,t1
    3734:	00650533          	add	a0,a0,t1
    3738:	001805b3          	add	a1,a6,ra
    373c:	00b5053b          	addw	a0,a0,a1
    3740:	400005b7          	lui	a1,0x40000
    3744:	c7043e83          	ld	t4,-912(s0)
    3748:	000016b7          	lui	a3,0x1
    374c:	40d406b3          	sub	a3,s0,a3
    3750:	d8a6bc23          	sd	a0,-616(a3) # d98 <.LBB101_3+0xb40>
    3754:	000016b7          	lui	a3,0x1
    3758:	40d406b3          	sub	a3,s0,a3
    375c:	7786b383          	ld	t2,1912(a3) # 1778 <.LBB101_5+0x324>
    3760:	00055463          	bgez	a0,3768 <.LBB101_62>
    3764:	c00005b7          	lui	a1,0xc0000

0000000000003768 <.LBB101_62>:
    3768:	00001537          	lui	a0,0x1
    376c:	40a40533          	sub	a0,s0,a0
    3770:	d8b53823          	sd	a1,-624(a0) # d90 <.LBB101_3+0xb38>
    3774:	00729293          	slli	t0,t0,0x7
    3778:	f7043503          	ld	a0,-144(s0)
    377c:	00af8533          	add	a0,t6,a0
    3780:	00028f93          	mv	t6,t0
    3784:	00550533          	add	a0,a0,t0
    3788:	001805b3          	add	a1,a6,ra
    378c:	00b5053b          	addw	a0,a0,a1
    3790:	400005b7          	lui	a1,0x40000
    3794:	b7043303          	ld	t1,-1168(s0)
    3798:	000016b7          	lui	a3,0x1
    379c:	40d406b3          	sub	a3,s0,a3
    37a0:	d2a6b023          	sd	a0,-736(a3) # d20 <.LBB101_3+0xac8>
    37a4:	00055463          	bgez	a0,37ac <.LBB101_64>
    37a8:	c00005b7          	lui	a1,0xc0000

00000000000037ac <.LBB101_64>:
    37ac:	00001537          	lui	a0,0x1
    37b0:	40a40533          	sub	a0,s0,a0
    37b4:	d0b53c23          	sd	a1,-744(a0) # d18 <.LBB101_3+0xac0>
    37b8:	00789893          	slli	a7,a7,0x7
    37bc:	f7843503          	ld	a0,-136(s0)
    37c0:	000015b7          	lui	a1,0x1
    37c4:	40b405b3          	sub	a1,s0,a1
    37c8:	7705b583          	ld	a1,1904(a1) # 1770 <.LBB101_5+0x31c>
    37cc:	00a58533          	add	a0,a1,a0
    37d0:	000015b7          	lui	a1,0x1
    37d4:	40b405b3          	sub	a1,s0,a1
    37d8:	7715b823          	sd	a7,1904(a1) # 1770 <.LBB101_5+0x31c>
    37dc:	01150533          	add	a0,a0,a7
    37e0:	001805b3          	add	a1,a6,ra
    37e4:	00b5053b          	addw	a0,a0,a1
    37e8:	400005b7          	lui	a1,0x40000
    37ec:	a7043283          	ld	t0,-1424(s0)
    37f0:	000016b7          	lui	a3,0x1
    37f4:	40d406b3          	sub	a3,s0,a3
    37f8:	caa6b023          	sd	a0,-864(a3) # ca0 <.LBB101_3+0xa48>
    37fc:	00055463          	bgez	a0,3804 <.LBB101_66>
    3800:	c00005b7          	lui	a1,0xc0000

0000000000003804 <.LBB101_66>:
    3804:	00001537          	lui	a0,0x1
    3808:	40a40533          	sub	a0,s0,a0
    380c:	c8b53c23          	sd	a1,-872(a0) # c98 <.LBB101_3+0xa40>
    3810:	00001537          	lui	a0,0x1
    3814:	40a40533          	sub	a0,s0,a0
    3818:	5b853683          	ld	a3,1464(a0) # 15b8 <.LBB101_5+0x164>
    381c:	00769693          	slli	a3,a3,0x7
    3820:	f8043503          	ld	a0,-128(s0)
    3824:	00a38533          	add	a0,t2,a0
    3828:	00068393          	mv	t2,a3
    382c:	00d50533          	add	a0,a0,a3
    3830:	001805b3          	add	a1,a6,ra
    3834:	00b5053b          	addw	a0,a0,a1
    3838:	400005b7          	lui	a1,0x40000
    383c:	a8043883          	ld	a7,-1408(s0)
    3840:	000016b7          	lui	a3,0x1
    3844:	40d406b3          	sub	a3,s0,a3
    3848:	c4a6bc23          	sd	a0,-936(a3) # c58 <.LBB101_3+0xa00>
    384c:	00055463          	bgez	a0,3854 <.LBB101_68>
    3850:	c00005b7          	lui	a1,0xc0000

0000000000003854 <.LBB101_68>:
    3854:	00001537          	lui	a0,0x1
    3858:	40a40533          	sub	a0,s0,a0
    385c:	c4b53823          	sd	a1,-944(a0) # c50 <.LBB101_3+0x9f8>
    3860:	00001537          	lui	a0,0x1
    3864:	40a40533          	sub	a0,s0,a0
    3868:	5c053583          	ld	a1,1472(a0) # 15c0 <.LBB101_5+0x16c>
    386c:	00759593          	slli	a1,a1,0x7
    3870:	f8843503          	ld	a0,-120(s0)
    3874:	00aa0533          	add	a0,s4,a0
    3878:	00058a13          	mv	s4,a1
    387c:	00b50533          	add	a0,a0,a1
    3880:	00180833          	add	a6,a6,ra
    3884:	0105053b          	addw	a0,a0,a6
    3888:	400005b7          	lui	a1,0x40000
    388c:	88043683          	ld	a3,-1920(s0)
    3890:	00001837          	lui	a6,0x1
    3894:	41040833          	sub	a6,s0,a6
    3898:	c6a83023          	sd	a0,-928(a6) # c60 <.LBB101_3+0xa08>
    389c:	00055463          	bgez	a0,38a4 <.LBB101_70>
    38a0:	c00005b7          	lui	a1,0xc0000

00000000000038a4 <.LBB101_70>:
    38a4:	00001537          	lui	a0,0x1
    38a8:	40a40533          	sub	a0,s0,a0
    38ac:	beb53023          	sd	a1,-1056(a0) # be0 <.LBB101_3+0x988>
    38b0:	00471593          	slli	a1,a4,0x4
    38b4:	eb043503          	ld	a0,-336(s0)
    38b8:	00a60533          	add	a0,a2,a0
    38bc:	00e585b3          	add	a1,a1,a4
    38c0:	ea843603          	ld	a2,-344(s0)
    38c4:	00c50533          	add	a0,a0,a2
    38c8:	00158633          	add	a2,a1,ra
    38cc:	00c5053b          	addw	a0,a0,a2
    38d0:	40000637          	lui	a2,0x40000
    38d4:	00001737          	lui	a4,0x1
    38d8:	40e40733          	sub	a4,s0,a4
    38dc:	78a73423          	sd	a0,1928(a4) # 1788 <.LBB101_5+0x334>
    38e0:	98043803          	ld	a6,-1664(s0)
    38e4:	00055463          	bgez	a0,38ec <.LBB101_72>
    38e8:	c0000637          	lui	a2,0xc0000

00000000000038ec <.LBB101_72>:
    38ec:	00001537          	lui	a0,0x1
    38f0:	40a40533          	sub	a0,s0,a0
    38f4:	78c53023          	sd	a2,1920(a0) # 1780 <.LBB101_5+0x32c>
    38f8:	ea043503          	ld	a0,-352(s0)
    38fc:	00001637          	lui	a2,0x1
    3900:	40c40633          	sub	a2,s0,a2
    3904:	79063603          	ld	a2,1936(a2) # 1790 <.LBB101_5+0x33c>
    3908:	00a60533          	add	a0,a2,a0
    390c:	e9843603          	ld	a2,-360(s0)
    3910:	00c50533          	add	a0,a0,a2
    3914:	00158633          	add	a2,a1,ra
    3918:	00c5053b          	addw	a0,a0,a2
    391c:	40000637          	lui	a2,0x40000
    3920:	00001737          	lui	a4,0x1
    3924:	40e40733          	sub	a4,s0,a4
    3928:	78a73823          	sd	a0,1936(a4) # 1790 <.LBB101_5+0x33c>
    392c:	97843703          	ld	a4,-1672(s0)
    3930:	00055463          	bgez	a0,3938 <.LBB101_74>
    3934:	c0000637          	lui	a2,0xc0000

0000000000003938 <.LBB101_74>:
    3938:	00001537          	lui	a0,0x1
    393c:	40a40533          	sub	a0,s0,a0
    3940:	76c53c23          	sd	a2,1912(a0) # 1778 <.LBB101_5+0x324>
    3944:	e9043503          	ld	a0,-368(s0)
    3948:	00001637          	lui	a2,0x1
    394c:	40c40633          	sub	a2,s0,a2
    3950:	79863603          	ld	a2,1944(a2) # 1798 <.LBB101_5+0x344>
    3954:	00a60533          	add	a0,a2,a0
    3958:	e8843603          	ld	a2,-376(s0)
    395c:	00c50533          	add	a0,a0,a2
    3960:	00158633          	add	a2,a1,ra
    3964:	00c5053b          	addw	a0,a0,a2
    3968:	40000637          	lui	a2,0x40000
    396c:	00001937          	lui	s2,0x1
    3970:	41240933          	sub	s2,s0,s2
    3974:	78a93c23          	sd	a0,1944(s2) # 1798 <.LBB101_5+0x344>
    3978:	00055463          	bgez	a0,3980 <.LBB101_76>
    397c:	c0000637          	lui	a2,0xc0000

0000000000003980 <.LBB101_76>:
    3980:	00001537          	lui	a0,0x1
    3984:	40a40533          	sub	a0,s0,a0
    3988:	76c53423          	sd	a2,1896(a0) # 1768 <.LBB101_5+0x314>
    398c:	e8043503          	ld	a0,-384(s0)
    3990:	00001637          	lui	a2,0x1
    3994:	40c40633          	sub	a2,s0,a2
    3998:	7a063603          	ld	a2,1952(a2) # 17a0 <.LBB101_5+0x34c>
    399c:	00a60533          	add	a0,a2,a0
    39a0:	e7843603          	ld	a2,-392(s0)
    39a4:	00c50533          	add	a0,a0,a2
    39a8:	00158633          	add	a2,a1,ra
    39ac:	00c5053b          	addw	a0,a0,a2
    39b0:	40000637          	lui	a2,0x40000
    39b4:	00001937          	lui	s2,0x1
    39b8:	41240933          	sub	s2,s0,s2
    39bc:	7aa93023          	sd	a0,1952(s2) # 17a0 <.LBB101_5+0x34c>
    39c0:	00055463          	bgez	a0,39c8 <.LBB101_78>
    39c4:	c0000637          	lui	a2,0xc0000

00000000000039c8 <.LBB101_78>:
    39c8:	00001537          	lui	a0,0x1
    39cc:	40a40533          	sub	a0,s0,a0
    39d0:	76c53023          	sd	a2,1888(a0) # 1760 <.LBB101_5+0x30c>
    39d4:	e7043503          	ld	a0,-400(s0)
    39d8:	00001637          	lui	a2,0x1
    39dc:	40c40633          	sub	a2,s0,a2
    39e0:	7a863603          	ld	a2,1960(a2) # 17a8 <.LBB101_5+0x354>
    39e4:	00a60533          	add	a0,a2,a0
    39e8:	e6843603          	ld	a2,-408(s0)
    39ec:	00c50533          	add	a0,a0,a2
    39f0:	00158633          	add	a2,a1,ra
    39f4:	00c5053b          	addw	a0,a0,a2
    39f8:	40000637          	lui	a2,0x40000
    39fc:	00001937          	lui	s2,0x1
    3a00:	41240933          	sub	s2,s0,s2
    3a04:	7aa93423          	sd	a0,1960(s2) # 17a8 <.LBB101_5+0x354>
    3a08:	00055463          	bgez	a0,3a10 <.LBB101_80>
    3a0c:	c0000637          	lui	a2,0xc0000

0000000000003a10 <.LBB101_80>:
    3a10:	00001537          	lui	a0,0x1
    3a14:	40a40533          	sub	a0,s0,a0
    3a18:	70c53823          	sd	a2,1808(a0) # 1710 <.LBB101_5+0x2bc>
    3a1c:	00001537          	lui	a0,0x1
    3a20:	40a40533          	sub	a0,s0,a0
    3a24:	6c853503          	ld	a0,1736(a0) # 16c8 <.LBB101_5+0x274>
    3a28:	00001637          	lui	a2,0x1
    3a2c:	40c40633          	sub	a2,s0,a2
    3a30:	7b063603          	ld	a2,1968(a2) # 17b0 <.LBB101_5+0x35c>
    3a34:	00a60533          	add	a0,a2,a0
    3a38:	00001637          	lui	a2,0x1
    3a3c:	40c40633          	sub	a2,s0,a2
    3a40:	6c063603          	ld	a2,1728(a2) # 16c0 <.LBB101_5+0x26c>
    3a44:	00c50533          	add	a0,a0,a2
    3a48:	00158633          	add	a2,a1,ra
    3a4c:	00c5053b          	addw	a0,a0,a2
    3a50:	40000637          	lui	a2,0x40000
    3a54:	00001937          	lui	s2,0x1
    3a58:	41240933          	sub	s2,s0,s2
    3a5c:	7aa93823          	sd	a0,1968(s2) # 17b0 <.LBB101_5+0x35c>
    3a60:	00055463          	bgez	a0,3a68 <.LBB101_82>
    3a64:	c0000637          	lui	a2,0xc0000

0000000000003a68 <.LBB101_82>:
    3a68:	00001537          	lui	a0,0x1
    3a6c:	40a40533          	sub	a0,s0,a0
    3a70:	70c53423          	sd	a2,1800(a0) # 1708 <.LBB101_5+0x2b4>
    3a74:	00001537          	lui	a0,0x1
    3a78:	40a40533          	sub	a0,s0,a0
    3a7c:	6b853503          	ld	a0,1720(a0) # 16b8 <.LBB101_5+0x264>
    3a80:	00001637          	lui	a2,0x1
    3a84:	40c40633          	sub	a2,s0,a2
    3a88:	7b863603          	ld	a2,1976(a2) # 17b8 <.LBB101_5+0x364>
    3a8c:	00a60533          	add	a0,a2,a0
    3a90:	00001637          	lui	a2,0x1
    3a94:	40c40633          	sub	a2,s0,a2
    3a98:	6b063603          	ld	a2,1712(a2) # 16b0 <.LBB101_5+0x25c>
    3a9c:	00c50533          	add	a0,a0,a2
    3aa0:	00158633          	add	a2,a1,ra
    3aa4:	00c5053b          	addw	a0,a0,a2
    3aa8:	40000637          	lui	a2,0x40000
    3aac:	00001937          	lui	s2,0x1
    3ab0:	41240933          	sub	s2,s0,s2
    3ab4:	7aa93c23          	sd	a0,1976(s2) # 17b8 <.LBB101_5+0x364>
    3ab8:	00055463          	bgez	a0,3ac0 <.LBB101_84>
    3abc:	c0000637          	lui	a2,0xc0000

0000000000003ac0 <.LBB101_84>:
    3ac0:	00001537          	lui	a0,0x1
    3ac4:	40a40533          	sub	a0,s0,a0
    3ac8:	6ec53c23          	sd	a2,1784(a0) # 16f8 <.LBB101_5+0x2a4>
    3acc:	00001537          	lui	a0,0x1
    3ad0:	40a40533          	sub	a0,s0,a0
    3ad4:	6a853503          	ld	a0,1704(a0) # 16a8 <.LBB101_5+0x254>
    3ad8:	00001637          	lui	a2,0x1
    3adc:	40c40633          	sub	a2,s0,a2
    3ae0:	7c063603          	ld	a2,1984(a2) # 17c0 <.LBB101_5+0x36c>
    3ae4:	00a60533          	add	a0,a2,a0
    3ae8:	00001637          	lui	a2,0x1
    3aec:	40c40633          	sub	a2,s0,a2
    3af0:	6a063603          	ld	a2,1696(a2) # 16a0 <.LBB101_5+0x24c>
    3af4:	00c50533          	add	a0,a0,a2
    3af8:	00158633          	add	a2,a1,ra
    3afc:	00c5053b          	addw	a0,a0,a2
    3b00:	40000637          	lui	a2,0x40000
    3b04:	00001937          	lui	s2,0x1
    3b08:	41240933          	sub	s2,s0,s2
    3b0c:	5ca93023          	sd	a0,1472(s2) # 15c0 <.LBB101_5+0x16c>
    3b10:	00055463          	bgez	a0,3b18 <.LBB101_86>
    3b14:	c0000637          	lui	a2,0xc0000

0000000000003b18 <.LBB101_86>:
    3b18:	00001537          	lui	a0,0x1
    3b1c:	40a40533          	sub	a0,s0,a0
    3b20:	5ac53c23          	sd	a2,1464(a0) # 15b8 <.LBB101_5+0x164>
    3b24:	00001537          	lui	a0,0x1
    3b28:	40a40533          	sub	a0,s0,a0
    3b2c:	69853503          	ld	a0,1688(a0) # 1698 <.LBB101_5+0x244>
    3b30:	00001637          	lui	a2,0x1
    3b34:	40c40633          	sub	a2,s0,a2
    3b38:	7c863603          	ld	a2,1992(a2) # 17c8 <.LBB101_5+0x374>
    3b3c:	00a60533          	add	a0,a2,a0
    3b40:	00001637          	lui	a2,0x1
    3b44:	40c40633          	sub	a2,s0,a2
    3b48:	69063603          	ld	a2,1680(a2) # 1690 <.LBB101_5+0x23c>
    3b4c:	00c50533          	add	a0,a0,a2
    3b50:	00158633          	add	a2,a1,ra
    3b54:	00c5053b          	addw	a0,a0,a2
    3b58:	40000637          	lui	a2,0x40000
    3b5c:	00001937          	lui	s2,0x1
    3b60:	41240933          	sub	s2,s0,s2
    3b64:	56a93023          	sd	a0,1376(s2) # 1560 <.LBB101_5+0x10c>
    3b68:	00055463          	bgez	a0,3b70 <.LBB101_88>
    3b6c:	c0000637          	lui	a2,0xc0000

0000000000003b70 <.LBB101_88>:
    3b70:	00001537          	lui	a0,0x1
    3b74:	40a40533          	sub	a0,s0,a0
    3b78:	54c53c23          	sd	a2,1368(a0) # 1558 <.LBB101_5+0x104>
    3b7c:	00001537          	lui	a0,0x1
    3b80:	40a40533          	sub	a0,s0,a0
    3b84:	68853503          	ld	a0,1672(a0) # 1688 <.LBB101_5+0x234>
    3b88:	00001637          	lui	a2,0x1
    3b8c:	40c40633          	sub	a2,s0,a2
    3b90:	7d063603          	ld	a2,2000(a2) # 17d0 <.LBB101_5+0x37c>
    3b94:	00a60533          	add	a0,a2,a0
    3b98:	00001637          	lui	a2,0x1
    3b9c:	40c40633          	sub	a2,s0,a2
    3ba0:	6d063603          	ld	a2,1744(a2) # 16d0 <.LBB101_5+0x27c>
    3ba4:	00c50533          	add	a0,a0,a2
    3ba8:	00158633          	add	a2,a1,ra
    3bac:	00c5053b          	addw	a0,a0,a2
    3bb0:	40000637          	lui	a2,0x40000
    3bb4:	00001937          	lui	s2,0x1
    3bb8:	41240933          	sub	s2,s0,s2
    3bbc:	50a93423          	sd	a0,1288(s2) # 1508 <.LBB101_5+0xb4>
    3bc0:	00055463          	bgez	a0,3bc8 <.LBB101_90>
    3bc4:	c0000637          	lui	a2,0xc0000

0000000000003bc8 <.LBB101_90>:
    3bc8:	00001537          	lui	a0,0x1
    3bcc:	40a40533          	sub	a0,s0,a0
    3bd0:	50c53023          	sd	a2,1280(a0) # 1500 <.LBB101_5+0xac>
    3bd4:	eb843503          	ld	a0,-328(s0)
    3bd8:	00001637          	lui	a2,0x1
    3bdc:	40c40633          	sub	a2,s0,a2
    3be0:	7d863603          	ld	a2,2008(a2) # 17d8 <.LBB101_5+0x384>
    3be4:	00a60533          	add	a0,a2,a0
    3be8:	00001637          	lui	a2,0x1
    3bec:	40c40633          	sub	a2,s0,a2
    3bf0:	6d863603          	ld	a2,1752(a2) # 16d8 <.LBB101_5+0x284>
    3bf4:	00c50533          	add	a0,a0,a2
    3bf8:	00158633          	add	a2,a1,ra
    3bfc:	00c5053b          	addw	a0,a0,a2
    3c00:	40000637          	lui	a2,0x40000
    3c04:	00001937          	lui	s2,0x1
    3c08:	41240933          	sub	s2,s0,s2
    3c0c:	4aa93423          	sd	a0,1192(s2) # 14a8 <.LBB101_5+0x54>
    3c10:	00055463          	bgez	a0,3c18 <.LBB101_92>
    3c14:	c0000637          	lui	a2,0xc0000

0000000000003c18 <.LBB101_92>:
    3c18:	00001537          	lui	a0,0x1
    3c1c:	40a40533          	sub	a0,s0,a0
    3c20:	4ac53023          	sd	a2,1184(a0) # 14a0 <.LBB101_5+0x4c>
    3c24:	ec043503          	ld	a0,-320(s0)
    3c28:	00001637          	lui	a2,0x1
    3c2c:	40c40633          	sub	a2,s0,a2
    3c30:	7e063603          	ld	a2,2016(a2) # 17e0 <.LBB101_5+0x38c>
    3c34:	00a60533          	add	a0,a2,a0
    3c38:	00001637          	lui	a2,0x1
    3c3c:	40c40633          	sub	a2,s0,a2
    3c40:	6e063603          	ld	a2,1760(a2) # 16e0 <.LBB101_5+0x28c>
    3c44:	00c50533          	add	a0,a0,a2
    3c48:	00158633          	add	a2,a1,ra
    3c4c:	00c5053b          	addw	a0,a0,a2
    3c50:	40000637          	lui	a2,0x40000
    3c54:	00001937          	lui	s2,0x1
    3c58:	41240933          	sub	s2,s0,s2
    3c5c:	44a93c23          	sd	a0,1112(s2) # 1458 <.LBB101_5+0x4>
    3c60:	00055463          	bgez	a0,3c68 <.LBB101_94>
    3c64:	c0000637          	lui	a2,0xc0000

0000000000003c68 <.LBB101_94>:
    3c68:	00001537          	lui	a0,0x1
    3c6c:	40a40533          	sub	a0,s0,a0
    3c70:	44c53423          	sd	a2,1096(a0) # 1448 <.LBB101_4+0x598>
    3c74:	ec843503          	ld	a0,-312(s0)
    3c78:	00001637          	lui	a2,0x1
    3c7c:	40c40633          	sub	a2,s0,a2
    3c80:	7e863603          	ld	a2,2024(a2) # 17e8 <.LBB101_5+0x394>
    3c84:	00a60533          	add	a0,a2,a0
    3c88:	01b50533          	add	a0,a0,s11
    3c8c:	00158633          	add	a2,a1,ra
    3c90:	00c5053b          	addw	a0,a0,a2
    3c94:	40000637          	lui	a2,0x40000
    3c98:	00001937          	lui	s2,0x1
    3c9c:	41240933          	sub	s2,s0,s2
    3ca0:	40a93023          	sd	a0,1024(s2) # 1400 <.LBB101_4+0x550>
    3ca4:	00055463          	bgez	a0,3cac <.LBB101_96>
    3ca8:	c0000637          	lui	a2,0xc0000

0000000000003cac <.LBB101_96>:
    3cac:	00001537          	lui	a0,0x1
    3cb0:	40a40533          	sub	a0,s0,a0
    3cb4:	3ec53823          	sd	a2,1008(a0) # 13f0 <.LBB101_4+0x540>
    3cb8:	ed043503          	ld	a0,-304(s0)
    3cbc:	00001637          	lui	a2,0x1
    3cc0:	40c40633          	sub	a2,s0,a2
    3cc4:	7f063603          	ld	a2,2032(a2) # 17f0 <.LBB101_5+0x39c>
    3cc8:	00a60533          	add	a0,a2,a0
    3ccc:	01a50533          	add	a0,a0,s10
    3cd0:	00158633          	add	a2,a1,ra
    3cd4:	00c5053b          	addw	a0,a0,a2
    3cd8:	40000637          	lui	a2,0x40000
    3cdc:	00001937          	lui	s2,0x1
    3ce0:	41240933          	sub	s2,s0,s2
    3ce4:	3aa93423          	sd	a0,936(s2) # 13a8 <.LBB101_4+0x4f8>
    3ce8:	00055463          	bgez	a0,3cf0 <.LBB101_98>
    3cec:	c0000637          	lui	a2,0xc0000

0000000000003cf0 <.LBB101_98>:
    3cf0:	00001537          	lui	a0,0x1
    3cf4:	40a40533          	sub	a0,s0,a0
    3cf8:	38c53c23          	sd	a2,920(a0) # 1398 <.LBB101_4+0x4e8>
    3cfc:	ed843503          	ld	a0,-296(s0)
    3d00:	00001637          	lui	a2,0x1
    3d04:	40c40633          	sub	a2,s0,a2
    3d08:	7f863603          	ld	a2,2040(a2) # 17f8 <.LBB101_5+0x3a4>
    3d0c:	00a60533          	add	a0,a2,a0
    3d10:	01950533          	add	a0,a0,s9
    3d14:	00158633          	add	a2,a1,ra
    3d18:	00c5053b          	addw	a0,a0,a2
    3d1c:	40000637          	lui	a2,0x40000
    3d20:	00001937          	lui	s2,0x1
    3d24:	41240933          	sub	s2,s0,s2
    3d28:	34a93023          	sd	a0,832(s2) # 1340 <.LBB101_4+0x490>
    3d2c:	00055463          	bgez	a0,3d34 <.LBB101_100>
    3d30:	c0000637          	lui	a2,0xc0000

0000000000003d34 <.LBB101_100>:
    3d34:	00001537          	lui	a0,0x1
    3d38:	40a40533          	sub	a0,s0,a0
    3d3c:	32c53c23          	sd	a2,824(a0) # 1338 <.LBB101_4+0x488>
    3d40:	ee043503          	ld	a0,-288(s0)
    3d44:	80043603          	ld	a2,-2048(s0)
    3d48:	00a60533          	add	a0,a2,a0
    3d4c:	00001637          	lui	a2,0x1
    3d50:	40c40633          	sub	a2,s0,a2
    3d54:	70063603          	ld	a2,1792(a2) # 1700 <.LBB101_5+0x2ac>
    3d58:	00c50533          	add	a0,a0,a2
    3d5c:	00158633          	add	a2,a1,ra
    3d60:	00c5053b          	addw	a0,a0,a2
    3d64:	40000637          	lui	a2,0x40000
    3d68:	00001937          	lui	s2,0x1
    3d6c:	41240933          	sub	s2,s0,s2
    3d70:	2ca93c23          	sd	a0,728(s2) # 12d8 <.LBB101_4+0x428>
    3d74:	00055463          	bgez	a0,3d7c <.LBB101_102>
    3d78:	c0000637          	lui	a2,0xc0000

0000000000003d7c <.LBB101_102>:
    3d7c:	00001537          	lui	a0,0x1
    3d80:	40a40533          	sub	a0,s0,a0
    3d84:	2cc53823          	sd	a2,720(a0) # 12d0 <.LBB101_4+0x420>
    3d88:	ee843503          	ld	a0,-280(s0)
    3d8c:	80843603          	ld	a2,-2040(s0)
    3d90:	00a60533          	add	a0,a2,a0
    3d94:	01750533          	add	a0,a0,s7
    3d98:	00158633          	add	a2,a1,ra
    3d9c:	00c5053b          	addw	a0,a0,a2
    3da0:	40000637          	lui	a2,0x40000
    3da4:	00001937          	lui	s2,0x1
    3da8:	41240933          	sub	s2,s0,s2
    3dac:	26a93c23          	sd	a0,632(s2) # 1278 <.LBB101_4+0x3c8>
    3db0:	00055463          	bgez	a0,3db8 <.LBB101_104>
    3db4:	c0000637          	lui	a2,0xc0000

0000000000003db8 <.LBB101_104>:
    3db8:	00001537          	lui	a0,0x1
    3dbc:	40a40533          	sub	a0,s0,a0
    3dc0:	26c53823          	sd	a2,624(a0) # 1270 <.LBB101_4+0x3c0>
    3dc4:	ef043503          	ld	a0,-272(s0)
    3dc8:	81043603          	ld	a2,-2032(s0)
    3dcc:	00a60533          	add	a0,a2,a0
    3dd0:	01650533          	add	a0,a0,s6
    3dd4:	00158633          	add	a2,a1,ra
    3dd8:	00c5053b          	addw	a0,a0,a2
    3ddc:	40000637          	lui	a2,0x40000
    3de0:	00001937          	lui	s2,0x1
    3de4:	41240933          	sub	s2,s0,s2
    3de8:	20a93423          	sd	a0,520(s2) # 1208 <.LBB101_4+0x358>
    3dec:	00055463          	bgez	a0,3df4 <.LBB101_106>
    3df0:	c0000637          	lui	a2,0xc0000

0000000000003df4 <.LBB101_106>:
    3df4:	00001537          	lui	a0,0x1
    3df8:	40a40533          	sub	a0,s0,a0
    3dfc:	20c53023          	sd	a2,512(a0) # 1200 <.LBB101_4+0x350>
    3e00:	ef843503          	ld	a0,-264(s0)
    3e04:	81843603          	ld	a2,-2024(s0)
    3e08:	00a60533          	add	a0,a2,a0
    3e0c:	00001637          	lui	a2,0x1
    3e10:	40c40633          	sub	a2,s0,a2
    3e14:	71863603          	ld	a2,1816(a2) # 1718 <.LBB101_5+0x2c4>
    3e18:	00c50533          	add	a0,a0,a2
    3e1c:	00158633          	add	a2,a1,ra
    3e20:	00c5053b          	addw	a0,a0,a2
    3e24:	40000637          	lui	a2,0x40000
    3e28:	00001937          	lui	s2,0x1
    3e2c:	41240933          	sub	s2,s0,s2
    3e30:	18a93823          	sd	a0,400(s2) # 1190 <.LBB101_4+0x2e0>
    3e34:	00055463          	bgez	a0,3e3c <.LBB101_108>
    3e38:	c0000637          	lui	a2,0xc0000

0000000000003e3c <.LBB101_108>:
    3e3c:	00001537          	lui	a0,0x1
    3e40:	40a40533          	sub	a0,s0,a0
    3e44:	18c53423          	sd	a2,392(a0) # 1188 <.LBB101_4+0x2d8>
    3e48:	f0043503          	ld	a0,-256(s0)
    3e4c:	82043603          	ld	a2,-2016(s0)
    3e50:	00a60533          	add	a0,a2,a0
    3e54:	00001637          	lui	a2,0x1
    3e58:	40c40633          	sub	a2,s0,a2
    3e5c:	72063603          	ld	a2,1824(a2) # 1720 <.LBB101_5+0x2cc>
    3e60:	00c50533          	add	a0,a0,a2
    3e64:	00158633          	add	a2,a1,ra
    3e68:	00c5053b          	addw	a0,a0,a2
    3e6c:	40000637          	lui	a2,0x40000
    3e70:	00001937          	lui	s2,0x1
    3e74:	41240933          	sub	s2,s0,s2
    3e78:	12a93023          	sd	a0,288(s2) # 1120 <.LBB101_4+0x270>
    3e7c:	00055463          	bgez	a0,3e84 <.LBB101_110>
    3e80:	c0000637          	lui	a2,0xc0000

0000000000003e84 <.LBB101_110>:
    3e84:	00001537          	lui	a0,0x1
    3e88:	40a40533          	sub	a0,s0,a0
    3e8c:	10c53c23          	sd	a2,280(a0) # 1118 <.LBB101_4+0x268>
    3e90:	f0843503          	ld	a0,-248(s0)
    3e94:	82843603          	ld	a2,-2008(s0)
    3e98:	00a60533          	add	a0,a2,a0
    3e9c:	00001637          	lui	a2,0x1
    3ea0:	40c40633          	sub	a2,s0,a2
    3ea4:	72863603          	ld	a2,1832(a2) # 1728 <.LBB101_5+0x2d4>
    3ea8:	00c50533          	add	a0,a0,a2
    3eac:	00158633          	add	a2,a1,ra
    3eb0:	00c5053b          	addw	a0,a0,a2
    3eb4:	40000637          	lui	a2,0x40000
    3eb8:	00001937          	lui	s2,0x1
    3ebc:	41240933          	sub	s2,s0,s2
    3ec0:	0aa93823          	sd	a0,176(s2) # 10b0 <.LBB101_4+0x200>
    3ec4:	00055463          	bgez	a0,3ecc <.LBB101_112>
    3ec8:	c0000637          	lui	a2,0xc0000

0000000000003ecc <.LBB101_112>:
    3ecc:	00001537          	lui	a0,0x1
    3ed0:	40a40533          	sub	a0,s0,a0
    3ed4:	0ac53423          	sd	a2,168(a0) # 10a8 <.LBB101_4+0x1f8>
    3ed8:	f3843503          	ld	a0,-200(s0)
    3edc:	83043603          	ld	a2,-2000(s0)
    3ee0:	00a60533          	add	a0,a2,a0
    3ee4:	00001637          	lui	a2,0x1
    3ee8:	40c40633          	sub	a2,s0,a2
    3eec:	73063603          	ld	a2,1840(a2) # 1730 <.LBB101_5+0x2dc>
    3ef0:	00c50533          	add	a0,a0,a2
    3ef4:	00158633          	add	a2,a1,ra
    3ef8:	00c5053b          	addw	a0,a0,a2
    3efc:	40000637          	lui	a2,0x40000
    3f00:	00001937          	lui	s2,0x1
    3f04:	41240933          	sub	s2,s0,s2
    3f08:	04a93023          	sd	a0,64(s2) # 1040 <.LBB101_4+0x190>
    3f0c:	00055463          	bgez	a0,3f14 <.LBB101_114>
    3f10:	c0000637          	lui	a2,0xc0000

0000000000003f14 <.LBB101_114>:
    3f14:	00001537          	lui	a0,0x1
    3f18:	40a40533          	sub	a0,s0,a0
    3f1c:	02c53c23          	sd	a2,56(a0) # 1038 <.LBB101_4+0x188>
    3f20:	f4043503          	ld	a0,-192(s0)
    3f24:	83843603          	ld	a2,-1992(s0)
    3f28:	00a60533          	add	a0,a2,a0
    3f2c:	00001637          	lui	a2,0x1
    3f30:	40c40633          	sub	a2,s0,a2
    3f34:	73863603          	ld	a2,1848(a2) # 1738 <.LBB101_5+0x2e4>
    3f38:	00c50533          	add	a0,a0,a2
    3f3c:	00158633          	add	a2,a1,ra
    3f40:	00c5053b          	addw	a0,a0,a2
    3f44:	40000637          	lui	a2,0x40000
    3f48:	00001937          	lui	s2,0x1
    3f4c:	41240933          	sub	s2,s0,s2
    3f50:	fca93823          	sd	a0,-48(s2) # fd0 <.LBB101_4+0x120>
    3f54:	00055463          	bgez	a0,3f5c <.LBB101_116>
    3f58:	c0000637          	lui	a2,0xc0000

0000000000003f5c <.LBB101_116>:
    3f5c:	00001537          	lui	a0,0x1
    3f60:	40a40533          	sub	a0,s0,a0
    3f64:	fcc53423          	sd	a2,-56(a0) # fc8 <.LBB101_4+0x118>
    3f68:	f4843503          	ld	a0,-184(s0)
    3f6c:	84043603          	ld	a2,-1984(s0)
    3f70:	00a60533          	add	a0,a2,a0
    3f74:	00001637          	lui	a2,0x1
    3f78:	40c40633          	sub	a2,s0,a2
    3f7c:	74063603          	ld	a2,1856(a2) # 1740 <.LBB101_5+0x2ec>
    3f80:	00c50533          	add	a0,a0,a2
    3f84:	00158633          	add	a2,a1,ra
    3f88:	00c5053b          	addw	a0,a0,a2
    3f8c:	40000637          	lui	a2,0x40000
    3f90:	00001937          	lui	s2,0x1
    3f94:	41240933          	sub	s2,s0,s2
    3f98:	f4a93c23          	sd	a0,-168(s2) # f58 <.LBB101_4+0xa8>
    3f9c:	00055463          	bgez	a0,3fa4 <.LBB101_118>
    3fa0:	c0000637          	lui	a2,0xc0000

0000000000003fa4 <.LBB101_118>:
    3fa4:	00001537          	lui	a0,0x1
    3fa8:	40a40533          	sub	a0,s0,a0
    3fac:	f4c53823          	sd	a2,-176(a0) # f50 <.LBB101_4+0xa0>
    3fb0:	f5043503          	ld	a0,-176(s0)
    3fb4:	84843603          	ld	a2,-1976(s0)
    3fb8:	00a60533          	add	a0,a2,a0
    3fbc:	00001637          	lui	a2,0x1
    3fc0:	40c40633          	sub	a2,s0,a2
    3fc4:	74863603          	ld	a2,1864(a2) # 1748 <.LBB101_5+0x2f4>
    3fc8:	00c50533          	add	a0,a0,a2
    3fcc:	00158633          	add	a2,a1,ra
    3fd0:	00c5053b          	addw	a0,a0,a2
    3fd4:	40000637          	lui	a2,0x40000
    3fd8:	00001937          	lui	s2,0x1
    3fdc:	41240933          	sub	s2,s0,s2
    3fe0:	eea93423          	sd	a0,-280(s2) # ee8 <.LBB101_4+0x38>
    3fe4:	00055463          	bgez	a0,3fec <.LBB101_120>
    3fe8:	c0000637          	lui	a2,0xc0000

0000000000003fec <.LBB101_120>:
    3fec:	00001537          	lui	a0,0x1
    3ff0:	40a40533          	sub	a0,s0,a0
    3ff4:	eec53023          	sd	a2,-288(a0) # ee0 <.LBB101_4+0x30>
    3ff8:	f5843503          	ld	a0,-168(s0)
    3ffc:	85043603          	ld	a2,-1968(s0)
    4000:	00a60533          	add	a0,a2,a0
    4004:	00001637          	lui	a2,0x1
    4008:	40c40633          	sub	a2,s0,a2
    400c:	75063603          	ld	a2,1872(a2) # 1750 <.LBB101_5+0x2fc>
    4010:	00c50533          	add	a0,a0,a2
    4014:	00158633          	add	a2,a1,ra
    4018:	00c5053b          	addw	a0,a0,a2
    401c:	40000637          	lui	a2,0x40000
    4020:	00001937          	lui	s2,0x1
    4024:	41240933          	sub	s2,s0,s2
    4028:	e6a93823          	sd	a0,-400(s2) # e70 <.LBB101_3+0xc18>
    402c:	00055463          	bgez	a0,4034 <.LBB101_122>
    4030:	c0000637          	lui	a2,0xc0000

0000000000004034 <.LBB101_122>:
    4034:	00001537          	lui	a0,0x1
    4038:	40a40533          	sub	a0,s0,a0
    403c:	e6c53423          	sd	a2,-408(a0) # e68 <.LBB101_3+0xc10>
    4040:	f6043503          	ld	a0,-160(s0)
    4044:	85843603          	ld	a2,-1960(s0)
    4048:	00a60533          	add	a0,a2,a0
    404c:	00001637          	lui	a2,0x1
    4050:	40c40633          	sub	a2,s0,a2
    4054:	75863603          	ld	a2,1880(a2) # 1758 <.LBB101_5+0x304>
    4058:	00c50533          	add	a0,a0,a2
    405c:	00158633          	add	a2,a1,ra
    4060:	00c5053b          	addw	a0,a0,a2
    4064:	40000637          	lui	a2,0x40000
    4068:	00001937          	lui	s2,0x1
    406c:	41240933          	sub	s2,s0,s2
    4070:	e0a93023          	sd	a0,-512(s2) # e00 <.LBB101_3+0xba8>
    4074:	00055463          	bgez	a0,407c <.LBB101_124>
    4078:	c0000637          	lui	a2,0xc0000

000000000000407c <.LBB101_124>:
    407c:	00001537          	lui	a0,0x1
    4080:	40a40533          	sub	a0,s0,a0
    4084:	dec53c23          	sd	a2,-520(a0) # df8 <.LBB101_3+0xba0>
    4088:	f6843503          	ld	a0,-152(s0)
    408c:	86043603          	ld	a2,-1952(s0)
    4090:	00a60533          	add	a0,a2,a0
    4094:	01350533          	add	a0,a0,s3
    4098:	00158633          	add	a2,a1,ra
    409c:	00c5053b          	addw	a0,a0,a2
    40a0:	40000637          	lui	a2,0x40000
    40a4:	00001937          	lui	s2,0x1
    40a8:	41240933          	sub	s2,s0,s2
    40ac:	d8a93423          	sd	a0,-632(s2) # d88 <.LBB101_3+0xb30>
    40b0:	00055463          	bgez	a0,40b8 <.LBB101_126>
    40b4:	c0000637          	lui	a2,0xc0000

00000000000040b8 <.LBB101_126>:
    40b8:	00001537          	lui	a0,0x1
    40bc:	40a40533          	sub	a0,s0,a0
    40c0:	d8c53023          	sd	a2,-640(a0) # d80 <.LBB101_3+0xb28>
    40c4:	f7043503          	ld	a0,-144(s0)
    40c8:	86843603          	ld	a2,-1944(s0)
    40cc:	00a60533          	add	a0,a2,a0
    40d0:	01f50533          	add	a0,a0,t6
    40d4:	00158633          	add	a2,a1,ra
    40d8:	00c5053b          	addw	a0,a0,a2
    40dc:	40000637          	lui	a2,0x40000
    40e0:	00001937          	lui	s2,0x1
    40e4:	41240933          	sub	s2,s0,s2
    40e8:	d0a93823          	sd	a0,-752(s2) # d10 <.LBB101_3+0xab8>
    40ec:	00055463          	bgez	a0,40f4 <.LBB101_128>
    40f0:	c0000637          	lui	a2,0xc0000

00000000000040f4 <.LBB101_128>:
    40f4:	00001537          	lui	a0,0x1
    40f8:	40a40533          	sub	a0,s0,a0
    40fc:	d0c53423          	sd	a2,-760(a0) # d08 <.LBB101_3+0xab0>
    4100:	f7843503          	ld	a0,-136(s0)
    4104:	87043603          	ld	a2,-1936(s0)
    4108:	00a60533          	add	a0,a2,a0
    410c:	00001637          	lui	a2,0x1
    4110:	40c40633          	sub	a2,s0,a2
    4114:	77063603          	ld	a2,1904(a2) # 1770 <.LBB101_5+0x31c>
    4118:	00c50533          	add	a0,a0,a2
    411c:	00158633          	add	a2,a1,ra
    4120:	00c5053b          	addw	a0,a0,a2
    4124:	40000637          	lui	a2,0x40000
    4128:	00001937          	lui	s2,0x1
    412c:	41240933          	sub	s2,s0,s2
    4130:	c8a93823          	sd	a0,-880(s2) # c90 <.LBB101_3+0xa38>
    4134:	00055463          	bgez	a0,413c <.LBB101_130>
    4138:	c0000637          	lui	a2,0xc0000

000000000000413c <.LBB101_130>:
    413c:	00001537          	lui	a0,0x1
    4140:	40a40533          	sub	a0,s0,a0
    4144:	c8c53423          	sd	a2,-888(a0) # c88 <.LBB101_3+0xa30>
    4148:	f8043503          	ld	a0,-128(s0)
    414c:	87843603          	ld	a2,-1928(s0)
    4150:	00a60533          	add	a0,a2,a0
    4154:	00750533          	add	a0,a0,t2
    4158:	00158633          	add	a2,a1,ra
    415c:	00c5053b          	addw	a0,a0,a2
    4160:	40000637          	lui	a2,0x40000
    4164:	00001937          	lui	s2,0x1
    4168:	41240933          	sub	s2,s0,s2
    416c:	c4a93423          	sd	a0,-952(s2) # c48 <.LBB101_3+0x9f0>
    4170:	00055463          	bgez	a0,4178 <.LBB101_132>
    4174:	c0000637          	lui	a2,0xc0000

0000000000004178 <.LBB101_132>:
    4178:	00001537          	lui	a0,0x1
    417c:	40a40533          	sub	a0,s0,a0
    4180:	c4c53023          	sd	a2,-960(a0) # c40 <.LBB101_3+0x9e8>
    4184:	f8843503          	ld	a0,-120(s0)
    4188:	00a68533          	add	a0,a3,a0
    418c:	01450533          	add	a0,a0,s4
    4190:	001585b3          	add	a1,a1,ra
    4194:	00b506bb          	addw	a3,a0,a1
    4198:	40000537          	lui	a0,0x40000
    419c:	0006d463          	bgez	a3,41a4 <.LBB101_134>
    41a0:	c0000537          	lui	a0,0xc0000

00000000000041a4 <.LBB101_134>:
    41a4:	000015b7          	lui	a1,0x1
    41a8:	40b405b3          	sub	a1,s0,a1
    41ac:	bca5bc23          	sd	a0,-1064(a1) # bd8 <.LBB101_3+0x980>
    41b0:	00001537          	lui	a0,0x1
    41b4:	40a40533          	sub	a0,s0,a0
    41b8:	5b053903          	ld	s2,1456(a0) # 15b0 <.LBB101_5+0x15c>
    41bc:	00491513          	slli	a0,s2,0x4
    41c0:	eb043583          	ld	a1,-336(s0)
    41c4:	88843603          	ld	a2,-1912(s0)
    41c8:	00b605b3          	add	a1,a2,a1
    41cc:	01250533          	add	a0,a0,s2
    41d0:	ea843603          	ld	a2,-344(s0)
    41d4:	00c585b3          	add	a1,a1,a2
    41d8:	00150633          	add	a2,a0,ra
    41dc:	00c585bb          	addw	a1,a1,a2
    41e0:	40000637          	lui	a2,0x40000
    41e4:	88b43423          	sd	a1,-1912(s0)
    41e8:	0005d463          	bgez	a1,41f0 <.LBB101_136>
    41ec:	c0000637          	lui	a2,0xc0000

00000000000041f0 <.LBB101_136>:
    41f0:	88c43023          	sd	a2,-1920(s0)
    41f4:	ea043583          	ld	a1,-352(s0)
    41f8:	89043603          	ld	a2,-1904(s0)
    41fc:	00b605b3          	add	a1,a2,a1
    4200:	e9843603          	ld	a2,-360(s0)
    4204:	00c585b3          	add	a1,a1,a2
    4208:	00150633          	add	a2,a0,ra
    420c:	00c585bb          	addw	a1,a1,a2
    4210:	40000637          	lui	a2,0x40000
    4214:	88b43823          	sd	a1,-1904(s0)
    4218:	0005d463          	bgez	a1,4220 <.LBB101_138>
    421c:	c0000637          	lui	a2,0xc0000

0000000000004220 <.LBB101_138>:
    4220:	86c43c23          	sd	a2,-1928(s0)
    4224:	e9043583          	ld	a1,-368(s0)
    4228:	89843603          	ld	a2,-1896(s0)
    422c:	00b605b3          	add	a1,a2,a1
    4230:	e8843603          	ld	a2,-376(s0)
    4234:	00c585b3          	add	a1,a1,a2
    4238:	00150633          	add	a2,a0,ra
    423c:	00c585bb          	addw	a1,a1,a2
    4240:	40000637          	lui	a2,0x40000
    4244:	88b43c23          	sd	a1,-1896(s0)
    4248:	0005d463          	bgez	a1,4250 <.LBB101_140>
    424c:	c0000637          	lui	a2,0xc0000

0000000000004250 <.LBB101_140>:
    4250:	86c43823          	sd	a2,-1936(s0)
    4254:	e8043583          	ld	a1,-384(s0)
    4258:	8a043603          	ld	a2,-1888(s0)
    425c:	00b605b3          	add	a1,a2,a1
    4260:	e7843603          	ld	a2,-392(s0)
    4264:	00c585b3          	add	a1,a1,a2
    4268:	00150633          	add	a2,a0,ra
    426c:	00c585bb          	addw	a1,a1,a2
    4270:	40000637          	lui	a2,0x40000
    4274:	8ab43023          	sd	a1,-1888(s0)
    4278:	0005d463          	bgez	a1,4280 <.LBB101_142>
    427c:	c0000637          	lui	a2,0xc0000

0000000000004280 <.LBB101_142>:
    4280:	86c43423          	sd	a2,-1944(s0)
    4284:	e7043583          	ld	a1,-400(s0)
    4288:	8a843603          	ld	a2,-1880(s0)
    428c:	00b605b3          	add	a1,a2,a1
    4290:	e6843603          	ld	a2,-408(s0)
    4294:	00c585b3          	add	a1,a1,a2
    4298:	00150633          	add	a2,a0,ra
    429c:	00c585bb          	addw	a1,a1,a2
    42a0:	40000637          	lui	a2,0x40000
    42a4:	8ab43423          	sd	a1,-1880(s0)
    42a8:	0005d463          	bgez	a1,42b0 <.LBB101_144>
    42ac:	c0000637          	lui	a2,0xc0000

00000000000042b0 <.LBB101_144>:
    42b0:	86c43023          	sd	a2,-1952(s0)
    42b4:	000015b7          	lui	a1,0x1
    42b8:	40b405b3          	sub	a1,s0,a1
    42bc:	6c85b583          	ld	a1,1736(a1) # 16c8 <.LBB101_5+0x274>
    42c0:	8b043603          	ld	a2,-1872(s0)
    42c4:	00b605b3          	add	a1,a2,a1
    42c8:	00001637          	lui	a2,0x1
    42cc:	40c40633          	sub	a2,s0,a2
    42d0:	6c063603          	ld	a2,1728(a2) # 16c0 <.LBB101_5+0x26c>
    42d4:	00c585b3          	add	a1,a1,a2
    42d8:	00150633          	add	a2,a0,ra
    42dc:	00c585bb          	addw	a1,a1,a2
    42e0:	40000637          	lui	a2,0x40000
    42e4:	8ab43823          	sd	a1,-1872(s0)
    42e8:	0005d463          	bgez	a1,42f0 <.LBB101_146>
    42ec:	c0000637          	lui	a2,0xc0000

00000000000042f0 <.LBB101_146>:
    42f0:	84c43c23          	sd	a2,-1960(s0)
    42f4:	000015b7          	lui	a1,0x1
    42f8:	40b405b3          	sub	a1,s0,a1
    42fc:	6b85b583          	ld	a1,1720(a1) # 16b8 <.LBB101_5+0x264>
    4300:	8b843603          	ld	a2,-1864(s0)
    4304:	00b605b3          	add	a1,a2,a1
    4308:	00001637          	lui	a2,0x1
    430c:	40c40633          	sub	a2,s0,a2
    4310:	6b063603          	ld	a2,1712(a2) # 16b0 <.LBB101_5+0x25c>
    4314:	00c585b3          	add	a1,a1,a2
    4318:	00150633          	add	a2,a0,ra
    431c:	00c585bb          	addw	a1,a1,a2
    4320:	40000637          	lui	a2,0x40000
    4324:	84b43023          	sd	a1,-1984(s0)
    4328:	0005d463          	bgez	a1,4330 <.LBB101_148>
    432c:	c0000637          	lui	a2,0xc0000

0000000000004330 <.LBB101_148>:
    4330:	000015b7          	lui	a1,0x1
    4334:	40b405b3          	sub	a1,s0,a1
    4338:	7ec5b423          	sd	a2,2024(a1) # 17e8 <.LBB101_5+0x394>
    433c:	000015b7          	lui	a1,0x1
    4340:	40b405b3          	sub	a1,s0,a1
    4344:	6a85b583          	ld	a1,1704(a1) # 16a8 <.LBB101_5+0x254>
    4348:	8c043603          	ld	a2,-1856(s0)
    434c:	00b605b3          	add	a1,a2,a1
    4350:	00001637          	lui	a2,0x1
    4354:	40c40633          	sub	a2,s0,a2
    4358:	6a063603          	ld	a2,1696(a2) # 16a0 <.LBB101_5+0x24c>
    435c:	00c585b3          	add	a1,a1,a2
    4360:	00150633          	add	a2,a0,ra
    4364:	00c585bb          	addw	a1,a1,a2
    4368:	40000637          	lui	a2,0x40000
    436c:	00001937          	lui	s2,0x1
    4370:	41240933          	sub	s2,s0,s2
    4374:	5ab93823          	sd	a1,1456(s2) # 15b0 <.LBB101_5+0x15c>
    4378:	0005d463          	bgez	a1,4380 <.LBB101_150>
    437c:	c0000637          	lui	a2,0xc0000

0000000000004380 <.LBB101_150>:
    4380:	000015b7          	lui	a1,0x1
    4384:	40b405b3          	sub	a1,s0,a1
    4388:	5ac5b423          	sd	a2,1448(a1) # 15a8 <.LBB101_5+0x154>
    438c:	8c843583          	ld	a1,-1848(s0)
    4390:	00001637          	lui	a2,0x1
    4394:	40c40633          	sub	a2,s0,a2
    4398:	69863603          	ld	a2,1688(a2) # 1698 <.LBB101_5+0x244>
    439c:	00c585b3          	add	a1,a1,a2
    43a0:	00001637          	lui	a2,0x1
    43a4:	40c40633          	sub	a2,s0,a2
    43a8:	69063603          	ld	a2,1680(a2) # 1690 <.LBB101_5+0x23c>
    43ac:	00c585b3          	add	a1,a1,a2
    43b0:	00150633          	add	a2,a0,ra
    43b4:	00c585bb          	addw	a1,a1,a2
    43b8:	40000637          	lui	a2,0x40000
    43bc:	00001937          	lui	s2,0x1
    43c0:	41240933          	sub	s2,s0,s2
    43c4:	54b93823          	sd	a1,1360(s2) # 1550 <.LBB101_5+0xfc>
    43c8:	0005d463          	bgez	a1,43d0 <.LBB101_152>
    43cc:	c0000637          	lui	a2,0xc0000

00000000000043d0 <.LBB101_152>:
    43d0:	000015b7          	lui	a1,0x1
    43d4:	40b405b3          	sub	a1,s0,a1
    43d8:	54c5b423          	sd	a2,1352(a1) # 1548 <.LBB101_5+0xf4>
    43dc:	8d043583          	ld	a1,-1840(s0)
    43e0:	00001637          	lui	a2,0x1
    43e4:	40c40633          	sub	a2,s0,a2
    43e8:	68863603          	ld	a2,1672(a2) # 1688 <.LBB101_5+0x234>
    43ec:	00c585b3          	add	a1,a1,a2
    43f0:	00001637          	lui	a2,0x1
    43f4:	40c40633          	sub	a2,s0,a2
    43f8:	6d063603          	ld	a2,1744(a2) # 16d0 <.LBB101_5+0x27c>
    43fc:	00c585b3          	add	a1,a1,a2
    4400:	00150633          	add	a2,a0,ra
    4404:	00c585bb          	addw	a1,a1,a2
    4408:	40000637          	lui	a2,0x40000
    440c:	00001937          	lui	s2,0x1
    4410:	41240933          	sub	s2,s0,s2
    4414:	4eb93c23          	sd	a1,1272(s2) # 14f8 <.LBB101_5+0xa4>
    4418:	0005d463          	bgez	a1,4420 <.LBB101_154>
    441c:	c0000637          	lui	a2,0xc0000

0000000000004420 <.LBB101_154>:
    4420:	000015b7          	lui	a1,0x1
    4424:	40b405b3          	sub	a1,s0,a1
    4428:	4ec5b823          	sd	a2,1264(a1) # 14f0 <.LBB101_5+0x9c>
    442c:	8d843583          	ld	a1,-1832(s0)
    4430:	eb843603          	ld	a2,-328(s0)
    4434:	00c585b3          	add	a1,a1,a2
    4438:	00001637          	lui	a2,0x1
    443c:	40c40633          	sub	a2,s0,a2
    4440:	6d863603          	ld	a2,1752(a2) # 16d8 <.LBB101_5+0x284>
    4444:	00c585b3          	add	a1,a1,a2
    4448:	00150633          	add	a2,a0,ra
    444c:	00c585bb          	addw	a1,a1,a2
    4450:	40000637          	lui	a2,0x40000
    4454:	00001937          	lui	s2,0x1
    4458:	41240933          	sub	s2,s0,s2
    445c:	48b93c23          	sd	a1,1176(s2) # 1498 <.LBB101_5+0x44>
    4460:	0005d463          	bgez	a1,4468 <.LBB101_156>
    4464:	c0000637          	lui	a2,0xc0000

0000000000004468 <.LBB101_156>:
    4468:	000015b7          	lui	a1,0x1
    446c:	40b405b3          	sub	a1,s0,a1
    4470:	48c5b823          	sd	a2,1168(a1) # 1490 <.LBB101_5+0x3c>
    4474:	8e043583          	ld	a1,-1824(s0)
    4478:	ec043603          	ld	a2,-320(s0)
    447c:	00c585b3          	add	a1,a1,a2
    4480:	00001637          	lui	a2,0x1
    4484:	40c40633          	sub	a2,s0,a2
    4488:	6e063603          	ld	a2,1760(a2) # 16e0 <.LBB101_5+0x28c>
    448c:	00c585b3          	add	a1,a1,a2
    4490:	00150633          	add	a2,a0,ra
    4494:	00c585bb          	addw	a1,a1,a2
    4498:	40000637          	lui	a2,0x40000
    449c:	00001937          	lui	s2,0x1
    44a0:	41240933          	sub	s2,s0,s2
    44a4:	44b93023          	sd	a1,1088(s2) # 1440 <.LBB101_4+0x590>
    44a8:	0005d463          	bgez	a1,44b0 <.LBB101_158>
    44ac:	c0000637          	lui	a2,0xc0000

00000000000044b0 <.LBB101_158>:
    44b0:	000015b7          	lui	a1,0x1
    44b4:	40b405b3          	sub	a1,s0,a1
    44b8:	42c5bc23          	sd	a2,1080(a1) # 1438 <.LBB101_4+0x588>
    44bc:	8e843583          	ld	a1,-1816(s0)
    44c0:	ec843603          	ld	a2,-312(s0)
    44c4:	00c585b3          	add	a1,a1,a2
    44c8:	01b585b3          	add	a1,a1,s11
    44cc:	00150633          	add	a2,a0,ra
    44d0:	00c585bb          	addw	a1,a1,a2
    44d4:	40000637          	lui	a2,0x40000
    44d8:	00001937          	lui	s2,0x1
    44dc:	41240933          	sub	s2,s0,s2
    44e0:	3eb93423          	sd	a1,1000(s2) # 13e8 <.LBB101_4+0x538>
    44e4:	0005d463          	bgez	a1,44ec <.LBB101_160>
    44e8:	c0000637          	lui	a2,0xc0000

00000000000044ec <.LBB101_160>:
    44ec:	000015b7          	lui	a1,0x1
    44f0:	40b405b3          	sub	a1,s0,a1
    44f4:	3ec5b023          	sd	a2,992(a1) # 13e0 <.LBB101_4+0x530>
    44f8:	8f043583          	ld	a1,-1808(s0)
    44fc:	ed043603          	ld	a2,-304(s0)
    4500:	00c585b3          	add	a1,a1,a2
    4504:	01a585b3          	add	a1,a1,s10
    4508:	00150633          	add	a2,a0,ra
    450c:	00c585bb          	addw	a1,a1,a2
    4510:	40000637          	lui	a2,0x40000
    4514:	00001937          	lui	s2,0x1
    4518:	41240933          	sub	s2,s0,s2
    451c:	38b93823          	sd	a1,912(s2) # 1390 <.LBB101_4+0x4e0>
    4520:	0005d463          	bgez	a1,4528 <.LBB101_162>
    4524:	c0000637          	lui	a2,0xc0000

0000000000004528 <.LBB101_162>:
    4528:	000015b7          	lui	a1,0x1
    452c:	40b405b3          	sub	a1,s0,a1
    4530:	38c5b023          	sd	a2,896(a1) # 1380 <.LBB101_4+0x4d0>
    4534:	8f843583          	ld	a1,-1800(s0)
    4538:	ed843603          	ld	a2,-296(s0)
    453c:	00c585b3          	add	a1,a1,a2
    4540:	019585b3          	add	a1,a1,s9
    4544:	00150633          	add	a2,a0,ra
    4548:	00c585bb          	addw	a1,a1,a2
    454c:	40000637          	lui	a2,0x40000
    4550:	00001937          	lui	s2,0x1
    4554:	41240933          	sub	s2,s0,s2
    4558:	32b93423          	sd	a1,808(s2) # 1328 <.LBB101_4+0x478>
    455c:	0005d463          	bgez	a1,4564 <.LBB101_164>
    4560:	c0000637          	lui	a2,0xc0000

0000000000004564 <.LBB101_164>:
    4564:	000015b7          	lui	a1,0x1
    4568:	40b405b3          	sub	a1,s0,a1
    456c:	30c5bc23          	sd	a2,792(a1) # 1318 <.LBB101_4+0x468>
    4570:	90043583          	ld	a1,-1792(s0)
    4574:	ee043603          	ld	a2,-288(s0)
    4578:	00c585b3          	add	a1,a1,a2
    457c:	00001637          	lui	a2,0x1
    4580:	40c40633          	sub	a2,s0,a2
    4584:	70063603          	ld	a2,1792(a2) # 1700 <.LBB101_5+0x2ac>
    4588:	00c585b3          	add	a1,a1,a2
    458c:	00150633          	add	a2,a0,ra
    4590:	00c585bb          	addw	a1,a1,a2
    4594:	40000637          	lui	a2,0x40000
    4598:	00001937          	lui	s2,0x1
    459c:	41240933          	sub	s2,s0,s2
    45a0:	2cb93423          	sd	a1,712(s2) # 12c8 <.LBB101_4+0x418>
    45a4:	0005d463          	bgez	a1,45ac <.LBB101_166>
    45a8:	c0000637          	lui	a2,0xc0000

00000000000045ac <.LBB101_166>:
    45ac:	000015b7          	lui	a1,0x1
    45b0:	40b405b3          	sub	a1,s0,a1
    45b4:	2ac5bc23          	sd	a2,696(a1) # 12b8 <.LBB101_4+0x408>
    45b8:	90843583          	ld	a1,-1784(s0)
    45bc:	ee843603          	ld	a2,-280(s0)
    45c0:	00c585b3          	add	a1,a1,a2
    45c4:	017585b3          	add	a1,a1,s7
    45c8:	00150633          	add	a2,a0,ra
    45cc:	00c585bb          	addw	a1,a1,a2
    45d0:	40000637          	lui	a2,0x40000
    45d4:	00001937          	lui	s2,0x1
    45d8:	41240933          	sub	s2,s0,s2
    45dc:	26b93423          	sd	a1,616(s2) # 1268 <.LBB101_4+0x3b8>
    45e0:	0005d463          	bgez	a1,45e8 <.LBB101_168>
    45e4:	c0000637          	lui	a2,0xc0000

00000000000045e8 <.LBB101_168>:
    45e8:	000015b7          	lui	a1,0x1
    45ec:	40b405b3          	sub	a1,s0,a1
    45f0:	26c5b023          	sd	a2,608(a1) # 1260 <.LBB101_4+0x3b0>
    45f4:	91043583          	ld	a1,-1776(s0)
    45f8:	ef043603          	ld	a2,-272(s0)
    45fc:	00c585b3          	add	a1,a1,a2
    4600:	016585b3          	add	a1,a1,s6
    4604:	00150633          	add	a2,a0,ra
    4608:	00c585bb          	addw	a1,a1,a2
    460c:	40000637          	lui	a2,0x40000
    4610:	00001937          	lui	s2,0x1
    4614:	41240933          	sub	s2,s0,s2
    4618:	1eb93c23          	sd	a1,504(s2) # 11f8 <.LBB101_4+0x348>
    461c:	0005d463          	bgez	a1,4624 <.LBB101_170>
    4620:	c0000637          	lui	a2,0xc0000

0000000000004624 <.LBB101_170>:
    4624:	000015b7          	lui	a1,0x1
    4628:	40b405b3          	sub	a1,s0,a1
    462c:	1ec5b823          	sd	a2,496(a1) # 11f0 <.LBB101_4+0x340>
    4630:	91843583          	ld	a1,-1768(s0)
    4634:	ef843603          	ld	a2,-264(s0)
    4638:	00c585b3          	add	a1,a1,a2
    463c:	00001637          	lui	a2,0x1
    4640:	40c40633          	sub	a2,s0,a2
    4644:	71863603          	ld	a2,1816(a2) # 1718 <.LBB101_5+0x2c4>
    4648:	00c585b3          	add	a1,a1,a2
    464c:	00150633          	add	a2,a0,ra
    4650:	00c585bb          	addw	a1,a1,a2
    4654:	40000637          	lui	a2,0x40000
    4658:	00001937          	lui	s2,0x1
    465c:	41240933          	sub	s2,s0,s2
    4660:	18b93023          	sd	a1,384(s2) # 1180 <.LBB101_4+0x2d0>
    4664:	0005d463          	bgez	a1,466c <.LBB101_172>
    4668:	c0000637          	lui	a2,0xc0000

000000000000466c <.LBB101_172>:
    466c:	000015b7          	lui	a1,0x1
    4670:	40b405b3          	sub	a1,s0,a1
    4674:	16c5bc23          	sd	a2,376(a1) # 1178 <.LBB101_4+0x2c8>
    4678:	92043583          	ld	a1,-1760(s0)
    467c:	f0043603          	ld	a2,-256(s0)
    4680:	00c585b3          	add	a1,a1,a2
    4684:	00001637          	lui	a2,0x1
    4688:	40c40633          	sub	a2,s0,a2
    468c:	72063603          	ld	a2,1824(a2) # 1720 <.LBB101_5+0x2cc>
    4690:	00c585b3          	add	a1,a1,a2
    4694:	00150633          	add	a2,a0,ra
    4698:	00c585bb          	addw	a1,a1,a2
    469c:	40000637          	lui	a2,0x40000
    46a0:	00001937          	lui	s2,0x1
    46a4:	41240933          	sub	s2,s0,s2
    46a8:	10b93823          	sd	a1,272(s2) # 1110 <.LBB101_4+0x260>
    46ac:	0005d463          	bgez	a1,46b4 <.LBB101_174>
    46b0:	c0000637          	lui	a2,0xc0000

00000000000046b4 <.LBB101_174>:
    46b4:	000015b7          	lui	a1,0x1
    46b8:	40b405b3          	sub	a1,s0,a1
    46bc:	10c5b423          	sd	a2,264(a1) # 1108 <.LBB101_4+0x258>
    46c0:	92843583          	ld	a1,-1752(s0)
    46c4:	f0843603          	ld	a2,-248(s0)
    46c8:	00c585b3          	add	a1,a1,a2
    46cc:	00001637          	lui	a2,0x1
    46d0:	40c40633          	sub	a2,s0,a2
    46d4:	72863603          	ld	a2,1832(a2) # 1728 <.LBB101_5+0x2d4>
    46d8:	00c585b3          	add	a1,a1,a2
    46dc:	00150633          	add	a2,a0,ra
    46e0:	00c585bb          	addw	a1,a1,a2
    46e4:	40000637          	lui	a2,0x40000
    46e8:	00001937          	lui	s2,0x1
    46ec:	41240933          	sub	s2,s0,s2
    46f0:	0ab93023          	sd	a1,160(s2) # 10a0 <.LBB101_4+0x1f0>
    46f4:	0005d463          	bgez	a1,46fc <.LBB101_176>
    46f8:	c0000637          	lui	a2,0xc0000

00000000000046fc <.LBB101_176>:
    46fc:	000015b7          	lui	a1,0x1
    4700:	40b405b3          	sub	a1,s0,a1
    4704:	08c5bc23          	sd	a2,152(a1) # 1098 <.LBB101_4+0x1e8>
    4708:	93043583          	ld	a1,-1744(s0)
    470c:	f3843603          	ld	a2,-200(s0)
    4710:	00c585b3          	add	a1,a1,a2
    4714:	00001637          	lui	a2,0x1
    4718:	40c40633          	sub	a2,s0,a2
    471c:	73063603          	ld	a2,1840(a2) # 1730 <.LBB101_5+0x2dc>
    4720:	00c585b3          	add	a1,a1,a2
    4724:	00150633          	add	a2,a0,ra
    4728:	00c585bb          	addw	a1,a1,a2
    472c:	40000637          	lui	a2,0x40000
    4730:	00001937          	lui	s2,0x1
    4734:	41240933          	sub	s2,s0,s2
    4738:	02b93823          	sd	a1,48(s2) # 1030 <.LBB101_4+0x180>
    473c:	0005d463          	bgez	a1,4744 <.LBB101_178>
    4740:	c0000637          	lui	a2,0xc0000

0000000000004744 <.LBB101_178>:
    4744:	000015b7          	lui	a1,0x1
    4748:	40b405b3          	sub	a1,s0,a1
    474c:	02c5b423          	sd	a2,40(a1) # 1028 <.LBB101_4+0x178>
    4750:	93843583          	ld	a1,-1736(s0)
    4754:	f4043603          	ld	a2,-192(s0)
    4758:	00c585b3          	add	a1,a1,a2
    475c:	00001637          	lui	a2,0x1
    4760:	40c40633          	sub	a2,s0,a2
    4764:	73863603          	ld	a2,1848(a2) # 1738 <.LBB101_5+0x2e4>
    4768:	00c585b3          	add	a1,a1,a2
    476c:	00150633          	add	a2,a0,ra
    4770:	00c585bb          	addw	a1,a1,a2
    4774:	40000637          	lui	a2,0x40000
    4778:	00001937          	lui	s2,0x1
    477c:	41240933          	sub	s2,s0,s2
    4780:	fcb93023          	sd	a1,-64(s2) # fc0 <.LBB101_4+0x110>
    4784:	0005d463          	bgez	a1,478c <.LBB101_180>
    4788:	c0000637          	lui	a2,0xc0000

000000000000478c <.LBB101_180>:
    478c:	000015b7          	lui	a1,0x1
    4790:	40b405b3          	sub	a1,s0,a1
    4794:	fac5bc23          	sd	a2,-72(a1) # fb8 <.LBB101_4+0x108>
    4798:	94043583          	ld	a1,-1728(s0)
    479c:	f4843603          	ld	a2,-184(s0)
    47a0:	00c585b3          	add	a1,a1,a2
    47a4:	00001637          	lui	a2,0x1
    47a8:	40c40633          	sub	a2,s0,a2
    47ac:	74063603          	ld	a2,1856(a2) # 1740 <.LBB101_5+0x2ec>
    47b0:	00c585b3          	add	a1,a1,a2
    47b4:	00150633          	add	a2,a0,ra
    47b8:	00c585bb          	addw	a1,a1,a2
    47bc:	40000637          	lui	a2,0x40000
    47c0:	00001937          	lui	s2,0x1
    47c4:	41240933          	sub	s2,s0,s2
    47c8:	f4b93423          	sd	a1,-184(s2) # f48 <.LBB101_4+0x98>
    47cc:	0005d463          	bgez	a1,47d4 <.LBB101_182>
    47d0:	c0000637          	lui	a2,0xc0000

00000000000047d4 <.LBB101_182>:
    47d4:	000015b7          	lui	a1,0x1
    47d8:	40b405b3          	sub	a1,s0,a1
    47dc:	f4c5b023          	sd	a2,-192(a1) # f40 <.LBB101_4+0x90>
    47e0:	94843583          	ld	a1,-1720(s0)
    47e4:	f5043603          	ld	a2,-176(s0)
    47e8:	00c585b3          	add	a1,a1,a2
    47ec:	00001637          	lui	a2,0x1
    47f0:	40c40633          	sub	a2,s0,a2
    47f4:	74863603          	ld	a2,1864(a2) # 1748 <.LBB101_5+0x2f4>
    47f8:	00c585b3          	add	a1,a1,a2
    47fc:	00150633          	add	a2,a0,ra
    4800:	00c585bb          	addw	a1,a1,a2
    4804:	40000637          	lui	a2,0x40000
    4808:	00001937          	lui	s2,0x1
    480c:	41240933          	sub	s2,s0,s2
    4810:	ecb93c23          	sd	a1,-296(s2) # ed8 <.LBB101_4+0x28>
    4814:	0005d463          	bgez	a1,481c <.LBB101_184>
    4818:	c0000637          	lui	a2,0xc0000

000000000000481c <.LBB101_184>:
    481c:	000015b7          	lui	a1,0x1
    4820:	40b405b3          	sub	a1,s0,a1
    4824:	ecc5b823          	sd	a2,-304(a1) # ed0 <.LBB101_4+0x20>
    4828:	95043583          	ld	a1,-1712(s0)
    482c:	f5843603          	ld	a2,-168(s0)
    4830:	00c585b3          	add	a1,a1,a2
    4834:	00001637          	lui	a2,0x1
    4838:	40c40633          	sub	a2,s0,a2
    483c:	75063603          	ld	a2,1872(a2) # 1750 <.LBB101_5+0x2fc>
    4840:	00c585b3          	add	a1,a1,a2
    4844:	00150633          	add	a2,a0,ra
    4848:	00c585bb          	addw	a1,a1,a2
    484c:	40000637          	lui	a2,0x40000
    4850:	00001937          	lui	s2,0x1
    4854:	41240933          	sub	s2,s0,s2
    4858:	e6b93023          	sd	a1,-416(s2) # e60 <.LBB101_3+0xc08>
    485c:	0005d463          	bgez	a1,4864 <.LBB101_186>
    4860:	c0000637          	lui	a2,0xc0000

0000000000004864 <.LBB101_186>:
    4864:	000015b7          	lui	a1,0x1
    4868:	40b405b3          	sub	a1,s0,a1
    486c:	e4c5bc23          	sd	a2,-424(a1) # e58 <.LBB101_3+0xc00>
    4870:	95843583          	ld	a1,-1704(s0)
    4874:	f6043603          	ld	a2,-160(s0)
    4878:	00c585b3          	add	a1,a1,a2
    487c:	00001637          	lui	a2,0x1
    4880:	40c40633          	sub	a2,s0,a2
    4884:	75863603          	ld	a2,1880(a2) # 1758 <.LBB101_5+0x304>
    4888:	00c585b3          	add	a1,a1,a2
    488c:	00150633          	add	a2,a0,ra
    4890:	00c585bb          	addw	a1,a1,a2
    4894:	40000637          	lui	a2,0x40000
    4898:	00001937          	lui	s2,0x1
    489c:	41240933          	sub	s2,s0,s2
    48a0:	deb93823          	sd	a1,-528(s2) # df0 <.LBB101_3+0xb98>
    48a4:	0005d463          	bgez	a1,48ac <.LBB101_188>
    48a8:	c0000637          	lui	a2,0xc0000

00000000000048ac <.LBB101_188>:
    48ac:	000015b7          	lui	a1,0x1
    48b0:	40b405b3          	sub	a1,s0,a1
    48b4:	dec5b423          	sd	a2,-536(a1) # de8 <.LBB101_3+0xb90>
    48b8:	96043583          	ld	a1,-1696(s0)
    48bc:	f6843603          	ld	a2,-152(s0)
    48c0:	00c585b3          	add	a1,a1,a2
    48c4:	013585b3          	add	a1,a1,s3
    48c8:	00150633          	add	a2,a0,ra
    48cc:	00c585bb          	addw	a1,a1,a2
    48d0:	40000637          	lui	a2,0x40000
    48d4:	00001937          	lui	s2,0x1
    48d8:	41240933          	sub	s2,s0,s2
    48dc:	d6b93c23          	sd	a1,-648(s2) # d78 <.LBB101_3+0xb20>
    48e0:	0005d463          	bgez	a1,48e8 <.LBB101_190>
    48e4:	c0000637          	lui	a2,0xc0000

00000000000048e8 <.LBB101_190>:
    48e8:	000015b7          	lui	a1,0x1
    48ec:	40b405b3          	sub	a1,s0,a1
    48f0:	d6c5b823          	sd	a2,-656(a1) # d70 <.LBB101_3+0xb18>
    48f4:	96843583          	ld	a1,-1688(s0)
    48f8:	f7043603          	ld	a2,-144(s0)
    48fc:	00c585b3          	add	a1,a1,a2
    4900:	01f585b3          	add	a1,a1,t6
    4904:	00150633          	add	a2,a0,ra
    4908:	00c585bb          	addw	a1,a1,a2
    490c:	40000637          	lui	a2,0x40000
    4910:	00001937          	lui	s2,0x1
    4914:	41240933          	sub	s2,s0,s2
    4918:	d0b93023          	sd	a1,-768(s2) # d00 <.LBB101_3+0xaa8>
    491c:	0005d463          	bgez	a1,4924 <.LBB101_192>
    4920:	c0000637          	lui	a2,0xc0000

0000000000004924 <.LBB101_192>:
    4924:	000015b7          	lui	a1,0x1
    4928:	40b405b3          	sub	a1,s0,a1
    492c:	cec5bc23          	sd	a2,-776(a1) # cf8 <.LBB101_3+0xaa0>
    4930:	f7843583          	ld	a1,-136(s0)
    4934:	00ba85b3          	add	a1,s5,a1
    4938:	00001637          	lui	a2,0x1
    493c:	40c40633          	sub	a2,s0,a2
    4940:	77063a83          	ld	s5,1904(a2) # 1770 <.LBB101_5+0x31c>
    4944:	015585b3          	add	a1,a1,s5
    4948:	00150633          	add	a2,a0,ra
    494c:	00c5863b          	addw	a2,a1,a2
    4950:	400005b7          	lui	a1,0x40000
    4954:	00001937          	lui	s2,0x1
    4958:	41240933          	sub	s2,s0,s2
    495c:	c0c93423          	sd	a2,-1016(s2) # c08 <.LBB101_3+0x9b0>
    4960:	00065463          	bgez	a2,4968 <.LBB101_194>
    4964:	c00005b7          	lui	a1,0xc0000

0000000000004968 <.LBB101_194>:
    4968:	00001637          	lui	a2,0x1
    496c:	40c40633          	sub	a2,s0,a2
    4970:	c8b63023          	sd	a1,-896(a2) # c80 <.LBB101_3+0xa28>
    4974:	f8043583          	ld	a1,-128(s0)
    4978:	00b705b3          	add	a1,a4,a1
    497c:	007585b3          	add	a1,a1,t2
    4980:	00150733          	add	a4,a0,ra
    4984:	00e5873b          	addw	a4,a1,a4
    4988:	400005b7          	lui	a1,0x40000
    498c:	00075463          	bgez	a4,4994 <.LBB101_196>
    4990:	c00005b7          	lui	a1,0xc0000

0000000000004994 <.LBB101_196>:
    4994:	00001637          	lui	a2,0x1
    4998:	40c40633          	sub	a2,s0,a2
    499c:	c2b63c23          	sd	a1,-968(a2) # c38 <.LBB101_3+0x9e0>
    49a0:	f8843583          	ld	a1,-120(s0)
    49a4:	00b805b3          	add	a1,a6,a1
    49a8:	014585b3          	add	a1,a1,s4
    49ac:	00150533          	add	a0,a0,ra
    49b0:	00a5863b          	addw	a2,a1,a0
    49b4:	40000537          	lui	a0,0x40000
    49b8:	00065463          	bgez	a2,49c0 <.LBB101_198>
    49bc:	c0000537          	lui	a0,0xc0000

00000000000049c0 <.LBB101_198>:
    49c0:	000015b7          	lui	a1,0x1
    49c4:	40b405b3          	sub	a1,s0,a1
    49c8:	bca5b823          	sd	a0,-1072(a1) # bd0 <.LBB101_3+0x978>
    49cc:	00001537          	lui	a0,0x1
    49d0:	40a40533          	sub	a0,s0,a0
    49d4:	5a053803          	ld	a6,1440(a0) # 15a0 <.LBB101_5+0x14c>
    49d8:	00481913          	slli	s2,a6,0x4
    49dc:	98843503          	ld	a0,-1656(s0)
    49e0:	eb043583          	ld	a1,-336(s0)
    49e4:	00b50533          	add	a0,a0,a1
    49e8:	01090833          	add	a6,s2,a6
    49ec:	ea843583          	ld	a1,-344(s0)
    49f0:	010585b3          	add	a1,a1,a6
    49f4:	00b50533          	add	a0,a0,a1
    49f8:	0015053b          	addw	a0,a0,ra
    49fc:	400005b7          	lui	a1,0x40000
    4a00:	98a43423          	sd	a0,-1656(s0)
    4a04:	00055463          	bgez	a0,4a0c <.LBB101_200>
    4a08:	c00005b7          	lui	a1,0xc0000

0000000000004a0c <.LBB101_200>:
    4a0c:	98b43023          	sd	a1,-1664(s0)
    4a10:	99043503          	ld	a0,-1648(s0)
    4a14:	ea043583          	ld	a1,-352(s0)
    4a18:	00b50533          	add	a0,a0,a1
    4a1c:	e9843583          	ld	a1,-360(s0)
    4a20:	010585b3          	add	a1,a1,a6
    4a24:	00b50533          	add	a0,a0,a1
    4a28:	0015053b          	addw	a0,a0,ra
    4a2c:	400005b7          	lui	a1,0x40000
    4a30:	98a43823          	sd	a0,-1648(s0)
    4a34:	00055463          	bgez	a0,4a3c <.LBB101_202>
    4a38:	c00005b7          	lui	a1,0xc0000

0000000000004a3c <.LBB101_202>:
    4a3c:	96b43c23          	sd	a1,-1672(s0)
    4a40:	99843503          	ld	a0,-1640(s0)
    4a44:	e9043583          	ld	a1,-368(s0)
    4a48:	00b50533          	add	a0,a0,a1
    4a4c:	e8843583          	ld	a1,-376(s0)
    4a50:	010585b3          	add	a1,a1,a6
    4a54:	00b50533          	add	a0,a0,a1
    4a58:	0015053b          	addw	a0,a0,ra
    4a5c:	400005b7          	lui	a1,0x40000
    4a60:	98a43c23          	sd	a0,-1640(s0)
    4a64:	00055463          	bgez	a0,4a6c <.LBB101_204>
    4a68:	c00005b7          	lui	a1,0xc0000

0000000000004a6c <.LBB101_204>:
    4a6c:	96b43823          	sd	a1,-1680(s0)
    4a70:	9a043503          	ld	a0,-1632(s0)
    4a74:	e8043583          	ld	a1,-384(s0)
    4a78:	00b50533          	add	a0,a0,a1
    4a7c:	e7843583          	ld	a1,-392(s0)
    4a80:	010585b3          	add	a1,a1,a6
    4a84:	00b50533          	add	a0,a0,a1
    4a88:	0015053b          	addw	a0,a0,ra
    4a8c:	400005b7          	lui	a1,0x40000
    4a90:	96a43423          	sd	a0,-1688(s0)
    4a94:	00055463          	bgez	a0,4a9c <.LBB101_206>
    4a98:	c00005b7          	lui	a1,0xc0000

0000000000004a9c <.LBB101_206>:
    4a9c:	96b43023          	sd	a1,-1696(s0)
    4aa0:	9a843503          	ld	a0,-1624(s0)
    4aa4:	e7043583          	ld	a1,-400(s0)
    4aa8:	00b50533          	add	a0,a0,a1
    4aac:	e6843583          	ld	a1,-408(s0)
    4ab0:	010585b3          	add	a1,a1,a6
    4ab4:	00b50533          	add	a0,a0,a1
    4ab8:	0015053b          	addw	a0,a0,ra
    4abc:	400005b7          	lui	a1,0x40000
    4ac0:	92a43c23          	sd	a0,-1736(s0)
    4ac4:	00055463          	bgez	a0,4acc <.LBB101_208>
    4ac8:	c00005b7          	lui	a1,0xc0000

0000000000004acc <.LBB101_208>:
    4acc:	92b43423          	sd	a1,-1752(s0)
    4ad0:	9b043503          	ld	a0,-1616(s0)
    4ad4:	000015b7          	lui	a1,0x1
    4ad8:	40b405b3          	sub	a1,s0,a1
    4adc:	6c85b583          	ld	a1,1736(a1) # 16c8 <.LBB101_5+0x274>
    4ae0:	00b50533          	add	a0,a0,a1
    4ae4:	000015b7          	lui	a1,0x1
    4ae8:	40b405b3          	sub	a1,s0,a1
    4aec:	6c05b583          	ld	a1,1728(a1) # 16c0 <.LBB101_5+0x26c>
    4af0:	010585b3          	add	a1,a1,a6
    4af4:	00b50533          	add	a0,a0,a1
    4af8:	0015053b          	addw	a0,a0,ra
    4afc:	400005b7          	lui	a1,0x40000
    4b00:	8ca43c23          	sd	a0,-1832(s0)
    4b04:	00055463          	bgez	a0,4b0c <.LBB101_210>
    4b08:	c00005b7          	lui	a1,0xc0000

0000000000004b0c <.LBB101_210>:
    4b0c:	8cb43823          	sd	a1,-1840(s0)
    4b10:	9b843503          	ld	a0,-1608(s0)
    4b14:	000015b7          	lui	a1,0x1
    4b18:	40b405b3          	sub	a1,s0,a1
    4b1c:	6b85b583          	ld	a1,1720(a1) # 16b8 <.LBB101_5+0x264>
    4b20:	00b50533          	add	a0,a0,a1
    4b24:	000015b7          	lui	a1,0x1
    4b28:	40b405b3          	sub	a1,s0,a1
    4b2c:	6b05b583          	ld	a1,1712(a1) # 16b0 <.LBB101_5+0x25c>
    4b30:	010585b3          	add	a1,a1,a6
    4b34:	00b50533          	add	a0,a0,a1
    4b38:	0015053b          	addw	a0,a0,ra
    4b3c:	400005b7          	lui	a1,0x40000
    4b40:	00001937          	lui	s2,0x1
    4b44:	41240933          	sub	s2,s0,s2
    4b48:	7ea93023          	sd	a0,2016(s2) # 17e0 <.LBB101_5+0x38c>
    4b4c:	00055463          	bgez	a0,4b54 <.LBB101_212>
    4b50:	c00005b7          	lui	a1,0xc0000

0000000000004b54 <.LBB101_212>:
    4b54:	00001537          	lui	a0,0x1
    4b58:	40a40533          	sub	a0,s0,a0
    4b5c:	7cb53c23          	sd	a1,2008(a0) # 17d8 <.LBB101_5+0x384>
    4b60:	9c043503          	ld	a0,-1600(s0)
    4b64:	000015b7          	lui	a1,0x1
    4b68:	40b405b3          	sub	a1,s0,a1
    4b6c:	6a85b583          	ld	a1,1704(a1) # 16a8 <.LBB101_5+0x254>
    4b70:	00b50533          	add	a0,a0,a1
    4b74:	000015b7          	lui	a1,0x1
    4b78:	40b405b3          	sub	a1,s0,a1
    4b7c:	6a05b583          	ld	a1,1696(a1) # 16a0 <.LBB101_5+0x24c>
    4b80:	010585b3          	add	a1,a1,a6
    4b84:	00b50533          	add	a0,a0,a1
    4b88:	0015053b          	addw	a0,a0,ra
    4b8c:	400005b7          	lui	a1,0x40000
    4b90:	00001937          	lui	s2,0x1
    4b94:	41240933          	sub	s2,s0,s2
    4b98:	5aa93023          	sd	a0,1440(s2) # 15a0 <.LBB101_5+0x14c>
    4b9c:	00055463          	bgez	a0,4ba4 <.LBB101_214>
    4ba0:	c00005b7          	lui	a1,0xc0000

0000000000004ba4 <.LBB101_214>:
    4ba4:	00001537          	lui	a0,0x1
    4ba8:	40a40533          	sub	a0,s0,a0
    4bac:	58b53c23          	sd	a1,1432(a0) # 1598 <.LBB101_5+0x144>
    4bb0:	9c843503          	ld	a0,-1592(s0)
    4bb4:	000015b7          	lui	a1,0x1
    4bb8:	40b405b3          	sub	a1,s0,a1
    4bbc:	6985b583          	ld	a1,1688(a1) # 1698 <.LBB101_5+0x244>
    4bc0:	00b50533          	add	a0,a0,a1
    4bc4:	000015b7          	lui	a1,0x1
    4bc8:	40b405b3          	sub	a1,s0,a1
    4bcc:	6905b583          	ld	a1,1680(a1) # 1690 <.LBB101_5+0x23c>
    4bd0:	010585b3          	add	a1,a1,a6
    4bd4:	00b50533          	add	a0,a0,a1
    4bd8:	0015053b          	addw	a0,a0,ra
    4bdc:	400005b7          	lui	a1,0x40000
    4be0:	9ca43423          	sd	a0,-1592(s0)
    4be4:	00055463          	bgez	a0,4bec <.LBB101_216>
    4be8:	c00005b7          	lui	a1,0xc0000

0000000000004bec <.LBB101_216>:
    4bec:	00001537          	lui	a0,0x1
    4bf0:	40a40533          	sub	a0,s0,a0
    4bf4:	54b53023          	sd	a1,1344(a0) # 1540 <.LBB101_5+0xec>
    4bf8:	9d043503          	ld	a0,-1584(s0)
    4bfc:	000015b7          	lui	a1,0x1
    4c00:	40b405b3          	sub	a1,s0,a1
    4c04:	6885b583          	ld	a1,1672(a1) # 1688 <.LBB101_5+0x234>
    4c08:	00b50533          	add	a0,a0,a1
    4c0c:	000015b7          	lui	a1,0x1
    4c10:	40b405b3          	sub	a1,s0,a1
    4c14:	6d05b583          	ld	a1,1744(a1) # 16d0 <.LBB101_5+0x27c>
    4c18:	010585b3          	add	a1,a1,a6
    4c1c:	00b50533          	add	a0,a0,a1
    4c20:	0015053b          	addw	a0,a0,ra
    4c24:	400005b7          	lui	a1,0x40000
    4c28:	00001937          	lui	s2,0x1
    4c2c:	41240933          	sub	s2,s0,s2
    4c30:	4ea93423          	sd	a0,1256(s2) # 14e8 <.LBB101_5+0x94>
    4c34:	00055463          	bgez	a0,4c3c <.LBB101_218>
    4c38:	c00005b7          	lui	a1,0xc0000

0000000000004c3c <.LBB101_218>:
    4c3c:	00001537          	lui	a0,0x1
    4c40:	40a40533          	sub	a0,s0,a0
    4c44:	4eb53023          	sd	a1,1248(a0) # 14e0 <.LBB101_5+0x8c>
    4c48:	9d843503          	ld	a0,-1576(s0)
    4c4c:	eb843583          	ld	a1,-328(s0)
    4c50:	00b50533          	add	a0,a0,a1
    4c54:	000015b7          	lui	a1,0x1
    4c58:	40b405b3          	sub	a1,s0,a1
    4c5c:	6d85b583          	ld	a1,1752(a1) # 16d8 <.LBB101_5+0x284>
    4c60:	010585b3          	add	a1,a1,a6
    4c64:	00b50533          	add	a0,a0,a1
    4c68:	0015053b          	addw	a0,a0,ra
    4c6c:	400005b7          	lui	a1,0x40000
    4c70:	9ca43c23          	sd	a0,-1576(s0)
    4c74:	00055463          	bgez	a0,4c7c <.LBB101_220>
    4c78:	c00005b7          	lui	a1,0xc0000

0000000000004c7c <.LBB101_220>:
    4c7c:	00001537          	lui	a0,0x1
    4c80:	40a40533          	sub	a0,s0,a0
    4c84:	48b53423          	sd	a1,1160(a0) # 1488 <.LBB101_5+0x34>
    4c88:	9e043503          	ld	a0,-1568(s0)
    4c8c:	ec043583          	ld	a1,-320(s0)
    4c90:	00b50533          	add	a0,a0,a1
    4c94:	000015b7          	lui	a1,0x1
    4c98:	40b405b3          	sub	a1,s0,a1
    4c9c:	6e05b583          	ld	a1,1760(a1) # 16e0 <.LBB101_5+0x28c>
    4ca0:	010585b3          	add	a1,a1,a6
    4ca4:	00b50533          	add	a0,a0,a1
    4ca8:	0015053b          	addw	a0,a0,ra
    4cac:	400005b7          	lui	a1,0x40000
    4cb0:	9ea43023          	sd	a0,-1568(s0)
    4cb4:	00055463          	bgez	a0,4cbc <.LBB101_222>
    4cb8:	c00005b7          	lui	a1,0xc0000

0000000000004cbc <.LBB101_222>:
    4cbc:	00001537          	lui	a0,0x1
    4cc0:	40a40533          	sub	a0,s0,a0
    4cc4:	42b53823          	sd	a1,1072(a0) # 1430 <.LBB101_4+0x580>
    4cc8:	9e843503          	ld	a0,-1560(s0)
    4ccc:	ec843583          	ld	a1,-312(s0)
    4cd0:	00b50533          	add	a0,a0,a1
    4cd4:	010d85b3          	add	a1,s11,a6
    4cd8:	00b50533          	add	a0,a0,a1
    4cdc:	0015053b          	addw	a0,a0,ra
    4ce0:	400005b7          	lui	a1,0x40000
    4ce4:	9ea43423          	sd	a0,-1560(s0)
    4ce8:	00055463          	bgez	a0,4cf0 <.LBB101_224>
    4cec:	c00005b7          	lui	a1,0xc0000

0000000000004cf0 <.LBB101_224>:
    4cf0:	00001537          	lui	a0,0x1
    4cf4:	40a40533          	sub	a0,s0,a0
    4cf8:	3cb53c23          	sd	a1,984(a0) # 13d8 <.LBB101_4+0x528>
    4cfc:	9f043503          	ld	a0,-1552(s0)
    4d00:	ed043583          	ld	a1,-304(s0)
    4d04:	00b50533          	add	a0,a0,a1
    4d08:	010d05b3          	add	a1,s10,a6
    4d0c:	00b50533          	add	a0,a0,a1
    4d10:	0015053b          	addw	a0,a0,ra
    4d14:	400005b7          	lui	a1,0x40000
    4d18:	9ea43823          	sd	a0,-1552(s0)
    4d1c:	00055463          	bgez	a0,4d24 <.LBB101_226>
    4d20:	c00005b7          	lui	a1,0xc0000

0000000000004d24 <.LBB101_226>:
    4d24:	00001537          	lui	a0,0x1
    4d28:	40a40533          	sub	a0,s0,a0
    4d2c:	36b53c23          	sd	a1,888(a0) # 1378 <.LBB101_4+0x4c8>
    4d30:	9f843503          	ld	a0,-1544(s0)
    4d34:	ed843583          	ld	a1,-296(s0)
    4d38:	00b50533          	add	a0,a0,a1
    4d3c:	010c85b3          	add	a1,s9,a6
    4d40:	00b50533          	add	a0,a0,a1
    4d44:	0015053b          	addw	a0,a0,ra
    4d48:	400005b7          	lui	a1,0x40000
    4d4c:	9ea43c23          	sd	a0,-1544(s0)
    4d50:	00055463          	bgez	a0,4d58 <.LBB101_228>
    4d54:	c00005b7          	lui	a1,0xc0000

0000000000004d58 <.LBB101_228>:
    4d58:	00001537          	lui	a0,0x1
    4d5c:	40a40533          	sub	a0,s0,a0
    4d60:	30b53823          	sd	a1,784(a0) # 1310 <.LBB101_4+0x460>
    4d64:	a0043503          	ld	a0,-1536(s0)
    4d68:	ee043583          	ld	a1,-288(s0)
    4d6c:	00b50533          	add	a0,a0,a1
    4d70:	000015b7          	lui	a1,0x1
    4d74:	40b405b3          	sub	a1,s0,a1
    4d78:	7005b583          	ld	a1,1792(a1) # 1700 <.LBB101_5+0x2ac>
    4d7c:	010585b3          	add	a1,a1,a6
    4d80:	00b50533          	add	a0,a0,a1
    4d84:	0015053b          	addw	a0,a0,ra
    4d88:	400005b7          	lui	a1,0x40000
    4d8c:	a0a43023          	sd	a0,-1536(s0)
    4d90:	00055463          	bgez	a0,4d98 <.LBB101_230>
    4d94:	c00005b7          	lui	a1,0xc0000

0000000000004d98 <.LBB101_230>:
    4d98:	00001537          	lui	a0,0x1
    4d9c:	40a40533          	sub	a0,s0,a0
    4da0:	2ab53423          	sd	a1,680(a0) # 12a8 <.LBB101_4+0x3f8>
    4da4:	a0843503          	ld	a0,-1528(s0)
    4da8:	ee843583          	ld	a1,-280(s0)
    4dac:	00b50533          	add	a0,a0,a1
    4db0:	010b85b3          	add	a1,s7,a6
    4db4:	00b50533          	add	a0,a0,a1
    4db8:	0015053b          	addw	a0,a0,ra
    4dbc:	400005b7          	lui	a1,0x40000
    4dc0:	a0a43423          	sd	a0,-1528(s0)
    4dc4:	00055463          	bgez	a0,4dcc <.LBB101_232>
    4dc8:	c00005b7          	lui	a1,0xc0000

0000000000004dcc <.LBB101_232>:
    4dcc:	00001537          	lui	a0,0x1
    4dd0:	40a40533          	sub	a0,s0,a0
    4dd4:	24b53423          	sd	a1,584(a0) # 1248 <.LBB101_4+0x398>
    4dd8:	a1043503          	ld	a0,-1520(s0)
    4ddc:	ef043583          	ld	a1,-272(s0)
    4de0:	00b50533          	add	a0,a0,a1
    4de4:	010b05b3          	add	a1,s6,a6
    4de8:	00b50533          	add	a0,a0,a1
    4dec:	0015053b          	addw	a0,a0,ra
    4df0:	400005b7          	lui	a1,0x40000
    4df4:	00001937          	lui	s2,0x1
    4df8:	41240933          	sub	s2,s0,s2
    4dfc:	1ea93423          	sd	a0,488(s2) # 11e8 <.LBB101_4+0x338>
    4e00:	00055463          	bgez	a0,4e08 <.LBB101_234>
    4e04:	c00005b7          	lui	a1,0xc0000

0000000000004e08 <.LBB101_234>:
    4e08:	00001537          	lui	a0,0x1
    4e0c:	40a40533          	sub	a0,s0,a0
    4e10:	1cb53c23          	sd	a1,472(a0) # 11d8 <.LBB101_4+0x328>
    4e14:	a1843503          	ld	a0,-1512(s0)
    4e18:	ef843583          	ld	a1,-264(s0)
    4e1c:	00b50533          	add	a0,a0,a1
    4e20:	000015b7          	lui	a1,0x1
    4e24:	40b405b3          	sub	a1,s0,a1
    4e28:	7185b583          	ld	a1,1816(a1) # 1718 <.LBB101_5+0x2c4>
    4e2c:	010585b3          	add	a1,a1,a6
    4e30:	00b50533          	add	a0,a0,a1
    4e34:	0015053b          	addw	a0,a0,ra
    4e38:	400005b7          	lui	a1,0x40000
    4e3c:	00001937          	lui	s2,0x1
    4e40:	41240933          	sub	s2,s0,s2
    4e44:	16a93823          	sd	a0,368(s2) # 1170 <.LBB101_4+0x2c0>
    4e48:	00055463          	bgez	a0,4e50 <.LBB101_236>
    4e4c:	c00005b7          	lui	a1,0xc0000

0000000000004e50 <.LBB101_236>:
    4e50:	00001537          	lui	a0,0x1
    4e54:	40a40533          	sub	a0,s0,a0
    4e58:	16b53423          	sd	a1,360(a0) # 1168 <.LBB101_4+0x2b8>
    4e5c:	a2043503          	ld	a0,-1504(s0)
    4e60:	f0043583          	ld	a1,-256(s0)
    4e64:	00b50533          	add	a0,a0,a1
    4e68:	000015b7          	lui	a1,0x1
    4e6c:	40b405b3          	sub	a1,s0,a1
    4e70:	7205b583          	ld	a1,1824(a1) # 1720 <.LBB101_5+0x2cc>
    4e74:	010585b3          	add	a1,a1,a6
    4e78:	00b50533          	add	a0,a0,a1
    4e7c:	0015053b          	addw	a0,a0,ra
    4e80:	400005b7          	lui	a1,0x40000
    4e84:	00001937          	lui	s2,0x1
    4e88:	41240933          	sub	s2,s0,s2
    4e8c:	10a93023          	sd	a0,256(s2) # 1100 <.LBB101_4+0x250>
    4e90:	00055463          	bgez	a0,4e98 <.LBB101_238>
    4e94:	c00005b7          	lui	a1,0xc0000

0000000000004e98 <.LBB101_238>:
    4e98:	00001537          	lui	a0,0x1
    4e9c:	40a40533          	sub	a0,s0,a0
    4ea0:	0eb53c23          	sd	a1,248(a0) # 10f8 <.LBB101_4+0x248>
    4ea4:	a2843503          	ld	a0,-1496(s0)
    4ea8:	f0843583          	ld	a1,-248(s0)
    4eac:	00b50533          	add	a0,a0,a1
    4eb0:	000015b7          	lui	a1,0x1
    4eb4:	40b405b3          	sub	a1,s0,a1
    4eb8:	7285b583          	ld	a1,1832(a1) # 1728 <.LBB101_5+0x2d4>
    4ebc:	010585b3          	add	a1,a1,a6
    4ec0:	00b50533          	add	a0,a0,a1
    4ec4:	0015053b          	addw	a0,a0,ra
    4ec8:	400005b7          	lui	a1,0x40000
    4ecc:	00001937          	lui	s2,0x1
    4ed0:	41240933          	sub	s2,s0,s2
    4ed4:	08a93823          	sd	a0,144(s2) # 1090 <.LBB101_4+0x1e0>
    4ed8:	00055463          	bgez	a0,4ee0 <.LBB101_240>
    4edc:	c00005b7          	lui	a1,0xc0000

0000000000004ee0 <.LBB101_240>:
    4ee0:	00001537          	lui	a0,0x1
    4ee4:	40a40533          	sub	a0,s0,a0
    4ee8:	08b53423          	sd	a1,136(a0) # 1088 <.LBB101_4+0x1d8>
    4eec:	a3043503          	ld	a0,-1488(s0)
    4ef0:	f3843583          	ld	a1,-200(s0)
    4ef4:	00b50533          	add	a0,a0,a1
    4ef8:	000015b7          	lui	a1,0x1
    4efc:	40b405b3          	sub	a1,s0,a1
    4f00:	7305b583          	ld	a1,1840(a1) # 1730 <.LBB101_5+0x2dc>
    4f04:	010585b3          	add	a1,a1,a6
    4f08:	00b50533          	add	a0,a0,a1
    4f0c:	0015053b          	addw	a0,a0,ra
    4f10:	400005b7          	lui	a1,0x40000
    4f14:	00001937          	lui	s2,0x1
    4f18:	41240933          	sub	s2,s0,s2
    4f1c:	02a93023          	sd	a0,32(s2) # 1020 <.LBB101_4+0x170>
    4f20:	00055463          	bgez	a0,4f28 <.LBB101_242>
    4f24:	c00005b7          	lui	a1,0xc0000

0000000000004f28 <.LBB101_242>:
    4f28:	00001537          	lui	a0,0x1
    4f2c:	40a40533          	sub	a0,s0,a0
    4f30:	00b53c23          	sd	a1,24(a0) # 1018 <.LBB101_4+0x168>
    4f34:	a3843503          	ld	a0,-1480(s0)
    4f38:	f4043583          	ld	a1,-192(s0)
    4f3c:	00b50533          	add	a0,a0,a1
    4f40:	000015b7          	lui	a1,0x1
    4f44:	40b405b3          	sub	a1,s0,a1
    4f48:	7385b583          	ld	a1,1848(a1) # 1738 <.LBB101_5+0x2e4>
    4f4c:	010585b3          	add	a1,a1,a6
    4f50:	00b50533          	add	a0,a0,a1
    4f54:	0015053b          	addw	a0,a0,ra
    4f58:	400005b7          	lui	a1,0x40000
    4f5c:	00001937          	lui	s2,0x1
    4f60:	41240933          	sub	s2,s0,s2
    4f64:	faa93823          	sd	a0,-80(s2) # fb0 <.LBB101_4+0x100>
    4f68:	00055463          	bgez	a0,4f70 <.LBB101_244>
    4f6c:	c00005b7          	lui	a1,0xc0000

0000000000004f70 <.LBB101_244>:
    4f70:	00001537          	lui	a0,0x1
    4f74:	40a40533          	sub	a0,s0,a0
    4f78:	fab53423          	sd	a1,-88(a0) # fa8 <.LBB101_4+0xf8>
    4f7c:	a4043503          	ld	a0,-1472(s0)
    4f80:	f4843583          	ld	a1,-184(s0)
    4f84:	00b50533          	add	a0,a0,a1
    4f88:	000015b7          	lui	a1,0x1
    4f8c:	40b405b3          	sub	a1,s0,a1
    4f90:	7405b583          	ld	a1,1856(a1) # 1740 <.LBB101_5+0x2ec>
    4f94:	010585b3          	add	a1,a1,a6
    4f98:	00b50533          	add	a0,a0,a1
    4f9c:	0015053b          	addw	a0,a0,ra
    4fa0:	400005b7          	lui	a1,0x40000
    4fa4:	00001937          	lui	s2,0x1
    4fa8:	41240933          	sub	s2,s0,s2
    4fac:	f2a93c23          	sd	a0,-200(s2) # f38 <.LBB101_4+0x88>
    4fb0:	00055463          	bgez	a0,4fb8 <.LBB101_246>
    4fb4:	c00005b7          	lui	a1,0xc0000

0000000000004fb8 <.LBB101_246>:
    4fb8:	00001537          	lui	a0,0x1
    4fbc:	40a40533          	sub	a0,s0,a0
    4fc0:	f2b53823          	sd	a1,-208(a0) # f30 <.LBB101_4+0x80>
    4fc4:	a4843503          	ld	a0,-1464(s0)
    4fc8:	f5043583          	ld	a1,-176(s0)
    4fcc:	00b50533          	add	a0,a0,a1
    4fd0:	000015b7          	lui	a1,0x1
    4fd4:	40b405b3          	sub	a1,s0,a1
    4fd8:	7485b583          	ld	a1,1864(a1) # 1748 <.LBB101_5+0x2f4>
    4fdc:	010585b3          	add	a1,a1,a6
    4fe0:	00b50533          	add	a0,a0,a1
    4fe4:	0015053b          	addw	a0,a0,ra
    4fe8:	400005b7          	lui	a1,0x40000
    4fec:	00001937          	lui	s2,0x1
    4ff0:	41240933          	sub	s2,s0,s2
    4ff4:	eca93423          	sd	a0,-312(s2) # ec8 <.LBB101_4+0x18>
    4ff8:	00055463          	bgez	a0,5000 <.LBB101_248>
    4ffc:	c00005b7          	lui	a1,0xc0000

0000000000005000 <.LBB101_248>:
    5000:	00001537          	lui	a0,0x1
    5004:	40a40533          	sub	a0,s0,a0
    5008:	ecb53023          	sd	a1,-320(a0) # ec0 <.LBB101_4+0x10>
    500c:	a5043503          	ld	a0,-1456(s0)
    5010:	f5843583          	ld	a1,-168(s0)
    5014:	00b50533          	add	a0,a0,a1
    5018:	000015b7          	lui	a1,0x1
    501c:	40b405b3          	sub	a1,s0,a1
    5020:	7505b583          	ld	a1,1872(a1) # 1750 <.LBB101_5+0x2fc>
    5024:	010585b3          	add	a1,a1,a6
    5028:	00b50533          	add	a0,a0,a1
    502c:	0015053b          	addw	a0,a0,ra
    5030:	400005b7          	lui	a1,0x40000
    5034:	00001937          	lui	s2,0x1
    5038:	41240933          	sub	s2,s0,s2
    503c:	e4a93823          	sd	a0,-432(s2) # e50 <.LBB101_3+0xbf8>
    5040:	00055463          	bgez	a0,5048 <.LBB101_250>
    5044:	c00005b7          	lui	a1,0xc0000

0000000000005048 <.LBB101_250>:
    5048:	00001537          	lui	a0,0x1
    504c:	40a40533          	sub	a0,s0,a0
    5050:	e4b53423          	sd	a1,-440(a0) # e48 <.LBB101_3+0xbf0>
    5054:	a5843503          	ld	a0,-1448(s0)
    5058:	f6043583          	ld	a1,-160(s0)
    505c:	00b50533          	add	a0,a0,a1
    5060:	000015b7          	lui	a1,0x1
    5064:	40b405b3          	sub	a1,s0,a1
    5068:	7585b583          	ld	a1,1880(a1) # 1758 <.LBB101_5+0x304>
    506c:	010585b3          	add	a1,a1,a6
    5070:	00b50533          	add	a0,a0,a1
    5074:	0015053b          	addw	a0,a0,ra
    5078:	400005b7          	lui	a1,0x40000
    507c:	00001937          	lui	s2,0x1
    5080:	41240933          	sub	s2,s0,s2
    5084:	dea93023          	sd	a0,-544(s2) # de0 <.LBB101_3+0xb88>
    5088:	00055463          	bgez	a0,5090 <.LBB101_252>
    508c:	c00005b7          	lui	a1,0xc0000

0000000000005090 <.LBB101_252>:
    5090:	00001537          	lui	a0,0x1
    5094:	40a40533          	sub	a0,s0,a0
    5098:	dcb53c23          	sd	a1,-552(a0) # dd8 <.LBB101_3+0xb80>
    509c:	a6043503          	ld	a0,-1440(s0)
    50a0:	f6843583          	ld	a1,-152(s0)
    50a4:	00b50533          	add	a0,a0,a1
    50a8:	010985b3          	add	a1,s3,a6
    50ac:	00b50533          	add	a0,a0,a1
    50b0:	0015053b          	addw	a0,a0,ra
    50b4:	400005b7          	lui	a1,0x40000
    50b8:	00001937          	lui	s2,0x1
    50bc:	41240933          	sub	s2,s0,s2
    50c0:	d6a93423          	sd	a0,-664(s2) # d68 <.LBB101_3+0xb10>
    50c4:	00055463          	bgez	a0,50cc <.LBB101_254>
    50c8:	c00005b7          	lui	a1,0xc0000

00000000000050cc <.LBB101_254>:
    50cc:	00001537          	lui	a0,0x1
    50d0:	40a40533          	sub	a0,s0,a0
    50d4:	d6b53023          	sd	a1,-672(a0) # d60 <.LBB101_3+0xb08>
    50d8:	a6843503          	ld	a0,-1432(s0)
    50dc:	f7043583          	ld	a1,-144(s0)
    50e0:	00b50533          	add	a0,a0,a1
    50e4:	010f85b3          	add	a1,t6,a6
    50e8:	00b50533          	add	a0,a0,a1
    50ec:	0015053b          	addw	a0,a0,ra
    50f0:	400005b7          	lui	a1,0x40000
    50f4:	00001937          	lui	s2,0x1
    50f8:	41240933          	sub	s2,s0,s2
    50fc:	cea93823          	sd	a0,-784(s2) # cf0 <.LBB101_3+0xa98>
    5100:	00055463          	bgez	a0,5108 <.LBB101_256>
    5104:	c00005b7          	lui	a1,0xc0000

0000000000005108 <.LBB101_256>:
    5108:	00001537          	lui	a0,0x1
    510c:	40a40533          	sub	a0,s0,a0
    5110:	ceb53423          	sd	a1,-792(a0) # ce8 <.LBB101_3+0xa90>
    5114:	f7843503          	ld	a0,-136(s0)
    5118:	00a28533          	add	a0,t0,a0
    511c:	010a85b3          	add	a1,s5,a6
    5120:	00b50533          	add	a0,a0,a1
    5124:	001505bb          	addw	a1,a0,ra
    5128:	40000537          	lui	a0,0x40000
    512c:	000012b7          	lui	t0,0x1
    5130:	405402b3          	sub	t0,s0,t0
    5134:	c2b2b423          	sd	a1,-984(t0) # c28 <.LBB101_3+0x9d0>
    5138:	0005d463          	bgez	a1,5140 <.LBB101_258>
    513c:	c0000537          	lui	a0,0xc0000

0000000000005140 <.LBB101_258>:
    5140:	000015b7          	lui	a1,0x1
    5144:	40b405b3          	sub	a1,s0,a1
    5148:	c6a5bc23          	sd	a0,-904(a1) # c78 <.LBB101_3+0xa20>
    514c:	f8043503          	ld	a0,-128(s0)
    5150:	00ac0533          	add	a0,s8,a0
    5154:	010385b3          	add	a1,t2,a6
    5158:	00b50533          	add	a0,a0,a1
    515c:	001505bb          	addw	a1,a0,ra
    5160:	40000537          	lui	a0,0x40000
    5164:	0005d463          	bgez	a1,516c <.LBB101_260>
    5168:	c0000537          	lui	a0,0xc0000

000000000000516c <.LBB101_260>:
    516c:	000012b7          	lui	t0,0x1
    5170:	405402b3          	sub	t0,s0,t0
    5174:	c2a2b823          	sd	a0,-976(t0) # c30 <.LBB101_3+0x9d8>
    5178:	f8843503          	ld	a0,-120(s0)
    517c:	00a88533          	add	a0,a7,a0
    5180:	010a0833          	add	a6,s4,a6
    5184:	01050533          	add	a0,a0,a6
    5188:	0015083b          	addw	a6,a0,ra
    518c:	40000537          	lui	a0,0x40000
    5190:	00085463          	bgez	a6,5198 <.LBB101_262>
    5194:	c0000537          	lui	a0,0xc0000

0000000000005198 <.LBB101_262>:
    5198:	000018b7          	lui	a7,0x1
    519c:	411408b3          	sub	a7,s0,a7
    51a0:	bca8b423          	sd	a0,-1080(a7) # bc8 <.LBB101_3+0x970>
    51a4:	00001537          	lui	a0,0x1
    51a8:	40a40533          	sub	a0,s0,a0
    51ac:	58853283          	ld	t0,1416(a0) # 1588 <.LBB101_5+0x134>
    51b0:	00429513          	slli	a0,t0,0x4
    51b4:	eb043883          	ld	a7,-336(s0)
    51b8:	011787b3          	add	a5,a5,a7
    51bc:	00550533          	add	a0,a0,t0
    51c0:	ea843883          	ld	a7,-344(s0)
    51c4:	00a888b3          	add	a7,a7,a0
    51c8:	001888b3          	add	a7,a7,ra
    51cc:	011787bb          	addw	a5,a5,a7
    51d0:	400008b7          	lui	a7,0x40000
    51d4:	a8f43023          	sd	a5,-1408(s0)
    51d8:	0007d463          	bgez	a5,51e0 <.LBB101_264>
    51dc:	c00008b7          	lui	a7,0xc0000

00000000000051e0 <.LBB101_264>:
    51e0:	a7143823          	sd	a7,-1424(s0)
    51e4:	a9043783          	ld	a5,-1392(s0)
    51e8:	ea043883          	ld	a7,-352(s0)
    51ec:	011787b3          	add	a5,a5,a7
    51f0:	e9843883          	ld	a7,-360(s0)
    51f4:	00a888b3          	add	a7,a7,a0
    51f8:	001888b3          	add	a7,a7,ra
    51fc:	011787bb          	addw	a5,a5,a7
    5200:	40000c37          	lui	s8,0x40000
    5204:	a8f43823          	sd	a5,-1392(s0)
    5208:	0007d463          	bgez	a5,5210 <.LBB101_266>
    520c:	c0000c37          	lui	s8,0xc0000

0000000000005210 <.LBB101_266>:
    5210:	a9843783          	ld	a5,-1384(s0)
    5214:	e9043883          	ld	a7,-368(s0)
    5218:	011787b3          	add	a5,a5,a7
    521c:	e8843883          	ld	a7,-376(s0)
    5220:	00a888b3          	add	a7,a7,a0
    5224:	001888b3          	add	a7,a7,ra
    5228:	011787bb          	addw	a5,a5,a7
    522c:	400008b7          	lui	a7,0x40000
    5230:	a6f43023          	sd	a5,-1440(s0)
    5234:	0007d463          	bgez	a5,523c <.LBB101_268>
    5238:	c00008b7          	lui	a7,0xc0000

000000000000523c <.LBB101_268>:
    523c:	a5143c23          	sd	a7,-1448(s0)
    5240:	aa043783          	ld	a5,-1376(s0)
    5244:	e8043883          	ld	a7,-384(s0)
    5248:	011787b3          	add	a5,a5,a7
    524c:	e7843883          	ld	a7,-392(s0)
    5250:	00a888b3          	add	a7,a7,a0
    5254:	001888b3          	add	a7,a7,ra
    5258:	011787bb          	addw	a5,a5,a7
    525c:	400008b7          	lui	a7,0x40000
    5260:	aaf43023          	sd	a5,-1376(s0)
    5264:	0007d463          	bgez	a5,526c <.LBB101_270>
    5268:	c00008b7          	lui	a7,0xc0000

000000000000526c <.LBB101_270>:
    526c:	a7143423          	sd	a7,-1432(s0)
    5270:	aa843783          	ld	a5,-1368(s0)
    5274:	e7043883          	ld	a7,-400(s0)
    5278:	011787b3          	add	a5,a5,a7
    527c:	e6843883          	ld	a7,-408(s0)
    5280:	00a888b3          	add	a7,a7,a0
    5284:	001888b3          	add	a7,a7,ra
    5288:	011787bb          	addw	a5,a5,a7
    528c:	400008b7          	lui	a7,0x40000
    5290:	a6f43c23          	sd	a5,-1416(s0)
    5294:	0007d463          	bgez	a5,529c <.LBB101_272>
    5298:	c00008b7          	lui	a7,0xc0000

000000000000529c <.LBB101_272>:
    529c:	a5143823          	sd	a7,-1456(s0)
    52a0:	ab043783          	ld	a5,-1360(s0)
    52a4:	000018b7          	lui	a7,0x1
    52a8:	411408b3          	sub	a7,s0,a7
    52ac:	6c88b883          	ld	a7,1736(a7) # 16c8 <.LBB101_5+0x274>
    52b0:	011787b3          	add	a5,a5,a7
    52b4:	000018b7          	lui	a7,0x1
    52b8:	411408b3          	sub	a7,s0,a7
    52bc:	6c08b883          	ld	a7,1728(a7) # 16c0 <.LBB101_5+0x26c>
    52c0:	00a888b3          	add	a7,a7,a0
    52c4:	001888b3          	add	a7,a7,ra
    52c8:	011787bb          	addw	a5,a5,a7
    52cc:	400008b7          	lui	a7,0x40000
    52d0:	aaf43823          	sd	a5,-1360(s0)
    52d4:	0007d463          	bgez	a5,52dc <.LBB101_274>
    52d8:	c00008b7          	lui	a7,0xc0000

00000000000052dc <.LBB101_274>:
    52dc:	a9143423          	sd	a7,-1400(s0)
    52e0:	ab843783          	ld	a5,-1352(s0)
    52e4:	000018b7          	lui	a7,0x1
    52e8:	411408b3          	sub	a7,s0,a7
    52ec:	6b88b883          	ld	a7,1720(a7) # 16b8 <.LBB101_5+0x264>
    52f0:	011787b3          	add	a5,a5,a7
    52f4:	000018b7          	lui	a7,0x1
    52f8:	411408b3          	sub	a7,s0,a7
    52fc:	6b08b883          	ld	a7,1712(a7) # 16b0 <.LBB101_5+0x25c>
    5300:	00a888b3          	add	a7,a7,a0
    5304:	001888b3          	add	a7,a7,ra
    5308:	011787bb          	addw	a5,a5,a7
    530c:	400008b7          	lui	a7,0x40000
    5310:	a8f43c23          	sd	a5,-1384(s0)
    5314:	0007d463          	bgez	a5,531c <.LBB101_276>
    5318:	c00008b7          	lui	a7,0xc0000

000000000000531c <.LBB101_276>:
    531c:	a5143423          	sd	a7,-1464(s0)
    5320:	ac043783          	ld	a5,-1344(s0)
    5324:	000018b7          	lui	a7,0x1
    5328:	411408b3          	sub	a7,s0,a7
    532c:	6a88b883          	ld	a7,1704(a7) # 16a8 <.LBB101_5+0x254>
    5330:	011787b3          	add	a5,a5,a7
    5334:	000018b7          	lui	a7,0x1
    5338:	411408b3          	sub	a7,s0,a7
    533c:	6a08b883          	ld	a7,1696(a7) # 16a0 <.LBB101_5+0x24c>
    5340:	00a888b3          	add	a7,a7,a0
    5344:	001888b3          	add	a7,a7,ra
    5348:	011787bb          	addw	a5,a5,a7
    534c:	400008b7          	lui	a7,0x40000
    5350:	acf43023          	sd	a5,-1344(s0)
    5354:	0007d463          	bgez	a5,535c <.LBB101_278>
    5358:	c00008b7          	lui	a7,0xc0000

000000000000535c <.LBB101_278>:
    535c:	ab143423          	sd	a7,-1368(s0)
    5360:	ac843783          	ld	a5,-1336(s0)
    5364:	000018b7          	lui	a7,0x1
    5368:	411408b3          	sub	a7,s0,a7
    536c:	6988b883          	ld	a7,1688(a7) # 1698 <.LBB101_5+0x244>
    5370:	011787b3          	add	a5,a5,a7
    5374:	000018b7          	lui	a7,0x1
    5378:	411408b3          	sub	a7,s0,a7
    537c:	6908b883          	ld	a7,1680(a7) # 1690 <.LBB101_5+0x23c>
    5380:	00a888b3          	add	a7,a7,a0
    5384:	001888b3          	add	a7,a7,ra
