
code.o:     file format elf64-littleriscv


Disassembly of section .text.main_dispatch_91_matmul_196x576x96_i8xi8xi32:

0000000000000000 <main_dispatch_91_matmul_196x576x96_i8xi8xi32>:
       0:	f1501173          	csrrw	sp,0xf15,zero

0000000000000004 <.Lfunc_begin71>:
       4:	81010113          	addi	sp,sp,-2032
       8:	7e113423          	sd	ra,2024(sp)
       c:	7e813023          	sd	s0,2016(sp)
      10:	7c913c23          	sd	s1,2008(sp)
      14:	7d213823          	sd	s2,2000(sp)
      18:	7d313423          	sd	s3,1992(sp)
      1c:	7d413023          	sd	s4,1984(sp)
      20:	7b513c23          	sd	s5,1976(sp)
      24:	7b613823          	sd	s6,1968(sp)
      28:	7b713423          	sd	s7,1960(sp)
      2c:	7b813023          	sd	s8,1952(sp)
      30:	79913c23          	sd	s9,1944(sp)
      34:	79a13823          	sd	s10,1936(sp)
      38:	79b13423          	sd	s11,1928(sp)
      3c:	7f010413          	addi	s0,sp,2032
      40:	80010113          	addi	sp,sp,-2048
      44:	c8010113          	addi	sp,sp,-896
      48:	0205b583          	ld	a1,32(a1)
      4c:	00000893          	li	a7,0
      50:	00000513          	li	a0,0
      54:	0005b783          	ld	a5,0(a1)
      58:	00013637          	lui	a2,0x13
      5c:	9406069b          	addiw	a3,a2,-1728 # 12940 <.LBB21_1104+0x8>
      60:	0085b703          	ld	a4,8(a1)
      64:	00001837          	lui	a6,0x1
      68:	41040833          	sub	a6,s0,a6
      6c:	caf83c23          	sd	a5,-840(a6) # cb8 <.LBB71_3+0xa3c>
      70:	00d786b3          	add	a3,a5,a3
      74:	000017b7          	lui	a5,0x1
      78:	40f407b3          	sub	a5,s0,a5
      7c:	d0d7bc23          	sd	a3,-744(a5) # d18 <.LBB71_3+0xa9c>
      80:	000696b7          	lui	a3,0x69
      84:	c006869b          	addiw	a3,a3,-1024 # 68c00 <.Lfunc_end80+0x40234>
      88:	00d70c33          	add	s8,a4,a3
      8c:	0001a6b7          	lui	a3,0x1a
      90:	6006869b          	addiw	a3,a3,1536 # 1a600 <.LBB45_3289>
      94:	00d706b3          	add	a3,a4,a3
      98:	000017b7          	lui	a5,0x1
      9c:	40f407b3          	sub	a5,s0,a5
      a0:	d0d7b823          	sd	a3,-752(a5) # d10 <.LBB71_3+0xa94>
      a4:	000766b7          	lui	a3,0x76
      a8:	4006869b          	addiw	a3,a3,1024 # 76400 <.Lfunc_end80+0x4da34>
      ac:	0105b583          	ld	a1,16(a1)
      b0:	00d706b3          	add	a3,a4,a3
      b4:	00001737          	lui	a4,0x1
      b8:	40e40733          	sub	a4,s0,a4
      bc:	d0d73423          	sd	a3,-760(a4) # d08 <.LBB71_3+0xa8c>
      c0:	000176b7          	lui	a3,0x17
      c4:	2c06869b          	addiw	a3,a3,704 # 172c0 <.LBB77_2641>
      c8:	00d585b3          	add	a1,a1,a3
      cc:	000016b7          	lui	a3,0x1
      d0:	40d406b3          	sub	a3,s0,a3
      d4:	cab6b423          	sd	a1,-856(a3) # ca8 <.LBB71_3+0xa2c>
      d8:	9a06059b          	addiw	a1,a2,-1632
      dc:	00001637          	lui	a2,0x1
      e0:	40c40633          	sub	a2,s0,a2
      e4:	c8b63823          	sd	a1,-880(a2) # c90 <.LBB71_3+0xa14>
      e8:	60e265b7          	lui	a1,0x60e26
      ec:	7c65859b          	addiw	a1,a1,1990 # 60e267c6 <.Lfunc_end80+0x60dfddfa>
      f0:	00001637          	lui	a2,0x1
      f4:	40c40633          	sub	a2,s0,a2
      f8:	ccb63023          	sd	a1,-832(a2) # cc0 <.LBB71_3+0xa44>
      fc:	00100593          	li	a1,1
     100:	02459593          	slli	a1,a1,0x24
     104:	00001637          	lui	a2,0x1
     108:	40c40633          	sub	a2,s0,a2
     10c:	60b63c23          	sd	a1,1560(a2) # 1618 <.LBB71_4+0x414>
     110:	000015b7          	lui	a1,0x1
     114:	40b405b3          	sub	a1,s0,a1
     118:	cb85b823          	sd	s8,-848(a1) # cb0 <.LBB71_3+0xa34>
     11c:	0580006f          	j	174 <.LBB71_2>

0000000000000120 <.LBB71_1>:
     120:	00001537          	lui	a0,0x1
     124:	40a40533          	sub	a0,s0,a0
     128:	c9853603          	ld	a2,-872(a0) # c98 <.LBB71_3+0xa1c>
     12c:	00860513          	addi	a0,a2,8
     130:	000015b7          	lui	a1,0x1
     134:	40b405b3          	sub	a1,s0,a1
     138:	d185b583          	ld	a1,-744(a1) # d18 <.LBB71_3+0xa9c>
     13c:	30058593          	addi	a1,a1,768
     140:	000016b7          	lui	a3,0x1
     144:	40d406b3          	sub	a3,s0,a3
     148:	d0b6bc23          	sd	a1,-744(a3) # d18 <.LBB71_3+0xa9c>
     14c:	000015b7          	lui	a1,0x1
     150:	40b405b3          	sub	a1,s0,a1
     154:	ca05b883          	ld	a7,-864(a1) # ca0 <.LBB71_3+0xa24>
     158:	00188893          	addi	a7,a7,1
     15c:	000015b7          	lui	a1,0x1
     160:	40b405b3          	sub	a1,s0,a1
     164:	cb05bc03          	ld	s8,-848(a1) # cb0 <.LBB71_3+0xa34>
     168:	0b800593          	li	a1,184
     16c:	00b66463          	bltu	a2,a1,174 <.LBB71_2>
     170:	6690a06f          	j	afd8 <.LBB71_1030>

0000000000000174 <.LBB71_2>:
     174:	00000593          	li	a1,0
     178:	00050713          	mv	a4,a0
     17c:	00001537          	lui	a0,0x1
     180:	40a40533          	sub	a0,s0,a0
     184:	cb153023          	sd	a7,-864(a0) # ca0 <.LBB71_3+0xa24>
     188:	30000513          	li	a0,768
     18c:	02a88533          	mul	a0,a7,a0
     190:	00001637          	lui	a2,0x1
     194:	40c40633          	sub	a2,s0,a2
     198:	cb863603          	ld	a2,-840(a2) # cb8 <.LBB71_3+0xa3c>
     19c:	00c50533          	add	a0,a0,a2
     1a0:	000016b7          	lui	a3,0x1
     1a4:	40d406b3          	sub	a3,s0,a3
     1a8:	c906b683          	ld	a3,-880(a3) # c90 <.LBB71_3+0xa14>
     1ac:	00d507b3          	add	a5,a0,a3
     1b0:	00271513          	slli	a0,a4,0x2
     1b4:	00a60533          	add	a0,a2,a0
     1b8:	00001637          	lui	a2,0x1
     1bc:	40c40633          	sub	a2,s0,a2
     1c0:	62a63023          	sd	a0,1568(a2) # 1620 <.LBB71_4+0x41c>
     1c4:	24000513          	li	a0,576
     1c8:	00001637          	lui	a2,0x1
     1cc:	40c40633          	sub	a2,s0,a2
     1d0:	c8e63c23          	sd	a4,-872(a2) # c98 <.LBB71_3+0xa1c>
     1d4:	02a70533          	mul	a0,a4,a0
     1d8:	00001637          	lui	a2,0x1
     1dc:	40c40633          	sub	a2,s0,a2
     1e0:	ca863603          	ld	a2,-856(a2) # ca8 <.LBB71_3+0xa2c>
     1e4:	00a60533          	add	a0,a2,a0
     1e8:	24050613          	addi	a2,a0,576
     1ec:	000016b7          	lui	a3,0x1
     1f0:	40d406b3          	sub	a3,s0,a3
     1f4:	cec6bc23          	sd	a2,-776(a3) # cf8 <.LBB71_3+0xa7c>
     1f8:	48050613          	addi	a2,a0,1152
     1fc:	000016b7          	lui	a3,0x1
     200:	40d406b3          	sub	a3,s0,a3
     204:	cec6b823          	sd	a2,-784(a3) # cf0 <.LBB71_3+0xa74>
     208:	6c050613          	addi	a2,a0,1728
     20c:	000016b7          	lui	a3,0x1
     210:	40d406b3          	sub	a3,s0,a3
     214:	cec6b423          	sd	a2,-792(a3) # ce8 <.LBB71_3+0xa6c>
     218:	00001637          	lui	a2,0x1
     21c:	40c40633          	sub	a2,s0,a2
     220:	d0a63023          	sd	a0,-768(a2) # d00 <.LBB71_3+0xa84>
     224:	7ff50513          	addi	a0,a0,2047
     228:	10150613          	addi	a2,a0,257
     22c:	000016b7          	lui	a3,0x1
     230:	40d406b3          	sub	a3,s0,a3
     234:	cec6b023          	sd	a2,-800(a3) # ce0 <.LBB71_3+0xa64>
     238:	34150613          	addi	a2,a0,833
     23c:	000016b7          	lui	a3,0x1
     240:	40d406b3          	sub	a3,s0,a3
     244:	ccc6bc23          	sd	a2,-808(a3) # cd8 <.LBB71_3+0xa5c>
     248:	58150613          	addi	a2,a0,1409
     24c:	000016b7          	lui	a3,0x1
     250:	40d406b3          	sub	a3,s0,a3
     254:	ccc6b823          	sd	a2,-816(a3) # cd0 <.LBB71_3+0xa54>
     258:	7c150513          	addi	a0,a0,1985
     25c:	00001637          	lui	a2,0x1
     260:	40c40633          	sub	a2,s0,a2
     264:	cca63423          	sd	a0,-824(a2) # cc8 <.LBB71_3+0xa4c>
     268:	000c0a93          	mv	s5,s8
     26c:	00001537          	lui	a0,0x1
     270:	40a40533          	sub	a0,s0,a0
     274:	66f53823          	sd	a5,1648(a0) # 1670 <.LBB71_4+0x46c>
     278:	78d0006f          	j	1204 <.LBB71_4>

000000000000027c <.LBB71_3>:
     27c:	ee843c03          	ld	s8,-280(s0)
     280:	080c4c93          	xori	s9,s8,128
     284:	00001c37          	lui	s8,0x1
     288:	41840c33          	sub	s8,s0,s8
     28c:	d00c3c03          	ld	s8,-768(s8) # d00 <.LBB71_3+0xa84>
     290:	00001d37          	lui	s10,0x1
     294:	41a40d33          	sub	s10,s0,s10
     298:	628d3d03          	ld	s10,1576(s10) # 1628 <.LBB71_4+0x424>
     29c:	01ac0c33          	add	s8,s8,s10
     2a0:	019c01a3          	sb	s9,3(s8)
     2a4:	f8843c83          	ld	s9,-120(s0)
     2a8:	080ccc93          	xori	s9,s9,128
     2ac:	019c0123          	sb	s9,2(s8)
     2b0:	f8043c83          	ld	s9,-128(s0)
     2b4:	080ccc93          	xori	s9,s9,128
     2b8:	019c00a3          	sb	s9,1(s8)
     2bc:	f7843c83          	ld	s9,-136(s0)
     2c0:	080ccc93          	xori	s9,s9,128
     2c4:	019c0023          	sb	s9,0(s8)
     2c8:	f7043c83          	ld	s9,-144(s0)
     2cc:	080ccc93          	xori	s9,s9,128
     2d0:	019c0223          	sb	s9,4(s8)
     2d4:	f6843c83          	ld	s9,-152(s0)
     2d8:	080ccc93          	xori	s9,s9,128
     2dc:	019c02a3          	sb	s9,5(s8)
     2e0:	f6043c83          	ld	s9,-160(s0)
     2e4:	080ccc93          	xori	s9,s9,128
     2e8:	019c0323          	sb	s9,6(s8)
     2ec:	f5843c83          	ld	s9,-168(s0)
     2f0:	080ccc93          	xori	s9,s9,128
     2f4:	019c03a3          	sb	s9,7(s8)
     2f8:	f5043c83          	ld	s9,-176(s0)
     2fc:	080ccc93          	xori	s9,s9,128
     300:	019c0423          	sb	s9,8(s8)
     304:	f4843c83          	ld	s9,-184(s0)
     308:	080ccc93          	xori	s9,s9,128
     30c:	019c04a3          	sb	s9,9(s8)
     310:	f4043c83          	ld	s9,-192(s0)
     314:	080ccc93          	xori	s9,s9,128
     318:	019c0523          	sb	s9,10(s8)
     31c:	f3843c83          	ld	s9,-200(s0)
     320:	080ccc93          	xori	s9,s9,128
     324:	019c05a3          	sb	s9,11(s8)
     328:	f3043c83          	ld	s9,-208(s0)
     32c:	080ccc93          	xori	s9,s9,128
     330:	019c0623          	sb	s9,12(s8)
     334:	f2843c83          	ld	s9,-216(s0)
     338:	080ccc93          	xori	s9,s9,128
     33c:	019c06a3          	sb	s9,13(s8)
     340:	f2043c83          	ld	s9,-224(s0)
     344:	080ccc93          	xori	s9,s9,128
     348:	019c0723          	sb	s9,14(s8)
     34c:	f1843c83          	ld	s9,-232(s0)
     350:	080ccc93          	xori	s9,s9,128
     354:	019c07a3          	sb	s9,15(s8)
     358:	f1043c83          	ld	s9,-240(s0)
     35c:	080ccc93          	xori	s9,s9,128
     360:	019c0823          	sb	s9,16(s8)
     364:	f0843c83          	ld	s9,-248(s0)
     368:	080ccc93          	xori	s9,s9,128
     36c:	019c08a3          	sb	s9,17(s8)
     370:	f0043c83          	ld	s9,-256(s0)
     374:	080ccc93          	xori	s9,s9,128
     378:	019c0923          	sb	s9,18(s8)
     37c:	ef843c83          	ld	s9,-264(s0)
     380:	080ccc93          	xori	s9,s9,128
     384:	019c09a3          	sb	s9,19(s8)
     388:	ef043c83          	ld	s9,-272(s0)
     38c:	080ccc93          	xori	s9,s9,128
     390:	019c0a23          	sb	s9,20(s8)
     394:	ee043c83          	ld	s9,-288(s0)
     398:	080ccc93          	xori	s9,s9,128
     39c:	019c0aa3          	sb	s9,21(s8)
     3a0:	ed843c83          	ld	s9,-296(s0)
     3a4:	080ccc93          	xori	s9,s9,128
     3a8:	019c0b23          	sb	s9,22(s8)
     3ac:	ec843c83          	ld	s9,-312(s0)
     3b0:	080ccc93          	xori	s9,s9,128
     3b4:	019c0ba3          	sb	s9,23(s8)
     3b8:	ea843c83          	ld	s9,-344(s0)
     3bc:	080ccc93          	xori	s9,s9,128
     3c0:	019c0c23          	sb	s9,24(s8)
     3c4:	e7843c83          	ld	s9,-392(s0)
     3c8:	080ccc93          	xori	s9,s9,128
     3cc:	019c0ca3          	sb	s9,25(s8)
     3d0:	e3843c83          	ld	s9,-456(s0)
     3d4:	080ccc93          	xori	s9,s9,128
     3d8:	019c0d23          	sb	s9,26(s8)
     3dc:	e0043c83          	ld	s9,-512(s0)
     3e0:	080ccc93          	xori	s9,s9,128
     3e4:	019c0da3          	sb	s9,27(s8)
     3e8:	dd043c83          	ld	s9,-560(s0)
     3ec:	080ccc93          	xori	s9,s9,128
     3f0:	019c0e23          	sb	s9,28(s8)
     3f4:	d9043c83          	ld	s9,-624(s0)
     3f8:	080ccc93          	xori	s9,s9,128
     3fc:	019c0ea3          	sb	s9,29(s8)
     400:	d5043c83          	ld	s9,-688(s0)
     404:	080ccc93          	xori	s9,s9,128
     408:	019c0f23          	sb	s9,30(s8)
     40c:	d0843c83          	ld	s9,-760(s0)
     410:	080ccc93          	xori	s9,s9,128
     414:	019c0fa3          	sb	s9,31(s8)
     418:	cc043c03          	ld	s8,-832(s0)
     41c:	080c4c93          	xori	s9,s8,128
     420:	00001c37          	lui	s8,0x1
     424:	41840c33          	sub	s8,s0,s8
     428:	cf8c3c03          	ld	s8,-776(s8) # cf8 <.LBB71_3+0xa7c>
     42c:	01ac0c33          	add	s8,s8,s10
     430:	019c01a3          	sb	s9,3(s8)
     434:	c8843c83          	ld	s9,-888(s0)
     438:	080ccc93          	xori	s9,s9,128
     43c:	019c0123          	sb	s9,2(s8)
     440:	c4043c83          	ld	s9,-960(s0)
     444:	080ccc93          	xori	s9,s9,128
     448:	019c00a3          	sb	s9,1(s8)
     44c:	c0043c83          	ld	s9,-1024(s0)
     450:	080ccc93          	xori	s9,s9,128
     454:	019c0023          	sb	s9,0(s8)
     458:	bf043c83          	ld	s9,-1040(s0)
     45c:	080ccc93          	xori	s9,s9,128
     460:	019c0223          	sb	s9,4(s8)
     464:	be043c83          	ld	s9,-1056(s0)
     468:	080ccc93          	xori	s9,s9,128
     46c:	019c02a3          	sb	s9,5(s8)
     470:	b3843c83          	ld	s9,-1224(s0)
     474:	080ccc93          	xori	s9,s9,128
     478:	019c0323          	sb	s9,6(s8)
     47c:	af843c83          	ld	s9,-1288(s0)
     480:	080ccc93          	xori	s9,s9,128
     484:	019c03a3          	sb	s9,7(s8)
     488:	ab043c83          	ld	s9,-1360(s0)
     48c:	080ccc93          	xori	s9,s9,128
     490:	019c0423          	sb	s9,8(s8)
     494:	a6843c83          	ld	s9,-1432(s0)
     498:	080ccc93          	xori	s9,s9,128
     49c:	019c04a3          	sb	s9,9(s8)
     4a0:	a2843c83          	ld	s9,-1496(s0)
     4a4:	080ccc93          	xori	s9,s9,128
     4a8:	019c0523          	sb	s9,10(s8)
     4ac:	9e843c83          	ld	s9,-1560(s0)
     4b0:	080ccc93          	xori	s9,s9,128
     4b4:	019c05a3          	sb	s9,11(s8)
     4b8:	9a043c83          	ld	s9,-1632(s0)
     4bc:	080ccc93          	xori	s9,s9,128
     4c0:	019c0623          	sb	s9,12(s8)
     4c4:	96043c83          	ld	s9,-1696(s0)
     4c8:	080ccc93          	xori	s9,s9,128
     4cc:	019c06a3          	sb	s9,13(s8)
     4d0:	92043c83          	ld	s9,-1760(s0)
     4d4:	080ccc93          	xori	s9,s9,128
     4d8:	019c0723          	sb	s9,14(s8)
     4dc:	8d843c83          	ld	s9,-1832(s0)
     4e0:	080ccc93          	xori	s9,s9,128
     4e4:	019c07a3          	sb	s9,15(s8)
     4e8:	89843c83          	ld	s9,-1896(s0)
     4ec:	080ccc93          	xori	s9,s9,128
     4f0:	019c0823          	sb	s9,16(s8)
     4f4:	85043c83          	ld	s9,-1968(s0)
     4f8:	080ccc93          	xori	s9,s9,128
     4fc:	019c08a3          	sb	s9,17(s8)
     500:	84043c83          	ld	s9,-1984(s0)
     504:	080ccc93          	xori	s9,s9,128
     508:	019c0923          	sb	s9,18(s8)
     50c:	80843c83          	ld	s9,-2040(s0)
     510:	080ccc93          	xori	s9,s9,128
     514:	019c09a3          	sb	s9,19(s8)
     518:	00001cb7          	lui	s9,0x1
     51c:	41940cb3          	sub	s9,s0,s9
     520:	788cbc83          	ld	s9,1928(s9) # 1788 <.LBB71_5+0x50>
     524:	080ccc93          	xori	s9,s9,128
     528:	019c0a23          	sb	s9,20(s8)
     52c:	00001cb7          	lui	s9,0x1
     530:	41940cb3          	sub	s9,s0,s9
     534:	748cbc83          	ld	s9,1864(s9) # 1748 <.LBB71_5+0x10>
     538:	080ccc93          	xori	s9,s9,128
     53c:	019c0aa3          	sb	s9,21(s8)
     540:	00001cb7          	lui	s9,0x1
     544:	41940cb3          	sub	s9,s0,s9
     548:	728cbc83          	ld	s9,1832(s9) # 1728 <.LBB71_4+0x524>
     54c:	080ccc93          	xori	s9,s9,128
     550:	019c0b23          	sb	s9,22(s8)
     554:	00001cb7          	lui	s9,0x1
     558:	41940cb3          	sub	s9,s0,s9
     55c:	720cbc83          	ld	s9,1824(s9) # 1720 <.LBB71_4+0x51c>
     560:	080ccc93          	xori	s9,s9,128
     564:	019c0ba3          	sb	s9,23(s8)
     568:	00001cb7          	lui	s9,0x1
     56c:	41940cb3          	sub	s9,s0,s9
     570:	718cbc83          	ld	s9,1816(s9) # 1718 <.LBB71_4+0x514>
     574:	080ccc93          	xori	s9,s9,128
     578:	019c0c23          	sb	s9,24(s8)
     57c:	00001cb7          	lui	s9,0x1
     580:	41940cb3          	sub	s9,s0,s9
     584:	710cbc83          	ld	s9,1808(s9) # 1710 <.LBB71_4+0x50c>
     588:	080ccc93          	xori	s9,s9,128
     58c:	019c0ca3          	sb	s9,25(s8)
     590:	00001cb7          	lui	s9,0x1
     594:	41940cb3          	sub	s9,s0,s9
     598:	708cbc83          	ld	s9,1800(s9) # 1708 <.LBB71_4+0x504>
     59c:	080ccc93          	xori	s9,s9,128
     5a0:	019c0d23          	sb	s9,26(s8)
     5a4:	00001cb7          	lui	s9,0x1
     5a8:	41940cb3          	sub	s9,s0,s9
     5ac:	700cbc83          	ld	s9,1792(s9) # 1700 <.LBB71_4+0x4fc>
     5b0:	080ccc93          	xori	s9,s9,128
     5b4:	019c0da3          	sb	s9,27(s8)
     5b8:	00001cb7          	lui	s9,0x1
     5bc:	41940cb3          	sub	s9,s0,s9
     5c0:	6f8cbc83          	ld	s9,1784(s9) # 16f8 <.LBB71_4+0x4f4>
     5c4:	080ccc93          	xori	s9,s9,128
     5c8:	019c0e23          	sb	s9,28(s8)
     5cc:	00001cb7          	lui	s9,0x1
     5d0:	41940cb3          	sub	s9,s0,s9
     5d4:	6f0cbc83          	ld	s9,1776(s9) # 16f0 <.LBB71_4+0x4ec>
     5d8:	080ccc93          	xori	s9,s9,128
     5dc:	019c0ea3          	sb	s9,29(s8)
     5e0:	00001cb7          	lui	s9,0x1
     5e4:	41940cb3          	sub	s9,s0,s9
     5e8:	6e8cbc83          	ld	s9,1768(s9) # 16e8 <.LBB71_4+0x4e4>
     5ec:	080ccc93          	xori	s9,s9,128
     5f0:	019c0f23          	sb	s9,30(s8)
     5f4:	00001cb7          	lui	s9,0x1
     5f8:	41940cb3          	sub	s9,s0,s9
     5fc:	6e0cbc83          	ld	s9,1760(s9) # 16e0 <.LBB71_4+0x4dc>
     600:	080ccc93          	xori	s9,s9,128
     604:	019c0fa3          	sb	s9,31(s8)
     608:	00001c37          	lui	s8,0x1
     60c:	41840c33          	sub	s8,s0,s8
     610:	6d8c3c03          	ld	s8,1752(s8) # 16d8 <.LBB71_4+0x4d4>
     614:	080c4c93          	xori	s9,s8,128
     618:	00001c37          	lui	s8,0x1
     61c:	41840c33          	sub	s8,s0,s8
     620:	cf0c3c03          	ld	s8,-784(s8) # cf0 <.LBB71_3+0xa74>
     624:	01ac0c33          	add	s8,s8,s10
     628:	019c01a3          	sb	s9,3(s8)
     62c:	00001cb7          	lui	s9,0x1
     630:	41940cb3          	sub	s9,s0,s9
     634:	6d0cbc83          	ld	s9,1744(s9) # 16d0 <.LBB71_4+0x4cc>
     638:	080ccc93          	xori	s9,s9,128
     63c:	019c0123          	sb	s9,2(s8)
     640:	00001cb7          	lui	s9,0x1
     644:	41940cb3          	sub	s9,s0,s9
     648:	6c8cbc83          	ld	s9,1736(s9) # 16c8 <.LBB71_4+0x4c4>
     64c:	080ccc93          	xori	s9,s9,128
     650:	019c00a3          	sb	s9,1(s8)
     654:	00001cb7          	lui	s9,0x1
     658:	41940cb3          	sub	s9,s0,s9
     65c:	6c0cbc83          	ld	s9,1728(s9) # 16c0 <.LBB71_4+0x4bc>
     660:	080ccc93          	xori	s9,s9,128
     664:	019c0023          	sb	s9,0(s8)
     668:	00001cb7          	lui	s9,0x1
     66c:	41940cb3          	sub	s9,s0,s9
     670:	6b8cbc83          	ld	s9,1720(s9) # 16b8 <.LBB71_4+0x4b4>
     674:	080ccc93          	xori	s9,s9,128
     678:	019c0223          	sb	s9,4(s8)
     67c:	00001cb7          	lui	s9,0x1
     680:	41940cb3          	sub	s9,s0,s9
     684:	6b0cbc83          	ld	s9,1712(s9) # 16b0 <.LBB71_4+0x4ac>
     688:	080ccc93          	xori	s9,s9,128
     68c:	019c02a3          	sb	s9,5(s8)
     690:	00001cb7          	lui	s9,0x1
     694:	41940cb3          	sub	s9,s0,s9
     698:	6a8cbc83          	ld	s9,1704(s9) # 16a8 <.LBB71_4+0x4a4>
     69c:	080ccc93          	xori	s9,s9,128
     6a0:	019c0323          	sb	s9,6(s8)
     6a4:	00001cb7          	lui	s9,0x1
     6a8:	41940cb3          	sub	s9,s0,s9
     6ac:	6a0cbc83          	ld	s9,1696(s9) # 16a0 <.LBB71_4+0x49c>
     6b0:	080ccc93          	xori	s9,s9,128
     6b4:	019c03a3          	sb	s9,7(s8)
     6b8:	00001cb7          	lui	s9,0x1
     6bc:	41940cb3          	sub	s9,s0,s9
     6c0:	698cbc83          	ld	s9,1688(s9) # 1698 <.LBB71_4+0x494>
     6c4:	080ccc93          	xori	s9,s9,128
     6c8:	019c0423          	sb	s9,8(s8)
     6cc:	00001cb7          	lui	s9,0x1
     6d0:	41940cb3          	sub	s9,s0,s9
     6d4:	690cbc83          	ld	s9,1680(s9) # 1690 <.LBB71_4+0x48c>
     6d8:	080ccc93          	xori	s9,s9,128
     6dc:	019c04a3          	sb	s9,9(s8)
     6e0:	00001cb7          	lui	s9,0x1
     6e4:	41940cb3          	sub	s9,s0,s9
     6e8:	688cbc83          	ld	s9,1672(s9) # 1688 <.LBB71_4+0x484>
     6ec:	080ccc93          	xori	s9,s9,128
     6f0:	019c0523          	sb	s9,10(s8)
     6f4:	00001cb7          	lui	s9,0x1
     6f8:	41940cb3          	sub	s9,s0,s9
     6fc:	680cbc83          	ld	s9,1664(s9) # 1680 <.LBB71_4+0x47c>
     700:	080ccc93          	xori	s9,s9,128
     704:	019c05a3          	sb	s9,11(s8)
     708:	00001cb7          	lui	s9,0x1
     70c:	41940cb3          	sub	s9,s0,s9
     710:	678cbc83          	ld	s9,1656(s9) # 1678 <.LBB71_4+0x474>
     714:	080ccc93          	xori	s9,s9,128
     718:	019c0623          	sb	s9,12(s8)
     71c:	00001cb7          	lui	s9,0x1
     720:	41940cb3          	sub	s9,s0,s9
     724:	668cbc83          	ld	s9,1640(s9) # 1668 <.LBB71_4+0x464>
     728:	080ccc93          	xori	s9,s9,128
     72c:	019c06a3          	sb	s9,13(s8)
     730:	00001cb7          	lui	s9,0x1
     734:	41940cb3          	sub	s9,s0,s9
     738:	660cbc83          	ld	s9,1632(s9) # 1660 <.LBB71_4+0x45c>
     73c:	080ccc93          	xori	s9,s9,128
     740:	019c0723          	sb	s9,14(s8)
     744:	00001cb7          	lui	s9,0x1
     748:	41940cb3          	sub	s9,s0,s9
     74c:	658cbc83          	ld	s9,1624(s9) # 1658 <.LBB71_4+0x454>
     750:	080ccc93          	xori	s9,s9,128
     754:	019c07a3          	sb	s9,15(s8)
     758:	00001cb7          	lui	s9,0x1
     75c:	41940cb3          	sub	s9,s0,s9
     760:	650cbc83          	ld	s9,1616(s9) # 1650 <.LBB71_4+0x44c>
     764:	080ccc93          	xori	s9,s9,128
     768:	019c0823          	sb	s9,16(s8)
     76c:	00001cb7          	lui	s9,0x1
     770:	41940cb3          	sub	s9,s0,s9
     774:	648cbc83          	ld	s9,1608(s9) # 1648 <.LBB71_4+0x444>
     778:	080ccc93          	xori	s9,s9,128
     77c:	019c08a3          	sb	s9,17(s8)
     780:	00001cb7          	lui	s9,0x1
     784:	41940cb3          	sub	s9,s0,s9
     788:	640cbc83          	ld	s9,1600(s9) # 1640 <.LBB71_4+0x43c>
     78c:	080ccc93          	xori	s9,s9,128
     790:	019c0923          	sb	s9,18(s8)
     794:	00001cb7          	lui	s9,0x1
     798:	41940cb3          	sub	s9,s0,s9
     79c:	638cbc83          	ld	s9,1592(s9) # 1638 <.LBB71_4+0x434>
     7a0:	080ccc93          	xori	s9,s9,128
     7a4:	019c09a3          	sb	s9,19(s8)
     7a8:	00001cb7          	lui	s9,0x1
     7ac:	41940cb3          	sub	s9,s0,s9
     7b0:	630cbc83          	ld	s9,1584(s9) # 1630 <.LBB71_4+0x42c>
     7b4:	080ccc93          	xori	s9,s9,128
     7b8:	019c0a23          	sb	s9,20(s8)
     7bc:	00001cb7          	lui	s9,0x1
     7c0:	41940cb3          	sub	s9,s0,s9
     7c4:	278cbc83          	ld	s9,632(s9) # 1278 <.LBB71_4+0x74>
     7c8:	080ccc93          	xori	s9,s9,128
     7cc:	019c0aa3          	sb	s9,21(s8)
     7d0:	00001cb7          	lui	s9,0x1
     7d4:	41940cb3          	sub	s9,s0,s9
     7d8:	288cbc83          	ld	s9,648(s9) # 1288 <.LBB71_4+0x84>
     7dc:	080ccc93          	xori	s9,s9,128
     7e0:	019c0b23          	sb	s9,22(s8)
     7e4:	00001cb7          	lui	s9,0x1
     7e8:	41940cb3          	sub	s9,s0,s9
     7ec:	298cbc83          	ld	s9,664(s9) # 1298 <.LBB71_4+0x94>
     7f0:	080ccc93          	xori	s9,s9,128
     7f4:	019c0ba3          	sb	s9,23(s8)
     7f8:	00001cb7          	lui	s9,0x1
     7fc:	41940cb3          	sub	s9,s0,s9
     800:	2a8cbc83          	ld	s9,680(s9) # 12a8 <.LBB71_4+0xa4>
     804:	080ccc93          	xori	s9,s9,128
     808:	019c0c23          	sb	s9,24(s8)
     80c:	00001cb7          	lui	s9,0x1
     810:	41940cb3          	sub	s9,s0,s9
     814:	2b8cbc83          	ld	s9,696(s9) # 12b8 <.LBB71_4+0xb4>
     818:	080ccc93          	xori	s9,s9,128
     81c:	019c0ca3          	sb	s9,25(s8)
     820:	00001cb7          	lui	s9,0x1
     824:	41940cb3          	sub	s9,s0,s9
     828:	2c8cbc83          	ld	s9,712(s9) # 12c8 <.LBB71_4+0xc4>
     82c:	080ccc93          	xori	s9,s9,128
     830:	019c0d23          	sb	s9,26(s8)
     834:	00001cb7          	lui	s9,0x1
     838:	41940cb3          	sub	s9,s0,s9
     83c:	2d8cbc83          	ld	s9,728(s9) # 12d8 <.LBB71_4+0xd4>
     840:	080ccc93          	xori	s9,s9,128
     844:	019c0da3          	sb	s9,27(s8)
     848:	00001cb7          	lui	s9,0x1
     84c:	41940cb3          	sub	s9,s0,s9
     850:	2e8cbc83          	ld	s9,744(s9) # 12e8 <.LBB71_4+0xe4>
     854:	080ccc93          	xori	s9,s9,128
     858:	019c0e23          	sb	s9,28(s8)
     85c:	00001cb7          	lui	s9,0x1
     860:	41940cb3          	sub	s9,s0,s9
     864:	2f8cbc83          	ld	s9,760(s9) # 12f8 <.LBB71_4+0xf4>
     868:	080ccc93          	xori	s9,s9,128
     86c:	019c0ea3          	sb	s9,29(s8)
     870:	00001cb7          	lui	s9,0x1
     874:	41940cb3          	sub	s9,s0,s9
     878:	308cbc83          	ld	s9,776(s9) # 1308 <.LBB71_4+0x104>
     87c:	080ccc93          	xori	s9,s9,128
     880:	019c0f23          	sb	s9,30(s8)
     884:	00001cb7          	lui	s9,0x1
     888:	41940cb3          	sub	s9,s0,s9
     88c:	318cbc83          	ld	s9,792(s9) # 1318 <.LBB71_4+0x114>
     890:	080ccc93          	xori	s9,s9,128
     894:	019c0fa3          	sb	s9,31(s8)
     898:	00001c37          	lui	s8,0x1
     89c:	41840c33          	sub	s8,s0,s8
     8a0:	328c3c03          	ld	s8,808(s8) # 1328 <.LBB71_4+0x124>
     8a4:	080c4c93          	xori	s9,s8,128
     8a8:	00001c37          	lui	s8,0x1
     8ac:	41840c33          	sub	s8,s0,s8
     8b0:	ce8c3c03          	ld	s8,-792(s8) # ce8 <.LBB71_3+0xa6c>
     8b4:	01ac0c33          	add	s8,s8,s10
     8b8:	019c01a3          	sb	s9,3(s8)
     8bc:	00001cb7          	lui	s9,0x1
     8c0:	41940cb3          	sub	s9,s0,s9
     8c4:	338cbc83          	ld	s9,824(s9) # 1338 <.LBB71_4+0x134>
     8c8:	080ccc93          	xori	s9,s9,128
     8cc:	019c0123          	sb	s9,2(s8)
     8d0:	00001cb7          	lui	s9,0x1
     8d4:	41940cb3          	sub	s9,s0,s9
     8d8:	348cbc83          	ld	s9,840(s9) # 1348 <.LBB71_4+0x144>
     8dc:	080ccc93          	xori	s9,s9,128
     8e0:	019c00a3          	sb	s9,1(s8)
     8e4:	00001cb7          	lui	s9,0x1
     8e8:	41940cb3          	sub	s9,s0,s9
     8ec:	358cbc83          	ld	s9,856(s9) # 1358 <.LBB71_4+0x154>
     8f0:	080ccc93          	xori	s9,s9,128
     8f4:	019c0023          	sb	s9,0(s8)
     8f8:	00001cb7          	lui	s9,0x1
     8fc:	41940cb3          	sub	s9,s0,s9
     900:	368cbc83          	ld	s9,872(s9) # 1368 <.LBB71_4+0x164>
     904:	080ccc93          	xori	s9,s9,128
     908:	019c0223          	sb	s9,4(s8)
     90c:	00001cb7          	lui	s9,0x1
     910:	41940cb3          	sub	s9,s0,s9
     914:	378cbc83          	ld	s9,888(s9) # 1378 <.LBB71_4+0x174>
     918:	080ccc93          	xori	s9,s9,128
     91c:	019c02a3          	sb	s9,5(s8)
     920:	00001cb7          	lui	s9,0x1
     924:	41940cb3          	sub	s9,s0,s9
     928:	388cbc83          	ld	s9,904(s9) # 1388 <.LBB71_4+0x184>
     92c:	080ccc93          	xori	s9,s9,128
     930:	019c0323          	sb	s9,6(s8)
     934:	00001cb7          	lui	s9,0x1
     938:	41940cb3          	sub	s9,s0,s9
     93c:	398cbc83          	ld	s9,920(s9) # 1398 <.LBB71_4+0x194>
     940:	080ccc93          	xori	s9,s9,128
     944:	019c03a3          	sb	s9,7(s8)
     948:	00001cb7          	lui	s9,0x1
     94c:	41940cb3          	sub	s9,s0,s9
     950:	3a8cbc83          	ld	s9,936(s9) # 13a8 <.LBB71_4+0x1a4>
     954:	080ccc93          	xori	s9,s9,128
     958:	019c0423          	sb	s9,8(s8)
     95c:	00001cb7          	lui	s9,0x1
     960:	41940cb3          	sub	s9,s0,s9
     964:	3b8cbc83          	ld	s9,952(s9) # 13b8 <.LBB71_4+0x1b4>
     968:	080ccc93          	xori	s9,s9,128
     96c:	019c04a3          	sb	s9,9(s8)
     970:	00001cb7          	lui	s9,0x1
     974:	41940cb3          	sub	s9,s0,s9
     978:	3c8cbc83          	ld	s9,968(s9) # 13c8 <.LBB71_4+0x1c4>
     97c:	080ccc93          	xori	s9,s9,128
     980:	019c0523          	sb	s9,10(s8)
     984:	00001cb7          	lui	s9,0x1
     988:	41940cb3          	sub	s9,s0,s9
     98c:	3d8cbc83          	ld	s9,984(s9) # 13d8 <.LBB71_4+0x1d4>
     990:	080ccc93          	xori	s9,s9,128
     994:	019c05a3          	sb	s9,11(s8)
     998:	00001cb7          	lui	s9,0x1
     99c:	41940cb3          	sub	s9,s0,s9
     9a0:	3e8cbc83          	ld	s9,1000(s9) # 13e8 <.LBB71_4+0x1e4>
     9a4:	080ccc93          	xori	s9,s9,128
     9a8:	019c0623          	sb	s9,12(s8)
     9ac:	00001cb7          	lui	s9,0x1
     9b0:	41940cb3          	sub	s9,s0,s9
     9b4:	3f8cbc83          	ld	s9,1016(s9) # 13f8 <.LBB71_4+0x1f4>
     9b8:	080ccc93          	xori	s9,s9,128
     9bc:	019c06a3          	sb	s9,13(s8)
     9c0:	00001cb7          	lui	s9,0x1
     9c4:	41940cb3          	sub	s9,s0,s9
     9c8:	408cbc83          	ld	s9,1032(s9) # 1408 <.LBB71_4+0x204>
     9cc:	080ccc93          	xori	s9,s9,128
     9d0:	019c0723          	sb	s9,14(s8)
     9d4:	00001cb7          	lui	s9,0x1
     9d8:	41940cb3          	sub	s9,s0,s9
     9dc:	418cbc83          	ld	s9,1048(s9) # 1418 <.LBB71_4+0x214>
     9e0:	080ccc93          	xori	s9,s9,128
     9e4:	019c07a3          	sb	s9,15(s8)
     9e8:	00001cb7          	lui	s9,0x1
     9ec:	41940cb3          	sub	s9,s0,s9
     9f0:	428cbc83          	ld	s9,1064(s9) # 1428 <.LBB71_4+0x224>
     9f4:	080ccc93          	xori	s9,s9,128
     9f8:	019c0823          	sb	s9,16(s8)
     9fc:	00001cb7          	lui	s9,0x1
     a00:	41940cb3          	sub	s9,s0,s9
     a04:	438cbc83          	ld	s9,1080(s9) # 1438 <.LBB71_4+0x234>
     a08:	080ccc93          	xori	s9,s9,128
     a0c:	019c08a3          	sb	s9,17(s8)
     a10:	00001cb7          	lui	s9,0x1
     a14:	41940cb3          	sub	s9,s0,s9
     a18:	448cbc83          	ld	s9,1096(s9) # 1448 <.LBB71_4+0x244>
     a1c:	080ccc93          	xori	s9,s9,128
     a20:	019c0923          	sb	s9,18(s8)
     a24:	00001cb7          	lui	s9,0x1
     a28:	41940cb3          	sub	s9,s0,s9
     a2c:	458cbc83          	ld	s9,1112(s9) # 1458 <.LBB71_4+0x254>
     a30:	080ccc93          	xori	s9,s9,128
     a34:	019c09a3          	sb	s9,19(s8)
     a38:	00001cb7          	lui	s9,0x1
     a3c:	41940cb3          	sub	s9,s0,s9
     a40:	468cbc83          	ld	s9,1128(s9) # 1468 <.LBB71_4+0x264>
     a44:	080ccc93          	xori	s9,s9,128
     a48:	019c0a23          	sb	s9,20(s8)
     a4c:	00001cb7          	lui	s9,0x1
     a50:	41940cb3          	sub	s9,s0,s9
     a54:	478cbc83          	ld	s9,1144(s9) # 1478 <.LBB71_4+0x274>
     a58:	080ccc93          	xori	s9,s9,128
     a5c:	019c0aa3          	sb	s9,21(s8)
     a60:	00001cb7          	lui	s9,0x1
     a64:	41940cb3          	sub	s9,s0,s9
     a68:	488cbc83          	ld	s9,1160(s9) # 1488 <.LBB71_4+0x284>
     a6c:	080ccc93          	xori	s9,s9,128
     a70:	019c0b23          	sb	s9,22(s8)
     a74:	00001cb7          	lui	s9,0x1
     a78:	41940cb3          	sub	s9,s0,s9
     a7c:	498cbc83          	ld	s9,1176(s9) # 1498 <.LBB71_4+0x294>
     a80:	080ccc93          	xori	s9,s9,128
     a84:	019c0ba3          	sb	s9,23(s8)
     a88:	00001cb7          	lui	s9,0x1
     a8c:	41940cb3          	sub	s9,s0,s9
     a90:	4a8cbc83          	ld	s9,1192(s9) # 14a8 <.LBB71_4+0x2a4>
     a94:	080ccc93          	xori	s9,s9,128
     a98:	019c0c23          	sb	s9,24(s8)
     a9c:	00001cb7          	lui	s9,0x1
     aa0:	41940cb3          	sub	s9,s0,s9
     aa4:	4b8cbc83          	ld	s9,1208(s9) # 14b8 <.LBB71_4+0x2b4>
     aa8:	080ccc93          	xori	s9,s9,128
     aac:	019c0ca3          	sb	s9,25(s8)
     ab0:	00001cb7          	lui	s9,0x1
     ab4:	41940cb3          	sub	s9,s0,s9
     ab8:	4c8cbc83          	ld	s9,1224(s9) # 14c8 <.LBB71_4+0x2c4>
     abc:	080ccc93          	xori	s9,s9,128
     ac0:	019c0d23          	sb	s9,26(s8)
     ac4:	00001cb7          	lui	s9,0x1
     ac8:	41940cb3          	sub	s9,s0,s9
     acc:	4d8cbc83          	ld	s9,1240(s9) # 14d8 <.LBB71_4+0x2d4>
     ad0:	080ccc93          	xori	s9,s9,128
     ad4:	019c0da3          	sb	s9,27(s8)
     ad8:	00001cb7          	lui	s9,0x1
     adc:	41940cb3          	sub	s9,s0,s9
     ae0:	4e8cbc83          	ld	s9,1256(s9) # 14e8 <.LBB71_4+0x2e4>
     ae4:	080ccc93          	xori	s9,s9,128
     ae8:	019c0e23          	sb	s9,28(s8)
     aec:	00001cb7          	lui	s9,0x1
     af0:	41940cb3          	sub	s9,s0,s9
     af4:	4f8cbc83          	ld	s9,1272(s9) # 14f8 <.LBB71_4+0x2f4>
     af8:	080ccc93          	xori	s9,s9,128
     afc:	019c0ea3          	sb	s9,29(s8)
     b00:	00001cb7          	lui	s9,0x1
     b04:	41940cb3          	sub	s9,s0,s9
     b08:	500cbc83          	ld	s9,1280(s9) # 1500 <.LBB71_4+0x2fc>
     b0c:	080ccc93          	xori	s9,s9,128
     b10:	019c0f23          	sb	s9,30(s8)
     b14:	00001cb7          	lui	s9,0x1
     b18:	41940cb3          	sub	s9,s0,s9
     b1c:	510cbc83          	ld	s9,1296(s9) # 1510 <.LBB71_4+0x30c>
     b20:	080ccc93          	xori	s9,s9,128
     b24:	019c0fa3          	sb	s9,31(s8)
     b28:	00001c37          	lui	s8,0x1
     b2c:	41840c33          	sub	s8,s0,s8
     b30:	520c3c03          	ld	s8,1312(s8) # 1520 <.LBB71_4+0x31c>
     b34:	080c4c93          	xori	s9,s8,128
     b38:	00001c37          	lui	s8,0x1
     b3c:	41840c33          	sub	s8,s0,s8
     b40:	ce0c3c03          	ld	s8,-800(s8) # ce0 <.LBB71_3+0xa64>
     b44:	01ac0c33          	add	s8,s8,s10
     b48:	019c01a3          	sb	s9,3(s8)
     b4c:	00001cb7          	lui	s9,0x1
     b50:	41940cb3          	sub	s9,s0,s9
     b54:	530cbc83          	ld	s9,1328(s9) # 1530 <.LBB71_4+0x32c>
     b58:	080ccc93          	xori	s9,s9,128
     b5c:	019c0123          	sb	s9,2(s8)
     b60:	00001cb7          	lui	s9,0x1
     b64:	41940cb3          	sub	s9,s0,s9
     b68:	540cbc83          	ld	s9,1344(s9) # 1540 <.LBB71_4+0x33c>
     b6c:	080ccc93          	xori	s9,s9,128
     b70:	019c00a3          	sb	s9,1(s8)
     b74:	00001cb7          	lui	s9,0x1
     b78:	41940cb3          	sub	s9,s0,s9
     b7c:	550cbc83          	ld	s9,1360(s9) # 1550 <.LBB71_4+0x34c>
     b80:	080ccc93          	xori	s9,s9,128
     b84:	019c0023          	sb	s9,0(s8)
     b88:	00001cb7          	lui	s9,0x1
     b8c:	41940cb3          	sub	s9,s0,s9
     b90:	560cbc83          	ld	s9,1376(s9) # 1560 <.LBB71_4+0x35c>
     b94:	080ccc93          	xori	s9,s9,128
     b98:	019c0223          	sb	s9,4(s8)
     b9c:	00001cb7          	lui	s9,0x1
     ba0:	41940cb3          	sub	s9,s0,s9
     ba4:	570cbc83          	ld	s9,1392(s9) # 1570 <.LBB71_4+0x36c>
     ba8:	080ccc93          	xori	s9,s9,128
     bac:	019c02a3          	sb	s9,5(s8)
     bb0:	00001cb7          	lui	s9,0x1
     bb4:	41940cb3          	sub	s9,s0,s9
     bb8:	580cbc83          	ld	s9,1408(s9) # 1580 <.LBB71_4+0x37c>
     bbc:	080ccc93          	xori	s9,s9,128
     bc0:	019c0323          	sb	s9,6(s8)
     bc4:	00001cb7          	lui	s9,0x1
     bc8:	41940cb3          	sub	s9,s0,s9
     bcc:	590cbc83          	ld	s9,1424(s9) # 1590 <.LBB71_4+0x38c>
     bd0:	080ccc93          	xori	s9,s9,128
     bd4:	019c03a3          	sb	s9,7(s8)
     bd8:	00001cb7          	lui	s9,0x1
     bdc:	41940cb3          	sub	s9,s0,s9
     be0:	5a0cbc83          	ld	s9,1440(s9) # 15a0 <.LBB71_4+0x39c>
     be4:	080ccc93          	xori	s9,s9,128
     be8:	019c0423          	sb	s9,8(s8)
     bec:	00001cb7          	lui	s9,0x1
     bf0:	41940cb3          	sub	s9,s0,s9
     bf4:	5b0cbc83          	ld	s9,1456(s9) # 15b0 <.LBB71_4+0x3ac>
     bf8:	080ccc93          	xori	s9,s9,128
     bfc:	019c04a3          	sb	s9,9(s8)
     c00:	00001cb7          	lui	s9,0x1
     c04:	41940cb3          	sub	s9,s0,s9
     c08:	5c0cbc83          	ld	s9,1472(s9) # 15c0 <.LBB71_4+0x3bc>
     c0c:	080ccc93          	xori	s9,s9,128
     c10:	019c0523          	sb	s9,10(s8)
     c14:	00001cb7          	lui	s9,0x1
     c18:	41940cb3          	sub	s9,s0,s9
     c1c:	5d0cbc83          	ld	s9,1488(s9) # 15d0 <.LBB71_4+0x3cc>
     c20:	080ccc93          	xori	s9,s9,128
     c24:	019c05a3          	sb	s9,11(s8)
     c28:	00001cb7          	lui	s9,0x1
     c2c:	41940cb3          	sub	s9,s0,s9
     c30:	5e0cbc83          	ld	s9,1504(s9) # 15e0 <.LBB71_4+0x3dc>
     c34:	080ccc93          	xori	s9,s9,128
     c38:	019c0623          	sb	s9,12(s8)
     c3c:	00001cb7          	lui	s9,0x1
     c40:	41940cb3          	sub	s9,s0,s9
     c44:	5f0cbc83          	ld	s9,1520(s9) # 15f0 <.LBB71_4+0x3ec>
     c48:	080ccc93          	xori	s9,s9,128
     c4c:	019c06a3          	sb	s9,13(s8)
     c50:	00001cb7          	lui	s9,0x1
     c54:	41940cb3          	sub	s9,s0,s9
     c58:	600cbc83          	ld	s9,1536(s9) # 1600 <.LBB71_4+0x3fc>
     c5c:	080ccc93          	xori	s9,s9,128
     c60:	019c0723          	sb	s9,14(s8)
     c64:	00001cb7          	lui	s9,0x1
     c68:	41940cb3          	sub	s9,s0,s9
     c6c:	730cbc83          	ld	s9,1840(s9) # 1730 <.LBB71_4+0x52c>
     c70:	080ccc93          	xori	s9,s9,128
     c74:	019c07a3          	sb	s9,15(s8)
     c78:	00001cb7          	lui	s9,0x1
     c7c:	41940cb3          	sub	s9,s0,s9
     c80:	740cbc83          	ld	s9,1856(s9) # 1740 <.LBB71_5+0x8>
     c84:	080ccc93          	xori	s9,s9,128
     c88:	019c0823          	sb	s9,16(s8)
     c8c:	00001cb7          	lui	s9,0x1
     c90:	41940cb3          	sub	s9,s0,s9
     c94:	758cbc83          	ld	s9,1880(s9) # 1758 <.LBB71_5+0x20>
     c98:	080ccc93          	xori	s9,s9,128
     c9c:	019c08a3          	sb	s9,17(s8)
     ca0:	00001cb7          	lui	s9,0x1
     ca4:	41940cb3          	sub	s9,s0,s9
     ca8:	768cbc83          	ld	s9,1896(s9) # 1768 <.LBB71_5+0x30>
     cac:	080ccc93          	xori	s9,s9,128
     cb0:	019c0923          	sb	s9,18(s8)
     cb4:	00001cb7          	lui	s9,0x1
     cb8:	41940cb3          	sub	s9,s0,s9
     cbc:	778cbc83          	ld	s9,1912(s9) # 1778 <.LBB71_5+0x40>
     cc0:	080ccc93          	xori	s9,s9,128
     cc4:	019c09a3          	sb	s9,19(s8)
     cc8:	00001cb7          	lui	s9,0x1
     ccc:	41940cb3          	sub	s9,s0,s9
     cd0:	790cbc83          	ld	s9,1936(s9) # 1790 <.LBB71_5+0x58>
     cd4:	080ccc93          	xori	s9,s9,128
     cd8:	019c0a23          	sb	s9,20(s8)
     cdc:	00001cb7          	lui	s9,0x1
     ce0:	41940cb3          	sub	s9,s0,s9
     ce4:	7a0cbc83          	ld	s9,1952(s9) # 17a0 <.LBB71_5+0x68>
     ce8:	080ccc93          	xori	s9,s9,128
     cec:	019c0aa3          	sb	s9,21(s8)
     cf0:	00001cb7          	lui	s9,0x1
     cf4:	41940cb3          	sub	s9,s0,s9
     cf8:	7b0cbc83          	ld	s9,1968(s9) # 17b0 <.LBB71_5+0x78>
     cfc:	080ccc93          	xori	s9,s9,128
     d00:	019c0b23          	sb	s9,22(s8)
     d04:	00001cb7          	lui	s9,0x1
     d08:	41940cb3          	sub	s9,s0,s9
     d0c:	7c0cbc83          	ld	s9,1984(s9) # 17c0 <.LBB71_5+0x88>
     d10:	080ccc93          	xori	s9,s9,128
     d14:	019c0ba3          	sb	s9,23(s8)
     d18:	00001cb7          	lui	s9,0x1
     d1c:	41940cb3          	sub	s9,s0,s9
     d20:	7d0cbc83          	ld	s9,2000(s9) # 17d0 <.LBB71_5+0x98>
     d24:	080ccc93          	xori	s9,s9,128
     d28:	019c0c23          	sb	s9,24(s8)
     d2c:	00001cb7          	lui	s9,0x1
     d30:	41940cb3          	sub	s9,s0,s9
     d34:	7e0cbc83          	ld	s9,2016(s9) # 17e0 <.LBB71_5+0xa8>
     d38:	080ccc93          	xori	s9,s9,128
     d3c:	019c0ca3          	sb	s9,25(s8)
     d40:	00001cb7          	lui	s9,0x1
     d44:	41940cb3          	sub	s9,s0,s9
     d48:	7f0cbc83          	ld	s9,2032(s9) # 17f0 <.LBB71_5+0xb8>
     d4c:	080ccc93          	xori	s9,s9,128
     d50:	019c0d23          	sb	s9,26(s8)
     d54:	80043c83          	ld	s9,-2048(s0)
     d58:	080ccc93          	xori	s9,s9,128
     d5c:	019c0da3          	sb	s9,27(s8)
     d60:	81843c83          	ld	s9,-2024(s0)
     d64:	080ccc93          	xori	s9,s9,128
     d68:	019c0e23          	sb	s9,28(s8)
     d6c:	82843c83          	ld	s9,-2008(s0)
     d70:	080ccc93          	xori	s9,s9,128
     d74:	019c0ea3          	sb	s9,29(s8)
     d78:	83843c83          	ld	s9,-1992(s0)
     d7c:	080ccc93          	xori	s9,s9,128
     d80:	019c0f23          	sb	s9,30(s8)
     d84:	85843c83          	ld	s9,-1960(s0)
     d88:	080ccc93          	xori	s9,s9,128
     d8c:	019c0fa3          	sb	s9,31(s8)
     d90:	86843c03          	ld	s8,-1944(s0)
     d94:	080c4c93          	xori	s9,s8,128
     d98:	00001c37          	lui	s8,0x1
     d9c:	41840c33          	sub	s8,s0,s8
     da0:	cd8c3c03          	ld	s8,-808(s8) # cd8 <.LBB71_3+0xa5c>
     da4:	01ac0c33          	add	s8,s8,s10
     da8:	019c01a3          	sb	s9,3(s8)
     dac:	87843c83          	ld	s9,-1928(s0)
     db0:	080ccc93          	xori	s9,s9,128
     db4:	019c0123          	sb	s9,2(s8)
     db8:	88843c83          	ld	s9,-1912(s0)
     dbc:	080ccc93          	xori	s9,s9,128
     dc0:	019c00a3          	sb	s9,1(s8)
     dc4:	8a043c83          	ld	s9,-1888(s0)
     dc8:	080ccc93          	xori	s9,s9,128
     dcc:	019c0023          	sb	s9,0(s8)
     dd0:	8b043c83          	ld	s9,-1872(s0)
     dd4:	080ccc93          	xori	s9,s9,128
     dd8:	019c0223          	sb	s9,4(s8)
     ddc:	8c043c83          	ld	s9,-1856(s0)
     de0:	080ccc93          	xori	s9,s9,128
     de4:	019c02a3          	sb	s9,5(s8)
     de8:	8d043c83          	ld	s9,-1840(s0)
     dec:	080ccc93          	xori	s9,s9,128
     df0:	019c0323          	sb	s9,6(s8)
     df4:	8e843c83          	ld	s9,-1816(s0)
     df8:	080ccc93          	xori	s9,s9,128
     dfc:	019c03a3          	sb	s9,7(s8)
     e00:	8f843c83          	ld	s9,-1800(s0)
     e04:	080ccc93          	xori	s9,s9,128
     e08:	019c0423          	sb	s9,8(s8)
     e0c:	90843c83          	ld	s9,-1784(s0)
     e10:	080ccc93          	xori	s9,s9,128
     e14:	019c04a3          	sb	s9,9(s8)
     e18:	91843c83          	ld	s9,-1768(s0)
     e1c:	080ccc93          	xori	s9,s9,128
     e20:	019c0523          	sb	s9,10(s8)
     e24:	93043c83          	ld	s9,-1744(s0)
     e28:	080ccc93          	xori	s9,s9,128
     e2c:	019c05a3          	sb	s9,11(s8)
     e30:	94043c83          	ld	s9,-1728(s0)
     e34:	080ccc93          	xori	s9,s9,128
     e38:	019c0623          	sb	s9,12(s8)
     e3c:	95043c83          	ld	s9,-1712(s0)
     e40:	080ccc93          	xori	s9,s9,128
     e44:	019c06a3          	sb	s9,13(s8)
     e48:	96843c83          	ld	s9,-1688(s0)
     e4c:	080ccc93          	xori	s9,s9,128
     e50:	019c0723          	sb	s9,14(s8)
     e54:	97843c83          	ld	s9,-1672(s0)
     e58:	080ccc93          	xori	s9,s9,128
     e5c:	019c07a3          	sb	s9,15(s8)
     e60:	98843c83          	ld	s9,-1656(s0)
     e64:	080ccc93          	xori	s9,s9,128
     e68:	019c0823          	sb	s9,16(s8)
     e6c:	99843c83          	ld	s9,-1640(s0)
     e70:	080ccc93          	xori	s9,s9,128
     e74:	019c08a3          	sb	s9,17(s8)
     e78:	9b043c83          	ld	s9,-1616(s0)
     e7c:	080ccc93          	xori	s9,s9,128
     e80:	019c0923          	sb	s9,18(s8)
     e84:	9c043c83          	ld	s9,-1600(s0)
     e88:	080ccc93          	xori	s9,s9,128
     e8c:	019c09a3          	sb	s9,19(s8)
     e90:	9d043c83          	ld	s9,-1584(s0)
     e94:	080ccc93          	xori	s9,s9,128
     e98:	019c0a23          	sb	s9,20(s8)
     e9c:	9e043c83          	ld	s9,-1568(s0)
     ea0:	080ccc93          	xori	s9,s9,128
     ea4:	019c0aa3          	sb	s9,21(s8)
     ea8:	9f843c83          	ld	s9,-1544(s0)
     eac:	080ccc93          	xori	s9,s9,128
     eb0:	019c0b23          	sb	s9,22(s8)
     eb4:	a0843c83          	ld	s9,-1528(s0)
     eb8:	080ccc93          	xori	s9,s9,128
     ebc:	019c0ba3          	sb	s9,23(s8)
     ec0:	a1843c83          	ld	s9,-1512(s0)
     ec4:	080ccc93          	xori	s9,s9,128
     ec8:	019c0c23          	sb	s9,24(s8)
     ecc:	a3043c83          	ld	s9,-1488(s0)
     ed0:	080ccc93          	xori	s9,s9,128
     ed4:	019c0ca3          	sb	s9,25(s8)
     ed8:	a4043c83          	ld	s9,-1472(s0)
     edc:	080ccc93          	xori	s9,s9,128
     ee0:	019c0d23          	sb	s9,26(s8)
     ee4:	a5043c83          	ld	s9,-1456(s0)
     ee8:	080ccc93          	xori	s9,s9,128
     eec:	019c0da3          	sb	s9,27(s8)
     ef0:	a6043c83          	ld	s9,-1440(s0)
     ef4:	080ccc93          	xori	s9,s9,128
     ef8:	019c0e23          	sb	s9,28(s8)
     efc:	a7843c83          	ld	s9,-1416(s0)
     f00:	080ccc93          	xori	s9,s9,128
     f04:	019c0ea3          	sb	s9,29(s8)
     f08:	a8843c83          	ld	s9,-1400(s0)
     f0c:	080ccc93          	xori	s9,s9,128
     f10:	019c0f23          	sb	s9,30(s8)
     f14:	a9843c83          	ld	s9,-1384(s0)
     f18:	080ccc93          	xori	s9,s9,128
     f1c:	019c0fa3          	sb	s9,31(s8)
     f20:	aa843c03          	ld	s8,-1368(s0)
     f24:	080c4c93          	xori	s9,s8,128
     f28:	00001c37          	lui	s8,0x1
     f2c:	41840c33          	sub	s8,s0,s8
     f30:	cd0c3c03          	ld	s8,-816(s8) # cd0 <.LBB71_3+0xa54>
     f34:	01ac0c33          	add	s8,s8,s10
     f38:	019c01a3          	sb	s9,3(s8)
     f3c:	ac043c83          	ld	s9,-1344(s0)
     f40:	080ccc93          	xori	s9,s9,128
     f44:	019c0123          	sb	s9,2(s8)
     f48:	ad043c83          	ld	s9,-1328(s0)
     f4c:	080ccc93          	xori	s9,s9,128
     f50:	019c00a3          	sb	s9,1(s8)
     f54:	ae043c83          	ld	s9,-1312(s0)
     f58:	080ccc93          	xori	s9,s9,128
     f5c:	019c0023          	sb	s9,0(s8)
     f60:	af043c83          	ld	s9,-1296(s0)
     f64:	080ccc93          	xori	s9,s9,128
     f68:	019c0223          	sb	s9,4(s8)
     f6c:	b0843c83          	ld	s9,-1272(s0)
     f70:	080ccc93          	xori	s9,s9,128
     f74:	019c02a3          	sb	s9,5(s8)
     f78:	b1843c83          	ld	s9,-1256(s0)
     f7c:	080ccc93          	xori	s9,s9,128
     f80:	019c0323          	sb	s9,6(s8)
     f84:	b2843c83          	ld	s9,-1240(s0)
     f88:	080ccc93          	xori	s9,s9,128
     f8c:	019c03a3          	sb	s9,7(s8)
     f90:	b4043c83          	ld	s9,-1216(s0)
     f94:	080ccc93          	xori	s9,s9,128
     f98:	019c0423          	sb	s9,8(s8)
     f9c:	b5043c83          	ld	s9,-1200(s0)
     fa0:	080ccc93          	xori	s9,s9,128
     fa4:	019c04a3          	sb	s9,9(s8)
     fa8:	b6043c83          	ld	s9,-1184(s0)
     fac:	080ccc93          	xori	s9,s9,128
     fb0:	019c0523          	sb	s9,10(s8)
     fb4:	b7043c83          	ld	s9,-1168(s0)
     fb8:	080ccc93          	xori	s9,s9,128
     fbc:	019c05a3          	sb	s9,11(s8)
     fc0:	b8043c83          	ld	s9,-1152(s0)
     fc4:	080ccc93          	xori	s9,s9,128
     fc8:	019c0623          	sb	s9,12(s8)
     fcc:	b9043c83          	ld	s9,-1136(s0)
     fd0:	080ccc93          	xori	s9,s9,128
     fd4:	019c06a3          	sb	s9,13(s8)
     fd8:	ba043c83          	ld	s9,-1120(s0)
     fdc:	080ccc93          	xori	s9,s9,128
     fe0:	019c0723          	sb	s9,14(s8)
     fe4:	bb043c83          	ld	s9,-1104(s0)
     fe8:	080ccc93          	xori	s9,s9,128
     fec:	019c07a3          	sb	s9,15(s8)
     ff0:	bc043c83          	ld	s9,-1088(s0)
     ff4:	080ccc93          	xori	s9,s9,128
     ff8:	019c0823          	sb	s9,16(s8)
     ffc:	bd043c83          	ld	s9,-1072(s0)
    1000:	080ccc93          	xori	s9,s9,128
    1004:	019c08a3          	sb	s9,17(s8)
    1008:	be843c83          	ld	s9,-1048(s0)
    100c:	080ccc93          	xori	s9,s9,128
    1010:	019c0923          	sb	s9,18(s8)
    1014:	c0843c83          	ld	s9,-1016(s0)
    1018:	080ccc93          	xori	s9,s9,128
    101c:	019c09a3          	sb	s9,19(s8)
    1020:	c1843c83          	ld	s9,-1000(s0)
    1024:	080ccc93          	xori	s9,s9,128
    1028:	019c0a23          	sb	s9,20(s8)
    102c:	c2843c83          	ld	s9,-984(s0)
    1030:	080ccc93          	xori	s9,s9,128
    1034:	019c0aa3          	sb	s9,21(s8)
    1038:	c3843c83          	ld	s9,-968(s0)
    103c:	080ccc93          	xori	s9,s9,128
    1040:	019c0b23          	sb	s9,22(s8)
    1044:	c5043c83          	ld	s9,-944(s0)
    1048:	080ccc93          	xori	s9,s9,128
    104c:	019c0ba3          	sb	s9,23(s8)
    1050:	c6043c83          	ld	s9,-928(s0)
    1054:	080ccc93          	xori	s9,s9,128
    1058:	019c0c23          	sb	s9,24(s8)
    105c:	c7043c83          	ld	s9,-912(s0)
    1060:	080ccc93          	xori	s9,s9,128
    1064:	019c0ca3          	sb	s9,25(s8)
    1068:	c8043c83          	ld	s9,-896(s0)
    106c:	080ccc93          	xori	s9,s9,128
    1070:	019c0d23          	sb	s9,26(s8)
    1074:	c9843c83          	ld	s9,-872(s0)
    1078:	080ccc93          	xori	s9,s9,128
    107c:	019c0da3          	sb	s9,27(s8)
    1080:	ca843c83          	ld	s9,-856(s0)
    1084:	080ccc93          	xori	s9,s9,128
    1088:	019c0e23          	sb	s9,28(s8)
    108c:	cb843c83          	ld	s9,-840(s0)
    1090:	080ccc93          	xori	s9,s9,128
    1094:	019c0ea3          	sb	s9,29(s8)
    1098:	cd043c83          	ld	s9,-816(s0)
    109c:	080ccc93          	xori	s9,s9,128
    10a0:	019c0f23          	sb	s9,30(s8)
    10a4:	ce043c83          	ld	s9,-800(s0)
    10a8:	080ccc93          	xori	s9,s9,128
    10ac:	019c0fa3          	sb	s9,31(s8)
    10b0:	cf043c03          	ld	s8,-784(s0)
    10b4:	080c4c93          	xori	s9,s8,128
    10b8:	00001c37          	lui	s8,0x1
    10bc:	41840c33          	sub	s8,s0,s8
    10c0:	cc8c3c03          	ld	s8,-824(s8) # cc8 <.LBB71_3+0xa4c>
    10c4:	01ac0c33          	add	s8,s8,s10
    10c8:	019c01a3          	sb	s9,3(s8)
    10cc:	d0043c83          	ld	s9,-768(s0)
    10d0:	080ccc93          	xori	s9,s9,128
    10d4:	019c0123          	sb	s9,2(s8)
    10d8:	d1843c83          	ld	s9,-744(s0)
    10dc:	080ccc93          	xori	s9,s9,128
    10e0:	019c00a3          	sb	s9,1(s8)
    10e4:	d2843c83          	ld	s9,-728(s0)
    10e8:	080ccc93          	xori	s9,s9,128
    10ec:	019c0023          	sb	s9,0(s8)
    10f0:	d3843c83          	ld	s9,-712(s0)
    10f4:	080ccc93          	xori	s9,s9,128
    10f8:	019c0223          	sb	s9,4(s8)
    10fc:	d4843c83          	ld	s9,-696(s0)
    1100:	080ccc93          	xori	s9,s9,128
    1104:	019c02a3          	sb	s9,5(s8)
    1108:	d6043c83          	ld	s9,-672(s0)
    110c:	080ccc93          	xori	s9,s9,128
    1110:	019c0323          	sb	s9,6(s8)
    1114:	d7043c83          	ld	s9,-656(s0)
    1118:	080ccc93          	xori	s9,s9,128
    111c:	019c03a3          	sb	s9,7(s8)
    1120:	d8043c83          	ld	s9,-640(s0)
    1124:	080ccc93          	xori	s9,s9,128
    1128:	019c0423          	sb	s9,8(s8)
    112c:	080dcc93          	xori	s9,s11,128
    1130:	019c04a3          	sb	s9,9(s8)
    1134:	08054513          	xori	a0,a0,128
    1138:	00ac0523          	sb	a0,10(s8)
    113c:	0805c513          	xori	a0,a1,128
    1140:	00ac05a3          	sb	a0,11(s8)
    1144:	08064513          	xori	a0,a2,128
    1148:	00ac0623          	sb	a0,12(s8)
    114c:	0806c513          	xori	a0,a3,128
    1150:	00ac06a3          	sb	a0,13(s8)
    1154:	08074513          	xori	a0,a4,128
    1158:	00ac0723          	sb	a0,14(s8)
    115c:	0807c513          	xori	a0,a5,128
    1160:	00ac07a3          	sb	a0,15(s8)
    1164:	08084513          	xori	a0,a6,128
    1168:	00ac0823          	sb	a0,16(s8)
    116c:	0808c513          	xori	a0,a7,128
    1170:	00ac08a3          	sb	a0,17(s8)
    1174:	0802c513          	xori	a0,t0,128
    1178:	00ac0923          	sb	a0,18(s8)
    117c:	08034513          	xori	a0,t1,128
    1180:	00ac09a3          	sb	a0,19(s8)
    1184:	0803c513          	xori	a0,t2,128
    1188:	00ac0a23          	sb	a0,20(s8)
    118c:	080e4513          	xori	a0,t3,128
    1190:	00ac0aa3          	sb	a0,21(s8)
    1194:	080ec513          	xori	a0,t4,128
    1198:	00ac0b23          	sb	a0,22(s8)
    119c:	080f4513          	xori	a0,t5,128
    11a0:	00ac0ba3          	sb	a0,23(s8)
    11a4:	080fc513          	xori	a0,t6,128
    11a8:	00ac0c23          	sb	a0,24(s8)
    11ac:	0804c513          	xori	a0,s1,128
    11b0:	00ac0ca3          	sb	a0,25(s8)
    11b4:	08094513          	xori	a0,s2,128
    11b8:	00ac0d23          	sb	a0,26(s8)
    11bc:	0809c513          	xori	a0,s3,128
    11c0:	00ac0da3          	sb	a0,27(s8)
    11c4:	080a4513          	xori	a0,s4,128
    11c8:	00ac0e23          	sb	a0,28(s8)
    11cc:	080ac513          	xori	a0,s5,128
    11d0:	00ac0ea3          	sb	a0,29(s8)
    11d4:	080b4513          	xori	a0,s6,128
    11d8:	00ac0f23          	sb	a0,30(s8)
    11dc:	080bc513          	xori	a0,s7,128
    11e0:	00ac0fa3          	sb	a0,31(s8)
    11e4:	020d0593          	addi	a1,s10,32
    11e8:	00001537          	lui	a0,0x1
    11ec:	40a40533          	sub	a0,s0,a0
    11f0:	61053a83          	ld	s5,1552(a0) # 1610 <.LBB71_4+0x40c>
    11f4:	020a8a93          	addi	s5,s5,32
    11f8:	22000513          	li	a0,544
    11fc:	00ad6463          	bltu	s10,a0,1204 <.LBB71_4>
    1200:	f21fe06f          	j	120 <.LBB71_1>

0000000000001204 <.LBB71_4>:
    1204:	00001537          	lui	a0,0x1
    1208:	40a40533          	sub	a0,s0,a0
    120c:	62b53423          	sd	a1,1576(a0) # 1628 <.LBB71_4+0x424>
    1210:	00001537          	lui	a0,0x1
    1214:	40a40533          	sub	a0,s0,a0
    1218:	61553823          	sd	s5,1552(a0) # 1610 <.LBB71_4+0x40c>
    121c:	00001537          	lui	a0,0x1
    1220:	40a40533          	sub	a0,s0,a0
    1224:	d1853503          	ld	a0,-744(a0) # d18 <.LBB71_3+0xa9c>
    1228:	00000613          	li	a2,0
    122c:	000015b7          	lui	a1,0x1
    1230:	40b405b3          	sub	a1,s0,a1
    1234:	7005b823          	sd	zero,1808(a1) # 1710 <.LBB71_4+0x50c>
    1238:	00000713          	li	a4,0
    123c:	000015b7          	lui	a1,0x1
    1240:	40b405b3          	sub	a1,s0,a1
    1244:	7005bc23          	sd	zero,1816(a1) # 1718 <.LBB71_4+0x514>
    1248:	000015b7          	lui	a1,0x1
    124c:	40b405b3          	sub	a1,s0,a1
    1250:	7005b423          	sd	zero,1800(a1) # 1708 <.LBB71_4+0x504>
    1254:	000015b7          	lui	a1,0x1
    1258:	40b405b3          	sub	a1,s0,a1
    125c:	7205b023          	sd	zero,1824(a1) # 1720 <.LBB71_4+0x51c>
    1260:	000015b7          	lui	a1,0x1
    1264:	40b405b3          	sub	a1,s0,a1
    1268:	7205b423          	sd	zero,1832(a1) # 1728 <.LBB71_4+0x524>
    126c:	000015b7          	lui	a1,0x1
    1270:	40b405b3          	sub	a1,s0,a1
    1274:	7005b023          	sd	zero,1792(a1) # 1700 <.LBB71_4+0x4fc>
    1278:	000015b7          	lui	a1,0x1
    127c:	40b405b3          	sub	a1,s0,a1
    1280:	6e05bc23          	sd	zero,1784(a1) # 16f8 <.LBB71_4+0x4f4>
    1284:	000015b7          	lui	a1,0x1
    1288:	40b405b3          	sub	a1,s0,a1
    128c:	6e05b823          	sd	zero,1776(a1) # 16f0 <.LBB71_4+0x4ec>
    1290:	000015b7          	lui	a1,0x1
    1294:	40b405b3          	sub	a1,s0,a1
    1298:	7405b423          	sd	zero,1864(a1) # 1748 <.LBB71_5+0x10>
    129c:	000015b7          	lui	a1,0x1
    12a0:	40b405b3          	sub	a1,s0,a1
    12a4:	7405bc23          	sd	zero,1880(a1) # 1758 <.LBB71_5+0x20>
    12a8:	000015b7          	lui	a1,0x1
    12ac:	40b405b3          	sub	a1,s0,a1
    12b0:	7605b023          	sd	zero,1888(a1) # 1760 <.LBB71_5+0x28>
    12b4:	000015b7          	lui	a1,0x1
    12b8:	40b405b3          	sub	a1,s0,a1
    12bc:	7605b423          	sd	zero,1896(a1) # 1768 <.LBB71_5+0x30>
    12c0:	000015b7          	lui	a1,0x1
    12c4:	40b405b3          	sub	a1,s0,a1
    12c8:	7605b823          	sd	zero,1904(a1) # 1770 <.LBB71_5+0x38>
    12cc:	000015b7          	lui	a1,0x1
    12d0:	40b405b3          	sub	a1,s0,a1
    12d4:	7605bc23          	sd	zero,1912(a1) # 1778 <.LBB71_5+0x40>
    12d8:	000015b7          	lui	a1,0x1
    12dc:	40b405b3          	sub	a1,s0,a1
    12e0:	7805b023          	sd	zero,1920(a1) # 1780 <.LBB71_5+0x48>
    12e4:	000015b7          	lui	a1,0x1
    12e8:	40b405b3          	sub	a1,s0,a1
    12ec:	7405b023          	sd	zero,1856(a1) # 1740 <.LBB71_5+0x8>
    12f0:	000015b7          	lui	a1,0x1
    12f4:	40b405b3          	sub	a1,s0,a1
    12f8:	7805b823          	sd	zero,1936(a1) # 1790 <.LBB71_5+0x58>
    12fc:	000015b7          	lui	a1,0x1
    1300:	40b405b3          	sub	a1,s0,a1
    1304:	7805bc23          	sd	zero,1944(a1) # 1798 <.LBB71_5+0x60>
    1308:	000015b7          	lui	a1,0x1
    130c:	40b405b3          	sub	a1,s0,a1
    1310:	7a05b023          	sd	zero,1952(a1) # 17a0 <.LBB71_5+0x68>
    1314:	000015b7          	lui	a1,0x1
    1318:	40b405b3          	sub	a1,s0,a1
    131c:	7a05b423          	sd	zero,1960(a1) # 17a8 <.LBB71_5+0x70>
    1320:	000015b7          	lui	a1,0x1
    1324:	40b405b3          	sub	a1,s0,a1
    1328:	7a05b823          	sd	zero,1968(a1) # 17b0 <.LBB71_5+0x78>
    132c:	000015b7          	lui	a1,0x1
    1330:	40b405b3          	sub	a1,s0,a1
    1334:	7a05bc23          	sd	zero,1976(a1) # 17b8 <.LBB71_5+0x80>
    1338:	000015b7          	lui	a1,0x1
    133c:	40b405b3          	sub	a1,s0,a1
    1340:	7c05b023          	sd	zero,1984(a1) # 17c0 <.LBB71_5+0x88>
    1344:	000015b7          	lui	a1,0x1
    1348:	40b405b3          	sub	a1,s0,a1
    134c:	7c05b423          	sd	zero,1992(a1) # 17c8 <.LBB71_5+0x90>
    1350:	000015b7          	lui	a1,0x1
    1354:	40b405b3          	sub	a1,s0,a1
    1358:	7c05b823          	sd	zero,2000(a1) # 17d0 <.LBB71_5+0x98>
    135c:	000015b7          	lui	a1,0x1
    1360:	40b405b3          	sub	a1,s0,a1
    1364:	7c05bc23          	sd	zero,2008(a1) # 17d8 <.LBB71_5+0xa0>
    1368:	000015b7          	lui	a1,0x1
    136c:	40b405b3          	sub	a1,s0,a1
    1370:	7e05b023          	sd	zero,2016(a1) # 17e0 <.LBB71_5+0xa8>
    1374:	000015b7          	lui	a1,0x1
    1378:	40b405b3          	sub	a1,s0,a1
    137c:	7e05b423          	sd	zero,2024(a1) # 17e8 <.LBB71_5+0xb0>
    1380:	000015b7          	lui	a1,0x1
    1384:	40b405b3          	sub	a1,s0,a1
    1388:	7e05b823          	sd	zero,2032(a1) # 17f0 <.LBB71_5+0xb8>
    138c:	000015b7          	lui	a1,0x1
    1390:	40b405b3          	sub	a1,s0,a1
    1394:	7e05bc23          	sd	zero,2040(a1) # 17f8 <.LBB71_5+0xc0>
    1398:	80043823          	sd	zero,-2032(s0)
    139c:	000015b7          	lui	a1,0x1
    13a0:	40b405b3          	sub	a1,s0,a1
    13a4:	7205bc23          	sd	zero,1848(a1) # 1738 <.LBB71_5>
    13a8:	000015b7          	lui	a1,0x1
    13ac:	40b405b3          	sub	a1,s0,a1
    13b0:	7405b823          	sd	zero,1872(a1) # 1750 <.LBB71_5+0x18>
    13b4:	000015b7          	lui	a1,0x1
    13b8:	40b405b3          	sub	a1,s0,a1
    13bc:	7805b423          	sd	zero,1928(a1) # 1788 <.LBB71_5+0x50>
    13c0:	80043c23          	sd	zero,-2024(s0)
    13c4:	82043023          	sd	zero,-2016(s0)
    13c8:	82043423          	sd	zero,-2008(s0)
    13cc:	82043823          	sd	zero,-2000(s0)
    13d0:	82043c23          	sd	zero,-1992(s0)
    13d4:	84043423          	sd	zero,-1976(s0)
    13d8:	84043823          	sd	zero,-1968(s0)
    13dc:	84043c23          	sd	zero,-1960(s0)
    13e0:	86043023          	sd	zero,-1952(s0)
    13e4:	86043423          	sd	zero,-1944(s0)
    13e8:	86043823          	sd	zero,-1936(s0)
    13ec:	86043c23          	sd	zero,-1928(s0)
    13f0:	88043023          	sd	zero,-1920(s0)
    13f4:	88043423          	sd	zero,-1912(s0)
    13f8:	88043823          	sd	zero,-1904(s0)
    13fc:	88043c23          	sd	zero,-1896(s0)
    1400:	8a043023          	sd	zero,-1888(s0)
    1404:	8a043423          	sd	zero,-1880(s0)
    1408:	8a043823          	sd	zero,-1872(s0)
    140c:	8a043c23          	sd	zero,-1864(s0)
    1410:	8c043023          	sd	zero,-1856(s0)
    1414:	8c043423          	sd	zero,-1848(s0)
    1418:	8c043823          	sd	zero,-1840(s0)
    141c:	8c043c23          	sd	zero,-1832(s0)
    1420:	8e043023          	sd	zero,-1824(s0)
    1424:	8e043423          	sd	zero,-1816(s0)
    1428:	8e043823          	sd	zero,-1808(s0)
    142c:	8e043c23          	sd	zero,-1800(s0)
    1430:	90043c23          	sd	zero,-1768(s0)
    1434:	000015b7          	lui	a1,0x1
    1438:	40b405b3          	sub	a1,s0,a1
    143c:	7205b823          	sd	zero,1840(a1) # 1730 <.LBB71_4+0x52c>
    1440:	90043423          	sd	zero,-1784(s0)
    1444:	90043023          	sd	zero,-1792(s0)
    1448:	92043023          	sd	zero,-1760(s0)
    144c:	92043423          	sd	zero,-1752(s0)
    1450:	92043823          	sd	zero,-1744(s0)
    1454:	92043c23          	sd	zero,-1736(s0)
    1458:	94043023          	sd	zero,-1728(s0)
    145c:	94043423          	sd	zero,-1720(s0)
    1460:	94043823          	sd	zero,-1712(s0)
    1464:	94043c23          	sd	zero,-1704(s0)
    1468:	96043023          	sd	zero,-1696(s0)
    146c:	96043423          	sd	zero,-1688(s0)
    1470:	96043823          	sd	zero,-1680(s0)
    1474:	96043c23          	sd	zero,-1672(s0)
    1478:	98043023          	sd	zero,-1664(s0)
    147c:	98043423          	sd	zero,-1656(s0)
    1480:	98043823          	sd	zero,-1648(s0)
    1484:	98043c23          	sd	zero,-1640(s0)
    1488:	9a043023          	sd	zero,-1632(s0)
    148c:	9a043423          	sd	zero,-1624(s0)
    1490:	9a043823          	sd	zero,-1616(s0)
    1494:	9a043c23          	sd	zero,-1608(s0)
    1498:	9c043023          	sd	zero,-1600(s0)
    149c:	9c043423          	sd	zero,-1592(s0)
    14a0:	9c043823          	sd	zero,-1584(s0)
    14a4:	9c043c23          	sd	zero,-1576(s0)
    14a8:	9e043023          	sd	zero,-1568(s0)
    14ac:	9e043423          	sd	zero,-1560(s0)
    14b0:	9e043823          	sd	zero,-1552(s0)
    14b4:	9e043c23          	sd	zero,-1544(s0)
    14b8:	a0043c23          	sd	zero,-1512(s0)
    14bc:	a0043823          	sd	zero,-1520(s0)
    14c0:	a0043423          	sd	zero,-1528(s0)
    14c4:	a0043023          	sd	zero,-1536(s0)
    14c8:	a2043023          	sd	zero,-1504(s0)
    14cc:	a2043423          	sd	zero,-1496(s0)
    14d0:	a2043823          	sd	zero,-1488(s0)
    14d4:	a2043c23          	sd	zero,-1480(s0)
    14d8:	a4043023          	sd	zero,-1472(s0)
    14dc:	a4043423          	sd	zero,-1464(s0)
    14e0:	a4043823          	sd	zero,-1456(s0)
    14e4:	a4043c23          	sd	zero,-1448(s0)
    14e8:	a6043023          	sd	zero,-1440(s0)
    14ec:	a6043423          	sd	zero,-1432(s0)
    14f0:	a6043823          	sd	zero,-1424(s0)
    14f4:	a6043c23          	sd	zero,-1416(s0)
    14f8:	a8043023          	sd	zero,-1408(s0)
    14fc:	a8043423          	sd	zero,-1400(s0)
    1500:	a8043823          	sd	zero,-1392(s0)
    1504:	a8043c23          	sd	zero,-1384(s0)
    1508:	aa043023          	sd	zero,-1376(s0)
    150c:	aa043423          	sd	zero,-1368(s0)
    1510:	aa043823          	sd	zero,-1360(s0)
    1514:	aa043c23          	sd	zero,-1352(s0)
    1518:	ac043023          	sd	zero,-1344(s0)
    151c:	ac043423          	sd	zero,-1336(s0)
    1520:	ac043823          	sd	zero,-1328(s0)
    1524:	ac043c23          	sd	zero,-1320(s0)
    1528:	ae043023          	sd	zero,-1312(s0)
    152c:	ae043423          	sd	zero,-1304(s0)
    1530:	80043023          	sd	zero,-2048(s0)
    1534:	ae043c23          	sd	zero,-1288(s0)
    1538:	b0043c23          	sd	zero,-1256(s0)
    153c:	b0043823          	sd	zero,-1264(s0)
    1540:	b0043423          	sd	zero,-1272(s0)
    1544:	b0043023          	sd	zero,-1280(s0)
    1548:	b2043023          	sd	zero,-1248(s0)
    154c:	b2043423          	sd	zero,-1240(s0)
    1550:	b2043823          	sd	zero,-1232(s0)
    1554:	b2043c23          	sd	zero,-1224(s0)
    1558:	b4043023          	sd	zero,-1216(s0)
    155c:	b4043423          	sd	zero,-1208(s0)
    1560:	b4043823          	sd	zero,-1200(s0)
    1564:	b4043c23          	sd	zero,-1192(s0)
    1568:	b6043023          	sd	zero,-1184(s0)
    156c:	b6043423          	sd	zero,-1176(s0)
    1570:	b6043823          	sd	zero,-1168(s0)
    1574:	b6043c23          	sd	zero,-1160(s0)
    1578:	b8043023          	sd	zero,-1152(s0)
    157c:	b8043423          	sd	zero,-1144(s0)
    1580:	b8043823          	sd	zero,-1136(s0)
    1584:	b8043c23          	sd	zero,-1128(s0)
    1588:	ba043023          	sd	zero,-1120(s0)
    158c:	ba043423          	sd	zero,-1112(s0)
    1590:	ba043823          	sd	zero,-1104(s0)
    1594:	ba043c23          	sd	zero,-1096(s0)
    1598:	bc043023          	sd	zero,-1088(s0)
    159c:	bc043423          	sd	zero,-1080(s0)
    15a0:	bc043823          	sd	zero,-1072(s0)
    15a4:	bc043c23          	sd	zero,-1064(s0)
    15a8:	ae043823          	sd	zero,-1296(s0)
    15ac:	90043823          	sd	zero,-1776(s0)
    15b0:	80043423          	sd	zero,-2040(s0)
    15b4:	be043423          	sd	zero,-1048(s0)
    15b8:	c0043823          	sd	zero,-1008(s0)
    15bc:	c0043423          	sd	zero,-1016(s0)
    15c0:	c0043023          	sd	zero,-1024(s0)
    15c4:	be043c23          	sd	zero,-1032(s0)
    15c8:	c0043c23          	sd	zero,-1000(s0)
    15cc:	c2043023          	sd	zero,-992(s0)
    15d0:	c2043423          	sd	zero,-984(s0)
    15d4:	c2043823          	sd	zero,-976(s0)
    15d8:	c2043c23          	sd	zero,-968(s0)
    15dc:	c4043023          	sd	zero,-960(s0)
    15e0:	c4043423          	sd	zero,-952(s0)
    15e4:	c4043823          	sd	zero,-944(s0)
    15e8:	c4043c23          	sd	zero,-936(s0)
    15ec:	c6043023          	sd	zero,-928(s0)
    15f0:	c6043423          	sd	zero,-920(s0)
    15f4:	c6043823          	sd	zero,-912(s0)
    15f8:	c6043c23          	sd	zero,-904(s0)
    15fc:	c8043023          	sd	zero,-896(s0)
    1600:	c8043423          	sd	zero,-888(s0)
    1604:	c8043823          	sd	zero,-880(s0)
    1608:	c8043c23          	sd	zero,-872(s0)
    160c:	ca043023          	sd	zero,-864(s0)
    1610:	ca043423          	sd	zero,-856(s0)
    1614:	ca043823          	sd	zero,-848(s0)
    1618:	ca043c23          	sd	zero,-840(s0)
    161c:	cc043023          	sd	zero,-832(s0)
    1620:	cc043423          	sd	zero,-824(s0)
    1624:	cc043823          	sd	zero,-816(s0)
    1628:	cc043c23          	sd	zero,-808(s0)
    162c:	ce043023          	sd	zero,-800(s0)
    1630:	ce043423          	sd	zero,-792(s0)
    1634:	ce043823          	sd	zero,-784(s0)
    1638:	d0043823          	sd	zero,-752(s0)
    163c:	d0043423          	sd	zero,-760(s0)
    1640:	d0043023          	sd	zero,-768(s0)
    1644:	ce043c23          	sd	zero,-776(s0)
    1648:	d0043c23          	sd	zero,-744(s0)
    164c:	d2043023          	sd	zero,-736(s0)
    1650:	d2043423          	sd	zero,-728(s0)
    1654:	d2043823          	sd	zero,-720(s0)
    1658:	d2043c23          	sd	zero,-712(s0)
    165c:	d4043023          	sd	zero,-704(s0)
    1660:	d4043423          	sd	zero,-696(s0)
    1664:	d4043823          	sd	zero,-688(s0)
    1668:	d4043c23          	sd	zero,-680(s0)
    166c:	d6043023          	sd	zero,-672(s0)
    1670:	d6043423          	sd	zero,-664(s0)
    1674:	d6043823          	sd	zero,-656(s0)
    1678:	d6043c23          	sd	zero,-648(s0)
    167c:	d8043023          	sd	zero,-640(s0)
    1680:	d8043423          	sd	zero,-632(s0)
    1684:	d8043823          	sd	zero,-624(s0)
    1688:	d8043c23          	sd	zero,-616(s0)
    168c:	da043023          	sd	zero,-608(s0)
    1690:	da043423          	sd	zero,-600(s0)
    1694:	da043823          	sd	zero,-592(s0)
    1698:	da043c23          	sd	zero,-584(s0)
    169c:	dc043023          	sd	zero,-576(s0)
    16a0:	dc043423          	sd	zero,-568(s0)
    16a4:	dc043823          	sd	zero,-560(s0)
    16a8:	dc043c23          	sd	zero,-552(s0)
    16ac:	de043023          	sd	zero,-544(s0)
    16b0:	de043423          	sd	zero,-536(s0)
    16b4:	de043823          	sd	zero,-528(s0)
    16b8:	00000593          	li	a1,0
    16bc:	e0043423          	sd	zero,-504(s0)
    16c0:	e0043023          	sd	zero,-512(s0)
    16c4:	de043c23          	sd	zero,-520(s0)
    16c8:	e0043c23          	sd	zero,-488(s0)
    16cc:	e2043023          	sd	zero,-480(s0)
    16d0:	e2043423          	sd	zero,-472(s0)
    16d4:	e2043823          	sd	zero,-464(s0)
    16d8:	e2043c23          	sd	zero,-456(s0)
    16dc:	00000c13          	li	s8,0
    16e0:	e4043423          	sd	zero,-440(s0)
    16e4:	84043023          	sd	zero,-1984(s0)
    16e8:	be043023          	sd	zero,-1056(s0)
    16ec:	be043823          	sd	zero,-1040(s0)
    16f0:	e4043823          	sd	zero,-432(s0)
    16f4:	e6043823          	sd	zero,-400(s0)
    16f8:	e6043423          	sd	zero,-408(s0)
    16fc:	e4043c23          	sd	zero,-424(s0)
    1700:	e6043023          	sd	zero,-416(s0)
    1704:	00000093          	li	ra,0
    1708:	00000d93          	li	s11,0
    170c:	00000c93          	li	s9,0
    1710:	00000a13          	li	s4,0
    1714:	00000993          	li	s3,0
    1718:	00000913          	li	s2,0
    171c:	00000493          	li	s1,0
    1720:	00000f93          	li	t6,0
    1724:	00000f13          	li	t5,0
    1728:	00000e93          	li	t4,0
    172c:	00000e13          	li	t3,0
    1730:	00000393          	li	t2,0
    1734:	00000313          	li	t1,0

0000000000001738 <.LBB71_5>:
    1738:	e0b43823          	sd	a1,-496(s0)
    173c:	f8a43423          	sd	a0,-120(s0)
    1740:	e5843023          	sd	s8,-448(s0)
    1744:	00001537          	lui	a0,0x1
    1748:	40a40533          	sub	a0,s0,a0
    174c:	68153c23          	sd	ra,1688(a0) # 1698 <.LBB71_4+0x494>
    1750:	00001537          	lui	a0,0x1
    1754:	40a40533          	sub	a0,s0,a0
    1758:	6bb53023          	sd	s11,1696(a0) # 16a0 <.LBB71_4+0x49c>
    175c:	00001537          	lui	a0,0x1
    1760:	40a40533          	sub	a0,s0,a0
    1764:	6b953423          	sd	s9,1704(a0) # 16a8 <.LBB71_4+0x4a4>
    1768:	f1443823          	sd	s4,-240(s0)
    176c:	f1343c23          	sd	s3,-232(s0)
    1770:	00001537          	lui	a0,0x1
    1774:	40a40533          	sub	a0,s0,a0
    1778:	6b253823          	sd	s2,1712(a0) # 16b0 <.LBB71_4+0x4ac>
    177c:	00001537          	lui	a0,0x1
    1780:	40a40533          	sub	a0,s0,a0
    1784:	6a953c23          	sd	s1,1720(a0) # 16b8 <.LBB71_4+0x4b4>
    1788:	00001537          	lui	a0,0x1
    178c:	40a40533          	sub	a0,s0,a0
    1790:	6df53023          	sd	t6,1728(a0) # 16c0 <.LBB71_4+0x4bc>
    1794:	00001537          	lui	a0,0x1
    1798:	40a40533          	sub	a0,s0,a0
    179c:	6de53423          	sd	t5,1736(a0) # 16c8 <.LBB71_4+0x4c4>
    17a0:	00001537          	lui	a0,0x1
    17a4:	40a40533          	sub	a0,s0,a0
    17a8:	6dd53823          	sd	t4,1744(a0) # 16d0 <.LBB71_4+0x4cc>
    17ac:	00001537          	lui	a0,0x1
    17b0:	40a40533          	sub	a0,s0,a0
    17b4:	6dc53c23          	sd	t3,1752(a0) # 16d8 <.LBB71_4+0x4d4>
    17b8:	00001537          	lui	a0,0x1
    17bc:	40a40533          	sub	a0,s0,a0
    17c0:	6e753023          	sd	t2,1760(a0) # 16e0 <.LBB71_4+0x4dc>
    17c4:	00001537          	lui	a0,0x1
    17c8:	40a40533          	sub	a0,s0,a0
    17cc:	6e653423          	sd	t1,1768(a0) # 16e8 <.LBB71_4+0x4e4>
    17d0:	f8843503          	ld	a0,-120(s0)
    17d4:	00050503          	lb	a0,0(a0)
    17d8:	002a8583          	lb	a1,2(s5)
    17dc:	f6b43c23          	sd	a1,-136(s0)
    17e0:	001a8c03          	lb	s8,1(s5)
    17e4:	ed843423          	sd	s8,-312(s0)
    17e8:	000a8783          	lb	a5,0(s5)
    17ec:	003a8d03          	lb	s10,3(s5)
    17f0:	f3a43c23          	sd	s10,-200(s0)
    17f4:	004a8d83          	lb	s11,4(s5)
    17f8:	f3b43823          	sd	s11,-208(s0)
    17fc:	005a8083          	lb	ra,5(s5)
    1800:	006a8903          	lb	s2,6(s5)
    1804:	f9243023          	sd	s2,-128(s0)
    1808:	007a8803          	lb	a6,7(s5)
    180c:	f7043823          	sd	a6,-144(s0)
    1810:	008a8883          	lb	a7,8(s5)
    1814:	009a8683          	lb	a3,9(s5)
    1818:	e8d43023          	sd	a3,-384(s0)
    181c:	00aa8683          	lb	a3,10(s5)
    1820:	f4d43823          	sd	a3,-176(s0)
    1824:	00ba8283          	lb	t0,11(s5)
    1828:	f6543423          	sd	t0,-152(s0)
    182c:	00ca8383          	lb	t2,12(s5)
    1830:	e8743c23          	sd	t2,-360(s0)
    1834:	00da8b03          	lb	s6,13(s5)
    1838:	f3643423          	sd	s6,-216(s0)
    183c:	00ea8983          	lb	s3,14(s5)
    1840:	00fa8f03          	lb	t5,15(s5)
    1844:	010a8303          	lb	t1,16(s5)
    1848:	f4643423          	sd	t1,-184(s0)
    184c:	011a8e83          	lb	t4,17(s5)
    1850:	012a8e03          	lb	t3,18(s5)
    1854:	f5c43c23          	sd	t3,-168(s0)
    1858:	013a8483          	lb	s1,19(s5)
    185c:	ec943823          	sd	s1,-304(s0)
    1860:	014a8f83          	lb	t6,20(s5)
    1864:	e9f43823          	sd	t6,-368(s0)
    1868:	015a8303          	lb	t1,21(s5)
    186c:	e8643423          	sd	t1,-376(s0)
    1870:	016a8a03          	lb	s4,22(s5)
    1874:	f1443423          	sd	s4,-248(s0)
    1878:	017a8303          	lb	t1,23(s5)
    187c:	ee643423          	sd	t1,-280(s0)
    1880:	018a8b83          	lb	s7,24(s5)
    1884:	f7743023          	sd	s7,-160(s0)
    1888:	02b505b3          	mul	a1,a0,a1
    188c:	00e58733          	add	a4,a1,a4
    1890:	000015b7          	lui	a1,0x1
    1894:	40b405b3          	sub	a1,s0,a1
    1898:	68e5b423          	sd	a4,1672(a1) # 1688 <.LBB71_4+0x484>
    189c:	038505b3          	mul	a1,a0,s8
    18a0:	00001737          	lui	a4,0x1
    18a4:	40e40733          	sub	a4,s0,a4
    18a8:	71073703          	ld	a4,1808(a4) # 1710 <.LBB71_4+0x50c>
    18ac:	00e58733          	add	a4,a1,a4
    18b0:	000015b7          	lui	a1,0x1
    18b4:	40b405b3          	sub	a1,s0,a1
    18b8:	70e5b823          	sd	a4,1808(a1) # 1710 <.LBB71_4+0x50c>
    18bc:	02f505b3          	mul	a1,a0,a5
    18c0:	00078713          	mv	a4,a5
    18c4:	00c58633          	add	a2,a1,a2
    18c8:	000015b7          	lui	a1,0x1
    18cc:	40b405b3          	sub	a1,s0,a1
    18d0:	68c5b823          	sd	a2,1680(a1) # 1690 <.LBB71_4+0x48c>
    18d4:	03a505b3          	mul	a1,a0,s10
    18d8:	00001637          	lui	a2,0x1
    18dc:	40c40633          	sub	a2,s0,a2
    18e0:	71863603          	ld	a2,1816(a2) # 1718 <.LBB71_4+0x514>
    18e4:	00c58633          	add	a2,a1,a2
    18e8:	000015b7          	lui	a1,0x1
    18ec:	40b405b3          	sub	a1,s0,a1
    18f0:	70c5bc23          	sd	a2,1816(a1) # 1718 <.LBB71_4+0x514>
    18f4:	03b505b3          	mul	a1,a0,s11
    18f8:	00001637          	lui	a2,0x1
    18fc:	40c40633          	sub	a2,s0,a2
    1900:	70863603          	ld	a2,1800(a2) # 1708 <.LBB71_4+0x504>
    1904:	00c58633          	add	a2,a1,a2
    1908:	000015b7          	lui	a1,0x1
    190c:	40b405b3          	sub	a1,s0,a1
    1910:	70c5b423          	sd	a2,1800(a1) # 1708 <.LBB71_4+0x504>
    1914:	021505b3          	mul	a1,a0,ra
    1918:	00001637          	lui	a2,0x1
    191c:	40c40633          	sub	a2,s0,a2
    1920:	72063603          	ld	a2,1824(a2) # 1720 <.LBB71_4+0x51c>
    1924:	00c58633          	add	a2,a1,a2
    1928:	000015b7          	lui	a1,0x1
    192c:	40b405b3          	sub	a1,s0,a1
    1930:	72c5b023          	sd	a2,1824(a1) # 1720 <.LBB71_4+0x51c>
    1934:	032505b3          	mul	a1,a0,s2
    1938:	00001637          	lui	a2,0x1
    193c:	40c40633          	sub	a2,s0,a2
    1940:	72863603          	ld	a2,1832(a2) # 1728 <.LBB71_4+0x524>
    1944:	00c58633          	add	a2,a1,a2
    1948:	000015b7          	lui	a1,0x1
    194c:	40b405b3          	sub	a1,s0,a1
    1950:	72c5b423          	sd	a2,1832(a1) # 1728 <.LBB71_4+0x524>
    1954:	030505b3          	mul	a1,a0,a6
    1958:	00001637          	lui	a2,0x1
    195c:	40c40633          	sub	a2,s0,a2
    1960:	70063603          	ld	a2,1792(a2) # 1700 <.LBB71_4+0x4fc>
    1964:	00c58633          	add	a2,a1,a2
    1968:	000015b7          	lui	a1,0x1
    196c:	40b405b3          	sub	a1,s0,a1
    1970:	70c5b023          	sd	a2,1792(a1) # 1700 <.LBB71_4+0x4fc>
    1974:	00088813          	mv	a6,a7
    1978:	ed143023          	sd	a7,-320(s0)
    197c:	031505b3          	mul	a1,a0,a7
    1980:	00001637          	lui	a2,0x1
    1984:	40c40633          	sub	a2,s0,a2
    1988:	6f863603          	ld	a2,1784(a2) # 16f8 <.LBB71_4+0x4f4>
    198c:	00c58633          	add	a2,a1,a2
    1990:	000015b7          	lui	a1,0x1
    1994:	40b405b3          	sub	a1,s0,a1
    1998:	6ec5bc23          	sd	a2,1784(a1) # 16f8 <.LBB71_4+0x4f4>
    199c:	e8043883          	ld	a7,-384(s0)
    19a0:	031505b3          	mul	a1,a0,a7
    19a4:	00001637          	lui	a2,0x1
    19a8:	40c40633          	sub	a2,s0,a2
    19ac:	6f063603          	ld	a2,1776(a2) # 16f0 <.LBB71_4+0x4ec>
    19b0:	00c58633          	add	a2,a1,a2
    19b4:	000015b7          	lui	a1,0x1
    19b8:	40b405b3          	sub	a1,s0,a1
    19bc:	6ec5b823          	sd	a2,1776(a1) # 16f0 <.LBB71_4+0x4ec>
    19c0:	02d505b3          	mul	a1,a0,a3
    19c4:	00001637          	lui	a2,0x1
    19c8:	40c40633          	sub	a2,s0,a2
    19cc:	74863603          	ld	a2,1864(a2) # 1748 <.LBB71_5+0x10>
    19d0:	00c58633          	add	a2,a1,a2
    19d4:	000015b7          	lui	a1,0x1
    19d8:	40b405b3          	sub	a1,s0,a1
    19dc:	74c5b423          	sd	a2,1864(a1) # 1748 <.LBB71_5+0x10>
    19e0:	025505b3          	mul	a1,a0,t0
    19e4:	00001637          	lui	a2,0x1
    19e8:	40c40633          	sub	a2,s0,a2
    19ec:	75863603          	ld	a2,1880(a2) # 1758 <.LBB71_5+0x20>
    19f0:	00c58633          	add	a2,a1,a2
    19f4:	000015b7          	lui	a1,0x1
    19f8:	40b405b3          	sub	a1,s0,a1
    19fc:	74c5bc23          	sd	a2,1880(a1) # 1758 <.LBB71_5+0x20>
    1a00:	027505b3          	mul	a1,a0,t2
    1a04:	00001637          	lui	a2,0x1
    1a08:	40c40633          	sub	a2,s0,a2
    1a0c:	76063603          	ld	a2,1888(a2) # 1760 <.LBB71_5+0x28>
    1a10:	00c58633          	add	a2,a1,a2
    1a14:	000015b7          	lui	a1,0x1
    1a18:	40b405b3          	sub	a1,s0,a1
    1a1c:	76c5b023          	sd	a2,1888(a1) # 1760 <.LBB71_5+0x28>
    1a20:	036505b3          	mul	a1,a0,s6
    1a24:	00001637          	lui	a2,0x1
    1a28:	40c40633          	sub	a2,s0,a2
    1a2c:	76863603          	ld	a2,1896(a2) # 1768 <.LBB71_5+0x30>
    1a30:	00c58633          	add	a2,a1,a2
    1a34:	000015b7          	lui	a1,0x1
    1a38:	40b405b3          	sub	a1,s0,a1
    1a3c:	76c5b423          	sd	a2,1896(a1) # 1768 <.LBB71_5+0x30>
    1a40:	033505b3          	mul	a1,a0,s3
    1a44:	00001637          	lui	a2,0x1
    1a48:	40c40633          	sub	a2,s0,a2
    1a4c:	77063603          	ld	a2,1904(a2) # 1770 <.LBB71_5+0x38>
    1a50:	00c58633          	add	a2,a1,a2
    1a54:	000015b7          	lui	a1,0x1
    1a58:	40b405b3          	sub	a1,s0,a1
    1a5c:	76c5b823          	sd	a2,1904(a1) # 1770 <.LBB71_5+0x38>
    1a60:	03e505b3          	mul	a1,a0,t5
    1a64:	00001637          	lui	a2,0x1
    1a68:	40c40633          	sub	a2,s0,a2
    1a6c:	77863603          	ld	a2,1912(a2) # 1778 <.LBB71_5+0x40>
    1a70:	00c58633          	add	a2,a1,a2
    1a74:	000015b7          	lui	a1,0x1
    1a78:	40b405b3          	sub	a1,s0,a1
    1a7c:	76c5bc23          	sd	a2,1912(a1) # 1778 <.LBB71_5+0x40>
    1a80:	f4843283          	ld	t0,-184(s0)
    1a84:	025505b3          	mul	a1,a0,t0
    1a88:	00001637          	lui	a2,0x1
    1a8c:	40c40633          	sub	a2,s0,a2
    1a90:	78063603          	ld	a2,1920(a2) # 1780 <.LBB71_5+0x48>
    1a94:	00c58633          	add	a2,a1,a2
    1a98:	000015b7          	lui	a1,0x1
    1a9c:	40b405b3          	sub	a1,s0,a1
    1aa0:	78c5b023          	sd	a2,1920(a1) # 1780 <.LBB71_5+0x48>
    1aa4:	03d505b3          	mul	a1,a0,t4
    1aa8:	00001637          	lui	a2,0x1
    1aac:	40c40633          	sub	a2,s0,a2
    1ab0:	74063603          	ld	a2,1856(a2) # 1740 <.LBB71_5+0x8>
    1ab4:	00c58633          	add	a2,a1,a2
    1ab8:	000015b7          	lui	a1,0x1
    1abc:	40b405b3          	sub	a1,s0,a1
    1ac0:	74c5b023          	sd	a2,1856(a1) # 1740 <.LBB71_5+0x8>
    1ac4:	03c505b3          	mul	a1,a0,t3
    1ac8:	00001637          	lui	a2,0x1
    1acc:	40c40633          	sub	a2,s0,a2
    1ad0:	79063603          	ld	a2,1936(a2) # 1790 <.LBB71_5+0x58>
    1ad4:	00c58633          	add	a2,a1,a2
    1ad8:	000015b7          	lui	a1,0x1
    1adc:	40b405b3          	sub	a1,s0,a1
    1ae0:	78c5b823          	sd	a2,1936(a1) # 1790 <.LBB71_5+0x58>
    1ae4:	029505b3          	mul	a1,a0,s1
    1ae8:	00001637          	lui	a2,0x1
    1aec:	40c40633          	sub	a2,s0,a2
    1af0:	79863603          	ld	a2,1944(a2) # 1798 <.LBB71_5+0x60>
    1af4:	00c58633          	add	a2,a1,a2
    1af8:	000015b7          	lui	a1,0x1
    1afc:	40b405b3          	sub	a1,s0,a1
    1b00:	78c5bc23          	sd	a2,1944(a1) # 1798 <.LBB71_5+0x60>
    1b04:	03f505b3          	mul	a1,a0,t6
    1b08:	00001637          	lui	a2,0x1
    1b0c:	40c40633          	sub	a2,s0,a2
    1b10:	7a063603          	ld	a2,1952(a2) # 17a0 <.LBB71_5+0x68>
    1b14:	00c58633          	add	a2,a1,a2
    1b18:	000015b7          	lui	a1,0x1
    1b1c:	40b405b3          	sub	a1,s0,a1
    1b20:	7ac5b023          	sd	a2,1952(a1) # 17a0 <.LBB71_5+0x68>
    1b24:	e8843903          	ld	s2,-376(s0)
    1b28:	032505b3          	mul	a1,a0,s2
    1b2c:	00001637          	lui	a2,0x1
    1b30:	40c40633          	sub	a2,s0,a2
    1b34:	7a863603          	ld	a2,1960(a2) # 17a8 <.LBB71_5+0x70>
    1b38:	00c58633          	add	a2,a1,a2
    1b3c:	000015b7          	lui	a1,0x1
    1b40:	40b405b3          	sub	a1,s0,a1
    1b44:	7ac5b423          	sd	a2,1960(a1) # 17a8 <.LBB71_5+0x70>
    1b48:	034505b3          	mul	a1,a0,s4
    1b4c:	00001637          	lui	a2,0x1
    1b50:	40c40633          	sub	a2,s0,a2
    1b54:	7b063603          	ld	a2,1968(a2) # 17b0 <.LBB71_5+0x78>
    1b58:	00c58633          	add	a2,a1,a2
    1b5c:	000015b7          	lui	a1,0x1
    1b60:	40b405b3          	sub	a1,s0,a1
    1b64:	7ac5b823          	sd	a2,1968(a1) # 17b0 <.LBB71_5+0x78>
    1b68:	026505b3          	mul	a1,a0,t1
    1b6c:	00001637          	lui	a2,0x1
    1b70:	40c40633          	sub	a2,s0,a2
    1b74:	7b863603          	ld	a2,1976(a2) # 17b8 <.LBB71_5+0x80>
    1b78:	00c58633          	add	a2,a1,a2
    1b7c:	000015b7          	lui	a1,0x1
    1b80:	40b405b3          	sub	a1,s0,a1
    1b84:	7ac5bc23          	sd	a2,1976(a1) # 17b8 <.LBB71_5+0x80>
    1b88:	019a8483          	lb	s1,25(s5)
    1b8c:	037505b3          	mul	a1,a0,s7
    1b90:	00001637          	lui	a2,0x1
    1b94:	40c40633          	sub	a2,s0,a2
    1b98:	7c063603          	ld	a2,1984(a2) # 17c0 <.LBB71_5+0x88>
    1b9c:	00c58633          	add	a2,a1,a2
    1ba0:	000015b7          	lui	a1,0x1
    1ba4:	40b405b3          	sub	a1,s0,a1
    1ba8:	7cc5b023          	sd	a2,1984(a1) # 17c0 <.LBB71_5+0x88>
    1bac:	01aa8f83          	lb	t6,26(s5)
    1bb0:	029505b3          	mul	a1,a0,s1
    1bb4:	00001637          	lui	a2,0x1
    1bb8:	40c40633          	sub	a2,s0,a2
    1bbc:	7c863603          	ld	a2,1992(a2) # 17c8 <.LBB71_5+0x90>
    1bc0:	00c58633          	add	a2,a1,a2
    1bc4:	000015b7          	lui	a1,0x1
    1bc8:	40b405b3          	sub	a1,s0,a1
    1bcc:	7cc5b423          	sd	a2,1992(a1) # 17c8 <.LBB71_5+0x90>
    1bd0:	01ba8383          	lb	t2,27(s5)
    1bd4:	03f505b3          	mul	a1,a0,t6
    1bd8:	eff43023          	sd	t6,-288(s0)
    1bdc:	00001637          	lui	a2,0x1
    1be0:	40c40633          	sub	a2,s0,a2
    1be4:	7d063603          	ld	a2,2000(a2) # 17d0 <.LBB71_5+0x98>
    1be8:	00c58633          	add	a2,a1,a2
    1bec:	000015b7          	lui	a1,0x1
    1bf0:	40b405b3          	sub	a1,s0,a1
    1bf4:	7cc5b823          	sd	a2,2000(a1) # 17d0 <.LBB71_5+0x98>
    1bf8:	01ca8683          	lb	a3,28(s5)
    1bfc:	f4d43023          	sd	a3,-192(s0)
    1c00:	027505b3          	mul	a1,a0,t2
    1c04:	f2743023          	sd	t2,-224(s0)
    1c08:	00001637          	lui	a2,0x1
    1c0c:	40c40633          	sub	a2,s0,a2
    1c10:	7d863603          	ld	a2,2008(a2) # 17d8 <.LBB71_5+0xa0>
    1c14:	00c58633          	add	a2,a1,a2
    1c18:	000015b7          	lui	a1,0x1
    1c1c:	40b405b3          	sub	a1,s0,a1
    1c20:	7cc5bc23          	sd	a2,2008(a1) # 17d8 <.LBB71_5+0xa0>
    1c24:	01da8603          	lb	a2,29(s5)
    1c28:	eac43c23          	sd	a2,-328(s0)
    1c2c:	02d505b3          	mul	a1,a0,a3
    1c30:	000016b7          	lui	a3,0x1
    1c34:	40d406b3          	sub	a3,s0,a3
    1c38:	7e06bc03          	ld	s8,2016(a3) # 17e0 <.LBB71_5+0xa8>
    1c3c:	01858c33          	add	s8,a1,s8
    1c40:	000015b7          	lui	a1,0x1
    1c44:	40b405b3          	sub	a1,s0,a1
    1c48:	7f85b023          	sd	s8,2016(a1) # 17e0 <.LBB71_5+0xa8>
    1c4c:	01ea8683          	lb	a3,30(s5)
    1c50:	ead43823          	sd	a3,-336(s0)
    1c54:	02c505b3          	mul	a1,a0,a2
    1c58:	00001637          	lui	a2,0x1
    1c5c:	40c40633          	sub	a2,s0,a2
    1c60:	7e863c03          	ld	s8,2024(a2) # 17e8 <.LBB71_5+0xb0>
    1c64:	01858c33          	add	s8,a1,s8
    1c68:	000015b7          	lui	a1,0x1
    1c6c:	40b405b3          	sub	a1,s0,a1
    1c70:	7f85b423          	sd	s8,2024(a1) # 17e8 <.LBB71_5+0xb0>
    1c74:	01fa8783          	lb	a5,31(s5)
    1c78:	f8843c03          	ld	s8,-120(s0)
    1c7c:	060c0c03          	lb	s8,96(s8)
    1c80:	02d50db3          	mul	s11,a0,a3
    1c84:	000015b7          	lui	a1,0x1
    1c88:	40b405b3          	sub	a1,s0,a1
    1c8c:	7f05bd03          	ld	s10,2032(a1) # 17f0 <.LBB71_5+0xb8>
    1c90:	01ad8d33          	add	s10,s11,s10
    1c94:	000015b7          	lui	a1,0x1
    1c98:	40b405b3          	sub	a1,s0,a1
    1c9c:	7fa5b823          	sd	s10,2032(a1) # 17f0 <.LBB71_5+0xb8>
    1ca0:	02f50533          	mul	a0,a0,a5
    1ca4:	000015b7          	lui	a1,0x1
    1ca8:	40b405b3          	sub	a1,s0,a1
    1cac:	7f85bd03          	ld	s10,2040(a1) # 17f8 <.LBB71_5+0xc0>
    1cb0:	01a50d33          	add	s10,a0,s10
    1cb4:	00001537          	lui	a0,0x1
    1cb8:	40a40533          	sub	a0,s0,a0
    1cbc:	7fa53c23          	sd	s10,2040(a0) # 17f8 <.LBB71_5+0xc0>
    1cc0:	02ec0533          	mul	a0,s8,a4
    1cc4:	81043d03          	ld	s10,-2032(s0)
    1cc8:	01a50d33          	add	s10,a0,s10
    1ccc:	81a43823          	sd	s10,-2032(s0)
    1cd0:	ec843c83          	ld	s9,-312(s0)
    1cd4:	039c0533          	mul	a0,s8,s9
    1cd8:	000015b7          	lui	a1,0x1
    1cdc:	40b405b3          	sub	a1,s0,a1
    1ce0:	7385bd03          	ld	s10,1848(a1) # 1738 <.LBB71_5>
    1ce4:	01a50d33          	add	s10,a0,s10
    1ce8:	00001537          	lui	a0,0x1
    1cec:	40a40533          	sub	a0,s0,a0
    1cf0:	73a53c23          	sd	s10,1848(a0) # 1738 <.LBB71_5>
    1cf4:	f7843a03          	ld	s4,-136(s0)
    1cf8:	034c0533          	mul	a0,s8,s4
    1cfc:	000015b7          	lui	a1,0x1
    1d00:	40b405b3          	sub	a1,s0,a1
    1d04:	7505bd03          	ld	s10,1872(a1) # 1750 <.LBB71_5+0x18>
    1d08:	01a50d33          	add	s10,a0,s10
    1d0c:	00001537          	lui	a0,0x1
    1d10:	40a40533          	sub	a0,s0,a0
    1d14:	75a53823          	sd	s10,1872(a0) # 1750 <.LBB71_5+0x18>
    1d18:	f3843303          	ld	t1,-200(s0)
    1d1c:	026c0533          	mul	a0,s8,t1
    1d20:	000015b7          	lui	a1,0x1
    1d24:	40b405b3          	sub	a1,s0,a1
    1d28:	7885bd03          	ld	s10,1928(a1) # 1788 <.LBB71_5+0x50>
    1d2c:	01a50d33          	add	s10,a0,s10
    1d30:	00001537          	lui	a0,0x1
    1d34:	40a40533          	sub	a0,s0,a0
    1d38:	79a53423          	sd	s10,1928(a0) # 1788 <.LBB71_5+0x50>
    1d3c:	f3043b03          	ld	s6,-208(s0)
    1d40:	036c0533          	mul	a0,s8,s6
    1d44:	81843d03          	ld	s10,-2024(s0)
    1d48:	01a50d33          	add	s10,a0,s10
    1d4c:	81a43c23          	sd	s10,-2024(s0)
    1d50:	021c0533          	mul	a0,s8,ra
    1d54:	82043d03          	ld	s10,-2016(s0)
    1d58:	01a50d33          	add	s10,a0,s10
    1d5c:	83a43023          	sd	s10,-2016(s0)
    1d60:	f8043503          	ld	a0,-128(s0)
    1d64:	02ac0533          	mul	a0,s8,a0
    1d68:	82843d03          	ld	s10,-2008(s0)
    1d6c:	01a50d33          	add	s10,a0,s10
    1d70:	83a43423          	sd	s10,-2008(s0)
    1d74:	f7043b83          	ld	s7,-144(s0)
    1d78:	037c0533          	mul	a0,s8,s7
    1d7c:	83043d03          	ld	s10,-2000(s0)
    1d80:	01a50d33          	add	s10,a0,s10
    1d84:	83a43823          	sd	s10,-2000(s0)
    1d88:	030c0533          	mul	a0,s8,a6
    1d8c:	83843d03          	ld	s10,-1992(s0)
    1d90:	01a50d33          	add	s10,a0,s10
    1d94:	83a43c23          	sd	s10,-1992(s0)
    1d98:	031c0533          	mul	a0,s8,a7
    1d9c:	84843d03          	ld	s10,-1976(s0)
    1da0:	01a50d33          	add	s10,a0,s10
    1da4:	85a43423          	sd	s10,-1976(s0)
    1da8:	f5043683          	ld	a3,-176(s0)
    1dac:	02dc0533          	mul	a0,s8,a3
    1db0:	85043d03          	ld	s10,-1968(s0)
    1db4:	01a50d33          	add	s10,a0,s10
    1db8:	85a43823          	sd	s10,-1968(s0)
    1dbc:	f6843503          	ld	a0,-152(s0)
    1dc0:	02ac0533          	mul	a0,s8,a0
    1dc4:	85843d03          	ld	s10,-1960(s0)
    1dc8:	01a50d33          	add	s10,a0,s10
    1dcc:	85a43c23          	sd	s10,-1960(s0)
    1dd0:	e9843e03          	ld	t3,-360(s0)
    1dd4:	03cc0533          	mul	a0,s8,t3
    1dd8:	86043d03          	ld	s10,-1952(s0)
    1ddc:	01a50d33          	add	s10,a0,s10
    1de0:	87a43023          	sd	s10,-1952(s0)
    1de4:	f2843583          	ld	a1,-216(s0)
    1de8:	02bc0533          	mul	a0,s8,a1
    1dec:	86843d03          	ld	s10,-1944(s0)
    1df0:	01a50d33          	add	s10,a0,s10
    1df4:	87a43423          	sd	s10,-1944(s0)
    1df8:	ef343823          	sd	s3,-272(s0)
    1dfc:	033c0533          	mul	a0,s8,s3
    1e00:	87043d03          	ld	s10,-1936(s0)
    1e04:	01a50d33          	add	s10,a0,s10
    1e08:	87a43823          	sd	s10,-1936(s0)
    1e0c:	efe43c23          	sd	t5,-264(s0)
    1e10:	03ec0533          	mul	a0,s8,t5
    1e14:	87843d03          	ld	s10,-1928(s0)
    1e18:	01a50d33          	add	s10,a0,s10
    1e1c:	87a43c23          	sd	s10,-1928(s0)
    1e20:	025c0533          	mul	a0,s8,t0
    1e24:	88043d03          	ld	s10,-1920(s0)
    1e28:	01a50d33          	add	s10,a0,s10
    1e2c:	89a43023          	sd	s10,-1920(s0)
    1e30:	f1d43023          	sd	t4,-256(s0)
    1e34:	03dc0533          	mul	a0,s8,t4
    1e38:	88843d03          	ld	s10,-1912(s0)
    1e3c:	01a50d33          	add	s10,a0,s10
    1e40:	89a43423          	sd	s10,-1912(s0)
    1e44:	f5843883          	ld	a7,-168(s0)
    1e48:	031c0533          	mul	a0,s8,a7
    1e4c:	89043d03          	ld	s10,-1904(s0)
    1e50:	01a50d33          	add	s10,a0,s10
    1e54:	89a43823          	sd	s10,-1904(s0)
    1e58:	ed043603          	ld	a2,-304(s0)
    1e5c:	02cc0533          	mul	a0,s8,a2
    1e60:	89843d03          	ld	s10,-1896(s0)
    1e64:	01a50d33          	add	s10,a0,s10
    1e68:	89a43c23          	sd	s10,-1896(s0)
    1e6c:	e9043803          	ld	a6,-368(s0)
    1e70:	030c0533          	mul	a0,s8,a6
    1e74:	8a043d03          	ld	s10,-1888(s0)
    1e78:	01a50d33          	add	s10,a0,s10
    1e7c:	8ba43023          	sd	s10,-1888(s0)
    1e80:	032c0533          	mul	a0,s8,s2
    1e84:	8a843d03          	ld	s10,-1880(s0)
    1e88:	01a50d33          	add	s10,a0,s10
    1e8c:	8ba43423          	sd	s10,-1880(s0)
    1e90:	f0843503          	ld	a0,-248(s0)
    1e94:	02ac0533          	mul	a0,s8,a0
    1e98:	8b043d03          	ld	s10,-1872(s0)
    1e9c:	01a50d33          	add	s10,a0,s10
    1ea0:	8ba43823          	sd	s10,-1872(s0)
    1ea4:	ee843903          	ld	s2,-280(s0)
    1ea8:	032c0533          	mul	a0,s8,s2
    1eac:	8b843d03          	ld	s10,-1864(s0)
    1eb0:	01a50d33          	add	s10,a0,s10
    1eb4:	8ba43c23          	sd	s10,-1864(s0)
    1eb8:	f6043503          	ld	a0,-160(s0)
    1ebc:	02ac0533          	mul	a0,s8,a0
    1ec0:	8c043d03          	ld	s10,-1856(s0)
    1ec4:	01a50d33          	add	s10,a0,s10
    1ec8:	8da43023          	sd	s10,-1856(s0)
    1ecc:	029c0533          	mul	a0,s8,s1
    1ed0:	8c843d03          	ld	s10,-1848(s0)
    1ed4:	01a50d33          	add	s10,a0,s10
    1ed8:	8da43423          	sd	s10,-1848(s0)
    1edc:	03fc0533          	mul	a0,s8,t6
    1ee0:	8d043d03          	ld	s10,-1840(s0)
    1ee4:	01a50d33          	add	s10,a0,s10
    1ee8:	8da43823          	sd	s10,-1840(s0)
    1eec:	027c0533          	mul	a0,s8,t2
    1ef0:	8d843d03          	ld	s10,-1832(s0)
    1ef4:	01a50d33          	add	s10,a0,s10
    1ef8:	8da43c23          	sd	s10,-1832(s0)
    1efc:	f4043503          	ld	a0,-192(s0)
    1f00:	02ac0533          	mul	a0,s8,a0
    1f04:	8e043d03          	ld	s10,-1824(s0)
    1f08:	01a50d33          	add	s10,a0,s10
    1f0c:	8fa43023          	sd	s10,-1824(s0)
    1f10:	eb843503          	ld	a0,-328(s0)
    1f14:	02ac0533          	mul	a0,s8,a0
    1f18:	8e843d03          	ld	s10,-1816(s0)
    1f1c:	01a50d33          	add	s10,a0,s10
    1f20:	8fa43423          	sd	s10,-1816(s0)
    1f24:	f8843503          	ld	a0,-120(s0)
    1f28:	0c050503          	lb	a0,192(a0)
    1f2c:	eb043283          	ld	t0,-336(s0)
    1f30:	025c0db3          	mul	s11,s8,t0
    1f34:	8f043d03          	ld	s10,-1808(s0)
    1f38:	01ad8d33          	add	s10,s11,s10
    1f3c:	8fa43823          	sd	s10,-1808(s0)
    1f40:	02fc0c33          	mul	s8,s8,a5
    1f44:	8f843d03          	ld	s10,-1800(s0)
    1f48:	01ac0d33          	add	s10,s8,s10
    1f4c:	8fa43c23          	sd	s10,-1800(s0)
    1f50:	02e50c33          	mul	s8,a0,a4
    1f54:	91843d03          	ld	s10,-1768(s0)
    1f58:	01ac0d33          	add	s10,s8,s10
    1f5c:	91a43c23          	sd	s10,-1768(s0)
    1f60:	03950c33          	mul	s8,a0,s9
    1f64:	000012b7          	lui	t0,0x1
    1f68:	405402b3          	sub	t0,s0,t0
    1f6c:	7302bd03          	ld	s10,1840(t0) # 1730 <.LBB71_4+0x52c>
    1f70:	01ac0d33          	add	s10,s8,s10
    1f74:	000012b7          	lui	t0,0x1
    1f78:	405402b3          	sub	t0,s0,t0
    1f7c:	73a2b823          	sd	s10,1840(t0) # 1730 <.LBB71_4+0x52c>
    1f80:	03450c33          	mul	s8,a0,s4
    1f84:	90843d03          	ld	s10,-1784(s0)
    1f88:	01ac0d33          	add	s10,s8,s10
    1f8c:	91a43423          	sd	s10,-1784(s0)
    1f90:	02650c33          	mul	s8,a0,t1
    1f94:	90043d03          	ld	s10,-1792(s0)
    1f98:	01ac0d33          	add	s10,s8,s10
    1f9c:	91a43023          	sd	s10,-1792(s0)
    1fa0:	03650c33          	mul	s8,a0,s6
    1fa4:	92043d03          	ld	s10,-1760(s0)
    1fa8:	01ac0d33          	add	s10,s8,s10
    1fac:	93a43023          	sd	s10,-1760(s0)
    1fb0:	02150c33          	mul	s8,a0,ra
    1fb4:	00008f93          	mv	t6,ra
    1fb8:	ec143c23          	sd	ra,-296(s0)
    1fbc:	92843d03          	ld	s10,-1752(s0)
    1fc0:	01ac0d33          	add	s10,s8,s10
    1fc4:	93a43423          	sd	s10,-1752(s0)
    1fc8:	f8043083          	ld	ra,-128(s0)
    1fcc:	02150c33          	mul	s8,a0,ra
    1fd0:	93043d03          	ld	s10,-1744(s0)
    1fd4:	01ac0d33          	add	s10,s8,s10
    1fd8:	93a43823          	sd	s10,-1744(s0)
    1fdc:	03750c33          	mul	s8,a0,s7
    1fe0:	93843d03          	ld	s10,-1736(s0)
    1fe4:	01ac0d33          	add	s10,s8,s10
    1fe8:	93a43c23          	sd	s10,-1736(s0)
    1fec:	ec043b83          	ld	s7,-320(s0)
    1ff0:	03750c33          	mul	s8,a0,s7
    1ff4:	94043d03          	ld	s10,-1728(s0)
    1ff8:	01ac0d33          	add	s10,s8,s10
    1ffc:	95a43023          	sd	s10,-1728(s0)
    2000:	e8043303          	ld	t1,-384(s0)
    2004:	02650c33          	mul	s8,a0,t1
    2008:	94843d03          	ld	s10,-1720(s0)
    200c:	01ac0d33          	add	s10,s8,s10
    2010:	95a43423          	sd	s10,-1720(s0)
    2014:	02d50c33          	mul	s8,a0,a3
    2018:	95043d03          	ld	s10,-1712(s0)
    201c:	01ac0d33          	add	s10,s8,s10
    2020:	95a43823          	sd	s10,-1712(s0)
    2024:	f6843383          	ld	t2,-152(s0)
    2028:	02750c33          	mul	s8,a0,t2
    202c:	95843d03          	ld	s10,-1704(s0)
    2030:	01ac0d33          	add	s10,s8,s10
    2034:	95a43c23          	sd	s10,-1704(s0)
    2038:	03c50c33          	mul	s8,a0,t3
    203c:	96043d03          	ld	s10,-1696(s0)
    2040:	01ac0d33          	add	s10,s8,s10
    2044:	97a43023          	sd	s10,-1696(s0)
    2048:	02b50c33          	mul	s8,a0,a1
    204c:	96843d03          	ld	s10,-1688(s0)
    2050:	01ac0d33          	add	s10,s8,s10
    2054:	97a43423          	sd	s10,-1688(s0)
    2058:	03350c33          	mul	s8,a0,s3
    205c:	97043d03          	ld	s10,-1680(s0)
    2060:	01ac0d33          	add	s10,s8,s10
    2064:	97a43823          	sd	s10,-1680(s0)
    2068:	03e50c33          	mul	s8,a0,t5
    206c:	97843d03          	ld	s10,-1672(s0)
    2070:	01ac0d33          	add	s10,s8,s10
    2074:	97a43c23          	sd	s10,-1672(s0)
    2078:	f4843583          	ld	a1,-184(s0)
    207c:	02b50c33          	mul	s8,a0,a1
    2080:	98043d03          	ld	s10,-1664(s0)
    2084:	01ac0d33          	add	s10,s8,s10
    2088:	99a43023          	sd	s10,-1664(s0)
    208c:	03d50c33          	mul	s8,a0,t4
    2090:	98843d03          	ld	s10,-1656(s0)
    2094:	01ac0d33          	add	s10,s8,s10
    2098:	99a43423          	sd	s10,-1656(s0)
    209c:	03150c33          	mul	s8,a0,a7
    20a0:	99043d03          	ld	s10,-1648(s0)
    20a4:	01ac0d33          	add	s10,s8,s10
    20a8:	99a43823          	sd	s10,-1648(s0)
    20ac:	02c50c33          	mul	s8,a0,a2
    20b0:	00060b13          	mv	s6,a2
    20b4:	99843d03          	ld	s10,-1640(s0)
    20b8:	01ac0d33          	add	s10,s8,s10
    20bc:	99a43c23          	sd	s10,-1640(s0)
    20c0:	03050c33          	mul	s8,a0,a6
    20c4:	9a043d03          	ld	s10,-1632(s0)
    20c8:	01ac0d33          	add	s10,s8,s10
    20cc:	9ba43023          	sd	s10,-1632(s0)
    20d0:	e8843a03          	ld	s4,-376(s0)
    20d4:	03450c33          	mul	s8,a0,s4
    20d8:	9a843d03          	ld	s10,-1624(s0)
    20dc:	01ac0d33          	add	s10,s8,s10
    20e0:	9ba43423          	sd	s10,-1624(s0)
    20e4:	f0843603          	ld	a2,-248(s0)
    20e8:	02c50c33          	mul	s8,a0,a2
    20ec:	9b043d03          	ld	s10,-1616(s0)
    20f0:	01ac0d33          	add	s10,s8,s10
    20f4:	9ba43823          	sd	s10,-1616(s0)
    20f8:	00090893          	mv	a7,s2
    20fc:	03250c33          	mul	s8,a0,s2
    2100:	9b843d03          	ld	s10,-1608(s0)
    2104:	01ac0d33          	add	s10,s8,s10
    2108:	9ba43c23          	sd	s10,-1608(s0)
    210c:	f6043903          	ld	s2,-160(s0)
    2110:	03250c33          	mul	s8,a0,s2
    2114:	9c043d03          	ld	s10,-1600(s0)
    2118:	01ac0d33          	add	s10,s8,s10
    211c:	9da43023          	sd	s10,-1600(s0)
    2120:	02950c33          	mul	s8,a0,s1
    2124:	9c843d03          	ld	s10,-1592(s0)
    2128:	01ac0d33          	add	s10,s8,s10
    212c:	9da43423          	sd	s10,-1592(s0)
    2130:	ee043283          	ld	t0,-288(s0)
    2134:	02550c33          	mul	s8,a0,t0
    2138:	9d043d03          	ld	s10,-1584(s0)
    213c:	01ac0d33          	add	s10,s8,s10
    2140:	9da43823          	sd	s10,-1584(s0)
    2144:	f2043583          	ld	a1,-224(s0)
    2148:	02b50c33          	mul	s8,a0,a1
    214c:	9d843d03          	ld	s10,-1576(s0)
    2150:	01ac0d33          	add	s10,s8,s10
    2154:	9da43c23          	sd	s10,-1576(s0)
    2158:	f4043e83          	ld	t4,-192(s0)
    215c:	03d50c33          	mul	s8,a0,t4
    2160:	9e043d03          	ld	s10,-1568(s0)
    2164:	01ac0d33          	add	s10,s8,s10
    2168:	9fa43023          	sd	s10,-1568(s0)
    216c:	eb843f03          	ld	t5,-328(s0)
    2170:	03e50c33          	mul	s8,a0,t5
    2174:	9e843d03          	ld	s10,-1560(s0)
    2178:	01ac0d33          	add	s10,s8,s10
    217c:	9fa43423          	sd	s10,-1560(s0)
    2180:	f8843c03          	ld	s8,-120(s0)
    2184:	120c0c03          	lb	s8,288(s8)
    2188:	eb043983          	ld	s3,-336(s0)
    218c:	03350db3          	mul	s11,a0,s3
    2190:	9f043d03          	ld	s10,-1552(s0)
    2194:	01ad8d33          	add	s10,s11,s10
    2198:	9fa43823          	sd	s10,-1552(s0)
    219c:	02f50533          	mul	a0,a0,a5
    21a0:	e6f43c23          	sd	a5,-392(s0)
    21a4:	9f843d03          	ld	s10,-1544(s0)
    21a8:	01a50d33          	add	s10,a0,s10
    21ac:	9fa43c23          	sd	s10,-1544(s0)
    21b0:	eae43023          	sd	a4,-352(s0)
    21b4:	02ec0533          	mul	a0,s8,a4
    21b8:	a1843d03          	ld	s10,-1512(s0)
    21bc:	01a50d33          	add	s10,a0,s10
    21c0:	a1a43c23          	sd	s10,-1512(s0)
    21c4:	039c0533          	mul	a0,s8,s9
    21c8:	a1043d03          	ld	s10,-1520(s0)
    21cc:	01a50d33          	add	s10,a0,s10
    21d0:	a1a43823          	sd	s10,-1520(s0)
    21d4:	f7843503          	ld	a0,-136(s0)
    21d8:	02ac0533          	mul	a0,s8,a0
    21dc:	a0843d03          	ld	s10,-1528(s0)
    21e0:	01a50d33          	add	s10,a0,s10
    21e4:	a1a43423          	sd	s10,-1528(s0)
    21e8:	f3843583          	ld	a1,-200(s0)
    21ec:	02bc0533          	mul	a0,s8,a1
    21f0:	a0043d03          	ld	s10,-1536(s0)
    21f4:	01a50d33          	add	s10,a0,s10
    21f8:	a1a43023          	sd	s10,-1536(s0)
    21fc:	f3043683          	ld	a3,-208(s0)
    2200:	02dc0533          	mul	a0,s8,a3
    2204:	a2043d03          	ld	s10,-1504(s0)
    2208:	01a50d33          	add	s10,a0,s10
    220c:	a3a43023          	sd	s10,-1504(s0)
    2210:	03fc0533          	mul	a0,s8,t6
    2214:	a2843d03          	ld	s10,-1496(s0)
    2218:	01a50d33          	add	s10,a0,s10
    221c:	a3a43423          	sd	s10,-1496(s0)
    2220:	021c0533          	mul	a0,s8,ra
    2224:	a3043d03          	ld	s10,-1488(s0)
    2228:	01a50d33          	add	s10,a0,s10
    222c:	a3a43823          	sd	s10,-1488(s0)
    2230:	f7043503          	ld	a0,-144(s0)
    2234:	02ac0533          	mul	a0,s8,a0
    2238:	a3843d03          	ld	s10,-1480(s0)
    223c:	01a50d33          	add	s10,a0,s10
    2240:	a3a43c23          	sd	s10,-1480(s0)
    2244:	037c0533          	mul	a0,s8,s7
    2248:	a4043d03          	ld	s10,-1472(s0)
    224c:	01a50d33          	add	s10,a0,s10
    2250:	a5a43023          	sd	s10,-1472(s0)
    2254:	00030093          	mv	ra,t1
    2258:	026c0533          	mul	a0,s8,t1
    225c:	a4843d03          	ld	s10,-1464(s0)
    2260:	01a50d33          	add	s10,a0,s10
    2264:	a5a43423          	sd	s10,-1464(s0)
    2268:	f5043503          	ld	a0,-176(s0)
    226c:	02ac0533          	mul	a0,s8,a0
    2270:	a5043d03          	ld	s10,-1456(s0)
    2274:	01a50d33          	add	s10,a0,s10
    2278:	a5a43823          	sd	s10,-1456(s0)
    227c:	027c0533          	mul	a0,s8,t2
    2280:	a5843d03          	ld	s10,-1448(s0)
    2284:	01a50d33          	add	s10,a0,s10
    2288:	a5a43c23          	sd	s10,-1448(s0)
    228c:	03cc0533          	mul	a0,s8,t3
    2290:	a6043d03          	ld	s10,-1440(s0)
    2294:	01a50d33          	add	s10,a0,s10
    2298:	a7a43023          	sd	s10,-1440(s0)
    229c:	f2843503          	ld	a0,-216(s0)
    22a0:	02ac0533          	mul	a0,s8,a0
    22a4:	a6843d03          	ld	s10,-1432(s0)
    22a8:	01a50d33          	add	s10,a0,s10
    22ac:	a7a43423          	sd	s10,-1432(s0)
    22b0:	ef043503          	ld	a0,-272(s0)
    22b4:	02ac0533          	mul	a0,s8,a0
    22b8:	a7043d03          	ld	s10,-1424(s0)
    22bc:	01a50d33          	add	s10,a0,s10
    22c0:	a7a43823          	sd	s10,-1424(s0)
    22c4:	ef843503          	ld	a0,-264(s0)
    22c8:	02ac0533          	mul	a0,s8,a0
    22cc:	a7843d03          	ld	s10,-1416(s0)
    22d0:	01a50d33          	add	s10,a0,s10
    22d4:	a7a43c23          	sd	s10,-1416(s0)
    22d8:	f4843f83          	ld	t6,-184(s0)
    22dc:	03fc0533          	mul	a0,s8,t6
    22e0:	a8043d03          	ld	s10,-1408(s0)
    22e4:	01a50d33          	add	s10,a0,s10
    22e8:	a9a43023          	sd	s10,-1408(s0)
    22ec:	f0043503          	ld	a0,-256(s0)
    22f0:	02ac0533          	mul	a0,s8,a0
    22f4:	a8843d03          	ld	s10,-1400(s0)
    22f8:	01a50d33          	add	s10,a0,s10
    22fc:	a9a43423          	sd	s10,-1400(s0)
    2300:	f5843503          	ld	a0,-168(s0)
    2304:	02ac0533          	mul	a0,s8,a0
    2308:	a9043d03          	ld	s10,-1392(s0)
    230c:	01a50d33          	add	s10,a0,s10
    2310:	a9a43823          	sd	s10,-1392(s0)
    2314:	036c0533          	mul	a0,s8,s6
    2318:	a9843d03          	ld	s10,-1384(s0)
    231c:	01a50d33          	add	s10,a0,s10
    2320:	a9a43c23          	sd	s10,-1384(s0)
    2324:	030c0533          	mul	a0,s8,a6
    2328:	00080b13          	mv	s6,a6
    232c:	aa043d03          	ld	s10,-1376(s0)
    2330:	01a50d33          	add	s10,a0,s10
    2334:	aba43023          	sd	s10,-1376(s0)
    2338:	034c0533          	mul	a0,s8,s4
    233c:	aa843d03          	ld	s10,-1368(s0)
    2340:	01a50d33          	add	s10,a0,s10
    2344:	aba43423          	sd	s10,-1368(s0)
    2348:	02cc0533          	mul	a0,s8,a2
    234c:	ab043d03          	ld	s10,-1360(s0)
    2350:	01a50d33          	add	s10,a0,s10
    2354:	aba43823          	sd	s10,-1360(s0)
    2358:	031c0533          	mul	a0,s8,a7
    235c:	ab843d03          	ld	s10,-1352(s0)
    2360:	01a50d33          	add	s10,a0,s10
    2364:	aba43c23          	sd	s10,-1352(s0)
    2368:	032c0533          	mul	a0,s8,s2
    236c:	ac043d03          	ld	s10,-1344(s0)
    2370:	01a50d33          	add	s10,a0,s10
    2374:	ada43023          	sd	s10,-1344(s0)
    2378:	00048613          	mv	a2,s1
    237c:	ea943423          	sd	s1,-344(s0)
    2380:	029c0533          	mul	a0,s8,s1
    2384:	ac843d03          	ld	s10,-1336(s0)
    2388:	01a50d33          	add	s10,a0,s10
    238c:	ada43423          	sd	s10,-1336(s0)
    2390:	00028893          	mv	a7,t0
    2394:	025c0533          	mul	a0,s8,t0
    2398:	ad043d03          	ld	s10,-1328(s0)
    239c:	01a50d33          	add	s10,a0,s10
    23a0:	ada43823          	sd	s10,-1328(s0)
    23a4:	f2043503          	ld	a0,-224(s0)
    23a8:	02ac0533          	mul	a0,s8,a0
    23ac:	ad843d03          	ld	s10,-1320(s0)
    23b0:	01a50d33          	add	s10,a0,s10
    23b4:	ada43c23          	sd	s10,-1320(s0)
    23b8:	03dc0533          	mul	a0,s8,t4
    23bc:	ae043d03          	ld	s10,-1312(s0)
    23c0:	01a50d33          	add	s10,a0,s10
    23c4:	afa43023          	sd	s10,-1312(s0)
    23c8:	03ec0533          	mul	a0,s8,t5
    23cc:	ae843d03          	ld	s10,-1304(s0)
    23d0:	01a50d33          	add	s10,a0,s10
    23d4:	afa43423          	sd	s10,-1304(s0)
    23d8:	f8843503          	ld	a0,-120(s0)
    23dc:	18050503          	lb	a0,384(a0)
    23e0:	033c0db3          	mul	s11,s8,s3
    23e4:	80043d03          	ld	s10,-2048(s0)
    23e8:	01ad8d33          	add	s10,s11,s10
    23ec:	81a43023          	sd	s10,-2048(s0)
    23f0:	02fc0c33          	mul	s8,s8,a5
    23f4:	af843d03          	ld	s10,-1288(s0)
    23f8:	01ac0d33          	add	s10,s8,s10
    23fc:	afa43c23          	sd	s10,-1288(s0)
    2400:	02e50c33          	mul	s8,a0,a4
    2404:	b1843d03          	ld	s10,-1256(s0)
    2408:	01ac0d33          	add	s10,s8,s10
    240c:	b1a43c23          	sd	s10,-1256(s0)
    2410:	03950c33          	mul	s8,a0,s9
    2414:	b1043d03          	ld	s10,-1264(s0)
    2418:	01ac0d33          	add	s10,s8,s10
    241c:	b1a43823          	sd	s10,-1264(s0)
    2420:	f7843283          	ld	t0,-136(s0)
    2424:	02550c33          	mul	s8,a0,t0
    2428:	b0843d03          	ld	s10,-1272(s0)
    242c:	01ac0d33          	add	s10,s8,s10
    2430:	b1a43423          	sd	s10,-1272(s0)
    2434:	02b50c33          	mul	s8,a0,a1
    2438:	b0043d03          	ld	s10,-1280(s0)
    243c:	01ac0d33          	add	s10,s8,s10
    2440:	b1a43023          	sd	s10,-1280(s0)
    2444:	02d50c33          	mul	s8,a0,a3
    2448:	b2043d03          	ld	s10,-1248(s0)
    244c:	01ac0d33          	add	s10,s8,s10
    2450:	b3a43023          	sd	s10,-1248(s0)
    2454:	ed843303          	ld	t1,-296(s0)
    2458:	02650c33          	mul	s8,a0,t1
    245c:	b2843d03          	ld	s10,-1240(s0)
    2460:	01ac0d33          	add	s10,s8,s10
    2464:	b3a43423          	sd	s10,-1240(s0)
    2468:	f8043583          	ld	a1,-128(s0)
    246c:	02b50c33          	mul	s8,a0,a1
    2470:	b3043d03          	ld	s10,-1232(s0)
    2474:	01ac0d33          	add	s10,s8,s10
    2478:	b3a43823          	sd	s10,-1232(s0)
    247c:	f7043803          	ld	a6,-144(s0)
    2480:	03050c33          	mul	s8,a0,a6
    2484:	b3843d03          	ld	s10,-1224(s0)
    2488:	01ac0d33          	add	s10,s8,s10
    248c:	b3a43c23          	sd	s10,-1224(s0)
    2490:	03750c33          	mul	s8,a0,s7
    2494:	b4043d03          	ld	s10,-1216(s0)
    2498:	01ac0d33          	add	s10,s8,s10
    249c:	b5a43023          	sd	s10,-1216(s0)
    24a0:	02150c33          	mul	s8,a0,ra
    24a4:	b4843d03          	ld	s10,-1208(s0)
    24a8:	01ac0d33          	add	s10,s8,s10
    24ac:	b5a43423          	sd	s10,-1208(s0)
    24b0:	f5043783          	ld	a5,-176(s0)
    24b4:	02f50c33          	mul	s8,a0,a5
    24b8:	b5043d03          	ld	s10,-1200(s0)
    24bc:	01ac0d33          	add	s10,s8,s10
    24c0:	b5a43823          	sd	s10,-1200(s0)
    24c4:	02750c33          	mul	s8,a0,t2
    24c8:	b5843d03          	ld	s10,-1192(s0)
    24cc:	01ac0d33          	add	s10,s8,s10
    24d0:	b5a43c23          	sd	s10,-1192(s0)
    24d4:	03c50c33          	mul	s8,a0,t3
    24d8:	000e0c93          	mv	s9,t3
    24dc:	b6043d03          	ld	s10,-1184(s0)
    24e0:	01ac0d33          	add	s10,s8,s10
    24e4:	b7a43023          	sd	s10,-1184(s0)
    24e8:	f2843903          	ld	s2,-216(s0)
    24ec:	03250c33          	mul	s8,a0,s2
    24f0:	b6843d03          	ld	s10,-1176(s0)
    24f4:	01ac0d33          	add	s10,s8,s10
    24f8:	b7a43423          	sd	s10,-1176(s0)
    24fc:	ef043583          	ld	a1,-272(s0)
    2500:	02b50c33          	mul	s8,a0,a1
    2504:	b7043d03          	ld	s10,-1168(s0)
    2508:	01ac0d33          	add	s10,s8,s10
    250c:	b7a43823          	sd	s10,-1168(s0)
    2510:	ef843e03          	ld	t3,-264(s0)
    2514:	03c50c33          	mul	s8,a0,t3
    2518:	b7843d03          	ld	s10,-1160(s0)
    251c:	01ac0d33          	add	s10,s8,s10
    2520:	b7a43c23          	sd	s10,-1160(s0)
    2524:	03f50c33          	mul	s8,a0,t6
    2528:	b8043d03          	ld	s10,-1152(s0)
    252c:	01ac0d33          	add	s10,s8,s10
    2530:	b9a43023          	sd	s10,-1152(s0)
    2534:	f0043383          	ld	t2,-256(s0)
    2538:	02750c33          	mul	s8,a0,t2
    253c:	b8843d03          	ld	s10,-1144(s0)
    2540:	01ac0d33          	add	s10,s8,s10
    2544:	b9a43423          	sd	s10,-1144(s0)
    2548:	f5843703          	ld	a4,-168(s0)
    254c:	02e50c33          	mul	s8,a0,a4
    2550:	b9043d03          	ld	s10,-1136(s0)
    2554:	01ac0d33          	add	s10,s8,s10
    2558:	b9a43823          	sd	s10,-1136(s0)
    255c:	ed043f83          	ld	t6,-304(s0)
    2560:	03f50c33          	mul	s8,a0,t6
    2564:	b9843d03          	ld	s10,-1128(s0)
    2568:	01ac0d33          	add	s10,s8,s10
    256c:	b9a43c23          	sd	s10,-1128(s0)
    2570:	03650c33          	mul	s8,a0,s6
    2574:	ba043d03          	ld	s10,-1120(s0)
    2578:	01ac0d33          	add	s10,s8,s10
    257c:	bba43023          	sd	s10,-1120(s0)
    2580:	03450c33          	mul	s8,a0,s4
    2584:	ba843d03          	ld	s10,-1112(s0)
    2588:	01ac0d33          	add	s10,s8,s10
    258c:	bba43423          	sd	s10,-1112(s0)
    2590:	f0843683          	ld	a3,-248(s0)
    2594:	02d50c33          	mul	s8,a0,a3
    2598:	bb043d03          	ld	s10,-1104(s0)
    259c:	01ac0d33          	add	s10,s8,s10
    25a0:	bba43823          	sd	s10,-1104(s0)
    25a4:	ee843483          	ld	s1,-280(s0)
    25a8:	02950c33          	mul	s8,a0,s1
    25ac:	bb843d03          	ld	s10,-1096(s0)
    25b0:	01ac0d33          	add	s10,s8,s10
    25b4:	bba43c23          	sd	s10,-1096(s0)
    25b8:	f6043483          	ld	s1,-160(s0)
    25bc:	02950c33          	mul	s8,a0,s1
    25c0:	bc043d03          	ld	s10,-1088(s0)
    25c4:	01ac0d33          	add	s10,s8,s10
    25c8:	bda43023          	sd	s10,-1088(s0)
    25cc:	02c50c33          	mul	s8,a0,a2
    25d0:	bc843d03          	ld	s10,-1080(s0)
    25d4:	01ac0d33          	add	s10,s8,s10
    25d8:	bda43423          	sd	s10,-1080(s0)
    25dc:	03150c33          	mul	s8,a0,a7
    25e0:	bd043d03          	ld	s10,-1072(s0)
    25e4:	01ac0d33          	add	s10,s8,s10
    25e8:	bda43823          	sd	s10,-1072(s0)
    25ec:	f2043603          	ld	a2,-224(s0)
    25f0:	02c50c33          	mul	s8,a0,a2
    25f4:	bd843d03          	ld	s10,-1064(s0)
    25f8:	01ac0d33          	add	s10,s8,s10
    25fc:	bda43c23          	sd	s10,-1064(s0)
    2600:	03d50c33          	mul	s8,a0,t4
    2604:	af043d03          	ld	s10,-1296(s0)
    2608:	01ac0d33          	add	s10,s8,s10
    260c:	afa43823          	sd	s10,-1296(s0)
    2610:	03e50c33          	mul	s8,a0,t5
    2614:	91043d03          	ld	s10,-1776(s0)
    2618:	01ac0d33          	add	s10,s8,s10
    261c:	91a43823          	sd	s10,-1776(s0)
    2620:	f8843c03          	ld	s8,-120(s0)
    2624:	1e0c0c03          	lb	s8,480(s8)
    2628:	03350db3          	mul	s11,a0,s3
    262c:	80843d03          	ld	s10,-2040(s0)
    2630:	01ad8d33          	add	s10,s11,s10
    2634:	81a43423          	sd	s10,-2040(s0)
    2638:	e7843b83          	ld	s7,-392(s0)
    263c:	03750533          	mul	a0,a0,s7
    2640:	be843d03          	ld	s10,-1048(s0)
    2644:	01a50d33          	add	s10,a0,s10
    2648:	bfa43423          	sd	s10,-1048(s0)
    264c:	ea043483          	ld	s1,-352(s0)
    2650:	029c0533          	mul	a0,s8,s1
    2654:	c1043d03          	ld	s10,-1008(s0)
    2658:	01a50d33          	add	s10,a0,s10
    265c:	c1a43823          	sd	s10,-1008(s0)
    2660:	ec843883          	ld	a7,-312(s0)
    2664:	031c0533          	mul	a0,s8,a7
    2668:	c0843d03          	ld	s10,-1016(s0)
    266c:	01a50d33          	add	s10,a0,s10
    2670:	c1a43423          	sd	s10,-1016(s0)
    2674:	025c0533          	mul	a0,s8,t0
    2678:	c0043d03          	ld	s10,-1024(s0)
    267c:	01a50d33          	add	s10,a0,s10
    2680:	c1a43023          	sd	s10,-1024(s0)
    2684:	f3843283          	ld	t0,-200(s0)
    2688:	025c0533          	mul	a0,s8,t0
    268c:	bf843d03          	ld	s10,-1032(s0)
    2690:	01a50d33          	add	s10,a0,s10
    2694:	bfa43c23          	sd	s10,-1032(s0)
    2698:	f3043e83          	ld	t4,-208(s0)
    269c:	03dc0533          	mul	a0,s8,t4
    26a0:	c1843d03          	ld	s10,-1000(s0)
    26a4:	01a50d33          	add	s10,a0,s10
    26a8:	c1a43c23          	sd	s10,-1000(s0)
    26ac:	026c0533          	mul	a0,s8,t1
    26b0:	c2043d03          	ld	s10,-992(s0)
    26b4:	01a50d33          	add	s10,a0,s10
    26b8:	c3a43023          	sd	s10,-992(s0)
    26bc:	f8043303          	ld	t1,-128(s0)
    26c0:	026c0533          	mul	a0,s8,t1
    26c4:	c2843d03          	ld	s10,-984(s0)
    26c8:	01a50d33          	add	s10,a0,s10
    26cc:	c3a43423          	sd	s10,-984(s0)
    26d0:	030c0533          	mul	a0,s8,a6
    26d4:	c3043d03          	ld	s10,-976(s0)
    26d8:	01a50d33          	add	s10,a0,s10
    26dc:	c3a43823          	sd	s10,-976(s0)
    26e0:	ec043803          	ld	a6,-320(s0)
    26e4:	030c0533          	mul	a0,s8,a6
    26e8:	c3843d03          	ld	s10,-968(s0)
    26ec:	01a50d33          	add	s10,a0,s10
    26f0:	c3a43c23          	sd	s10,-968(s0)
    26f4:	021c0533          	mul	a0,s8,ra
    26f8:	c4043d03          	ld	s10,-960(s0)
    26fc:	01a50d33          	add	s10,a0,s10
    2700:	c5a43023          	sd	s10,-960(s0)
    2704:	02fc0533          	mul	a0,s8,a5
    2708:	c4843d03          	ld	s10,-952(s0)
    270c:	01a50d33          	add	s10,a0,s10
    2710:	c5a43423          	sd	s10,-952(s0)
    2714:	f6843783          	ld	a5,-152(s0)
    2718:	02fc0533          	mul	a0,s8,a5
    271c:	c5043d03          	ld	s10,-944(s0)
    2720:	01a50d33          	add	s10,a0,s10
    2724:	c5a43823          	sd	s10,-944(s0)
    2728:	039c0533          	mul	a0,s8,s9
    272c:	c5843d03          	ld	s10,-936(s0)
    2730:	01a50d33          	add	s10,a0,s10
    2734:	c5a43c23          	sd	s10,-936(s0)
    2738:	032c0533          	mul	a0,s8,s2
    273c:	c6043d03          	ld	s10,-928(s0)
    2740:	01a50d33          	add	s10,a0,s10
    2744:	c7a43023          	sd	s10,-928(s0)
    2748:	02bc0533          	mul	a0,s8,a1
    274c:	c6843d03          	ld	s10,-920(s0)
    2750:	01a50d33          	add	s10,a0,s10
    2754:	c7a43423          	sd	s10,-920(s0)
    2758:	03cc0533          	mul	a0,s8,t3
    275c:	c7043d03          	ld	s10,-912(s0)
    2760:	01a50d33          	add	s10,a0,s10
    2764:	c7a43823          	sd	s10,-912(s0)
    2768:	f4843583          	ld	a1,-184(s0)
    276c:	02bc0533          	mul	a0,s8,a1
    2770:	c7843d03          	ld	s10,-904(s0)
    2774:	01a50d33          	add	s10,a0,s10
    2778:	c7a43c23          	sd	s10,-904(s0)
    277c:	027c0533          	mul	a0,s8,t2
    2780:	c8043d03          	ld	s10,-896(s0)
    2784:	01a50d33          	add	s10,a0,s10
    2788:	c9a43023          	sd	s10,-896(s0)
    278c:	02ec0533          	mul	a0,s8,a4
    2790:	c8843d03          	ld	s10,-888(s0)
    2794:	01a50d33          	add	s10,a0,s10
    2798:	c9a43423          	sd	s10,-888(s0)
    279c:	03fc0533          	mul	a0,s8,t6
    27a0:	c9043d03          	ld	s10,-880(s0)
    27a4:	01a50d33          	add	s10,a0,s10
    27a8:	c9a43823          	sd	s10,-880(s0)
    27ac:	036c0533          	mul	a0,s8,s6
    27b0:	c9843d03          	ld	s10,-872(s0)
    27b4:	01a50d33          	add	s10,a0,s10
    27b8:	c9a43c23          	sd	s10,-872(s0)
    27bc:	034c0533          	mul	a0,s8,s4
    27c0:	000a0713          	mv	a4,s4
    27c4:	ca043d03          	ld	s10,-864(s0)
    27c8:	01a50d33          	add	s10,a0,s10
    27cc:	cba43023          	sd	s10,-864(s0)
    27d0:	02dc0533          	mul	a0,s8,a3
    27d4:	ca843d03          	ld	s10,-856(s0)
    27d8:	01a50d33          	add	s10,a0,s10
    27dc:	cba43423          	sd	s10,-856(s0)
    27e0:	ee843a03          	ld	s4,-280(s0)
    27e4:	034c0533          	mul	a0,s8,s4
    27e8:	cb043d03          	ld	s10,-848(s0)
    27ec:	01a50d33          	add	s10,a0,s10
    27f0:	cba43823          	sd	s10,-848(s0)
    27f4:	f6043b03          	ld	s6,-160(s0)
    27f8:	036c0533          	mul	a0,s8,s6
    27fc:	cb843d03          	ld	s10,-840(s0)
    2800:	01a50d33          	add	s10,a0,s10
    2804:	cba43c23          	sd	s10,-840(s0)
    2808:	ea843503          	ld	a0,-344(s0)
    280c:	02ac0533          	mul	a0,s8,a0
    2810:	cc043d03          	ld	s10,-832(s0)
    2814:	01a50d33          	add	s10,a0,s10
    2818:	cda43023          	sd	s10,-832(s0)
    281c:	ee043503          	ld	a0,-288(s0)
    2820:	02ac0533          	mul	a0,s8,a0
    2824:	cc843d03          	ld	s10,-824(s0)
    2828:	01a50d33          	add	s10,a0,s10
    282c:	cda43423          	sd	s10,-824(s0)
    2830:	02cc0533          	mul	a0,s8,a2
    2834:	cd043d03          	ld	s10,-816(s0)
    2838:	01a50d33          	add	s10,a0,s10
    283c:	cda43823          	sd	s10,-816(s0)
    2840:	f4043503          	ld	a0,-192(s0)
    2844:	02ac0533          	mul	a0,s8,a0
    2848:	cd843d03          	ld	s10,-808(s0)
    284c:	01a50d33          	add	s10,a0,s10
    2850:	cda43c23          	sd	s10,-808(s0)
    2854:	03ec0533          	mul	a0,s8,t5
    2858:	ce043d03          	ld	s10,-800(s0)
    285c:	01a50d33          	add	s10,a0,s10
    2860:	cfa43023          	sd	s10,-800(s0)
    2864:	f8843503          	ld	a0,-120(s0)
    2868:	24050503          	lb	a0,576(a0)
    286c:	033c0db3          	mul	s11,s8,s3
    2870:	ce843d03          	ld	s10,-792(s0)
    2874:	01ad8d33          	add	s10,s11,s10
    2878:	cfa43423          	sd	s10,-792(s0)
    287c:	037c0c33          	mul	s8,s8,s7
    2880:	cf043d03          	ld	s10,-784(s0)
    2884:	01ac0d33          	add	s10,s8,s10
    2888:	cfa43823          	sd	s10,-784(s0)
    288c:	02950c33          	mul	s8,a0,s1
    2890:	d1043d03          	ld	s10,-752(s0)
    2894:	01ac0d33          	add	s10,s8,s10
    2898:	d1a43823          	sd	s10,-752(s0)
    289c:	03150c33          	mul	s8,a0,a7
    28a0:	d0843d03          	ld	s10,-760(s0)
    28a4:	01ac0d33          	add	s10,s8,s10
    28a8:	d1a43423          	sd	s10,-760(s0)
    28ac:	f7843603          	ld	a2,-136(s0)
    28b0:	02c50c33          	mul	s8,a0,a2
    28b4:	d0043d03          	ld	s10,-768(s0)
    28b8:	01ac0d33          	add	s10,s8,s10
    28bc:	d1a43023          	sd	s10,-768(s0)
    28c0:	02550c33          	mul	s8,a0,t0
    28c4:	cf843d03          	ld	s10,-776(s0)
    28c8:	01ac0d33          	add	s10,s8,s10
    28cc:	cfa43c23          	sd	s10,-776(s0)
    28d0:	03d50c33          	mul	s8,a0,t4
    28d4:	d1843d03          	ld	s10,-744(s0)
    28d8:	01ac0d33          	add	s10,s8,s10
    28dc:	d1a43c23          	sd	s10,-744(s0)
    28e0:	ed843603          	ld	a2,-296(s0)
    28e4:	02c50c33          	mul	s8,a0,a2
    28e8:	d2043d03          	ld	s10,-736(s0)
    28ec:	01ac0d33          	add	s10,s8,s10
    28f0:	d3a43023          	sd	s10,-736(s0)
    28f4:	02650c33          	mul	s8,a0,t1
    28f8:	d2843d03          	ld	s10,-728(s0)
    28fc:	01ac0d33          	add	s10,s8,s10
    2900:	d3a43423          	sd	s10,-728(s0)
    2904:	f7043603          	ld	a2,-144(s0)
    2908:	02c50c33          	mul	s8,a0,a2
    290c:	d3043d03          	ld	s10,-720(s0)
    2910:	01ac0d33          	add	s10,s8,s10
    2914:	d3a43823          	sd	s10,-720(s0)
    2918:	03050c33          	mul	s8,a0,a6
    291c:	d3843d03          	ld	s10,-712(s0)
    2920:	01ac0d33          	add	s10,s8,s10
    2924:	d3a43c23          	sd	s10,-712(s0)
    2928:	02150c33          	mul	s8,a0,ra
    292c:	d4043d03          	ld	s10,-704(s0)
    2930:	01ac0d33          	add	s10,s8,s10
    2934:	d5a43023          	sd	s10,-704(s0)
    2938:	f5043c83          	ld	s9,-176(s0)
    293c:	03950c33          	mul	s8,a0,s9
    2940:	d4843d03          	ld	s10,-696(s0)
    2944:	01ac0d33          	add	s10,s8,s10
    2948:	d5a43423          	sd	s10,-696(s0)
    294c:	02f50c33          	mul	s8,a0,a5
    2950:	d5043d03          	ld	s10,-688(s0)
    2954:	01ac0d33          	add	s10,s8,s10
    2958:	d5a43823          	sd	s10,-688(s0)
    295c:	e9843903          	ld	s2,-360(s0)
    2960:	03250c33          	mul	s8,a0,s2
    2964:	d5843d03          	ld	s10,-680(s0)
    2968:	01ac0d33          	add	s10,s8,s10
    296c:	d5a43c23          	sd	s10,-680(s0)
    2970:	f2843f83          	ld	t6,-216(s0)
    2974:	03f50c33          	mul	s8,a0,t6
    2978:	d6043d03          	ld	s10,-672(s0)
    297c:	01ac0d33          	add	s10,s8,s10
    2980:	d7a43023          	sd	s10,-672(s0)
    2984:	ef043e03          	ld	t3,-272(s0)
    2988:	03c50c33          	mul	s8,a0,t3
    298c:	d6843d03          	ld	s10,-664(s0)
    2990:	01ac0d33          	add	s10,s8,s10
    2994:	d7a43423          	sd	s10,-664(s0)
    2998:	ef843383          	ld	t2,-264(s0)
    299c:	02750c33          	mul	s8,a0,t2
    29a0:	d7043d03          	ld	s10,-656(s0)
    29a4:	01ac0d33          	add	s10,s8,s10
    29a8:	d7a43823          	sd	s10,-656(s0)
    29ac:	00058e93          	mv	t4,a1
    29b0:	02b50c33          	mul	s8,a0,a1
    29b4:	d7843d03          	ld	s10,-648(s0)
    29b8:	01ac0d33          	add	s10,s8,s10
    29bc:	d7a43c23          	sd	s10,-648(s0)
    29c0:	f0043303          	ld	t1,-256(s0)
    29c4:	02650c33          	mul	s8,a0,t1
    29c8:	d8043d03          	ld	s10,-640(s0)
    29cc:	01ac0d33          	add	s10,s8,s10
    29d0:	d9a43023          	sd	s10,-640(s0)
    29d4:	f5843803          	ld	a6,-168(s0)
    29d8:	03050c33          	mul	s8,a0,a6
    29dc:	d8843d03          	ld	s10,-632(s0)
    29e0:	01ac0d33          	add	s10,s8,s10
    29e4:	d9a43423          	sd	s10,-632(s0)
    29e8:	ed043783          	ld	a5,-304(s0)
    29ec:	02f50c33          	mul	s8,a0,a5
    29f0:	d9043d03          	ld	s10,-624(s0)
    29f4:	01ac0d33          	add	s10,s8,s10
    29f8:	d9a43823          	sd	s10,-624(s0)
    29fc:	e9043b83          	ld	s7,-368(s0)
    2a00:	03750c33          	mul	s8,a0,s7
    2a04:	d9843d03          	ld	s10,-616(s0)
    2a08:	01ac0d33          	add	s10,s8,s10
    2a0c:	d9a43c23          	sd	s10,-616(s0)
    2a10:	00070893          	mv	a7,a4
    2a14:	02e50c33          	mul	s8,a0,a4
    2a18:	da043d03          	ld	s10,-608(s0)
    2a1c:	01ac0d33          	add	s10,s8,s10
    2a20:	dba43023          	sd	s10,-608(s0)
    2a24:	00068713          	mv	a4,a3
    2a28:	02d50c33          	mul	s8,a0,a3
    2a2c:	da843d03          	ld	s10,-600(s0)
    2a30:	01ac0d33          	add	s10,s8,s10
    2a34:	dba43423          	sd	s10,-600(s0)
    2a38:	000a0693          	mv	a3,s4
    2a3c:	03450c33          	mul	s8,a0,s4
    2a40:	db043d03          	ld	s10,-592(s0)
    2a44:	01ac0d33          	add	s10,s8,s10
    2a48:	dba43823          	sd	s10,-592(s0)
    2a4c:	000b0613          	mv	a2,s6
    2a50:	03650c33          	mul	s8,a0,s6
    2a54:	db843d03          	ld	s10,-584(s0)
    2a58:	01ac0d33          	add	s10,s8,s10
    2a5c:	dba43c23          	sd	s10,-584(s0)
    2a60:	ea843483          	ld	s1,-344(s0)
    2a64:	02950c33          	mul	s8,a0,s1
    2a68:	dc043d03          	ld	s10,-576(s0)
    2a6c:	01ac0d33          	add	s10,s8,s10
    2a70:	dda43023          	sd	s10,-576(s0)
    2a74:	ee043583          	ld	a1,-288(s0)
    2a78:	02b50c33          	mul	s8,a0,a1
    2a7c:	dc843d03          	ld	s10,-568(s0)
    2a80:	01ac0d33          	add	s10,s8,s10
    2a84:	dda43423          	sd	s10,-568(s0)
    2a88:	f2043a03          	ld	s4,-224(s0)
    2a8c:	03450c33          	mul	s8,a0,s4
    2a90:	dd043d03          	ld	s10,-560(s0)
    2a94:	01ac0d33          	add	s10,s8,s10
    2a98:	dda43823          	sd	s10,-560(s0)
    2a9c:	f4043b03          	ld	s6,-192(s0)
    2aa0:	03650c33          	mul	s8,a0,s6
    2aa4:	dd843d03          	ld	s10,-552(s0)
    2aa8:	01ac0d33          	add	s10,s8,s10
    2aac:	dda43c23          	sd	s10,-552(s0)
    2ab0:	03e50c33          	mul	s8,a0,t5
    2ab4:	de043d03          	ld	s10,-544(s0)
    2ab8:	01ac0d33          	add	s10,s8,s10
    2abc:	dfa43023          	sd	s10,-544(s0)
    2ac0:	f8843c03          	ld	s8,-120(s0)
    2ac4:	2a0c0c03          	lb	s8,672(s8)
    2ac8:	03350db3          	mul	s11,a0,s3
    2acc:	de843d03          	ld	s10,-536(s0)
    2ad0:	01ad8d33          	add	s10,s11,s10
    2ad4:	dfa43423          	sd	s10,-536(s0)
    2ad8:	e7843283          	ld	t0,-392(s0)
    2adc:	02550533          	mul	a0,a0,t0
    2ae0:	df043d03          	ld	s10,-528(s0)
    2ae4:	01a50d33          	add	s10,a0,s10
    2ae8:	dfa43823          	sd	s10,-528(s0)
    2aec:	025c0533          	mul	a0,s8,t0
    2af0:	e6a43c23          	sd	a0,-392(s0)
    2af4:	033c0533          	mul	a0,s8,s3
    2af8:	eaa43823          	sd	a0,-336(s0)
    2afc:	03ec0533          	mul	a0,s8,t5
    2b00:	eaa43c23          	sd	a0,-328(s0)
    2b04:	036c0533          	mul	a0,s8,s6
    2b08:	f4a43023          	sd	a0,-192(s0)
    2b0c:	034c0533          	mul	a0,s8,s4
    2b10:	000012b7          	lui	t0,0x1
    2b14:	405402b3          	sub	t0,s0,t0
    2b18:	68a2b023          	sd	a0,1664(t0) # 1680 <.LBB71_4+0x47c>
    2b1c:	02bc0533          	mul	a0,s8,a1
    2b20:	eea43023          	sd	a0,-288(s0)
    2b24:	029c0533          	mul	a0,s8,s1
    2b28:	eaa43423          	sd	a0,-344(s0)
    2b2c:	02cc0533          	mul	a0,s8,a2
    2b30:	000015b7          	lui	a1,0x1
    2b34:	40b405b3          	sub	a1,s0,a1
    2b38:	66a5bc23          	sd	a0,1656(a1) # 1678 <.LBB71_4+0x474>
    2b3c:	02dc0533          	mul	a0,s8,a3
    2b40:	eea43423          	sd	a0,-280(s0)
    2b44:	02ec0533          	mul	a0,s8,a4
    2b48:	f6a43023          	sd	a0,-160(s0)
    2b4c:	031c0533          	mul	a0,s8,a7
    2b50:	f2a43023          	sd	a0,-224(s0)
    2b54:	037c0533          	mul	a0,s8,s7
    2b58:	f0a43423          	sd	a0,-248(s0)
    2b5c:	02fc0b33          	mul	s6,s8,a5
    2b60:	030c0bb3          	mul	s7,s8,a6
    2b64:	026c0f33          	mul	t5,s8,t1
    2b68:	03dc04b3          	mul	s1,s8,t4
    2b6c:	027c02b3          	mul	t0,s8,t2
    2b70:	03cc0eb3          	mul	t4,s8,t3
    2b74:	03fc08b3          	mul	a7,s8,t6
    2b78:	032c06b3          	mul	a3,s8,s2
    2b7c:	f6843503          	ld	a0,-152(s0)
    2b80:	02ac09b3          	mul	s3,s8,a0
    2b84:	039c0a33          	mul	s4,s8,s9
    2b88:	021c03b3          	mul	t2,s8,ra
    2b8c:	ec043503          	ld	a0,-320(s0)
    2b90:	02ac0d33          	mul	s10,s8,a0
    2b94:	f7043503          	ld	a0,-144(s0)
    2b98:	02ac0db3          	mul	s11,s8,a0
    2b9c:	f8043503          	ld	a0,-128(s0)
    2ba0:	02ac0533          	mul	a0,s8,a0
    2ba4:	ed843583          	ld	a1,-296(s0)
    2ba8:	02bc00b3          	mul	ra,s8,a1
    2bac:	f3043583          	ld	a1,-208(s0)
    2bb0:	02bc0633          	mul	a2,s8,a1
    2bb4:	f3843583          	ld	a1,-200(s0)
    2bb8:	02bc0333          	mul	t1,s8,a1
    2bbc:	f7843583          	ld	a1,-136(s0)
    2bc0:	02bc0733          	mul	a4,s8,a1
    2bc4:	ec843583          	ld	a1,-312(s0)
    2bc8:	02bc0833          	mul	a6,s8,a1
    2bcc:	f8843583          	ld	a1,-120(s0)
    2bd0:	00158593          	addi	a1,a1,1
    2bd4:	f8b43423          	sd	a1,-120(s0)
    2bd8:	e1043583          	ld	a1,-496(s0)
    2bdc:	ea043783          	ld	a5,-352(s0)
    2be0:	02fc0c33          	mul	s8,s8,a5
    2be4:	00bc05b3          	add	a1,s8,a1
    2be8:	e4043c03          	ld	s8,-448(s0)
    2bec:	e0843783          	ld	a5,-504(s0)
    2bf0:	00f807b3          	add	a5,a6,a5
    2bf4:	e0f43423          	sd	a5,-504(s0)
    2bf8:	000017b7          	lui	a5,0x1
    2bfc:	40f407b3          	sub	a5,s0,a5
    2c00:	6707b783          	ld	a5,1648(a5) # 1670 <.LBB71_4+0x46c>
    2c04:	e0043803          	ld	a6,-512(s0)
    2c08:	01070833          	add	a6,a4,a6
    2c0c:	e1043023          	sd	a6,-512(s0)
    2c10:	00001737          	lui	a4,0x1
    2c14:	40e40733          	sub	a4,s0,a4
    2c18:	68873703          	ld	a4,1672(a4) # 1688 <.LBB71_4+0x484>
    2c1c:	df843803          	ld	a6,-520(s0)
    2c20:	01030833          	add	a6,t1,a6
    2c24:	df043c23          	sd	a6,-520(s0)
    2c28:	e1843803          	ld	a6,-488(s0)
    2c2c:	01060833          	add	a6,a2,a6
    2c30:	e1043c23          	sd	a6,-488(s0)
    2c34:	00001637          	lui	a2,0x1
    2c38:	40c40633          	sub	a2,s0,a2
    2c3c:	69063603          	ld	a2,1680(a2) # 1690 <.LBB71_4+0x48c>
    2c40:	e2043803          	ld	a6,-480(s0)
    2c44:	01008833          	add	a6,ra,a6
    2c48:	e3043023          	sd	a6,-480(s0)
    2c4c:	00001837          	lui	a6,0x1
    2c50:	41040833          	sub	a6,s0,a6
    2c54:	69883083          	ld	ra,1688(a6) # 1698 <.LBB71_4+0x494>
    2c58:	e2843803          	ld	a6,-472(s0)
    2c5c:	01050833          	add	a6,a0,a6
    2c60:	e3043423          	sd	a6,-472(s0)
    2c64:	e3043503          	ld	a0,-464(s0)
    2c68:	00ad8533          	add	a0,s11,a0
    2c6c:	e2a43823          	sd	a0,-464(s0)
    2c70:	00001537          	lui	a0,0x1
    2c74:	40a40533          	sub	a0,s0,a0
    2c78:	6a053d83          	ld	s11,1696(a0) # 16a0 <.LBB71_4+0x49c>
    2c7c:	e3843503          	ld	a0,-456(s0)
    2c80:	00ad0533          	add	a0,s10,a0
    2c84:	e2a43c23          	sd	a0,-456(s0)
    2c88:	01838c33          	add	s8,t2,s8
    2c8c:	00001537          	lui	a0,0x1
    2c90:	40a40533          	sub	a0,s0,a0
    2c94:	6a853c83          	ld	s9,1704(a0) # 16a8 <.LBB71_4+0x4a4>
    2c98:	e4843503          	ld	a0,-440(s0)
    2c9c:	00aa0533          	add	a0,s4,a0
    2ca0:	e4a43423          	sd	a0,-440(s0)
    2ca4:	84043503          	ld	a0,-1984(s0)
    2ca8:	00a98533          	add	a0,s3,a0
    2cac:	84a43023          	sd	a0,-1984(s0)
    2cb0:	be043503          	ld	a0,-1056(s0)
    2cb4:	00a68533          	add	a0,a3,a0
    2cb8:	bea43023          	sd	a0,-1056(s0)
    2cbc:	00001537          	lui	a0,0x1
    2cc0:	40a40533          	sub	a0,s0,a0
    2cc4:	6b053903          	ld	s2,1712(a0) # 16b0 <.LBB71_4+0x4ac>
    2cc8:	bf043503          	ld	a0,-1040(s0)
    2ccc:	00a88533          	add	a0,a7,a0
    2cd0:	bea43823          	sd	a0,-1040(s0)
    2cd4:	00001537          	lui	a0,0x1
    2cd8:	40a40533          	sub	a0,s0,a0
    2cdc:	6c053f83          	ld	t6,1728(a0) # 16c0 <.LBB71_4+0x4bc>
    2ce0:	e5043503          	ld	a0,-432(s0)
    2ce4:	00ae8533          	add	a0,t4,a0
    2ce8:	e4a43823          	sd	a0,-432(s0)
    2cec:	00001537          	lui	a0,0x1
    2cf0:	40a40533          	sub	a0,s0,a0
    2cf4:	6d053e83          	ld	t4,1744(a0) # 16d0 <.LBB71_4+0x4cc>
    2cf8:	e7043503          	ld	a0,-400(s0)
    2cfc:	00a28533          	add	a0,t0,a0
    2d00:	e6a43823          	sd	a0,-400(s0)
    2d04:	00001537          	lui	a0,0x1
    2d08:	40a40533          	sub	a0,s0,a0
    2d0c:	6d853e03          	ld	t3,1752(a0) # 16d8 <.LBB71_4+0x4d4>
    2d10:	e6843503          	ld	a0,-408(s0)
    2d14:	00a48533          	add	a0,s1,a0
    2d18:	e6a43423          	sd	a0,-408(s0)
    2d1c:	00001537          	lui	a0,0x1
    2d20:	40a40533          	sub	a0,s0,a0
    2d24:	6b853483          	ld	s1,1720(a0) # 16b8 <.LBB71_4+0x4b4>
    2d28:	e5843503          	ld	a0,-424(s0)
    2d2c:	00af0533          	add	a0,t5,a0
    2d30:	e4a43c23          	sd	a0,-424(s0)
    2d34:	00001537          	lui	a0,0x1
    2d38:	40a40533          	sub	a0,s0,a0
    2d3c:	6e053383          	ld	t2,1760(a0) # 16e0 <.LBB71_4+0x4dc>
    2d40:	e6043503          	ld	a0,-416(s0)
    2d44:	00ab8533          	add	a0,s7,a0
    2d48:	e6a43023          	sd	a0,-416(s0)
    2d4c:	00001537          	lui	a0,0x1
    2d50:	40a40533          	sub	a0,s0,a0
    2d54:	6e853303          	ld	t1,1768(a0) # 16e8 <.LBB71_4+0x4e4>
    2d58:	001b00b3          	add	ra,s6,ra
    2d5c:	00001537          	lui	a0,0x1
    2d60:	40a40533          	sub	a0,s0,a0
    2d64:	6c853f03          	ld	t5,1736(a0) # 16c8 <.LBB71_4+0x4c4>
    2d68:	f0843503          	ld	a0,-248(s0)
    2d6c:	01b50db3          	add	s11,a0,s11
    2d70:	f2043503          	ld	a0,-224(s0)
    2d74:	01950cb3          	add	s9,a0,s9
    2d78:	f1043503          	ld	a0,-240(s0)
    2d7c:	f6043683          	ld	a3,-160(s0)
    2d80:	00a68533          	add	a0,a3,a0
    2d84:	f0a43823          	sd	a0,-240(s0)
    2d88:	f1043a03          	ld	s4,-240(s0)
    2d8c:	f1843503          	ld	a0,-232(s0)
    2d90:	ee843683          	ld	a3,-280(s0)
    2d94:	00a68533          	add	a0,a3,a0
    2d98:	f0a43c23          	sd	a0,-232(s0)
    2d9c:	f8843503          	ld	a0,-120(s0)
    2da0:	f1843983          	ld	s3,-232(s0)
    2da4:	000016b7          	lui	a3,0x1
    2da8:	40d406b3          	sub	a3,s0,a3
    2dac:	6786b683          	ld	a3,1656(a3) # 1678 <.LBB71_4+0x474>
    2db0:	01268933          	add	s2,a3,s2
    2db4:	ea843683          	ld	a3,-344(s0)
    2db8:	009684b3          	add	s1,a3,s1
    2dbc:	ee043683          	ld	a3,-288(s0)
    2dc0:	01f68fb3          	add	t6,a3,t6
    2dc4:	000016b7          	lui	a3,0x1
    2dc8:	40d406b3          	sub	a3,s0,a3
    2dcc:	6806b683          	ld	a3,1664(a3) # 1680 <.LBB71_4+0x47c>
    2dd0:	01e68f33          	add	t5,a3,t5
    2dd4:	f4043683          	ld	a3,-192(s0)
    2dd8:	01d68eb3          	add	t4,a3,t4
    2ddc:	eb843683          	ld	a3,-328(s0)
    2de0:	01c68e33          	add	t3,a3,t3
    2de4:	eb043683          	ld	a3,-336(s0)
    2de8:	007683b3          	add	t2,a3,t2
    2dec:	e7843683          	ld	a3,-392(s0)
    2df0:	00668333          	add	t1,a3,t1
    2df4:	240a8a93          	addi	s5,s5,576
    2df8:	00f50463          	beq	a0,a5,2e00 <.LBB71_6>
    2dfc:	93dfe06f          	j	1738 <.LBB71_5>

0000000000002e00 <.LBB71_6>:
    2e00:	00070a93          	mv	s5,a4
    2e04:	00001537          	lui	a0,0x1
    2e08:	40a40533          	sub	a0,s0,a0
    2e0c:	71053b03          	ld	s6,1808(a0) # 1710 <.LBB71_4+0x50c>
    2e10:	00060d13          	mv	s10,a2
    2e14:	00001537          	lui	a0,0x1
    2e18:	40a40533          	sub	a0,s0,a0
    2e1c:	70853283          	ld	t0,1800(a0) # 1708 <.LBB71_4+0x504>
    2e20:	00001537          	lui	a0,0x1
    2e24:	40a40533          	sub	a0,s0,a0
    2e28:	70053b83          	ld	s7,1792(a0) # 1700 <.LBB71_4+0x4fc>
    2e2c:	00001537          	lui	a0,0x1
    2e30:	40a40533          	sub	a0,s0,a0
    2e34:	6f853883          	ld	a7,1784(a0) # 16f8 <.LBB71_4+0x4f4>
    2e38:	00001537          	lui	a0,0x1
    2e3c:	40a40533          	sub	a0,s0,a0
    2e40:	6f053803          	ld	a6,1776(a0) # 16f0 <.LBB71_4+0x4ec>
    2e44:	e0b43823          	sd	a1,-496(s0)
    2e48:	00001537          	lui	a0,0x1
    2e4c:	40a40533          	sub	a0,s0,a0
    2e50:	62853503          	ld	a0,1576(a0) # 1628 <.LBB71_4+0x424>
    2e54:	00251513          	slli	a0,a0,0x2
    2e58:	000015b7          	lui	a1,0x1
    2e5c:	40b405b3          	sub	a1,s0,a1
    2e60:	d105b583          	ld	a1,-752(a1) # d10 <.LBB71_3+0xa94>
    2e64:	00a585b3          	add	a1,a1,a0
    2e68:	00c5a783          	lw	a5,12(a1)
    2e6c:	00001637          	lui	a2,0x1
    2e70:	40c40633          	sub	a2,s0,a2
    2e74:	62063603          	ld	a2,1568(a2) # 1620 <.LBB71_4+0x41c>
    2e78:	00062603          	lw	a2,0(a2)
    2e7c:	000016b7          	lui	a3,0x1
    2e80:	40d406b3          	sub	a3,s0,a3
    2e84:	d086b683          	ld	a3,-760(a3) # d08 <.LBB71_3+0xa8c>
    2e88:	00a68533          	add	a0,a3,a0
    2e8c:	00c52683          	lw	a3,12(a0)
    2e90:	00600713          	li	a4,6
    2e94:	02e60733          	mul	a4,a2,a4
    2e98:	00001637          	lui	a2,0x1
    2e9c:	40c40633          	sub	a2,s0,a2
    2ea0:	6cf63423          	sd	a5,1736(a2) # 16c8 <.LBB71_4+0x4c4>
    2ea4:	00001637          	lui	a2,0x1
    2ea8:	40c40633          	sub	a2,s0,a2
    2eac:	71863603          	ld	a2,1816(a2) # 1718 <.LBB71_4+0x514>
    2eb0:	00f60633          	add	a2,a2,a5
    2eb4:	000017b7          	lui	a5,0x1
    2eb8:	40f407b3          	sub	a5,s0,a5
    2ebc:	6cd7b023          	sd	a3,1728(a5) # 16c0 <.LBB71_4+0x4bc>
    2ec0:	00e686b3          	add	a3,a3,a4
    2ec4:	40d6063b          	subw	a2,a2,a3
    2ec8:	2406061b          	addiw	a2,a2,576
    2ecc:	400006b7          	lui	a3,0x40000
    2ed0:	000017b7          	lui	a5,0x1
    2ed4:	40f407b3          	sub	a5,s0,a5
    2ed8:	e4c7bc23          	sd	a2,-424(a5) # e58 <.LBB71_3+0xbdc>
    2edc:	00065463          	bgez	a2,2ee4 <.LBB71_8>
    2ee0:	c00006b7          	lui	a3,0xc0000

0000000000002ee4 <.LBB71_8>:
    2ee4:	00001637          	lui	a2,0x1
    2ee8:	40c40633          	sub	a2,s0,a2
    2eec:	e2d63c23          	sd	a3,-456(a2) # e38 <.LBB71_3+0xbbc>
    2ef0:	0085a603          	lw	a2,8(a1)
    2ef4:	00852683          	lw	a3,8(a0)
    2ef8:	000017b7          	lui	a5,0x1
    2efc:	40f407b3          	sub	a5,s0,a5
    2f00:	6ac7bc23          	sd	a2,1720(a5) # 16b8 <.LBB71_4+0x4b4>
    2f04:	00ca8633          	add	a2,s5,a2
    2f08:	000017b7          	lui	a5,0x1
    2f0c:	40f407b3          	sub	a5,s0,a5
    2f10:	6ad7b823          	sd	a3,1712(a5) # 16b0 <.LBB71_4+0x4ac>
    2f14:	00e686b3          	add	a3,a3,a4
    2f18:	40d6063b          	subw	a2,a2,a3
    2f1c:	2406061b          	addiw	a2,a2,576
    2f20:	400006b7          	lui	a3,0x40000
    2f24:	000017b7          	lui	a5,0x1
    2f28:	40f407b3          	sub	a5,s0,a5
    2f2c:	e6c7b823          	sd	a2,-400(a5) # e70 <.LBB71_3+0xbf4>
    2f30:	00080793          	mv	a5,a6
    2f34:	00065463          	bgez	a2,2f3c <.LBB71_10>
    2f38:	c00006b7          	lui	a3,0xc0000

0000000000002f3c <.LBB71_10>:
    2f3c:	00001637          	lui	a2,0x1
    2f40:	40c40633          	sub	a2,s0,a2
    2f44:	e4d63823          	sd	a3,-432(a2) # e50 <.LBB71_3+0xbd4>
    2f48:	e5843023          	sd	s8,-448(s0)
    2f4c:	0045a603          	lw	a2,4(a1)
    2f50:	00452683          	lw	a3,4(a0)
    2f54:	00001837          	lui	a6,0x1
    2f58:	41040833          	sub	a6,s0,a6
    2f5c:	6ac83423          	sd	a2,1704(a6) # 16a8 <.LBB71_4+0x4a4>
    2f60:	00cb0633          	add	a2,s6,a2
    2f64:	00001837          	lui	a6,0x1
    2f68:	41040833          	sub	a6,s0,a6
    2f6c:	6ad83023          	sd	a3,1696(a6) # 16a0 <.LBB71_4+0x49c>
    2f70:	00e686b3          	add	a3,a3,a4
    2f74:	40d6063b          	subw	a2,a2,a3
    2f78:	2406061b          	addiw	a2,a2,576
    2f7c:	400006b7          	lui	a3,0x40000
    2f80:	00001837          	lui	a6,0x1
    2f84:	41040833          	sub	a6,s0,a6
    2f88:	e8c83423          	sd	a2,-376(a6) # e88 <.LBB71_3+0xc0c>
    2f8c:	000b8813          	mv	a6,s7
    2f90:	00065463          	bgez	a2,2f98 <.LBB71_12>
    2f94:	c00006b7          	lui	a3,0xc0000

0000000000002f98 <.LBB71_12>:
    2f98:	00001637          	lui	a2,0x1
    2f9c:	40c40633          	sub	a2,s0,a2
    2fa0:	e6d63423          	sd	a3,-408(a2) # e68 <.LBB71_3+0xbec>
    2fa4:	0005a603          	lw	a2,0(a1)
    2fa8:	00052683          	lw	a3,0(a0)
    2fac:	00001ab7          	lui	s5,0x1
    2fb0:	41540ab3          	sub	s5,s0,s5
    2fb4:	68cabc23          	sd	a2,1688(s5) # 1698 <.LBB71_4+0x494>
    2fb8:	00cd0633          	add	a2,s10,a2
    2fbc:	00001ab7          	lui	s5,0x1
    2fc0:	41540ab3          	sub	s5,s0,s5
    2fc4:	68dab823          	sd	a3,1680(s5) # 1690 <.LBB71_4+0x48c>
    2fc8:	00e686b3          	add	a3,a3,a4
    2fcc:	40d6063b          	subw	a2,a2,a3
    2fd0:	2406061b          	addiw	a2,a2,576
    2fd4:	400006b7          	lui	a3,0x40000
    2fd8:	00001ab7          	lui	s5,0x1
    2fdc:	41540ab3          	sub	s5,s0,s5
    2fe0:	cc0abc03          	ld	s8,-832(s5) # cc0 <.LBB71_3+0xa44>
    2fe4:	00001ab7          	lui	s5,0x1
    2fe8:	41540ab3          	sub	s5,s0,s5
    2fec:	618abb83          	ld	s7,1560(s5) # 1618 <.LBB71_4+0x414>
    2ff0:	00001ab7          	lui	s5,0x1
    2ff4:	41540ab3          	sub	s5,s0,s5
    2ff8:	e8cabc23          	sd	a2,-360(s5) # e98 <.LBB71_3+0xc1c>
    2ffc:	00065463          	bgez	a2,3004 <.LBB71_14>
    3000:	c00006b7          	lui	a3,0xc0000

0000000000003004 <.LBB71_14>:
    3004:	00001637          	lui	a2,0x1
    3008:	40c40633          	sub	a2,s0,a2
    300c:	e6d63c23          	sd	a3,-392(a2) # e78 <.LBB71_3+0xbfc>
    3010:	0105a603          	lw	a2,16(a1)
    3014:	01052683          	lw	a3,16(a0)
    3018:	00001ab7          	lui	s5,0x1
    301c:	41540ab3          	sub	s5,s0,s5
    3020:	68cab423          	sd	a2,1672(s5) # 1688 <.LBB71_4+0x484>
    3024:	00c28633          	add	a2,t0,a2
    3028:	000012b7          	lui	t0,0x1
    302c:	405402b3          	sub	t0,s0,t0
    3030:	68d2b023          	sd	a3,1664(t0) # 1680 <.LBB71_4+0x47c>
    3034:	00e686b3          	add	a3,a3,a4
    3038:	40d6063b          	subw	a2,a2,a3
    303c:	2406061b          	addiw	a2,a2,576
    3040:	400006b7          	lui	a3,0x40000
    3044:	000012b7          	lui	t0,0x1
    3048:	405402b3          	sub	t0,s0,t0
    304c:	eac2b823          	sd	a2,-336(t0) # eb0 <.LBB71_3+0xc34>
    3050:	00065463          	bgez	a2,3058 <.LBB71_16>
    3054:	c00006b7          	lui	a3,0xc0000

0000000000003058 <.LBB71_16>:
    3058:	00001637          	lui	a2,0x1
    305c:	40c40633          	sub	a2,s0,a2
    3060:	e8d63823          	sd	a3,-368(a2) # e90 <.LBB71_3+0xc14>
    3064:	0145a603          	lw	a2,20(a1)
    3068:	01452683          	lw	a3,20(a0)
    306c:	000012b7          	lui	t0,0x1
    3070:	405402b3          	sub	t0,s0,t0
    3074:	66c2bc23          	sd	a2,1656(t0) # 1678 <.LBB71_4+0x474>
    3078:	000012b7          	lui	t0,0x1
    307c:	405402b3          	sub	t0,s0,t0
    3080:	7202b283          	ld	t0,1824(t0) # 1720 <.LBB71_4+0x51c>
    3084:	00c28633          	add	a2,t0,a2
    3088:	000012b7          	lui	t0,0x1
    308c:	405402b3          	sub	t0,s0,t0
    3090:	66d2b423          	sd	a3,1640(t0) # 1668 <.LBB71_4+0x464>
    3094:	00e686b3          	add	a3,a3,a4
    3098:	40d6063b          	subw	a2,a2,a3
    309c:	2406061b          	addiw	a2,a2,576
    30a0:	400006b7          	lui	a3,0x40000
    30a4:	000012b7          	lui	t0,0x1
    30a8:	405402b3          	sub	t0,s0,t0
    30ac:	ecc2b423          	sd	a2,-312(t0) # ec8 <.LBB71_3+0xc4c>
    30b0:	00065463          	bgez	a2,30b8 <.LBB71_18>
    30b4:	c00006b7          	lui	a3,0xc0000

00000000000030b8 <.LBB71_18>:
    30b8:	00001637          	lui	a2,0x1
    30bc:	40c40633          	sub	a2,s0,a2
    30c0:	ead63423          	sd	a3,-344(a2) # ea8 <.LBB71_3+0xc2c>
    30c4:	0185a603          	lw	a2,24(a1)
    30c8:	01852683          	lw	a3,24(a0)
    30cc:	000012b7          	lui	t0,0x1
    30d0:	405402b3          	sub	t0,s0,t0
    30d4:	66c2b023          	sd	a2,1632(t0) # 1660 <.LBB71_4+0x45c>
    30d8:	000012b7          	lui	t0,0x1
    30dc:	405402b3          	sub	t0,s0,t0
    30e0:	7282b283          	ld	t0,1832(t0) # 1728 <.LBB71_4+0x524>
    30e4:	00c28633          	add	a2,t0,a2
    30e8:	000012b7          	lui	t0,0x1
    30ec:	405402b3          	sub	t0,s0,t0
    30f0:	64d2bc23          	sd	a3,1624(t0) # 1658 <.LBB71_4+0x454>
    30f4:	00e686b3          	add	a3,a3,a4
    30f8:	40d6063b          	subw	a2,a2,a3
    30fc:	2406061b          	addiw	a2,a2,576
    3100:	400006b7          	lui	a3,0x40000
    3104:	000012b7          	lui	t0,0x1
    3108:	405402b3          	sub	t0,s0,t0
    310c:	ecc2bc23          	sd	a2,-296(t0) # ed8 <.LBB71_3+0xc5c>
    3110:	00065463          	bgez	a2,3118 <.LBB71_20>
    3114:	c00006b7          	lui	a3,0xc0000

0000000000003118 <.LBB71_20>:
    3118:	00001637          	lui	a2,0x1
    311c:	40c40633          	sub	a2,s0,a2
    3120:	ead63c23          	sd	a3,-328(a2) # eb8 <.LBB71_3+0xc3c>
    3124:	01c5a603          	lw	a2,28(a1)
    3128:	01c52683          	lw	a3,28(a0)
    312c:	000012b7          	lui	t0,0x1
    3130:	405402b3          	sub	t0,s0,t0
    3134:	64c2b823          	sd	a2,1616(t0) # 1650 <.LBB71_4+0x44c>
    3138:	00c80633          	add	a2,a6,a2
    313c:	00001837          	lui	a6,0x1
    3140:	41040833          	sub	a6,s0,a6
    3144:	64d83423          	sd	a3,1608(a6) # 1648 <.LBB71_4+0x444>
    3148:	00e686b3          	add	a3,a3,a4
    314c:	40d6063b          	subw	a2,a2,a3
    3150:	2406061b          	addiw	a2,a2,576
    3154:	400006b7          	lui	a3,0x40000
    3158:	00001837          	lui	a6,0x1
    315c:	41040833          	sub	a6,s0,a6
    3160:	eec83823          	sd	a2,-272(a6) # ef0 <.LBB71_3+0xc74>
    3164:	00065463          	bgez	a2,316c <.LBB71_22>
    3168:	c00006b7          	lui	a3,0xc0000

000000000000316c <.LBB71_22>:
    316c:	00001637          	lui	a2,0x1
    3170:	40c40633          	sub	a2,s0,a2
    3174:	ecd63823          	sd	a3,-304(a2) # ed0 <.LBB71_3+0xc54>
    3178:	0205a603          	lw	a2,32(a1)
    317c:	02052683          	lw	a3,32(a0)
    3180:	00001837          	lui	a6,0x1
    3184:	41040833          	sub	a6,s0,a6
    3188:	64c83023          	sd	a2,1600(a6) # 1640 <.LBB71_4+0x43c>
    318c:	00c88633          	add	a2,a7,a2
    3190:	00001837          	lui	a6,0x1
    3194:	41040833          	sub	a6,s0,a6
    3198:	62d83c23          	sd	a3,1592(a6) # 1638 <.LBB71_4+0x434>
    319c:	00e686b3          	add	a3,a3,a4
    31a0:	40d6063b          	subw	a2,a2,a3
    31a4:	2406061b          	addiw	a2,a2,576
    31a8:	400006b7          	lui	a3,0x40000
    31ac:	00001837          	lui	a6,0x1
    31b0:	41040833          	sub	a6,s0,a6
    31b4:	f0c83023          	sd	a2,-256(a6) # f00 <.LBB71_3+0xc84>
    31b8:	00065463          	bgez	a2,31c0 <.LBB71_24>
    31bc:	c00006b7          	lui	a3,0xc0000

00000000000031c0 <.LBB71_24>:
    31c0:	00001637          	lui	a2,0x1
    31c4:	40c40633          	sub	a2,s0,a2
    31c8:	eed63423          	sd	a3,-280(a2) # ee8 <.LBB71_3+0xc6c>
    31cc:	0245a803          	lw	a6,36(a1)
    31d0:	0285a603          	lw	a2,40(a1)
    31d4:	000016b7          	lui	a3,0x1
    31d8:	40d406b3          	sub	a3,s0,a3
    31dc:	6ec6bc23          	sd	a2,1784(a3) # 16f8 <.LBB71_4+0x4f4>
    31e0:	02c5a603          	lw	a2,44(a1)
    31e4:	000016b7          	lui	a3,0x1
    31e8:	40d406b3          	sub	a3,s0,a3
    31ec:	70c6b423          	sd	a2,1800(a3) # 1708 <.LBB71_4+0x504>
    31f0:	0305a603          	lw	a2,48(a1)
    31f4:	000016b7          	lui	a3,0x1
    31f8:	40d406b3          	sub	a3,s0,a3
    31fc:	70c6bc23          	sd	a2,1816(a3) # 1718 <.LBB71_4+0x514>
    3200:	0345a603          	lw	a2,52(a1)
    3204:	000016b7          	lui	a3,0x1
    3208:	40d406b3          	sub	a3,s0,a3
    320c:	72c6b423          	sd	a2,1832(a3) # 1728 <.LBB71_4+0x524>
    3210:	0385a603          	lw	a2,56(a1)
    3214:	e8c43023          	sd	a2,-384(s0)
    3218:	03c5a603          	lw	a2,60(a1)
    321c:	e8c43823          	sd	a2,-368(s0)
    3220:	0405a603          	lw	a2,64(a1)
    3224:	eac43023          	sd	a2,-352(s0)
    3228:	0445a603          	lw	a2,68(a1)
    322c:	eac43823          	sd	a2,-336(s0)
    3230:	0485a603          	lw	a2,72(a1)
    3234:	ecc43023          	sd	a2,-320(s0)
    3238:	04c5a603          	lw	a2,76(a1)
    323c:	ecc43823          	sd	a2,-304(s0)
    3240:	0505a603          	lw	a2,80(a1)
    3244:	eec43023          	sd	a2,-288(s0)
    3248:	0545a603          	lw	a2,84(a1)
    324c:	eec43823          	sd	a2,-272(s0)
    3250:	0585a603          	lw	a2,88(a1)
    3254:	f0c43023          	sd	a2,-256(s0)
    3258:	05c5a603          	lw	a2,92(a1)
    325c:	f2c43023          	sd	a2,-224(s0)
    3260:	0605a603          	lw	a2,96(a1)
    3264:	f2c43823          	sd	a2,-208(s0)
    3268:	0645a603          	lw	a2,100(a1)
    326c:	f4c43023          	sd	a2,-192(s0)
    3270:	0685a603          	lw	a2,104(a1)
    3274:	f4c43823          	sd	a2,-176(s0)
    3278:	06c5a603          	lw	a2,108(a1)
    327c:	f6c43023          	sd	a2,-160(s0)
    3280:	0705a603          	lw	a2,112(a1)
    3284:	f6c43823          	sd	a2,-144(s0)
    3288:	0745a603          	lw	a2,116(a1)
    328c:	f6c43c23          	sd	a2,-136(s0)
    3290:	0785a603          	lw	a2,120(a1)
    3294:	f8c43023          	sd	a2,-128(s0)
    3298:	07c5a583          	lw	a1,124(a1)
    329c:	f8b43423          	sd	a1,-120(s0)
    32a0:	02452603          	lw	a2,36(a0)
    32a4:	02852583          	lw	a1,40(a0)
    32a8:	000016b7          	lui	a3,0x1
    32ac:	40d406b3          	sub	a3,s0,a3
    32b0:	6cb6b823          	sd	a1,1744(a3) # 16d0 <.LBB71_4+0x4cc>
    32b4:	02c52583          	lw	a1,44(a0)
    32b8:	000016b7          	lui	a3,0x1
    32bc:	40d406b3          	sub	a3,s0,a3
    32c0:	6cb6bc23          	sd	a1,1752(a3) # 16d8 <.LBB71_4+0x4d4>
    32c4:	03052583          	lw	a1,48(a0)
    32c8:	000016b7          	lui	a3,0x1
    32cc:	40d406b3          	sub	a3,s0,a3
    32d0:	6eb6b023          	sd	a1,1760(a3) # 16e0 <.LBB71_4+0x4dc>
    32d4:	03452583          	lw	a1,52(a0)
    32d8:	000016b7          	lui	a3,0x1
    32dc:	40d406b3          	sub	a3,s0,a3
    32e0:	6eb6b423          	sd	a1,1768(a3) # 16e8 <.LBB71_4+0x4e4>
    32e4:	03852583          	lw	a1,56(a0)
    32e8:	000016b7          	lui	a3,0x1
    32ec:	40d406b3          	sub	a3,s0,a3
    32f0:	70b6b023          	sd	a1,1792(a3) # 1700 <.LBB71_4+0x4fc>
    32f4:	03c52583          	lw	a1,60(a0)
    32f8:	000016b7          	lui	a3,0x1
    32fc:	40d406b3          	sub	a3,s0,a3
    3300:	70b6b823          	sd	a1,1808(a3) # 1710 <.LBB71_4+0x50c>
    3304:	04052583          	lw	a1,64(a0)
    3308:	000016b7          	lui	a3,0x1
    330c:	40d406b3          	sub	a3,s0,a3
    3310:	72b6b023          	sd	a1,1824(a3) # 1720 <.LBB71_4+0x51c>
    3314:	04452583          	lw	a1,68(a0)
    3318:	e6b43c23          	sd	a1,-392(s0)
    331c:	04852583          	lw	a1,72(a0)
    3320:	e8b43423          	sd	a1,-376(s0)
    3324:	04c52583          	lw	a1,76(a0)
    3328:	e8b43c23          	sd	a1,-360(s0)
    332c:	05052583          	lw	a1,80(a0)
    3330:	eab43423          	sd	a1,-344(s0)
    3334:	05452583          	lw	a1,84(a0)
    3338:	eab43c23          	sd	a1,-328(s0)
    333c:	05852583          	lw	a1,88(a0)
    3340:	ecb43423          	sd	a1,-312(s0)
    3344:	05c52583          	lw	a1,92(a0)
    3348:	ecb43c23          	sd	a1,-296(s0)
    334c:	06052583          	lw	a1,96(a0)
    3350:	eeb43423          	sd	a1,-280(s0)
    3354:	06452583          	lw	a1,100(a0)
    3358:	eeb43c23          	sd	a1,-264(s0)
    335c:	06852583          	lw	a1,104(a0)
    3360:	f0b43423          	sd	a1,-248(s0)
    3364:	06c52583          	lw	a1,108(a0)
    3368:	f2b43423          	sd	a1,-216(s0)
    336c:	07052583          	lw	a1,112(a0)
    3370:	f2b43c23          	sd	a1,-200(s0)
    3374:	07452583          	lw	a1,116(a0)
    3378:	f4b43423          	sd	a1,-184(s0)
    337c:	07852583          	lw	a1,120(a0)
    3380:	f4b43c23          	sd	a1,-168(s0)
    3384:	07c52503          	lw	a0,124(a0)
    3388:	f6a43423          	sd	a0,-152(s0)
    338c:	00001537          	lui	a0,0x1
    3390:	40a40533          	sub	a0,s0,a0
    3394:	63053823          	sd	a6,1584(a0) # 1630 <.LBB71_4+0x42c>
    3398:	01078833          	add	a6,a5,a6
    339c:	00001537          	lui	a0,0x1
    33a0:	40a40533          	sub	a0,s0,a0
    33a4:	62053883          	ld	a7,1568(a0) # 1620 <.LBB71_4+0x41c>
    33a8:	0048a783          	lw	a5,4(a7)
    33ac:	0088a683          	lw	a3,8(a7)
    33b0:	00c8a503          	lw	a0,12(a7)
    33b4:	0108a583          	lw	a1,16(a7)
    33b8:	000012b7          	lui	t0,0x1
    33bc:	405402b3          	sub	t0,s0,t0
    33c0:	60b2b423          	sd	a1,1544(t0) # 1608 <.LBB71_4+0x404>
    33c4:	0148a583          	lw	a1,20(a7)
    33c8:	000012b7          	lui	t0,0x1
    33cc:	405402b3          	sub	t0,s0,t0
    33d0:	d2b2b023          	sd	a1,-736(t0) # d20 <.LBB71_3+0xaa4>
    33d4:	0188a583          	lw	a1,24(a7)
    33d8:	000012b7          	lui	t0,0x1
    33dc:	405402b3          	sub	t0,s0,t0
    33e0:	d2b2b423          	sd	a1,-728(t0) # d28 <.LBB71_3+0xaac>
    33e4:	01c8a883          	lw	a7,28(a7)
    33e8:	000015b7          	lui	a1,0x1
    33ec:	40b405b3          	sub	a1,s0,a1
    33f0:	d315b823          	sd	a7,-720(a1) # d30 <.LBB71_3+0xab4>
    33f4:	000015b7          	lui	a1,0x1
    33f8:	40b405b3          	sub	a1,s0,a1
    33fc:	6ec5b823          	sd	a2,1776(a1) # 16f0 <.LBB71_4+0x4ec>
    3400:	00e608b3          	add	a7,a2,a4
    3404:	4118083b          	subw	a6,a6,a7
    3408:	2408081b          	addiw	a6,a6,576
    340c:	400008b7          	lui	a7,0x40000
    3410:	000015b7          	lui	a1,0x1
    3414:	40b405b3          	sub	a1,s0,a1
    3418:	d505b023          	sd	a6,-704(a1) # d40 <.LBB71_3+0xac4>
    341c:	00085463          	bgez	a6,3424 <.LBB71_26>
    3420:	c00008b7          	lui	a7,0xc0000

0000000000003424 <.LBB71_26>:
    3424:	000015b7          	lui	a1,0x1
    3428:	40b405b3          	sub	a1,s0,a1
    342c:	d315bc23          	sd	a7,-712(a1) # d38 <.LBB71_3+0xabc>
    3430:	000015b7          	lui	a1,0x1
    3434:	40b405b3          	sub	a1,s0,a1
    3438:	6f85b803          	ld	a6,1784(a1) # 16f8 <.LBB71_4+0x4f4>
    343c:	000015b7          	lui	a1,0x1
    3440:	40b405b3          	sub	a1,s0,a1
    3444:	7485b583          	ld	a1,1864(a1) # 1748 <.LBB71_5+0x10>
    3448:	01058833          	add	a6,a1,a6
    344c:	000015b7          	lui	a1,0x1
    3450:	40b405b3          	sub	a1,s0,a1
    3454:	6d05b883          	ld	a7,1744(a1) # 16d0 <.LBB71_4+0x4cc>
    3458:	00e888b3          	add	a7,a7,a4
    345c:	4118083b          	subw	a6,a6,a7
    3460:	2408081b          	addiw	a6,a6,576
    3464:	400008b7          	lui	a7,0x40000
    3468:	000015b7          	lui	a1,0x1
    346c:	40b405b3          	sub	a1,s0,a1
    3470:	d505b823          	sd	a6,-688(a1) # d50 <.LBB71_3+0xad4>
    3474:	000015b7          	lui	a1,0x1
    3478:	40b405b3          	sub	a1,s0,a1
    347c:	7305b603          	ld	a2,1840(a1) # 1730 <.LBB71_4+0x52c>
    3480:	000015b7          	lui	a1,0x1
    3484:	40b405b3          	sub	a1,s0,a1
    3488:	7405b583          	ld	a1,1856(a1) # 1740 <.LBB71_5+0x8>
    348c:	00085463          	bgez	a6,3494 <.LBB71_28>
    3490:	c00008b7          	lui	a7,0xc0000

0000000000003494 <.LBB71_28>:
    3494:	00001837          	lui	a6,0x1
    3498:	41040833          	sub	a6,s0,a6
    349c:	d5183423          	sd	a7,-696(a6) # d48 <.LBB71_3+0xacc>
    34a0:	00001837          	lui	a6,0x1
    34a4:	41040833          	sub	a6,s0,a6
    34a8:	70883803          	ld	a6,1800(a6) # 1708 <.LBB71_4+0x504>
    34ac:	000018b7          	lui	a7,0x1
    34b0:	411408b3          	sub	a7,s0,a7
    34b4:	7588b883          	ld	a7,1880(a7) # 1758 <.LBB71_5+0x20>
    34b8:	01088833          	add	a6,a7,a6
    34bc:	000018b7          	lui	a7,0x1
    34c0:	411408b3          	sub	a7,s0,a7
    34c4:	6d88b883          	ld	a7,1752(a7) # 16d8 <.LBB71_4+0x4d4>
    34c8:	00e888b3          	add	a7,a7,a4
    34cc:	4118083b          	subw	a6,a6,a7
    34d0:	2408081b          	addiw	a6,a6,576
    34d4:	400008b7          	lui	a7,0x40000
    34d8:	000012b7          	lui	t0,0x1
    34dc:	405402b3          	sub	t0,s0,t0
    34e0:	d702b023          	sd	a6,-672(t0) # d60 <.LBB71_3+0xae4>
    34e4:	000012b7          	lui	t0,0x1
    34e8:	405402b3          	sub	t0,s0,t0
    34ec:	7382bd03          	ld	s10,1848(t0) # 1738 <.LBB71_5>
    34f0:	000012b7          	lui	t0,0x1
    34f4:	405402b3          	sub	t0,s0,t0
    34f8:	7682ba83          	ld	s5,1896(t0) # 1768 <.LBB71_5+0x30>
    34fc:	00085463          	bgez	a6,3504 <.LBB71_30>
    3500:	c00008b7          	lui	a7,0xc0000

0000000000003504 <.LBB71_30>:
    3504:	00001837          	lui	a6,0x1
    3508:	41040833          	sub	a6,s0,a6
    350c:	d5183c23          	sd	a7,-680(a6) # d58 <.LBB71_3+0xadc>
    3510:	00001837          	lui	a6,0x1
    3514:	41040833          	sub	a6,s0,a6
    3518:	71883803          	ld	a6,1816(a6) # 1718 <.LBB71_4+0x514>
    351c:	000018b7          	lui	a7,0x1
    3520:	411408b3          	sub	a7,s0,a7
    3524:	7608b883          	ld	a7,1888(a7) # 1760 <.LBB71_5+0x28>
    3528:	01088833          	add	a6,a7,a6
    352c:	000018b7          	lui	a7,0x1
    3530:	411408b3          	sub	a7,s0,a7
    3534:	6e08b883          	ld	a7,1760(a7) # 16e0 <.LBB71_4+0x4dc>
    3538:	00e888b3          	add	a7,a7,a4
    353c:	4118083b          	subw	a6,a6,a7
    3540:	2408081b          	addiw	a6,a6,576
    3544:	400008b7          	lui	a7,0x40000
    3548:	000012b7          	lui	t0,0x1
    354c:	405402b3          	sub	t0,s0,t0
    3550:	d702b823          	sd	a6,-656(t0) # d70 <.LBB71_3+0xaf4>
    3554:	000012b7          	lui	t0,0x1
    3558:	405402b3          	sub	t0,s0,t0
    355c:	7502b283          	ld	t0,1872(t0) # 1750 <.LBB71_5+0x18>
    3560:	00085463          	bgez	a6,3568 <.LBB71_32>
    3564:	c00008b7          	lui	a7,0xc0000

0000000000003568 <.LBB71_32>:
    3568:	00001837          	lui	a6,0x1
    356c:	41040833          	sub	a6,s0,a6
    3570:	d7183423          	sd	a7,-664(a6) # d68 <.LBB71_3+0xaec>
    3574:	00001837          	lui	a6,0x1
    3578:	41040833          	sub	a6,s0,a6
    357c:	72883803          	ld	a6,1832(a6) # 1728 <.LBB71_4+0x524>
    3580:	010a8833          	add	a6,s5,a6
    3584:	000018b7          	lui	a7,0x1
    3588:	411408b3          	sub	a7,s0,a7
    358c:	6e88b883          	ld	a7,1768(a7) # 16e8 <.LBB71_4+0x4e4>
    3590:	00e888b3          	add	a7,a7,a4
    3594:	4118083b          	subw	a6,a6,a7
    3598:	2408081b          	addiw	a6,a6,576
    359c:	400008b7          	lui	a7,0x40000
    35a0:	00001ab7          	lui	s5,0x1
    35a4:	41540ab3          	sub	s5,s0,s5
    35a8:	d90ab023          	sd	a6,-640(s5) # d80 <.LBB71_3+0xb04>
    35ac:	00001ab7          	lui	s5,0x1
    35b0:	41540ab3          	sub	s5,s0,s5
    35b4:	788abb03          	ld	s6,1928(s5) # 1788 <.LBB71_5+0x50>
    35b8:	00001ab7          	lui	s5,0x1
    35bc:	41540ab3          	sub	s5,s0,s5
    35c0:	7f8aba83          	ld	s5,2040(s5) # 17f8 <.LBB71_5+0xc0>
    35c4:	00085463          	bgez	a6,35cc <.LBB71_34>
    35c8:	c00008b7          	lui	a7,0xc0000

00000000000035cc <.LBB71_34>:
    35cc:	f8a43823          	sd	a0,-112(s0)
    35d0:	00001537          	lui	a0,0x1
    35d4:	40a40533          	sub	a0,s0,a0
    35d8:	d7153c23          	sd	a7,-648(a0) # d78 <.LBB71_3+0xafc>
    35dc:	e8043803          	ld	a6,-384(s0)
    35e0:	00001537          	lui	a0,0x1
    35e4:	40a40533          	sub	a0,s0,a0
    35e8:	77053883          	ld	a7,1904(a0) # 1770 <.LBB71_5+0x38>
    35ec:	01088833          	add	a6,a7,a6
    35f0:	00001537          	lui	a0,0x1
    35f4:	40a40533          	sub	a0,s0,a0
    35f8:	70053883          	ld	a7,1792(a0) # 1700 <.LBB71_4+0x4fc>
    35fc:	00e888b3          	add	a7,a7,a4
    3600:	4118083b          	subw	a6,a6,a7
    3604:	2408081b          	addiw	a6,a6,576
    3608:	400008b7          	lui	a7,0x40000
    360c:	00001537          	lui	a0,0x1
    3610:	40a40533          	sub	a0,s0,a0
    3614:	d9053823          	sd	a6,-624(a0) # d90 <.LBB71_3+0xb14>
    3618:	f9043503          	ld	a0,-112(s0)
    361c:	00085463          	bgez	a6,3624 <.LBB71_36>
    3620:	c00008b7          	lui	a7,0xc0000

0000000000003624 <.LBB71_36>:
    3624:	f8a43823          	sd	a0,-112(s0)
    3628:	00001537          	lui	a0,0x1
    362c:	40a40533          	sub	a0,s0,a0
    3630:	d9153423          	sd	a7,-632(a0) # d88 <.LBB71_3+0xb0c>
    3634:	e9043803          	ld	a6,-368(s0)
    3638:	00001537          	lui	a0,0x1
    363c:	40a40533          	sub	a0,s0,a0
    3640:	77853883          	ld	a7,1912(a0) # 1778 <.LBB71_5+0x40>
    3644:	01088833          	add	a6,a7,a6
    3648:	00001537          	lui	a0,0x1
    364c:	40a40533          	sub	a0,s0,a0
    3650:	71053883          	ld	a7,1808(a0) # 1710 <.LBB71_4+0x50c>
    3654:	00e888b3          	add	a7,a7,a4
    3658:	4118083b          	subw	a6,a6,a7
    365c:	2408081b          	addiw	a6,a6,576
    3660:	400008b7          	lui	a7,0x40000
    3664:	00001537          	lui	a0,0x1
    3668:	40a40533          	sub	a0,s0,a0
    366c:	db053023          	sd	a6,-608(a0) # da0 <.LBB71_3+0xb24>
    3670:	f9043503          	ld	a0,-112(s0)
    3674:	00085463          	bgez	a6,367c <.LBB71_38>
    3678:	c00008b7          	lui	a7,0xc0000

000000000000367c <.LBB71_38>:
    367c:	f8a43823          	sd	a0,-112(s0)
    3680:	00001537          	lui	a0,0x1
    3684:	40a40533          	sub	a0,s0,a0
    3688:	d9153c23          	sd	a7,-616(a0) # d98 <.LBB71_3+0xb1c>
    368c:	ea043803          	ld	a6,-352(s0)
    3690:	00001537          	lui	a0,0x1
    3694:	40a40533          	sub	a0,s0,a0
    3698:	78053883          	ld	a7,1920(a0) # 1780 <.LBB71_5+0x48>
    369c:	01088833          	add	a6,a7,a6
    36a0:	00001537          	lui	a0,0x1
    36a4:	40a40533          	sub	a0,s0,a0
    36a8:	72053883          	ld	a7,1824(a0) # 1720 <.LBB71_4+0x51c>
    36ac:	00e888b3          	add	a7,a7,a4
    36b0:	4118083b          	subw	a6,a6,a7
    36b4:	2408081b          	addiw	a6,a6,576
    36b8:	400008b7          	lui	a7,0x40000
    36bc:	00001537          	lui	a0,0x1
    36c0:	40a40533          	sub	a0,s0,a0
    36c4:	db053823          	sd	a6,-592(a0) # db0 <.LBB71_3+0xb34>
    36c8:	f9043503          	ld	a0,-112(s0)
    36cc:	00085463          	bgez	a6,36d4 <.LBB71_40>
    36d0:	c00008b7          	lui	a7,0xc0000

00000000000036d4 <.LBB71_40>:
    36d4:	00001837          	lui	a6,0x1
    36d8:	41040833          	sub	a6,s0,a6
    36dc:	db183423          	sd	a7,-600(a6) # da8 <.LBB71_3+0xb2c>
    36e0:	eb043803          	ld	a6,-336(s0)
    36e4:	01058833          	add	a6,a1,a6
    36e8:	e7843883          	ld	a7,-392(s0)
    36ec:	00e888b3          	add	a7,a7,a4
    36f0:	4118083b          	subw	a6,a6,a7
    36f4:	2408081b          	addiw	a6,a6,576
    36f8:	400008b7          	lui	a7,0x40000
    36fc:	000015b7          	lui	a1,0x1
    3700:	40b405b3          	sub	a1,s0,a1
    3704:	dd05b023          	sd	a6,-576(a1) # dc0 <.LBB71_3+0xb44>
    3708:	00085463          	bgez	a6,3710 <.LBB71_42>
    370c:	c00008b7          	lui	a7,0xc0000

0000000000003710 <.LBB71_42>:
    3710:	000015b7          	lui	a1,0x1
    3714:	40b405b3          	sub	a1,s0,a1
    3718:	db15bc23          	sd	a7,-584(a1) # db8 <.LBB71_3+0xb3c>
    371c:	ec043803          	ld	a6,-320(s0)
    3720:	000015b7          	lui	a1,0x1
    3724:	40b405b3          	sub	a1,s0,a1
    3728:	7905b883          	ld	a7,1936(a1) # 1790 <.LBB71_5+0x58>
    372c:	01088833          	add	a6,a7,a6
    3730:	e8843883          	ld	a7,-376(s0)
    3734:	00e888b3          	add	a7,a7,a4
    3738:	4118083b          	subw	a6,a6,a7
    373c:	2408081b          	addiw	a6,a6,576
    3740:	400008b7          	lui	a7,0x40000
    3744:	000015b7          	lui	a1,0x1
    3748:	40b405b3          	sub	a1,s0,a1
    374c:	dd05b823          	sd	a6,-560(a1) # dd0 <.LBB71_3+0xb54>
    3750:	00085463          	bgez	a6,3758 <.LBB71_44>
    3754:	c00008b7          	lui	a7,0xc0000

0000000000003758 <.LBB71_44>:
    3758:	000015b7          	lui	a1,0x1
    375c:	40b405b3          	sub	a1,s0,a1
    3760:	dd15b423          	sd	a7,-568(a1) # dc8 <.LBB71_3+0xb4c>
    3764:	ed043803          	ld	a6,-304(s0)
    3768:	000015b7          	lui	a1,0x1
    376c:	40b405b3          	sub	a1,s0,a1
    3770:	7985b883          	ld	a7,1944(a1) # 1798 <.LBB71_5+0x60>
    3774:	01088833          	add	a6,a7,a6
    3778:	e9843883          	ld	a7,-360(s0)
    377c:	00e888b3          	add	a7,a7,a4
    3780:	4118083b          	subw	a6,a6,a7
    3784:	2408081b          	addiw	a6,a6,576
    3788:	400008b7          	lui	a7,0x40000
    378c:	000015b7          	lui	a1,0x1
    3790:	40b405b3          	sub	a1,s0,a1
    3794:	df05b023          	sd	a6,-544(a1) # de0 <.LBB71_3+0xb64>
    3798:	00085463          	bgez	a6,37a0 <.LBB71_46>
    379c:	c00008b7          	lui	a7,0xc0000

00000000000037a0 <.LBB71_46>:
    37a0:	000015b7          	lui	a1,0x1
    37a4:	40b405b3          	sub	a1,s0,a1
    37a8:	dd15bc23          	sd	a7,-552(a1) # dd8 <.LBB71_3+0xb5c>
    37ac:	ee043803          	ld	a6,-288(s0)
    37b0:	000015b7          	lui	a1,0x1
    37b4:	40b405b3          	sub	a1,s0,a1
    37b8:	7a05b883          	ld	a7,1952(a1) # 17a0 <.LBB71_5+0x68>
    37bc:	01088833          	add	a6,a7,a6
    37c0:	ea843883          	ld	a7,-344(s0)
    37c4:	00e888b3          	add	a7,a7,a4
    37c8:	4118083b          	subw	a6,a6,a7
    37cc:	2408081b          	addiw	a6,a6,576
    37d0:	400008b7          	lui	a7,0x40000
    37d4:	000015b7          	lui	a1,0x1
    37d8:	40b405b3          	sub	a1,s0,a1
    37dc:	df05b823          	sd	a6,-528(a1) # df0 <.LBB71_3+0xb74>
    37e0:	00085463          	bgez	a6,37e8 <.LBB71_48>
    37e4:	c00008b7          	lui	a7,0xc0000

00000000000037e8 <.LBB71_48>:
    37e8:	000015b7          	lui	a1,0x1
    37ec:	40b405b3          	sub	a1,s0,a1
    37f0:	df15b423          	sd	a7,-536(a1) # de8 <.LBB71_3+0xb6c>
    37f4:	ef043803          	ld	a6,-272(s0)
    37f8:	000015b7          	lui	a1,0x1
    37fc:	40b405b3          	sub	a1,s0,a1
    3800:	7a85b883          	ld	a7,1960(a1) # 17a8 <.LBB71_5+0x70>
    3804:	01088833          	add	a6,a7,a6
    3808:	eb843883          	ld	a7,-328(s0)
    380c:	00e888b3          	add	a7,a7,a4
    3810:	4118083b          	subw	a6,a6,a7
    3814:	2408081b          	addiw	a6,a6,576
    3818:	400008b7          	lui	a7,0x40000
    381c:	000015b7          	lui	a1,0x1
    3820:	40b405b3          	sub	a1,s0,a1
    3824:	e105b023          	sd	a6,-512(a1) # e00 <.LBB71_3+0xb84>
    3828:	00085463          	bgez	a6,3830 <.LBB71_50>
    382c:	c00008b7          	lui	a7,0xc0000

0000000000003830 <.LBB71_50>:
    3830:	000015b7          	lui	a1,0x1
    3834:	40b405b3          	sub	a1,s0,a1
    3838:	df15bc23          	sd	a7,-520(a1) # df8 <.LBB71_3+0xb7c>
    383c:	f0043803          	ld	a6,-256(s0)
    3840:	000015b7          	lui	a1,0x1
    3844:	40b405b3          	sub	a1,s0,a1
    3848:	7b05b883          	ld	a7,1968(a1) # 17b0 <.LBB71_5+0x78>
    384c:	01088833          	add	a6,a7,a6
    3850:	ec843883          	ld	a7,-312(s0)
    3854:	00e888b3          	add	a7,a7,a4
    3858:	4118083b          	subw	a6,a6,a7
    385c:	2408081b          	addiw	a6,a6,576
    3860:	400008b7          	lui	a7,0x40000
    3864:	000015b7          	lui	a1,0x1
    3868:	40b405b3          	sub	a1,s0,a1
    386c:	e105b823          	sd	a6,-496(a1) # e10 <.LBB71_3+0xb94>
    3870:	00085463          	bgez	a6,3878 <.LBB71_52>
    3874:	c00008b7          	lui	a7,0xc0000

0000000000003878 <.LBB71_52>:
    3878:	000015b7          	lui	a1,0x1
    387c:	40b405b3          	sub	a1,s0,a1
    3880:	e115b423          	sd	a7,-504(a1) # e08 <.LBB71_3+0xb8c>
    3884:	f2043803          	ld	a6,-224(s0)
    3888:	000015b7          	lui	a1,0x1
    388c:	40b405b3          	sub	a1,s0,a1
    3890:	7b85b883          	ld	a7,1976(a1) # 17b8 <.LBB71_5+0x80>
    3894:	01088833          	add	a6,a7,a6
    3898:	ed843883          	ld	a7,-296(s0)
    389c:	00e888b3          	add	a7,a7,a4
    38a0:	4118083b          	subw	a6,a6,a7
    38a4:	2408081b          	addiw	a6,a6,576
    38a8:	400008b7          	lui	a7,0x40000
    38ac:	000015b7          	lui	a1,0x1
    38b0:	40b405b3          	sub	a1,s0,a1
    38b4:	e305b023          	sd	a6,-480(a1) # e20 <.LBB71_3+0xba4>
    38b8:	00085463          	bgez	a6,38c0 <.LBB71_54>
    38bc:	c00008b7          	lui	a7,0xc0000

00000000000038c0 <.LBB71_54>:
    38c0:	000015b7          	lui	a1,0x1
    38c4:	40b405b3          	sub	a1,s0,a1
    38c8:	e115bc23          	sd	a7,-488(a1) # e18 <.LBB71_3+0xb9c>
    38cc:	f3043803          	ld	a6,-208(s0)
    38d0:	000015b7          	lui	a1,0x1
    38d4:	40b405b3          	sub	a1,s0,a1
    38d8:	7c05b883          	ld	a7,1984(a1) # 17c0 <.LBB71_5+0x88>
    38dc:	01088833          	add	a6,a7,a6
    38e0:	ee843883          	ld	a7,-280(s0)
    38e4:	00e888b3          	add	a7,a7,a4
    38e8:	4118083b          	subw	a6,a6,a7
    38ec:	2408081b          	addiw	a6,a6,576
    38f0:	400008b7          	lui	a7,0x40000
    38f4:	000015b7          	lui	a1,0x1
    38f8:	40b405b3          	sub	a1,s0,a1
    38fc:	e305b823          	sd	a6,-464(a1) # e30 <.LBB71_3+0xbb4>
    3900:	00085463          	bgez	a6,3908 <.LBB71_56>
    3904:	c00008b7          	lui	a7,0xc0000

0000000000003908 <.LBB71_56>:
    3908:	000015b7          	lui	a1,0x1
    390c:	40b405b3          	sub	a1,s0,a1
    3910:	e315b423          	sd	a7,-472(a1) # e28 <.LBB71_3+0xbac>
    3914:	f4043803          	ld	a6,-192(s0)
    3918:	000015b7          	lui	a1,0x1
    391c:	40b405b3          	sub	a1,s0,a1
    3920:	7c85b883          	ld	a7,1992(a1) # 17c8 <.LBB71_5+0x90>
    3924:	01088833          	add	a6,a7,a6
    3928:	ef843883          	ld	a7,-264(s0)
    392c:	00e888b3          	add	a7,a7,a4
    3930:	4118083b          	subw	a6,a6,a7
    3934:	2408081b          	addiw	a6,a6,576
    3938:	400008b7          	lui	a7,0x40000
    393c:	000015b7          	lui	a1,0x1
    3940:	40b405b3          	sub	a1,s0,a1
    3944:	e505b423          	sd	a6,-440(a1) # e48 <.LBB71_3+0xbcc>
    3948:	00085463          	bgez	a6,3950 <.LBB71_58>
    394c:	c00008b7          	lui	a7,0xc0000

0000000000003950 <.LBB71_58>:
    3950:	000015b7          	lui	a1,0x1
    3954:	40b405b3          	sub	a1,s0,a1
    3958:	e515b023          	sd	a7,-448(a1) # e40 <.LBB71_3+0xbc4>
    395c:	f5043803          	ld	a6,-176(s0)
    3960:	000015b7          	lui	a1,0x1
    3964:	40b405b3          	sub	a1,s0,a1
    3968:	7d05b883          	ld	a7,2000(a1) # 17d0 <.LBB71_5+0x98>
    396c:	01088833          	add	a6,a7,a6
    3970:	f0843883          	ld	a7,-248(s0)
    3974:	00e888b3          	add	a7,a7,a4
    3978:	4118083b          	subw	a6,a6,a7
    397c:	2408081b          	addiw	a6,a6,576
    3980:	400008b7          	lui	a7,0x40000
    3984:	000015b7          	lui	a1,0x1
    3988:	40b405b3          	sub	a1,s0,a1
    398c:	e905b023          	sd	a6,-384(a1) # e80 <.LBB71_3+0xc04>
    3990:	00085463          	bgez	a6,3998 <.LBB71_60>
    3994:	c00008b7          	lui	a7,0xc0000

0000000000003998 <.LBB71_60>:
    3998:	000015b7          	lui	a1,0x1
    399c:	40b405b3          	sub	a1,s0,a1
    39a0:	e715b023          	sd	a7,-416(a1) # e60 <.LBB71_3+0xbe4>
    39a4:	f6043803          	ld	a6,-160(s0)
    39a8:	000015b7          	lui	a1,0x1
    39ac:	40b405b3          	sub	a1,s0,a1
    39b0:	7d85b883          	ld	a7,2008(a1) # 17d8 <.LBB71_5+0xa0>
    39b4:	01088833          	add	a6,a7,a6
    39b8:	f2843883          	ld	a7,-216(s0)
    39bc:	00e888b3          	add	a7,a7,a4
    39c0:	4118083b          	subw	a6,a6,a7
    39c4:	2408081b          	addiw	a6,a6,576
    39c8:	400008b7          	lui	a7,0x40000
    39cc:	000015b7          	lui	a1,0x1
    39d0:	40b405b3          	sub	a1,s0,a1
    39d4:	ed05b023          	sd	a6,-320(a1) # ec0 <.LBB71_3+0xc44>
    39d8:	00085463          	bgez	a6,39e0 <.LBB71_62>
    39dc:	c00008b7          	lui	a7,0xc0000

00000000000039e0 <.LBB71_62>:
    39e0:	000015b7          	lui	a1,0x1
    39e4:	40b405b3          	sub	a1,s0,a1
    39e8:	eb15b023          	sd	a7,-352(a1) # ea0 <.LBB71_3+0xc24>
    39ec:	f7043803          	ld	a6,-144(s0)
    39f0:	000015b7          	lui	a1,0x1
    39f4:	40b405b3          	sub	a1,s0,a1
    39f8:	7e05b883          	ld	a7,2016(a1) # 17e0 <.LBB71_5+0xa8>
    39fc:	01088833          	add	a6,a7,a6
    3a00:	f3843883          	ld	a7,-200(s0)
    3a04:	00e888b3          	add	a7,a7,a4
    3a08:	4118083b          	subw	a6,a6,a7
    3a0c:	2408081b          	addiw	a6,a6,576
    3a10:	400008b7          	lui	a7,0x40000
    3a14:	000015b7          	lui	a1,0x1
    3a18:	40b405b3          	sub	a1,s0,a1
    3a1c:	ef05bc23          	sd	a6,-264(a1) # ef8 <.LBB71_3+0xc7c>
    3a20:	00085463          	bgez	a6,3a28 <.LBB71_64>
    3a24:	c00008b7          	lui	a7,0xc0000

0000000000003a28 <.LBB71_64>:
    3a28:	000015b7          	lui	a1,0x1
    3a2c:	40b405b3          	sub	a1,s0,a1
    3a30:	ef15b023          	sd	a7,-288(a1) # ee0 <.LBB71_3+0xc64>
    3a34:	f7843803          	ld	a6,-136(s0)
    3a38:	000015b7          	lui	a1,0x1
    3a3c:	40b405b3          	sub	a1,s0,a1
    3a40:	7e85b883          	ld	a7,2024(a1) # 17e8 <.LBB71_5+0xb0>
    3a44:	01088833          	add	a6,a7,a6
    3a48:	f4843883          	ld	a7,-184(s0)
    3a4c:	00e888b3          	add	a7,a7,a4
    3a50:	4118083b          	subw	a6,a6,a7
    3a54:	2408081b          	addiw	a6,a6,576
    3a58:	400008b7          	lui	a7,0x40000
    3a5c:	000015b7          	lui	a1,0x1
    3a60:	40b405b3          	sub	a1,s0,a1
    3a64:	f105b823          	sd	a6,-240(a1) # f10 <.LBB71_3+0xc94>
    3a68:	00085463          	bgez	a6,3a70 <.LBB71_66>
    3a6c:	c00008b7          	lui	a7,0xc0000

0000000000003a70 <.LBB71_66>:
    3a70:	000015b7          	lui	a1,0x1
    3a74:	40b405b3          	sub	a1,s0,a1
    3a78:	f115b423          	sd	a7,-248(a1) # f08 <.LBB71_3+0xc8c>
    3a7c:	f8043803          	ld	a6,-128(s0)
    3a80:	000015b7          	lui	a1,0x1
    3a84:	40b405b3          	sub	a1,s0,a1
    3a88:	7f05b883          	ld	a7,2032(a1) # 17f0 <.LBB71_5+0xb8>
    3a8c:	01088833          	add	a6,a7,a6
    3a90:	f5843883          	ld	a7,-168(s0)
    3a94:	00e888b3          	add	a7,a7,a4
    3a98:	4118083b          	subw	a6,a6,a7
    3a9c:	2408081b          	addiw	a6,a6,576
    3aa0:	400008b7          	lui	a7,0x40000
    3aa4:	000015b7          	lui	a1,0x1
    3aa8:	40b405b3          	sub	a1,s0,a1
    3aac:	f305b023          	sd	a6,-224(a1) # f20 <.LBB71_3+0xca4>
    3ab0:	00085463          	bgez	a6,3ab8 <.LBB71_68>
    3ab4:	c00008b7          	lui	a7,0xc0000

0000000000003ab8 <.LBB71_68>:
    3ab8:	000015b7          	lui	a1,0x1
    3abc:	40b405b3          	sub	a1,s0,a1
    3ac0:	f115bc23          	sd	a7,-232(a1) # f18 <.LBB71_3+0xc9c>
    3ac4:	f8843803          	ld	a6,-120(s0)
    3ac8:	010a8833          	add	a6,s5,a6
    3acc:	f6843883          	ld	a7,-152(s0)
    3ad0:	00e88733          	add	a4,a7,a4
    3ad4:	40e8073b          	subw	a4,a6,a4
    3ad8:	2407071b          	addiw	a4,a4,576
    3adc:	40000837          	lui	a6,0x40000
    3ae0:	80043883          	ld	a7,-2048(s0)
    3ae4:	000015b7          	lui	a1,0x1
    3ae8:	40b405b3          	sub	a1,s0,a1
    3aec:	f2e5b823          	sd	a4,-208(a1) # f30 <.LBB71_3+0xcb4>
    3af0:	00075463          	bgez	a4,3af8 <.LBB71_70>
    3af4:	c0000837          	lui	a6,0xc0000

0000000000003af8 <.LBB71_70>:
    3af8:	000015b7          	lui	a1,0x1
    3afc:	40b405b3          	sub	a1,s0,a1
    3b00:	f305b423          	sd	a6,-216(a1) # f28 <.LBB71_3+0xcac>
    3b04:	00600713          	li	a4,6
    3b08:	02e78733          	mul	a4,a5,a4
    3b0c:	000015b7          	lui	a1,0x1
    3b10:	40b405b3          	sub	a1,s0,a1
    3b14:	6c85b783          	ld	a5,1736(a1) # 16c8 <.LBB71_4+0x4c4>
    3b18:	00fb07b3          	add	a5,s6,a5
    3b1c:	000015b7          	lui	a1,0x1
    3b20:	40b405b3          	sub	a1,s0,a1
    3b24:	6c05b803          	ld	a6,1728(a1) # 16c0 <.LBB71_4+0x4bc>
    3b28:	00e80833          	add	a6,a6,a4
    3b2c:	410787bb          	subw	a5,a5,a6
    3b30:	2407879b          	addiw	a5,a5,576
    3b34:	40000837          	lui	a6,0x40000
    3b38:	80843b03          	ld	s6,-2040(s0)
    3b3c:	000015b7          	lui	a1,0x1
    3b40:	40b405b3          	sub	a1,s0,a1
    3b44:	f4f5b023          	sd	a5,-192(a1) # f40 <.LBB71_3+0xcc4>
    3b48:	90043a83          	ld	s5,-1792(s0)
    3b4c:	0007d463          	bgez	a5,3b54 <.LBB71_72>
    3b50:	c0000837          	lui	a6,0xc0000

0000000000003b54 <.LBB71_72>:
    3b54:	000015b7          	lui	a1,0x1
    3b58:	40b405b3          	sub	a1,s0,a1
    3b5c:	f305bc23          	sd	a6,-200(a1) # f38 <.LBB71_3+0xcbc>
    3b60:	000015b7          	lui	a1,0x1
    3b64:	40b405b3          	sub	a1,s0,a1
    3b68:	6b85b783          	ld	a5,1720(a1) # 16b8 <.LBB71_4+0x4b4>
    3b6c:	00f287b3          	add	a5,t0,a5
    3b70:	000015b7          	lui	a1,0x1
    3b74:	40b405b3          	sub	a1,s0,a1
    3b78:	6b05b803          	ld	a6,1712(a1) # 16b0 <.LBB71_4+0x4ac>
    3b7c:	00e80833          	add	a6,a6,a4
    3b80:	410787bb          	subw	a5,a5,a6
    3b84:	2407879b          	addiw	a5,a5,576
    3b88:	40000837          	lui	a6,0x40000
    3b8c:	91043283          	ld	t0,-1776(s0)
    3b90:	000015b7          	lui	a1,0x1
    3b94:	40b405b3          	sub	a1,s0,a1
    3b98:	f4f5b823          	sd	a5,-176(a1) # f50 <.LBB71_3+0xcd4>
    3b9c:	0007d463          	bgez	a5,3ba4 <.LBB71_74>
    3ba0:	c0000837          	lui	a6,0xc0000

0000000000003ba4 <.LBB71_74>:
    3ba4:	000015b7          	lui	a1,0x1
    3ba8:	40b405b3          	sub	a1,s0,a1
    3bac:	f505b423          	sd	a6,-184(a1) # f48 <.LBB71_3+0xccc>
    3bb0:	000015b7          	lui	a1,0x1
    3bb4:	40b405b3          	sub	a1,s0,a1
    3bb8:	6a85b783          	ld	a5,1704(a1) # 16a8 <.LBB71_4+0x4a4>
    3bbc:	00fd07b3          	add	a5,s10,a5
    3bc0:	000015b7          	lui	a1,0x1
    3bc4:	40b405b3          	sub	a1,s0,a1
    3bc8:	6a05b803          	ld	a6,1696(a1) # 16a0 <.LBB71_4+0x49c>
    3bcc:	00e80833          	add	a6,a6,a4
    3bd0:	410787bb          	subw	a5,a5,a6
    3bd4:	2407879b          	addiw	a5,a5,576
    3bd8:	40000837          	lui	a6,0x40000
    3bdc:	af043d03          	ld	s10,-1296(s0)
    3be0:	000015b7          	lui	a1,0x1
    3be4:	40b405b3          	sub	a1,s0,a1
    3be8:	f6f5b023          	sd	a5,-160(a1) # f60 <.LBB71_3+0xce4>
    3bec:	0007d463          	bgez	a5,3bf4 <.LBB71_76>
    3bf0:	c0000837          	lui	a6,0xc0000

0000000000003bf4 <.LBB71_76>:
    3bf4:	000015b7          	lui	a1,0x1
    3bf8:	40b405b3          	sub	a1,s0,a1
    3bfc:	f505bc23          	sd	a6,-168(a1) # f58 <.LBB71_3+0xcdc>
    3c00:	000015b7          	lui	a1,0x1
    3c04:	40b405b3          	sub	a1,s0,a1
    3c08:	6985b783          	ld	a5,1688(a1) # 1698 <.LBB71_4+0x494>
    3c0c:	81043803          	ld	a6,-2032(s0)
    3c10:	00f807b3          	add	a5,a6,a5
    3c14:	000015b7          	lui	a1,0x1
    3c18:	40b405b3          	sub	a1,s0,a1
    3c1c:	6905b803          	ld	a6,1680(a1) # 1690 <.LBB71_4+0x48c>
    3c20:	00e80833          	add	a6,a6,a4
    3c24:	410787bb          	subw	a5,a5,a6
    3c28:	2407879b          	addiw	a5,a5,576
    3c2c:	40000837          	lui	a6,0x40000
    3c30:	000015b7          	lui	a1,0x1
    3c34:	40b405b3          	sub	a1,s0,a1
    3c38:	f6f5b823          	sd	a5,-144(a1) # f70 <.LBB71_3+0xcf4>
    3c3c:	0007d463          	bgez	a5,3c44 <.LBB71_78>
    3c40:	c0000837          	lui	a6,0xc0000

0000000000003c44 <.LBB71_78>:
    3c44:	000015b7          	lui	a1,0x1
    3c48:	40b405b3          	sub	a1,s0,a1
    3c4c:	f705b423          	sd	a6,-152(a1) # f68 <.LBB71_3+0xcec>
    3c50:	000015b7          	lui	a1,0x1
    3c54:	40b405b3          	sub	a1,s0,a1
    3c58:	6885b783          	ld	a5,1672(a1) # 1688 <.LBB71_4+0x484>
    3c5c:	81843803          	ld	a6,-2024(s0)
    3c60:	00f807b3          	add	a5,a6,a5
    3c64:	000015b7          	lui	a1,0x1
    3c68:	40b405b3          	sub	a1,s0,a1
    3c6c:	6805b803          	ld	a6,1664(a1) # 1680 <.LBB71_4+0x47c>
    3c70:	00e80833          	add	a6,a6,a4
    3c74:	410787bb          	subw	a5,a5,a6
    3c78:	2407879b          	addiw	a5,a5,576
    3c7c:	40000837          	lui	a6,0x40000
    3c80:	000015b7          	lui	a1,0x1
    3c84:	40b405b3          	sub	a1,s0,a1
    3c88:	f8f5b023          	sd	a5,-128(a1) # f80 <.LBB71_3+0xd04>
    3c8c:	0007d463          	bgez	a5,3c94 <.LBB71_80>
    3c90:	c0000837          	lui	a6,0xc0000

0000000000003c94 <.LBB71_80>:
    3c94:	000015b7          	lui	a1,0x1
    3c98:	40b405b3          	sub	a1,s0,a1
    3c9c:	f705bc23          	sd	a6,-136(a1) # f78 <.LBB71_3+0xcfc>
    3ca0:	000015b7          	lui	a1,0x1
    3ca4:	40b405b3          	sub	a1,s0,a1
    3ca8:	6785b783          	ld	a5,1656(a1) # 1678 <.LBB71_4+0x474>
    3cac:	82043803          	ld	a6,-2016(s0)
    3cb0:	00f807b3          	add	a5,a6,a5
    3cb4:	000015b7          	lui	a1,0x1
    3cb8:	40b405b3          	sub	a1,s0,a1
    3cbc:	6685b803          	ld	a6,1640(a1) # 1668 <.LBB71_4+0x464>
    3cc0:	00e80833          	add	a6,a6,a4
    3cc4:	410787bb          	subw	a5,a5,a6
    3cc8:	2407879b          	addiw	a5,a5,576
    3ccc:	40000837          	lui	a6,0x40000
    3cd0:	000015b7          	lui	a1,0x1
    3cd4:	40b405b3          	sub	a1,s0,a1
    3cd8:	f8f5b823          	sd	a5,-112(a1) # f90 <.LBB71_3+0xd14>
    3cdc:	0007d463          	bgez	a5,3ce4 <.LBB71_82>
    3ce0:	c0000837          	lui	a6,0xc0000

0000000000003ce4 <.LBB71_82>:
    3ce4:	000015b7          	lui	a1,0x1
    3ce8:	40b405b3          	sub	a1,s0,a1
    3cec:	f905b423          	sd	a6,-120(a1) # f88 <.LBB71_3+0xd0c>
    3cf0:	000015b7          	lui	a1,0x1
    3cf4:	40b405b3          	sub	a1,s0,a1
    3cf8:	6605b783          	ld	a5,1632(a1) # 1660 <.LBB71_4+0x45c>
    3cfc:	82843803          	ld	a6,-2008(s0)
    3d00:	00f807b3          	add	a5,a6,a5
    3d04:	000015b7          	lui	a1,0x1
    3d08:	40b405b3          	sub	a1,s0,a1
    3d0c:	6585b803          	ld	a6,1624(a1) # 1658 <.LBB71_4+0x454>
    3d10:	00e80833          	add	a6,a6,a4
    3d14:	410787bb          	subw	a5,a5,a6
    3d18:	2407879b          	addiw	a5,a5,576
    3d1c:	40000837          	lui	a6,0x40000
    3d20:	000015b7          	lui	a1,0x1
    3d24:	40b405b3          	sub	a1,s0,a1
    3d28:	faf5b023          	sd	a5,-96(a1) # fa0 <.LBB71_3+0xd24>
    3d2c:	0007d463          	bgez	a5,3d34 <.LBB71_84>
    3d30:	c0000837          	lui	a6,0xc0000

0000000000003d34 <.LBB71_84>:
    3d34:	000015b7          	lui	a1,0x1
    3d38:	40b405b3          	sub	a1,s0,a1
    3d3c:	f905bc23          	sd	a6,-104(a1) # f98 <.LBB71_3+0xd1c>
    3d40:	000015b7          	lui	a1,0x1
    3d44:	40b405b3          	sub	a1,s0,a1
    3d48:	6505b783          	ld	a5,1616(a1) # 1650 <.LBB71_4+0x44c>
    3d4c:	83043803          	ld	a6,-2000(s0)
    3d50:	00f807b3          	add	a5,a6,a5
    3d54:	000015b7          	lui	a1,0x1
    3d58:	40b405b3          	sub	a1,s0,a1
    3d5c:	6485b803          	ld	a6,1608(a1) # 1648 <.LBB71_4+0x444>
    3d60:	00e80833          	add	a6,a6,a4
    3d64:	410787bb          	subw	a5,a5,a6
    3d68:	2407879b          	addiw	a5,a5,576
    3d6c:	40000837          	lui	a6,0x40000
    3d70:	000015b7          	lui	a1,0x1
    3d74:	40b405b3          	sub	a1,s0,a1
    3d78:	faf5b823          	sd	a5,-80(a1) # fb0 <.LBB71_3+0xd34>
    3d7c:	0007d463          	bgez	a5,3d84 <.LBB71_86>
    3d80:	c0000837          	lui	a6,0xc0000

0000000000003d84 <.LBB71_86>:
    3d84:	000015b7          	lui	a1,0x1
    3d88:	40b405b3          	sub	a1,s0,a1
    3d8c:	fb05b423          	sd	a6,-88(a1) # fa8 <.LBB71_3+0xd2c>
    3d90:	000015b7          	lui	a1,0x1
    3d94:	40b405b3          	sub	a1,s0,a1
    3d98:	6405b783          	ld	a5,1600(a1) # 1640 <.LBB71_4+0x43c>
    3d9c:	83843803          	ld	a6,-1992(s0)
    3da0:	00f807b3          	add	a5,a6,a5
    3da4:	000015b7          	lui	a1,0x1
    3da8:	40b405b3          	sub	a1,s0,a1
    3dac:	6385b803          	ld	a6,1592(a1) # 1638 <.LBB71_4+0x434>
    3db0:	00e80833          	add	a6,a6,a4
    3db4:	410787bb          	subw	a5,a5,a6
    3db8:	2407879b          	addiw	a5,a5,576
    3dbc:	40000837          	lui	a6,0x40000
    3dc0:	000015b7          	lui	a1,0x1
    3dc4:	40b405b3          	sub	a1,s0,a1
    3dc8:	fcf5b023          	sd	a5,-64(a1) # fc0 <.LBB71_3+0xd44>
    3dcc:	0007d463          	bgez	a5,3dd4 <.LBB71_88>
    3dd0:	c0000837          	lui	a6,0xc0000

0000000000003dd4 <.LBB71_88>:
    3dd4:	000015b7          	lui	a1,0x1
    3dd8:	40b405b3          	sub	a1,s0,a1
    3ddc:	fb05bc23          	sd	a6,-72(a1) # fb8 <.LBB71_3+0xd3c>
    3de0:	000015b7          	lui	a1,0x1
    3de4:	40b405b3          	sub	a1,s0,a1
    3de8:	6305b783          	ld	a5,1584(a1) # 1630 <.LBB71_4+0x42c>
    3dec:	84843803          	ld	a6,-1976(s0)
    3df0:	00f807b3          	add	a5,a6,a5
    3df4:	000015b7          	lui	a1,0x1
    3df8:	40b405b3          	sub	a1,s0,a1
    3dfc:	6f05b803          	ld	a6,1776(a1) # 16f0 <.LBB71_4+0x4ec>
    3e00:	00e80833          	add	a6,a6,a4
    3e04:	410787bb          	subw	a5,a5,a6
    3e08:	2407879b          	addiw	a5,a5,576
    3e0c:	40000837          	lui	a6,0x40000
    3e10:	000015b7          	lui	a1,0x1
    3e14:	40b405b3          	sub	a1,s0,a1
    3e18:	fcf5b823          	sd	a5,-48(a1) # fd0 <.LBB71_3+0xd54>
    3e1c:	0007d463          	bgez	a5,3e24 <.LBB71_90>
    3e20:	c0000837          	lui	a6,0xc0000

0000000000003e24 <.LBB71_90>:
    3e24:	000015b7          	lui	a1,0x1
    3e28:	40b405b3          	sub	a1,s0,a1
    3e2c:	fd05b423          	sd	a6,-56(a1) # fc8 <.LBB71_3+0xd4c>
    3e30:	000015b7          	lui	a1,0x1
    3e34:	40b405b3          	sub	a1,s0,a1
    3e38:	6f85b783          	ld	a5,1784(a1) # 16f8 <.LBB71_4+0x4f4>
    3e3c:	85043803          	ld	a6,-1968(s0)
    3e40:	00f807b3          	add	a5,a6,a5
    3e44:	000015b7          	lui	a1,0x1
    3e48:	40b405b3          	sub	a1,s0,a1
    3e4c:	6d05b803          	ld	a6,1744(a1) # 16d0 <.LBB71_4+0x4cc>
    3e50:	00e80833          	add	a6,a6,a4
    3e54:	410787bb          	subw	a5,a5,a6
    3e58:	2407879b          	addiw	a5,a5,576
    3e5c:	40000837          	lui	a6,0x40000
    3e60:	000015b7          	lui	a1,0x1
    3e64:	40b405b3          	sub	a1,s0,a1
    3e68:	fef5b023          	sd	a5,-32(a1) # fe0 <.LBB71_3+0xd64>
    3e6c:	0007d463          	bgez	a5,3e74 <.LBB71_92>
    3e70:	c0000837          	lui	a6,0xc0000

0000000000003e74 <.LBB71_92>:
    3e74:	000015b7          	lui	a1,0x1
    3e78:	40b405b3          	sub	a1,s0,a1
    3e7c:	fd05bc23          	sd	a6,-40(a1) # fd8 <.LBB71_3+0xd5c>
    3e80:	000015b7          	lui	a1,0x1
    3e84:	40b405b3          	sub	a1,s0,a1
    3e88:	7085b783          	ld	a5,1800(a1) # 1708 <.LBB71_4+0x504>
    3e8c:	85843803          	ld	a6,-1960(s0)
    3e90:	00f807b3          	add	a5,a6,a5
    3e94:	000015b7          	lui	a1,0x1
    3e98:	40b405b3          	sub	a1,s0,a1
    3e9c:	6d85b803          	ld	a6,1752(a1) # 16d8 <.LBB71_4+0x4d4>
    3ea0:	00e80833          	add	a6,a6,a4
    3ea4:	410787bb          	subw	a5,a5,a6
    3ea8:	2407879b          	addiw	a5,a5,576
    3eac:	40000837          	lui	a6,0x40000
    3eb0:	000015b7          	lui	a1,0x1
    3eb4:	40b405b3          	sub	a1,s0,a1
    3eb8:	fef5b823          	sd	a5,-16(a1) # ff0 <.LBB71_3+0xd74>
    3ebc:	0007d463          	bgez	a5,3ec4 <.LBB71_94>
    3ec0:	c0000837          	lui	a6,0xc0000

0000000000003ec4 <.LBB71_94>:
    3ec4:	000015b7          	lui	a1,0x1
    3ec8:	40b405b3          	sub	a1,s0,a1
    3ecc:	ff05b423          	sd	a6,-24(a1) # fe8 <.LBB71_3+0xd6c>
    3ed0:	000015b7          	lui	a1,0x1
    3ed4:	40b405b3          	sub	a1,s0,a1
    3ed8:	7185b783          	ld	a5,1816(a1) # 1718 <.LBB71_4+0x514>
    3edc:	86043803          	ld	a6,-1952(s0)
    3ee0:	00f807b3          	add	a5,a6,a5
    3ee4:	000015b7          	lui	a1,0x1
    3ee8:	40b405b3          	sub	a1,s0,a1
    3eec:	6e05b803          	ld	a6,1760(a1) # 16e0 <.LBB71_4+0x4dc>
    3ef0:	00e80833          	add	a6,a6,a4
    3ef4:	410787bb          	subw	a5,a5,a6
    3ef8:	2407879b          	addiw	a5,a5,576
    3efc:	40000837          	lui	a6,0x40000
    3f00:	000015b7          	lui	a1,0x1
    3f04:	40b405b3          	sub	a1,s0,a1
    3f08:	00f5b023          	sd	a5,0(a1) # 1000 <.LBB71_3+0xd84>
    3f0c:	0007d463          	bgez	a5,3f14 <.LBB71_96>
    3f10:	c0000837          	lui	a6,0xc0000

0000000000003f14 <.LBB71_96>:
    3f14:	000015b7          	lui	a1,0x1
    3f18:	40b405b3          	sub	a1,s0,a1
    3f1c:	ff05bc23          	sd	a6,-8(a1) # ff8 <.LBB71_3+0xd7c>
    3f20:	000015b7          	lui	a1,0x1
    3f24:	40b405b3          	sub	a1,s0,a1
    3f28:	7285b783          	ld	a5,1832(a1) # 1728 <.LBB71_4+0x524>
    3f2c:	86843803          	ld	a6,-1944(s0)
    3f30:	00f807b3          	add	a5,a6,a5
    3f34:	000015b7          	lui	a1,0x1
    3f38:	40b405b3          	sub	a1,s0,a1
    3f3c:	6e85b803          	ld	a6,1768(a1) # 16e8 <.LBB71_4+0x4e4>
    3f40:	00e80833          	add	a6,a6,a4
    3f44:	410787bb          	subw	a5,a5,a6
    3f48:	2407879b          	addiw	a5,a5,576
    3f4c:	40000837          	lui	a6,0x40000
    3f50:	000015b7          	lui	a1,0x1
    3f54:	40b405b3          	sub	a1,s0,a1
    3f58:	00f5b823          	sd	a5,16(a1) # 1010 <.LBB71_3+0xd94>
    3f5c:	0007d463          	bgez	a5,3f64 <.LBB71_98>
    3f60:	c0000837          	lui	a6,0xc0000

0000000000003f64 <.LBB71_98>:
    3f64:	000015b7          	lui	a1,0x1
    3f68:	40b405b3          	sub	a1,s0,a1
    3f6c:	0105b423          	sd	a6,8(a1) # 1008 <.LBB71_3+0xd8c>
    3f70:	e8043783          	ld	a5,-384(s0)
    3f74:	87043803          	ld	a6,-1936(s0)
    3f78:	00f807b3          	add	a5,a6,a5
    3f7c:	000015b7          	lui	a1,0x1
    3f80:	40b405b3          	sub	a1,s0,a1
    3f84:	7005b803          	ld	a6,1792(a1) # 1700 <.LBB71_4+0x4fc>
    3f88:	00e80833          	add	a6,a6,a4
    3f8c:	410787bb          	subw	a5,a5,a6
    3f90:	2407879b          	addiw	a5,a5,576
    3f94:	40000837          	lui	a6,0x40000
    3f98:	000015b7          	lui	a1,0x1
    3f9c:	40b405b3          	sub	a1,s0,a1
    3fa0:	02f5b023          	sd	a5,32(a1) # 1020 <.LBB71_3+0xda4>
    3fa4:	0007d463          	bgez	a5,3fac <.LBB71_100>
    3fa8:	c0000837          	lui	a6,0xc0000

0000000000003fac <.LBB71_100>:
    3fac:	000015b7          	lui	a1,0x1
    3fb0:	40b405b3          	sub	a1,s0,a1
    3fb4:	0105bc23          	sd	a6,24(a1) # 1018 <.LBB71_3+0xd9c>
    3fb8:	e9043783          	ld	a5,-368(s0)
    3fbc:	87843803          	ld	a6,-1928(s0)
    3fc0:	00f807b3          	add	a5,a6,a5
    3fc4:	000015b7          	lui	a1,0x1
    3fc8:	40b405b3          	sub	a1,s0,a1
    3fcc:	7105b803          	ld	a6,1808(a1) # 1710 <.LBB71_4+0x50c>
    3fd0:	00e80833          	add	a6,a6,a4
    3fd4:	410787bb          	subw	a5,a5,a6
    3fd8:	2407879b          	addiw	a5,a5,576
    3fdc:	40000837          	lui	a6,0x40000
    3fe0:	000015b7          	lui	a1,0x1
    3fe4:	40b405b3          	sub	a1,s0,a1
    3fe8:	02f5b823          	sd	a5,48(a1) # 1030 <.LBB71_3+0xdb4>
    3fec:	0007d463          	bgez	a5,3ff4 <.LBB71_102>
    3ff0:	c0000837          	lui	a6,0xc0000

0000000000003ff4 <.LBB71_102>:
    3ff4:	000015b7          	lui	a1,0x1
    3ff8:	40b405b3          	sub	a1,s0,a1
    3ffc:	0305b423          	sd	a6,40(a1) # 1028 <.LBB71_3+0xdac>
    4000:	ea043783          	ld	a5,-352(s0)
    4004:	88043803          	ld	a6,-1920(s0)
    4008:	00f807b3          	add	a5,a6,a5
    400c:	000015b7          	lui	a1,0x1
    4010:	40b405b3          	sub	a1,s0,a1
    4014:	7205b803          	ld	a6,1824(a1) # 1720 <.LBB71_4+0x51c>
    4018:	00e80833          	add	a6,a6,a4
    401c:	410787bb          	subw	a5,a5,a6
    4020:	2407879b          	addiw	a5,a5,576
    4024:	40000837          	lui	a6,0x40000
    4028:	000015b7          	lui	a1,0x1
    402c:	40b405b3          	sub	a1,s0,a1
    4030:	04f5b023          	sd	a5,64(a1) # 1040 <.LBB71_3+0xdc4>
    4034:	0007d463          	bgez	a5,403c <.LBB71_104>
    4038:	c0000837          	lui	a6,0xc0000

000000000000403c <.LBB71_104>:
    403c:	000015b7          	lui	a1,0x1
    4040:	40b405b3          	sub	a1,s0,a1
    4044:	0305bc23          	sd	a6,56(a1) # 1038 <.LBB71_3+0xdbc>
    4048:	eb043783          	ld	a5,-336(s0)
    404c:	88843803          	ld	a6,-1912(s0)
    4050:	00f807b3          	add	a5,a6,a5
    4054:	e7843803          	ld	a6,-392(s0)
    4058:	00e80833          	add	a6,a6,a4
    405c:	410787bb          	subw	a5,a5,a6
    4060:	2407879b          	addiw	a5,a5,576
    4064:	40000837          	lui	a6,0x40000
    4068:	84f43823          	sd	a5,-1968(s0)
    406c:	0007d463          	bgez	a5,4074 <.LBB71_106>
    4070:	c0000837          	lui	a6,0xc0000

0000000000004074 <.LBB71_106>:
    4074:	000015b7          	lui	a1,0x1
    4078:	40b405b3          	sub	a1,s0,a1
    407c:	0505b423          	sd	a6,72(a1) # 1048 <.LBB71_3+0xdcc>
    4080:	ec043783          	ld	a5,-320(s0)
    4084:	89043803          	ld	a6,-1904(s0)
    4088:	00f807b3          	add	a5,a6,a5
    408c:	e8843803          	ld	a6,-376(s0)
    4090:	00e80833          	add	a6,a6,a4
    4094:	410787bb          	subw	a5,a5,a6
    4098:	2407879b          	addiw	a5,a5,576
    409c:	40000837          	lui	a6,0x40000
    40a0:	000015b7          	lui	a1,0x1
    40a4:	40b405b3          	sub	a1,s0,a1
    40a8:	04f5bc23          	sd	a5,88(a1) # 1058 <.LBB71_3+0xddc>
    40ac:	0007d463          	bgez	a5,40b4 <.LBB71_108>
    40b0:	c0000837          	lui	a6,0xc0000

00000000000040b4 <.LBB71_108>:
    40b4:	000015b7          	lui	a1,0x1
    40b8:	40b405b3          	sub	a1,s0,a1
    40bc:	0505b823          	sd	a6,80(a1) # 1050 <.LBB71_3+0xdd4>
    40c0:	ed043783          	ld	a5,-304(s0)
    40c4:	89843803          	ld	a6,-1896(s0)
    40c8:	00f807b3          	add	a5,a6,a5
    40cc:	e9843803          	ld	a6,-360(s0)
    40d0:	00e80833          	add	a6,a6,a4
    40d4:	410787bb          	subw	a5,a5,a6
    40d8:	2407879b          	addiw	a5,a5,576
    40dc:	40000837          	lui	a6,0x40000
    40e0:	000015b7          	lui	a1,0x1
    40e4:	40b405b3          	sub	a1,s0,a1
    40e8:	06f5b423          	sd	a5,104(a1) # 1068 <.LBB71_3+0xdec>
    40ec:	0007d463          	bgez	a5,40f4 <.LBB71_110>
    40f0:	c0000837          	lui	a6,0xc0000

00000000000040f4 <.LBB71_110>:
    40f4:	000015b7          	lui	a1,0x1
    40f8:	40b405b3          	sub	a1,s0,a1
    40fc:	0705b023          	sd	a6,96(a1) # 1060 <.LBB71_3+0xde4>
    4100:	ee043783          	ld	a5,-288(s0)
    4104:	8a043803          	ld	a6,-1888(s0)
    4108:	00f807b3          	add	a5,a6,a5
    410c:	ea843803          	ld	a6,-344(s0)
    4110:	00e80833          	add	a6,a6,a4
    4114:	410787bb          	subw	a5,a5,a6
    4118:	2407879b          	addiw	a5,a5,576
    411c:	40000837          	lui	a6,0x40000
    4120:	000015b7          	lui	a1,0x1
    4124:	40b405b3          	sub	a1,s0,a1
    4128:	78f5b423          	sd	a5,1928(a1) # 1788 <.LBB71_5+0x50>
    412c:	0007d463          	bgez	a5,4134 <.LBB71_112>
    4130:	c0000837          	lui	a6,0xc0000

0000000000004134 <.LBB71_112>:
    4134:	000015b7          	lui	a1,0x1
    4138:	40b405b3          	sub	a1,s0,a1
    413c:	0705b823          	sd	a6,112(a1) # 1070 <.LBB71_3+0xdf4>
    4140:	ef043783          	ld	a5,-272(s0)
    4144:	8a843803          	ld	a6,-1880(s0)
    4148:	00f807b3          	add	a5,a6,a5
    414c:	eb843803          	ld	a6,-328(s0)
    4150:	00e80833          	add	a6,a6,a4
    4154:	410787bb          	subw	a5,a5,a6
    4158:	2407879b          	addiw	a5,a5,576
    415c:	40000837          	lui	a6,0x40000
    4160:	000015b7          	lui	a1,0x1
    4164:	40b405b3          	sub	a1,s0,a1
    4168:	74f5b423          	sd	a5,1864(a1) # 1748 <.LBB71_5+0x10>
    416c:	0007d463          	bgez	a5,4174 <.LBB71_114>
    4170:	c0000837          	lui	a6,0xc0000

0000000000004174 <.LBB71_114>:
    4174:	000015b7          	lui	a1,0x1
    4178:	40b405b3          	sub	a1,s0,a1
    417c:	0705bc23          	sd	a6,120(a1) # 1078 <.LBB71_3+0xdfc>
    4180:	f0043783          	ld	a5,-256(s0)
    4184:	8b043803          	ld	a6,-1872(s0)
    4188:	00f807b3          	add	a5,a6,a5
    418c:	ec843803          	ld	a6,-312(s0)
    4190:	00e80833          	add	a6,a6,a4
    4194:	410787bb          	subw	a5,a5,a6
    4198:	2407879b          	addiw	a5,a5,576
    419c:	40000837          	lui	a6,0x40000
    41a0:	000015b7          	lui	a1,0x1
    41a4:	40b405b3          	sub	a1,s0,a1
    41a8:	08f5b423          	sd	a5,136(a1) # 1088 <.LBB71_3+0xe0c>
    41ac:	0007d463          	bgez	a5,41b4 <.LBB71_116>
    41b0:	c0000837          	lui	a6,0xc0000

00000000000041b4 <.LBB71_116>:
    41b4:	000015b7          	lui	a1,0x1
    41b8:	40b405b3          	sub	a1,s0,a1
    41bc:	0905b023          	sd	a6,128(a1) # 1080 <.LBB71_3+0xe04>
    41c0:	f2043783          	ld	a5,-224(s0)
    41c4:	8b843803          	ld	a6,-1864(s0)
    41c8:	00f807b3          	add	a5,a6,a5
    41cc:	ed843803          	ld	a6,-296(s0)
    41d0:	00e80833          	add	a6,a6,a4
    41d4:	410787bb          	subw	a5,a5,a6
    41d8:	2407879b          	addiw	a5,a5,576
    41dc:	40000837          	lui	a6,0x40000
    41e0:	000015b7          	lui	a1,0x1
    41e4:	40b405b3          	sub	a1,s0,a1
    41e8:	08f5bc23          	sd	a5,152(a1) # 1098 <.LBB71_3+0xe1c>
    41ec:	0007d463          	bgez	a5,41f4 <.LBB71_118>
    41f0:	c0000837          	lui	a6,0xc0000

00000000000041f4 <.LBB71_118>:
    41f4:	000015b7          	lui	a1,0x1
    41f8:	40b405b3          	sub	a1,s0,a1
    41fc:	0905b823          	sd	a6,144(a1) # 1090 <.LBB71_3+0xe14>
    4200:	f3043783          	ld	a5,-208(s0)
    4204:	8c043803          	ld	a6,-1856(s0)
    4208:	00f807b3          	add	a5,a6,a5
    420c:	ee843803          	ld	a6,-280(s0)
    4210:	00e80833          	add	a6,a6,a4
    4214:	410787bb          	subw	a5,a5,a6
    4218:	2407879b          	addiw	a5,a5,576
    421c:	40000837          	lui	a6,0x40000
    4220:	000015b7          	lui	a1,0x1
    4224:	40b405b3          	sub	a1,s0,a1
    4228:	0af5b423          	sd	a5,168(a1) # 10a8 <.LBB71_3+0xe2c>
    422c:	0007d463          	bgez	a5,4234 <.LBB71_120>
    4230:	c0000837          	lui	a6,0xc0000

0000000000004234 <.LBB71_120>:
    4234:	000015b7          	lui	a1,0x1
    4238:	40b405b3          	sub	a1,s0,a1
    423c:	0b05b023          	sd	a6,160(a1) # 10a0 <.LBB71_3+0xe24>
    4240:	f4043783          	ld	a5,-192(s0)
    4244:	8c843803          	ld	a6,-1848(s0)
    4248:	00f807b3          	add	a5,a6,a5
    424c:	ef843803          	ld	a6,-264(s0)
    4250:	00e80833          	add	a6,a6,a4
    4254:	410787bb          	subw	a5,a5,a6
    4258:	2407879b          	addiw	a5,a5,576
    425c:	40000837          	lui	a6,0x40000
    4260:	000015b7          	lui	a1,0x1
    4264:	40b405b3          	sub	a1,s0,a1
    4268:	0af5bc23          	sd	a5,184(a1) # 10b8 <.LBB71_3+0xe3c>
    426c:	0007d463          	bgez	a5,4274 <.LBB71_122>
    4270:	c0000837          	lui	a6,0xc0000

0000000000004274 <.LBB71_122>:
    4274:	000015b7          	lui	a1,0x1
    4278:	40b405b3          	sub	a1,s0,a1
    427c:	0b05b823          	sd	a6,176(a1) # 10b0 <.LBB71_3+0xe34>
    4280:	f5043783          	ld	a5,-176(s0)
    4284:	8d043803          	ld	a6,-1840(s0)
    4288:	00f807b3          	add	a5,a6,a5
    428c:	f0843803          	ld	a6,-248(s0)
    4290:	00e80833          	add	a6,a6,a4
    4294:	410787bb          	subw	a5,a5,a6
    4298:	2407879b          	addiw	a5,a5,576
    429c:	40000837          	lui	a6,0x40000
    42a0:	000015b7          	lui	a1,0x1
    42a4:	40b405b3          	sub	a1,s0,a1
    42a8:	0cf5b423          	sd	a5,200(a1) # 10c8 <.LBB71_3+0xe4c>
    42ac:	0007d463          	bgez	a5,42b4 <.LBB71_124>
    42b0:	c0000837          	lui	a6,0xc0000

00000000000042b4 <.LBB71_124>:
    42b4:	000015b7          	lui	a1,0x1
    42b8:	40b405b3          	sub	a1,s0,a1
    42bc:	0d05b023          	sd	a6,192(a1) # 10c0 <.LBB71_3+0xe44>
    42c0:	f6043783          	ld	a5,-160(s0)
    42c4:	8d843803          	ld	a6,-1832(s0)
    42c8:	00f807b3          	add	a5,a6,a5
    42cc:	f2843803          	ld	a6,-216(s0)
    42d0:	00e80833          	add	a6,a6,a4
    42d4:	410787bb          	subw	a5,a5,a6
    42d8:	2407879b          	addiw	a5,a5,576
    42dc:	40000837          	lui	a6,0x40000
    42e0:	000015b7          	lui	a1,0x1
    42e4:	40b405b3          	sub	a1,s0,a1
    42e8:	0cf5bc23          	sd	a5,216(a1) # 10d8 <.LBB71_3+0xe5c>
    42ec:	0007d463          	bgez	a5,42f4 <.LBB71_126>
    42f0:	c0000837          	lui	a6,0xc0000

00000000000042f4 <.LBB71_126>:
    42f4:	000015b7          	lui	a1,0x1
    42f8:	40b405b3          	sub	a1,s0,a1
    42fc:	0d05b823          	sd	a6,208(a1) # 10d0 <.LBB71_3+0xe54>
    4300:	f7043783          	ld	a5,-144(s0)
    4304:	8e043803          	ld	a6,-1824(s0)
    4308:	00f807b3          	add	a5,a6,a5
    430c:	f3843803          	ld	a6,-200(s0)
    4310:	00e80833          	add	a6,a6,a4
    4314:	410787bb          	subw	a5,a5,a6
    4318:	2407879b          	addiw	a5,a5,576
    431c:	40000837          	lui	a6,0x40000
    4320:	000015b7          	lui	a1,0x1
    4324:	40b405b3          	sub	a1,s0,a1
    4328:	0ef5b423          	sd	a5,232(a1) # 10e8 <.LBB71_3+0xe6c>
    432c:	0007d463          	bgez	a5,4334 <.LBB71_128>
    4330:	c0000837          	lui	a6,0xc0000

0000000000004334 <.LBB71_128>:
    4334:	000015b7          	lui	a1,0x1
    4338:	40b405b3          	sub	a1,s0,a1
    433c:	0f05b023          	sd	a6,224(a1) # 10e0 <.LBB71_3+0xe64>
    4340:	f7843783          	ld	a5,-136(s0)
    4344:	8e843803          	ld	a6,-1816(s0)
    4348:	00f807b3          	add	a5,a6,a5
    434c:	f4843803          	ld	a6,-184(s0)
    4350:	00e80833          	add	a6,a6,a4
    4354:	410787bb          	subw	a5,a5,a6
    4358:	2407879b          	addiw	a5,a5,576
    435c:	40000837          	lui	a6,0x40000
    4360:	000015b7          	lui	a1,0x1
    4364:	40b405b3          	sub	a1,s0,a1
    4368:	0ef5bc23          	sd	a5,248(a1) # 10f8 <.LBB71_3+0xe7c>
    436c:	0007d463          	bgez	a5,4374 <.LBB71_130>
    4370:	c0000837          	lui	a6,0xc0000

0000000000004374 <.LBB71_130>:
    4374:	000015b7          	lui	a1,0x1
    4378:	40b405b3          	sub	a1,s0,a1
    437c:	0f05b823          	sd	a6,240(a1) # 10f0 <.LBB71_3+0xe74>
    4380:	f8043783          	ld	a5,-128(s0)
    4384:	8f043803          	ld	a6,-1808(s0)
    4388:	00f807b3          	add	a5,a6,a5
    438c:	f5843803          	ld	a6,-168(s0)
    4390:	00e80833          	add	a6,a6,a4
    4394:	410787bb          	subw	a5,a5,a6
    4398:	2407879b          	addiw	a5,a5,576
    439c:	40000837          	lui	a6,0x40000
    43a0:	000015b7          	lui	a1,0x1
    43a4:	40b405b3          	sub	a1,s0,a1
    43a8:	10f5b423          	sd	a5,264(a1) # 1108 <.LBB71_3+0xe8c>
    43ac:	0007d463          	bgez	a5,43b4 <.LBB71_132>
    43b0:	c0000837          	lui	a6,0xc0000

00000000000043b4 <.LBB71_132>:
    43b4:	000015b7          	lui	a1,0x1
    43b8:	40b405b3          	sub	a1,s0,a1
    43bc:	1105b023          	sd	a6,256(a1) # 1100 <.LBB71_3+0xe84>
    43c0:	f8843783          	ld	a5,-120(s0)
    43c4:	8f843803          	ld	a6,-1800(s0)
    43c8:	00f807b3          	add	a5,a6,a5
    43cc:	f6843803          	ld	a6,-152(s0)
    43d0:	00e80733          	add	a4,a6,a4
    43d4:	40e787bb          	subw	a5,a5,a4
    43d8:	2407871b          	addiw	a4,a5,576
    43dc:	400007b7          	lui	a5,0x40000
    43e0:	be043803          	ld	a6,-1056(s0)
    43e4:	000015b7          	lui	a1,0x1
    43e8:	40b405b3          	sub	a1,s0,a1
    43ec:	10e5bc23          	sd	a4,280(a1) # 1118 <.LBB71_3+0xe9c>
    43f0:	00075463          	bgez	a4,43f8 <.LBB71_134>
    43f4:	c00007b7          	lui	a5,0xc0000

00000000000043f8 <.LBB71_134>:
    43f8:	000015b7          	lui	a1,0x1
    43fc:	40b405b3          	sub	a1,s0,a1
    4400:	10f5b823          	sd	a5,272(a1) # 1110 <.LBB71_3+0xe94>
    4404:	00600713          	li	a4,6
    4408:	02e686b3          	mul	a3,a3,a4
    440c:	000015b7          	lui	a1,0x1
    4410:	40b405b3          	sub	a1,s0,a1
    4414:	6c85b703          	ld	a4,1736(a1) # 16c8 <.LBB71_4+0x4c4>
    4418:	00ea8733          	add	a4,s5,a4
    441c:	000015b7          	lui	a1,0x1
    4420:	40b405b3          	sub	a1,s0,a1
    4424:	6c05b783          	ld	a5,1728(a1) # 16c0 <.LBB71_4+0x4bc>
    4428:	00d787b3          	add	a5,a5,a3
    442c:	40f7073b          	subw	a4,a4,a5
    4430:	2407071b          	addiw	a4,a4,576
    4434:	400007b7          	lui	a5,0x40000
    4438:	be843a83          	ld	s5,-1048(s0)
    443c:	000015b7          	lui	a1,0x1
    4440:	40b405b3          	sub	a1,s0,a1
    4444:	12e5b423          	sd	a4,296(a1) # 1128 <.LBB71_3+0xeac>
    4448:	00075463          	bgez	a4,4450 <.LBB71_136>
    444c:	c00007b7          	lui	a5,0xc0000

0000000000004450 <.LBB71_136>:
    4450:	000015b7          	lui	a1,0x1
    4454:	40b405b3          	sub	a1,s0,a1
    4458:	12f5b023          	sd	a5,288(a1) # 1120 <.LBB71_3+0xea4>
    445c:	000015b7          	lui	a1,0x1
    4460:	40b405b3          	sub	a1,s0,a1
    4464:	6b85b703          	ld	a4,1720(a1) # 16b8 <.LBB71_4+0x4b4>
    4468:	90843783          	ld	a5,-1784(s0)
    446c:	00e78733          	add	a4,a5,a4
    4470:	000015b7          	lui	a1,0x1
    4474:	40b405b3          	sub	a1,s0,a1
    4478:	6b05b783          	ld	a5,1712(a1) # 16b0 <.LBB71_4+0x4ac>
    447c:	00d787b3          	add	a5,a5,a3
    4480:	40f7073b          	subw	a4,a4,a5
    4484:	2407071b          	addiw	a4,a4,576
    4488:	400007b7          	lui	a5,0x40000
    448c:	000015b7          	lui	a1,0x1
    4490:	40b405b3          	sub	a1,s0,a1
    4494:	12e5bc23          	sd	a4,312(a1) # 1138 <.LBB71_3+0xebc>
    4498:	00075463          	bgez	a4,44a0 <.LBB71_138>
    449c:	c00007b7          	lui	a5,0xc0000

00000000000044a0 <.LBB71_138>:
    44a0:	000015b7          	lui	a1,0x1
    44a4:	40b405b3          	sub	a1,s0,a1
    44a8:	12f5b823          	sd	a5,304(a1) # 1130 <.LBB71_3+0xeb4>
    44ac:	000015b7          	lui	a1,0x1
    44b0:	40b405b3          	sub	a1,s0,a1
    44b4:	6a85b703          	ld	a4,1704(a1) # 16a8 <.LBB71_4+0x4a4>
    44b8:	00e60733          	add	a4,a2,a4
    44bc:	000015b7          	lui	a1,0x1
    44c0:	40b405b3          	sub	a1,s0,a1
    44c4:	6a05b783          	ld	a5,1696(a1) # 16a0 <.LBB71_4+0x49c>
    44c8:	00d787b3          	add	a5,a5,a3
    44cc:	40f7073b          	subw	a4,a4,a5
    44d0:	2407071b          	addiw	a4,a4,576
    44d4:	400007b7          	lui	a5,0x40000
    44d8:	000015b7          	lui	a1,0x1
    44dc:	40b405b3          	sub	a1,s0,a1
    44e0:	14e5b423          	sd	a4,328(a1) # 1148 <.LBB71_3+0xecc>
    44e4:	00075463          	bgez	a4,44ec <.LBB71_140>
    44e8:	c00007b7          	lui	a5,0xc0000

00000000000044ec <.LBB71_140>:
    44ec:	000015b7          	lui	a1,0x1
    44f0:	40b405b3          	sub	a1,s0,a1
    44f4:	14f5b023          	sd	a5,320(a1) # 1140 <.LBB71_3+0xec4>
    44f8:	000015b7          	lui	a1,0x1
    44fc:	40b405b3          	sub	a1,s0,a1
    4500:	6985b703          	ld	a4,1688(a1) # 1698 <.LBB71_4+0x494>
    4504:	91843783          	ld	a5,-1768(s0)
    4508:	00e78733          	add	a4,a5,a4
    450c:	000015b7          	lui	a1,0x1
    4510:	40b405b3          	sub	a1,s0,a1
    4514:	6905b783          	ld	a5,1680(a1) # 1690 <.LBB71_4+0x48c>
    4518:	00d787b3          	add	a5,a5,a3
    451c:	40f7073b          	subw	a4,a4,a5
    4520:	2407071b          	addiw	a4,a4,576
    4524:	400007b7          	lui	a5,0x40000
    4528:	000015b7          	lui	a1,0x1
    452c:	40b405b3          	sub	a1,s0,a1
    4530:	14e5bc23          	sd	a4,344(a1) # 1158 <.LBB71_3+0xedc>
    4534:	00075463          	bgez	a4,453c <.LBB71_142>
    4538:	c00007b7          	lui	a5,0xc0000

000000000000453c <.LBB71_142>:
    453c:	000015b7          	lui	a1,0x1
    4540:	40b405b3          	sub	a1,s0,a1
    4544:	14f5b823          	sd	a5,336(a1) # 1150 <.LBB71_3+0xed4>
    4548:	000015b7          	lui	a1,0x1
    454c:	40b405b3          	sub	a1,s0,a1
    4550:	6885b703          	ld	a4,1672(a1) # 1688 <.LBB71_4+0x484>
    4554:	92043783          	ld	a5,-1760(s0)
    4558:	00e78733          	add	a4,a5,a4
    455c:	000015b7          	lui	a1,0x1
    4560:	40b405b3          	sub	a1,s0,a1
    4564:	6805b783          	ld	a5,1664(a1) # 1680 <.LBB71_4+0x47c>
    4568:	00d787b3          	add	a5,a5,a3
    456c:	40f7073b          	subw	a4,a4,a5
    4570:	2407071b          	addiw	a4,a4,576
    4574:	400007b7          	lui	a5,0x40000
    4578:	000015b7          	lui	a1,0x1
    457c:	40b405b3          	sub	a1,s0,a1
    4580:	16e5b423          	sd	a4,360(a1) # 1168 <.LBB71_3+0xeec>
    4584:	00075463          	bgez	a4,458c <.LBB71_144>
    4588:	c00007b7          	lui	a5,0xc0000

000000000000458c <.LBB71_144>:
    458c:	000015b7          	lui	a1,0x1
    4590:	40b405b3          	sub	a1,s0,a1
    4594:	16f5b023          	sd	a5,352(a1) # 1160 <.LBB71_3+0xee4>
    4598:	000015b7          	lui	a1,0x1
    459c:	40b405b3          	sub	a1,s0,a1
    45a0:	6785b703          	ld	a4,1656(a1) # 1678 <.LBB71_4+0x474>
    45a4:	92843783          	ld	a5,-1752(s0)
    45a8:	00e78733          	add	a4,a5,a4
    45ac:	000015b7          	lui	a1,0x1
    45b0:	40b405b3          	sub	a1,s0,a1
    45b4:	6685b783          	ld	a5,1640(a1) # 1668 <.LBB71_4+0x464>
    45b8:	00d787b3          	add	a5,a5,a3
    45bc:	40f7073b          	subw	a4,a4,a5
    45c0:	2407071b          	addiw	a4,a4,576
    45c4:	400007b7          	lui	a5,0x40000
    45c8:	000015b7          	lui	a1,0x1
    45cc:	40b405b3          	sub	a1,s0,a1
    45d0:	16e5bc23          	sd	a4,376(a1) # 1178 <.LBB71_3+0xefc>
    45d4:	00075463          	bgez	a4,45dc <.LBB71_146>
    45d8:	c00007b7          	lui	a5,0xc0000

00000000000045dc <.LBB71_146>:
    45dc:	000015b7          	lui	a1,0x1
    45e0:	40b405b3          	sub	a1,s0,a1
    45e4:	16f5b823          	sd	a5,368(a1) # 1170 <.LBB71_3+0xef4>
    45e8:	000015b7          	lui	a1,0x1
    45ec:	40b405b3          	sub	a1,s0,a1
    45f0:	6605b703          	ld	a4,1632(a1) # 1660 <.LBB71_4+0x45c>
    45f4:	93043783          	ld	a5,-1744(s0)
    45f8:	00e78733          	add	a4,a5,a4
    45fc:	000015b7          	lui	a1,0x1
    4600:	40b405b3          	sub	a1,s0,a1
    4604:	6585b783          	ld	a5,1624(a1) # 1658 <.LBB71_4+0x454>
    4608:	00d787b3          	add	a5,a5,a3
    460c:	40f7073b          	subw	a4,a4,a5
    4610:	2407071b          	addiw	a4,a4,576
    4614:	400007b7          	lui	a5,0x40000
    4618:	000015b7          	lui	a1,0x1
    461c:	40b405b3          	sub	a1,s0,a1
    4620:	18e5b423          	sd	a4,392(a1) # 1188 <.LBB71_3+0xf0c>
    4624:	00075463          	bgez	a4,462c <.LBB71_148>
    4628:	c00007b7          	lui	a5,0xc0000

000000000000462c <.LBB71_148>:
    462c:	000015b7          	lui	a1,0x1
    4630:	40b405b3          	sub	a1,s0,a1
    4634:	18f5b023          	sd	a5,384(a1) # 1180 <.LBB71_3+0xf04>
    4638:	93843703          	ld	a4,-1736(s0)
    463c:	000015b7          	lui	a1,0x1
    4640:	40b405b3          	sub	a1,s0,a1
    4644:	6505b783          	ld	a5,1616(a1) # 1650 <.LBB71_4+0x44c>
    4648:	00f70733          	add	a4,a4,a5
    464c:	000015b7          	lui	a1,0x1
    4650:	40b405b3          	sub	a1,s0,a1
    4654:	6485b783          	ld	a5,1608(a1) # 1648 <.LBB71_4+0x444>
    4658:	00d787b3          	add	a5,a5,a3
    465c:	40f7073b          	subw	a4,a4,a5
    4660:	2407071b          	addiw	a4,a4,576
    4664:	400007b7          	lui	a5,0x40000
    4668:	000015b7          	lui	a1,0x1
    466c:	40b405b3          	sub	a1,s0,a1
    4670:	18e5bc23          	sd	a4,408(a1) # 1198 <.LBB71_3+0xf1c>
    4674:	00075463          	bgez	a4,467c <.LBB71_150>
    4678:	c00007b7          	lui	a5,0xc0000

000000000000467c <.LBB71_150>:
    467c:	000015b7          	lui	a1,0x1
    4680:	40b405b3          	sub	a1,s0,a1
    4684:	18f5b823          	sd	a5,400(a1) # 1190 <.LBB71_3+0xf14>
    4688:	94043703          	ld	a4,-1728(s0)
    468c:	000015b7          	lui	a1,0x1
    4690:	40b405b3          	sub	a1,s0,a1
    4694:	6405b783          	ld	a5,1600(a1) # 1640 <.LBB71_4+0x43c>
    4698:	00f70733          	add	a4,a4,a5
    469c:	000015b7          	lui	a1,0x1
    46a0:	40b405b3          	sub	a1,s0,a1
    46a4:	6385b783          	ld	a5,1592(a1) # 1638 <.LBB71_4+0x434>
    46a8:	00d787b3          	add	a5,a5,a3
    46ac:	40f7073b          	subw	a4,a4,a5
    46b0:	2407071b          	addiw	a4,a4,576
    46b4:	400007b7          	lui	a5,0x40000
    46b8:	000015b7          	lui	a1,0x1
    46bc:	40b405b3          	sub	a1,s0,a1
    46c0:	1ae5b423          	sd	a4,424(a1) # 11a8 <.LBB71_3+0xf2c>
    46c4:	00075463          	bgez	a4,46cc <.LBB71_152>
    46c8:	c00007b7          	lui	a5,0xc0000

00000000000046cc <.LBB71_152>:
    46cc:	000015b7          	lui	a1,0x1
    46d0:	40b405b3          	sub	a1,s0,a1
    46d4:	1af5b023          	sd	a5,416(a1) # 11a0 <.LBB71_3+0xf24>
    46d8:	94843703          	ld	a4,-1720(s0)
    46dc:	000015b7          	lui	a1,0x1
    46e0:	40b405b3          	sub	a1,s0,a1
    46e4:	6305b783          	ld	a5,1584(a1) # 1630 <.LBB71_4+0x42c>
    46e8:	00f70733          	add	a4,a4,a5
    46ec:	000015b7          	lui	a1,0x1
    46f0:	40b405b3          	sub	a1,s0,a1
    46f4:	6f05b783          	ld	a5,1776(a1) # 16f0 <.LBB71_4+0x4ec>
    46f8:	00d787b3          	add	a5,a5,a3
    46fc:	40f7073b          	subw	a4,a4,a5
    4700:	2407071b          	addiw	a4,a4,576
    4704:	400007b7          	lui	a5,0x40000
    4708:	000015b7          	lui	a1,0x1
    470c:	40b405b3          	sub	a1,s0,a1
    4710:	1ae5bc23          	sd	a4,440(a1) # 11b8 <.LBB71_3+0xf3c>
    4714:	00075463          	bgez	a4,471c <.LBB71_154>
    4718:	c00007b7          	lui	a5,0xc0000

000000000000471c <.LBB71_154>:
    471c:	000015b7          	lui	a1,0x1
    4720:	40b405b3          	sub	a1,s0,a1
    4724:	1af5b823          	sd	a5,432(a1) # 11b0 <.LBB71_3+0xf34>
    4728:	95043703          	ld	a4,-1712(s0)
    472c:	000015b7          	lui	a1,0x1
    4730:	40b405b3          	sub	a1,s0,a1
    4734:	6f85b783          	ld	a5,1784(a1) # 16f8 <.LBB71_4+0x4f4>
    4738:	00f70733          	add	a4,a4,a5
    473c:	000015b7          	lui	a1,0x1
    4740:	40b405b3          	sub	a1,s0,a1
    4744:	6d05b783          	ld	a5,1744(a1) # 16d0 <.LBB71_4+0x4cc>
    4748:	00d787b3          	add	a5,a5,a3
    474c:	40f7073b          	subw	a4,a4,a5
    4750:	2407071b          	addiw	a4,a4,576
    4754:	400007b7          	lui	a5,0x40000
    4758:	000015b7          	lui	a1,0x1
    475c:	40b405b3          	sub	a1,s0,a1
    4760:	1ce5b423          	sd	a4,456(a1) # 11c8 <.LBB71_3+0xf4c>
    4764:	00075463          	bgez	a4,476c <.LBB71_156>
    4768:	c00007b7          	lui	a5,0xc0000

000000000000476c <.LBB71_156>:
    476c:	000015b7          	lui	a1,0x1
    4770:	40b405b3          	sub	a1,s0,a1
    4774:	1cf5b023          	sd	a5,448(a1) # 11c0 <.LBB71_3+0xf44>
    4778:	95843703          	ld	a4,-1704(s0)
    477c:	000015b7          	lui	a1,0x1
    4780:	40b405b3          	sub	a1,s0,a1
    4784:	7085b783          	ld	a5,1800(a1) # 1708 <.LBB71_4+0x504>
    4788:	00f70733          	add	a4,a4,a5
    478c:	000015b7          	lui	a1,0x1
    4790:	40b405b3          	sub	a1,s0,a1
    4794:	6d85b783          	ld	a5,1752(a1) # 16d8 <.LBB71_4+0x4d4>
    4798:	00d787b3          	add	a5,a5,a3
    479c:	40f7073b          	subw	a4,a4,a5
    47a0:	2407071b          	addiw	a4,a4,576
    47a4:	400007b7          	lui	a5,0x40000
    47a8:	000015b7          	lui	a1,0x1
    47ac:	40b405b3          	sub	a1,s0,a1
    47b0:	1ce5bc23          	sd	a4,472(a1) # 11d8 <.LBB71_3+0xf5c>
    47b4:	00075463          	bgez	a4,47bc <.LBB71_158>
    47b8:	c00007b7          	lui	a5,0xc0000

00000000000047bc <.LBB71_158>:
    47bc:	000015b7          	lui	a1,0x1
    47c0:	40b405b3          	sub	a1,s0,a1
    47c4:	1cf5b823          	sd	a5,464(a1) # 11d0 <.LBB71_3+0xf54>
    47c8:	96043703          	ld	a4,-1696(s0)
    47cc:	000015b7          	lui	a1,0x1
    47d0:	40b405b3          	sub	a1,s0,a1
    47d4:	7185b783          	ld	a5,1816(a1) # 1718 <.LBB71_4+0x514>
    47d8:	00f70733          	add	a4,a4,a5
    47dc:	000015b7          	lui	a1,0x1
    47e0:	40b405b3          	sub	a1,s0,a1
    47e4:	6e05b783          	ld	a5,1760(a1) # 16e0 <.LBB71_4+0x4dc>
    47e8:	00d787b3          	add	a5,a5,a3
    47ec:	40f7073b          	subw	a4,a4,a5
    47f0:	2407071b          	addiw	a4,a4,576
    47f4:	400007b7          	lui	a5,0x40000
    47f8:	000015b7          	lui	a1,0x1
    47fc:	40b405b3          	sub	a1,s0,a1
    4800:	1ee5b423          	sd	a4,488(a1) # 11e8 <.LBB71_3+0xf6c>
    4804:	00075463          	bgez	a4,480c <.LBB71_160>
    4808:	c00007b7          	lui	a5,0xc0000

000000000000480c <.LBB71_160>:
    480c:	000015b7          	lui	a1,0x1
    4810:	40b405b3          	sub	a1,s0,a1
    4814:	1ef5b023          	sd	a5,480(a1) # 11e0 <.LBB71_3+0xf64>
    4818:	96843703          	ld	a4,-1688(s0)
    481c:	000015b7          	lui	a1,0x1
    4820:	40b405b3          	sub	a1,s0,a1
    4824:	7285b783          	ld	a5,1832(a1) # 1728 <.LBB71_4+0x524>
    4828:	00f70733          	add	a4,a4,a5
    482c:	000015b7          	lui	a1,0x1
    4830:	40b405b3          	sub	a1,s0,a1
    4834:	6e85b783          	ld	a5,1768(a1) # 16e8 <.LBB71_4+0x4e4>
    4838:	00d787b3          	add	a5,a5,a3
    483c:	40f7073b          	subw	a4,a4,a5
    4840:	2407071b          	addiw	a4,a4,576
    4844:	400007b7          	lui	a5,0x40000
    4848:	000015b7          	lui	a1,0x1
    484c:	40b405b3          	sub	a1,s0,a1
    4850:	1ee5bc23          	sd	a4,504(a1) # 11f8 <.LBB71_3+0xf7c>
    4854:	00075463          	bgez	a4,485c <.LBB71_162>
    4858:	c00007b7          	lui	a5,0xc0000

000000000000485c <.LBB71_162>:
    485c:	000015b7          	lui	a1,0x1
    4860:	40b405b3          	sub	a1,s0,a1
    4864:	1ef5b823          	sd	a5,496(a1) # 11f0 <.LBB71_3+0xf74>
    4868:	97043703          	ld	a4,-1680(s0)
    486c:	e8043783          	ld	a5,-384(s0)
    4870:	00f70733          	add	a4,a4,a5
    4874:	000015b7          	lui	a1,0x1
    4878:	40b405b3          	sub	a1,s0,a1
    487c:	7005b783          	ld	a5,1792(a1) # 1700 <.LBB71_4+0x4fc>
    4880:	00d787b3          	add	a5,a5,a3
    4884:	40f7073b          	subw	a4,a4,a5
    4888:	2407071b          	addiw	a4,a4,576
    488c:	400007b7          	lui	a5,0x40000
    4890:	000015b7          	lui	a1,0x1
    4894:	40b405b3          	sub	a1,s0,a1
    4898:	20e5b423          	sd	a4,520(a1) # 1208 <.LBB71_4+0x4>
    489c:	00075463          	bgez	a4,48a4 <.LBB71_164>
    48a0:	c00007b7          	lui	a5,0xc0000

00000000000048a4 <.LBB71_164>:
    48a4:	000015b7          	lui	a1,0x1
    48a8:	40b405b3          	sub	a1,s0,a1
    48ac:	20f5b023          	sd	a5,512(a1) # 1200 <.LBB71_3+0xf84>
    48b0:	97843703          	ld	a4,-1672(s0)
    48b4:	e9043783          	ld	a5,-368(s0)
    48b8:	00f70733          	add	a4,a4,a5
    48bc:	000015b7          	lui	a1,0x1
    48c0:	40b405b3          	sub	a1,s0,a1
    48c4:	7105b783          	ld	a5,1808(a1) # 1710 <.LBB71_4+0x50c>
    48c8:	00d787b3          	add	a5,a5,a3
    48cc:	40f7073b          	subw	a4,a4,a5
    48d0:	2407071b          	addiw	a4,a4,576
    48d4:	400007b7          	lui	a5,0x40000
    48d8:	000015b7          	lui	a1,0x1
    48dc:	40b405b3          	sub	a1,s0,a1
    48e0:	20e5bc23          	sd	a4,536(a1) # 1218 <.LBB71_4+0x14>
    48e4:	00075463          	bgez	a4,48ec <.LBB71_166>
    48e8:	c00007b7          	lui	a5,0xc0000

00000000000048ec <.LBB71_166>:
    48ec:	000015b7          	lui	a1,0x1
    48f0:	40b405b3          	sub	a1,s0,a1
    48f4:	20f5b823          	sd	a5,528(a1) # 1210 <.LBB71_4+0xc>
    48f8:	98043703          	ld	a4,-1664(s0)
    48fc:	ea043783          	ld	a5,-352(s0)
    4900:	00f70733          	add	a4,a4,a5
    4904:	000015b7          	lui	a1,0x1
    4908:	40b405b3          	sub	a1,s0,a1
    490c:	7205b783          	ld	a5,1824(a1) # 1720 <.LBB71_4+0x51c>
    4910:	00d787b3          	add	a5,a5,a3
    4914:	40f7073b          	subw	a4,a4,a5
    4918:	2407071b          	addiw	a4,a4,576
    491c:	400007b7          	lui	a5,0x40000
    4920:	000015b7          	lui	a1,0x1
    4924:	40b405b3          	sub	a1,s0,a1
    4928:	22e5b423          	sd	a4,552(a1) # 1228 <.LBB71_4+0x24>
    492c:	00075463          	bgez	a4,4934 <.LBB71_168>
    4930:	c00007b7          	lui	a5,0xc0000

0000000000004934 <.LBB71_168>:
    4934:	000015b7          	lui	a1,0x1
    4938:	40b405b3          	sub	a1,s0,a1
    493c:	22f5b023          	sd	a5,544(a1) # 1220 <.LBB71_4+0x1c>
    4940:	98843703          	ld	a4,-1656(s0)
    4944:	eb043783          	ld	a5,-336(s0)
    4948:	00f70733          	add	a4,a4,a5
    494c:	e7843783          	ld	a5,-392(s0)
    4950:	00d787b3          	add	a5,a5,a3
    4954:	40f7073b          	subw	a4,a4,a5
    4958:	2407071b          	addiw	a4,a4,576
    495c:	400007b7          	lui	a5,0x40000
    4960:	000015b7          	lui	a1,0x1
    4964:	40b405b3          	sub	a1,s0,a1
    4968:	22e5bc23          	sd	a4,568(a1) # 1238 <.LBB71_4+0x34>
    496c:	00075463          	bgez	a4,4974 <.LBB71_170>
    4970:	c00007b7          	lui	a5,0xc0000

0000000000004974 <.LBB71_170>:
    4974:	000015b7          	lui	a1,0x1
    4978:	40b405b3          	sub	a1,s0,a1
    497c:	22f5b823          	sd	a5,560(a1) # 1230 <.LBB71_4+0x2c>
    4980:	99043703          	ld	a4,-1648(s0)
    4984:	ec043783          	ld	a5,-320(s0)
    4988:	00f70733          	add	a4,a4,a5
    498c:	e8843783          	ld	a5,-376(s0)
    4990:	00d787b3          	add	a5,a5,a3
    4994:	40f7073b          	subw	a4,a4,a5
    4998:	2407071b          	addiw	a4,a4,576
    499c:	400007b7          	lui	a5,0x40000
    49a0:	000015b7          	lui	a1,0x1
    49a4:	40b405b3          	sub	a1,s0,a1
    49a8:	24e5b423          	sd	a4,584(a1) # 1248 <.LBB71_4+0x44>
    49ac:	00075463          	bgez	a4,49b4 <.LBB71_172>
    49b0:	c00007b7          	lui	a5,0xc0000

00000000000049b4 <.LBB71_172>:
    49b4:	000015b7          	lui	a1,0x1
    49b8:	40b405b3          	sub	a1,s0,a1
    49bc:	24f5b023          	sd	a5,576(a1) # 1240 <.LBB71_4+0x3c>
    49c0:	99843703          	ld	a4,-1640(s0)
    49c4:	ed043783          	ld	a5,-304(s0)
    49c8:	00f70733          	add	a4,a4,a5
    49cc:	e9843783          	ld	a5,-360(s0)
    49d0:	00d787b3          	add	a5,a5,a3
    49d4:	40f7073b          	subw	a4,a4,a5
    49d8:	2407071b          	addiw	a4,a4,576
    49dc:	400007b7          	lui	a5,0x40000
    49e0:	000015b7          	lui	a1,0x1
    49e4:	40b405b3          	sub	a1,s0,a1
    49e8:	24e5bc23          	sd	a4,600(a1) # 1258 <.LBB71_4+0x54>
    49ec:	00075463          	bgez	a4,49f4 <.LBB71_174>
    49f0:	c00007b7          	lui	a5,0xc0000

00000000000049f4 <.LBB71_174>:
    49f4:	000015b7          	lui	a1,0x1
    49f8:	40b405b3          	sub	a1,s0,a1
    49fc:	24f5b823          	sd	a5,592(a1) # 1250 <.LBB71_4+0x4c>
    4a00:	9a043703          	ld	a4,-1632(s0)
    4a04:	ee043783          	ld	a5,-288(s0)
    4a08:	00f70733          	add	a4,a4,a5
    4a0c:	ea843783          	ld	a5,-344(s0)
    4a10:	00d787b3          	add	a5,a5,a3
    4a14:	40f7073b          	subw	a4,a4,a5
    4a18:	2407071b          	addiw	a4,a4,576
    4a1c:	400007b7          	lui	a5,0x40000
    4a20:	000015b7          	lui	a1,0x1
    4a24:	40b405b3          	sub	a1,s0,a1
    4a28:	26e5b423          	sd	a4,616(a1) # 1268 <.LBB71_4+0x64>
    4a2c:	00075463          	bgez	a4,4a34 <.LBB71_176>
    4a30:	c00007b7          	lui	a5,0xc0000

0000000000004a34 <.LBB71_176>:
    4a34:	000015b7          	lui	a1,0x1
    4a38:	40b405b3          	sub	a1,s0,a1
    4a3c:	26f5b023          	sd	a5,608(a1) # 1260 <.LBB71_4+0x5c>
    4a40:	9a843703          	ld	a4,-1624(s0)
    4a44:	ef043783          	ld	a5,-272(s0)
    4a48:	00f70733          	add	a4,a4,a5
    4a4c:	eb843783          	ld	a5,-328(s0)
    4a50:	00d787b3          	add	a5,a5,a3
    4a54:	40f7073b          	subw	a4,a4,a5
    4a58:	2407071b          	addiw	a4,a4,576
    4a5c:	400007b7          	lui	a5,0x40000
    4a60:	000015b7          	lui	a1,0x1
    4a64:	40b405b3          	sub	a1,s0,a1
    4a68:	26e5bc23          	sd	a4,632(a1) # 1278 <.LBB71_4+0x74>
    4a6c:	00075463          	bgez	a4,4a74 <.LBB71_178>
    4a70:	c00007b7          	lui	a5,0xc0000

0000000000004a74 <.LBB71_178>:
    4a74:	000015b7          	lui	a1,0x1
    4a78:	40b405b3          	sub	a1,s0,a1
    4a7c:	26f5b823          	sd	a5,624(a1) # 1270 <.LBB71_4+0x6c>
    4a80:	9b043703          	ld	a4,-1616(s0)
    4a84:	f0043783          	ld	a5,-256(s0)
    4a88:	00f70733          	add	a4,a4,a5
    4a8c:	ec843783          	ld	a5,-312(s0)
    4a90:	00d787b3          	add	a5,a5,a3
    4a94:	40f7073b          	subw	a4,a4,a5
    4a98:	2407071b          	addiw	a4,a4,576
    4a9c:	400007b7          	lui	a5,0x40000
    4aa0:	000015b7          	lui	a1,0x1
    4aa4:	40b405b3          	sub	a1,s0,a1
    4aa8:	28e5b423          	sd	a4,648(a1) # 1288 <.LBB71_4+0x84>
    4aac:	00075463          	bgez	a4,4ab4 <.LBB71_180>
    4ab0:	c00007b7          	lui	a5,0xc0000

0000000000004ab4 <.LBB71_180>:
    4ab4:	000015b7          	lui	a1,0x1
    4ab8:	40b405b3          	sub	a1,s0,a1
    4abc:	28f5b023          	sd	a5,640(a1) # 1280 <.LBB71_4+0x7c>
    4ac0:	9b843703          	ld	a4,-1608(s0)
    4ac4:	f2043783          	ld	a5,-224(s0)
    4ac8:	00f70733          	add	a4,a4,a5
    4acc:	ed843783          	ld	a5,-296(s0)
    4ad0:	00d787b3          	add	a5,a5,a3
    4ad4:	40f7073b          	subw	a4,a4,a5
    4ad8:	2407071b          	addiw	a4,a4,576
    4adc:	400007b7          	lui	a5,0x40000
    4ae0:	000015b7          	lui	a1,0x1
    4ae4:	40b405b3          	sub	a1,s0,a1
    4ae8:	28e5bc23          	sd	a4,664(a1) # 1298 <.LBB71_4+0x94>
    4aec:	00075463          	bgez	a4,4af4 <.LBB71_182>
    4af0:	c00007b7          	lui	a5,0xc0000

0000000000004af4 <.LBB71_182>:
    4af4:	000015b7          	lui	a1,0x1
    4af8:	40b405b3          	sub	a1,s0,a1
    4afc:	28f5b823          	sd	a5,656(a1) # 1290 <.LBB71_4+0x8c>
    4b00:	9c043703          	ld	a4,-1600(s0)
    4b04:	f3043783          	ld	a5,-208(s0)
    4b08:	00f70733          	add	a4,a4,a5
    4b0c:	ee843783          	ld	a5,-280(s0)
    4b10:	00d787b3          	add	a5,a5,a3
    4b14:	40f7073b          	subw	a4,a4,a5
    4b18:	2407071b          	addiw	a4,a4,576
    4b1c:	400007b7          	lui	a5,0x40000
    4b20:	000015b7          	lui	a1,0x1
    4b24:	40b405b3          	sub	a1,s0,a1
    4b28:	2ae5b423          	sd	a4,680(a1) # 12a8 <.LBB71_4+0xa4>
    4b2c:	00075463          	bgez	a4,4b34 <.LBB71_184>
    4b30:	c00007b7          	lui	a5,0xc0000

0000000000004b34 <.LBB71_184>:
    4b34:	000015b7          	lui	a1,0x1
    4b38:	40b405b3          	sub	a1,s0,a1
    4b3c:	2af5b023          	sd	a5,672(a1) # 12a0 <.LBB71_4+0x9c>
    4b40:	9c843703          	ld	a4,-1592(s0)
    4b44:	f4043783          	ld	a5,-192(s0)
    4b48:	00f70733          	add	a4,a4,a5
    4b4c:	ef843783          	ld	a5,-264(s0)
    4b50:	00d787b3          	add	a5,a5,a3
    4b54:	40f7073b          	subw	a4,a4,a5
    4b58:	2407071b          	addiw	a4,a4,576
    4b5c:	400007b7          	lui	a5,0x40000
    4b60:	000015b7          	lui	a1,0x1
    4b64:	40b405b3          	sub	a1,s0,a1
    4b68:	2ae5bc23          	sd	a4,696(a1) # 12b8 <.LBB71_4+0xb4>
    4b6c:	00075463          	bgez	a4,4b74 <.LBB71_186>
    4b70:	c00007b7          	lui	a5,0xc0000

0000000000004b74 <.LBB71_186>:
    4b74:	000015b7          	lui	a1,0x1
    4b78:	40b405b3          	sub	a1,s0,a1
    4b7c:	2af5b823          	sd	a5,688(a1) # 12b0 <.LBB71_4+0xac>
    4b80:	9d043703          	ld	a4,-1584(s0)
    4b84:	f5043783          	ld	a5,-176(s0)
    4b88:	00f70733          	add	a4,a4,a5
    4b8c:	f0843783          	ld	a5,-248(s0)
    4b90:	00d787b3          	add	a5,a5,a3
    4b94:	40f7073b          	subw	a4,a4,a5
    4b98:	2407071b          	addiw	a4,a4,576
    4b9c:	400007b7          	lui	a5,0x40000
    4ba0:	000015b7          	lui	a1,0x1
    4ba4:	40b405b3          	sub	a1,s0,a1
    4ba8:	2ce5b423          	sd	a4,712(a1) # 12c8 <.LBB71_4+0xc4>
    4bac:	00075463          	bgez	a4,4bb4 <.LBB71_188>
    4bb0:	c00007b7          	lui	a5,0xc0000

0000000000004bb4 <.LBB71_188>:
    4bb4:	000015b7          	lui	a1,0x1
    4bb8:	40b405b3          	sub	a1,s0,a1
    4bbc:	2cf5b023          	sd	a5,704(a1) # 12c0 <.LBB71_4+0xbc>
    4bc0:	9d843703          	ld	a4,-1576(s0)
    4bc4:	f6043783          	ld	a5,-160(s0)
    4bc8:	00f70733          	add	a4,a4,a5
    4bcc:	f2843783          	ld	a5,-216(s0)
    4bd0:	00d787b3          	add	a5,a5,a3
    4bd4:	40f7073b          	subw	a4,a4,a5
    4bd8:	2407071b          	addiw	a4,a4,576
    4bdc:	400007b7          	lui	a5,0x40000
    4be0:	000015b7          	lui	a1,0x1
    4be4:	40b405b3          	sub	a1,s0,a1
    4be8:	2ce5bc23          	sd	a4,728(a1) # 12d8 <.LBB71_4+0xd4>
    4bec:	00075463          	bgez	a4,4bf4 <.LBB71_190>
    4bf0:	c00007b7          	lui	a5,0xc0000

0000000000004bf4 <.LBB71_190>:
    4bf4:	000015b7          	lui	a1,0x1
    4bf8:	40b405b3          	sub	a1,s0,a1
    4bfc:	2cf5b823          	sd	a5,720(a1) # 12d0 <.LBB71_4+0xcc>
    4c00:	9e043703          	ld	a4,-1568(s0)
    4c04:	f7043783          	ld	a5,-144(s0)
    4c08:	00f70733          	add	a4,a4,a5
    4c0c:	f3843783          	ld	a5,-200(s0)
    4c10:	00d787b3          	add	a5,a5,a3
    4c14:	40f7073b          	subw	a4,a4,a5
    4c18:	2407071b          	addiw	a4,a4,576
    4c1c:	400007b7          	lui	a5,0x40000
    4c20:	000015b7          	lui	a1,0x1
    4c24:	40b405b3          	sub	a1,s0,a1
    4c28:	2ee5b423          	sd	a4,744(a1) # 12e8 <.LBB71_4+0xe4>
    4c2c:	00075463          	bgez	a4,4c34 <.LBB71_192>
    4c30:	c00007b7          	lui	a5,0xc0000

0000000000004c34 <.LBB71_192>:
    4c34:	000015b7          	lui	a1,0x1
    4c38:	40b405b3          	sub	a1,s0,a1
    4c3c:	2ef5b023          	sd	a5,736(a1) # 12e0 <.LBB71_4+0xdc>
    4c40:	9e843703          	ld	a4,-1560(s0)
    4c44:	f7843783          	ld	a5,-136(s0)
    4c48:	00f70733          	add	a4,a4,a5
    4c4c:	f4843783          	ld	a5,-184(s0)
    4c50:	00d787b3          	add	a5,a5,a3
    4c54:	40f7073b          	subw	a4,a4,a5
    4c58:	2407071b          	addiw	a4,a4,576
    4c5c:	400007b7          	lui	a5,0x40000
    4c60:	000015b7          	lui	a1,0x1
    4c64:	40b405b3          	sub	a1,s0,a1
    4c68:	2ee5bc23          	sd	a4,760(a1) # 12f8 <.LBB71_4+0xf4>
    4c6c:	00075463          	bgez	a4,4c74 <.LBB71_194>
    4c70:	c00007b7          	lui	a5,0xc0000

0000000000004c74 <.LBB71_194>:
    4c74:	000015b7          	lui	a1,0x1
    4c78:	40b405b3          	sub	a1,s0,a1
    4c7c:	2ef5b823          	sd	a5,752(a1) # 12f0 <.LBB71_4+0xec>
    4c80:	9f043703          	ld	a4,-1552(s0)
    4c84:	f8043783          	ld	a5,-128(s0)
    4c88:	00f70733          	add	a4,a4,a5
    4c8c:	f5843783          	ld	a5,-168(s0)
    4c90:	00d787b3          	add	a5,a5,a3
    4c94:	40f7073b          	subw	a4,a4,a5
    4c98:	2407071b          	addiw	a4,a4,576
    4c9c:	400007b7          	lui	a5,0x40000
    4ca0:	000015b7          	lui	a1,0x1
    4ca4:	40b405b3          	sub	a1,s0,a1
    4ca8:	30e5b423          	sd	a4,776(a1) # 1308 <.LBB71_4+0x104>
    4cac:	00075463          	bgez	a4,4cb4 <.LBB71_196>
    4cb0:	c00007b7          	lui	a5,0xc0000

0000000000004cb4 <.LBB71_196>:
    4cb4:	000015b7          	lui	a1,0x1
    4cb8:	40b405b3          	sub	a1,s0,a1
    4cbc:	30f5b023          	sd	a5,768(a1) # 1300 <.LBB71_4+0xfc>
    4cc0:	9f843703          	ld	a4,-1544(s0)
    4cc4:	f8843783          	ld	a5,-120(s0)
    4cc8:	00f70733          	add	a4,a4,a5
    4ccc:	f6843783          	ld	a5,-152(s0)
    4cd0:	00d786b3          	add	a3,a5,a3
    4cd4:	40d7073b          	subw	a4,a4,a3
    4cd8:	2407069b          	addiw	a3,a4,576
    4cdc:	40000737          	lui	a4,0x40000
    4ce0:	bf043783          	ld	a5,-1040(s0)
    4ce4:	000015b7          	lui	a1,0x1
    4ce8:	40b405b3          	sub	a1,s0,a1
    4cec:	30d5bc23          	sd	a3,792(a1) # 1318 <.LBB71_4+0x114>
    4cf0:	0006d463          	bgez	a3,4cf8 <.LBB71_198>
    4cf4:	c0000737          	lui	a4,0xc0000

0000000000004cf8 <.LBB71_198>:
    4cf8:	000015b7          	lui	a1,0x1
    4cfc:	40b405b3          	sub	a1,s0,a1
    4d00:	30e5b823          	sd	a4,784(a1) # 1310 <.LBB71_4+0x10c>
    4d04:	00600693          	li	a3,6
    4d08:	02d50633          	mul	a2,a0,a3
    4d0c:	a0043683          	ld	a3,-1536(s0)
    4d10:	00001537          	lui	a0,0x1
    4d14:	40a40533          	sub	a0,s0,a0
    4d18:	6c853703          	ld	a4,1736(a0) # 16c8 <.LBB71_4+0x4c4>
    4d1c:	00e686b3          	add	a3,a3,a4
    4d20:	00001537          	lui	a0,0x1
    4d24:	40a40533          	sub	a0,s0,a0
    4d28:	6c053703          	ld	a4,1728(a0) # 16c0 <.LBB71_4+0x4bc>
    4d2c:	00c70733          	add	a4,a4,a2
    4d30:	40e686bb          	subw	a3,a3,a4
    4d34:	2406869b          	addiw	a3,a3,576
    4d38:	40000737          	lui	a4,0x40000
    4d3c:	00001537          	lui	a0,0x1
    4d40:	40a40533          	sub	a0,s0,a0
    4d44:	32d53423          	sd	a3,808(a0) # 1328 <.LBB71_4+0x124>
    4d48:	0006d463          	bgez	a3,4d50 <.LBB71_200>
    4d4c:	c0000737          	lui	a4,0xc0000

0000000000004d50 <.LBB71_200>:
    4d50:	00001537          	lui	a0,0x1
    4d54:	40a40533          	sub	a0,s0,a0
    4d58:	32e53023          	sd	a4,800(a0) # 1320 <.LBB71_4+0x11c>
    4d5c:	a0843683          	ld	a3,-1528(s0)
    4d60:	00001537          	lui	a0,0x1
    4d64:	40a40533          	sub	a0,s0,a0
    4d68:	6b853703          	ld	a4,1720(a0) # 16b8 <.LBB71_4+0x4b4>
    4d6c:	00e686b3          	add	a3,a3,a4
    4d70:	00001537          	lui	a0,0x1
    4d74:	40a40533          	sub	a0,s0,a0
    4d78:	6b053703          	ld	a4,1712(a0) # 16b0 <.LBB71_4+0x4ac>
    4d7c:	00c70733          	add	a4,a4,a2
    4d80:	40e686bb          	subw	a3,a3,a4
    4d84:	2406869b          	addiw	a3,a3,576
    4d88:	40000737          	lui	a4,0x40000
    4d8c:	00001537          	lui	a0,0x1
    4d90:	40a40533          	sub	a0,s0,a0
    4d94:	32d53c23          	sd	a3,824(a0) # 1338 <.LBB71_4+0x134>
    4d98:	0006d463          	bgez	a3,4da0 <.LBB71_202>
    4d9c:	c0000737          	lui	a4,0xc0000

0000000000004da0 <.LBB71_202>:
    4da0:	00001537          	lui	a0,0x1
    4da4:	40a40533          	sub	a0,s0,a0
    4da8:	32e53823          	sd	a4,816(a0) # 1330 <.LBB71_4+0x12c>
    4dac:	a1043683          	ld	a3,-1520(s0)
    4db0:	00001537          	lui	a0,0x1
    4db4:	40a40533          	sub	a0,s0,a0
    4db8:	6a853703          	ld	a4,1704(a0) # 16a8 <.LBB71_4+0x4a4>
    4dbc:	00e686b3          	add	a3,a3,a4
    4dc0:	00001537          	lui	a0,0x1
    4dc4:	40a40533          	sub	a0,s0,a0
    4dc8:	6a053703          	ld	a4,1696(a0) # 16a0 <.LBB71_4+0x49c>
    4dcc:	00c70733          	add	a4,a4,a2
    4dd0:	40e686bb          	subw	a3,a3,a4
    4dd4:	2406869b          	addiw	a3,a3,576
    4dd8:	40000737          	lui	a4,0x40000
    4ddc:	00001537          	lui	a0,0x1
    4de0:	40a40533          	sub	a0,s0,a0
    4de4:	34d53423          	sd	a3,840(a0) # 1348 <.LBB71_4+0x144>
    4de8:	0006d463          	bgez	a3,4df0 <.LBB71_204>
    4dec:	c0000737          	lui	a4,0xc0000

0000000000004df0 <.LBB71_204>:
    4df0:	00001537          	lui	a0,0x1
    4df4:	40a40533          	sub	a0,s0,a0
    4df8:	34e53023          	sd	a4,832(a0) # 1340 <.LBB71_4+0x13c>
    4dfc:	a1843683          	ld	a3,-1512(s0)
    4e00:	00001537          	lui	a0,0x1
    4e04:	40a40533          	sub	a0,s0,a0
    4e08:	69853703          	ld	a4,1688(a0) # 1698 <.LBB71_4+0x494>
    4e0c:	00e686b3          	add	a3,a3,a4
    4e10:	00001537          	lui	a0,0x1
    4e14:	40a40533          	sub	a0,s0,a0
    4e18:	69053703          	ld	a4,1680(a0) # 1690 <.LBB71_4+0x48c>
    4e1c:	00c70733          	add	a4,a4,a2
    4e20:	40e686bb          	subw	a3,a3,a4
    4e24:	2406869b          	addiw	a3,a3,576
    4e28:	40000737          	lui	a4,0x40000
    4e2c:	00001537          	lui	a0,0x1
    4e30:	40a40533          	sub	a0,s0,a0
    4e34:	34d53c23          	sd	a3,856(a0) # 1358 <.LBB71_4+0x154>
    4e38:	0006d463          	bgez	a3,4e40 <.LBB71_206>
    4e3c:	c0000737          	lui	a4,0xc0000

0000000000004e40 <.LBB71_206>:
    4e40:	00001537          	lui	a0,0x1
    4e44:	40a40533          	sub	a0,s0,a0
    4e48:	34e53823          	sd	a4,848(a0) # 1350 <.LBB71_4+0x14c>
    4e4c:	a2043683          	ld	a3,-1504(s0)
    4e50:	00001537          	lui	a0,0x1
    4e54:	40a40533          	sub	a0,s0,a0
    4e58:	68853703          	ld	a4,1672(a0) # 1688 <.LBB71_4+0x484>
    4e5c:	00e686b3          	add	a3,a3,a4
    4e60:	00001537          	lui	a0,0x1
    4e64:	40a40533          	sub	a0,s0,a0
    4e68:	68053703          	ld	a4,1664(a0) # 1680 <.LBB71_4+0x47c>
    4e6c:	00c70733          	add	a4,a4,a2
    4e70:	40e686bb          	subw	a3,a3,a4
    4e74:	2406869b          	addiw	a3,a3,576
    4e78:	40000737          	lui	a4,0x40000
    4e7c:	00001537          	lui	a0,0x1
    4e80:	40a40533          	sub	a0,s0,a0
    4e84:	36d53423          	sd	a3,872(a0) # 1368 <.LBB71_4+0x164>
    4e88:	0006d463          	bgez	a3,4e90 <.LBB71_208>
    4e8c:	c0000737          	lui	a4,0xc0000

0000000000004e90 <.LBB71_208>:
    4e90:	00001537          	lui	a0,0x1
    4e94:	40a40533          	sub	a0,s0,a0
    4e98:	36e53023          	sd	a4,864(a0) # 1360 <.LBB71_4+0x15c>
    4e9c:	a2843683          	ld	a3,-1496(s0)
    4ea0:	00001537          	lui	a0,0x1
    4ea4:	40a40533          	sub	a0,s0,a0
    4ea8:	67853703          	ld	a4,1656(a0) # 1678 <.LBB71_4+0x474>
    4eac:	00e686b3          	add	a3,a3,a4
    4eb0:	00001537          	lui	a0,0x1
    4eb4:	40a40533          	sub	a0,s0,a0
    4eb8:	66853703          	ld	a4,1640(a0) # 1668 <.LBB71_4+0x464>
    4ebc:	00c70733          	add	a4,a4,a2
    4ec0:	40e686bb          	subw	a3,a3,a4
    4ec4:	2406869b          	addiw	a3,a3,576
    4ec8:	40000737          	lui	a4,0x40000
    4ecc:	00001537          	lui	a0,0x1
    4ed0:	40a40533          	sub	a0,s0,a0
    4ed4:	36d53c23          	sd	a3,888(a0) # 1378 <.LBB71_4+0x174>
    4ed8:	0006d463          	bgez	a3,4ee0 <.LBB71_210>
    4edc:	c0000737          	lui	a4,0xc0000

0000000000004ee0 <.LBB71_210>:
    4ee0:	00001537          	lui	a0,0x1
    4ee4:	40a40533          	sub	a0,s0,a0
    4ee8:	36e53823          	sd	a4,880(a0) # 1370 <.LBB71_4+0x16c>
    4eec:	a3043683          	ld	a3,-1488(s0)
    4ef0:	00001537          	lui	a0,0x1
    4ef4:	40a40533          	sub	a0,s0,a0
    4ef8:	66053703          	ld	a4,1632(a0) # 1660 <.LBB71_4+0x45c>
    4efc:	00e686b3          	add	a3,a3,a4
    4f00:	00001537          	lui	a0,0x1
    4f04:	40a40533          	sub	a0,s0,a0
    4f08:	65853703          	ld	a4,1624(a0) # 1658 <.LBB71_4+0x454>
    4f0c:	00c70733          	add	a4,a4,a2
    4f10:	40e686bb          	subw	a3,a3,a4
    4f14:	2406869b          	addiw	a3,a3,576
    4f18:	40000737          	lui	a4,0x40000
    4f1c:	00001537          	lui	a0,0x1
    4f20:	40a40533          	sub	a0,s0,a0
    4f24:	38d53423          	sd	a3,904(a0) # 1388 <.LBB71_4+0x184>
    4f28:	0006d463          	bgez	a3,4f30 <.LBB71_212>
    4f2c:	c0000737          	lui	a4,0xc0000

0000000000004f30 <.LBB71_212>:
    4f30:	00001537          	lui	a0,0x1
    4f34:	40a40533          	sub	a0,s0,a0
    4f38:	38e53023          	sd	a4,896(a0) # 1380 <.LBB71_4+0x17c>
    4f3c:	a3843683          	ld	a3,-1480(s0)
    4f40:	00001537          	lui	a0,0x1
    4f44:	40a40533          	sub	a0,s0,a0
    4f48:	65053703          	ld	a4,1616(a0) # 1650 <.LBB71_4+0x44c>
    4f4c:	00e686b3          	add	a3,a3,a4
    4f50:	00001537          	lui	a0,0x1
    4f54:	40a40533          	sub	a0,s0,a0
    4f58:	64853703          	ld	a4,1608(a0) # 1648 <.LBB71_4+0x444>
    4f5c:	00c70733          	add	a4,a4,a2
    4f60:	40e686bb          	subw	a3,a3,a4
    4f64:	2406869b          	addiw	a3,a3,576
    4f68:	40000737          	lui	a4,0x40000
    4f6c:	00001537          	lui	a0,0x1
    4f70:	40a40533          	sub	a0,s0,a0
    4f74:	38d53c23          	sd	a3,920(a0) # 1398 <.LBB71_4+0x194>
    4f78:	0006d463          	bgez	a3,4f80 <.LBB71_214>
    4f7c:	c0000737          	lui	a4,0xc0000

0000000000004f80 <.LBB71_214>:
    4f80:	00001537          	lui	a0,0x1
    4f84:	40a40533          	sub	a0,s0,a0
    4f88:	38e53823          	sd	a4,912(a0) # 1390 <.LBB71_4+0x18c>
    4f8c:	a4043683          	ld	a3,-1472(s0)
    4f90:	00001537          	lui	a0,0x1
    4f94:	40a40533          	sub	a0,s0,a0
    4f98:	64053703          	ld	a4,1600(a0) # 1640 <.LBB71_4+0x43c>
    4f9c:	00e686b3          	add	a3,a3,a4
    4fa0:	00001537          	lui	a0,0x1
    4fa4:	40a40533          	sub	a0,s0,a0
    4fa8:	63853703          	ld	a4,1592(a0) # 1638 <.LBB71_4+0x434>
    4fac:	00c70733          	add	a4,a4,a2
    4fb0:	40e686bb          	subw	a3,a3,a4
    4fb4:	2406869b          	addiw	a3,a3,576
    4fb8:	40000737          	lui	a4,0x40000
    4fbc:	00001537          	lui	a0,0x1
    4fc0:	40a40533          	sub	a0,s0,a0
    4fc4:	3ad53423          	sd	a3,936(a0) # 13a8 <.LBB71_4+0x1a4>
    4fc8:	0006d463          	bgez	a3,4fd0 <.LBB71_216>
    4fcc:	c0000737          	lui	a4,0xc0000

0000000000004fd0 <.LBB71_216>:
    4fd0:	00001537          	lui	a0,0x1
    4fd4:	40a40533          	sub	a0,s0,a0
    4fd8:	3ae53023          	sd	a4,928(a0) # 13a0 <.LBB71_4+0x19c>
    4fdc:	a4843683          	ld	a3,-1464(s0)
    4fe0:	00001537          	lui	a0,0x1
    4fe4:	40a40533          	sub	a0,s0,a0
    4fe8:	63053703          	ld	a4,1584(a0) # 1630 <.LBB71_4+0x42c>
    4fec:	00e686b3          	add	a3,a3,a4
    4ff0:	00001537          	lui	a0,0x1
    4ff4:	40a40533          	sub	a0,s0,a0
    4ff8:	6f053703          	ld	a4,1776(a0) # 16f0 <.LBB71_4+0x4ec>
    4ffc:	00c70733          	add	a4,a4,a2
    5000:	40e686bb          	subw	a3,a3,a4
    5004:	2406869b          	addiw	a3,a3,576
    5008:	40000737          	lui	a4,0x40000
    500c:	00001537          	lui	a0,0x1
    5010:	40a40533          	sub	a0,s0,a0
    5014:	3ad53c23          	sd	a3,952(a0) # 13b8 <.LBB71_4+0x1b4>
    5018:	0006d463          	bgez	a3,5020 <.LBB71_218>
    501c:	c0000737          	lui	a4,0xc0000

0000000000005020 <.LBB71_218>:
    5020:	00001537          	lui	a0,0x1
    5024:	40a40533          	sub	a0,s0,a0
    5028:	3ae53823          	sd	a4,944(a0) # 13b0 <.LBB71_4+0x1ac>
    502c:	a5043683          	ld	a3,-1456(s0)
    5030:	00001537          	lui	a0,0x1
    5034:	40a40533          	sub	a0,s0,a0
    5038:	6f853703          	ld	a4,1784(a0) # 16f8 <.LBB71_4+0x4f4>
    503c:	00e686b3          	add	a3,a3,a4
    5040:	00001537          	lui	a0,0x1
    5044:	40a40533          	sub	a0,s0,a0
    5048:	6d053703          	ld	a4,1744(a0) # 16d0 <.LBB71_4+0x4cc>
    504c:	00c70733          	add	a4,a4,a2
    5050:	40e686bb          	subw	a3,a3,a4
    5054:	2406869b          	addiw	a3,a3,576
    5058:	40000737          	lui	a4,0x40000
    505c:	00001537          	lui	a0,0x1
    5060:	40a40533          	sub	a0,s0,a0
    5064:	3cd53423          	sd	a3,968(a0) # 13c8 <.LBB71_4+0x1c4>
    5068:	0006d463          	bgez	a3,5070 <.LBB71_220>
    506c:	c0000737          	lui	a4,0xc0000

0000000000005070 <.LBB71_220>:
    5070:	00001537          	lui	a0,0x1
    5074:	40a40533          	sub	a0,s0,a0
    5078:	3ce53023          	sd	a4,960(a0) # 13c0 <.LBB71_4+0x1bc>
    507c:	a5843683          	ld	a3,-1448(s0)
    5080:	00001537          	lui	a0,0x1
    5084:	40a40533          	sub	a0,s0,a0
    5088:	70853703          	ld	a4,1800(a0) # 1708 <.LBB71_4+0x504>
    508c:	00e686b3          	add	a3,a3,a4
    5090:	00001537          	lui	a0,0x1
    5094:	40a40533          	sub	a0,s0,a0
    5098:	6d853703          	ld	a4,1752(a0) # 16d8 <.LBB71_4+0x4d4>
    509c:	00c70733          	add	a4,a4,a2
    50a0:	40e686bb          	subw	a3,a3,a4
    50a4:	2406869b          	addiw	a3,a3,576
    50a8:	40000737          	lui	a4,0x40000
    50ac:	00001537          	lui	a0,0x1
    50b0:	40a40533          	sub	a0,s0,a0
    50b4:	3cd53c23          	sd	a3,984(a0) # 13d8 <.LBB71_4+0x1d4>
    50b8:	0006d463          	bgez	a3,50c0 <.LBB71_222>
    50bc:	c0000737          	lui	a4,0xc0000

00000000000050c0 <.LBB71_222>:
    50c0:	00001537          	lui	a0,0x1
    50c4:	40a40533          	sub	a0,s0,a0
    50c8:	3ce53823          	sd	a4,976(a0) # 13d0 <.LBB71_4+0x1cc>
    50cc:	a6043683          	ld	a3,-1440(s0)
    50d0:	00001537          	lui	a0,0x1
    50d4:	40a40533          	sub	a0,s0,a0
    50d8:	71853703          	ld	a4,1816(a0) # 1718 <.LBB71_4+0x514>
    50dc:	00e686b3          	add	a3,a3,a4
    50e0:	00001537          	lui	a0,0x1
    50e4:	40a40533          	sub	a0,s0,a0
    50e8:	6e053703          	ld	a4,1760(a0) # 16e0 <.LBB71_4+0x4dc>
    50ec:	00c70733          	add	a4,a4,a2
    50f0:	40e686bb          	subw	a3,a3,a4
    50f4:	2406869b          	addiw	a3,a3,576
    50f8:	40000737          	lui	a4,0x40000
    50fc:	00001537          	lui	a0,0x1
    5100:	40a40533          	sub	a0,s0,a0
    5104:	3ed53423          	sd	a3,1000(a0) # 13e8 <.LBB71_4+0x1e4>
    5108:	0006d463          	bgez	a3,5110 <.LBB71_224>
    510c:	c0000737          	lui	a4,0xc0000

0000000000005110 <.LBB71_224>:
    5110:	00001537          	lui	a0,0x1
    5114:	40a40533          	sub	a0,s0,a0
    5118:	3ee53023          	sd	a4,992(a0) # 13e0 <.LBB71_4+0x1dc>
    511c:	a6843683          	ld	a3,-1432(s0)
    5120:	00001537          	lui	a0,0x1
    5124:	40a40533          	sub	a0,s0,a0
    5128:	72853703          	ld	a4,1832(a0) # 1728 <.LBB71_4+0x524>
    512c:	00e686b3          	add	a3,a3,a4
    5130:	00001537          	lui	a0,0x1
    5134:	40a40533          	sub	a0,s0,a0
    5138:	6e853703          	ld	a4,1768(a0) # 16e8 <.LBB71_4+0x4e4>
    513c:	00c70733          	add	a4,a4,a2
    5140:	40e686bb          	subw	a3,a3,a4
    5144:	2406869b          	addiw	a3,a3,576
    5148:	40000737          	lui	a4,0x40000
    514c:	00001537          	lui	a0,0x1
    5150:	40a40533          	sub	a0,s0,a0
    5154:	3ed53c23          	sd	a3,1016(a0) # 13f8 <.LBB71_4+0x1f4>
    5158:	0006d463          	bgez	a3,5160 <.LBB71_226>
    515c:	c0000737          	lui	a4,0xc0000

0000000000005160 <.LBB71_226>:
    5160:	00001537          	lui	a0,0x1
    5164:	40a40533          	sub	a0,s0,a0
    5168:	3ee53823          	sd	a4,1008(a0) # 13f0 <.LBB71_4+0x1ec>
    516c:	a7043683          	ld	a3,-1424(s0)
    5170:	e8043703          	ld	a4,-384(s0)
    5174:	00e686b3          	add	a3,a3,a4
    5178:	00001537          	lui	a0,0x1
    517c:	40a40533          	sub	a0,s0,a0
    5180:	70053703          	ld	a4,1792(a0) # 1700 <.LBB71_4+0x4fc>
    5184:	00c70733          	add	a4,a4,a2
    5188:	40e686bb          	subw	a3,a3,a4
    518c:	2406869b          	addiw	a3,a3,576
    5190:	40000737          	lui	a4,0x40000
    5194:	00001537          	lui	a0,0x1
    5198:	40a40533          	sub	a0,s0,a0
    519c:	40d53423          	sd	a3,1032(a0) # 1408 <.LBB71_4+0x204>
    51a0:	0006d463          	bgez	a3,51a8 <.LBB71_228>
    51a4:	c0000737          	lui	a4,0xc0000

00000000000051a8 <.LBB71_228>:
    51a8:	00001537          	lui	a0,0x1
    51ac:	40a40533          	sub	a0,s0,a0
    51b0:	40e53023          	sd	a4,1024(a0) # 1400 <.LBB71_4+0x1fc>
    51b4:	a7843683          	ld	a3,-1416(s0)
    51b8:	e9043703          	ld	a4,-368(s0)
    51bc:	00e686b3          	add	a3,a3,a4
    51c0:	00001537          	lui	a0,0x1
    51c4:	40a40533          	sub	a0,s0,a0
    51c8:	71053703          	ld	a4,1808(a0) # 1710 <.LBB71_4+0x50c>
    51cc:	00c70733          	add	a4,a4,a2
    51d0:	40e686bb          	subw	a3,a3,a4
    51d4:	2406869b          	addiw	a3,a3,576
    51d8:	40000737          	lui	a4,0x40000
    51dc:	00001537          	lui	a0,0x1
    51e0:	40a40533          	sub	a0,s0,a0
    51e4:	40d53c23          	sd	a3,1048(a0) # 1418 <.LBB71_4+0x214>
    51e8:	0006d463          	bgez	a3,51f0 <.LBB71_230>
    51ec:	c0000737          	lui	a4,0xc0000

00000000000051f0 <.LBB71_230>:
    51f0:	00001537          	lui	a0,0x1
    51f4:	40a40533          	sub	a0,s0,a0
    51f8:	40e53823          	sd	a4,1040(a0) # 1410 <.LBB71_4+0x20c>
    51fc:	a8043683          	ld	a3,-1408(s0)
    5200:	ea043703          	ld	a4,-352(s0)
    5204:	00e686b3          	add	a3,a3,a4
    5208:	00001537          	lui	a0,0x1
    520c:	40a40533          	sub	a0,s0,a0
    5210:	72053703          	ld	a4,1824(a0) # 1720 <.LBB71_4+0x51c>
    5214:	00c70733          	add	a4,a4,a2
    5218:	40e686bb          	subw	a3,a3,a4
    521c:	2406869b          	addiw	a3,a3,576
    5220:	40000737          	lui	a4,0x40000
    5224:	00001537          	lui	a0,0x1
    5228:	40a40533          	sub	a0,s0,a0
    522c:	42d53423          	sd	a3,1064(a0) # 1428 <.LBB71_4+0x224>
    5230:	0006d463          	bgez	a3,5238 <.LBB71_232>
    5234:	c0000737          	lui	a4,0xc0000

0000000000005238 <.LBB71_232>:
    5238:	00001537          	lui	a0,0x1
    523c:	40a40533          	sub	a0,s0,a0
    5240:	42e53023          	sd	a4,1056(a0) # 1420 <.LBB71_4+0x21c>
    5244:	a8843683          	ld	a3,-1400(s0)
    5248:	eb043703          	ld	a4,-336(s0)
    524c:	00e686b3          	add	a3,a3,a4
    5250:	e7843703          	ld	a4,-392(s0)
    5254:	00c70733          	add	a4,a4,a2
    5258:	40e686bb          	subw	a3,a3,a4
    525c:	2406869b          	addiw	a3,a3,576
    5260:	40000737          	lui	a4,0x40000
    5264:	00001537          	lui	a0,0x1
    5268:	40a40533          	sub	a0,s0,a0
    526c:	42d53c23          	sd	a3,1080(a0) # 1438 <.LBB71_4+0x234>
    5270:	0006d463          	bgez	a3,5278 <.LBB71_234>
    5274:	c0000737          	lui	a4,0xc0000

0000000000005278 <.LBB71_234>:
    5278:	00001537          	lui	a0,0x1
    527c:	40a40533          	sub	a0,s0,a0
    5280:	42e53823          	sd	a4,1072(a0) # 1430 <.LBB71_4+0x22c>
    5284:	a9043683          	ld	a3,-1392(s0)
    5288:	ec043703          	ld	a4,-320(s0)
    528c:	00e686b3          	add	a3,a3,a4
    5290:	e8843703          	ld	a4,-376(s0)
    5294:	00c70733          	add	a4,a4,a2
    5298:	40e686bb          	subw	a3,a3,a4
    529c:	2406869b          	addiw	a3,a3,576
    52a0:	40000737          	lui	a4,0x40000
    52a4:	00001537          	lui	a0,0x1
    52a8:	40a40533          	sub	a0,s0,a0
    52ac:	44d53423          	sd	a3,1096(a0) # 1448 <.LBB71_4+0x244>
    52b0:	0006d463          	bgez	a3,52b8 <.LBB71_236>
    52b4:	c0000737          	lui	a4,0xc0000

00000000000052b8 <.LBB71_236>:
    52b8:	00001537          	lui	a0,0x1
    52bc:	40a40533          	sub	a0,s0,a0
    52c0:	44e53023          	sd	a4,1088(a0) # 1440 <.LBB71_4+0x23c>
    52c4:	a9843683          	ld	a3,-1384(s0)
    52c8:	ed043703          	ld	a4,-304(s0)
    52cc:	00e686b3          	add	a3,a3,a4
    52d0:	e9843703          	ld	a4,-360(s0)
    52d4:	00c70733          	add	a4,a4,a2
    52d8:	40e686bb          	subw	a3,a3,a4
    52dc:	2406869b          	addiw	a3,a3,576
    52e0:	40000737          	lui	a4,0x40000
    52e4:	00001537          	lui	a0,0x1
