
code.o:     file format elf64-littleriscv


Disassembly of section .text.main_dispatch_0_matmul_5x16x32_i8xi8xi32:

0000000000000000 <main_dispatch_0_matmul_5x16x32_i8xi8xi32>:
       0:	bc010113          	addi	sp,sp,-1088
       4:	42113c23          	sd	ra,1080(sp)
       8:	42813823          	sd	s0,1072(sp)
       c:	42913423          	sd	s1,1064(sp)
      10:	43213023          	sd	s2,1056(sp)
      14:	41313c23          	sd	s3,1048(sp)
      18:	41413823          	sd	s4,1040(sp)
      1c:	41513423          	sd	s5,1032(sp)
      20:	41613023          	sd	s6,1024(sp)
      24:	3f713c23          	sd	s7,1016(sp)
      28:	3f813823          	sd	s8,1008(sp)
      2c:	3f913423          	sd	s9,1000(sp)
      30:	3fa13023          	sd	s10,992(sp)
      34:	3db13c23          	sd	s11,984(sp)
      38:	44010413          	addi	s0,sp,1088
      3c:	fc017113          	andi	sp,sp,-64
      40:	0205b583          	ld	a1,32(a1)
      44:	00000813          	li	a6,0
      48:	00000293          	li	t0,0
      4c:	00000c13          	li	s8,0
      50:	00000893          	li	a7,0
      54:	00000313          	li	t1,0
      58:	00000393          	li	t2,0
      5c:	00000e13          	li	t3,0
      60:	00000e93          	li	t4,0
      64:	00000f13          	li	t5,0
      68:	00000f93          	li	t6,0
      6c:	00000493          	li	s1,0
      70:	00000913          	li	s2,0
      74:	00000d13          	li	s10,0
      78:	00000a93          	li	s5,0
      7c:	00000b13          	li	s6,0
      80:	00000993          	li	s3,0
      84:	0005b603          	ld	a2,0(a1)
      88:	0085b503          	ld	a0,8(a1)
      8c:	0105b683          	ld	a3,16(a1)
      90:	00d13c23          	sd	a3,24(sp)
      94:	0185b683          	ld	a3,24(a1)
      98:	00d13823          	sd	a3,16(sp)
      9c:	0205b583          	ld	a1,32(a1)
      a0:	00b13423          	sd	a1,8(sp)
      a4:	28013023          	sd	zero,640(sp)
      a8:	28013423          	sd	zero,648(sp)
      ac:	28013823          	sd	zero,656(sp)
      b0:	28013c23          	sd	zero,664(sp)
      b4:	2a013023          	sd	zero,672(sp)
      b8:	2a013423          	sd	zero,680(sp)
      bc:	2a013823          	sd	zero,688(sp)
      c0:	2a013c23          	sd	zero,696(sp)
      c4:	2c013023          	sd	zero,704(sp)
      c8:	2c013423          	sd	zero,712(sp)
      cc:	2c013823          	sd	zero,720(sp)
      d0:	2c013c23          	sd	zero,728(sp)
      d4:	2e013023          	sd	zero,736(sp)
      d8:	2e013423          	sd	zero,744(sp)
      dc:	2e013823          	sd	zero,752(sp)
      e0:	2e013c23          	sd	zero,760(sp)
      e4:	30013023          	sd	zero,768(sp)
      e8:	30013423          	sd	zero,776(sp)
      ec:	30013823          	sd	zero,784(sp)
      f0:	30013c23          	sd	zero,792(sp)
      f4:	32013023          	sd	zero,800(sp)
      f8:	32013423          	sd	zero,808(sp)
      fc:	32013823          	sd	zero,816(sp)
     100:	32013c23          	sd	zero,824(sp)
     104:	34013023          	sd	zero,832(sp)
     108:	34013423          	sd	zero,840(sp)
     10c:	34013823          	sd	zero,848(sp)
     110:	34013c23          	sd	zero,856(sp)
     114:	36013023          	sd	zero,864(sp)
     118:	36013423          	sd	zero,872(sp)
     11c:	36013823          	sd	zero,880(sp)
     120:	36013c23          	sd	zero,888(sp)
     124:	38013023          	sd	zero,896(sp)
     128:	38013423          	sd	zero,904(sp)
     12c:	38013823          	sd	zero,912(sp)
     130:	38013c23          	sd	zero,920(sp)
     134:	3a013023          	sd	zero,928(sp)
     138:	3a013423          	sd	zero,936(sp)
     13c:	3a013823          	sd	zero,944(sp)
     140:	3a013c23          	sd	zero,952(sp)
     144:	2bc12583          	lw	a1,700(sp)
     148:	20b13c23          	sd	a1,536(sp)
     14c:	2b812583          	lw	a1,696(sp)
     150:	20b13823          	sd	a1,528(sp)
     154:	2b412583          	lw	a1,692(sp)
     158:	20b13023          	sd	a1,512(sp)
     15c:	2b012583          	lw	a1,688(sp)
     160:	22b13023          	sd	a1,544(sp)
     164:	04060713          	addi	a4,a2,64
     168:	2ac12583          	lw	a1,684(sp)
     16c:	1cb13423          	sd	a1,456(sp)
     170:	2a812583          	lw	a1,680(sp)
     174:	1ab13423          	sd	a1,424(sp)
     178:	2a412583          	lw	a1,676(sp)
     17c:	18b13423          	sd	a1,392(sp)
     180:	2a012583          	lw	a1,672(sp)
     184:	16b13423          	sd	a1,360(sp)
     188:	29c12583          	lw	a1,668(sp)
     18c:	14b13423          	sd	a1,328(sp)
     190:	29812583          	lw	a1,664(sp)
     194:	12b13423          	sd	a1,296(sp)
     198:	29412583          	lw	a1,660(sp)
     19c:	10b13423          	sd	a1,264(sp)
     1a0:	29012583          	lw	a1,656(sp)
     1a4:	0eb13423          	sd	a1,232(sp)
     1a8:	28c12583          	lw	a1,652(sp)
     1ac:	0cb13423          	sd	a1,200(sp)
     1b0:	28812583          	lw	a1,648(sp)
     1b4:	0ab13423          	sd	a1,168(sp)
     1b8:	28412583          	lw	a1,644(sp)
     1bc:	08b13423          	sd	a1,136(sp)
     1c0:	28012583          	lw	a1,640(sp)
     1c4:	06b13423          	sd	a1,104(sp)
     1c8:	2fc12583          	lw	a1,764(sp)
     1cc:	2f812603          	lw	a2,760(sp)
     1d0:	20c13423          	sd	a2,520(sp)
     1d4:	2f412603          	lw	a2,756(sp)
     1d8:	1ec13423          	sd	a2,488(sp)
     1dc:	2f012603          	lw	a2,752(sp)
     1e0:	1cc13823          	sd	a2,464(sp)
     1e4:	2ec12603          	lw	a2,748(sp)
     1e8:	1ac13823          	sd	a2,432(sp)
     1ec:	2e812603          	lw	a2,744(sp)
     1f0:	18c13823          	sd	a2,400(sp)
     1f4:	2e412603          	lw	a2,740(sp)
     1f8:	16c13823          	sd	a2,368(sp)
     1fc:	2e012603          	lw	a2,736(sp)
     200:	14c13823          	sd	a2,336(sp)
     204:	2dc12603          	lw	a2,732(sp)
     208:	12c13823          	sd	a2,304(sp)
     20c:	2d812603          	lw	a2,728(sp)
     210:	10c13823          	sd	a2,272(sp)
     214:	2d412603          	lw	a2,724(sp)
     218:	0ec13823          	sd	a2,240(sp)
     21c:	2d012603          	lw	a2,720(sp)
     220:	0cc13823          	sd	a2,208(sp)
     224:	2cc12603          	lw	a2,716(sp)
     228:	0ac13823          	sd	a2,176(sp)
     22c:	2c812603          	lw	a2,712(sp)
     230:	08c13823          	sd	a2,144(sp)
     234:	2c412603          	lw	a2,708(sp)
     238:	06c13823          	sd	a2,112(sp)
     23c:	2c012603          	lw	a2,704(sp)
     240:	04c13023          	sd	a2,64(sp)
     244:	33c12603          	lw	a2,828(sp)
     248:	33812683          	lw	a3,824(sp)
     24c:	1ed13c23          	sd	a3,504(sp)
     250:	33412683          	lw	a3,820(sp)
     254:	1ed13023          	sd	a3,480(sp)
     258:	33012683          	lw	a3,816(sp)
     25c:	1cd13023          	sd	a3,448(sp)
     260:	32c12683          	lw	a3,812(sp)
     264:	1ad13023          	sd	a3,416(sp)
     268:	32812683          	lw	a3,808(sp)
     26c:	18d13023          	sd	a3,384(sp)
     270:	32412683          	lw	a3,804(sp)
     274:	16d13023          	sd	a3,352(sp)
     278:	32012683          	lw	a3,800(sp)
     27c:	14d13023          	sd	a3,320(sp)
     280:	31c12683          	lw	a3,796(sp)
     284:	12d13023          	sd	a3,288(sp)
     288:	31812683          	lw	a3,792(sp)
     28c:	10d13023          	sd	a3,256(sp)
     290:	31412683          	lw	a3,788(sp)
     294:	0ed13023          	sd	a3,224(sp)
     298:	31012683          	lw	a3,784(sp)
     29c:	0cd13023          	sd	a3,192(sp)
     2a0:	30c12683          	lw	a3,780(sp)
     2a4:	0ad13023          	sd	a3,160(sp)
     2a8:	30812683          	lw	a3,776(sp)
     2ac:	08d13023          	sd	a3,128(sp)
     2b0:	30412683          	lw	a3,772(sp)
     2b4:	06d13023          	sd	a3,96(sp)
     2b8:	30012683          	lw	a3,768(sp)
     2bc:	04d13423          	sd	a3,72(sp)
     2c0:	37c12783          	lw	a5,892(sp)
     2c4:	37812683          	lw	a3,888(sp)
     2c8:	1ed13823          	sd	a3,496(sp)
     2cc:	37412683          	lw	a3,884(sp)
     2d0:	1cd13c23          	sd	a3,472(sp)
     2d4:	37012683          	lw	a3,880(sp)
     2d8:	1ad13c23          	sd	a3,440(sp)
     2dc:	36c12683          	lw	a3,876(sp)
     2e0:	18d13c23          	sd	a3,408(sp)
     2e4:	36812683          	lw	a3,872(sp)
     2e8:	16d13c23          	sd	a3,376(sp)
     2ec:	36412683          	lw	a3,868(sp)
     2f0:	14d13c23          	sd	a3,344(sp)
     2f4:	36012683          	lw	a3,864(sp)
     2f8:	12d13c23          	sd	a3,312(sp)
     2fc:	35c12683          	lw	a3,860(sp)
     300:	10d13c23          	sd	a3,280(sp)
     304:	35812683          	lw	a3,856(sp)
     308:	0ed13c23          	sd	a3,248(sp)
     30c:	35412683          	lw	a3,852(sp)
     310:	0cd13c23          	sd	a3,216(sp)
     314:	35012683          	lw	a3,848(sp)
     318:	0ad13c23          	sd	a3,184(sp)
     31c:	34c12683          	lw	a3,844(sp)
     320:	08d13c23          	sd	a3,152(sp)
     324:	34812683          	lw	a3,840(sp)
     328:	06d13c23          	sd	a3,120(sp)
     32c:	34412683          	lw	a3,836(sp)
     330:	04d13c23          	sd	a3,88(sp)
     334:	34012683          	lw	a3,832(sp)
     338:	04d13823          	sd	a3,80(sp)
     33c:	02000693          	li	a3,32

0000000000000340 <.LBB0_1>:
     340:	02d13023          	sd	a3,32(sp)
     344:	03313423          	sd	s3,40(sp)
     348:	03a13823          	sd	s10,48(sp)
     34c:	23213823          	sd	s2,560(sp)
     350:	22913c23          	sd	s1,568(sp)
     354:	25f13023          	sd	t6,576(sp)
     358:	25e13423          	sd	t5,584(sp)
     35c:	25d13823          	sd	t4,592(sp)
     360:	25c13c23          	sd	t3,600(sp)
     364:	26713023          	sd	t2,608(sp)
     368:	26613423          	sd	t1,616(sp)
     36c:	27113823          	sd	a7,624(sp)
     370:	03813c23          	sd	s8,56(sp)
     374:	22513423          	sd	t0,552(sp)
     378:	27013c23          	sd	a6,632(sp)
     37c:	fc070d03          	lb	s10,-64(a4)
     380:	fe070c03          	lb	s8,-32(a4)
     384:	00050803          	lb	a6,0(a0)
     388:	00150883          	lb	a7,1(a0)
     38c:	00250283          	lb	t0,2(a0)
     390:	00350303          	lb	t1,3(a0)
     394:	00450383          	lb	t2,4(a0)
     398:	00550e03          	lb	t3,5(a0)
     39c:	00650e83          	lb	t4,6(a0)
     3a0:	00750f03          	lb	t5,7(a0)
     3a4:	00850f83          	lb	t6,8(a0)
     3a8:	00950483          	lb	s1,9(a0)
     3ac:	00a50903          	lb	s2,10(a0)
     3b0:	00b50983          	lb	s3,11(a0)
     3b4:	00c50a03          	lb	s4,12(a0)
     3b8:	000a8d93          	mv	s11,s5
     3bc:	00d50a83          	lb	s5,13(a0)
     3c0:	000b0093          	mv	ra,s6
     3c4:	00e50b03          	lb	s6,14(a0)
     3c8:	00f50b83          	lb	s7,15(a0)
     3cc:	00078693          	mv	a3,a5
     3d0:	025d0cb3          	mul	s9,s10,t0
     3d4:	0a813783          	ld	a5,168(sp)
     3d8:	00fc87b3          	add	a5,s9,a5
     3dc:	0af13423          	sd	a5,168(sp)
     3e0:	031d0cb3          	mul	s9,s10,a7
     3e4:	08813783          	ld	a5,136(sp)
     3e8:	00fc87b3          	add	a5,s9,a5
     3ec:	08f13423          	sd	a5,136(sp)
     3f0:	030d0cb3          	mul	s9,s10,a6
     3f4:	06813783          	ld	a5,104(sp)
     3f8:	00fc87b3          	add	a5,s9,a5
     3fc:	06f13423          	sd	a5,104(sp)
     400:	026d0cb3          	mul	s9,s10,t1
     404:	0c813783          	ld	a5,200(sp)
     408:	00fc87b3          	add	a5,s9,a5
     40c:	0cf13423          	sd	a5,200(sp)
     410:	027d0cb3          	mul	s9,s10,t2
     414:	0e813783          	ld	a5,232(sp)
     418:	00fc87b3          	add	a5,s9,a5
     41c:	0ef13423          	sd	a5,232(sp)
     420:	03cd0cb3          	mul	s9,s10,t3
     424:	10813783          	ld	a5,264(sp)
     428:	00fc87b3          	add	a5,s9,a5
     42c:	10f13423          	sd	a5,264(sp)
     430:	03dd0cb3          	mul	s9,s10,t4
     434:	12813783          	ld	a5,296(sp)
     438:	00fc87b3          	add	a5,s9,a5
     43c:	12f13423          	sd	a5,296(sp)
     440:	03ed0cb3          	mul	s9,s10,t5
     444:	14813783          	ld	a5,328(sp)
     448:	00fc87b3          	add	a5,s9,a5
     44c:	14f13423          	sd	a5,328(sp)
     450:	03fd0cb3          	mul	s9,s10,t6
     454:	16813783          	ld	a5,360(sp)
     458:	00fc87b3          	add	a5,s9,a5
     45c:	16f13423          	sd	a5,360(sp)
     460:	029d0cb3          	mul	s9,s10,s1
     464:	18813783          	ld	a5,392(sp)
     468:	00fc87b3          	add	a5,s9,a5
     46c:	18f13423          	sd	a5,392(sp)
     470:	032d0cb3          	mul	s9,s10,s2
     474:	1a813783          	ld	a5,424(sp)
     478:	00fc87b3          	add	a5,s9,a5
     47c:	1af13423          	sd	a5,424(sp)
     480:	033d0cb3          	mul	s9,s10,s3
     484:	1c813783          	ld	a5,456(sp)
     488:	00fc87b3          	add	a5,s9,a5
     48c:	1cf13423          	sd	a5,456(sp)
     490:	034d0cb3          	mul	s9,s10,s4
     494:	00060793          	mv	a5,a2
     498:	00058613          	mv	a2,a1
     49c:	22013583          	ld	a1,544(sp)
     4a0:	00bc85b3          	add	a1,s9,a1
     4a4:	22b13023          	sd	a1,544(sp)
     4a8:	035d0cb3          	mul	s9,s10,s5
     4ac:	20013583          	ld	a1,512(sp)
     4b0:	00bc85b3          	add	a1,s9,a1
     4b4:	20b13023          	sd	a1,512(sp)
     4b8:	036d0cb3          	mul	s9,s10,s6
     4bc:	21013583          	ld	a1,528(sp)
     4c0:	00bc85b3          	add	a1,s9,a1
     4c4:	20b13823          	sd	a1,528(sp)
     4c8:	00070c83          	lb	s9,0(a4)
     4cc:	037d0d33          	mul	s10,s10,s7
     4d0:	21813583          	ld	a1,536(sp)
     4d4:	00bd05b3          	add	a1,s10,a1
     4d8:	20b13c23          	sd	a1,536(sp)
     4dc:	00060593          	mv	a1,a2
     4e0:	00078613          	mv	a2,a5
     4e4:	025c0d33          	mul	s10,s8,t0
     4e8:	09013783          	ld	a5,144(sp)
     4ec:	00fd07b3          	add	a5,s10,a5
     4f0:	08f13823          	sd	a5,144(sp)
     4f4:	031c0d33          	mul	s10,s8,a7
     4f8:	07013783          	ld	a5,112(sp)
     4fc:	00fd07b3          	add	a5,s10,a5
     500:	06f13823          	sd	a5,112(sp)
     504:	030c0d33          	mul	s10,s8,a6
     508:	04013783          	ld	a5,64(sp)
     50c:	00fd07b3          	add	a5,s10,a5
     510:	04f13023          	sd	a5,64(sp)
     514:	026c0d33          	mul	s10,s8,t1
     518:	0b013783          	ld	a5,176(sp)
     51c:	00fd07b3          	add	a5,s10,a5
     520:	0af13823          	sd	a5,176(sp)
     524:	027c0d33          	mul	s10,s8,t2
     528:	0d013783          	ld	a5,208(sp)
     52c:	00fd07b3          	add	a5,s10,a5
     530:	0cf13823          	sd	a5,208(sp)
     534:	03cc0d33          	mul	s10,s8,t3
     538:	0f013783          	ld	a5,240(sp)
     53c:	00fd07b3          	add	a5,s10,a5
     540:	0ef13823          	sd	a5,240(sp)
     544:	03dc0d33          	mul	s10,s8,t4
     548:	11013783          	ld	a5,272(sp)
     54c:	00fd07b3          	add	a5,s10,a5
     550:	10f13823          	sd	a5,272(sp)
     554:	03ec0d33          	mul	s10,s8,t5
     558:	13013783          	ld	a5,304(sp)
     55c:	00fd07b3          	add	a5,s10,a5
     560:	12f13823          	sd	a5,304(sp)
     564:	03fc0d33          	mul	s10,s8,t6
     568:	15013783          	ld	a5,336(sp)
     56c:	00fd07b3          	add	a5,s10,a5
     570:	14f13823          	sd	a5,336(sp)
     574:	029c0d33          	mul	s10,s8,s1
     578:	17013783          	ld	a5,368(sp)
     57c:	00fd07b3          	add	a5,s10,a5
     580:	16f13823          	sd	a5,368(sp)
     584:	032c0d33          	mul	s10,s8,s2
     588:	19013783          	ld	a5,400(sp)
     58c:	00fd07b3          	add	a5,s10,a5
     590:	18f13823          	sd	a5,400(sp)
     594:	033c0d33          	mul	s10,s8,s3
     598:	1b013783          	ld	a5,432(sp)
     59c:	00fd07b3          	add	a5,s10,a5
     5a0:	1af13823          	sd	a5,432(sp)
     5a4:	034c0d33          	mul	s10,s8,s4
     5a8:	1d013783          	ld	a5,464(sp)
     5ac:	00fd07b3          	add	a5,s10,a5
     5b0:	1cf13823          	sd	a5,464(sp)
     5b4:	035c0d33          	mul	s10,s8,s5
     5b8:	1e813783          	ld	a5,488(sp)
     5bc:	00fd07b3          	add	a5,s10,a5
     5c0:	1ef13423          	sd	a5,488(sp)
     5c4:	036c0d33          	mul	s10,s8,s6
     5c8:	20813783          	ld	a5,520(sp)
     5cc:	00fd07b3          	add	a5,s10,a5
     5d0:	20f13423          	sd	a5,520(sp)
     5d4:	02070d03          	lb	s10,32(a4)
     5d8:	037c0c33          	mul	s8,s8,s7
     5dc:	00bc05b3          	add	a1,s8,a1
     5e0:	025c8c33          	mul	s8,s9,t0
     5e4:	08013783          	ld	a5,128(sp)
     5e8:	00fc07b3          	add	a5,s8,a5
     5ec:	08f13023          	sd	a5,128(sp)
     5f0:	031c8c33          	mul	s8,s9,a7
     5f4:	06013783          	ld	a5,96(sp)
     5f8:	00fc07b3          	add	a5,s8,a5
     5fc:	06f13023          	sd	a5,96(sp)
     600:	030c8c33          	mul	s8,s9,a6
     604:	04813783          	ld	a5,72(sp)
     608:	00fc07b3          	add	a5,s8,a5
     60c:	04f13423          	sd	a5,72(sp)
     610:	026c8c33          	mul	s8,s9,t1
     614:	0a013783          	ld	a5,160(sp)
     618:	00fc07b3          	add	a5,s8,a5
     61c:	0af13023          	sd	a5,160(sp)
     620:	027c8c33          	mul	s8,s9,t2
     624:	0c013783          	ld	a5,192(sp)
     628:	00fc07b3          	add	a5,s8,a5
     62c:	0cf13023          	sd	a5,192(sp)
     630:	03cc8c33          	mul	s8,s9,t3
     634:	0e013783          	ld	a5,224(sp)
     638:	00fc07b3          	add	a5,s8,a5
     63c:	0ef13023          	sd	a5,224(sp)
     640:	03dc8c33          	mul	s8,s9,t4
     644:	10013783          	ld	a5,256(sp)
     648:	00fc07b3          	add	a5,s8,a5
     64c:	10f13023          	sd	a5,256(sp)
     650:	03ec8c33          	mul	s8,s9,t5
     654:	12013783          	ld	a5,288(sp)
     658:	00fc07b3          	add	a5,s8,a5
     65c:	12f13023          	sd	a5,288(sp)
     660:	03fc8c33          	mul	s8,s9,t6
     664:	14013783          	ld	a5,320(sp)
     668:	00fc07b3          	add	a5,s8,a5
     66c:	14f13023          	sd	a5,320(sp)
     670:	029c8c33          	mul	s8,s9,s1
     674:	16013783          	ld	a5,352(sp)
     678:	00fc07b3          	add	a5,s8,a5
     67c:	16f13023          	sd	a5,352(sp)
     680:	032c8c33          	mul	s8,s9,s2
     684:	18013783          	ld	a5,384(sp)
     688:	00fc07b3          	add	a5,s8,a5
     68c:	18f13023          	sd	a5,384(sp)
     690:	033c8c33          	mul	s8,s9,s3
     694:	1a013783          	ld	a5,416(sp)
     698:	00fc07b3          	add	a5,s8,a5
     69c:	1af13023          	sd	a5,416(sp)
     6a0:	034c8c33          	mul	s8,s9,s4
     6a4:	1c013783          	ld	a5,448(sp)
     6a8:	00fc07b3          	add	a5,s8,a5
     6ac:	1cf13023          	sd	a5,448(sp)
     6b0:	035c8c33          	mul	s8,s9,s5
     6b4:	1e013783          	ld	a5,480(sp)
     6b8:	00fc07b3          	add	a5,s8,a5
     6bc:	1ef13023          	sd	a5,480(sp)
     6c0:	036c8c33          	mul	s8,s9,s6
     6c4:	1f813783          	ld	a5,504(sp)
     6c8:	00fc07b3          	add	a5,s8,a5
     6cc:	1ef13c23          	sd	a5,504(sp)
     6d0:	04070c03          	lb	s8,64(a4)
     6d4:	037c8cb3          	mul	s9,s9,s7
     6d8:	00cc8633          	add	a2,s9,a2
     6dc:	025d0cb3          	mul	s9,s10,t0
     6e0:	07813783          	ld	a5,120(sp)
     6e4:	00fc87b3          	add	a5,s9,a5
     6e8:	06f13c23          	sd	a5,120(sp)
     6ec:	031d0cb3          	mul	s9,s10,a7
     6f0:	05813783          	ld	a5,88(sp)
     6f4:	00fc87b3          	add	a5,s9,a5
     6f8:	04f13c23          	sd	a5,88(sp)
     6fc:	030d0cb3          	mul	s9,s10,a6
     700:	05013783          	ld	a5,80(sp)
     704:	00fc87b3          	add	a5,s9,a5
     708:	04f13823          	sd	a5,80(sp)
     70c:	026d0cb3          	mul	s9,s10,t1
     710:	09813783          	ld	a5,152(sp)
     714:	00fc87b3          	add	a5,s9,a5
     718:	08f13c23          	sd	a5,152(sp)
     71c:	027d0cb3          	mul	s9,s10,t2
     720:	0b813783          	ld	a5,184(sp)
     724:	00fc87b3          	add	a5,s9,a5
     728:	0af13c23          	sd	a5,184(sp)
     72c:	03cd0cb3          	mul	s9,s10,t3
     730:	0d813783          	ld	a5,216(sp)
     734:	00fc87b3          	add	a5,s9,a5
     738:	0cf13c23          	sd	a5,216(sp)
     73c:	03dd0cb3          	mul	s9,s10,t4
     740:	0f813783          	ld	a5,248(sp)
     744:	00fc87b3          	add	a5,s9,a5
     748:	0ef13c23          	sd	a5,248(sp)
     74c:	03ed0cb3          	mul	s9,s10,t5
     750:	11813783          	ld	a5,280(sp)
     754:	00fc87b3          	add	a5,s9,a5
     758:	10f13c23          	sd	a5,280(sp)
     75c:	03fd0cb3          	mul	s9,s10,t6
     760:	13813783          	ld	a5,312(sp)
     764:	00fc87b3          	add	a5,s9,a5
     768:	12f13c23          	sd	a5,312(sp)
     76c:	029d0cb3          	mul	s9,s10,s1
     770:	15813783          	ld	a5,344(sp)
     774:	00fc87b3          	add	a5,s9,a5
     778:	14f13c23          	sd	a5,344(sp)
     77c:	032d0cb3          	mul	s9,s10,s2
     780:	17813783          	ld	a5,376(sp)
     784:	00fc87b3          	add	a5,s9,a5
     788:	16f13c23          	sd	a5,376(sp)
     78c:	033d0cb3          	mul	s9,s10,s3
     790:	19813783          	ld	a5,408(sp)
     794:	00fc87b3          	add	a5,s9,a5
     798:	18f13c23          	sd	a5,408(sp)
     79c:	034d0cb3          	mul	s9,s10,s4
     7a0:	1b813783          	ld	a5,440(sp)
     7a4:	00fc87b3          	add	a5,s9,a5
     7a8:	1af13c23          	sd	a5,440(sp)
     7ac:	035d0cb3          	mul	s9,s10,s5
     7b0:	1d813783          	ld	a5,472(sp)
     7b4:	00fc87b3          	add	a5,s9,a5
     7b8:	1cf13c23          	sd	a5,472(sp)
     7bc:	036d0cb3          	mul	s9,s10,s6
     7c0:	1f013783          	ld	a5,496(sp)
     7c4:	00fc87b3          	add	a5,s9,a5
     7c8:	1ef13823          	sd	a5,496(sp)
     7cc:	037d0cb3          	mul	s9,s10,s7
     7d0:	03013d03          	ld	s10,48(sp)
     7d4:	00dc87b3          	add	a5,s9,a3
     7d8:	02013683          	ld	a3,32(sp)
     7dc:	037c0bb3          	mul	s7,s8,s7
     7e0:	036c0b33          	mul	s6,s8,s6
     7e4:	035c0ab3          	mul	s5,s8,s5
     7e8:	034c0a33          	mul	s4,s8,s4
     7ec:	033c09b3          	mul	s3,s8,s3
     7f0:	032c0933          	mul	s2,s8,s2
     7f4:	029c04b3          	mul	s1,s8,s1
     7f8:	03fc0fb3          	mul	t6,s8,t6
     7fc:	03ec0f33          	mul	t5,s8,t5
     800:	03dc0eb3          	mul	t4,s8,t4
     804:	03cc0e33          	mul	t3,s8,t3
     808:	027c03b3          	mul	t2,s8,t2
     80c:	026c0333          	mul	t1,s8,t1
     810:	030c0833          	mul	a6,s8,a6
     814:	031c08b3          	mul	a7,s8,a7
     818:	025c02b3          	mul	t0,s8,t0
     81c:	03813c03          	ld	s8,56(sp)
     820:	01828c33          	add	s8,t0,s8
     824:	22813283          	ld	t0,552(sp)
     828:	005882b3          	add	t0,a7,t0
     82c:	27813883          	ld	a7,632(sp)
     830:	011808b3          	add	a7,a6,a7
     834:	27113c23          	sd	a7,632(sp)
     838:	27813803          	ld	a6,632(sp)
     83c:	27013883          	ld	a7,624(sp)
     840:	011308b3          	add	a7,t1,a7
     844:	27113823          	sd	a7,624(sp)
     848:	27013883          	ld	a7,624(sp)
     84c:	26813303          	ld	t1,616(sp)
     850:	00638333          	add	t1,t2,t1
     854:	26613423          	sd	t1,616(sp)
     858:	26813303          	ld	t1,616(sp)
     85c:	26013383          	ld	t2,608(sp)
     860:	007e03b3          	add	t2,t3,t2
     864:	26713023          	sd	t2,608(sp)
     868:	26013383          	ld	t2,608(sp)
     86c:	25813e03          	ld	t3,600(sp)
     870:	01ce8e33          	add	t3,t4,t3
     874:	25c13c23          	sd	t3,600(sp)
     878:	25813e03          	ld	t3,600(sp)
     87c:	25013e83          	ld	t4,592(sp)
     880:	01df0eb3          	add	t4,t5,t4
     884:	25d13823          	sd	t4,592(sp)
     888:	25013e83          	ld	t4,592(sp)
     88c:	24813f03          	ld	t5,584(sp)
     890:	01ef8f33          	add	t5,t6,t5
     894:	25e13423          	sd	t5,584(sp)
     898:	24813f03          	ld	t5,584(sp)
     89c:	24013f83          	ld	t6,576(sp)
     8a0:	01f48fb3          	add	t6,s1,t6
     8a4:	25f13023          	sd	t6,576(sp)
     8a8:	24013f83          	ld	t6,576(sp)
     8ac:	23813483          	ld	s1,568(sp)
     8b0:	009904b3          	add	s1,s2,s1
     8b4:	22913c23          	sd	s1,568(sp)
     8b8:	23813483          	ld	s1,568(sp)
     8bc:	23013903          	ld	s2,560(sp)
     8c0:	01298933          	add	s2,s3,s2
     8c4:	02813983          	ld	s3,40(sp)
     8c8:	23213823          	sd	s2,560(sp)
     8cc:	23013903          	ld	s2,560(sp)
     8d0:	01aa0d33          	add	s10,s4,s10
     8d4:	01ba8ab3          	add	s5,s5,s11
     8d8:	001b0b33          	add	s6,s6,ra
     8dc:	013b89b3          	add	s3,s7,s3
     8e0:	01050513          	addi	a0,a0,16
     8e4:	fff68693          	addi	a3,a3,-1
     8e8:	00170713          	addi	a4,a4,1
     8ec:	a4069ae3          	bnez	a3,340 <.LBB0_1>
     8f0:	2c010513          	addi	a0,sp,704
     8f4:	04013683          	ld	a3,64(sp)
     8f8:	00d52023          	sw	a3,0(a0)
     8fc:	30010513          	addi	a0,sp,768
     900:	04813683          	ld	a3,72(sp)
     904:	00d52023          	sw	a3,0(a0)
     908:	05013503          	ld	a0,80(sp)
     90c:	34010693          	addi	a3,sp,832
     910:	00a6a023          	sw	a0,0(a3)
     914:	06813503          	ld	a0,104(sp)
     918:	28a12023          	sw	a0,640(sp)
     91c:	08813503          	ld	a0,136(sp)
     920:	28a12223          	sw	a0,644(sp)
     924:	0a813503          	ld	a0,168(sp)
     928:	28a12423          	sw	a0,648(sp)
     92c:	0c813503          	ld	a0,200(sp)
     930:	28a12623          	sw	a0,652(sp)
     934:	0e813503          	ld	a0,232(sp)
     938:	28a12823          	sw	a0,656(sp)
     93c:	10813503          	ld	a0,264(sp)
     940:	28a12a23          	sw	a0,660(sp)
     944:	12813503          	ld	a0,296(sp)
     948:	28a12c23          	sw	a0,664(sp)
     94c:	14813503          	ld	a0,328(sp)
     950:	28a12e23          	sw	a0,668(sp)
     954:	16813503          	ld	a0,360(sp)
     958:	2aa12023          	sw	a0,672(sp)
     95c:	18813503          	ld	a0,392(sp)
     960:	2aa12223          	sw	a0,676(sp)
     964:	1a813503          	ld	a0,424(sp)
     968:	2aa12423          	sw	a0,680(sp)
     96c:	1c813503          	ld	a0,456(sp)
     970:	2aa12623          	sw	a0,684(sp)
     974:	20013503          	ld	a0,512(sp)
     978:	2aa12a23          	sw	a0,692(sp)
     97c:	21013503          	ld	a0,528(sp)
     980:	2aa12c23          	sw	a0,696(sp)
     984:	21813503          	ld	a0,536(sp)
     988:	2aa12e23          	sw	a0,700(sp)
     98c:	07013503          	ld	a0,112(sp)
     990:	2ca12223          	sw	a0,708(sp)
     994:	09013503          	ld	a0,144(sp)
     998:	2ca12423          	sw	a0,712(sp)
     99c:	0b013503          	ld	a0,176(sp)
     9a0:	2ca12623          	sw	a0,716(sp)
     9a4:	0d013503          	ld	a0,208(sp)
     9a8:	2ca12823          	sw	a0,720(sp)
     9ac:	0f013503          	ld	a0,240(sp)
     9b0:	2ca12a23          	sw	a0,724(sp)
     9b4:	11013503          	ld	a0,272(sp)
     9b8:	2ca12c23          	sw	a0,728(sp)
     9bc:	13013503          	ld	a0,304(sp)
     9c0:	2ca12e23          	sw	a0,732(sp)
     9c4:	15013503          	ld	a0,336(sp)
     9c8:	2ea12023          	sw	a0,736(sp)
     9cc:	17013503          	ld	a0,368(sp)
     9d0:	2ea12223          	sw	a0,740(sp)
     9d4:	19013503          	ld	a0,400(sp)
     9d8:	2ea12423          	sw	a0,744(sp)
     9dc:	1b013503          	ld	a0,432(sp)
     9e0:	2ea12623          	sw	a0,748(sp)
     9e4:	1d013503          	ld	a0,464(sp)
     9e8:	2ea12823          	sw	a0,752(sp)
     9ec:	1e813503          	ld	a0,488(sp)
     9f0:	2ea12a23          	sw	a0,756(sp)
     9f4:	20813503          	ld	a0,520(sp)
     9f8:	2ea12c23          	sw	a0,760(sp)
     9fc:	2eb12e23          	sw	a1,764(sp)
     a00:	06013503          	ld	a0,96(sp)
     a04:	30a12223          	sw	a0,772(sp)
     a08:	08013503          	ld	a0,128(sp)
     a0c:	30a12423          	sw	a0,776(sp)
     a10:	0a013503          	ld	a0,160(sp)
     a14:	30a12623          	sw	a0,780(sp)
     a18:	0c013503          	ld	a0,192(sp)
     a1c:	30a12823          	sw	a0,784(sp)
     a20:	0e013503          	ld	a0,224(sp)
     a24:	30a12a23          	sw	a0,788(sp)
     a28:	10013503          	ld	a0,256(sp)
     a2c:	30a12c23          	sw	a0,792(sp)
     a30:	12013503          	ld	a0,288(sp)
     a34:	30a12e23          	sw	a0,796(sp)
     a38:	14013503          	ld	a0,320(sp)
     a3c:	32a12023          	sw	a0,800(sp)
     a40:	16013503          	ld	a0,352(sp)
     a44:	32a12223          	sw	a0,804(sp)
     a48:	18013503          	ld	a0,384(sp)
     a4c:	32a12423          	sw	a0,808(sp)
     a50:	1a013503          	ld	a0,416(sp)
     a54:	32a12623          	sw	a0,812(sp)
     a58:	1c013503          	ld	a0,448(sp)
     a5c:	32a12823          	sw	a0,816(sp)
     a60:	1e013503          	ld	a0,480(sp)
     a64:	32a12a23          	sw	a0,820(sp)
     a68:	1f813503          	ld	a0,504(sp)
     a6c:	32a12c23          	sw	a0,824(sp)
     a70:	32c12e23          	sw	a2,828(sp)
     a74:	05813503          	ld	a0,88(sp)
     a78:	34a12223          	sw	a0,836(sp)
     a7c:	07813503          	ld	a0,120(sp)
     a80:	34a12423          	sw	a0,840(sp)
     a84:	09813503          	ld	a0,152(sp)
     a88:	34a12623          	sw	a0,844(sp)
     a8c:	0b813503          	ld	a0,184(sp)
     a90:	34a12823          	sw	a0,848(sp)
     a94:	0d813503          	ld	a0,216(sp)
     a98:	34a12a23          	sw	a0,852(sp)
     a9c:	0f813503          	ld	a0,248(sp)
     aa0:	34a12c23          	sw	a0,856(sp)
     aa4:	11813503          	ld	a0,280(sp)
     aa8:	34a12e23          	sw	a0,860(sp)
     aac:	13813503          	ld	a0,312(sp)
     ab0:	36a12023          	sw	a0,864(sp)
     ab4:	15813503          	ld	a0,344(sp)
     ab8:	36a12223          	sw	a0,868(sp)
     abc:	17813503          	ld	a0,376(sp)
     ac0:	36a12423          	sw	a0,872(sp)
     ac4:	19813503          	ld	a0,408(sp)
     ac8:	36a12623          	sw	a0,876(sp)
     acc:	1b813503          	ld	a0,440(sp)
     ad0:	36a12823          	sw	a0,880(sp)
     ad4:	1d813503          	ld	a0,472(sp)
     ad8:	36a12a23          	sw	a0,884(sp)
     adc:	1f013503          	ld	a0,496(sp)
     ae0:	36a12c23          	sw	a0,888(sp)
     ae4:	36f12e23          	sw	a5,892(sp)
     ae8:	38010513          	addi	a0,sp,896
     aec:	01052023          	sw	a6,0(a0)
     af0:	38512223          	sw	t0,900(sp)
     af4:	39812423          	sw	s8,904(sp)
     af8:	39112623          	sw	a7,908(sp)
     afc:	38612823          	sw	t1,912(sp)
     b00:	38712a23          	sw	t2,916(sp)
     b04:	39c12c23          	sw	t3,920(sp)
     b08:	39d12e23          	sw	t4,924(sp)
     b0c:	3be12023          	sw	t5,928(sp)
     b10:	3bf12223          	sw	t6,932(sp)
     b14:	3a912423          	sw	s1,936(sp)
     b18:	3b212623          	sw	s2,940(sp)
     b1c:	3ba12823          	sw	s10,944(sp)
     b20:	3b512a23          	sw	s5,948(sp)
     b24:	3b612c23          	sw	s6,952(sp)
     b28:	3b312e23          	sw	s3,956(sp)
     b2c:	2bc12703          	lw	a4,700(sp)
     b30:	2b812783          	lw	a5,696(sp)
     b34:	2b412503          	lw	a0,692(sp)
     b38:	01813b83          	ld	s7,24(sp)
     b3c:	034ba583          	lw	a1,52(s7)
     b40:	038ba803          	lw	a6,56(s7)
     b44:	03cba883          	lw	a7,60(s7)
     b48:	01013c83          	ld	s9,16(sp)
     b4c:	03cca683          	lw	a3,60(s9)
     b50:	038ca603          	lw	a2,56(s9)
     b54:	22013303          	ld	t1,544(sp)
     b58:	2a612823          	sw	t1,688(sp)
     b5c:	00e8873b          	addw	a4,a7,a4
     b60:	00f807bb          	addw	a5,a6,a5
     b64:	00e6c463          	blt	a3,a4,b6c <.LBB0_4>
     b68:	00068713          	mv	a4,a3

0000000000000b6c <.LBB0_4>:
     b6c:	10e13423          	sd	a4,264(sp)
     b70:	2b012703          	lw	a4,688(sp)
     b74:	030ba803          	lw	a6,48(s7)
     b78:	034ca683          	lw	a3,52(s9)
     b7c:	00a585bb          	addw	a1,a1,a0
     b80:	00f64463          	blt	a2,a5,b88 <.LBB0_6>
     b84:	00060793          	mv	a5,a2

0000000000000b88 <.LBB0_6>:
     b88:	10f13023          	sd	a5,256(sp)
     b8c:	2ac12603          	lw	a2,684(sp)
     b90:	02cba783          	lw	a5,44(s7)
     b94:	030ca503          	lw	a0,48(s9)
     b98:	00e8083b          	addw	a6,a6,a4
     b9c:	00b6c463          	blt	a3,a1,ba4 <.LBB0_8>
     ba0:	00068593          	mv	a1,a3

0000000000000ba4 <.LBB0_8>:
     ba4:	0eb13c23          	sd	a1,248(sp)
     ba8:	2a812683          	lw	a3,680(sp)
     bac:	028ba703          	lw	a4,40(s7)
     bb0:	02cca583          	lw	a1,44(s9)
     bb4:	00c788bb          	addw	a7,a5,a2
     bb8:	01054463          	blt	a0,a6,bc0 <.LBB0_10>
     bbc:	00050813          	mv	a6,a0

0000000000000bc0 <.LBB0_10>:
     bc0:	2a412603          	lw	a2,676(sp)
     bc4:	024ba783          	lw	a5,36(s7)
     bc8:	028ca503          	lw	a0,40(s9)
     bcc:	00d7033b          	addw	t1,a4,a3
     bd0:	0115c463          	blt	a1,a7,bd8 <.LBB0_12>
     bd4:	00058893          	mv	a7,a1

0000000000000bd8 <.LBB0_12>:
     bd8:	2a012683          	lw	a3,672(sp)
     bdc:	020ba703          	lw	a4,32(s7)
     be0:	024ca583          	lw	a1,36(s9)
     be4:	00c783bb          	addw	t2,a5,a2
     be8:	00654463          	blt	a0,t1,bf0 <.LBB0_14>
     bec:	00050313          	mv	t1,a0

0000000000000bf0 <.LBB0_14>:
     bf0:	29c12603          	lw	a2,668(sp)
     bf4:	01cba783          	lw	a5,28(s7)
     bf8:	020ca503          	lw	a0,32(s9)
     bfc:	00d70e3b          	addw	t3,a4,a3
     c00:	0075c463          	blt	a1,t2,c08 <.LBB0_16>
     c04:	00058393          	mv	t2,a1

0000000000000c08 <.LBB0_16>:
     c08:	29812683          	lw	a3,664(sp)
     c0c:	018ba703          	lw	a4,24(s7)
     c10:	01cca583          	lw	a1,28(s9)
     c14:	00c78ebb          	addw	t4,a5,a2
     c18:	01c54463          	blt	a0,t3,c20 <.LBB0_18>
     c1c:	00050e13          	mv	t3,a0

0000000000000c20 <.LBB0_18>:
     c20:	29412603          	lw	a2,660(sp)
     c24:	014ba783          	lw	a5,20(s7)
     c28:	018ca503          	lw	a0,24(s9)
     c2c:	00d70f3b          	addw	t5,a4,a3
     c30:	01d5c463          	blt	a1,t4,c38 <.LBB0_20>
     c34:	00058e93          	mv	t4,a1

0000000000000c38 <.LBB0_20>:
     c38:	29012683          	lw	a3,656(sp)
     c3c:	010ba703          	lw	a4,16(s7)
     c40:	014ca583          	lw	a1,20(s9)
     c44:	00c78fbb          	addw	t6,a5,a2
     c48:	01e54463          	blt	a0,t5,c50 <.LBB0_22>
     c4c:	00050f13          	mv	t5,a0

0000000000000c50 <.LBB0_22>:
     c50:	28c12603          	lw	a2,652(sp)
     c54:	00cba783          	lw	a5,12(s7)
     c58:	010ca503          	lw	a0,16(s9)
     c5c:	00d704bb          	addw	s1,a4,a3
     c60:	01f5c463          	blt	a1,t6,c68 <.LBB0_24>
     c64:	00058f93          	mv	t6,a1

0000000000000c68 <.LBB0_24>:
     c68:	28812683          	lw	a3,648(sp)
     c6c:	008ba703          	lw	a4,8(s7)
     c70:	00cca583          	lw	a1,12(s9)
     c74:	00c7893b          	addw	s2,a5,a2
     c78:	00954463          	blt	a0,s1,c80 <.LBB0_26>
     c7c:	00050493          	mv	s1,a0

0000000000000c80 <.LBB0_26>:
     c80:	28412603          	lw	a2,644(sp)
     c84:	004ba783          	lw	a5,4(s7)
     c88:	008ca503          	lw	a0,8(s9)
     c8c:	00d70a3b          	addw	s4,a4,a3
     c90:	0125c463          	blt	a1,s2,c98 <.LBB0_28>
     c94:	00058913          	mv	s2,a1

0000000000000c98 <.LBB0_28>:
     c98:	28012683          	lw	a3,640(sp)
     c9c:	000ba703          	lw	a4,0(s7)
     ca0:	004ca583          	lw	a1,4(s9)
     ca4:	00c78dbb          	addw	s11,a5,a2
     ca8:	01454463          	blt	a0,s4,cb0 <.LBB0_30>
     cac:	00050a13          	mv	s4,a0

0000000000000cb0 <.LBB0_30>:
     cb0:	2fc12603          	lw	a2,764(sp)
     cb4:	07cba783          	lw	a5,124(s7)
     cb8:	000ca503          	lw	a0,0(s9)
     cbc:	00d700bb          	addw	ra,a4,a3
     cc0:	01b5c463          	blt	a1,s11,cc8 <.LBB0_32>
     cc4:	00058d93          	mv	s11,a1

0000000000000cc8 <.LBB0_32>:
     cc8:	09b13c23          	sd	s11,152(sp)
     ccc:	2f812683          	lw	a3,760(sp)
     cd0:	078ba703          	lw	a4,120(s7)
     cd4:	07cca583          	lw	a1,124(s9)
     cd8:	00c78dbb          	addw	s11,a5,a2
     cdc:	00154463          	blt	a0,ra,ce4 <.LBB0_34>
     ce0:	00050093          	mv	ra,a0

0000000000000ce4 <.LBB0_34>:
     ce4:	08113423          	sd	ra,136(sp)
     ce8:	2f412603          	lw	a2,756(sp)
     cec:	074ba783          	lw	a5,116(s7)
     cf0:	078ca503          	lw	a0,120(s9)
     cf4:	00d700bb          	addw	ra,a4,a3
     cf8:	01b5c463          	blt	a1,s11,d00 <.LBB0_36>
     cfc:	00058d93          	mv	s11,a1

0000000000000d00 <.LBB0_36>:
     d00:	2f012683          	lw	a3,752(sp)
     d04:	070ba703          	lw	a4,112(s7)
     d08:	074ca583          	lw	a1,116(s9)
     d0c:	00c7863b          	addw	a2,a5,a2
     d10:	22c13023          	sd	a2,544(sp)
     d14:	00154463          	blt	a0,ra,d1c <.LBB0_38>
     d18:	00050093          	mv	ra,a0

0000000000000d1c <.LBB0_38>:
     d1c:	2ec12603          	lw	a2,748(sp)
     d20:	06cba783          	lw	a5,108(s7)
     d24:	070ca503          	lw	a0,112(s9)
     d28:	00d706bb          	addw	a3,a4,a3
     d2c:	20d13c23          	sd	a3,536(sp)
     d30:	22013683          	ld	a3,544(sp)
     d34:	00d5c463          	blt	a1,a3,d3c <.LBB0_40>
     d38:	22b13023          	sd	a1,544(sp)

0000000000000d3c <.LBB0_40>:
     d3c:	2e812683          	lw	a3,744(sp)
     d40:	068ba703          	lw	a4,104(s7)
     d44:	06cca583          	lw	a1,108(s9)
     d48:	00c7863b          	addw	a2,a5,a2
     d4c:	20c13823          	sd	a2,528(sp)
     d50:	21813603          	ld	a2,536(sp)
     d54:	00c54463          	blt	a0,a2,d5c <.LBB0_42>
     d58:	20a13c23          	sd	a0,536(sp)

0000000000000d5c <.LBB0_42>:
     d5c:	2e412603          	lw	a2,740(sp)
     d60:	064ba783          	lw	a5,100(s7)
     d64:	068ca503          	lw	a0,104(s9)
     d68:	00d706bb          	addw	a3,a4,a3
     d6c:	20d13423          	sd	a3,520(sp)
     d70:	21013683          	ld	a3,528(sp)
     d74:	00d5c463          	blt	a1,a3,d7c <.LBB0_44>
     d78:	20b13823          	sd	a1,528(sp)

0000000000000d7c <.LBB0_44>:
     d7c:	2e012683          	lw	a3,736(sp)
     d80:	060ba703          	lw	a4,96(s7)
     d84:	064ca583          	lw	a1,100(s9)
     d88:	00c7863b          	addw	a2,a5,a2
     d8c:	20c13023          	sd	a2,512(sp)
     d90:	20813603          	ld	a2,520(sp)
     d94:	00c54463          	blt	a0,a2,d9c <.LBB0_46>
     d98:	20a13423          	sd	a0,520(sp)

0000000000000d9c <.LBB0_46>:
     d9c:	2dc12603          	lw	a2,732(sp)
     da0:	05cba783          	lw	a5,92(s7)
     da4:	060ca503          	lw	a0,96(s9)
     da8:	00d706bb          	addw	a3,a4,a3
     dac:	1ed13c23          	sd	a3,504(sp)
     db0:	20013683          	ld	a3,512(sp)
     db4:	00d5c463          	blt	a1,a3,dbc <.LBB0_48>
     db8:	20b13023          	sd	a1,512(sp)

0000000000000dbc <.LBB0_48>:
     dbc:	2d812683          	lw	a3,728(sp)
     dc0:	058ba703          	lw	a4,88(s7)
     dc4:	05cca583          	lw	a1,92(s9)
     dc8:	00c7863b          	addw	a2,a5,a2
     dcc:	1ec13823          	sd	a2,496(sp)
     dd0:	1f813603          	ld	a2,504(sp)
     dd4:	00c54463          	blt	a0,a2,ddc <.LBB0_50>
     dd8:	1ea13c23          	sd	a0,504(sp)

0000000000000ddc <.LBB0_50>:
     ddc:	2d412603          	lw	a2,724(sp)
     de0:	054ba783          	lw	a5,84(s7)
     de4:	058ca503          	lw	a0,88(s9)
     de8:	00d706bb          	addw	a3,a4,a3
     dec:	1ed13423          	sd	a3,488(sp)
     df0:	1f013683          	ld	a3,496(sp)
     df4:	00d5c463          	blt	a1,a3,dfc <.LBB0_52>
     df8:	1eb13823          	sd	a1,496(sp)

0000000000000dfc <.LBB0_52>:
     dfc:	2d012683          	lw	a3,720(sp)
     e00:	050ba703          	lw	a4,80(s7)
     e04:	054ca583          	lw	a1,84(s9)
     e08:	00c7863b          	addw	a2,a5,a2
     e0c:	1ec13023          	sd	a2,480(sp)
     e10:	1e813603          	ld	a2,488(sp)
     e14:	00c54463          	blt	a0,a2,e1c <.LBB0_54>
     e18:	1ea13423          	sd	a0,488(sp)

0000000000000e1c <.LBB0_54>:
     e1c:	2cc12603          	lw	a2,716(sp)
     e20:	04cba783          	lw	a5,76(s7)
     e24:	050ca503          	lw	a0,80(s9)
     e28:	00d706bb          	addw	a3,a4,a3
     e2c:	1cd13c23          	sd	a3,472(sp)
     e30:	1e013683          	ld	a3,480(sp)
     e34:	00d5c463          	blt	a1,a3,e3c <.LBB0_56>
     e38:	1eb13023          	sd	a1,480(sp)

0000000000000e3c <.LBB0_56>:
     e3c:	2c812683          	lw	a3,712(sp)
     e40:	048ba703          	lw	a4,72(s7)
     e44:	04cca583          	lw	a1,76(s9)
     e48:	00c7863b          	addw	a2,a5,a2
     e4c:	1cc13823          	sd	a2,464(sp)
     e50:	1d813603          	ld	a2,472(sp)
     e54:	00c54463          	blt	a0,a2,e5c <.LBB0_58>
     e58:	1ca13c23          	sd	a0,472(sp)

0000000000000e5c <.LBB0_58>:
     e5c:	2c412603          	lw	a2,708(sp)
     e60:	044ba783          	lw	a5,68(s7)
     e64:	048ca503          	lw	a0,72(s9)
     e68:	00d706bb          	addw	a3,a4,a3
     e6c:	1cd13423          	sd	a3,456(sp)
     e70:	1d013683          	ld	a3,464(sp)
     e74:	00d5c463          	blt	a1,a3,e7c <.LBB0_60>
     e78:	1cb13823          	sd	a1,464(sp)

0000000000000e7c <.LBB0_60>:
     e7c:	2c012683          	lw	a3,704(sp)
     e80:	040ba703          	lw	a4,64(s7)
     e84:	044ca583          	lw	a1,68(s9)
     e88:	00c7863b          	addw	a2,a5,a2
     e8c:	1ac13c23          	sd	a2,440(sp)
     e90:	1c813603          	ld	a2,456(sp)
     e94:	00c54463          	blt	a0,a2,e9c <.LBB0_62>
     e98:	1ca13423          	sd	a0,456(sp)

0000000000000e9c <.LBB0_62>:
     e9c:	33c12603          	lw	a2,828(sp)
     ea0:	0bcba783          	lw	a5,188(s7)
     ea4:	040ca503          	lw	a0,64(s9)
     ea8:	00d706bb          	addw	a3,a4,a3
     eac:	1ad13423          	sd	a3,424(sp)
     eb0:	1b813683          	ld	a3,440(sp)
     eb4:	00d5c463          	blt	a1,a3,ebc <.LBB0_64>
     eb8:	1ab13c23          	sd	a1,440(sp)

0000000000000ebc <.LBB0_64>:
     ebc:	33812683          	lw	a3,824(sp)
     ec0:	0b8ba703          	lw	a4,184(s7)
     ec4:	0bcca583          	lw	a1,188(s9)
     ec8:	00c7863b          	addw	a2,a5,a2
     ecc:	1cc13023          	sd	a2,448(sp)
     ed0:	1a813603          	ld	a2,424(sp)
     ed4:	00c54463          	blt	a0,a2,edc <.LBB0_66>
     ed8:	1aa13423          	sd	a0,424(sp)

0000000000000edc <.LBB0_66>:
     edc:	33412603          	lw	a2,820(sp)
     ee0:	0b4ba783          	lw	a5,180(s7)
     ee4:	0b8ca503          	lw	a0,184(s9)
     ee8:	00d706bb          	addw	a3,a4,a3
     eec:	1ad13823          	sd	a3,432(sp)
     ef0:	1c013683          	ld	a3,448(sp)
     ef4:	00d5c463          	blt	a1,a3,efc <.LBB0_68>
     ef8:	1cb13023          	sd	a1,448(sp)

0000000000000efc <.LBB0_68>:
     efc:	33012683          	lw	a3,816(sp)
     f00:	0b0ba703          	lw	a4,176(s7)
     f04:	0b4ca583          	lw	a1,180(s9)
     f08:	00c7863b          	addw	a2,a5,a2
     f0c:	1ac13023          	sd	a2,416(sp)
     f10:	1b013603          	ld	a2,432(sp)
     f14:	00c54463          	blt	a0,a2,f1c <.LBB0_70>
     f18:	1aa13823          	sd	a0,432(sp)

0000000000000f1c <.LBB0_70>:
     f1c:	32c12603          	lw	a2,812(sp)
     f20:	0acba783          	lw	a5,172(s7)
     f24:	0b0ca503          	lw	a0,176(s9)
     f28:	00d706bb          	addw	a3,a4,a3
     f2c:	18d13c23          	sd	a3,408(sp)
     f30:	1a013683          	ld	a3,416(sp)
     f34:	00d5c463          	blt	a1,a3,f3c <.LBB0_72>
     f38:	1ab13023          	sd	a1,416(sp)

0000000000000f3c <.LBB0_72>:
     f3c:	32812683          	lw	a3,808(sp)
     f40:	0a8ba703          	lw	a4,168(s7)
     f44:	0acca583          	lw	a1,172(s9)
     f48:	00c7863b          	addw	a2,a5,a2
     f4c:	18c13823          	sd	a2,400(sp)
     f50:	19813603          	ld	a2,408(sp)
     f54:	00c54463          	blt	a0,a2,f5c <.LBB0_74>
     f58:	18a13c23          	sd	a0,408(sp)

0000000000000f5c <.LBB0_74>:
     f5c:	32412603          	lw	a2,804(sp)
     f60:	0a4ba783          	lw	a5,164(s7)
     f64:	0a8ca503          	lw	a0,168(s9)
     f68:	00d706bb          	addw	a3,a4,a3
     f6c:	18d13423          	sd	a3,392(sp)
     f70:	19013683          	ld	a3,400(sp)
     f74:	00d5c463          	blt	a1,a3,f7c <.LBB0_76>
     f78:	18b13823          	sd	a1,400(sp)

0000000000000f7c <.LBB0_76>:
     f7c:	32012683          	lw	a3,800(sp)
     f80:	0a0ba703          	lw	a4,160(s7)
     f84:	0a4ca583          	lw	a1,164(s9)
     f88:	00c7863b          	addw	a2,a5,a2
     f8c:	18c13023          	sd	a2,384(sp)
     f90:	18813603          	ld	a2,392(sp)
     f94:	00c54463          	blt	a0,a2,f9c <.LBB0_78>
     f98:	18a13423          	sd	a0,392(sp)

0000000000000f9c <.LBB0_78>:
     f9c:	31c12603          	lw	a2,796(sp)
     fa0:	09cba783          	lw	a5,156(s7)
     fa4:	0a0ca503          	lw	a0,160(s9)
     fa8:	00d706bb          	addw	a3,a4,a3
     fac:	16d13c23          	sd	a3,376(sp)
     fb0:	18013683          	ld	a3,384(sp)
     fb4:	00d5c463          	blt	a1,a3,fbc <.LBB0_80>
     fb8:	18b13023          	sd	a1,384(sp)

0000000000000fbc <.LBB0_80>:
     fbc:	31812683          	lw	a3,792(sp)
     fc0:	098ba703          	lw	a4,152(s7)
     fc4:	09cca583          	lw	a1,156(s9)
     fc8:	00c7863b          	addw	a2,a5,a2
     fcc:	16c13823          	sd	a2,368(sp)
     fd0:	17813603          	ld	a2,376(sp)
     fd4:	00c54463          	blt	a0,a2,fdc <.LBB0_82>
     fd8:	16a13c23          	sd	a0,376(sp)

0000000000000fdc <.LBB0_82>:
     fdc:	31412603          	lw	a2,788(sp)
     fe0:	094ba783          	lw	a5,148(s7)
     fe4:	098ca503          	lw	a0,152(s9)
     fe8:	00d706bb          	addw	a3,a4,a3
     fec:	16d13423          	sd	a3,360(sp)
     ff0:	17013683          	ld	a3,368(sp)
     ff4:	00d5c463          	blt	a1,a3,ffc <.LBB0_84>
     ff8:	16b13823          	sd	a1,368(sp)

0000000000000ffc <.LBB0_84>:
     ffc:	31012683          	lw	a3,784(sp)
    1000:	090ba703          	lw	a4,144(s7)
    1004:	094ca583          	lw	a1,148(s9)
    1008:	00c7863b          	addw	a2,a5,a2
    100c:	16c13023          	sd	a2,352(sp)
    1010:	16813603          	ld	a2,360(sp)
    1014:	00c54463          	blt	a0,a2,101c <.LBB0_86>
    1018:	16a13423          	sd	a0,360(sp)

000000000000101c <.LBB0_86>:
    101c:	30c12603          	lw	a2,780(sp)
    1020:	08cba783          	lw	a5,140(s7)
    1024:	090ca503          	lw	a0,144(s9)
    1028:	00d706bb          	addw	a3,a4,a3
    102c:	14d13c23          	sd	a3,344(sp)
    1030:	16013683          	ld	a3,352(sp)
    1034:	00d5c463          	blt	a1,a3,103c <.LBB0_88>
    1038:	16b13023          	sd	a1,352(sp)

000000000000103c <.LBB0_88>:
    103c:	30812683          	lw	a3,776(sp)
    1040:	088ba703          	lw	a4,136(s7)
    1044:	08cca583          	lw	a1,140(s9)
    1048:	00c7863b          	addw	a2,a5,a2
    104c:	14c13823          	sd	a2,336(sp)
    1050:	15813603          	ld	a2,344(sp)
    1054:	00c54463          	blt	a0,a2,105c <.LBB0_90>
    1058:	14a13c23          	sd	a0,344(sp)

000000000000105c <.LBB0_90>:
    105c:	30412603          	lw	a2,772(sp)
    1060:	084ba783          	lw	a5,132(s7)
    1064:	088ca503          	lw	a0,136(s9)
    1068:	00d706bb          	addw	a3,a4,a3
    106c:	14d13423          	sd	a3,328(sp)
    1070:	15013683          	ld	a3,336(sp)
    1074:	00d5c463          	blt	a1,a3,107c <.LBB0_92>
    1078:	14b13823          	sd	a1,336(sp)

000000000000107c <.LBB0_92>:
    107c:	0f013823          	sd	a6,240(sp)
    1080:	30012683          	lw	a3,768(sp)
    1084:	080ba703          	lw	a4,128(s7)
    1088:	084ca583          	lw	a1,132(s9)
    108c:	00c787bb          	addw	a5,a5,a2
    1090:	14813603          	ld	a2,328(sp)
    1094:	00c54463          	blt	a0,a2,109c <.LBB0_94>
    1098:	14a13423          	sd	a0,328(sp)

000000000000109c <.LBB0_94>:
    109c:	37c12603          	lw	a2,892(sp)
    10a0:	0fcba803          	lw	a6,252(s7)
    10a4:	080ca503          	lw	a0,128(s9)
    10a8:	00d7073b          	addw	a4,a4,a3
    10ac:	00f5c463          	blt	a1,a5,10b4 <.LBB0_96>
    10b0:	00058793          	mv	a5,a1

00000000000010b4 <.LBB0_96>:
    10b4:	08f13023          	sd	a5,128(sp)
    10b8:	37812683          	lw	a3,888(sp)
    10bc:	0f8ba783          	lw	a5,248(s7)
    10c0:	0fcca583          	lw	a1,252(s9)
    10c4:	00c8083b          	addw	a6,a6,a2
    10c8:	00e54463          	blt	a0,a4,10d0 <.LBB0_98>
    10cc:	00050713          	mv	a4,a0

00000000000010d0 <.LBB0_98>:
    10d0:	06e13c23          	sd	a4,120(sp)
    10d4:	37412603          	lw	a2,884(sp)
    10d8:	0f4ba703          	lw	a4,244(s7)
    10dc:	0f8ca503          	lw	a0,248(s9)
    10e0:	00d786bb          	addw	a3,a5,a3
    10e4:	14d13023          	sd	a3,320(sp)
    10e8:	0105c463          	blt	a1,a6,10f0 <.LBB0_100>
    10ec:	00058813          	mv	a6,a1

00000000000010f0 <.LBB0_100>:
    10f0:	37012683          	lw	a3,880(sp)
    10f4:	0f0ba783          	lw	a5,240(s7)
    10f8:	0f4ca583          	lw	a1,244(s9)
    10fc:	00c7063b          	addw	a2,a4,a2
    1100:	12c13c23          	sd	a2,312(sp)
    1104:	14013603          	ld	a2,320(sp)
    1108:	00c54463          	blt	a0,a2,1110 <.LBB0_102>
    110c:	14a13023          	sd	a0,320(sp)

0000000000001110 <.LBB0_102>:
    1110:	36c12603          	lw	a2,876(sp)
    1114:	0ecba703          	lw	a4,236(s7)
    1118:	0f0ca503          	lw	a0,240(s9)
    111c:	00d786bb          	addw	a3,a5,a3
    1120:	12d13823          	sd	a3,304(sp)
    1124:	13813683          	ld	a3,312(sp)
    1128:	00d5c463          	blt	a1,a3,1130 <.LBB0_104>
    112c:	12b13c23          	sd	a1,312(sp)

0000000000001130 <.LBB0_104>:
    1130:	36812683          	lw	a3,872(sp)
    1134:	0e8ba783          	lw	a5,232(s7)
    1138:	0ecca583          	lw	a1,236(s9)
    113c:	00c7063b          	addw	a2,a4,a2
    1140:	12c13423          	sd	a2,296(sp)
    1144:	13013603          	ld	a2,304(sp)
    1148:	00c54463          	blt	a0,a2,1150 <.LBB0_106>
    114c:	12a13823          	sd	a0,304(sp)

0000000000001150 <.LBB0_106>:
    1150:	36412603          	lw	a2,868(sp)
    1154:	0e4ba703          	lw	a4,228(s7)
    1158:	0e8ca503          	lw	a0,232(s9)
    115c:	00d786bb          	addw	a3,a5,a3
    1160:	12d13023          	sd	a3,288(sp)
    1164:	12813683          	ld	a3,296(sp)
    1168:	00d5c463          	blt	a1,a3,1170 <.LBB0_108>
    116c:	12b13423          	sd	a1,296(sp)

0000000000001170 <.LBB0_108>:
    1170:	36012683          	lw	a3,864(sp)
    1174:	0e0ba783          	lw	a5,224(s7)
    1178:	0e4ca583          	lw	a1,228(s9)
    117c:	00c7063b          	addw	a2,a4,a2
    1180:	10c13c23          	sd	a2,280(sp)
    1184:	12013603          	ld	a2,288(sp)
    1188:	00c54463          	blt	a0,a2,1190 <.LBB0_110>
    118c:	12a13023          	sd	a0,288(sp)

0000000000001190 <.LBB0_110>:
    1190:	22513423          	sd	t0,552(sp)
    1194:	35c12603          	lw	a2,860(sp)
    1198:	0dcba703          	lw	a4,220(s7)
    119c:	0e0ca503          	lw	a0,224(s9)
    11a0:	00d782bb          	addw	t0,a5,a3
    11a4:	11813683          	ld	a3,280(sp)
    11a8:	00d5c463          	blt	a1,a3,11b0 <.LBB0_112>
    11ac:	10b13c23          	sd	a1,280(sp)

00000000000011b0 <.LBB0_112>:
    11b0:	0e613423          	sd	t1,232(sp)
    11b4:	35812683          	lw	a3,856(sp)
    11b8:	0d8ba783          	lw	a5,216(s7)
    11bc:	0dcca583          	lw	a1,220(s9)
    11c0:	00c7033b          	addw	t1,a4,a2
    11c4:	00554463          	blt	a0,t0,11cc <.LBB0_114>
    11c8:	00050293          	mv	t0,a0

00000000000011cc <.LBB0_114>:
    11cc:	0e713023          	sd	t2,224(sp)
    11d0:	35412603          	lw	a2,852(sp)
    11d4:	0d4ba703          	lw	a4,212(s7)
    11d8:	0d8ca503          	lw	a0,216(s9)
    11dc:	00d783bb          	addw	t2,a5,a3
    11e0:	0065c463          	blt	a1,t1,11e8 <.LBB0_116>
    11e4:	00058313          	mv	t1,a1

00000000000011e8 <.LBB0_116>:
    11e8:	0dc13c23          	sd	t3,216(sp)
    11ec:	35012683          	lw	a3,848(sp)
    11f0:	0d0ba783          	lw	a5,208(s7)
    11f4:	0d4ca583          	lw	a1,212(s9)
    11f8:	00c70e3b          	addw	t3,a4,a2
    11fc:	00754463          	blt	a0,t2,1204 <.LBB0_118>
    1200:	00050393          	mv	t2,a0

0000000000001204 <.LBB0_118>:
    1204:	0dd13823          	sd	t4,208(sp)
    1208:	34c12603          	lw	a2,844(sp)
    120c:	0ccba703          	lw	a4,204(s7)
    1210:	0d0ca503          	lw	a0,208(s9)
    1214:	00d786bb          	addw	a3,a5,a3
    1218:	10d13823          	sd	a3,272(sp)
    121c:	01c5c463          	blt	a1,t3,1224 <.LBB0_120>
    1220:	00058e13          	mv	t3,a1

0000000000001224 <.LBB0_120>:
    1224:	0df13023          	sd	t6,192(sp)
    1228:	34812683          	lw	a3,840(sp)
    122c:	0c8ba783          	lw	a5,200(s7)
    1230:	0ccca583          	lw	a1,204(s9)
    1234:	00c70ebb          	addw	t4,a4,a2
    1238:	11013603          	ld	a2,272(sp)
    123c:	00c54463          	blt	a0,a2,1244 <.LBB0_122>
    1240:	10a13823          	sd	a0,272(sp)

0000000000001244 <.LBB0_122>:
    1244:	0b213823          	sd	s2,176(sp)
    1248:	34412603          	lw	a2,836(sp)
    124c:	0c4ba703          	lw	a4,196(s7)
    1250:	0c8ca503          	lw	a0,200(s9)
    1254:	00d78fbb          	addw	t6,a5,a3
    1258:	01d5c463          	blt	a1,t4,1260 <.LBB0_124>
    125c:	00058e93          	mv	t4,a1

0000000000001260 <.LBB0_124>:
    1260:	0b413423          	sd	s4,168(sp)
    1264:	34012683          	lw	a3,832(sp)
    1268:	0c0ba783          	lw	a5,192(s7)
    126c:	0c4ca583          	lw	a1,196(s9)
    1270:	00c7093b          	addw	s2,a4,a2
    1274:	01f54463          	blt	a0,t6,127c <.LBB0_126>
    1278:	00050f93          	mv	t6,a0

000000000000127c <.LBB0_126>:
    127c:	0de13423          	sd	t5,200(sp)
    1280:	13cba603          	lw	a2,316(s7)
    1284:	0c0ca503          	lw	a0,192(s9)
    1288:	00d78a3b          	addw	s4,a5,a3
    128c:	0125c463          	blt	a1,s2,1294 <.LBB0_128>
    1290:	00058913          	mv	s2,a1

0000000000001294 <.LBB0_128>:
    1294:	0a913c23          	sd	s1,184(sp)
    1298:	138ba683          	lw	a3,312(s7)
    129c:	13cca583          	lw	a1,316(s9)
    12a0:	01360f3b          	addw	t5,a2,s3
    12a4:	41455a63          	bge	a0,s4,16b8 <.LBB0_161>
    12a8:	134ba603          	lw	a2,308(s7)
    12ac:	138ca503          	lw	a0,312(s9)
    12b0:	016684bb          	addw	s1,a3,s6
    12b4:	41e5dc63          	bge	a1,t5,16cc <.LBB0_162>

00000000000012b8 <.LBB0_130>:
    12b8:	130ba683          	lw	a3,304(s7)
    12bc:	134ca583          	lw	a1,308(s9)
    12c0:	015609bb          	addw	s3,a2,s5
    12c4:	00954463          	blt	a0,s1,12cc <.LBB0_132>

00000000000012c8 <.LBB0_131>:
    12c8:	00050493          	mv	s1,a0

00000000000012cc <.LBB0_132>:
    12cc:	0bb13023          	sd	s11,160(sp)
    12d0:	12cba603          	lw	a2,300(s7)
    12d4:	130ca503          	lw	a0,304(s9)
    12d8:	01a68d3b          	addw	s10,a3,s10
    12dc:	0135c463          	blt	a1,s3,12e4 <.LBB0_134>
    12e0:	00058993          	mv	s3,a1

00000000000012e4 <.LBB0_134>:
    12e4:	08113823          	sd	ra,144(sp)
    12e8:	128ba683          	lw	a3,296(s7)
    12ec:	12cca583          	lw	a1,300(s9)
    12f0:	23013703          	ld	a4,560(sp)
    12f4:	00e60dbb          	addw	s11,a2,a4
    12f8:	01a54463          	blt	a0,s10,1300 <.LBB0_136>
    12fc:	00050d13          	mv	s10,a0

0000000000001300 <.LBB0_136>:
    1300:	124ba603          	lw	a2,292(s7)
    1304:	128ca503          	lw	a0,296(s9)
    1308:	23813703          	ld	a4,568(sp)
    130c:	00e680bb          	addw	ra,a3,a4
    1310:	01b5c463          	blt	a1,s11,1318 <.LBB0_138>
    1314:	00058d93          	mv	s11,a1

0000000000001318 <.LBB0_138>:
    1318:	22513c23          	sd	t0,568(sp)
    131c:	120ba683          	lw	a3,288(s7)
    1320:	124ca583          	lw	a1,292(s9)
    1324:	24013703          	ld	a4,576(sp)
    1328:	00e60abb          	addw	s5,a2,a4
    132c:	00154463          	blt	a0,ra,1334 <.LBB0_140>
    1330:	00050093          	mv	ra,a0

0000000000001334 <.LBB0_140>:
    1334:	00088293          	mv	t0,a7
    1338:	11cba603          	lw	a2,284(s7)
    133c:	120ca503          	lw	a0,288(s9)
    1340:	24813703          	ld	a4,584(sp)
    1344:	00e68b3b          	addw	s6,a3,a4
    1348:	0155c463          	blt	a1,s5,1350 <.LBB0_142>
    134c:	00058a93          	mv	s5,a1

0000000000001350 <.LBB0_142>:
    1350:	25c13423          	sd	t3,584(sp)
    1354:	000c0893          	mv	a7,s8
    1358:	118ba683          	lw	a3,280(s7)
    135c:	11cca583          	lw	a1,284(s9)
    1360:	25013703          	ld	a4,592(sp)
    1364:	00e60bbb          	addw	s7,a2,a4
    1368:	01654463          	blt	a0,s6,1370 <.LBB0_144>
    136c:	00050b13          	mv	s6,a0

0000000000001370 <.LBB0_144>:
    1370:	00038e13          	mv	t3,t2
    1374:	01813503          	ld	a0,24(sp)
    1378:	11452603          	lw	a2,276(a0)
    137c:	118ca503          	lw	a0,280(s9)
    1380:	25813703          	ld	a4,600(sp)
    1384:	00e68c3b          	addw	s8,a3,a4
    1388:	0175c463          	blt	a1,s7,1390 <.LBB0_146>
    138c:	00058b93          	mv	s7,a1

0000000000001390 <.LBB0_146>:
    1390:	00030393          	mv	t2,t1
    1394:	01813583          	ld	a1,24(sp)
    1398:	1105a683          	lw	a3,272(a1)
    139c:	114ca583          	lw	a1,276(s9)
    13a0:	26013703          	ld	a4,608(sp)
    13a4:	00e60cbb          	addw	s9,a2,a4
    13a8:	01854463          	blt	a0,s8,13b0 <.LBB0_148>
    13ac:	00050c13          	mv	s8,a0

00000000000013b0 <.LBB0_148>:
    13b0:	00080313          	mv	t1,a6
    13b4:	01813503          	ld	a0,24(sp)
    13b8:	10c52703          	lw	a4,268(a0)
    13bc:	01013503          	ld	a0,16(sp)
    13c0:	11052603          	lw	a2,272(a0)
    13c4:	26813503          	ld	a0,616(sp)
    13c8:	00a6853b          	addw	a0,a3,a0
    13cc:	0195c463          	blt	a1,s9,13d4 <.LBB0_150>
    13d0:	00058c93          	mv	s9,a1

00000000000013d4 <.LBB0_150>:
    13d4:	01813583          	ld	a1,24(sp)
    13d8:	1085a803          	lw	a6,264(a1)
    13dc:	01013583          	ld	a1,16(sp)
    13e0:	10c5a683          	lw	a3,268(a1)
    13e4:	27013583          	ld	a1,624(sp)
    13e8:	00b705bb          	addw	a1,a4,a1
    13ec:	00a64463          	blt	a2,a0,13f4 <.LBB0_152>
    13f0:	00060513          	mv	a0,a2

00000000000013f4 <.LBB0_152>:
    13f4:	01813603          	ld	a2,24(sp)
    13f8:	10462783          	lw	a5,260(a2)
    13fc:	01013603          	ld	a2,16(sp)
    1400:	10862703          	lw	a4,264(a2)
    1404:	0118063b          	addw	a2,a6,a7
    1408:	00b6c463          	blt	a3,a1,1410 <.LBB0_154>
    140c:	00068593          	mv	a1,a3

0000000000001410 <.LBB0_154>:
    1410:	01813683          	ld	a3,24(sp)
    1414:	1006a883          	lw	a7,256(a3)
    1418:	01013683          	ld	a3,16(sp)
    141c:	1046a683          	lw	a3,260(a3)
    1420:	22813803          	ld	a6,552(sp)
    1424:	010787bb          	addw	a5,a5,a6
    1428:	00c74463          	blt	a4,a2,1430 <.LBB0_156>
    142c:	00070613          	mv	a2,a4

0000000000001430 <.LBB0_156>:
    1430:	01013703          	ld	a4,16(sp)
    1434:	10072803          	lw	a6,256(a4)
    1438:	27813703          	ld	a4,632(sp)
    143c:	00e8873b          	addw	a4,a7,a4
    1440:	00f6c463          	blt	a3,a5,1448 <.LBB0_158>
    1444:	00068793          	mv	a5,a3

0000000000001448 <.LBB0_158>:
    1448:	00e84463          	blt	a6,a4,1450 <.LBB0_160>
    144c:	00080713          	mv	a4,a6

0000000000001450 <.LBB0_160>:
    1450:	00813683          	ld	a3,8(sp)
    1454:	08813803          	ld	a6,136(sp)
    1458:	0106a023          	sw	a6,0(a3)
    145c:	09813803          	ld	a6,152(sp)
    1460:	0106a223          	sw	a6,4(a3)
    1464:	0a813803          	ld	a6,168(sp)
    1468:	0106a423          	sw	a6,8(a3)
    146c:	0b013803          	ld	a6,176(sp)
    1470:	0106a623          	sw	a6,12(a3)
    1474:	0b813803          	ld	a6,184(sp)
    1478:	0106a823          	sw	a6,16(a3)
    147c:	0c013803          	ld	a6,192(sp)
    1480:	0106aa23          	sw	a6,20(a3)
    1484:	0c813803          	ld	a6,200(sp)
    1488:	0106ac23          	sw	a6,24(a3)
    148c:	0d013803          	ld	a6,208(sp)
    1490:	0106ae23          	sw	a6,28(a3)
    1494:	0d813803          	ld	a6,216(sp)
    1498:	0306a023          	sw	a6,32(a3)
    149c:	0e013803          	ld	a6,224(sp)
    14a0:	0306a223          	sw	a6,36(a3)
    14a4:	0e813803          	ld	a6,232(sp)
    14a8:	0306a423          	sw	a6,40(a3)
    14ac:	0256a623          	sw	t0,44(a3)
    14b0:	0f013803          	ld	a6,240(sp)
    14b4:	0306a823          	sw	a6,48(a3)
    14b8:	0f813803          	ld	a6,248(sp)
    14bc:	0306aa23          	sw	a6,52(a3)
    14c0:	10013803          	ld	a6,256(sp)
    14c4:	0306ac23          	sw	a6,56(a3)
    14c8:	10813803          	ld	a6,264(sp)
    14cc:	0306ae23          	sw	a6,60(a3)
    14d0:	1a813803          	ld	a6,424(sp)
    14d4:	0506a023          	sw	a6,64(a3)
    14d8:	1b813803          	ld	a6,440(sp)
    14dc:	0506a223          	sw	a6,68(a3)
    14e0:	1c813803          	ld	a6,456(sp)
    14e4:	0506a423          	sw	a6,72(a3)
    14e8:	1d013803          	ld	a6,464(sp)
    14ec:	0506a623          	sw	a6,76(a3)
    14f0:	1d813803          	ld	a6,472(sp)
    14f4:	0506a823          	sw	a6,80(a3)
    14f8:	1e013803          	ld	a6,480(sp)
    14fc:	0506aa23          	sw	a6,84(a3)
    1500:	1e813803          	ld	a6,488(sp)
    1504:	0506ac23          	sw	a6,88(a3)
    1508:	1f013803          	ld	a6,496(sp)
    150c:	0506ae23          	sw	a6,92(a3)
    1510:	1f813803          	ld	a6,504(sp)
    1514:	0706a023          	sw	a6,96(a3)
    1518:	20013803          	ld	a6,512(sp)
    151c:	0706a223          	sw	a6,100(a3)
    1520:	20813803          	ld	a6,520(sp)
    1524:	0706a423          	sw	a6,104(a3)
    1528:	21013803          	ld	a6,528(sp)
    152c:	0706a623          	sw	a6,108(a3)
    1530:	21813803          	ld	a6,536(sp)
    1534:	0706a823          	sw	a6,112(a3)
    1538:	22013803          	ld	a6,544(sp)
    153c:	0706aa23          	sw	a6,116(a3)
    1540:	09013803          	ld	a6,144(sp)
    1544:	0706ac23          	sw	a6,120(a3)
    1548:	0a013803          	ld	a6,160(sp)
    154c:	0706ae23          	sw	a6,124(a3)
    1550:	07813803          	ld	a6,120(sp)
    1554:	0906a023          	sw	a6,128(a3)
    1558:	08013803          	ld	a6,128(sp)
    155c:	0906a223          	sw	a6,132(a3)
    1560:	14813803          	ld	a6,328(sp)
    1564:	0906a423          	sw	a6,136(a3)
    1568:	15013803          	ld	a6,336(sp)
    156c:	0906a623          	sw	a6,140(a3)
    1570:	15813803          	ld	a6,344(sp)
    1574:	0906a823          	sw	a6,144(a3)
    1578:	16013803          	ld	a6,352(sp)
    157c:	0906aa23          	sw	a6,148(a3)
    1580:	16813803          	ld	a6,360(sp)
    1584:	0906ac23          	sw	a6,152(a3)
    1588:	17013803          	ld	a6,368(sp)
    158c:	0906ae23          	sw	a6,156(a3)
    1590:	17813803          	ld	a6,376(sp)
    1594:	0b06a023          	sw	a6,160(a3)
    1598:	18013803          	ld	a6,384(sp)
    159c:	0b06a223          	sw	a6,164(a3)
    15a0:	18813803          	ld	a6,392(sp)
    15a4:	0b06a423          	sw	a6,168(a3)
    15a8:	19013803          	ld	a6,400(sp)
    15ac:	0b06a623          	sw	a6,172(a3)
    15b0:	19813803          	ld	a6,408(sp)
    15b4:	0b06a823          	sw	a6,176(a3)
    15b8:	1a013803          	ld	a6,416(sp)
    15bc:	0b06aa23          	sw	a6,180(a3)
    15c0:	1b013803          	ld	a6,432(sp)
    15c4:	0b06ac23          	sw	a6,184(a3)
    15c8:	1c013803          	ld	a6,448(sp)
    15cc:	0b06ae23          	sw	a6,188(a3)
    15d0:	0d46a023          	sw	s4,192(a3)
    15d4:	0d26a223          	sw	s2,196(a3)
    15d8:	0df6a423          	sw	t6,200(a3)
    15dc:	0dd6a623          	sw	t4,204(a3)
    15e0:	11013803          	ld	a6,272(sp)
    15e4:	0d06a823          	sw	a6,208(a3)
    15e8:	24813803          	ld	a6,584(sp)
    15ec:	0d06aa23          	sw	a6,212(a3)
    15f0:	0dc6ac23          	sw	t3,216(a3)
    15f4:	0c76ae23          	sw	t2,220(a3)
    15f8:	23813803          	ld	a6,568(sp)
    15fc:	0f06a023          	sw	a6,224(a3)
    1600:	11813803          	ld	a6,280(sp)
    1604:	0f06a223          	sw	a6,228(a3)
    1608:	12013803          	ld	a6,288(sp)
    160c:	0f06a423          	sw	a6,232(a3)
    1610:	12813803          	ld	a6,296(sp)
    1614:	0f06a623          	sw	a6,236(a3)
    1618:	13013803          	ld	a6,304(sp)
    161c:	0f06a823          	sw	a6,240(a3)
    1620:	13813803          	ld	a6,312(sp)
    1624:	0f06aa23          	sw	a6,244(a3)
    1628:	14013803          	ld	a6,320(sp)
    162c:	0f06ac23          	sw	a6,248(a3)
    1630:	0e66ae23          	sw	t1,252(a3)
    1634:	10e6a023          	sw	a4,256(a3)
    1638:	10f6a223          	sw	a5,260(a3)
    163c:	10c6a423          	sw	a2,264(a3)
    1640:	10b6a623          	sw	a1,268(a3)
    1644:	10a6a823          	sw	a0,272(a3)
    1648:	1196aa23          	sw	s9,276(a3)
    164c:	1186ac23          	sw	s8,280(a3)
    1650:	1176ae23          	sw	s7,284(a3)
    1654:	1366a023          	sw	s6,288(a3)
    1658:	1356a223          	sw	s5,292(a3)
    165c:	1216a423          	sw	ra,296(a3)
    1660:	13b6a623          	sw	s11,300(a3)
    1664:	13a6a823          	sw	s10,304(a3)
    1668:	1336aa23          	sw	s3,308(a3)
    166c:	1296ac23          	sw	s1,312(a3)
    1670:	13e6ae23          	sw	t5,316(a3)
    1674:	00000513          	li	a0,0
    1678:	bc040113          	addi	sp,s0,-1088
    167c:	43813083          	ld	ra,1080(sp)
    1680:	43013403          	ld	s0,1072(sp)
    1684:	42813483          	ld	s1,1064(sp)
    1688:	42013903          	ld	s2,1056(sp)
    168c:	41813983          	ld	s3,1048(sp)
    1690:	41013a03          	ld	s4,1040(sp)
    1694:	40813a83          	ld	s5,1032(sp)
    1698:	40013b03          	ld	s6,1024(sp)
    169c:	3f813b83          	ld	s7,1016(sp)
    16a0:	3f013c03          	ld	s8,1008(sp)
    16a4:	3e813c83          	ld	s9,1000(sp)
    16a8:	3e013d03          	ld	s10,992(sp)
    16ac:	3d813d83          	ld	s11,984(sp)
    16b0:	44010113          	addi	sp,sp,1088
    16b4:	00008067          	ret

00000000000016b8 <.LBB0_161>:
    16b8:	00050a13          	mv	s4,a0
    16bc:	134ba603          	lw	a2,308(s7)
    16c0:	138ca503          	lw	a0,312(s9)
    16c4:	016684bb          	addw	s1,a3,s6
    16c8:	bfe5c8e3          	blt	a1,t5,12b8 <.LBB0_130>

00000000000016cc <.LBB0_162>:
    16cc:	00058f13          	mv	t5,a1
    16d0:	130ba683          	lw	a3,304(s7)
    16d4:	134ca583          	lw	a1,308(s9)
    16d8:	015609bb          	addw	s3,a2,s5
    16dc:	be9556e3          	bge	a0,s1,12c8 <.LBB0_131>
    16e0:	bedff06f          	j	12cc <.LBB0_132>
