	.arch armv8-a
	.file	"main.c"
	.text
.Ltext0:
	.file 0 "/repos/_WORK/iree-internal/_demos/asm_call" "main.c"
	.section	.rodata
	.align	3
.LC0:
	.string	"start main "
	.align	3
.LC1:
	.string	"in[0]: %f \n"
	.align	3
.LC2:
	.string	"out[0]: %f \n"
	.align	3
.LC3:
	.string	"start abs_dispatch_0_generic "
	.align	3
.LC4:
	.string	"end abs_dispatch_0_generic "
	.align	3
.LC5:
	.string	"end main "
	.text
	.align	2
	.global	main
	.type	main, %function
main:
.LFB0:
	.file 1 "main.c"
	.loc 1 47 16
	.cfi_startproc
	stp	x29, x30, [sp, -128]!
	.cfi_def_cfa_offset 128
	.cfi_offset 29, -128
	.cfi_offset 30, -120
	mov	x29, sp
	.loc 1 47 16
	adrp	x0, :got:__stack_chk_guard
	ldr	x0, [x0, #:got_lo12:__stack_chk_guard]
	ldr	x1, [x0]
	str	x1, [sp, 120]
	mov	x1, 0
	.loc 1 48 3
	adrp	x0, .LC0
	add	x0, x0, :lo12:.LC0
	bl	puts
	.loc 1 49 9
	mov	w0, 52429
	movk	w0, 0xbdcc, lsl 16
	fmov	s0, w0
	str	s0, [sp, 64]
	.loc 1 50 9
	str	wzr, [sp, 72]
	.loc 1 52 12
	str	wzr, [sp, 80]
	.loc 1 53 10
	mov	x0, 1
	str	x0, [sp, 88]
	mov	x0, 1
	str	x0, [sp, 96]
	.loc 1 54 9
	add	x0, sp, 64
	str	x0, [sp, 104]
	add	x0, sp, 72
	str	x0, [sp, 112]
	.loc 1 55 43
	mov	w0, 1
	str	w0, [sp, 16]
	mov	w0, 1
	str	w0, [sp, 20]
	mov	w0, 1
	strh	w0, [sp, 24]
	strh	wzr, [sp, 26]
	mov	w0, 1
	str	w0, [sp, 28]
	mov	w0, 1
	str	w0, [sp, 32]
	mov	w0, 1
	strh	w0, [sp, 36]
	mov	w0, 1
	strb	w0, [sp, 38]
	mov	w0, 2
	strb	w0, [sp, 39]
	add	x0, sp, 80
	str	x0, [sp, 40]
	add	x0, sp, 104
	str	x0, [sp, 48]
	add	x0, sp, 88
	str	x0, [sp, 56]
	.loc 1 69 28
	ldr	s0, [sp, 64]
	.loc 1 69 3
	fcvt	d0, s0
	adrp	x0, .LC1
	add	x0, x0, :lo12:.LC1
	bl	printf
	.loc 1 70 30
	ldr	s0, [sp, 72]
	.loc 1 70 3
	fcvt	d0, s0
	adrp	x0, .LC2
	add	x0, x0, :lo12:.LC2
	bl	printf
	.loc 1 71 3
	adrp	x0, .LC3
	add	x0, x0, :lo12:.LC3
	bl	puts
	.loc 1 73 3
	add	x0, sp, 16
	mov	x2, 0
	mov	x1, x0
	mov	x0, 0
	bl	abs_dispatch_0_generic
	.loc 1 75 3
	adrp	x0, .LC4
	add	x0, x0, :lo12:.LC4
	bl	puts
	.loc 1 76 28
	ldr	s0, [sp, 64]
	.loc 1 76 3
	fcvt	d0, s0
	adrp	x0, .LC1
	add	x0, x0, :lo12:.LC1
	bl	printf
	.loc 1 77 30
	ldr	s0, [sp, 72]
	.loc 1 77 3
	fcvt	d0, s0
	adrp	x0, .LC2
	add	x0, x0, :lo12:.LC2
	bl	printf
	.loc 1 78 3
	adrp	x0, .LC5
	add	x0, x0, :lo12:.LC5
	bl	puts
	.loc 1 79 10
	mov	w0, 0
	.loc 1 80 1
	mov	w1, w0
	adrp	x0, :got:__stack_chk_guard
	ldr	x0, [x0, #:got_lo12:__stack_chk_guard]
	ldr	x3, [sp, 120]
	ldr	x2, [x0]
	subs	x3, x3, x2
	mov	x2, 0
	beq	.L3
	bl	__stack_chk_fail
.L3:
	mov	w0, w1
	ldp	x29, x30, [sp], 128
	.cfi_restore 30
	.cfi_restore 29
	.cfi_def_cfa_offset 0
	ret
	.cfi_endproc
.LFE0:
	.size	main, .-main
.Letext0:
	.file 2 "/usr/include/aarch64-linux-gnu/bits/types.h"
	.file 3 "/usr/include/aarch64-linux-gnu/bits/stdint-uintn.h"
	.file 4 "/usr/lib/gcc/aarch64-linux-gnu/11/include/stddef.h"
	.file 5 "/usr/include/stdio.h"
	.section	.note.GNU-stack,"",@progbits
